   1               		.file	"timer.c"
   2               	__SP_H__ = 0x3e
   3               	__SP_L__ = 0x3d
   4               	__SREG__ = 0x3f
   5               	__tmp_reg__ = 0
   6               	__zero_reg__ = 1
   7               		.text
   8               	.Ltext0:
   9               		.cfi_sections	.debug_frame
  10               		.section	.text.timer_init,"ax",@progbits
  11               	.global	timer_init
  13               	timer_init:
  14               	.LFB0:
  15               		.file 1 "../../tmk_core/common/avr/timer.c"
   1:../../tmk_core/common/avr/timer.c **** /*
   2:../../tmk_core/common/avr/timer.c **** Copyright 2011 Jun Wako <wakojun@gmail.com>
   3:../../tmk_core/common/avr/timer.c **** 
   4:../../tmk_core/common/avr/timer.c **** This program is free software: you can redistribute it and/or modify
   5:../../tmk_core/common/avr/timer.c **** it under the terms of the GNU General Public License as published by
   6:../../tmk_core/common/avr/timer.c **** the Free Software Foundation, either version 2 of the License, or
   7:../../tmk_core/common/avr/timer.c **** (at your option) any later version.
   8:../../tmk_core/common/avr/timer.c **** 
   9:../../tmk_core/common/avr/timer.c **** This program is distributed in the hope that it will be useful,
  10:../../tmk_core/common/avr/timer.c **** but WITHOUT ANY WARRANTY; without even the implied warranty of
  11:../../tmk_core/common/avr/timer.c **** MERCHANTABILITY or FITNESS FOR A PARTICULAR PURPOSE.  See the
  12:../../tmk_core/common/avr/timer.c **** GNU General Public License for more details.
  13:../../tmk_core/common/avr/timer.c **** 
  14:../../tmk_core/common/avr/timer.c **** You should have received a copy of the GNU General Public License
  15:../../tmk_core/common/avr/timer.c **** along with this program.  If not, see <http://www.gnu.org/licenses/>.
  16:../../tmk_core/common/avr/timer.c **** */
  17:../../tmk_core/common/avr/timer.c **** 
  18:../../tmk_core/common/avr/timer.c **** #include <avr/io.h>
  19:../../tmk_core/common/avr/timer.c **** #include <avr/interrupt.h>
  20:../../tmk_core/common/avr/timer.c **** #include <stdint.h>
  21:../../tmk_core/common/avr/timer.c **** #include "timer_avr.h"
  22:../../tmk_core/common/avr/timer.c **** #include "timer.h"
  23:../../tmk_core/common/avr/timer.c **** 
  24:../../tmk_core/common/avr/timer.c **** 
  25:../../tmk_core/common/avr/timer.c **** // counter resolution 1ms
  26:../../tmk_core/common/avr/timer.c **** // NOTE: union { uint32_t timer32; struct { uint16_t dummy; uint16_t timer16; }}
  27:../../tmk_core/common/avr/timer.c **** volatile uint32_t timer_count = 0;
  28:../../tmk_core/common/avr/timer.c **** 
  29:../../tmk_core/common/avr/timer.c **** void timer_init(void)
  30:../../tmk_core/common/avr/timer.c **** {
  16               		.loc 1 30 1 view -0
  17               		.cfi_startproc
  18               	/* prologue: function */
  19               	/* frame size = 0 */
  20               	/* stack size = 0 */
  21               	.L__stack_usage = 0
  31:../../tmk_core/common/avr/timer.c ****     // Timer0 CTC mode
  32:../../tmk_core/common/avr/timer.c ****     TCCR0A = 0x02;
  22               		.loc 1 32 5 view .LVU1
  23               		.loc 1 32 12 is_stmt 0 view .LVU2
  24 0000 82E0      		ldi r24,lo8(2)
  25 0002 84BD      		out 0x24,r24
  33:../../tmk_core/common/avr/timer.c **** 
  34:../../tmk_core/common/avr/timer.c **** #if TIMER_PRESCALER == 1
  35:../../tmk_core/common/avr/timer.c ****     TCCR0B = 0x01;
  36:../../tmk_core/common/avr/timer.c **** #elif TIMER_PRESCALER == 8
  37:../../tmk_core/common/avr/timer.c ****     TCCR0B = 0x02;
  38:../../tmk_core/common/avr/timer.c **** #elif TIMER_PRESCALER == 64
  39:../../tmk_core/common/avr/timer.c ****     TCCR0B = 0x03;
  26               		.loc 1 39 5 is_stmt 1 view .LVU3
  27               		.loc 1 39 12 is_stmt 0 view .LVU4
  28 0004 93E0      		ldi r25,lo8(3)
  29 0006 95BD      		out 0x25,r25
  40:../../tmk_core/common/avr/timer.c **** #elif TIMER_PRESCALER == 256
  41:../../tmk_core/common/avr/timer.c ****     TCCR0B = 0x04;
  42:../../tmk_core/common/avr/timer.c **** #elif TIMER_PRESCALER == 1024
  43:../../tmk_core/common/avr/timer.c ****     TCCR0B = 0x05;
  44:../../tmk_core/common/avr/timer.c **** #else
  45:../../tmk_core/common/avr/timer.c **** #   error "Timer prescaler value is NOT vaild."
  46:../../tmk_core/common/avr/timer.c **** #endif
  47:../../tmk_core/common/avr/timer.c **** 
  48:../../tmk_core/common/avr/timer.c ****     OCR0A = TIMER_RAW_TOP;
  30               		.loc 1 48 5 is_stmt 1 view .LVU5
  31               		.loc 1 48 11 is_stmt 0 view .LVU6
  32 0008 9AEF      		ldi r25,lo8(-6)
  33 000a 97BD      		out 0x27,r25
  49:../../tmk_core/common/avr/timer.c **** #ifdef TIMSK0
  50:../../tmk_core/common/avr/timer.c ****     TIMSK0 = (1<<OCIE0A);
  34               		.loc 1 50 5 is_stmt 1 view .LVU7
  35               		.loc 1 50 12 is_stmt 0 view .LVU8
  36 000c 8093 6E00 		sts 110,r24
  37               	/* epilogue start */
  51:../../tmk_core/common/avr/timer.c **** #else
  52:../../tmk_core/common/avr/timer.c ****     TIMSK = (1<<OCIE0A);
  53:../../tmk_core/common/avr/timer.c **** #endif
  54:../../tmk_core/common/avr/timer.c **** }
  38               		.loc 1 54 1 view .LVU9
  39 0010 0895      		ret
  40               		.cfi_endproc
  41               	.LFE0:
  43               		.section	.text.timer_clear,"ax",@progbits
  44               	.global	timer_clear
  46               	timer_clear:
  47               	.LFB1:
  55:../../tmk_core/common/avr/timer.c **** 
  56:../../tmk_core/common/avr/timer.c **** inline
  57:../../tmk_core/common/avr/timer.c **** void timer_clear(void)
  58:../../tmk_core/common/avr/timer.c **** {
  48               		.loc 1 58 1 is_stmt 1 view -0
  49               		.cfi_startproc
  50               	/* prologue: function */
  51               	/* frame size = 0 */
  52               	/* stack size = 0 */
  53               	.L__stack_usage = 0
  59:../../tmk_core/common/avr/timer.c ****     uint8_t sreg = SREG;
  54               		.loc 1 59 5 view .LVU11
  55               		.loc 1 59 13 is_stmt 0 view .LVU12
  56 0000 8FB7      		in r24,__SREG__
  57               	.LVL0:
  60:../../tmk_core/common/avr/timer.c ****     cli();
  58               		.loc 1 60 5 is_stmt 1 view .LVU13
  59               	/* #APP */
  60               	 ;  60 "../../tmk_core/common/avr/timer.c" 1
  61 0002 F894      		cli
  62               	 ;  0 "" 2
  61:../../tmk_core/common/avr/timer.c ****     timer_count = 0;
  63               		.loc 1 61 5 view .LVU14
  64               		.loc 1 61 17 is_stmt 0 view .LVU15
  65               	/* #NOAPP */
  66 0004 1092 0000 		sts timer_count,__zero_reg__
  67 0008 1092 0000 		sts timer_count+1,__zero_reg__
  68 000c 1092 0000 		sts timer_count+2,__zero_reg__
  69 0010 1092 0000 		sts timer_count+3,__zero_reg__
  62:../../tmk_core/common/avr/timer.c ****     SREG = sreg;
  70               		.loc 1 62 5 is_stmt 1 view .LVU16
  71               		.loc 1 62 10 is_stmt 0 view .LVU17
  72 0014 8FBF      		out __SREG__,r24
  73               	/* epilogue start */
  63:../../tmk_core/common/avr/timer.c **** }
  74               		.loc 1 63 1 view .LVU18
  75 0016 0895      		ret
  76               		.cfi_endproc
  77               	.LFE1:
  79               		.section	.text.timer_read,"ax",@progbits
  80               	.global	timer_read
  82               	timer_read:
  83               	.LFB2:
  64:../../tmk_core/common/avr/timer.c **** 
  65:../../tmk_core/common/avr/timer.c **** inline
  66:../../tmk_core/common/avr/timer.c **** uint16_t timer_read(void)
  67:../../tmk_core/common/avr/timer.c **** {
  84               		.loc 1 67 1 is_stmt 1 view -0
  85               		.cfi_startproc
  86               	/* prologue: function */
  87               	/* frame size = 0 */
  88               	/* stack size = 0 */
  89               	.L__stack_usage = 0
  68:../../tmk_core/common/avr/timer.c ****     uint32_t t;
  90               		.loc 1 68 5 view .LVU20
  69:../../tmk_core/common/avr/timer.c **** 
  70:../../tmk_core/common/avr/timer.c ****     uint8_t sreg = SREG;
  91               		.loc 1 70 5 view .LVU21
  92               		.loc 1 70 13 is_stmt 0 view .LVU22
  93 0000 2FB7      		in r18,__SREG__
  94               	.LVL1:
  71:../../tmk_core/common/avr/timer.c ****     cli();
  95               		.loc 1 71 5 is_stmt 1 view .LVU23
  96               	/* #APP */
  97               	 ;  71 "../../tmk_core/common/avr/timer.c" 1
  98 0002 F894      		cli
  99               	 ;  0 "" 2
  72:../../tmk_core/common/avr/timer.c ****     t = timer_count;
 100               		.loc 1 72 5 view .LVU24
 101               		.loc 1 72 7 is_stmt 0 view .LVU25
 102               	/* #NOAPP */
 103 0004 8091 0000 		lds r24,timer_count
 104 0008 9091 0000 		lds r25,timer_count+1
 105 000c A091 0000 		lds r26,timer_count+2
 106 0010 B091 0000 		lds r27,timer_count+3
  73:../../tmk_core/common/avr/timer.c ****     SREG = sreg;
 107               		.loc 1 73 5 is_stmt 1 view .LVU26
 108               		.loc 1 73 10 is_stmt 0 view .LVU27
 109 0014 2FBF      		out __SREG__,r18
  74:../../tmk_core/common/avr/timer.c **** 
  75:../../tmk_core/common/avr/timer.c ****     return (t & 0xFFFF);
 110               		.loc 1 75 5 is_stmt 1 view .LVU28
 111               	/* epilogue start */
  76:../../tmk_core/common/avr/timer.c **** }
 112               		.loc 1 76 1 is_stmt 0 view .LVU29
 113 0016 0895      		ret
 114               		.cfi_endproc
 115               	.LFE2:
 117               		.section	.text.timer_read32,"ax",@progbits
 118               	.global	timer_read32
 120               	timer_read32:
 121               	.LFB3:
  77:../../tmk_core/common/avr/timer.c **** 
  78:../../tmk_core/common/avr/timer.c **** inline
  79:../../tmk_core/common/avr/timer.c **** uint32_t timer_read32(void)
  80:../../tmk_core/common/avr/timer.c **** {
 122               		.loc 1 80 1 is_stmt 1 view -0
 123               		.cfi_startproc
 124 0000 CF93      		push r28
 125               	.LCFI0:
 126               		.cfi_def_cfa_offset 3
 127               		.cfi_offset 28, -2
 128 0002 DF93      		push r29
 129               	.LCFI1:
 130               		.cfi_def_cfa_offset 4
 131               		.cfi_offset 29, -3
 132 0004 00D0      		rcall .
 133 0006 00D0      		rcall .
 134               	.LCFI2:
 135               		.cfi_def_cfa_offset 8
 136 0008 CDB7      		in r28,__SP_L__
 137 000a DEB7      		in r29,__SP_H__
 138               	.LCFI3:
 139               		.cfi_def_cfa_register 28
 140               	/* prologue: function */
 141               	/* frame size = 4 */
 142               	/* stack size = 6 */
 143               	.L__stack_usage = 6
  81:../../tmk_core/common/avr/timer.c ****     uint32_t t;
 144               		.loc 1 81 5 view .LVU31
  82:../../tmk_core/common/avr/timer.c **** 
  83:../../tmk_core/common/avr/timer.c ****     uint8_t sreg = SREG;
 145               		.loc 1 83 5 view .LVU32
 146               		.loc 1 83 13 is_stmt 0 view .LVU33
 147 000c 8FB7      		in r24,__SREG__
 148               	.LVL2:
  84:../../tmk_core/common/avr/timer.c ****     cli();
 149               		.loc 1 84 5 is_stmt 1 view .LVU34
 150               	/* #APP */
 151               	 ;  84 "../../tmk_core/common/avr/timer.c" 1
 152 000e F894      		cli
 153               	 ;  0 "" 2
  85:../../tmk_core/common/avr/timer.c ****     t = timer_count;
 154               		.loc 1 85 5 view .LVU35
 155               		.loc 1 85 7 is_stmt 0 view .LVU36
 156               	/* #NOAPP */
 157 0010 2091 0000 		lds r18,timer_count
 158 0014 3091 0000 		lds r19,timer_count+1
 159 0018 4091 0000 		lds r20,timer_count+2
 160 001c 5091 0000 		lds r21,timer_count+3
 161 0020 2983      		std Y+1,r18
 162 0022 3A83      		std Y+2,r19
 163 0024 4B83      		std Y+3,r20
 164 0026 5C83      		std Y+4,r21
 165               	.LVL3:
  86:../../tmk_core/common/avr/timer.c ****     SREG = sreg;
 166               		.loc 1 86 5 is_stmt 1 view .LVU37
 167               		.loc 1 86 10 is_stmt 0 view .LVU38
 168 0028 8FBF      		out __SREG__,r24
  87:../../tmk_core/common/avr/timer.c **** 
  88:../../tmk_core/common/avr/timer.c ****     return t;
 169               		.loc 1 88 5 is_stmt 1 view .LVU39
  89:../../tmk_core/common/avr/timer.c **** }
 170               		.loc 1 89 1 is_stmt 0 view .LVU40
 171 002a 6981      		ldd r22,Y+1
 172 002c 7A81      		ldd r23,Y+2
 173 002e 8B81      		ldd r24,Y+3
 174 0030 9C81      		ldd r25,Y+4
 175               	/* epilogue start */
 176 0032 0F90      		pop __tmp_reg__
 177 0034 0F90      		pop __tmp_reg__
 178 0036 0F90      		pop __tmp_reg__
 179 0038 0F90      		pop __tmp_reg__
 180 003a DF91      		pop r29
 181 003c CF91      		pop r28
 182 003e 0895      		ret
 183               		.cfi_endproc
 184               	.LFE3:
 186               		.section	.text.timer_elapsed,"ax",@progbits
 187               	.global	timer_elapsed
 189               	timer_elapsed:
 190               	.LVL4:
 191               	.LFB4:
  90:../../tmk_core/common/avr/timer.c **** 
  91:../../tmk_core/common/avr/timer.c **** inline
  92:../../tmk_core/common/avr/timer.c **** uint16_t timer_elapsed(uint16_t last)
  93:../../tmk_core/common/avr/timer.c **** {
 192               		.loc 1 93 1 is_stmt 1 view -0
 193               		.cfi_startproc
 194               		.loc 1 93 1 is_stmt 0 view .LVU42
 195 0000 CF92      		push r12
 196               	.LCFI4:
 197               		.cfi_def_cfa_offset 3
 198               		.cfi_offset 12, -2
 199 0002 DF92      		push r13
 200               	.LCFI5:
 201               		.cfi_def_cfa_offset 4
 202               		.cfi_offset 13, -3
 203 0004 EF92      		push r14
 204               	.LCFI6:
 205               		.cfi_def_cfa_offset 5
 206               		.cfi_offset 14, -4
 207 0006 FF92      		push r15
 208               	.LCFI7:
 209               		.cfi_def_cfa_offset 6
 210               		.cfi_offset 15, -5
 211               	/* prologue: function */
 212               	/* frame size = 0 */
 213               	/* stack size = 4 */
 214               	.L__stack_usage = 4
 215 0008 9C01      		movw r18,r24
  94:../../tmk_core/common/avr/timer.c ****     uint32_t t;
 216               		.loc 1 94 5 is_stmt 1 view .LVU43
  95:../../tmk_core/common/avr/timer.c **** 
  96:../../tmk_core/common/avr/timer.c ****     uint8_t sreg = SREG;
 217               		.loc 1 96 5 view .LVU44
 218               		.loc 1 96 13 is_stmt 0 view .LVU45
 219 000a 4FB7      		in r20,__SREG__
 220               	.LVL5:
  97:../../tmk_core/common/avr/timer.c ****     cli();
 221               		.loc 1 97 5 is_stmt 1 view .LVU46
 222               	/* #APP */
 223               	 ;  97 "../../tmk_core/common/avr/timer.c" 1
 224 000c F894      		cli
 225               	 ;  0 "" 2
  98:../../tmk_core/common/avr/timer.c ****     t = timer_count;
 226               		.loc 1 98 5 view .LVU47
 227               		.loc 1 98 7 is_stmt 0 view .LVU48
 228               	/* #NOAPP */
 229 000e 8091 0000 		lds r24,timer_count
 230 0012 9091 0000 		lds r25,timer_count+1
 231 0016 A091 0000 		lds r26,timer_count+2
 232 001a B091 0000 		lds r27,timer_count+3
 233               	.LVL6:
  99:../../tmk_core/common/avr/timer.c ****     SREG = sreg;
 234               		.loc 1 99 5 is_stmt 1 view .LVU49
 235               		.loc 1 99 10 is_stmt 0 view .LVU50
 236 001e 4FBF      		out __SREG__,r20
 100:../../tmk_core/common/avr/timer.c **** 
 101:../../tmk_core/common/avr/timer.c ****     return TIMER_DIFF_16((t & 0xFFFF), last);
 237               		.loc 1 101 5 is_stmt 1 view .LVU51
 238               		.loc 1 101 12 is_stmt 0 view .LVU52
 239 0020 6C01      		movw r12,r24
 240 0022 7D01      		movw r14,r26
 241 0024 EE24      		clr r14
 242 0026 FF24      		clr r15
 243 0028 A901      		movw r20,r18
 244               	.LVL7:
 245               		.loc 1 101 12 view .LVU53
 246 002a 70E0      		ldi r23,0
 247 002c 60E0      		ldi r22,0
 248 002e C416      		cp r12,r20
 249 0030 D506      		cpc r13,r21
 250 0032 E606      		cpc r14,r22
 251 0034 F706      		cpc r15,r23
 252 0036 00F0      		brlo .L6
 253               	.LVL8:
 254               	.L8:
 255               		.loc 1 101 12 discriminator 2 view .LVU54
 256 0038 821B      		sub r24,r18
 257 003a 930B      		sbc r25,r19
 258               	/* epilogue start */
 102:../../tmk_core/common/avr/timer.c **** }
 259               		.loc 1 102 1 discriminator 2 view .LVU55
 260 003c FF90      		pop r15
 261 003e EF90      		pop r14
 262 0040 DF90      		pop r13
 263 0042 CF90      		pop r12
 264 0044 0895      		ret
 265               	.LVL9:
 266               	.L6:
 101:../../tmk_core/common/avr/timer.c **** }
 267               		.loc 1 101 12 discriminator 2 view .LVU56
 268 0046 0197      		sbiw r24,1
 269               	.LVL10:
 101:../../tmk_core/common/avr/timer.c **** }
 270               		.loc 1 101 12 discriminator 2 view .LVU57
 271 0048 00C0      		rjmp .L8
 272               		.cfi_endproc
 273               	.LFE4:
 275               		.section	.text.timer_elapsed32,"ax",@progbits
 276               	.global	timer_elapsed32
 278               	timer_elapsed32:
 279               	.LVL11:
 280               	.LFB5:
 103:../../tmk_core/common/avr/timer.c **** 
 104:../../tmk_core/common/avr/timer.c **** inline
 105:../../tmk_core/common/avr/timer.c **** uint32_t timer_elapsed32(uint32_t last)
 106:../../tmk_core/common/avr/timer.c **** {
 281               		.loc 1 106 1 is_stmt 1 view -0
 282               		.cfi_startproc
 283               		.loc 1 106 1 is_stmt 0 view .LVU59
 284 0000 0F93      		push r16
 285               	.LCFI8:
 286               		.cfi_def_cfa_offset 3
 287               		.cfi_offset 16, -2
 288 0002 1F93      		push r17
 289               	.LCFI9:
 290               		.cfi_def_cfa_offset 4
 291               		.cfi_offset 17, -3
 292 0004 CF93      		push r28
 293               	.LCFI10:
 294               		.cfi_def_cfa_offset 5
 295               		.cfi_offset 28, -4
 296 0006 DF93      		push r29
 297               	.LCFI11:
 298               		.cfi_def_cfa_offset 6
 299               		.cfi_offset 29, -5
 300 0008 00D0      		rcall .
 301 000a 00D0      		rcall .
 302               	.LCFI12:
 303               		.cfi_def_cfa_offset 10
 304 000c CDB7      		in r28,__SP_L__
 305 000e DEB7      		in r29,__SP_H__
 306               	.LCFI13:
 307               		.cfi_def_cfa_register 28
 308               	/* prologue: function */
 309               	/* frame size = 4 */
 310               	/* stack size = 8 */
 311               	.L__stack_usage = 8
 312 0010 462F      		mov r20,r22
 313 0012 572F      		mov r21,r23
 314 0014 BC01      		movw r22,r24
 315               	.LVL12:
 107:../../tmk_core/common/avr/timer.c ****     uint32_t t;
 316               		.loc 1 107 5 is_stmt 1 view .LVU60
 108:../../tmk_core/common/avr/timer.c **** 
 109:../../tmk_core/common/avr/timer.c ****     uint8_t sreg = SREG;
 317               		.loc 1 109 5 view .LVU61
 318               		.loc 1 109 13 is_stmt 0 view .LVU62
 319 0016 2FB7      		in r18,__SREG__
 320               	.LVL13:
 110:../../tmk_core/common/avr/timer.c ****     cli();
 321               		.loc 1 110 5 is_stmt 1 view .LVU63
 322               	/* #APP */
 323               	 ;  110 "../../tmk_core/common/avr/timer.c" 1
 324 0018 F894      		cli
 325               	 ;  0 "" 2
 111:../../tmk_core/common/avr/timer.c ****     t = timer_count;
 326               		.loc 1 111 5 view .LVU64
 327               		.loc 1 111 7 is_stmt 0 view .LVU65
 328               	/* #NOAPP */
 329 001a 8091 0000 		lds r24,timer_count
 330 001e 9091 0000 		lds r25,timer_count+1
 331 0022 A091 0000 		lds r26,timer_count+2
 332 0026 B091 0000 		lds r27,timer_count+3
 333               	.LVL14:
 112:../../tmk_core/common/avr/timer.c ****     SREG = sreg;
 334               		.loc 1 112 5 is_stmt 1 view .LVU66
 335               		.loc 1 112 10 is_stmt 0 view .LVU67
 336 002a 2FBF      		out __SREG__,r18
 113:../../tmk_core/common/avr/timer.c **** 
 114:../../tmk_core/common/avr/timer.c ****     return TIMER_DIFF_32(t, last);
 337               		.loc 1 114 5 is_stmt 1 view .LVU68
 338               		.loc 1 114 12 is_stmt 0 view .LVU69
 339 002c 8417      		cp r24,r20
 340 002e 9507      		cpc r25,r21
 341 0030 A607      		cpc r26,r22
 342 0032 B707      		cpc r27,r23
 343 0034 00F0      		brlo .L10
 344               	.LVL15:
 345               	.L12:
 346               		.loc 1 114 12 discriminator 2 view .LVU70
 347 0036 8C01      		movw r16,r24
 348 0038 9D01      		movw r18,r26
 349               	.LVL16:
 350               		.loc 1 114 12 discriminator 2 view .LVU71
 351 003a 041B      		sub r16,r20
 352 003c 150B      		sbc r17,r21
 353 003e 260B      		sbc r18,r22
 354 0040 370B      		sbc r19,r23
 355 0042 0983      		std Y+1,r16
 356 0044 1A83      		std Y+2,r17
 357 0046 2B83      		std Y+3,r18
 358 0048 3C83      		std Y+4,r19
 359               	.LVL17:
 115:../../tmk_core/common/avr/timer.c **** }
 360               		.loc 1 115 1 discriminator 2 view .LVU72
 361 004a 6981      		ldd r22,Y+1
 362 004c 7A81      		ldd r23,Y+2
 363 004e 8B81      		ldd r24,Y+3
 364 0050 9C81      		ldd r25,Y+4
 365               	/* epilogue start */
 366 0052 0F90      		pop __tmp_reg__
 367 0054 0F90      		pop __tmp_reg__
 368 0056 0F90      		pop __tmp_reg__
 369 0058 0F90      		pop __tmp_reg__
 370 005a DF91      		pop r29
 371 005c CF91      		pop r28
 372 005e 1F91      		pop r17
 373 0060 0F91      		pop r16
 374 0062 0895      		ret
 375               	.LVL18:
 376               	.L10:
 114:../../tmk_core/common/avr/timer.c **** }
 377               		.loc 1 114 12 discriminator 2 view .LVU73
 378 0064 0197      		sbiw r24,1
 379 0066 A109      		sbc r26,__zero_reg__
 380 0068 B109      		sbc r27,__zero_reg__
 381               	.LVL19:
 114:../../tmk_core/common/avr/timer.c **** }
 382               		.loc 1 114 12 discriminator 2 view .LVU74
 383 006a 00C0      		rjmp .L12
 384               		.cfi_endproc
 385               	.LFE5:
 387               		.section	.text.__vector_21,"ax",@progbits
 388               	.global	__vector_21
 390               	__vector_21:
 391               	.LFB6:
 116:../../tmk_core/common/avr/timer.c **** 
 117:../../tmk_core/common/avr/timer.c **** // excecuted once per 1ms.(excess for just timer count?)
 118:../../tmk_core/common/avr/timer.c **** ISR(TIMER0_COMPA_vect)
 119:../../tmk_core/common/avr/timer.c **** {
 392               		.loc 1 119 1 is_stmt 1 view -0
 393               		.cfi_startproc
 394 0000 1F92 1FB6 		__gcc_isr 1
 394      1F92 1124 
 394      8F93 
 395 000a 9F93      		push r25
 396               	.LCFI14:
 397               		.cfi_def_cfa_offset 3
 398               		.cfi_offset 25, -2
 399 000c AF93      		push r26
 400               	.LCFI15:
 401               		.cfi_def_cfa_offset 4
 402               		.cfi_offset 26, -3
 403 000e BF93      		push r27
 404               	.LCFI16:
 405               		.cfi_def_cfa_offset 5
 406               		.cfi_offset 27, -4
 407               	/* prologue: Signal */
 408               	/* frame size = 0 */
 409               	/* stack size = 3...7 */
 410               	.L__stack_usage = 3 + __gcc_isr.n_pushed
 120:../../tmk_core/common/avr/timer.c ****     timer_count++;
 411               		.loc 1 120 5 view .LVU76
 412               		.loc 1 120 16 is_stmt 0 view .LVU77
 413 0010 8091 0000 		lds r24,timer_count
 414 0014 9091 0000 		lds r25,timer_count+1
 415 0018 A091 0000 		lds r26,timer_count+2
 416 001c B091 0000 		lds r27,timer_count+3
 417 0020 0196      		adiw r24,1
 418 0022 A11D      		adc r26,__zero_reg__
 419 0024 B11D      		adc r27,__zero_reg__
 420 0026 8093 0000 		sts timer_count,r24
 421 002a 9093 0000 		sts timer_count+1,r25
 422 002e A093 0000 		sts timer_count+2,r26
 423 0032 B093 0000 		sts timer_count+3,r27
 424               	/* epilogue start */
 121:../../tmk_core/common/avr/timer.c **** }
 425               		.loc 1 121 1 view .LVU78
 426 0036 BF91      		pop r27
 427 0038 AF91      		pop r26
 428 003a 9F91      		pop r25
 429 003c 8F91 1F90 		__gcc_isr 2
 429      1FBE 1F90 
 430 0044 1895      		reti
 431               		__gcc_isr 0,r24
 432               		.cfi_endproc
 433               	.LFE6:
 435               	.global	timer_count
 436               		.section	.bss.timer_count,"aw",@nobits
 439               	timer_count:
 440 0000 0000 0000 		.zero	4
 441               		.text
 442               	.Letext0:
 443               		.file 2 "/usr/avr/include/stdint.h"
 444               		.file 3 "../../tmk_core/common/timer.h"