   1               		.file	"mousekey.c"
   2               	__SP_H__ = 0x3e
   3               	__SP_L__ = 0x3d
   4               	__SREG__ = 0x3f
   5               	__tmp_reg__ = 0
   6               	__zero_reg__ = 1
   7               		.text
   8               	.Ltext0:
   9               		.cfi_sections	.debug_frame
  10               		.section	.text.move_unit,"ax",@progbits
  12               	move_unit:
  13               	.LFB1:
  14               		.file 1 "../../tmk_core/common/mousekey.c"
   1:../../tmk_core/common/mousekey.c **** /*
   2:../../tmk_core/common/mousekey.c **** Copyright 2011 Jun Wako <wakojun@gmail.com>
   3:../../tmk_core/common/mousekey.c **** 
   4:../../tmk_core/common/mousekey.c **** This program is free software: you can redistribute it and/or modify
   5:../../tmk_core/common/mousekey.c **** it under the terms of the GNU General Public License as published by
   6:../../tmk_core/common/mousekey.c **** the Free Software Foundation, either version 2 of the License, or
   7:../../tmk_core/common/mousekey.c **** (at your option) any later version.
   8:../../tmk_core/common/mousekey.c **** 
   9:../../tmk_core/common/mousekey.c **** This program is distributed in the hope that it will be useful,
  10:../../tmk_core/common/mousekey.c **** but WITHOUT ANY WARRANTY; without even the implied warranty of
  11:../../tmk_core/common/mousekey.c **** MERCHANTABILITY or FITNESS FOR A PARTICULAR PURPOSE.  See the
  12:../../tmk_core/common/mousekey.c **** GNU General Public License for more details.
  13:../../tmk_core/common/mousekey.c **** 
  14:../../tmk_core/common/mousekey.c **** You should have received a copy of the GNU General Public License
  15:../../tmk_core/common/mousekey.c **** along with this program.  If not, see <http://www.gnu.org/licenses/>.
  16:../../tmk_core/common/mousekey.c **** */
  17:../../tmk_core/common/mousekey.c **** 
  18:../../tmk_core/common/mousekey.c **** #include <stdint.h>
  19:../../tmk_core/common/mousekey.c **** #include "keycode.h"
  20:../../tmk_core/common/mousekey.c **** #include "host.h"
  21:../../tmk_core/common/mousekey.c **** #include "timer.h"
  22:../../tmk_core/common/mousekey.c **** #include "print.h"
  23:../../tmk_core/common/mousekey.c **** #include "debug.h"
  24:../../tmk_core/common/mousekey.c **** #include "mousekey.h"
  25:../../tmk_core/common/mousekey.c **** 
  26:../../tmk_core/common/mousekey.c **** 
  27:../../tmk_core/common/mousekey.c **** 
  28:../../tmk_core/common/mousekey.c **** static report_mouse_t mouse_report = {};
  29:../../tmk_core/common/mousekey.c **** static uint8_t mousekey_repeat =  0;
  30:../../tmk_core/common/mousekey.c **** static uint8_t mousekey_accel = 0;
  31:../../tmk_core/common/mousekey.c **** 
  32:../../tmk_core/common/mousekey.c **** static void mousekey_debug(void);
  33:../../tmk_core/common/mousekey.c **** 
  34:../../tmk_core/common/mousekey.c **** 
  35:../../tmk_core/common/mousekey.c **** /*
  36:../../tmk_core/common/mousekey.c ****  * Mouse keys  acceleration algorithm
  37:../../tmk_core/common/mousekey.c ****  *  http://en.wikipedia.org/wiki/Mouse_keys
  38:../../tmk_core/common/mousekey.c ****  *
  39:../../tmk_core/common/mousekey.c ****  *  speed = delta * max_speed * (repeat / time_to_max)**((1000+curve)/1000)
  40:../../tmk_core/common/mousekey.c ****  */
  41:../../tmk_core/common/mousekey.c **** /* milliseconds between the initial key press and first repeated motion event (0-2550) */
  42:../../tmk_core/common/mousekey.c **** uint8_t mk_delay = MOUSEKEY_DELAY/10;
  43:../../tmk_core/common/mousekey.c **** /* milliseconds between repeated motion events (0-255) */
  44:../../tmk_core/common/mousekey.c **** uint8_t mk_interval = MOUSEKEY_INTERVAL;
  45:../../tmk_core/common/mousekey.c **** /* steady speed (in action_delta units) applied each event (0-255) */
  46:../../tmk_core/common/mousekey.c **** uint8_t mk_max_speed = MOUSEKEY_MAX_SPEED;
  47:../../tmk_core/common/mousekey.c **** /* number of events (count) accelerating to steady speed (0-255) */
  48:../../tmk_core/common/mousekey.c **** uint8_t mk_time_to_max = MOUSEKEY_TIME_TO_MAX;
  49:../../tmk_core/common/mousekey.c **** /* ramp used to reach maximum pointer speed (NOT SUPPORTED) */
  50:../../tmk_core/common/mousekey.c **** //int8_t mk_curve = 0;
  51:../../tmk_core/common/mousekey.c **** /* wheel params */
  52:../../tmk_core/common/mousekey.c **** uint8_t mk_wheel_max_speed = MOUSEKEY_WHEEL_MAX_SPEED;
  53:../../tmk_core/common/mousekey.c **** uint8_t mk_wheel_time_to_max = MOUSEKEY_WHEEL_TIME_TO_MAX;
  54:../../tmk_core/common/mousekey.c **** 
  55:../../tmk_core/common/mousekey.c **** 
  56:../../tmk_core/common/mousekey.c **** static uint16_t last_timer = 0;
  57:../../tmk_core/common/mousekey.c **** 
  58:../../tmk_core/common/mousekey.c **** 
  59:../../tmk_core/common/mousekey.c **** static uint8_t move_unit(void)
  60:../../tmk_core/common/mousekey.c **** {
  15               		.loc 1 60 1 view -0
  16               		.cfi_startproc
  17               	/* prologue: function */
  18               	/* frame size = 0 */
  19               	/* stack size = 0 */
  20               	.L__stack_usage = 0
  61:../../tmk_core/common/mousekey.c ****     uint16_t unit;
  21               		.loc 1 61 5 view .LVU1
  62:../../tmk_core/common/mousekey.c ****     if (mousekey_accel & (1<<0)) {
  22               		.loc 1 62 5 view .LVU2
  23               		.loc 1 62 24 is_stmt 0 view .LVU3
  24 0000 8091 0000 		lds r24,mousekey_accel
  25               		.loc 1 62 8 view .LVU4
  26 0004 80FF      		sbrs r24,0
  27 0006 00C0      		rjmp .L2
  63:../../tmk_core/common/mousekey.c ****         unit = (MOUSEKEY_MOVE_DELTA * mk_max_speed)/4;
  28               		.loc 1 63 9 is_stmt 1 view .LVU5
  29               		.loc 1 63 37 is_stmt 0 view .LVU6
  30 0008 8091 0000 		lds r24,mk_max_speed
  31 000c 90E0      		ldi r25,0
  32 000e 65E0      		ldi r22,lo8(5)
  33 0010 70E0      		ldi r23,0
  34 0012 0E94 0000 		call __mulhi3
  35               		.loc 1 63 52 view .LVU7
  36 0016 9595      		asr r25
  37 0018 8795      		ror r24
  38 001a 9595      		asr r25
  39 001c 8795      		ror r24
  40               	.LVL0:
  41               	.L3:
  64:../../tmk_core/common/mousekey.c ****     } else if (mousekey_accel & (1<<1)) {
  65:../../tmk_core/common/mousekey.c ****         unit = (MOUSEKEY_MOVE_DELTA * mk_max_speed)/2;
  66:../../tmk_core/common/mousekey.c ****     } else if (mousekey_accel & (1<<2)) {
  67:../../tmk_core/common/mousekey.c ****         unit = (MOUSEKEY_MOVE_DELTA * mk_max_speed);
  68:../../tmk_core/common/mousekey.c ****     } else if (mousekey_repeat == 0) {
  69:../../tmk_core/common/mousekey.c ****         unit = MOUSEKEY_MOVE_DELTA;
  70:../../tmk_core/common/mousekey.c ****     } else if (mousekey_repeat >= mk_time_to_max) {
  71:../../tmk_core/common/mousekey.c ****         unit = MOUSEKEY_MOVE_DELTA * mk_max_speed;
  72:../../tmk_core/common/mousekey.c ****     } else {
  73:../../tmk_core/common/mousekey.c ****         unit = (MOUSEKEY_MOVE_DELTA * mk_max_speed * mousekey_repeat) / mk_time_to_max;
  74:../../tmk_core/common/mousekey.c ****     }
  75:../../tmk_core/common/mousekey.c ****     return (unit > MOUSEKEY_MOVE_MAX ? MOUSEKEY_MOVE_MAX : (unit == 0 ? 1 : unit));
  42               		.loc 1 75 5 is_stmt 1 view .LVU8
  43               		.loc 1 75 58 is_stmt 0 view .LVU9
  44 001e 8038      		cpi r24,-128
  45 0020 9105      		cpc r25,__zero_reg__
  46 0022 00F4      		brsh .L10
  47               		.loc 1 75 58 discriminator 1 view .LVU10
  48 0024 0097      		sbiw r24,0
  49 0026 01F0      		breq .L11
  50 0028 0895      		ret
  51               	.LVL1:
  52               	.L2:
  64:../../tmk_core/common/mousekey.c ****     } else if (mousekey_accel & (1<<1)) {
  53               		.loc 1 64 12 is_stmt 1 view .LVU11
  64:../../tmk_core/common/mousekey.c ****     } else if (mousekey_accel & (1<<1)) {
  54               		.loc 1 64 15 is_stmt 0 view .LVU12
  55 002a 81FF      		sbrs r24,1
  56 002c 00C0      		rjmp .L4
  65:../../tmk_core/common/mousekey.c ****     } else if (mousekey_accel & (1<<2)) {
  57               		.loc 1 65 9 is_stmt 1 view .LVU13
  65:../../tmk_core/common/mousekey.c ****     } else if (mousekey_accel & (1<<2)) {
  58               		.loc 1 65 37 is_stmt 0 view .LVU14
  59 002e 8091 0000 		lds r24,mk_max_speed
  60 0032 90E0      		ldi r25,0
  61 0034 65E0      		ldi r22,lo8(5)
  62 0036 70E0      		ldi r23,0
  63 0038 0E94 0000 		call __mulhi3
  65:../../tmk_core/common/mousekey.c ****     } else if (mousekey_accel & (1<<2)) {
  64               		.loc 1 65 52 view .LVU15
  65 003c 9595      		asr r25
  66 003e 8795      		ror r24
  67               	.LVL2:
  65:../../tmk_core/common/mousekey.c ****     } else if (mousekey_accel & (1<<2)) {
  68               		.loc 1 65 52 view .LVU16
  69 0040 00C0      		rjmp .L3
  70               	.LVL3:
  71               	.L4:
  66:../../tmk_core/common/mousekey.c ****         unit = (MOUSEKEY_MOVE_DELTA * mk_max_speed);
  72               		.loc 1 66 12 is_stmt 1 view .LVU17
  66:../../tmk_core/common/mousekey.c ****         unit = (MOUSEKEY_MOVE_DELTA * mk_max_speed);
  73               		.loc 1 66 15 is_stmt 0 view .LVU18
  74 0042 82FF      		sbrs r24,2
  75 0044 00C0      		rjmp .L5
  67:../../tmk_core/common/mousekey.c ****     } else if (mousekey_repeat == 0) {
  76               		.loc 1 67 9 is_stmt 1 view .LVU19
  67:../../tmk_core/common/mousekey.c ****     } else if (mousekey_repeat == 0) {
  77               		.loc 1 67 37 is_stmt 0 view .LVU20
  78 0046 8091 0000 		lds r24,mk_max_speed
  79 004a 90E0      		ldi r25,0
  80               	.L12:
  71:../../tmk_core/common/mousekey.c ****     } else {
  81               		.loc 1 71 36 view .LVU21
  82 004c 65E0      		ldi r22,lo8(5)
  83 004e 70E0      		ldi r23,0
  84 0050 0E94 0000 		call __mulhi3
  85               	.LVL4:
  71:../../tmk_core/common/mousekey.c ****     } else {
  86               		.loc 1 71 36 view .LVU22
  87 0054 00C0      		rjmp .L3
  88               	.LVL5:
  89               	.L5:
  68:../../tmk_core/common/mousekey.c ****         unit = MOUSEKEY_MOVE_DELTA;
  90               		.loc 1 68 12 is_stmt 1 view .LVU23
  68:../../tmk_core/common/mousekey.c ****         unit = MOUSEKEY_MOVE_DELTA;
  91               		.loc 1 68 32 is_stmt 0 view .LVU24
  92 0056 8091 0000 		lds r24,mousekey_repeat
  68:../../tmk_core/common/mousekey.c ****         unit = MOUSEKEY_MOVE_DELTA;
  93               		.loc 1 68 15 view .LVU25
  94 005a 8823      		tst r24
  95 005c 01F0      		breq .L9
  70:../../tmk_core/common/mousekey.c ****         unit = MOUSEKEY_MOVE_DELTA * mk_max_speed;
  96               		.loc 1 70 12 is_stmt 1 view .LVU26
  70:../../tmk_core/common/mousekey.c ****         unit = MOUSEKEY_MOVE_DELTA * mk_max_speed;
  97               		.loc 1 70 32 is_stmt 0 view .LVU27
  98 005e 2091 0000 		lds r18,mk_time_to_max
  99 0062 6091 0000 		lds r22,mk_max_speed
 100 0066 70E0      		ldi r23,0
  70:../../tmk_core/common/mousekey.c ****         unit = MOUSEKEY_MOVE_DELTA * mk_max_speed;
 101               		.loc 1 70 15 view .LVU28
 102 0068 8217      		cp r24,r18
 103 006a 00F0      		brlo .L7
  71:../../tmk_core/common/mousekey.c ****     } else {
 104               		.loc 1 71 9 is_stmt 1 view .LVU29
  71:../../tmk_core/common/mousekey.c ****     } else {
 105               		.loc 1 71 36 is_stmt 0 view .LVU30
 106 006c CB01      		movw r24,r22
 107 006e 00C0      		rjmp .L12
 108               	.L7:
  73:../../tmk_core/common/mousekey.c ****     }
 109               		.loc 1 73 9 is_stmt 1 view .LVU31
  73:../../tmk_core/common/mousekey.c ****     }
 110               		.loc 1 73 52 is_stmt 0 view .LVU32
 111 0070 90E0      		ldi r25,0
 112 0072 0E94 0000 		call __mulhi3
 113 0076 65E0      		ldi r22,lo8(5)
 114 0078 70E0      		ldi r23,0
 115 007a 0E94 0000 		call __mulhi3
  73:../../tmk_core/common/mousekey.c ****     }
 116               		.loc 1 73 71 view .LVU33
 117 007e 622F      		mov r22,r18
 118 0080 70E0      		ldi r23,0
  73:../../tmk_core/common/mousekey.c ****     }
 119               		.loc 1 73 14 view .LVU34
 120 0082 0E94 0000 		call __divmodhi4
 121 0086 CB01      		movw r24,r22
 122               	.LVL6:
  73:../../tmk_core/common/mousekey.c ****     }
 123               		.loc 1 73 14 view .LVU35
 124 0088 00C0      		rjmp .L3
 125               	.LVL7:
 126               	.L9:
  69:../../tmk_core/common/mousekey.c ****     } else if (mousekey_repeat >= mk_time_to_max) {
 127               		.loc 1 69 14 view .LVU36
 128 008a 85E0      		ldi r24,lo8(5)
 129 008c 90E0      		ldi r25,0
 130 008e 0895      		ret
 131               	.LVL8:
 132               	.L10:
 133               		.loc 1 75 58 view .LVU37
 134 0090 8FE7      		ldi r24,lo8(127)
 135               	.LVL9:
 136               		.loc 1 75 58 view .LVU38
 137 0092 0895      		ret
 138               	.LVL10:
 139               	.L11:
 140               		.loc 1 75 58 view .LVU39
 141 0094 81E0      		ldi r24,lo8(1)
 142               	.LVL11:
 143               	/* epilogue start */
  76:../../tmk_core/common/mousekey.c **** }
 144               		.loc 1 76 1 view .LVU40
 145 0096 0895      		ret
 146               		.cfi_endproc
 147               	.LFE1:
 149               		.section	.text.wheel_unit,"ax",@progbits
 151               	wheel_unit:
 152               	.LFB2:
  77:../../tmk_core/common/mousekey.c **** 
  78:../../tmk_core/common/mousekey.c **** static uint8_t wheel_unit(void)
  79:../../tmk_core/common/mousekey.c **** {
 153               		.loc 1 79 1 is_stmt 1 view -0
 154               		.cfi_startproc
 155               	/* prologue: function */
 156               	/* frame size = 0 */
 157               	/* stack size = 0 */
 158               	.L__stack_usage = 0
  80:../../tmk_core/common/mousekey.c ****     uint16_t unit;
 159               		.loc 1 80 5 view .LVU42
  81:../../tmk_core/common/mousekey.c ****     if (mousekey_accel & (1<<0)) {
 160               		.loc 1 81 5 view .LVU43
 161               		.loc 1 81 24 is_stmt 0 view .LVU44
 162 0000 8091 0000 		lds r24,mousekey_accel
 163               		.loc 1 81 8 view .LVU45
 164 0004 80FF      		sbrs r24,0
 165 0006 00C0      		rjmp .L14
  82:../../tmk_core/common/mousekey.c ****         unit = (MOUSEKEY_WHEEL_DELTA * mk_wheel_max_speed)/4;
 166               		.loc 1 82 9 is_stmt 1 view .LVU46
 167               		.loc 1 82 38 is_stmt 0 view .LVU47
 168 0008 6091 0000 		lds r22,mk_wheel_max_speed
 169 000c 70E0      		ldi r23,0
 170               		.loc 1 82 59 view .LVU48
 171 000e 7595      		asr r23
 172 0010 6795      		ror r22
 173 0012 7595      		asr r23
 174 0014 6795      		ror r22
 175               	.LVL12:
 176               	.L15:
  83:../../tmk_core/common/mousekey.c ****     } else if (mousekey_accel & (1<<1)) {
  84:../../tmk_core/common/mousekey.c ****         unit = (MOUSEKEY_WHEEL_DELTA * mk_wheel_max_speed)/2;
  85:../../tmk_core/common/mousekey.c ****     } else if (mousekey_accel & (1<<2)) {
  86:../../tmk_core/common/mousekey.c ****         unit = (MOUSEKEY_WHEEL_DELTA * mk_wheel_max_speed);
  87:../../tmk_core/common/mousekey.c ****     } else if (mousekey_repeat == 0) {
  88:../../tmk_core/common/mousekey.c ****         unit = MOUSEKEY_WHEEL_DELTA;
  89:../../tmk_core/common/mousekey.c ****     } else if (mousekey_repeat >= mk_wheel_time_to_max) {
  90:../../tmk_core/common/mousekey.c ****         unit = MOUSEKEY_WHEEL_DELTA * mk_wheel_max_speed;
  91:../../tmk_core/common/mousekey.c ****     } else {
  92:../../tmk_core/common/mousekey.c ****         unit = (MOUSEKEY_WHEEL_DELTA * mk_wheel_max_speed * mousekey_repeat) / mk_wheel_time_to_max
  93:../../tmk_core/common/mousekey.c ****     }
  94:../../tmk_core/common/mousekey.c ****     return (unit > MOUSEKEY_WHEEL_MAX ? MOUSEKEY_WHEEL_MAX : (unit == 0 ? 1 : unit));
 177               		.loc 1 94 60 discriminator 1 view .LVU49
 178 0016 6115      		cp r22,__zero_reg__
 179 0018 7105      		cpc r23,__zero_reg__
 180 001a 01F0      		breq .L24
 181               	.L19:
 182               		.loc 1 94 60 discriminator 3 view .LVU50
 183 001c 862F      		mov r24,r22
 184 001e 0895      		ret
 185               	.L14:
  83:../../tmk_core/common/mousekey.c ****     } else if (mousekey_accel & (1<<1)) {
 186               		.loc 1 83 12 is_stmt 1 view .LVU51
  83:../../tmk_core/common/mousekey.c ****     } else if (mousekey_accel & (1<<1)) {
 187               		.loc 1 83 15 is_stmt 0 view .LVU52
 188 0020 81FF      		sbrs r24,1
 189 0022 00C0      		rjmp .L16
  84:../../tmk_core/common/mousekey.c ****     } else if (mousekey_accel & (1<<2)) {
 190               		.loc 1 84 9 is_stmt 1 view .LVU53
  84:../../tmk_core/common/mousekey.c ****     } else if (mousekey_accel & (1<<2)) {
 191               		.loc 1 84 38 is_stmt 0 view .LVU54
 192 0024 6091 0000 		lds r22,mk_wheel_max_speed
 193 0028 70E0      		ldi r23,0
  84:../../tmk_core/common/mousekey.c ****     } else if (mousekey_accel & (1<<2)) {
 194               		.loc 1 84 59 view .LVU55
 195 002a 7595      		asr r23
 196 002c 6795      		ror r22
 197               	.LVL13:
  84:../../tmk_core/common/mousekey.c ****     } else if (mousekey_accel & (1<<2)) {
 198               		.loc 1 84 59 view .LVU56
 199 002e 00C0      		rjmp .L15
 200               	.LVL14:
 201               	.L16:
  85:../../tmk_core/common/mousekey.c ****         unit = (MOUSEKEY_WHEEL_DELTA * mk_wheel_max_speed);
 202               		.loc 1 85 12 is_stmt 1 view .LVU57
  86:../../tmk_core/common/mousekey.c ****     } else if (mousekey_repeat == 0) {
 203               		.loc 1 86 14 is_stmt 0 view .LVU58
 204 0030 6091 0000 		lds r22,mk_wheel_max_speed
 205 0034 70E0      		ldi r23,0
  85:../../tmk_core/common/mousekey.c ****         unit = (MOUSEKEY_WHEEL_DELTA * mk_wheel_max_speed);
 206               		.loc 1 85 15 view .LVU59
 207 0036 82FD      		sbrc r24,2
 208 0038 00C0      		rjmp .L18
  87:../../tmk_core/common/mousekey.c ****         unit = MOUSEKEY_WHEEL_DELTA;
 209               		.loc 1 87 12 is_stmt 1 view .LVU60
  87:../../tmk_core/common/mousekey.c ****         unit = MOUSEKEY_WHEEL_DELTA;
 210               		.loc 1 87 32 is_stmt 0 view .LVU61
 211 003a 6091 0000 		lds r22,mousekey_repeat
  87:../../tmk_core/common/mousekey.c ****         unit = MOUSEKEY_WHEEL_DELTA;
 212               		.loc 1 87 15 view .LVU62
 213 003e 6623      		tst r22
 214 0040 01F0      		breq .L22
  89:../../tmk_core/common/mousekey.c ****         unit = MOUSEKEY_WHEEL_DELTA * mk_wheel_max_speed;
 215               		.loc 1 89 12 is_stmt 1 view .LVU63
  89:../../tmk_core/common/mousekey.c ****         unit = MOUSEKEY_WHEEL_DELTA * mk_wheel_max_speed;
 216               		.loc 1 89 32 is_stmt 0 view .LVU64
 217 0042 2091 0000 		lds r18,mk_wheel_time_to_max
 218 0046 8091 0000 		lds r24,mk_wheel_max_speed
 219 004a 90E0      		ldi r25,0
  89:../../tmk_core/common/mousekey.c ****         unit = MOUSEKEY_WHEEL_DELTA * mk_wheel_max_speed;
 220               		.loc 1 89 15 view .LVU65
 221 004c 6217      		cp r22,r18
 222 004e 00F0      		brlo .L20
  90:../../tmk_core/common/mousekey.c ****     } else {
 223               		.loc 1 90 9 is_stmt 1 view .LVU66
  90:../../tmk_core/common/mousekey.c ****     } else {
 224               		.loc 1 90 14 is_stmt 0 view .LVU67
 225 0050 BC01      		movw r22,r24
 226               	.LVL15:
 227               	.L18:
 228               		.loc 1 94 5 is_stmt 1 view .LVU68
 229               		.loc 1 94 60 is_stmt 0 view .LVU69
 230 0052 6038      		cpi r22,-128
 231 0054 7105      		cpc r23,__zero_reg__
 232 0056 00F0      		brlo .L15
 233 0058 8FE7      		ldi r24,lo8(127)
 234 005a 0895      		ret
 235               	.LVL16:
 236               	.L20:
  92:../../tmk_core/common/mousekey.c ****     }
 237               		.loc 1 92 9 is_stmt 1 view .LVU70
  92:../../tmk_core/common/mousekey.c ****     }
 238               		.loc 1 92 59 is_stmt 0 view .LVU71
 239 005c 70E0      		ldi r23,0
 240 005e 0E94 0000 		call __mulhi3
  92:../../tmk_core/common/mousekey.c ****     }
 241               		.loc 1 92 78 view .LVU72
 242 0062 622F      		mov r22,r18
 243 0064 70E0      		ldi r23,0
  92:../../tmk_core/common/mousekey.c ****     }
 244               		.loc 1 92 14 view .LVU73
 245 0066 0E94 0000 		call __divmodhi4
 246               	.LVL17:
  92:../../tmk_core/common/mousekey.c ****     }
 247               		.loc 1 92 14 view .LVU74
 248 006a 00C0      		rjmp .L18
 249               	.LVL18:
 250               	.L22:
  88:../../tmk_core/common/mousekey.c ****     } else if (mousekey_repeat >= mk_wheel_time_to_max) {
 251               		.loc 1 88 14 view .LVU75
 252 006c 61E0      		ldi r22,lo8(1)
 253 006e 70E0      		ldi r23,0
 254 0070 00C0      		rjmp .L19
 255               	.L24:
 256               		.loc 1 94 60 view .LVU76
 257 0072 81E0      		ldi r24,lo8(1)
 258               	/* epilogue start */
  95:../../tmk_core/common/mousekey.c **** }
 259               		.loc 1 95 1 view .LVU77
 260 0074 0895      		ret
 261               		.cfi_endproc
 262               	.LFE2:
 264               		.section	.text.mousekey_on,"ax",@progbits
 265               	.global	mousekey_on
 267               	mousekey_on:
 268               	.LVL19:
 269               	.LFB4:
  96:../../tmk_core/common/mousekey.c **** 
  97:../../tmk_core/common/mousekey.c **** void mousekey_task(void)
  98:../../tmk_core/common/mousekey.c **** {
  99:../../tmk_core/common/mousekey.c ****     if (timer_elapsed(last_timer) < (mousekey_repeat ? mk_interval : mk_delay*10))
 100:../../tmk_core/common/mousekey.c ****         return;
 101:../../tmk_core/common/mousekey.c **** 
 102:../../tmk_core/common/mousekey.c ****     if (mouse_report.x == 0 && mouse_report.y == 0 && mouse_report.v == 0 && mouse_report.h == 0)
 103:../../tmk_core/common/mousekey.c ****         return;
 104:../../tmk_core/common/mousekey.c **** 
 105:../../tmk_core/common/mousekey.c ****     if (mousekey_repeat != UINT8_MAX)
 106:../../tmk_core/common/mousekey.c ****         mousekey_repeat++;
 107:../../tmk_core/common/mousekey.c **** 
 108:../../tmk_core/common/mousekey.c **** 
 109:../../tmk_core/common/mousekey.c ****     if (mouse_report.x > 0) mouse_report.x = move_unit();
 110:../../tmk_core/common/mousekey.c ****     if (mouse_report.x < 0) mouse_report.x = move_unit() * -1;
 111:../../tmk_core/common/mousekey.c ****     if (mouse_report.y > 0) mouse_report.y = move_unit();
 112:../../tmk_core/common/mousekey.c ****     if (mouse_report.y < 0) mouse_report.y = move_unit() * -1;
 113:../../tmk_core/common/mousekey.c **** 
 114:../../tmk_core/common/mousekey.c ****     /* diagonal move [1/sqrt(2) = 0.7] */
 115:../../tmk_core/common/mousekey.c ****     if (mouse_report.x && mouse_report.y) {
 116:../../tmk_core/common/mousekey.c ****         mouse_report.x *= 0.7;
 117:../../tmk_core/common/mousekey.c ****         mouse_report.y *= 0.7;
 118:../../tmk_core/common/mousekey.c ****     }
 119:../../tmk_core/common/mousekey.c **** 
 120:../../tmk_core/common/mousekey.c ****     if (mouse_report.v > 0) mouse_report.v = wheel_unit();
 121:../../tmk_core/common/mousekey.c ****     if (mouse_report.v < 0) mouse_report.v = wheel_unit() * -1;
 122:../../tmk_core/common/mousekey.c ****     if (mouse_report.h > 0) mouse_report.h = wheel_unit();
 123:../../tmk_core/common/mousekey.c ****     if (mouse_report.h < 0) mouse_report.h = wheel_unit() * -1;
 124:../../tmk_core/common/mousekey.c **** 
 125:../../tmk_core/common/mousekey.c ****     mousekey_send();
 126:../../tmk_core/common/mousekey.c **** }
 127:../../tmk_core/common/mousekey.c **** 
 128:../../tmk_core/common/mousekey.c **** void mousekey_on(uint8_t code)
 129:../../tmk_core/common/mousekey.c **** {
 270               		.loc 1 129 1 is_stmt 1 view -0
 271               		.cfi_startproc
 272               	/* prologue: function */
 273               	/* frame size = 0 */
 274               	/* stack size = 0 */
 275               	.L__stack_usage = 0
 130:../../tmk_core/common/mousekey.c ****     if      (code == KC_MS_UP)       mouse_report.y = move_unit() * -1;
 276               		.loc 1 130 5 view .LVU79
 277               		.loc 1 130 13 is_stmt 0 view .LVU80
 278 0000 803F      		cpi r24,lo8(-16)
 279 0002 01F4      		brne .L26
 280               		.loc 1 130 38 is_stmt 1 discriminator 1 view .LVU81
 281               		.loc 1 130 55 is_stmt 0 discriminator 1 view .LVU82
 282 0004 0E94 0000 		call move_unit
 283               	.LVL20:
 284               		.loc 1 130 53 discriminator 1 view .LVU83
 285 0008 8195      		neg r24
 286               	.L42:
 131:../../tmk_core/common/mousekey.c ****     else if (code == KC_MS_DOWN)     mouse_report.y = move_unit();
 287               		.loc 1 131 53 discriminator 1 view .LVU84
 288 000a 8093 0000 		sts mouse_report+2,r24
 289 000e 0895      		ret
 290               	.LVL21:
 291               	.L26:
 292               		.loc 1 131 10 is_stmt 1 view .LVU85
 293               		.loc 1 131 13 is_stmt 0 view .LVU86
 294 0010 813F      		cpi r24,lo8(-15)
 295 0012 01F4      		brne .L28
 296               		.loc 1 131 38 is_stmt 1 discriminator 1 view .LVU87
 297               		.loc 1 131 55 is_stmt 0 discriminator 1 view .LVU88
 298 0014 0E94 0000 		call move_unit
 299               	.LVL22:
 300               		.loc 1 131 55 discriminator 1 view .LVU89
 301 0018 00C0      		rjmp .L42
 302               	.LVL23:
 303               	.L28:
 132:../../tmk_core/common/mousekey.c ****     else if (code == KC_MS_LEFT)     mouse_report.x = move_unit() * -1;
 304               		.loc 1 132 10 is_stmt 1 view .LVU90
 305               		.loc 1 132 13 is_stmt 0 view .LVU91
 306 001a 823F      		cpi r24,lo8(-14)
 307 001c 01F4      		brne .L29
 308               		.loc 1 132 38 is_stmt 1 discriminator 1 view .LVU92
 309               		.loc 1 132 55 is_stmt 0 discriminator 1 view .LVU93
 310 001e 0E94 0000 		call move_unit
 311               	.LVL24:
 312               		.loc 1 132 53 discriminator 1 view .LVU94
 313 0022 8195      		neg r24
 314               	.L44:
 133:../../tmk_core/common/mousekey.c ****     else if (code == KC_MS_RIGHT)    mouse_report.x = move_unit();
 315               		.loc 1 133 53 discriminator 1 view .LVU95
 316 0024 8093 0000 		sts mouse_report+1,r24
 317 0028 0895      		ret
 318               	.LVL25:
 319               	.L29:
 320               		.loc 1 133 10 is_stmt 1 view .LVU96
 321               		.loc 1 133 13 is_stmt 0 view .LVU97
 322 002a 833F      		cpi r24,lo8(-13)
 323 002c 01F4      		brne .L30
 324               		.loc 1 133 38 is_stmt 1 discriminator 1 view .LVU98
 325               		.loc 1 133 55 is_stmt 0 discriminator 1 view .LVU99
 326 002e 0E94 0000 		call move_unit
 327               	.LVL26:
 328               		.loc 1 133 55 discriminator 1 view .LVU100
 329 0032 00C0      		rjmp .L44
 330               	.LVL27:
 331               	.L30:
 134:../../tmk_core/common/mousekey.c ****     else if (code == KC_MS_WH_UP)    mouse_report.v = wheel_unit();
 332               		.loc 1 134 10 is_stmt 1 view .LVU101
 333               		.loc 1 134 13 is_stmt 0 view .LVU102
 334 0034 893F      		cpi r24,lo8(-7)
 335 0036 01F4      		brne .L31
 336               		.loc 1 134 38 is_stmt 1 discriminator 1 view .LVU103
 337               		.loc 1 134 55 is_stmt 0 discriminator 1 view .LVU104
 338 0038 0E94 0000 		call wheel_unit
 339               	.LVL28:
 340               	.L46:
 135:../../tmk_core/common/mousekey.c ****     else if (code == KC_MS_WH_DOWN)  mouse_report.v = wheel_unit() * -1;
 341               		.loc 1 135 53 discriminator 1 view .LVU105
 342 003c 8093 0000 		sts mouse_report+3,r24
 343 0040 0895      		ret
 344               	.LVL29:
 345               	.L31:
 346               		.loc 1 135 10 is_stmt 1 view .LVU106
 347               		.loc 1 135 13 is_stmt 0 view .LVU107
 348 0042 8A3F      		cpi r24,lo8(-6)
 349 0044 01F4      		brne .L32
 350               		.loc 1 135 38 is_stmt 1 discriminator 1 view .LVU108
 351               		.loc 1 135 55 is_stmt 0 discriminator 1 view .LVU109
 352 0046 0E94 0000 		call wheel_unit
 353               	.LVL30:
 354               		.loc 1 135 53 discriminator 1 view .LVU110
 355 004a 8195      		neg r24
 356 004c 00C0      		rjmp .L46
 357               	.LVL31:
 358               	.L32:
 136:../../tmk_core/common/mousekey.c ****     else if (code == KC_MS_WH_LEFT)  mouse_report.h = wheel_unit() * -1;
 359               		.loc 1 136 10 is_stmt 1 view .LVU111
 360               		.loc 1 136 13 is_stmt 0 view .LVU112
 361 004e 8B3F      		cpi r24,lo8(-5)
 362 0050 01F4      		brne .L33
 363               		.loc 1 136 38 is_stmt 1 discriminator 1 view .LVU113
 364               		.loc 1 136 55 is_stmt 0 discriminator 1 view .LVU114
 365 0052 0E94 0000 		call wheel_unit
 366               	.LVL32:
 367               		.loc 1 136 53 discriminator 1 view .LVU115
 368 0056 8195      		neg r24
 369               	.L47:
 137:../../tmk_core/common/mousekey.c ****     else if (code == KC_MS_WH_RIGHT) mouse_report.h = wheel_unit();
 370               		.loc 1 137 53 discriminator 1 view .LVU116
 371 0058 8093 0000 		sts mouse_report+4,r24
 372 005c 0895      		ret
 373               	.LVL33:
 374               	.L33:
 375               		.loc 1 137 10 is_stmt 1 view .LVU117
 376               		.loc 1 137 13 is_stmt 0 view .LVU118
 377 005e 8C3F      		cpi r24,lo8(-4)
 378 0060 01F4      		brne .L34
 379               		.loc 1 137 38 is_stmt 1 discriminator 1 view .LVU119
 380               		.loc 1 137 55 is_stmt 0 discriminator 1 view .LVU120
 381 0062 0E94 0000 		call wheel_unit
 382               	.LVL34:
 383               		.loc 1 137 55 discriminator 1 view .LVU121
 384 0066 00C0      		rjmp .L47
 385               	.LVL35:
 386               	.L34:
 138:../../tmk_core/common/mousekey.c ****     else if (code == KC_MS_BTN1)     mouse_report.buttons |= MOUSE_BTN1;
 387               		.loc 1 138 10 is_stmt 1 view .LVU122
 388               		.loc 1 138 13 is_stmt 0 view .LVU123
 389 0068 843F      		cpi r24,lo8(-12)
 390 006a 01F4      		brne .L35
 391               		.loc 1 138 38 is_stmt 1 discriminator 1 view .LVU124
 392               		.loc 1 138 59 is_stmt 0 discriminator 1 view .LVU125
 393 006c 8091 0000 		lds r24,mouse_report
 394               	.LVL36:
 395               		.loc 1 138 59 discriminator 1 view .LVU126
 396 0070 8160      		ori r24,lo8(1)
 397               	.L45:
 139:../../tmk_core/common/mousekey.c ****     else if (code == KC_MS_BTN2)     mouse_report.buttons |= MOUSE_BTN2;
 140:../../tmk_core/common/mousekey.c ****     else if (code == KC_MS_BTN3)     mouse_report.buttons |= MOUSE_BTN3;
 141:../../tmk_core/common/mousekey.c ****     else if (code == KC_MS_BTN4)     mouse_report.buttons |= MOUSE_BTN4;
 142:../../tmk_core/common/mousekey.c ****     else if (code == KC_MS_BTN5)     mouse_report.buttons |= MOUSE_BTN5;
 398               		.loc 1 142 59 discriminator 1 view .LVU127
 399 0072 8093 0000 		sts mouse_report,r24
 400 0076 0895      		ret
 401               	.LVL37:
 402               	.L35:
 139:../../tmk_core/common/mousekey.c ****     else if (code == KC_MS_BTN2)     mouse_report.buttons |= MOUSE_BTN2;
 403               		.loc 1 139 10 is_stmt 1 view .LVU128
 139:../../tmk_core/common/mousekey.c ****     else if (code == KC_MS_BTN2)     mouse_report.buttons |= MOUSE_BTN2;
 404               		.loc 1 139 13 is_stmt 0 view .LVU129
 405 0078 853F      		cpi r24,lo8(-11)
 406 007a 01F4      		brne .L36
 139:../../tmk_core/common/mousekey.c ****     else if (code == KC_MS_BTN2)     mouse_report.buttons |= MOUSE_BTN2;
 407               		.loc 1 139 38 is_stmt 1 discriminator 1 view .LVU130
 139:../../tmk_core/common/mousekey.c ****     else if (code == KC_MS_BTN2)     mouse_report.buttons |= MOUSE_BTN2;
 408               		.loc 1 139 59 is_stmt 0 discriminator 1 view .LVU131
 409 007c 8091 0000 		lds r24,mouse_report
 410               	.LVL38:
 139:../../tmk_core/common/mousekey.c ****     else if (code == KC_MS_BTN2)     mouse_report.buttons |= MOUSE_BTN2;
 411               		.loc 1 139 59 discriminator 1 view .LVU132
 412 0080 8260      		ori r24,lo8(2)
 413 0082 00C0      		rjmp .L45
 414               	.LVL39:
 415               	.L36:
 140:../../tmk_core/common/mousekey.c ****     else if (code == KC_MS_BTN4)     mouse_report.buttons |= MOUSE_BTN4;
 416               		.loc 1 140 10 is_stmt 1 view .LVU133
 140:../../tmk_core/common/mousekey.c ****     else if (code == KC_MS_BTN4)     mouse_report.buttons |= MOUSE_BTN4;
 417               		.loc 1 140 13 is_stmt 0 view .LVU134
 418 0084 863F      		cpi r24,lo8(-10)
 419 0086 01F4      		brne .L37
 140:../../tmk_core/common/mousekey.c ****     else if (code == KC_MS_BTN4)     mouse_report.buttons |= MOUSE_BTN4;
 420               		.loc 1 140 38 is_stmt 1 discriminator 1 view .LVU135
 140:../../tmk_core/common/mousekey.c ****     else if (code == KC_MS_BTN4)     mouse_report.buttons |= MOUSE_BTN4;
 421               		.loc 1 140 59 is_stmt 0 discriminator 1 view .LVU136
 422 0088 8091 0000 		lds r24,mouse_report
 423               	.LVL40:
 140:../../tmk_core/common/mousekey.c ****     else if (code == KC_MS_BTN4)     mouse_report.buttons |= MOUSE_BTN4;
 424               		.loc 1 140 59 discriminator 1 view .LVU137
 425 008c 8460      		ori r24,lo8(4)
 426 008e 00C0      		rjmp .L45
 427               	.LVL41:
 428               	.L37:
 141:../../tmk_core/common/mousekey.c ****     else if (code == KC_MS_BTN5)     mouse_report.buttons |= MOUSE_BTN5;
 429               		.loc 1 141 10 is_stmt 1 view .LVU138
 141:../../tmk_core/common/mousekey.c ****     else if (code == KC_MS_BTN5)     mouse_report.buttons |= MOUSE_BTN5;
 430               		.loc 1 141 13 is_stmt 0 view .LVU139
 431 0090 873F      		cpi r24,lo8(-9)
 432 0092 01F4      		brne .L38
 141:../../tmk_core/common/mousekey.c ****     else if (code == KC_MS_BTN5)     mouse_report.buttons |= MOUSE_BTN5;
 433               		.loc 1 141 38 is_stmt 1 discriminator 1 view .LVU140
 141:../../tmk_core/common/mousekey.c ****     else if (code == KC_MS_BTN5)     mouse_report.buttons |= MOUSE_BTN5;
 434               		.loc 1 141 59 is_stmt 0 discriminator 1 view .LVU141
 435 0094 8091 0000 		lds r24,mouse_report
 436               	.LVL42:
 141:../../tmk_core/common/mousekey.c ****     else if (code == KC_MS_BTN5)     mouse_report.buttons |= MOUSE_BTN5;
 437               		.loc 1 141 59 discriminator 1 view .LVU142
 438 0098 8860      		ori r24,lo8(8)
 439 009a 00C0      		rjmp .L45
 440               	.LVL43:
 441               	.L38:
 442               		.loc 1 142 10 is_stmt 1 view .LVU143
 443               		.loc 1 142 13 is_stmt 0 view .LVU144
 444 009c 883F      		cpi r24,lo8(-8)
 445 009e 01F4      		brne .L39
 446               		.loc 1 142 38 is_stmt 1 discriminator 1 view .LVU145
 447               		.loc 1 142 59 is_stmt 0 discriminator 1 view .LVU146
 448 00a0 8091 0000 		lds r24,mouse_report
 449               	.LVL44:
 450               		.loc 1 142 59 discriminator 1 view .LVU147
 451 00a4 8061      		ori r24,lo8(16)
 452 00a6 00C0      		rjmp .L45
 453               	.LVL45:
 454               	.L39:
 143:../../tmk_core/common/mousekey.c ****     else if (code == KC_MS_ACCEL0)   mousekey_accel |= (1<<0);
 455               		.loc 1 143 10 is_stmt 1 view .LVU148
 456               		.loc 1 143 13 is_stmt 0 view .LVU149
 457 00a8 8D3F      		cpi r24,lo8(-3)
 458 00aa 01F4      		brne .L40
 459               		.loc 1 143 38 is_stmt 1 discriminator 1 view .LVU150
 460               		.loc 1 143 53 is_stmt 0 discriminator 1 view .LVU151
 461 00ac 8091 0000 		lds r24,mousekey_accel
 462               	.LVL46:
 463               		.loc 1 143 53 discriminator 1 view .LVU152
 464 00b0 8160      		ori r24,lo8(1)
 465               	.L43:
 144:../../tmk_core/common/mousekey.c ****     else if (code == KC_MS_ACCEL1)   mousekey_accel |= (1<<1);
 145:../../tmk_core/common/mousekey.c ****     else if (code == KC_MS_ACCEL2)   mousekey_accel |= (1<<2);
 466               		.loc 1 145 53 discriminator 1 view .LVU153
 467 00b2 8093 0000 		sts mousekey_accel,r24
 468               	.L25:
 469               	/* epilogue start */
 146:../../tmk_core/common/mousekey.c **** }
 470               		.loc 1 146 1 view .LVU154
 471 00b6 0895      		ret
 472               	.LVL47:
 473               	.L40:
 144:../../tmk_core/common/mousekey.c ****     else if (code == KC_MS_ACCEL1)   mousekey_accel |= (1<<1);
 474               		.loc 1 144 10 is_stmt 1 view .LVU155
 144:../../tmk_core/common/mousekey.c ****     else if (code == KC_MS_ACCEL1)   mousekey_accel |= (1<<1);
 475               		.loc 1 144 13 is_stmt 0 view .LVU156
 476 00b8 8E3F      		cpi r24,lo8(-2)
 477 00ba 01F4      		brne .L41
 144:../../tmk_core/common/mousekey.c ****     else if (code == KC_MS_ACCEL1)   mousekey_accel |= (1<<1);
 478               		.loc 1 144 38 is_stmt 1 discriminator 1 view .LVU157
 144:../../tmk_core/common/mousekey.c ****     else if (code == KC_MS_ACCEL1)   mousekey_accel |= (1<<1);
 479               		.loc 1 144 53 is_stmt 0 discriminator 1 view .LVU158
 480 00bc 8091 0000 		lds r24,mousekey_accel
 481               	.LVL48:
 144:../../tmk_core/common/mousekey.c ****     else if (code == KC_MS_ACCEL1)   mousekey_accel |= (1<<1);
 482               		.loc 1 144 53 discriminator 1 view .LVU159
 483 00c0 8260      		ori r24,lo8(2)
 484 00c2 00C0      		rjmp .L43
 485               	.LVL49:
 486               	.L41:
 145:../../tmk_core/common/mousekey.c **** }
 487               		.loc 1 145 10 is_stmt 1 view .LVU160
 145:../../tmk_core/common/mousekey.c **** }
 488               		.loc 1 145 13 is_stmt 0 view .LVU161
 489 00c4 8F3F      		cpi r24,lo8(-1)
 490 00c6 01F4      		brne .L25
 145:../../tmk_core/common/mousekey.c **** }
 491               		.loc 1 145 38 is_stmt 1 discriminator 1 view .LVU162
 145:../../tmk_core/common/mousekey.c **** }
 492               		.loc 1 145 53 is_stmt 0 discriminator 1 view .LVU163
 493 00c8 8091 0000 		lds r24,mousekey_accel
 494               	.LVL50:
 145:../../tmk_core/common/mousekey.c **** }
 495               		.loc 1 145 53 discriminator 1 view .LVU164
 496 00cc 8460      		ori r24,lo8(4)
 497 00ce 00C0      		rjmp .L43
 498               		.cfi_endproc
 499               	.LFE4:
 501               		.section	.text.mousekey_off,"ax",@progbits
 502               	.global	mousekey_off
 504               	mousekey_off:
 505               	.LVL51:
 506               	.LFB5:
 147:../../tmk_core/common/mousekey.c **** 
 148:../../tmk_core/common/mousekey.c **** void mousekey_off(uint8_t code)
 149:../../tmk_core/common/mousekey.c **** {
 507               		.loc 1 149 1 is_stmt 1 view -0
 508               		.cfi_startproc
 509               	/* prologue: function */
 510               	/* frame size = 0 */
 511               	/* stack size = 0 */
 512               	.L__stack_usage = 0
 150:../../tmk_core/common/mousekey.c ****     if      (code == KC_MS_UP       && mouse_report.y < 0) mouse_report.y = 0;
 513               		.loc 1 150 5 view .LVU166
 514 0000 9091 0000 		lds r25,mouse_report+1
 515               		.loc 1 150 13 is_stmt 0 view .LVU167
 516 0004 803F      		cpi r24,lo8(-16)
 517 0006 01F4      		brne .L49
 518               		.loc 1 150 37 discriminator 1 view .LVU168
 519 0008 8091 0000 		lds r24,mouse_report+2
 520               	.LVL52:
 521               		.loc 1 150 37 discriminator 1 view .LVU169
 522 000c 87FD      		sbrc r24,7
 523               	.L52:
 524               		.loc 1 150 60 is_stmt 1 discriminator 2 view .LVU170
 525               		.loc 1 150 75 is_stmt 0 discriminator 2 view .LVU171
 526 000e 1092 0000 		sts mouse_report+2,__zero_reg__
 527               	.L50:
 151:../../tmk_core/common/mousekey.c ****     else if (code == KC_MS_DOWN     && mouse_report.y > 0) mouse_report.y = 0;
 152:../../tmk_core/common/mousekey.c ****     else if (code == KC_MS_LEFT     && mouse_report.x < 0) mouse_report.x = 0;
 153:../../tmk_core/common/mousekey.c ****     else if (code == KC_MS_RIGHT    && mouse_report.x > 0) mouse_report.x = 0;
 154:../../tmk_core/common/mousekey.c ****     else if (code == KC_MS_WH_UP    && mouse_report.v > 0) mouse_report.v = 0;
 155:../../tmk_core/common/mousekey.c ****     else if (code == KC_MS_WH_DOWN  && mouse_report.v < 0) mouse_report.v = 0;
 156:../../tmk_core/common/mousekey.c ****     else if (code == KC_MS_WH_LEFT  && mouse_report.h < 0) mouse_report.h = 0;
 157:../../tmk_core/common/mousekey.c ****     else if (code == KC_MS_WH_RIGHT && mouse_report.h > 0) mouse_report.h = 0;
 158:../../tmk_core/common/mousekey.c ****     else if (code == KC_MS_BTN1) mouse_report.buttons &= ~MOUSE_BTN1;
 159:../../tmk_core/common/mousekey.c ****     else if (code == KC_MS_BTN2) mouse_report.buttons &= ~MOUSE_BTN2;
 160:../../tmk_core/common/mousekey.c ****     else if (code == KC_MS_BTN3) mouse_report.buttons &= ~MOUSE_BTN3;
 161:../../tmk_core/common/mousekey.c ****     else if (code == KC_MS_BTN4) mouse_report.buttons &= ~MOUSE_BTN4;
 162:../../tmk_core/common/mousekey.c ****     else if (code == KC_MS_BTN5) mouse_report.buttons &= ~MOUSE_BTN5;
 163:../../tmk_core/common/mousekey.c ****     else if (code == KC_MS_ACCEL0) mousekey_accel &= ~(1<<0);
 164:../../tmk_core/common/mousekey.c ****     else if (code == KC_MS_ACCEL1) mousekey_accel &= ~(1<<1);
 165:../../tmk_core/common/mousekey.c ****     else if (code == KC_MS_ACCEL2) mousekey_accel &= ~(1<<2);
 166:../../tmk_core/common/mousekey.c **** 
 167:../../tmk_core/common/mousekey.c ****     if (mouse_report.x == 0 && mouse_report.y == 0 && mouse_report.v == 0 && mouse_report.h == 0)
 528               		.loc 1 167 5 is_stmt 1 view .LVU172
 529               		.loc 1 167 8 is_stmt 0 view .LVU173
 530 0012 9923      		tst r25
 531 0014 01F0      		breq .L54
 532               	.L48:
 533               	/* epilogue start */
 168:../../tmk_core/common/mousekey.c ****         mousekey_repeat = 0;
 169:../../tmk_core/common/mousekey.c **** }
 534               		.loc 1 169 1 view .LVU174
 535 0016 0895      		ret
 536               	.LVL53:
 537               	.L49:
 151:../../tmk_core/common/mousekey.c ****     else if (code == KC_MS_DOWN     && mouse_report.y > 0) mouse_report.y = 0;
 538               		.loc 1 151 10 is_stmt 1 view .LVU175
 151:../../tmk_core/common/mousekey.c ****     else if (code == KC_MS_DOWN     && mouse_report.y > 0) mouse_report.y = 0;
 539               		.loc 1 151 13 is_stmt 0 view .LVU176
 540 0018 813F      		cpi r24,lo8(-15)
 541 001a 01F4      		brne .L51
 151:../../tmk_core/common/mousekey.c ****     else if (code == KC_MS_DOWN     && mouse_report.y > 0) mouse_report.y = 0;
 542               		.loc 1 151 37 discriminator 1 view .LVU177
 543 001c 8091 0000 		lds r24,mouse_report+2
 544               	.LVL54:
 151:../../tmk_core/common/mousekey.c ****     else if (code == KC_MS_DOWN     && mouse_report.y > 0) mouse_report.y = 0;
 545               		.loc 1 151 37 discriminator 1 view .LVU178
 546 0020 1816      		cp __zero_reg__,r24
 547 0022 04F0      		brlt .L52
 548 0024 00C0      		rjmp .L50
 549               	.LVL55:
 550               	.L51:
 152:../../tmk_core/common/mousekey.c ****     else if (code == KC_MS_RIGHT    && mouse_report.x > 0) mouse_report.x = 0;
 551               		.loc 1 152 10 is_stmt 1 view .LVU179
 152:../../tmk_core/common/mousekey.c ****     else if (code == KC_MS_RIGHT    && mouse_report.x > 0) mouse_report.x = 0;
 552               		.loc 1 152 13 is_stmt 0 view .LVU180
 553 0026 823F      		cpi r24,lo8(-14)
 554 0028 01F4      		brne .L53
 152:../../tmk_core/common/mousekey.c ****     else if (code == KC_MS_RIGHT    && mouse_report.x > 0) mouse_report.x = 0;
 555               		.loc 1 152 37 discriminator 1 view .LVU181
 556 002a 97FF      		sbrs r25,7
 557 002c 00C0      		rjmp .L50
 558               	.L56:
 152:../../tmk_core/common/mousekey.c ****     else if (code == KC_MS_RIGHT    && mouse_report.x > 0) mouse_report.x = 0;
 559               		.loc 1 152 60 is_stmt 1 discriminator 2 view .LVU182
 152:../../tmk_core/common/mousekey.c ****     else if (code == KC_MS_RIGHT    && mouse_report.x > 0) mouse_report.x = 0;
 560               		.loc 1 152 75 is_stmt 0 discriminator 2 view .LVU183
 561 002e 1092 0000 		sts mouse_report+1,__zero_reg__
 562               	.LVL56:
 563               	.L54:
 167:../../tmk_core/common/mousekey.c ****         mousekey_repeat = 0;
 564               		.loc 1 167 5 is_stmt 1 view .LVU184
 167:../../tmk_core/common/mousekey.c ****         mousekey_repeat = 0;
 565               		.loc 1 167 75 is_stmt 0 view .LVU185
 566 0032 8091 0000 		lds r24,mouse_report+2
 567 0036 9091 0000 		lds r25,mouse_report+3
 568 003a 892B      		or r24,r25
 569 003c 9091 0000 		lds r25,mouse_report+4
 570 0040 892B      		or r24,r25
 571 0042 01F4      		brne .L48
 168:../../tmk_core/common/mousekey.c ****         mousekey_repeat = 0;
 572               		.loc 1 168 9 is_stmt 1 view .LVU186
 168:../../tmk_core/common/mousekey.c ****         mousekey_repeat = 0;
 573               		.loc 1 168 25 is_stmt 0 view .LVU187
 574 0044 1092 0000 		sts mousekey_repeat,__zero_reg__
 575               		.loc 1 169 1 view .LVU188
 576 0048 0895      		ret
 577               	.LVL57:
 578               	.L53:
 153:../../tmk_core/common/mousekey.c ****     else if (code == KC_MS_WH_UP    && mouse_report.v > 0) mouse_report.v = 0;
 579               		.loc 1 153 10 is_stmt 1 view .LVU189
 153:../../tmk_core/common/mousekey.c ****     else if (code == KC_MS_WH_UP    && mouse_report.v > 0) mouse_report.v = 0;
 580               		.loc 1 153 13 is_stmt 0 view .LVU190
 581 004a 833F      		cpi r24,lo8(-13)
 582 004c 01F4      		brne .L55
 153:../../tmk_core/common/mousekey.c ****     else if (code == KC_MS_WH_UP    && mouse_report.v > 0) mouse_report.v = 0;
 583               		.loc 1 153 37 discriminator 1 view .LVU191
 584 004e 1916      		cp __zero_reg__,r25
 585 0050 04F0      		brlt .L56
 586 0052 00C0      		rjmp .L50
 587               	.L55:
 154:../../tmk_core/common/mousekey.c ****     else if (code == KC_MS_WH_DOWN  && mouse_report.v < 0) mouse_report.v = 0;
 588               		.loc 1 154 10 is_stmt 1 view .LVU192
 154:../../tmk_core/common/mousekey.c ****     else if (code == KC_MS_WH_DOWN  && mouse_report.v < 0) mouse_report.v = 0;
 589               		.loc 1 154 13 is_stmt 0 view .LVU193
 590 0054 893F      		cpi r24,lo8(-7)
 591 0056 01F4      		brne .L57
 154:../../tmk_core/common/mousekey.c ****     else if (code == KC_MS_WH_DOWN  && mouse_report.v < 0) mouse_report.v = 0;
 592               		.loc 1 154 37 discriminator 1 view .LVU194
 593 0058 8091 0000 		lds r24,mouse_report+3
 594               	.LVL58:
 154:../../tmk_core/common/mousekey.c ****     else if (code == KC_MS_WH_DOWN  && mouse_report.v < 0) mouse_report.v = 0;
 595               		.loc 1 154 37 discriminator 1 view .LVU195
 596 005c 1816      		cp __zero_reg__,r24
 597 005e 04F4      		brge .L50
 598               	.L59:
 154:../../tmk_core/common/mousekey.c ****     else if (code == KC_MS_WH_DOWN  && mouse_report.v < 0) mouse_report.v = 0;
 599               		.loc 1 154 60 is_stmt 1 discriminator 2 view .LVU196
 154:../../tmk_core/common/mousekey.c ****     else if (code == KC_MS_WH_DOWN  && mouse_report.v < 0) mouse_report.v = 0;
 600               		.loc 1 154 75 is_stmt 0 discriminator 2 view .LVU197
 601 0060 1092 0000 		sts mouse_report+3,__zero_reg__
 602 0064 00C0      		rjmp .L50
 603               	.LVL59:
 604               	.L57:
 155:../../tmk_core/common/mousekey.c ****     else if (code == KC_MS_WH_LEFT  && mouse_report.h < 0) mouse_report.h = 0;
 605               		.loc 1 155 10 is_stmt 1 view .LVU198
 155:../../tmk_core/common/mousekey.c ****     else if (code == KC_MS_WH_LEFT  && mouse_report.h < 0) mouse_report.h = 0;
 606               		.loc 1 155 13 is_stmt 0 view .LVU199
 607 0066 8A3F      		cpi r24,lo8(-6)
 608 0068 01F4      		brne .L58
 155:../../tmk_core/common/mousekey.c ****     else if (code == KC_MS_WH_LEFT  && mouse_report.h < 0) mouse_report.h = 0;
 609               		.loc 1 155 37 discriminator 1 view .LVU200
 610 006a 8091 0000 		lds r24,mouse_report+3
 611               	.LVL60:
 155:../../tmk_core/common/mousekey.c ****     else if (code == KC_MS_WH_LEFT  && mouse_report.h < 0) mouse_report.h = 0;
 612               		.loc 1 155 37 discriminator 1 view .LVU201
 613 006e 87FF      		sbrs r24,7
 614 0070 00C0      		rjmp .L50
 615 0072 00C0      		rjmp .L59
 616               	.LVL61:
 617               	.L58:
 156:../../tmk_core/common/mousekey.c ****     else if (code == KC_MS_WH_RIGHT && mouse_report.h > 0) mouse_report.h = 0;
 618               		.loc 1 156 10 is_stmt 1 view .LVU202
 156:../../tmk_core/common/mousekey.c ****     else if (code == KC_MS_WH_RIGHT && mouse_report.h > 0) mouse_report.h = 0;
 619               		.loc 1 156 13 is_stmt 0 view .LVU203
 620 0074 8B3F      		cpi r24,lo8(-5)
 621 0076 01F4      		brne .L60
 156:../../tmk_core/common/mousekey.c ****     else if (code == KC_MS_WH_RIGHT && mouse_report.h > 0) mouse_report.h = 0;
 622               		.loc 1 156 37 discriminator 1 view .LVU204
 623 0078 8091 0000 		lds r24,mouse_report+4
 624               	.LVL62:
 156:../../tmk_core/common/mousekey.c ****     else if (code == KC_MS_WH_RIGHT && mouse_report.h > 0) mouse_report.h = 0;
 625               		.loc 1 156 37 discriminator 1 view .LVU205
 626 007c 87FF      		sbrs r24,7
 627 007e 00C0      		rjmp .L50
 628               	.L62:
 156:../../tmk_core/common/mousekey.c ****     else if (code == KC_MS_WH_RIGHT && mouse_report.h > 0) mouse_report.h = 0;
 629               		.loc 1 156 60 is_stmt 1 discriminator 2 view .LVU206
 156:../../tmk_core/common/mousekey.c ****     else if (code == KC_MS_WH_RIGHT && mouse_report.h > 0) mouse_report.h = 0;
 630               		.loc 1 156 75 is_stmt 0 discriminator 2 view .LVU207
 631 0080 1092 0000 		sts mouse_report+4,__zero_reg__
 632 0084 00C0      		rjmp .L50
 633               	.LVL63:
 634               	.L60:
 157:../../tmk_core/common/mousekey.c ****     else if (code == KC_MS_BTN1) mouse_report.buttons &= ~MOUSE_BTN1;
 635               		.loc 1 157 10 is_stmt 1 view .LVU208
 157:../../tmk_core/common/mousekey.c ****     else if (code == KC_MS_BTN1) mouse_report.buttons &= ~MOUSE_BTN1;
 636               		.loc 1 157 13 is_stmt 0 view .LVU209
 637 0086 8C3F      		cpi r24,lo8(-4)
 638 0088 01F4      		brne .L61
 157:../../tmk_core/common/mousekey.c ****     else if (code == KC_MS_BTN1) mouse_report.buttons &= ~MOUSE_BTN1;
 639               		.loc 1 157 37 discriminator 1 view .LVU210
 640 008a 8091 0000 		lds r24,mouse_report+4
 641               	.LVL64:
 157:../../tmk_core/common/mousekey.c ****     else if (code == KC_MS_BTN1) mouse_report.buttons &= ~MOUSE_BTN1;
 642               		.loc 1 157 37 discriminator 1 view .LVU211
 643 008e 1816      		cp __zero_reg__,r24
 644 0090 04F0      		brlt .L62
 645 0092 00C0      		rjmp .L50
 646               	.LVL65:
 647               	.L61:
 158:../../tmk_core/common/mousekey.c ****     else if (code == KC_MS_BTN2) mouse_report.buttons &= ~MOUSE_BTN2;
 648               		.loc 1 158 10 is_stmt 1 view .LVU212
 158:../../tmk_core/common/mousekey.c ****     else if (code == KC_MS_BTN2) mouse_report.buttons &= ~MOUSE_BTN2;
 649               		.loc 1 158 13 is_stmt 0 view .LVU213
 650 0094 843F      		cpi r24,lo8(-12)
 651 0096 01F4      		brne .L63
 158:../../tmk_core/common/mousekey.c ****     else if (code == KC_MS_BTN2) mouse_report.buttons &= ~MOUSE_BTN2;
 652               		.loc 1 158 34 is_stmt 1 discriminator 1 view .LVU214
 158:../../tmk_core/common/mousekey.c ****     else if (code == KC_MS_BTN2) mouse_report.buttons &= ~MOUSE_BTN2;
 653               		.loc 1 158 55 is_stmt 0 discriminator 1 view .LVU215
 654 0098 8091 0000 		lds r24,mouse_report
 655               	.LVL66:
 158:../../tmk_core/common/mousekey.c ****     else if (code == KC_MS_BTN2) mouse_report.buttons &= ~MOUSE_BTN2;
 656               		.loc 1 158 55 discriminator 1 view .LVU216
 657 009c 8E7F      		andi r24,lo8(-2)
 658               	.L76:
 162:../../tmk_core/common/mousekey.c ****     else if (code == KC_MS_ACCEL0) mousekey_accel &= ~(1<<0);
 659               		.loc 1 162 55 discriminator 1 view .LVU217
 660 009e 8093 0000 		sts mouse_report,r24
 661 00a2 00C0      		rjmp .L50
 662               	.LVL67:
 663               	.L63:
 159:../../tmk_core/common/mousekey.c ****     else if (code == KC_MS_BTN3) mouse_report.buttons &= ~MOUSE_BTN3;
 664               		.loc 1 159 10 is_stmt 1 view .LVU218
 159:../../tmk_core/common/mousekey.c ****     else if (code == KC_MS_BTN3) mouse_report.buttons &= ~MOUSE_BTN3;
 665               		.loc 1 159 13 is_stmt 0 view .LVU219
 666 00a4 853F      		cpi r24,lo8(-11)
 667 00a6 01F4      		brne .L64
 159:../../tmk_core/common/mousekey.c ****     else if (code == KC_MS_BTN3) mouse_report.buttons &= ~MOUSE_BTN3;
 668               		.loc 1 159 34 is_stmt 1 discriminator 1 view .LVU220
 159:../../tmk_core/common/mousekey.c ****     else if (code == KC_MS_BTN3) mouse_report.buttons &= ~MOUSE_BTN3;
 669               		.loc 1 159 55 is_stmt 0 discriminator 1 view .LVU221
 670 00a8 8091 0000 		lds r24,mouse_report
 671               	.LVL68:
 159:../../tmk_core/common/mousekey.c ****     else if (code == KC_MS_BTN3) mouse_report.buttons &= ~MOUSE_BTN3;
 672               		.loc 1 159 55 discriminator 1 view .LVU222
 673 00ac 8D7F      		andi r24,lo8(-3)
 674 00ae 00C0      		rjmp .L76
 675               	.LVL69:
 676               	.L64:
 160:../../tmk_core/common/mousekey.c ****     else if (code == KC_MS_BTN4) mouse_report.buttons &= ~MOUSE_BTN4;
 677               		.loc 1 160 10 is_stmt 1 view .LVU223
 160:../../tmk_core/common/mousekey.c ****     else if (code == KC_MS_BTN4) mouse_report.buttons &= ~MOUSE_BTN4;
 678               		.loc 1 160 13 is_stmt 0 view .LVU224
 679 00b0 863F      		cpi r24,lo8(-10)
 680 00b2 01F4      		brne .L65
 160:../../tmk_core/common/mousekey.c ****     else if (code == KC_MS_BTN4) mouse_report.buttons &= ~MOUSE_BTN4;
 681               		.loc 1 160 34 is_stmt 1 discriminator 1 view .LVU225
 160:../../tmk_core/common/mousekey.c ****     else if (code == KC_MS_BTN4) mouse_report.buttons &= ~MOUSE_BTN4;
 682               		.loc 1 160 55 is_stmt 0 discriminator 1 view .LVU226
 683 00b4 8091 0000 		lds r24,mouse_report
 684               	.LVL70:
 160:../../tmk_core/common/mousekey.c ****     else if (code == KC_MS_BTN4) mouse_report.buttons &= ~MOUSE_BTN4;
 685               		.loc 1 160 55 discriminator 1 view .LVU227
 686 00b8 8B7F      		andi r24,lo8(-5)
 687 00ba 00C0      		rjmp .L76
 688               	.LVL71:
 689               	.L65:
 161:../../tmk_core/common/mousekey.c ****     else if (code == KC_MS_BTN5) mouse_report.buttons &= ~MOUSE_BTN5;
 690               		.loc 1 161 10 is_stmt 1 view .LVU228
 161:../../tmk_core/common/mousekey.c ****     else if (code == KC_MS_BTN5) mouse_report.buttons &= ~MOUSE_BTN5;
 691               		.loc 1 161 13 is_stmt 0 view .LVU229
 692 00bc 873F      		cpi r24,lo8(-9)
 693 00be 01F4      		brne .L66
 161:../../tmk_core/common/mousekey.c ****     else if (code == KC_MS_BTN5) mouse_report.buttons &= ~MOUSE_BTN5;
 694               		.loc 1 161 34 is_stmt 1 discriminator 1 view .LVU230
 161:../../tmk_core/common/mousekey.c ****     else if (code == KC_MS_BTN5) mouse_report.buttons &= ~MOUSE_BTN5;
 695               		.loc 1 161 55 is_stmt 0 discriminator 1 view .LVU231
 696 00c0 8091 0000 		lds r24,mouse_report
 697               	.LVL72:
 161:../../tmk_core/common/mousekey.c ****     else if (code == KC_MS_BTN5) mouse_report.buttons &= ~MOUSE_BTN5;
 698               		.loc 1 161 55 discriminator 1 view .LVU232
 699 00c4 877F      		andi r24,lo8(-9)
 700 00c6 00C0      		rjmp .L76
 701               	.LVL73:
 702               	.L66:
 162:../../tmk_core/common/mousekey.c ****     else if (code == KC_MS_ACCEL0) mousekey_accel &= ~(1<<0);
 703               		.loc 1 162 10 is_stmt 1 view .LVU233
 162:../../tmk_core/common/mousekey.c ****     else if (code == KC_MS_ACCEL0) mousekey_accel &= ~(1<<0);
 704               		.loc 1 162 13 is_stmt 0 view .LVU234
 705 00c8 883F      		cpi r24,lo8(-8)
 706 00ca 01F4      		brne .L67
 162:../../tmk_core/common/mousekey.c ****     else if (code == KC_MS_ACCEL0) mousekey_accel &= ~(1<<0);
 707               		.loc 1 162 34 is_stmt 1 discriminator 1 view .LVU235
 162:../../tmk_core/common/mousekey.c ****     else if (code == KC_MS_ACCEL0) mousekey_accel &= ~(1<<0);
 708               		.loc 1 162 55 is_stmt 0 discriminator 1 view .LVU236
 709 00cc 8091 0000 		lds r24,mouse_report
 710               	.LVL74:
 162:../../tmk_core/common/mousekey.c ****     else if (code == KC_MS_ACCEL0) mousekey_accel &= ~(1<<0);
 711               		.loc 1 162 55 discriminator 1 view .LVU237
 712 00d0 8F7E      		andi r24,lo8(-17)
 713 00d2 00C0      		rjmp .L76
 714               	.LVL75:
 715               	.L67:
 163:../../tmk_core/common/mousekey.c ****     else if (code == KC_MS_ACCEL1) mousekey_accel &= ~(1<<1);
 716               		.loc 1 163 10 is_stmt 1 view .LVU238
 163:../../tmk_core/common/mousekey.c ****     else if (code == KC_MS_ACCEL1) mousekey_accel &= ~(1<<1);
 717               		.loc 1 163 13 is_stmt 0 view .LVU239
 718 00d4 8D3F      		cpi r24,lo8(-3)
 719 00d6 01F4      		brne .L68
 163:../../tmk_core/common/mousekey.c ****     else if (code == KC_MS_ACCEL1) mousekey_accel &= ~(1<<1);
 720               		.loc 1 163 36 is_stmt 1 discriminator 1 view .LVU240
 163:../../tmk_core/common/mousekey.c ****     else if (code == KC_MS_ACCEL1) mousekey_accel &= ~(1<<1);
 721               		.loc 1 163 51 is_stmt 0 discriminator 1 view .LVU241
 722 00d8 8091 0000 		lds r24,mousekey_accel
 723               	.LVL76:
 163:../../tmk_core/common/mousekey.c ****     else if (code == KC_MS_ACCEL1) mousekey_accel &= ~(1<<1);
 724               		.loc 1 163 51 discriminator 1 view .LVU242
 725 00dc 8E7F      		andi r24,lo8(-2)
 726               	.L77:
 165:../../tmk_core/common/mousekey.c **** 
 727               		.loc 1 165 51 discriminator 1 view .LVU243
 728 00de 8093 0000 		sts mousekey_accel,r24
 729 00e2 00C0      		rjmp .L50
 730               	.LVL77:
 731               	.L68:
 164:../../tmk_core/common/mousekey.c ****     else if (code == KC_MS_ACCEL2) mousekey_accel &= ~(1<<2);
 732               		.loc 1 164 10 is_stmt 1 view .LVU244
 164:../../tmk_core/common/mousekey.c ****     else if (code == KC_MS_ACCEL2) mousekey_accel &= ~(1<<2);
 733               		.loc 1 164 13 is_stmt 0 view .LVU245
 734 00e4 8E3F      		cpi r24,lo8(-2)
 735 00e6 01F4      		brne .L69
 164:../../tmk_core/common/mousekey.c ****     else if (code == KC_MS_ACCEL2) mousekey_accel &= ~(1<<2);
 736               		.loc 1 164 36 is_stmt 1 discriminator 1 view .LVU246
 164:../../tmk_core/common/mousekey.c ****     else if (code == KC_MS_ACCEL2) mousekey_accel &= ~(1<<2);
 737               		.loc 1 164 51 is_stmt 0 discriminator 1 view .LVU247
 738 00e8 8091 0000 		lds r24,mousekey_accel
 739               	.LVL78:
 164:../../tmk_core/common/mousekey.c ****     else if (code == KC_MS_ACCEL2) mousekey_accel &= ~(1<<2);
 740               		.loc 1 164 51 discriminator 1 view .LVU248
 741 00ec 8D7F      		andi r24,lo8(-3)
 742 00ee 00C0      		rjmp .L77
 743               	.LVL79:
 744               	.L69:
 165:../../tmk_core/common/mousekey.c **** 
 745               		.loc 1 165 10 is_stmt 1 view .LVU249
 165:../../tmk_core/common/mousekey.c **** 
 746               		.loc 1 165 13 is_stmt 0 view .LVU250
 747 00f0 8F3F      		cpi r24,lo8(-1)
 748 00f2 01F0      		breq .+2
 749 00f4 00C0      		rjmp .L50
 165:../../tmk_core/common/mousekey.c **** 
 750               		.loc 1 165 36 is_stmt 1 discriminator 1 view .LVU251
 165:../../tmk_core/common/mousekey.c **** 
 751               		.loc 1 165 51 is_stmt 0 discriminator 1 view .LVU252
 752 00f6 8091 0000 		lds r24,mousekey_accel
 753               	.LVL80:
 165:../../tmk_core/common/mousekey.c **** 
 754               		.loc 1 165 51 discriminator 1 view .LVU253
 755 00fa 8B7F      		andi r24,lo8(-5)
 756 00fc 00C0      		rjmp .L77
 757               		.cfi_endproc
 758               	.LFE5:
 760               		.section	.text.mousekey_send,"ax",@progbits
 761               	.global	mousekey_send
 763               	mousekey_send:
 764               	.LFB6:
 170:../../tmk_core/common/mousekey.c **** 
 171:../../tmk_core/common/mousekey.c **** void mousekey_send(void)
 172:../../tmk_core/common/mousekey.c **** {
 765               		.loc 1 172 1 is_stmt 1 view -0
 766               		.cfi_startproc
 767               	/* prologue: function */
 768               	/* frame size = 0 */
 769               	/* stack size = 0 */
 770               	.L__stack_usage = 0
 173:../../tmk_core/common/mousekey.c ****     mousekey_debug();
 771               		.loc 1 173 5 view .LVU255
 772               	.LBB19:
 773               	.LBI19:
 174:../../tmk_core/common/mousekey.c ****     host_mouse_send(&mouse_report);
 175:../../tmk_core/common/mousekey.c ****     last_timer = timer_read();
 176:../../tmk_core/common/mousekey.c **** }
 177:../../tmk_core/common/mousekey.c **** 
 178:../../tmk_core/common/mousekey.c **** void mousekey_clear(void)
 179:../../tmk_core/common/mousekey.c **** {
 180:../../tmk_core/common/mousekey.c ****     mouse_report = (report_mouse_t){};
 181:../../tmk_core/common/mousekey.c ****     mousekey_repeat = 0;
 182:../../tmk_core/common/mousekey.c ****     mousekey_accel = 0;
 183:../../tmk_core/common/mousekey.c **** }
 184:../../tmk_core/common/mousekey.c **** 
 185:../../tmk_core/common/mousekey.c **** static void mousekey_debug(void)
 774               		.loc 1 185 13 view .LVU256
 775               	.LBB20:
 186:../../tmk_core/common/mousekey.c **** {
 187:../../tmk_core/common/mousekey.c ****     if (!debug_mouse) return;
 776               		.loc 1 187 5 view .LVU257
 777               		.loc 1 187 10 is_stmt 0 view .LVU258
 778 0000 8091 0000 		lds r24,debug_config
 779               		.loc 1 187 8 view .LVU259
 780 0004 83FF      		sbrs r24,3
 781 0006 00C0      		rjmp .L79
 188:../../tmk_core/common/mousekey.c ****     print("mousekey [btn|x y v h](rep/acl): [");
 782               		.loc 1 188 5 is_stmt 1 view .LVU260
 783               	.LBE20:
 784               	.LBE19:
 785               		.loc 1 188 5 view .LVU261
 786               		.loc 1 188 5 view .LVU262
 787               	.LBB36:
 788               	.LBB21:
 789 0008 80E0      		ldi r24,lo8(__c.2166)
 790 000a 90E0      		ldi r25,hi8(__c.2166)
 791 000c 0E94 0000 		call xputs
 189:../../tmk_core/common/mousekey.c ****     phex(mouse_report.buttons); print("|");
 792               		.loc 1 189 5 view .LVU263
 793               	.LBE21:
 794               	.LBE36:
 795               		.loc 1 189 5 view .LVU264
 796               		.loc 1 189 5 view .LVU265
 797               	.LBB37:
 798               	.LBB22:
 799 0010 8091 0000 		lds r24,mouse_report
 800 0014 1F92      		push __zero_reg__
 801               	.LCFI0:
 802               		.cfi_def_cfa_offset 3
 803 0016 8F93      		push r24
 804               	.LCFI1:
 805               		.cfi_def_cfa_offset 4
 806 0018 80E0      		ldi r24,lo8(__c.2168)
 807 001a 90E0      		ldi r25,hi8(__c.2168)
 808 001c 9F93      		push r25
 809               	.LCFI2:
 810               		.cfi_def_cfa_offset 5
 811 001e 8F93      		push r24
 812               	.LCFI3:
 813               		.cfi_def_cfa_offset 6
 814 0020 0E94 0000 		call __xprintf
 815               		.loc 1 189 33 view .LVU266
 816               	.LBE22:
 817               	.LBE37:
 818               		.loc 1 189 33 view .LVU267
 819               		.loc 1 189 33 view .LVU268
 820               	.LBB38:
 821               	.LBB23:
 822 0024 80E0      		ldi r24,lo8(__c.2170)
 823 0026 90E0      		ldi r25,hi8(__c.2170)
 824 0028 0E94 0000 		call xputs
 190:../../tmk_core/common/mousekey.c ****     print_decs(mouse_report.x); print(" ");
 825               		.loc 1 190 5 view .LVU269
 826               	.LBE23:
 827               	.LBE38:
 828               		.loc 1 190 5 view .LVU270
 829               		.loc 1 190 5 view .LVU271
 830               	.LBB39:
 831               	.LBB24:
 832 002c 8091 0000 		lds r24,mouse_report+1
 833 0030 282F      		mov r18,r24
 834 0032 082E      		mov __tmp_reg__,r24
 835 0034 000C      		lsl r0
 836 0036 330B      		sbc r19,r19
 837 0038 3F93      		push r19
 838               	.LCFI4:
 839               		.cfi_def_cfa_offset 7
 840 003a 8F93      		push r24
 841               	.LCFI5:
 842               		.cfi_def_cfa_offset 8
 843 003c 80E0      		ldi r24,lo8(__c.2172)
 844 003e 90E0      		ldi r25,hi8(__c.2172)
 845 0040 9F93      		push r25
 846               	.LCFI6:
 847               		.cfi_def_cfa_offset 9
 848 0042 8F93      		push r24
 849               	.LCFI7:
 850               		.cfi_def_cfa_offset 10
 851 0044 0E94 0000 		call __xprintf
 852               		.loc 1 190 33 view .LVU272
 853               	.LBE24:
 854               	.LBE39:
 855               		.loc 1 190 33 view .LVU273
 856               		.loc 1 190 33 view .LVU274
 857               	.LBB40:
 858               	.LBB25:
 859 0048 80E0      		ldi r24,lo8(__c.2174)
 860 004a 90E0      		ldi r25,hi8(__c.2174)
 861 004c 0E94 0000 		call xputs
 191:../../tmk_core/common/mousekey.c ****     print_decs(mouse_report.y); print(" ");
 862               		.loc 1 191 5 view .LVU275
 863               	.LBE25:
 864               	.LBE40:
 865               		.loc 1 191 5 view .LVU276
 866               		.loc 1 191 5 view .LVU277
 867               	.LBB41:
 868               	.LBB26:
 869 0050 8091 0000 		lds r24,mouse_report+2
 870 0054 282F      		mov r18,r24
 871 0056 082E      		mov __tmp_reg__,r24
 872 0058 000C      		lsl r0
 873 005a 330B      		sbc r19,r19
 874 005c 3F93      		push r19
 875               	.LCFI8:
 876               		.cfi_def_cfa_offset 11
 877 005e 8F93      		push r24
 878               	.LCFI9:
 879               		.cfi_def_cfa_offset 12
 880 0060 80E0      		ldi r24,lo8(__c.2176)
 881 0062 90E0      		ldi r25,hi8(__c.2176)
 882 0064 9F93      		push r25
 883               	.LCFI10:
 884               		.cfi_def_cfa_offset 13
 885 0066 8F93      		push r24
 886               	.LCFI11:
 887               		.cfi_def_cfa_offset 14
 888 0068 0E94 0000 		call __xprintf
 889               		.loc 1 191 33 view .LVU278
 890               	.LBE26:
 891               	.LBE41:
 892               		.loc 1 191 33 view .LVU279
 893               		.loc 1 191 33 view .LVU280
 894               	.LBB42:
 895               	.LBB27:
 896 006c 80E0      		ldi r24,lo8(__c.2178)
 897 006e 90E0      		ldi r25,hi8(__c.2178)
 898 0070 0E94 0000 		call xputs
 192:../../tmk_core/common/mousekey.c ****     print_decs(mouse_report.v); print(" ");
 899               		.loc 1 192 5 view .LVU281
 900               	.LBE27:
 901               	.LBE42:
 902               		.loc 1 192 5 view .LVU282
 903               		.loc 1 192 5 view .LVU283
 904               	.LBB43:
 905               	.LBB28:
 906 0074 8091 0000 		lds r24,mouse_report+3
 907 0078 282F      		mov r18,r24
 908 007a 082E      		mov __tmp_reg__,r24
 909 007c 000C      		lsl r0
 910 007e 330B      		sbc r19,r19
 911 0080 3F93      		push r19
 912               	.LCFI12:
 913               		.cfi_def_cfa_offset 15
 914 0082 8F93      		push r24
 915               	.LCFI13:
 916               		.cfi_def_cfa_offset 16
 917 0084 80E0      		ldi r24,lo8(__c.2180)
 918 0086 90E0      		ldi r25,hi8(__c.2180)
 919 0088 9F93      		push r25
 920               	.LCFI14:
 921               		.cfi_def_cfa_offset 17
 922 008a 8F93      		push r24
 923               	.LCFI15:
 924               		.cfi_def_cfa_offset 18
 925 008c 0E94 0000 		call __xprintf
 926               		.loc 1 192 33 view .LVU284
 927               	.LBE28:
 928               	.LBE43:
 929               		.loc 1 192 33 view .LVU285
 930               		.loc 1 192 33 view .LVU286
 931               	.LBB44:
 932               	.LBB29:
 933 0090 80E0      		ldi r24,lo8(__c.2182)
 934 0092 90E0      		ldi r25,hi8(__c.2182)
 935 0094 0E94 0000 		call xputs
 193:../../tmk_core/common/mousekey.c ****     print_decs(mouse_report.h); print("](");
 936               		.loc 1 193 5 view .LVU287
 937               	.LBE29:
 938               	.LBE44:
 939               		.loc 1 193 5 view .LVU288
 940               		.loc 1 193 5 view .LVU289
 941               	.LBB45:
 942               	.LBB30:
 943 0098 8091 0000 		lds r24,mouse_report+4
 944 009c 282F      		mov r18,r24
 945 009e 082E      		mov __tmp_reg__,r24
 946 00a0 000C      		lsl r0
 947 00a2 330B      		sbc r19,r19
 948 00a4 3F93      		push r19
 949               	.LCFI16:
 950               		.cfi_def_cfa_offset 19
 951 00a6 8F93      		push r24
 952               	.LCFI17:
 953               		.cfi_def_cfa_offset 20
 954 00a8 80E0      		ldi r24,lo8(__c.2184)
 955 00aa 90E0      		ldi r25,hi8(__c.2184)
 956 00ac 9F93      		push r25
 957               	.LCFI18:
 958               		.cfi_def_cfa_offset 21
 959 00ae 8F93      		push r24
 960               	.LCFI19:
 961               		.cfi_def_cfa_offset 22
 962 00b0 0E94 0000 		call __xprintf
 963               		.loc 1 193 33 view .LVU290
 964               	.LBE30:
 965               	.LBE45:
 966               		.loc 1 193 33 view .LVU291
 967               		.loc 1 193 33 view .LVU292
 968               	.LBB46:
 969               	.LBB31:
 970 00b4 80E0      		ldi r24,lo8(__c.2186)
 971 00b6 90E0      		ldi r25,hi8(__c.2186)
 972 00b8 0E94 0000 		call xputs
 194:../../tmk_core/common/mousekey.c ****     print_dec(mousekey_repeat); print("/");
 973               		.loc 1 194 5 view .LVU293
 974               	.LBE31:
 975               	.LBE46:
 976               		.loc 1 194 5 view .LVU294
 977               		.loc 1 194 5 view .LVU295
 978               	.LBB47:
 979               	.LBB32:
 980 00bc 8091 0000 		lds r24,mousekey_repeat
 981 00c0 1F92      		push __zero_reg__
 982               	.LCFI20:
 983               		.cfi_def_cfa_offset 23
 984 00c2 8F93      		push r24
 985               	.LCFI21:
 986               		.cfi_def_cfa_offset 24
 987 00c4 80E0      		ldi r24,lo8(__c.2188)
 988 00c6 90E0      		ldi r25,hi8(__c.2188)
 989 00c8 9F93      		push r25
 990               	.LCFI22:
 991               		.cfi_def_cfa_offset 25
 992 00ca 8F93      		push r24
 993               	.LCFI23:
 994               		.cfi_def_cfa_offset 26
 995 00cc 0E94 0000 		call __xprintf
 996               		.loc 1 194 33 view .LVU296
 997               	.LBE32:
 998               	.LBE47:
 999               		.loc 1 194 33 view .LVU297
 1000               		.loc 1 194 33 view .LVU298
 1001               	.LBB48:
 1002               	.LBB33:
 1003 00d0 80E0      		ldi r24,lo8(__c.2190)
 1004 00d2 90E0      		ldi r25,hi8(__c.2190)
 1005 00d4 0E94 0000 		call xputs
 195:../../tmk_core/common/mousekey.c ****     print_dec(mousekey_accel); print(")\n");
 1006               		.loc 1 195 5 view .LVU299
 1007               	.LBE33:
 1008               	.LBE48:
 1009               		.loc 1 195 5 view .LVU300
 1010               		.loc 1 195 5 view .LVU301
 1011               	.LBB49:
 1012               	.LBB34:
 1013 00d8 8091 0000 		lds r24,mousekey_accel
 1014 00dc 1F92      		push __zero_reg__
 1015               	.LCFI24:
 1016               		.cfi_def_cfa_offset 27
 1017 00de 8F93      		push r24
 1018               	.LCFI25:
 1019               		.cfi_def_cfa_offset 28
 1020 00e0 80E0      		ldi r24,lo8(__c.2192)
 1021 00e2 90E0      		ldi r25,hi8(__c.2192)
 1022 00e4 9F93      		push r25
 1023               	.LCFI26:
 1024               		.cfi_def_cfa_offset 29
 1025 00e6 8F93      		push r24
 1026               	.LCFI27:
 1027               		.cfi_def_cfa_offset 30
 1028 00e8 0E94 0000 		call __xprintf
 1029               		.loc 1 195 32 view .LVU302
 1030               	.LBE34:
 1031               	.LBE49:
 1032               		.loc 1 195 32 view .LVU303
 1033               		.loc 1 195 32 view .LVU304
 1034               	.LBB50:
 1035               	.LBB35:
 1036 00ec 80E0      		ldi r24,lo8(__c.2194)
 1037 00ee 90E0      		ldi r25,hi8(__c.2194)
 1038 00f0 0E94 0000 		call xputs
 1039 00f4 8DB7      		in r24,__SP_L__
 1040 00f6 9EB7      		in r25,__SP_H__
 1041 00f8 4C96      		adiw r24,28
 1042 00fa 0FB6      		in __tmp_reg__,__SREG__
 1043 00fc F894      		cli
 1044 00fe 9EBF      		out __SP_H__,r25
 1045 0100 0FBE      		out __SREG__,__tmp_reg__
 1046 0102 8DBF      		out __SP_L__,r24
 1047               	.LCFI28:
 1048               		.cfi_def_cfa_offset 2
 1049               	.L79:
 1050               	.LBE35:
 1051               	.LBE50:
 174:../../tmk_core/common/mousekey.c ****     last_timer = timer_read();
 1052               		.loc 1 174 5 view .LVU305
 1053 0104 80E0      		ldi r24,lo8(mouse_report)
 1054 0106 90E0      		ldi r25,hi8(mouse_report)
 1055 0108 0E94 0000 		call host_mouse_send
 175:../../tmk_core/common/mousekey.c **** }
 1056               		.loc 1 175 5 view .LVU306
 175:../../tmk_core/common/mousekey.c **** }
 1057               		.loc 1 175 18 is_stmt 0 view .LVU307
 1058 010c 0E94 0000 		call timer_read
 175:../../tmk_core/common/mousekey.c **** }
 1059               		.loc 1 175 16 view .LVU308
 1060 0110 9093 0000 		sts last_timer+1,r25
 1061 0114 8093 0000 		sts last_timer,r24
 1062               	/* epilogue start */
 176:../../tmk_core/common/mousekey.c **** 
 1063               		.loc 1 176 1 view .LVU309
 1064 0118 0895      		ret
 1065               		.cfi_endproc
 1066               	.LFE6:
 1068               	.global	__floatsisf
 1069               	.global	__mulsf3
 1070               	.global	__fixsfsi
 1071               		.section	.text.mousekey_task,"ax",@progbits
 1072               	.global	mousekey_task
 1074               	mousekey_task:
 1075               	.LFB3:
  98:../../tmk_core/common/mousekey.c ****     if (timer_elapsed(last_timer) < (mousekey_repeat ? mk_interval : mk_delay*10))
 1076               		.loc 1 98 1 is_stmt 1 view -0
 1077               		.cfi_startproc
 1078 0000 1F93      		push r17
 1079               	.LCFI29:
 1080               		.cfi_def_cfa_offset 3
 1081               		.cfi_offset 17, -2
 1082 0002 CF93      		push r28
 1083               	.LCFI30:
 1084               		.cfi_def_cfa_offset 4
 1085               		.cfi_offset 28, -3
 1086 0004 DF93      		push r29
 1087               	.LCFI31:
 1088               		.cfi_def_cfa_offset 5
 1089               		.cfi_offset 29, -4
 1090               	/* prologue: function */
 1091               	/* frame size = 0 */
 1092               	/* stack size = 3 */
 1093               	.L__stack_usage = 3
  99:../../tmk_core/common/mousekey.c ****         return;
 1094               		.loc 1 99 5 view .LVU311
  99:../../tmk_core/common/mousekey.c ****         return;
 1095               		.loc 1 99 9 is_stmt 0 view .LVU312
 1096 0006 8091 0000 		lds r24,last_timer
 1097 000a 9091 0000 		lds r25,last_timer+1
 1098 000e 0E94 0000 		call timer_elapsed
 1099               	.LVL81:
 1100 0012 FC01      		movw r30,r24
  99:../../tmk_core/common/mousekey.c ****         return;
 1101               		.loc 1 99 54 view .LVU313
 1102 0014 2091 0000 		lds r18,mousekey_repeat
  99:../../tmk_core/common/mousekey.c ****         return;
 1103               		.loc 1 99 68 view .LVU314
 1104 0018 8091 0000 		lds r24,mk_interval
 1105 001c 90E0      		ldi r25,0
 1106 001e 2111      		cpse r18,__zero_reg__
 1107 0020 00C0      		rjmp .L85
  99:../../tmk_core/common/mousekey.c ****         return;
 1108               		.loc 1 99 78 discriminator 2 view .LVU315
 1109 0022 8091 0000 		lds r24,mk_delay
 1110 0026 90E0      		ldi r25,0
 1111 0028 6AE0      		ldi r22,lo8(10)
 1112 002a 70E0      		ldi r23,0
 1113 002c 0E94 0000 		call __mulhi3
 1114               	.L85:
  99:../../tmk_core/common/mousekey.c ****         return;
 1115               		.loc 1 99 8 discriminator 4 view .LVU316
 1116 0030 E817      		cp r30,r24
 1117 0032 F907      		cpc r31,r25
 1118 0034 00F0      		brlo .L83
 102:../../tmk_core/common/mousekey.c ****         return;
 1119               		.loc 1 102 5 is_stmt 1 view .LVU317
 102:../../tmk_core/common/mousekey.c ****         return;
 1120               		.loc 1 102 21 is_stmt 0 view .LVU318
 1121 0036 9091 0000 		lds r25,mouse_report+1
 1122 003a C091 0000 		lds r28,mouse_report+2
 1123 003e D091 0000 		lds r29,mouse_report+3
 1124 0042 1091 0000 		lds r17,mouse_report+4
 102:../../tmk_core/common/mousekey.c ****         return;
 1125               		.loc 1 102 8 view .LVU319
 1126 0046 9111      		cpse r25,__zero_reg__
 1127 0048 00C0      		rjmp .L87
 102:../../tmk_core/common/mousekey.c ****         return;
 1128               		.loc 1 102 75 discriminator 1 view .LVU320
 1129 004a 8C2F      		mov r24,r28
 1130 004c 8D2B      		or r24,r29
 1131 004e 812B      		or r24,r17
 1132 0050 01F0      		breq .+2
 1133 0052 00C0      		rjmp .L112
 1134               	.L83:
 1135               	/* epilogue start */
 126:../../tmk_core/common/mousekey.c **** 
 1136               		.loc 1 126 1 view .LVU321
 1137 0054 DF91      		pop r29
 1138 0056 CF91      		pop r28
 1139 0058 1F91      		pop r17
 1140 005a 0895      		ret
 1141               	.L87:
 105:../../tmk_core/common/mousekey.c ****         mousekey_repeat++;
 1142               		.loc 1 105 5 is_stmt 1 view .LVU322
 105:../../tmk_core/common/mousekey.c ****         mousekey_repeat++;
 1143               		.loc 1 105 8 is_stmt 0 view .LVU323
 1144 005c 2F3F      		cpi r18,lo8(-1)
 1145 005e 01F0      		breq .L89
 1146               	.L99:
 106:../../tmk_core/common/mousekey.c **** 
 1147               		.loc 1 106 9 is_stmt 1 view .LVU324
 106:../../tmk_core/common/mousekey.c **** 
 1148               		.loc 1 106 24 is_stmt 0 view .LVU325
 1149 0060 2F5F      		subi r18,lo8(-(1))
 1150 0062 2093 0000 		sts mousekey_repeat,r18
 1151               	.L89:
 109:../../tmk_core/common/mousekey.c ****     if (mouse_report.x < 0) mouse_report.x = move_unit() * -1;
 1152               		.loc 1 109 5 is_stmt 1 view .LVU326
 109:../../tmk_core/common/mousekey.c ****     if (mouse_report.x < 0) mouse_report.x = move_unit() * -1;
 1153               		.loc 1 109 8 is_stmt 0 view .LVU327
 1154 0066 1916      		cp __zero_reg__,r25
 1155 0068 04F4      		brge .L90
 109:../../tmk_core/common/mousekey.c ****     if (mouse_report.x < 0) mouse_report.x = move_unit() * -1;
 1156               		.loc 1 109 29 is_stmt 1 discriminator 1 view .LVU328
 109:../../tmk_core/common/mousekey.c ****     if (mouse_report.x < 0) mouse_report.x = move_unit() * -1;
 1157               		.loc 1 109 46 is_stmt 0 discriminator 1 view .LVU329
 1158 006a 0E94 0000 		call move_unit
 1159               	.LVL82:
 109:../../tmk_core/common/mousekey.c ****     if (mouse_report.x < 0) mouse_report.x = move_unit() * -1;
 1160               		.loc 1 109 44 discriminator 1 view .LVU330
 1161 006e 8093 0000 		sts mouse_report+1,r24
 1162               	.L90:
 110:../../tmk_core/common/mousekey.c ****     if (mouse_report.y > 0) mouse_report.y = move_unit();
 1163               		.loc 1 110 5 is_stmt 1 view .LVU331
 110:../../tmk_core/common/mousekey.c ****     if (mouse_report.y > 0) mouse_report.y = move_unit();
 1164               		.loc 1 110 8 is_stmt 0 view .LVU332
 1165 0072 8091 0000 		lds r24,mouse_report+1
 1166 0076 87FF      		sbrs r24,7
 1167 0078 00C0      		rjmp .L91
 110:../../tmk_core/common/mousekey.c ****     if (mouse_report.y > 0) mouse_report.y = move_unit();
 1168               		.loc 1 110 29 is_stmt 1 discriminator 1 view .LVU333
 110:../../tmk_core/common/mousekey.c ****     if (mouse_report.y > 0) mouse_report.y = move_unit();
 1169               		.loc 1 110 46 is_stmt 0 discriminator 1 view .LVU334
 1170 007a 0E94 0000 		call move_unit
 1171               	.LVL83:
 110:../../tmk_core/common/mousekey.c ****     if (mouse_report.y > 0) mouse_report.y = move_unit();
 1172               		.loc 1 110 44 discriminator 1 view .LVU335
 1173 007e 8195      		neg r24
 1174 0080 8093 0000 		sts mouse_report+1,r24
 1175               	.L91:
 111:../../tmk_core/common/mousekey.c ****     if (mouse_report.y < 0) mouse_report.y = move_unit() * -1;
 1176               		.loc 1 111 5 is_stmt 1 view .LVU336
 111:../../tmk_core/common/mousekey.c ****     if (mouse_report.y < 0) mouse_report.y = move_unit() * -1;
 1177               		.loc 1 111 8 is_stmt 0 view .LVU337
 1178 0084 1C16      		cp __zero_reg__,r28
 1179 0086 04F4      		brge .L92
 111:../../tmk_core/common/mousekey.c ****     if (mouse_report.y < 0) mouse_report.y = move_unit() * -1;
 1180               		.loc 1 111 29 is_stmt 1 discriminator 1 view .LVU338
 111:../../tmk_core/common/mousekey.c ****     if (mouse_report.y < 0) mouse_report.y = move_unit() * -1;
 1181               		.loc 1 111 46 is_stmt 0 discriminator 1 view .LVU339
 1182 0088 0E94 0000 		call move_unit
 1183               	.LVL84:
 111:../../tmk_core/common/mousekey.c ****     if (mouse_report.y < 0) mouse_report.y = move_unit() * -1;
 1184               		.loc 1 111 44 discriminator 1 view .LVU340
 1185 008c 8093 0000 		sts mouse_report+2,r24
 1186               	.L92:
 112:../../tmk_core/common/mousekey.c **** 
 1187               		.loc 1 112 5 is_stmt 1 view .LVU341
 112:../../tmk_core/common/mousekey.c **** 
 1188               		.loc 1 112 8 is_stmt 0 view .LVU342
 1189 0090 8091 0000 		lds r24,mouse_report+2
 1190 0094 87FF      		sbrs r24,7
 1191 0096 00C0      		rjmp .L93
 112:../../tmk_core/common/mousekey.c **** 
 1192               		.loc 1 112 29 is_stmt 1 discriminator 1 view .LVU343
 112:../../tmk_core/common/mousekey.c **** 
 1193               		.loc 1 112 46 is_stmt 0 discriminator 1 view .LVU344
 1194 0098 0E94 0000 		call move_unit
 1195               	.LVL85:
 112:../../tmk_core/common/mousekey.c **** 
 1196               		.loc 1 112 44 discriminator 1 view .LVU345
 1197 009c 8195      		neg r24
 1198 009e 8093 0000 		sts mouse_report+2,r24
 1199               	.L93:
 115:../../tmk_core/common/mousekey.c ****         mouse_report.x *= 0.7;
 1200               		.loc 1 115 5 is_stmt 1 view .LVU346
 115:../../tmk_core/common/mousekey.c ****         mouse_report.x *= 0.7;
 1201               		.loc 1 115 21 is_stmt 0 view .LVU347
 1202 00a2 6091 0000 		lds r22,mouse_report+1
 115:../../tmk_core/common/mousekey.c ****         mouse_report.x *= 0.7;
 1203               		.loc 1 115 8 view .LVU348
 1204 00a6 6623      		tst r22
 1205 00a8 01F0      		breq .L94
 115:../../tmk_core/common/mousekey.c ****         mouse_report.x *= 0.7;
 1206               		.loc 1 115 39 discriminator 1 view .LVU349
 1207 00aa C091 0000 		lds r28,mouse_report+2
 115:../../tmk_core/common/mousekey.c ****         mouse_report.x *= 0.7;
 1208               		.loc 1 115 24 discriminator 1 view .LVU350
 1209 00ae CC23      		tst r28
 1210 00b0 01F0      		breq .L94
 116:../../tmk_core/common/mousekey.c ****         mouse_report.y *= 0.7;
 1211               		.loc 1 116 9 is_stmt 1 view .LVU351
 116:../../tmk_core/common/mousekey.c ****         mouse_report.y *= 0.7;
 1212               		.loc 1 116 24 is_stmt 0 view .LVU352
 1213 00b2 062E      		mov __tmp_reg__,r22
 1214 00b4 000C      		lsl r0
 1215 00b6 770B      		sbc r23,r23
 1216 00b8 880B      		sbc r24,r24
 1217 00ba 990B      		sbc r25,r25
 1218 00bc 0E94 0000 		call __floatsisf
 1219               	.LVL86:
 1220 00c0 23E3      		ldi r18,lo8(51)
 1221 00c2 33E3      		ldi r19,lo8(51)
 1222 00c4 43E3      		ldi r20,lo8(51)
 1223 00c6 5FE3      		ldi r21,lo8(63)
 1224 00c8 0E94 0000 		call __mulsf3
 1225               	.LVL87:
 1226 00cc 0E94 0000 		call __fixsfsi
 1227               	.LVL88:
 1228 00d0 6093 0000 		sts mouse_report+1,r22
 117:../../tmk_core/common/mousekey.c ****     }
 1229               		.loc 1 117 9 is_stmt 1 view .LVU353
 117:../../tmk_core/common/mousekey.c ****     }
 1230               		.loc 1 117 24 is_stmt 0 view .LVU354
 1231 00d4 6C2F      		mov r22,r28
 1232 00d6 CC0F      		lsl r28
 1233 00d8 770B      		sbc r23,r23
 1234 00da 880B      		sbc r24,r24
 1235 00dc 990B      		sbc r25,r25
 1236 00de 0E94 0000 		call __floatsisf
 1237               	.LVL89:
 1238 00e2 23E3      		ldi r18,lo8(51)
 1239 00e4 33E3      		ldi r19,lo8(51)
 1240 00e6 43E3      		ldi r20,lo8(51)
 1241 00e8 5FE3      		ldi r21,lo8(63)
 1242 00ea 0E94 0000 		call __mulsf3
 1243               	.LVL90:
 1244 00ee 0E94 0000 		call __fixsfsi
 1245               	.LVL91:
 1246 00f2 6093 0000 		sts mouse_report+2,r22
 1247               	.L94:
 120:../../tmk_core/common/mousekey.c ****     if (mouse_report.v < 0) mouse_report.v = wheel_unit() * -1;
 1248               		.loc 1 120 5 is_stmt 1 view .LVU355
 120:../../tmk_core/common/mousekey.c ****     if (mouse_report.v < 0) mouse_report.v = wheel_unit() * -1;
 1249               		.loc 1 120 8 is_stmt 0 view .LVU356
 1250 00f6 1D16      		cp __zero_reg__,r29
 1251 00f8 04F4      		brge .L95
 120:../../tmk_core/common/mousekey.c ****     if (mouse_report.v < 0) mouse_report.v = wheel_unit() * -1;
 1252               		.loc 1 120 29 is_stmt 1 discriminator 1 view .LVU357
 120:../../tmk_core/common/mousekey.c ****     if (mouse_report.v < 0) mouse_report.v = wheel_unit() * -1;
 1253               		.loc 1 120 46 is_stmt 0 discriminator 1 view .LVU358
 1254 00fa 0E94 0000 		call wheel_unit
 1255               	.LVL92:
 120:../../tmk_core/common/mousekey.c ****     if (mouse_report.v < 0) mouse_report.v = wheel_unit() * -1;
 1256               		.loc 1 120 44 discriminator 1 view .LVU359
 1257 00fe 8093 0000 		sts mouse_report+3,r24
 1258               	.L95:
 121:../../tmk_core/common/mousekey.c ****     if (mouse_report.h > 0) mouse_report.h = wheel_unit();
 1259               		.loc 1 121 5 is_stmt 1 view .LVU360
 121:../../tmk_core/common/mousekey.c ****     if (mouse_report.h > 0) mouse_report.h = wheel_unit();
 1260               		.loc 1 121 8 is_stmt 0 view .LVU361
 1261 0102 8091 0000 		lds r24,mouse_report+3
 1262 0106 87FF      		sbrs r24,7
 1263 0108 00C0      		rjmp .L96
 121:../../tmk_core/common/mousekey.c ****     if (mouse_report.h > 0) mouse_report.h = wheel_unit();
 1264               		.loc 1 121 29 is_stmt 1 discriminator 1 view .LVU362
 121:../../tmk_core/common/mousekey.c ****     if (mouse_report.h > 0) mouse_report.h = wheel_unit();
 1265               		.loc 1 121 46 is_stmt 0 discriminator 1 view .LVU363
 1266 010a 0E94 0000 		call wheel_unit
 1267               	.LVL93:
 121:../../tmk_core/common/mousekey.c ****     if (mouse_report.h > 0) mouse_report.h = wheel_unit();
 1268               		.loc 1 121 44 discriminator 1 view .LVU364
 1269 010e 8195      		neg r24
 1270 0110 8093 0000 		sts mouse_report+3,r24
 1271               	.L96:
 122:../../tmk_core/common/mousekey.c ****     if (mouse_report.h < 0) mouse_report.h = wheel_unit() * -1;
 1272               		.loc 1 122 5 is_stmt 1 view .LVU365
 122:../../tmk_core/common/mousekey.c ****     if (mouse_report.h < 0) mouse_report.h = wheel_unit() * -1;
 1273               		.loc 1 122 8 is_stmt 0 view .LVU366
 1274 0114 1116      		cp __zero_reg__,r17
 1275 0116 04F4      		brge .L97
 122:../../tmk_core/common/mousekey.c ****     if (mouse_report.h < 0) mouse_report.h = wheel_unit() * -1;
 1276               		.loc 1 122 29 is_stmt 1 discriminator 1 view .LVU367
 122:../../tmk_core/common/mousekey.c ****     if (mouse_report.h < 0) mouse_report.h = wheel_unit() * -1;
 1277               		.loc 1 122 46 is_stmt 0 discriminator 1 view .LVU368
 1278 0118 0E94 0000 		call wheel_unit
 1279               	.LVL94:
 122:../../tmk_core/common/mousekey.c ****     if (mouse_report.h < 0) mouse_report.h = wheel_unit() * -1;
 1280               		.loc 1 122 44 discriminator 1 view .LVU369
 1281 011c 8093 0000 		sts mouse_report+4,r24
 1282               	.L97:
 123:../../tmk_core/common/mousekey.c **** 
 1283               		.loc 1 123 5 is_stmt 1 view .LVU370
 123:../../tmk_core/common/mousekey.c **** 
 1284               		.loc 1 123 8 is_stmt 0 view .LVU371
 1285 0120 8091 0000 		lds r24,mouse_report+4
 1286 0124 87FF      		sbrs r24,7
 1287 0126 00C0      		rjmp .L98
 123:../../tmk_core/common/mousekey.c **** 
 1288               		.loc 1 123 29 is_stmt 1 discriminator 1 view .LVU372
 123:../../tmk_core/common/mousekey.c **** 
 1289               		.loc 1 123 46 is_stmt 0 discriminator 1 view .LVU373
 1290 0128 0E94 0000 		call wheel_unit
 1291               	.LVL95:
 123:../../tmk_core/common/mousekey.c **** 
 1292               		.loc 1 123 44 discriminator 1 view .LVU374
 1293 012c 8195      		neg r24
 1294 012e 8093 0000 		sts mouse_report+4,r24
 1295               	.L98:
 125:../../tmk_core/common/mousekey.c **** }
 1296               		.loc 1 125 5 is_stmt 1 view .LVU375
 1297               	/* epilogue start */
 126:../../tmk_core/common/mousekey.c **** 
 1298               		.loc 1 126 1 is_stmt 0 view .LVU376
 1299 0132 DF91      		pop r29
 1300 0134 CF91      		pop r28
 1301 0136 1F91      		pop r17
 125:../../tmk_core/common/mousekey.c **** }
 1302               		.loc 1 125 5 view .LVU377
 1303 0138 0C94 0000 		jmp mousekey_send
 1304               	.LVL96:
 1305               	.L112:
 105:../../tmk_core/common/mousekey.c ****         mousekey_repeat++;
 1306               		.loc 1 105 5 is_stmt 1 view .LVU378
 105:../../tmk_core/common/mousekey.c ****         mousekey_repeat++;
 1307               		.loc 1 105 8 is_stmt 0 view .LVU379
 1308 013c 2F3F      		cpi r18,lo8(-1)
 1309 013e 01F0      		breq .+2
 1310 0140 00C0      		rjmp .L99
 1311 0142 00C0      		rjmp .L91
 1312               		.cfi_endproc
 1313               	.LFE3:
 1315               		.section	.text.mousekey_clear,"ax",@progbits
 1316               	.global	mousekey_clear
 1318               	mousekey_clear:
 1319               	.LFB7:
 179:../../tmk_core/common/mousekey.c ****     mouse_report = (report_mouse_t){};
 1320               		.loc 1 179 1 is_stmt 1 view -0
 1321               		.cfi_startproc
 1322               	/* prologue: function */
 1323               	/* frame size = 0 */
 1324               	/* stack size = 0 */
 1325               	.L__stack_usage = 0
 180:../../tmk_core/common/mousekey.c ****     mousekey_repeat = 0;
 1326               		.loc 1 180 5 view .LVU381
 180:../../tmk_core/common/mousekey.c ****     mousekey_repeat = 0;
 1327               		.loc 1 180 18 is_stmt 0 view .LVU382
 1328 0000 85E0      		ldi r24,lo8(5)
 1329 0002 E0E0      		ldi r30,lo8(mouse_report)
 1330 0004 F0E0      		ldi r31,hi8(mouse_report)
 1331 0006 DF01      		movw r26,r30
 1332               		0:
 1333 0008 1D92      		st X+,__zero_reg__
 1334 000a 8A95      		dec r24
 1335 000c 01F4      		brne 0b
 181:../../tmk_core/common/mousekey.c ****     mousekey_accel = 0;
 1336               		.loc 1 181 5 is_stmt 1 view .LVU383
 181:../../tmk_core/common/mousekey.c ****     mousekey_accel = 0;
 1337               		.loc 1 181 21 is_stmt 0 view .LVU384
 1338 000e 1092 0000 		sts mousekey_repeat,__zero_reg__
 182:../../tmk_core/common/mousekey.c **** }
 1339               		.loc 1 182 5 is_stmt 1 view .LVU385
 182:../../tmk_core/common/mousekey.c **** }
 1340               		.loc 1 182 20 is_stmt 0 view .LVU386
 1341 0012 1092 0000 		sts mousekey_accel,__zero_reg__
 1342               	/* epilogue start */
 183:../../tmk_core/common/mousekey.c **** 
 1343               		.loc 1 183 1 view .LVU387
 1344 0016 0895      		ret
 1345               		.cfi_endproc
 1346               	.LFE7:
 1348               		.section	.progmem.data.__c.2194,"a"
 1351               	__c.2194:
 1352 0000 290A 00   		.string	")\n"
 1353               		.section	.progmem.data.__c.2192,"a"
 1356               	__c.2192:
 1357 0000 2575 00   		.string	"%u"
 1358               		.section	.progmem.data.__c.2190,"a"
 1361               	__c.2190:
 1362 0000 2F00      		.string	"/"
 1363               		.section	.progmem.data.__c.2188,"a"
 1366               	__c.2188:
 1367 0000 2575 00   		.string	"%u"
 1368               		.section	.progmem.data.__c.2186,"a"
 1371               	__c.2186:
 1372 0000 5D28 00   		.string	"]("
 1373               		.section	.progmem.data.__c.2184,"a"
 1376               	__c.2184:
 1377 0000 2564 00   		.string	"%d"
 1378               		.section	.progmem.data.__c.2182,"a"
 1381               	__c.2182:
 1382 0000 2000      		.string	" "
 1383               		.section	.progmem.data.__c.2180,"a"
 1386               	__c.2180:
 1387 0000 2564 00   		.string	"%d"
 1388               		.section	.progmem.data.__c.2178,"a"
 1391               	__c.2178:
 1392 0000 2000      		.string	" "
 1393               		.section	.progmem.data.__c.2176,"a"
 1396               	__c.2176:
 1397 0000 2564 00   		.string	"%d"
 1398               		.section	.progmem.data.__c.2174,"a"
 1401               	__c.2174:
 1402 0000 2000      		.string	" "
 1403               		.section	.progmem.data.__c.2172,"a"
 1406               	__c.2172:
 1407 0000 2564 00   		.string	"%d"
 1408               		.section	.progmem.data.__c.2170,"a"
 1411               	__c.2170:
 1412 0000 7C00      		.string	"|"
 1413               		.section	.progmem.data.__c.2168,"a"
 1416               	__c.2168:
 1417 0000 2530 3258 		.string	"%02X"
 1417      00
 1418               		.section	.progmem.data.__c.2166,"a"
 1421               	__c.2166:
 1422 0000 6D6F 7573 		.string	"mousekey [btn|x y v h](rep/acl): ["
 1422      656B 6579 
 1422      205B 6274 
 1422      6E7C 7820 
 1422      7920 7620 
 1423               		.section	.bss.last_timer,"aw",@nobits
 1426               	last_timer:
 1427 0000 0000      		.zero	2
 1428               	.global	mk_wheel_time_to_max
 1429               		.section	.data.mk_wheel_time_to_max,"aw"
 1432               	mk_wheel_time_to_max:
 1433 0000 28        		.byte	40
 1434               	.global	mk_wheel_max_speed
 1435               		.section	.data.mk_wheel_max_speed,"aw"
 1438               	mk_wheel_max_speed:
 1439 0000 08        		.byte	8
 1440               	.global	mk_time_to_max
 1441               		.section	.data.mk_time_to_max,"aw"
 1444               	mk_time_to_max:
 1445 0000 14        		.byte	20
 1446               	.global	mk_max_speed
 1447               		.section	.data.mk_max_speed,"aw"
 1450               	mk_max_speed:
 1451 0000 0A        		.byte	10
 1452               	.global	mk_interval
 1453               		.section	.data.mk_interval,"aw"
 1456               	mk_interval:
 1457 0000 32        		.byte	50
 1458               	.global	mk_delay
 1459               		.section	.data.mk_delay,"aw"
 1462               	mk_delay:
 1463 0000 1E        		.byte	30
 1464               		.section	.bss.mousekey_accel,"aw",@nobits
 1467               	mousekey_accel:
 1468 0000 00        		.zero	1
 1469               		.section	.bss.mousekey_repeat,"aw",@nobits
 1472               	mousekey_repeat:
 1473 0000 00        		.zero	1
 1474               		.section	.bss.mouse_report,"aw",@nobits
 1477               	mouse_report:
 1478 0000 0000 0000 		.zero	5
 1478      00
 1479               		.text
 1480               	.Letext0:
 1481               		.file 2 "/usr/avr/include/stdint.h"
 1482               		.file 3 "../../tmk_core/common/report.h"
 1483               		.file 4 "../../tmk_core/common/host.h"
 1484               		.file 5 "../../tmk_core/common/timer.h"
 1485               		.file 6 "../../tmk_core/common/avr/xprintf.h"
 1486               		.file 7 "../../tmk_core/common/debug.h"
 1487               		.file 8 "../../tmk_core/common/mousekey.h"
 1488               		.file 9 "../../tmk_core/common/keycode.h"