   1               		.file	"lufa.c"
   2               	__SP_H__ = 0x3e
   3               	__SP_L__ = 0x3d
   4               	__SREG__ = 0x3f
   5               	__tmp_reg__ = 0
   6               	__zero_reg__ = 1
   7               		.text
   8               	.Ltext0:
   9               		.cfi_sections	.debug_frame
  10               		.section	.text.keyboard_leds,"ax",@progbits
  12               	keyboard_leds:
  13               	.LFB126:
  14               		.file 1 "../../tmk_core/protocol/lufa/lufa.c"
   1:../../tmk_core/protocol/lufa/lufa.c **** /*
   2:../../tmk_core/protocol/lufa/lufa.c ****  * Copyright 2012 Jun Wako <wakojun@gmail.com>
   3:../../tmk_core/protocol/lufa/lufa.c ****  * This file is based on:
   4:../../tmk_core/protocol/lufa/lufa.c ****  *     LUFA-120219/Demos/Device/Lowlevel/KeyboardMouse
   5:../../tmk_core/protocol/lufa/lufa.c ****  *     LUFA-120219/Demos/Device/Lowlevel/GenericHID
   6:../../tmk_core/protocol/lufa/lufa.c ****  */
   7:../../tmk_core/protocol/lufa/lufa.c **** 
   8:../../tmk_core/protocol/lufa/lufa.c **** /*
   9:../../tmk_core/protocol/lufa/lufa.c ****              LUFA Library
  10:../../tmk_core/protocol/lufa/lufa.c ****      Copyright (C) Dean Camera, 2012.
  11:../../tmk_core/protocol/lufa/lufa.c **** 
  12:../../tmk_core/protocol/lufa/lufa.c ****   dean [at] fourwalledcubicle [dot] com
  13:../../tmk_core/protocol/lufa/lufa.c ****            www.lufa-lib.org
  14:../../tmk_core/protocol/lufa/lufa.c **** */
  15:../../tmk_core/protocol/lufa/lufa.c **** 
  16:../../tmk_core/protocol/lufa/lufa.c **** /*
  17:../../tmk_core/protocol/lufa/lufa.c ****   Copyright 2012  Dean Camera (dean [at] fourwalledcubicle [dot] com)
  18:../../tmk_core/protocol/lufa/lufa.c ****   Copyright 2010  Denver Gingerich (denver [at] ossguy [dot] com)
  19:../../tmk_core/protocol/lufa/lufa.c **** 
  20:../../tmk_core/protocol/lufa/lufa.c ****   Permission to use, copy, modify, distribute, and sell this
  21:../../tmk_core/protocol/lufa/lufa.c ****   software and its documentation for any purpose is hereby granted
  22:../../tmk_core/protocol/lufa/lufa.c ****   without fee, provided that the above copyright notice appear in
  23:../../tmk_core/protocol/lufa/lufa.c ****   all copies and that both that the copyright notice and this
  24:../../tmk_core/protocol/lufa/lufa.c ****   permission notice and warranty disclaimer appear in supporting
  25:../../tmk_core/protocol/lufa/lufa.c ****   documentation, and that the name of the author not be used in
  26:../../tmk_core/protocol/lufa/lufa.c ****   advertising or publicity pertaining to distribution of the
  27:../../tmk_core/protocol/lufa/lufa.c ****   software without specific, written prior permission.
  28:../../tmk_core/protocol/lufa/lufa.c **** 
  29:../../tmk_core/protocol/lufa/lufa.c ****   The author disclaim all warranties with regard to this
  30:../../tmk_core/protocol/lufa/lufa.c ****   software, including all implied warranties of merchantability
  31:../../tmk_core/protocol/lufa/lufa.c ****   and fitness.  In no event shall the author be liable for any
  32:../../tmk_core/protocol/lufa/lufa.c ****   special, indirect or consequential damages or any damages
  33:../../tmk_core/protocol/lufa/lufa.c ****   whatsoever resulting from loss of use, data or profits, whether
  34:../../tmk_core/protocol/lufa/lufa.c ****   in an action of contract, negligence or other tortious action,
  35:../../tmk_core/protocol/lufa/lufa.c ****   arising out of or in connection with the use or performance of
  36:../../tmk_core/protocol/lufa/lufa.c ****   this software.
  37:../../tmk_core/protocol/lufa/lufa.c **** */
  38:../../tmk_core/protocol/lufa/lufa.c **** 
  39:../../tmk_core/protocol/lufa/lufa.c **** #include "report.h"
  40:../../tmk_core/protocol/lufa/lufa.c **** #include "host.h"
  41:../../tmk_core/protocol/lufa/lufa.c **** #include "host_driver.h"
  42:../../tmk_core/protocol/lufa/lufa.c **** #include "keyboard.h"
  43:../../tmk_core/protocol/lufa/lufa.c **** #include "action.h"
  44:../../tmk_core/protocol/lufa/lufa.c **** #include "led.h"
  45:../../tmk_core/protocol/lufa/lufa.c **** #include "sendchar.h"
  46:../../tmk_core/protocol/lufa/lufa.c **** #include "ringbuf.h"
  47:../../tmk_core/protocol/lufa/lufa.c **** #include "debug.h"
  48:../../tmk_core/protocol/lufa/lufa.c **** #ifdef SLEEP_LED_ENABLE
  49:../../tmk_core/protocol/lufa/lufa.c **** #include "sleep_led.h"
  50:../../tmk_core/protocol/lufa/lufa.c **** #endif
  51:../../tmk_core/protocol/lufa/lufa.c **** #include "suspend.h"
  52:../../tmk_core/protocol/lufa/lufa.c **** #include "hook.h"
  53:../../tmk_core/protocol/lufa/lufa.c **** #include "timer.h"
  54:../../tmk_core/protocol/lufa/lufa.c **** 
  55:../../tmk_core/protocol/lufa/lufa.c **** #ifdef TMK_LUFA_DEBUG_SUART
  56:../../tmk_core/protocol/lufa/lufa.c **** #include "avr/suart.h"
  57:../../tmk_core/protocol/lufa/lufa.c **** #endif
  58:../../tmk_core/protocol/lufa/lufa.c **** 
  59:../../tmk_core/protocol/lufa/lufa.c **** #ifdef TMK_LUFA_DEBUG_UART
  60:../../tmk_core/protocol/lufa/lufa.c **** #include "uart.h"
  61:../../tmk_core/protocol/lufa/lufa.c **** #endif
  62:../../tmk_core/protocol/lufa/lufa.c **** 
  63:../../tmk_core/protocol/lufa/lufa.c **** #include "matrix.h"
  64:../../tmk_core/protocol/lufa/lufa.c **** #include "descriptor.h"
  65:../../tmk_core/protocol/lufa/lufa.c **** #include "lufa.h"
  66:../../tmk_core/protocol/lufa/lufa.c **** 
  67:../../tmk_core/protocol/lufa/lufa.c **** 
  68:../../tmk_core/protocol/lufa/lufa.c **** //#define TMK_LUFA_DEBUG
  69:../../tmk_core/protocol/lufa/lufa.c **** 
  70:../../tmk_core/protocol/lufa/lufa.c **** 
  71:../../tmk_core/protocol/lufa/lufa.c **** uint8_t keyboard_idle = 0;
  72:../../tmk_core/protocol/lufa/lufa.c **** /* 0: Boot Protocol, 1: Report Protocol(default) */
  73:../../tmk_core/protocol/lufa/lufa.c **** uint8_t keyboard_protocol = 1;
  74:../../tmk_core/protocol/lufa/lufa.c **** static uint8_t keyboard_led_stats = 0;
  75:../../tmk_core/protocol/lufa/lufa.c **** 
  76:../../tmk_core/protocol/lufa/lufa.c **** static report_keyboard_t keyboard_report_sent;
  77:../../tmk_core/protocol/lufa/lufa.c **** 
  78:../../tmk_core/protocol/lufa/lufa.c **** 
  79:../../tmk_core/protocol/lufa/lufa.c **** /* Host driver */
  80:../../tmk_core/protocol/lufa/lufa.c **** static uint8_t keyboard_leds(void);
  81:../../tmk_core/protocol/lufa/lufa.c **** static void send_keyboard(report_keyboard_t *report);
  82:../../tmk_core/protocol/lufa/lufa.c **** static void send_mouse(report_mouse_t *report);
  83:../../tmk_core/protocol/lufa/lufa.c **** static void send_system(uint16_t data);
  84:../../tmk_core/protocol/lufa/lufa.c **** static void send_consumer(uint16_t data);
  85:../../tmk_core/protocol/lufa/lufa.c **** host_driver_t lufa_driver = {
  86:../../tmk_core/protocol/lufa/lufa.c ****     keyboard_leds,
  87:../../tmk_core/protocol/lufa/lufa.c ****     send_keyboard,
  88:../../tmk_core/protocol/lufa/lufa.c ****     send_mouse,
  89:../../tmk_core/protocol/lufa/lufa.c ****     send_system,
  90:../../tmk_core/protocol/lufa/lufa.c ****     send_consumer
  91:../../tmk_core/protocol/lufa/lufa.c **** };
  92:../../tmk_core/protocol/lufa/lufa.c **** 
  93:../../tmk_core/protocol/lufa/lufa.c **** 
  94:../../tmk_core/protocol/lufa/lufa.c **** /*******************************************************************************
  95:../../tmk_core/protocol/lufa/lufa.c ****  * Console
  96:../../tmk_core/protocol/lufa/lufa.c ****  ******************************************************************************/
  97:../../tmk_core/protocol/lufa/lufa.c **** #ifdef CONSOLE_ENABLE
  98:../../tmk_core/protocol/lufa/lufa.c **** #define SENDBUF_SIZE 256
  99:../../tmk_core/protocol/lufa/lufa.c **** static uint8_t sbuf[SENDBUF_SIZE];
 100:../../tmk_core/protocol/lufa/lufa.c **** static ringbuf_t sendbuf = {
 101:../../tmk_core/protocol/lufa/lufa.c ****     .buffer = sbuf,
 102:../../tmk_core/protocol/lufa/lufa.c ****     .head = 0,
 103:../../tmk_core/protocol/lufa/lufa.c ****     .tail = 0,
 104:../../tmk_core/protocol/lufa/lufa.c ****     .size_mask = SENDBUF_SIZE - 1
 105:../../tmk_core/protocol/lufa/lufa.c **** };
 106:../../tmk_core/protocol/lufa/lufa.c **** 
 107:../../tmk_core/protocol/lufa/lufa.c **** // TODO: Around 2500ms delay often works anyhoo but proper startup would be better
 108:../../tmk_core/protocol/lufa/lufa.c **** // 1000ms delay of hid_listen affects this probably
 109:../../tmk_core/protocol/lufa/lufa.c **** /* wait for Console startup */
 110:../../tmk_core/protocol/lufa/lufa.c **** static bool console_is_ready(void)
 111:../../tmk_core/protocol/lufa/lufa.c **** {
 112:../../tmk_core/protocol/lufa/lufa.c ****     static bool hid_listen_ready = false;
 113:../../tmk_core/protocol/lufa/lufa.c ****     if (!hid_listen_ready) {
 114:../../tmk_core/protocol/lufa/lufa.c ****         if (timer_read32() < 2500)
 115:../../tmk_core/protocol/lufa/lufa.c ****             return false;
 116:../../tmk_core/protocol/lufa/lufa.c ****         hid_listen_ready = true;
 117:../../tmk_core/protocol/lufa/lufa.c ****     }
 118:../../tmk_core/protocol/lufa/lufa.c ****     return true;
 119:../../tmk_core/protocol/lufa/lufa.c **** }
 120:../../tmk_core/protocol/lufa/lufa.c **** 
 121:../../tmk_core/protocol/lufa/lufa.c **** static bool console_putc(uint8_t c)
 122:../../tmk_core/protocol/lufa/lufa.c **** {
 123:../../tmk_core/protocol/lufa/lufa.c ****     // return immediately if called while interrupt
 124:../../tmk_core/protocol/lufa/lufa.c ****     if (!(SREG & (1<<SREG_I)))
 125:../../tmk_core/protocol/lufa/lufa.c ****         goto EXIT;
 126:../../tmk_core/protocol/lufa/lufa.c **** 
 127:../../tmk_core/protocol/lufa/lufa.c ****     if (USB_DeviceState != DEVICE_STATE_Configured && !ringbuf_is_full(&sendbuf))
 128:../../tmk_core/protocol/lufa/lufa.c ****         goto EXIT;
 129:../../tmk_core/protocol/lufa/lufa.c **** 
 130:../../tmk_core/protocol/lufa/lufa.c ****     if (!console_is_ready() && !ringbuf_is_full(&sendbuf))
 131:../../tmk_core/protocol/lufa/lufa.c ****         goto EXIT;
 132:../../tmk_core/protocol/lufa/lufa.c **** 
 133:../../tmk_core/protocol/lufa/lufa.c ****     /* Data lost considerations:
 134:../../tmk_core/protocol/lufa/lufa.c ****      * 1. When buffer is full at early satage of startup, we will have to start sending
 135:../../tmk_core/protocol/lufa/lufa.c ****      * before console_is_ready() returns true. Data can be lost even if sending data
 136:../../tmk_core/protocol/lufa/lufa.c ****      * seems to be successful on USB. hid_listen on host is not ready perhaps?
 137:../../tmk_core/protocol/lufa/lufa.c ****      * Sometime first few packets are lost when buffer is full at startup.
 138:../../tmk_core/protocol/lufa/lufa.c ****      * 2. When buffer is full and USB pipe is not ready, new coming data will be lost.
 139:../../tmk_core/protocol/lufa/lufa.c ****      * 3. console_task() cannot send data in buffer while main loop is blocked.
 140:../../tmk_core/protocol/lufa/lufa.c ****      */
 141:../../tmk_core/protocol/lufa/lufa.c ****     /* retry timeout */
 142:../../tmk_core/protocol/lufa/lufa.c ****     const uint8_t CONSOLE_TIMOUT = 5;   // 1 is too small, 2 seems to be enough for Linux
 143:../../tmk_core/protocol/lufa/lufa.c ****     static uint8_t timeout = CONSOLE_TIMOUT;
 144:../../tmk_core/protocol/lufa/lufa.c ****     uint16_t prev = timer_read();
 145:../../tmk_core/protocol/lufa/lufa.c ****     bool done = false;
 146:../../tmk_core/protocol/lufa/lufa.c **** 
 147:../../tmk_core/protocol/lufa/lufa.c ****     uint8_t ep = Endpoint_GetCurrentEndpoint();
 148:../../tmk_core/protocol/lufa/lufa.c ****     Endpoint_SelectEndpoint(CONSOLE_IN_EPNUM);
 149:../../tmk_core/protocol/lufa/lufa.c **** 
 150:../../tmk_core/protocol/lufa/lufa.c **** AGAIN:
 151:../../tmk_core/protocol/lufa/lufa.c ****     if (Endpoint_IsStalled() || !Endpoint_IsEnabled() || !Endpoint_IsConfigured()) {
 152:../../tmk_core/protocol/lufa/lufa.c ****         goto EXIT_RESTORE_EP;
 153:../../tmk_core/protocol/lufa/lufa.c ****     }
 154:../../tmk_core/protocol/lufa/lufa.c **** 
 155:../../tmk_core/protocol/lufa/lufa.c ****     // write from buffer to endpoint bank
 156:../../tmk_core/protocol/lufa/lufa.c ****     while (!ringbuf_is_empty(&sendbuf) && Endpoint_IsReadWriteAllowed()) {
 157:../../tmk_core/protocol/lufa/lufa.c ****         Endpoint_Write_8(ringbuf_get(&sendbuf));
 158:../../tmk_core/protocol/lufa/lufa.c **** 
 159:../../tmk_core/protocol/lufa/lufa.c ****         // clear bank when it is full
 160:../../tmk_core/protocol/lufa/lufa.c ****         if (!Endpoint_IsReadWriteAllowed() && Endpoint_IsINReady()) {
 161:../../tmk_core/protocol/lufa/lufa.c ****             Endpoint_ClearIN();
 162:../../tmk_core/protocol/lufa/lufa.c ****             timeout = CONSOLE_TIMOUT; // re-enable retry only when host can receive
 163:../../tmk_core/protocol/lufa/lufa.c ****         }
 164:../../tmk_core/protocol/lufa/lufa.c ****     }
 165:../../tmk_core/protocol/lufa/lufa.c **** 
 166:../../tmk_core/protocol/lufa/lufa.c ****     // write c to bank directly if there is no others in buffer
 167:../../tmk_core/protocol/lufa/lufa.c ****     if (ringbuf_is_empty(&sendbuf) && Endpoint_IsReadWriteAllowed()) {
 168:../../tmk_core/protocol/lufa/lufa.c ****         Endpoint_Write_8(c);
 169:../../tmk_core/protocol/lufa/lufa.c ****         done = true;
 170:../../tmk_core/protocol/lufa/lufa.c ****     }
 171:../../tmk_core/protocol/lufa/lufa.c **** 
 172:../../tmk_core/protocol/lufa/lufa.c ****     // clear bank when there are chars in bank
 173:../../tmk_core/protocol/lufa/lufa.c ****     if (Endpoint_BytesInEndpoint() && Endpoint_IsINReady()) {
 174:../../tmk_core/protocol/lufa/lufa.c ****         // Windows needs to fill packet with 0
 175:../../tmk_core/protocol/lufa/lufa.c ****         while (Endpoint_IsReadWriteAllowed()) {
 176:../../tmk_core/protocol/lufa/lufa.c ****                 Endpoint_Write_8(0);
 177:../../tmk_core/protocol/lufa/lufa.c ****         }
 178:../../tmk_core/protocol/lufa/lufa.c ****         Endpoint_ClearIN();
 179:../../tmk_core/protocol/lufa/lufa.c ****         timeout = CONSOLE_TIMOUT; // re-enable retry only when host can receive
 180:../../tmk_core/protocol/lufa/lufa.c ****     }
 181:../../tmk_core/protocol/lufa/lufa.c **** 
 182:../../tmk_core/protocol/lufa/lufa.c ****     if (done) {
 183:../../tmk_core/protocol/lufa/lufa.c ****         Endpoint_SelectEndpoint(ep);
 184:../../tmk_core/protocol/lufa/lufa.c ****         return true;
 185:../../tmk_core/protocol/lufa/lufa.c ****     }
 186:../../tmk_core/protocol/lufa/lufa.c **** 
 187:../../tmk_core/protocol/lufa/lufa.c ****     /* retry when buffer is full.
 188:../../tmk_core/protocol/lufa/lufa.c ****      * once timeout this is disabled until host receives actually,
 189:../../tmk_core/protocol/lufa/lufa.c ****      * otherwise this will block or make main loop execution sluggish.
 190:../../tmk_core/protocol/lufa/lufa.c ****      */
 191:../../tmk_core/protocol/lufa/lufa.c ****     if (ringbuf_is_full(&sendbuf) && timeout) {
 192:../../tmk_core/protocol/lufa/lufa.c ****         uint16_t curr = timer_read();
 193:../../tmk_core/protocol/lufa/lufa.c ****         if (curr != prev) {
 194:../../tmk_core/protocol/lufa/lufa.c ****             timeout--;
 195:../../tmk_core/protocol/lufa/lufa.c ****             prev = curr;
 196:../../tmk_core/protocol/lufa/lufa.c ****         }
 197:../../tmk_core/protocol/lufa/lufa.c ****         goto AGAIN;
 198:../../tmk_core/protocol/lufa/lufa.c ****     }
 199:../../tmk_core/protocol/lufa/lufa.c **** 
 200:../../tmk_core/protocol/lufa/lufa.c **** EXIT_RESTORE_EP:
 201:../../tmk_core/protocol/lufa/lufa.c ****     Endpoint_SelectEndpoint(ep);
 202:../../tmk_core/protocol/lufa/lufa.c **** EXIT:
 203:../../tmk_core/protocol/lufa/lufa.c ****     return ringbuf_put(&sendbuf, c);
 204:../../tmk_core/protocol/lufa/lufa.c **** }
 205:../../tmk_core/protocol/lufa/lufa.c **** 
 206:../../tmk_core/protocol/lufa/lufa.c **** static void console_flush(void)
 207:../../tmk_core/protocol/lufa/lufa.c **** {
 208:../../tmk_core/protocol/lufa/lufa.c ****     if (!console_is_ready())
 209:../../tmk_core/protocol/lufa/lufa.c ****         return;
 210:../../tmk_core/protocol/lufa/lufa.c **** 
 211:../../tmk_core/protocol/lufa/lufa.c ****     if (USB_DeviceState != DEVICE_STATE_Configured)
 212:../../tmk_core/protocol/lufa/lufa.c ****         return;
 213:../../tmk_core/protocol/lufa/lufa.c **** 
 214:../../tmk_core/protocol/lufa/lufa.c ****     uint8_t ep = Endpoint_GetCurrentEndpoint();
 215:../../tmk_core/protocol/lufa/lufa.c **** 
 216:../../tmk_core/protocol/lufa/lufa.c ****     Endpoint_SelectEndpoint(CONSOLE_IN_EPNUM);
 217:../../tmk_core/protocol/lufa/lufa.c ****     if (!Endpoint_IsEnabled() || !Endpoint_IsConfigured()) {
 218:../../tmk_core/protocol/lufa/lufa.c ****         Endpoint_SelectEndpoint(ep);
 219:../../tmk_core/protocol/lufa/lufa.c ****         return;
 220:../../tmk_core/protocol/lufa/lufa.c ****     }
 221:../../tmk_core/protocol/lufa/lufa.c **** 
 222:../../tmk_core/protocol/lufa/lufa.c ****     // write from buffer to endpoint bank
 223:../../tmk_core/protocol/lufa/lufa.c ****     while (!ringbuf_is_empty(&sendbuf) && Endpoint_IsReadWriteAllowed()) {
 224:../../tmk_core/protocol/lufa/lufa.c ****         Endpoint_Write_8(ringbuf_get(&sendbuf));
 225:../../tmk_core/protocol/lufa/lufa.c **** 
 226:../../tmk_core/protocol/lufa/lufa.c ****         // clear bank when it is full
 227:../../tmk_core/protocol/lufa/lufa.c ****         if (!Endpoint_IsReadWriteAllowed() && Endpoint_IsINReady()) {
 228:../../tmk_core/protocol/lufa/lufa.c ****             Endpoint_ClearIN();
 229:../../tmk_core/protocol/lufa/lufa.c ****         }
 230:../../tmk_core/protocol/lufa/lufa.c ****     }
 231:../../tmk_core/protocol/lufa/lufa.c **** 
 232:../../tmk_core/protocol/lufa/lufa.c ****     // clear bank when there are chars in bank
 233:../../tmk_core/protocol/lufa/lufa.c ****     if (Endpoint_BytesInEndpoint() && Endpoint_IsINReady()) {
 234:../../tmk_core/protocol/lufa/lufa.c ****         // Windows needs to fill packet with 0
 235:../../tmk_core/protocol/lufa/lufa.c ****         while (Endpoint_IsReadWriteAllowed()) {
 236:../../tmk_core/protocol/lufa/lufa.c ****                 Endpoint_Write_8(0);
 237:../../tmk_core/protocol/lufa/lufa.c ****         }
 238:../../tmk_core/protocol/lufa/lufa.c ****         Endpoint_ClearIN();
 239:../../tmk_core/protocol/lufa/lufa.c ****     }
 240:../../tmk_core/protocol/lufa/lufa.c **** 
 241:../../tmk_core/protocol/lufa/lufa.c ****     Endpoint_SelectEndpoint(ep);
 242:../../tmk_core/protocol/lufa/lufa.c **** }
 243:../../tmk_core/protocol/lufa/lufa.c **** 
 244:../../tmk_core/protocol/lufa/lufa.c **** static void console_task(void)
 245:../../tmk_core/protocol/lufa/lufa.c **** {
 246:../../tmk_core/protocol/lufa/lufa.c ****     static uint16_t fn = 0;
 247:../../tmk_core/protocol/lufa/lufa.c ****     if (fn == USB_Device_GetFrameNumber()) {
 248:../../tmk_core/protocol/lufa/lufa.c ****         return;
 249:../../tmk_core/protocol/lufa/lufa.c ****     }
 250:../../tmk_core/protocol/lufa/lufa.c ****     fn = USB_Device_GetFrameNumber();
 251:../../tmk_core/protocol/lufa/lufa.c ****     console_flush();
 252:../../tmk_core/protocol/lufa/lufa.c **** }
 253:../../tmk_core/protocol/lufa/lufa.c **** #endif
 254:../../tmk_core/protocol/lufa/lufa.c **** 
 255:../../tmk_core/protocol/lufa/lufa.c **** 
 256:../../tmk_core/protocol/lufa/lufa.c **** /*******************************************************************************
 257:../../tmk_core/protocol/lufa/lufa.c ****  * USB Events
 258:../../tmk_core/protocol/lufa/lufa.c ****  ******************************************************************************/
 259:../../tmk_core/protocol/lufa/lufa.c **** /*
 260:../../tmk_core/protocol/lufa/lufa.c ****  * Event Order of Plug in:
 261:../../tmk_core/protocol/lufa/lufa.c ****  * 0) EVENT_USB_Device_Connect
 262:../../tmk_core/protocol/lufa/lufa.c ****  * 1) EVENT_USB_Device_Suspend
 263:../../tmk_core/protocol/lufa/lufa.c ****  * 2) EVENT_USB_Device_Reset
 264:../../tmk_core/protocol/lufa/lufa.c ****  * 3) EVENT_USB_Device_Wake
 265:../../tmk_core/protocol/lufa/lufa.c **** */
 266:../../tmk_core/protocol/lufa/lufa.c **** void EVENT_USB_Device_Connect(void)
 267:../../tmk_core/protocol/lufa/lufa.c **** {
 268:../../tmk_core/protocol/lufa/lufa.c **** #ifdef TMK_LUFA_DEBUG
 269:../../tmk_core/protocol/lufa/lufa.c ****     print("[C]");
 270:../../tmk_core/protocol/lufa/lufa.c **** #endif
 271:../../tmk_core/protocol/lufa/lufa.c ****     /* For battery powered device */
 272:../../tmk_core/protocol/lufa/lufa.c ****     if (!USB_IsInitialized) {
 273:../../tmk_core/protocol/lufa/lufa.c ****         USB_Disable();
 274:../../tmk_core/protocol/lufa/lufa.c ****         USB_Init();
 275:../../tmk_core/protocol/lufa/lufa.c ****     }
 276:../../tmk_core/protocol/lufa/lufa.c **** }
 277:../../tmk_core/protocol/lufa/lufa.c **** 
 278:../../tmk_core/protocol/lufa/lufa.c **** void EVENT_USB_Device_Disconnect(void)
 279:../../tmk_core/protocol/lufa/lufa.c **** {
 280:../../tmk_core/protocol/lufa/lufa.c **** #ifdef TMK_LUFA_DEBUG
 281:../../tmk_core/protocol/lufa/lufa.c ****     print("[D]");
 282:../../tmk_core/protocol/lufa/lufa.c **** #endif
 283:../../tmk_core/protocol/lufa/lufa.c ****     /* For battery powered device */
 284:../../tmk_core/protocol/lufa/lufa.c ****     USB_IsInitialized = false;
 285:../../tmk_core/protocol/lufa/lufa.c **** /* TODO: This doesn't work. After several plug in/outs can not be enumerated.
 286:../../tmk_core/protocol/lufa/lufa.c ****     if (USB_IsInitialized) {
 287:../../tmk_core/protocol/lufa/lufa.c ****         USB_Disable();  // Disable all interrupts
 288:../../tmk_core/protocol/lufa/lufa.c **** 	USB_Controller_Enable();
 289:../../tmk_core/protocol/lufa/lufa.c ****         USB_INT_Enable(USB_INT_VBUSTI);
 290:../../tmk_core/protocol/lufa/lufa.c ****     }
 291:../../tmk_core/protocol/lufa/lufa.c **** */
 292:../../tmk_core/protocol/lufa/lufa.c **** }
 293:../../tmk_core/protocol/lufa/lufa.c **** 
 294:../../tmk_core/protocol/lufa/lufa.c **** void EVENT_USB_Device_Reset(void)
 295:../../tmk_core/protocol/lufa/lufa.c **** {
 296:../../tmk_core/protocol/lufa/lufa.c **** #ifdef TMK_LUFA_DEBUG
 297:../../tmk_core/protocol/lufa/lufa.c ****     print("[R]");
 298:../../tmk_core/protocol/lufa/lufa.c **** #endif
 299:../../tmk_core/protocol/lufa/lufa.c **** }
 300:../../tmk_core/protocol/lufa/lufa.c **** 
 301:../../tmk_core/protocol/lufa/lufa.c **** void EVENT_USB_Device_Suspend()
 302:../../tmk_core/protocol/lufa/lufa.c **** {
 303:../../tmk_core/protocol/lufa/lufa.c **** #ifdef TMK_LUFA_DEBUG
 304:../../tmk_core/protocol/lufa/lufa.c ****     print("[S]");
 305:../../tmk_core/protocol/lufa/lufa.c **** #endif
 306:../../tmk_core/protocol/lufa/lufa.c ****     hook_usb_suspend_entry();
 307:../../tmk_core/protocol/lufa/lufa.c **** }
 308:../../tmk_core/protocol/lufa/lufa.c **** 
 309:../../tmk_core/protocol/lufa/lufa.c **** void EVENT_USB_Device_WakeUp()
 310:../../tmk_core/protocol/lufa/lufa.c **** {
 311:../../tmk_core/protocol/lufa/lufa.c **** #ifdef TMK_LUFA_DEBUG
 312:../../tmk_core/protocol/lufa/lufa.c ****     print("[W]");
 313:../../tmk_core/protocol/lufa/lufa.c **** #endif
 314:../../tmk_core/protocol/lufa/lufa.c ****     hook_usb_wakeup();
 315:../../tmk_core/protocol/lufa/lufa.c **** }
 316:../../tmk_core/protocol/lufa/lufa.c **** 
 317:../../tmk_core/protocol/lufa/lufa.c **** /** Event handler for the USB_ConfigurationChanged event.
 318:../../tmk_core/protocol/lufa/lufa.c ****  * This is fired when the host sets the current configuration of the USB device after enumeration.
 319:../../tmk_core/protocol/lufa/lufa.c ****  *
 320:../../tmk_core/protocol/lufa/lufa.c ****  * ATMega32u2 supports dual bank(ping-pong mode) only on endpoint 3 and 4,
 321:../../tmk_core/protocol/lufa/lufa.c ****  * it is safe to use singl bank for all endpoints.
 322:../../tmk_core/protocol/lufa/lufa.c ****  */
 323:../../tmk_core/protocol/lufa/lufa.c **** void EVENT_USB_Device_ConfigurationChanged(void)
 324:../../tmk_core/protocol/lufa/lufa.c **** {
 325:../../tmk_core/protocol/lufa/lufa.c **** #ifdef TMK_LUFA_DEBUG
 326:../../tmk_core/protocol/lufa/lufa.c ****     print("[c]");
 327:../../tmk_core/protocol/lufa/lufa.c **** #endif
 328:../../tmk_core/protocol/lufa/lufa.c ****     bool ConfigSuccess = true;
 329:../../tmk_core/protocol/lufa/lufa.c **** 
 330:../../tmk_core/protocol/lufa/lufa.c ****     /* Setup Keyboard HID Report Endpoints */
 331:../../tmk_core/protocol/lufa/lufa.c ****     ConfigSuccess &= ENDPOINT_CONFIG(KEYBOARD_IN_EPNUM, EP_TYPE_INTERRUPT, ENDPOINT_DIR_IN,
 332:../../tmk_core/protocol/lufa/lufa.c ****                                      KEYBOARD_EPSIZE, ENDPOINT_BANK_SINGLE);
 333:../../tmk_core/protocol/lufa/lufa.c **** 
 334:../../tmk_core/protocol/lufa/lufa.c **** #ifdef MOUSE_ENABLE
 335:../../tmk_core/protocol/lufa/lufa.c ****     /* Setup Mouse HID Report Endpoint */
 336:../../tmk_core/protocol/lufa/lufa.c ****     ConfigSuccess &= ENDPOINT_CONFIG(MOUSE_IN_EPNUM, EP_TYPE_INTERRUPT, ENDPOINT_DIR_IN,
 337:../../tmk_core/protocol/lufa/lufa.c ****                                      MOUSE_EPSIZE, ENDPOINT_BANK_SINGLE);
 338:../../tmk_core/protocol/lufa/lufa.c **** #endif
 339:../../tmk_core/protocol/lufa/lufa.c **** 
 340:../../tmk_core/protocol/lufa/lufa.c **** #ifdef EXTRAKEY_ENABLE
 341:../../tmk_core/protocol/lufa/lufa.c ****     /* Setup Extra HID Report Endpoint */
 342:../../tmk_core/protocol/lufa/lufa.c ****     ConfigSuccess &= ENDPOINT_CONFIG(EXTRAKEY_IN_EPNUM, EP_TYPE_INTERRUPT, ENDPOINT_DIR_IN,
 343:../../tmk_core/protocol/lufa/lufa.c ****                                      EXTRAKEY_EPSIZE, ENDPOINT_BANK_SINGLE);
 344:../../tmk_core/protocol/lufa/lufa.c **** #endif
 345:../../tmk_core/protocol/lufa/lufa.c **** 
 346:../../tmk_core/protocol/lufa/lufa.c **** #ifdef CONSOLE_ENABLE
 347:../../tmk_core/protocol/lufa/lufa.c ****     /* Setup Console HID Report Endpoints */
 348:../../tmk_core/protocol/lufa/lufa.c ****     ConfigSuccess &= ENDPOINT_CONFIG(CONSOLE_IN_EPNUM, EP_TYPE_INTERRUPT, ENDPOINT_DIR_IN,
 349:../../tmk_core/protocol/lufa/lufa.c ****                                      CONSOLE_EPSIZE, ENDPOINT_BANK_SINGLE);
 350:../../tmk_core/protocol/lufa/lufa.c **** #if 0
 351:../../tmk_core/protocol/lufa/lufa.c ****     ConfigSuccess &= ENDPOINT_CONFIG(CONSOLE_OUT_EPNUM, EP_TYPE_INTERRUPT, ENDPOINT_DIR_OUT,
 352:../../tmk_core/protocol/lufa/lufa.c ****                                      CONSOLE_EPSIZE, ENDPOINT_BANK_SINGLE);
 353:../../tmk_core/protocol/lufa/lufa.c **** #endif
 354:../../tmk_core/protocol/lufa/lufa.c **** #endif
 355:../../tmk_core/protocol/lufa/lufa.c **** 
 356:../../tmk_core/protocol/lufa/lufa.c **** #ifdef NKRO_ENABLE
 357:../../tmk_core/protocol/lufa/lufa.c ****     /* Setup NKRO HID Report Endpoints */
 358:../../tmk_core/protocol/lufa/lufa.c ****     ConfigSuccess &= ENDPOINT_CONFIG(NKRO_IN_EPNUM, EP_TYPE_INTERRUPT, ENDPOINT_DIR_IN,
 359:../../tmk_core/protocol/lufa/lufa.c ****                                      NKRO_EPSIZE, ENDPOINT_BANK_SINGLE);
 360:../../tmk_core/protocol/lufa/lufa.c **** #endif
 361:../../tmk_core/protocol/lufa/lufa.c **** }
 362:../../tmk_core/protocol/lufa/lufa.c **** 
 363:../../tmk_core/protocol/lufa/lufa.c **** /*
 364:../../tmk_core/protocol/lufa/lufa.c **** Appendix G: HID Request Support Requirements
 365:../../tmk_core/protocol/lufa/lufa.c **** 
 366:../../tmk_core/protocol/lufa/lufa.c **** The following table enumerates the requests that need to be supported by various types of HID class
 367:../../tmk_core/protocol/lufa/lufa.c **** 
 368:../../tmk_core/protocol/lufa/lufa.c **** Device type     GetReport   SetReport   GetIdle     SetIdle     GetProtocol SetProtocol
 369:../../tmk_core/protocol/lufa/lufa.c **** ------------------------------------------------------------------------------------------
 370:../../tmk_core/protocol/lufa/lufa.c **** Boot Mouse      Required    Optional    Optional    Optional    Required    Required
 371:../../tmk_core/protocol/lufa/lufa.c **** Non-Boot Mouse  Required    Optional    Optional    Optional    Optional    Optional
 372:../../tmk_core/protocol/lufa/lufa.c **** Boot Keyboard   Required    Optional    Required    Required    Required    Required
 373:../../tmk_core/protocol/lufa/lufa.c **** Non-Boot Keybrd Required    Optional    Required    Required    Optional    Optional
 374:../../tmk_core/protocol/lufa/lufa.c **** Other Device    Required    Optional    Optional    Optional    Optional    Optional
 375:../../tmk_core/protocol/lufa/lufa.c **** */
 376:../../tmk_core/protocol/lufa/lufa.c **** /** Event handler for the USB_ControlRequest event.
 377:../../tmk_core/protocol/lufa/lufa.c ****  *  This is fired before passing along unhandled control requests to the library for processing int
 378:../../tmk_core/protocol/lufa/lufa.c ****  */
 379:../../tmk_core/protocol/lufa/lufa.c **** void EVENT_USB_Device_ControlRequest(void)
 380:../../tmk_core/protocol/lufa/lufa.c **** {
 381:../../tmk_core/protocol/lufa/lufa.c ****     uint8_t* ReportData = NULL;
 382:../../tmk_core/protocol/lufa/lufa.c ****     uint8_t  ReportSize = 0;
 383:../../tmk_core/protocol/lufa/lufa.c **** 
 384:../../tmk_core/protocol/lufa/lufa.c ****     /* Handle HID Class specific requests */
 385:../../tmk_core/protocol/lufa/lufa.c ****     switch (USB_ControlRequest.bRequest)
 386:../../tmk_core/protocol/lufa/lufa.c ****     {
 387:../../tmk_core/protocol/lufa/lufa.c ****         case HID_REQ_GetReport:
 388:../../tmk_core/protocol/lufa/lufa.c ****             if (USB_ControlRequest.bmRequestType == (REQDIR_DEVICETOHOST | REQTYPE_CLASS | REQREC_I
 389:../../tmk_core/protocol/lufa/lufa.c ****             {
 390:../../tmk_core/protocol/lufa/lufa.c ****                 Endpoint_ClearSETUP();
 391:../../tmk_core/protocol/lufa/lufa.c **** 
 392:../../tmk_core/protocol/lufa/lufa.c ****                 // Interface
 393:../../tmk_core/protocol/lufa/lufa.c ****                 switch (USB_ControlRequest.wIndex) {
 394:../../tmk_core/protocol/lufa/lufa.c ****                 case KEYBOARD_INTERFACE:
 395:../../tmk_core/protocol/lufa/lufa.c ****                     // TODO: test/check
 396:../../tmk_core/protocol/lufa/lufa.c ****                     ReportData = (uint8_t*)&keyboard_report_sent;
 397:../../tmk_core/protocol/lufa/lufa.c ****                     ReportSize = sizeof(keyboard_report_sent);
 398:../../tmk_core/protocol/lufa/lufa.c ****                     break;
 399:../../tmk_core/protocol/lufa/lufa.c ****                 }
 400:../../tmk_core/protocol/lufa/lufa.c **** 
 401:../../tmk_core/protocol/lufa/lufa.c ****                 /* Write the report data to the control endpoint */
 402:../../tmk_core/protocol/lufa/lufa.c ****                 Endpoint_Write_Control_Stream_LE(ReportData, ReportSize);
 403:../../tmk_core/protocol/lufa/lufa.c ****                 Endpoint_ClearOUT();
 404:../../tmk_core/protocol/lufa/lufa.c **** #ifdef TMK_LUFA_DEBUG
 405:../../tmk_core/protocol/lufa/lufa.c ****                 xprintf("[r%d]", USB_ControlRequest.wIndex);
 406:../../tmk_core/protocol/lufa/lufa.c **** #endif
 407:../../tmk_core/protocol/lufa/lufa.c ****             }
 408:../../tmk_core/protocol/lufa/lufa.c **** 
 409:../../tmk_core/protocol/lufa/lufa.c ****             break;
 410:../../tmk_core/protocol/lufa/lufa.c ****         case HID_REQ_SetReport:
 411:../../tmk_core/protocol/lufa/lufa.c ****             if (USB_ControlRequest.bmRequestType == (REQDIR_HOSTTODEVICE | REQTYPE_CLASS | REQREC_I
 412:../../tmk_core/protocol/lufa/lufa.c ****             {
 413:../../tmk_core/protocol/lufa/lufa.c **** 
 414:../../tmk_core/protocol/lufa/lufa.c ****                 // Interface
 415:../../tmk_core/protocol/lufa/lufa.c ****                 switch (USB_ControlRequest.wIndex) {
 416:../../tmk_core/protocol/lufa/lufa.c ****                 case KEYBOARD_INTERFACE:
 417:../../tmk_core/protocol/lufa/lufa.c **** #ifdef NKRO_ENABLE
 418:../../tmk_core/protocol/lufa/lufa.c ****                 case NKRO_INTERFACE:
 419:../../tmk_core/protocol/lufa/lufa.c **** #endif
 420:../../tmk_core/protocol/lufa/lufa.c ****                     Endpoint_ClearSETUP();
 421:../../tmk_core/protocol/lufa/lufa.c **** 
 422:../../tmk_core/protocol/lufa/lufa.c ****                     while (!(Endpoint_IsOUTReceived())) {
 423:../../tmk_core/protocol/lufa/lufa.c ****                         if (USB_DeviceState == DEVICE_STATE_Unattached)
 424:../../tmk_core/protocol/lufa/lufa.c ****                           return;
 425:../../tmk_core/protocol/lufa/lufa.c ****                     }
 426:../../tmk_core/protocol/lufa/lufa.c ****                     keyboard_led_stats = Endpoint_Read_8();
 427:../../tmk_core/protocol/lufa/lufa.c **** 
 428:../../tmk_core/protocol/lufa/lufa.c ****                     Endpoint_ClearOUT();
 429:../../tmk_core/protocol/lufa/lufa.c ****                     Endpoint_ClearStatusStage();
 430:../../tmk_core/protocol/lufa/lufa.c **** #ifdef TMK_LUFA_DEBUG
 431:../../tmk_core/protocol/lufa/lufa.c ****                     xprintf("[L%d]", USB_ControlRequest.wIndex);
 432:../../tmk_core/protocol/lufa/lufa.c **** #endif
 433:../../tmk_core/protocol/lufa/lufa.c ****                     break;
 434:../../tmk_core/protocol/lufa/lufa.c ****                 }
 435:../../tmk_core/protocol/lufa/lufa.c **** 
 436:../../tmk_core/protocol/lufa/lufa.c ****             }
 437:../../tmk_core/protocol/lufa/lufa.c **** 
 438:../../tmk_core/protocol/lufa/lufa.c ****             break;
 439:../../tmk_core/protocol/lufa/lufa.c **** 
 440:../../tmk_core/protocol/lufa/lufa.c ****         case HID_REQ_GetProtocol:
 441:../../tmk_core/protocol/lufa/lufa.c ****             if (USB_ControlRequest.bmRequestType == (REQDIR_DEVICETOHOST | REQTYPE_CLASS | REQREC_I
 442:../../tmk_core/protocol/lufa/lufa.c ****             {
 443:../../tmk_core/protocol/lufa/lufa.c ****                 if (USB_ControlRequest.wIndex == KEYBOARD_INTERFACE) {
 444:../../tmk_core/protocol/lufa/lufa.c ****                     Endpoint_ClearSETUP();
 445:../../tmk_core/protocol/lufa/lufa.c ****                     while (!(Endpoint_IsINReady()));
 446:../../tmk_core/protocol/lufa/lufa.c ****                     Endpoint_Write_8(keyboard_protocol);
 447:../../tmk_core/protocol/lufa/lufa.c ****                     Endpoint_ClearIN();
 448:../../tmk_core/protocol/lufa/lufa.c ****                     Endpoint_ClearStatusStage();
 449:../../tmk_core/protocol/lufa/lufa.c **** #ifdef TMK_LUFA_DEBUG
 450:../../tmk_core/protocol/lufa/lufa.c ****                     print("[p]");
 451:../../tmk_core/protocol/lufa/lufa.c **** #endif
 452:../../tmk_core/protocol/lufa/lufa.c ****                 }
 453:../../tmk_core/protocol/lufa/lufa.c ****             }
 454:../../tmk_core/protocol/lufa/lufa.c **** 
 455:../../tmk_core/protocol/lufa/lufa.c ****             break;
 456:../../tmk_core/protocol/lufa/lufa.c ****         case HID_REQ_SetProtocol:
 457:../../tmk_core/protocol/lufa/lufa.c ****             if (USB_ControlRequest.bmRequestType == (REQDIR_HOSTTODEVICE | REQTYPE_CLASS | REQREC_I
 458:../../tmk_core/protocol/lufa/lufa.c ****             {
 459:../../tmk_core/protocol/lufa/lufa.c ****                 if (USB_ControlRequest.wIndex == KEYBOARD_INTERFACE) {
 460:../../tmk_core/protocol/lufa/lufa.c ****                     Endpoint_ClearSETUP();
 461:../../tmk_core/protocol/lufa/lufa.c ****                     Endpoint_ClearStatusStage();
 462:../../tmk_core/protocol/lufa/lufa.c **** 
 463:../../tmk_core/protocol/lufa/lufa.c ****                     keyboard_protocol = (USB_ControlRequest.wValue & 0xFF);
 464:../../tmk_core/protocol/lufa/lufa.c ****                     clear_keyboard();
 465:../../tmk_core/protocol/lufa/lufa.c **** #ifdef TMK_LUFA_DEBUG
 466:../../tmk_core/protocol/lufa/lufa.c ****                     print("[P]");
 467:../../tmk_core/protocol/lufa/lufa.c **** #endif
 468:../../tmk_core/protocol/lufa/lufa.c ****                 }
 469:../../tmk_core/protocol/lufa/lufa.c ****             }
 470:../../tmk_core/protocol/lufa/lufa.c **** 
 471:../../tmk_core/protocol/lufa/lufa.c ****             break;
 472:../../tmk_core/protocol/lufa/lufa.c ****         case HID_REQ_SetIdle:
 473:../../tmk_core/protocol/lufa/lufa.c ****             if (USB_ControlRequest.bmRequestType == (REQDIR_HOSTTODEVICE | REQTYPE_CLASS | REQREC_I
 474:../../tmk_core/protocol/lufa/lufa.c ****             {
 475:../../tmk_core/protocol/lufa/lufa.c ****                 Endpoint_ClearSETUP();
 476:../../tmk_core/protocol/lufa/lufa.c ****                 Endpoint_ClearStatusStage();
 477:../../tmk_core/protocol/lufa/lufa.c **** 
 478:../../tmk_core/protocol/lufa/lufa.c ****                 keyboard_idle = ((USB_ControlRequest.wValue & 0xFF00) >> 8);
 479:../../tmk_core/protocol/lufa/lufa.c **** #ifdef TMK_LUFA_DEBUG
 480:../../tmk_core/protocol/lufa/lufa.c ****                 xprintf("[I%d]%d", USB_ControlRequest.wIndex, (USB_ControlRequest.wValue & 0xFF00) 
 481:../../tmk_core/protocol/lufa/lufa.c **** #endif
 482:../../tmk_core/protocol/lufa/lufa.c ****             }
 483:../../tmk_core/protocol/lufa/lufa.c **** 
 484:../../tmk_core/protocol/lufa/lufa.c ****             break;
 485:../../tmk_core/protocol/lufa/lufa.c ****         case HID_REQ_GetIdle:
 486:../../tmk_core/protocol/lufa/lufa.c ****             if (USB_ControlRequest.bmRequestType == (REQDIR_DEVICETOHOST | REQTYPE_CLASS | REQREC_I
 487:../../tmk_core/protocol/lufa/lufa.c ****             {
 488:../../tmk_core/protocol/lufa/lufa.c ****                 Endpoint_ClearSETUP();
 489:../../tmk_core/protocol/lufa/lufa.c ****                 while (!(Endpoint_IsINReady()));
 490:../../tmk_core/protocol/lufa/lufa.c ****                 Endpoint_Write_8(keyboard_idle);
 491:../../tmk_core/protocol/lufa/lufa.c ****                 Endpoint_ClearIN();
 492:../../tmk_core/protocol/lufa/lufa.c ****                 Endpoint_ClearStatusStage();
 493:../../tmk_core/protocol/lufa/lufa.c **** #ifdef TMK_LUFA_DEBUG
 494:../../tmk_core/protocol/lufa/lufa.c ****                 print("[i]");
 495:../../tmk_core/protocol/lufa/lufa.c **** #endif
 496:../../tmk_core/protocol/lufa/lufa.c ****             }
 497:../../tmk_core/protocol/lufa/lufa.c **** 
 498:../../tmk_core/protocol/lufa/lufa.c ****             break;
 499:../../tmk_core/protocol/lufa/lufa.c ****     }
 500:../../tmk_core/protocol/lufa/lufa.c **** }
 501:../../tmk_core/protocol/lufa/lufa.c **** 
 502:../../tmk_core/protocol/lufa/lufa.c **** /*******************************************************************************
 503:../../tmk_core/protocol/lufa/lufa.c ****  * Host driver
 504:../../tmk_core/protocol/lufa/lufa.c ****  ******************************************************************************/
 505:../../tmk_core/protocol/lufa/lufa.c **** static uint8_t keyboard_leds(void)
 506:../../tmk_core/protocol/lufa/lufa.c **** {
  15               		.loc 1 506 1 view -0
  16               		.cfi_startproc
  17               	/* prologue: function */
  18               	/* frame size = 0 */
  19               	/* stack size = 0 */
  20               	.L__stack_usage = 0
 507:../../tmk_core/protocol/lufa/lufa.c ****     return keyboard_led_stats;
  21               		.loc 1 507 5 view .LVU1
 508:../../tmk_core/protocol/lufa/lufa.c **** }
  22               		.loc 1 508 1 is_stmt 0 view .LVU2
  23 0000 8091 0000 		lds r24,keyboard_led_stats
  24               	/* epilogue start */
  25 0004 0895      		ret
  26               		.cfi_endproc
  27               	.LFE126:
  29               		.section	.text.send_consumer,"ax",@progbits
  31               	send_consumer:
  32               	.LVL0:
  33               	.LFB130:
 509:../../tmk_core/protocol/lufa/lufa.c **** 
 510:../../tmk_core/protocol/lufa/lufa.c **** static void send_keyboard(report_keyboard_t *report)
 511:../../tmk_core/protocol/lufa/lufa.c **** {
 512:../../tmk_core/protocol/lufa/lufa.c ****     uint8_t timeout = 128;
 513:../../tmk_core/protocol/lufa/lufa.c **** 
 514:../../tmk_core/protocol/lufa/lufa.c ****     if (USB_DeviceState != DEVICE_STATE_Configured)
 515:../../tmk_core/protocol/lufa/lufa.c ****         return;
 516:../../tmk_core/protocol/lufa/lufa.c **** 
 517:../../tmk_core/protocol/lufa/lufa.c ****     /* Select the Keyboard Report Endpoint */
 518:../../tmk_core/protocol/lufa/lufa.c **** #ifdef NKRO_ENABLE
 519:../../tmk_core/protocol/lufa/lufa.c ****     if (keyboard_protocol && keyboard_nkro) {
 520:../../tmk_core/protocol/lufa/lufa.c ****         /* Report protocol - NKRO */
 521:../../tmk_core/protocol/lufa/lufa.c ****         Endpoint_SelectEndpoint(NKRO_IN_EPNUM);
 522:../../tmk_core/protocol/lufa/lufa.c **** 
 523:../../tmk_core/protocol/lufa/lufa.c ****         /* Check if write ready for a polling interval around 1ms */
 524:../../tmk_core/protocol/lufa/lufa.c ****         while (timeout-- && !Endpoint_IsReadWriteAllowed()) _delay_us(8);
 525:../../tmk_core/protocol/lufa/lufa.c ****         if (!Endpoint_IsReadWriteAllowed()) return;
 526:../../tmk_core/protocol/lufa/lufa.c **** 
 527:../../tmk_core/protocol/lufa/lufa.c ****         /* Write Keyboard Report Data */
 528:../../tmk_core/protocol/lufa/lufa.c ****         Endpoint_Write_Stream_LE(report, NKRO_EPSIZE, NULL);
 529:../../tmk_core/protocol/lufa/lufa.c ****     }
 530:../../tmk_core/protocol/lufa/lufa.c ****     else
 531:../../tmk_core/protocol/lufa/lufa.c **** #endif
 532:../../tmk_core/protocol/lufa/lufa.c ****     {
 533:../../tmk_core/protocol/lufa/lufa.c ****         /* Boot protocol */
 534:../../tmk_core/protocol/lufa/lufa.c ****         Endpoint_SelectEndpoint(KEYBOARD_IN_EPNUM);
 535:../../tmk_core/protocol/lufa/lufa.c **** 
 536:../../tmk_core/protocol/lufa/lufa.c ****         /* Check if write ready for a polling interval around 10ms */
 537:../../tmk_core/protocol/lufa/lufa.c ****         while (timeout-- && !Endpoint_IsReadWriteAllowed()) _delay_us(80);
 538:../../tmk_core/protocol/lufa/lufa.c ****         if (!Endpoint_IsReadWriteAllowed()) return;
 539:../../tmk_core/protocol/lufa/lufa.c **** 
 540:../../tmk_core/protocol/lufa/lufa.c ****         /* Write Keyboard Report Data */
 541:../../tmk_core/protocol/lufa/lufa.c ****         Endpoint_Write_Stream_LE(report, KEYBOARD_EPSIZE, NULL);
 542:../../tmk_core/protocol/lufa/lufa.c ****     }
 543:../../tmk_core/protocol/lufa/lufa.c **** 
 544:../../tmk_core/protocol/lufa/lufa.c ****     /* Finalize the stream transfer to send the last packet */
 545:../../tmk_core/protocol/lufa/lufa.c ****     Endpoint_ClearIN();
 546:../../tmk_core/protocol/lufa/lufa.c **** 
 547:../../tmk_core/protocol/lufa/lufa.c ****     keyboard_report_sent = *report;
 548:../../tmk_core/protocol/lufa/lufa.c **** }
 549:../../tmk_core/protocol/lufa/lufa.c **** 
 550:../../tmk_core/protocol/lufa/lufa.c **** static void send_mouse(report_mouse_t *report)
 551:../../tmk_core/protocol/lufa/lufa.c **** {
 552:../../tmk_core/protocol/lufa/lufa.c **** #ifdef MOUSE_ENABLE
 553:../../tmk_core/protocol/lufa/lufa.c ****     uint8_t timeout = 255;
 554:../../tmk_core/protocol/lufa/lufa.c **** 
 555:../../tmk_core/protocol/lufa/lufa.c ****     if (USB_DeviceState != DEVICE_STATE_Configured)
 556:../../tmk_core/protocol/lufa/lufa.c ****         return;
 557:../../tmk_core/protocol/lufa/lufa.c **** 
 558:../../tmk_core/protocol/lufa/lufa.c ****     /* Select the Mouse Report Endpoint */
 559:../../tmk_core/protocol/lufa/lufa.c ****     Endpoint_SelectEndpoint(MOUSE_IN_EPNUM);
 560:../../tmk_core/protocol/lufa/lufa.c **** 
 561:../../tmk_core/protocol/lufa/lufa.c ****     /* Check if write ready for a polling interval around 10ms */
 562:../../tmk_core/protocol/lufa/lufa.c ****     while (timeout-- && !Endpoint_IsReadWriteAllowed()) _delay_us(40);
 563:../../tmk_core/protocol/lufa/lufa.c ****     if (!Endpoint_IsReadWriteAllowed()) return;
 564:../../tmk_core/protocol/lufa/lufa.c **** 
 565:../../tmk_core/protocol/lufa/lufa.c ****     /* Write Mouse Report Data */
 566:../../tmk_core/protocol/lufa/lufa.c ****     Endpoint_Write_Stream_LE(report, sizeof(report_mouse_t), NULL);
 567:../../tmk_core/protocol/lufa/lufa.c **** 
 568:../../tmk_core/protocol/lufa/lufa.c ****     /* Finalize the stream transfer to send the last packet */
 569:../../tmk_core/protocol/lufa/lufa.c ****     Endpoint_ClearIN();
 570:../../tmk_core/protocol/lufa/lufa.c **** #endif
 571:../../tmk_core/protocol/lufa/lufa.c **** }
 572:../../tmk_core/protocol/lufa/lufa.c **** 
 573:../../tmk_core/protocol/lufa/lufa.c **** static void send_system(uint16_t data)
 574:../../tmk_core/protocol/lufa/lufa.c **** {
 575:../../tmk_core/protocol/lufa/lufa.c **** #ifdef EXTRAKEY_ENABLE
 576:../../tmk_core/protocol/lufa/lufa.c ****     uint8_t timeout = 255;
 577:../../tmk_core/protocol/lufa/lufa.c **** 
 578:../../tmk_core/protocol/lufa/lufa.c ****     if (USB_DeviceState != DEVICE_STATE_Configured)
 579:../../tmk_core/protocol/lufa/lufa.c ****         return;
 580:../../tmk_core/protocol/lufa/lufa.c **** 
 581:../../tmk_core/protocol/lufa/lufa.c ****     report_extra_t r = {
 582:../../tmk_core/protocol/lufa/lufa.c ****         .report_id = REPORT_ID_SYSTEM,
 583:../../tmk_core/protocol/lufa/lufa.c ****         .usage = data - SYSTEM_POWER_DOWN + 1
 584:../../tmk_core/protocol/lufa/lufa.c ****     };
 585:../../tmk_core/protocol/lufa/lufa.c ****     Endpoint_SelectEndpoint(EXTRAKEY_IN_EPNUM);
 586:../../tmk_core/protocol/lufa/lufa.c **** 
 587:../../tmk_core/protocol/lufa/lufa.c ****     /* Check if write ready for a polling interval around 10ms */
 588:../../tmk_core/protocol/lufa/lufa.c ****     while (timeout-- && !Endpoint_IsReadWriteAllowed()) _delay_us(40);
 589:../../tmk_core/protocol/lufa/lufa.c ****     if (!Endpoint_IsReadWriteAllowed()) return;
 590:../../tmk_core/protocol/lufa/lufa.c **** 
 591:../../tmk_core/protocol/lufa/lufa.c ****     Endpoint_Write_Stream_LE(&r, sizeof(report_extra_t), NULL);
 592:../../tmk_core/protocol/lufa/lufa.c ****     Endpoint_ClearIN();
 593:../../tmk_core/protocol/lufa/lufa.c **** #endif
 594:../../tmk_core/protocol/lufa/lufa.c **** }
 595:../../tmk_core/protocol/lufa/lufa.c **** 
 596:../../tmk_core/protocol/lufa/lufa.c **** static void send_consumer(uint16_t data)
 597:../../tmk_core/protocol/lufa/lufa.c **** {
  34               		.loc 1 597 1 is_stmt 1 view -0
  35               		.cfi_startproc
  36               		.loc 1 597 1 is_stmt 0 view .LVU4
  37 0000 CF93      		push r28
  38               	.LCFI0:
  39               		.cfi_def_cfa_offset 3
  40               		.cfi_offset 28, -2
  41 0002 DF93      		push r29
  42               	.LCFI1:
  43               		.cfi_def_cfa_offset 4
  44               		.cfi_offset 29, -3
  45 0004 00D0      		rcall .
  46 0006 0F92      		push __tmp_reg__
  47               	.LCFI2:
  48               		.cfi_def_cfa_offset 7
  49 0008 CDB7      		in r28,__SP_L__
  50 000a DEB7      		in r29,__SP_H__
  51               	.LCFI3:
  52               		.cfi_def_cfa_register 28
  53               	/* prologue: function */
  54               	/* frame size = 3 */
  55               	/* stack size = 5 */
  56               	.L__stack_usage = 5
  57 000c 9C01      		movw r18,r24
 598:../../tmk_core/protocol/lufa/lufa.c **** #ifdef EXTRAKEY_ENABLE
 599:../../tmk_core/protocol/lufa/lufa.c ****     uint8_t timeout = 255;
  58               		.loc 1 599 5 is_stmt 1 view .LVU5
  59               	.LVL1:
 600:../../tmk_core/protocol/lufa/lufa.c **** 
 601:../../tmk_core/protocol/lufa/lufa.c ****     if (USB_DeviceState != DEVICE_STATE_Configured)
  60               		.loc 1 601 5 view .LVU6
  61               		.loc 1 601 25 is_stmt 0 view .LVU7
  62 000e 8091 0000 		lds r24,USB_DeviceState
  63               	.LVL2:
  64               		.loc 1 601 8 view .LVU8
  65 0012 8430      		cpi r24,lo8(4)
  66 0014 01F4      		brne .L2
 602:../../tmk_core/protocol/lufa/lufa.c ****         return;
 603:../../tmk_core/protocol/lufa/lufa.c **** 
 604:../../tmk_core/protocol/lufa/lufa.c ****     report_extra_t r = {
  67               		.loc 1 604 5 is_stmt 1 view .LVU9
  68               		.loc 1 604 20 is_stmt 0 view .LVU10
  69 0016 93E0      		ldi r25,lo8(3)
  70 0018 9983      		std Y+1,r25
  71 001a 3B83      		std Y+3,r19
  72 001c 2A83      		std Y+2,r18
 605:../../tmk_core/protocol/lufa/lufa.c ****         .report_id = REPORT_ID_CONSUMER,
 606:../../tmk_core/protocol/lufa/lufa.c ****         .usage = data
 607:../../tmk_core/protocol/lufa/lufa.c ****     };
 608:../../tmk_core/protocol/lufa/lufa.c ****     Endpoint_SelectEndpoint(EXTRAKEY_IN_EPNUM);
  73               		.loc 1 608 5 is_stmt 1 view .LVU11
  74               	.LVL3:
  75               	.LBB275:
  76               	.LBI275:
  77               		.file 2 "../../tmk_core/protocol/lufa/lufa-abcminiuser/LUFA/Drivers/USB/Core/AVR8/../AVR8/Endpoint
   1:../../tmk_core/protocol/lufa/lufa-abcminiuser/LUFA/Drivers/USB/Core/AVR8/../AVR8/Endpoint_AVR8.h **** /*
   2:../../tmk_core/protocol/lufa/lufa-abcminiuser/LUFA/Drivers/USB/Core/AVR8/../AVR8/Endpoint_AVR8.h ****              LUFA Library
   3:../../tmk_core/protocol/lufa/lufa-abcminiuser/LUFA/Drivers/USB/Core/AVR8/../AVR8/Endpoint_AVR8.h ****      Copyright (C) Dean Camera, 2019.
   4:../../tmk_core/protocol/lufa/lufa-abcminiuser/LUFA/Drivers/USB/Core/AVR8/../AVR8/Endpoint_AVR8.h **** 
   5:../../tmk_core/protocol/lufa/lufa-abcminiuser/LUFA/Drivers/USB/Core/AVR8/../AVR8/Endpoint_AVR8.h ****   dean [at] fourwalledcubicle [dot] com
   6:../../tmk_core/protocol/lufa/lufa-abcminiuser/LUFA/Drivers/USB/Core/AVR8/../AVR8/Endpoint_AVR8.h ****            www.lufa-lib.org
   7:../../tmk_core/protocol/lufa/lufa-abcminiuser/LUFA/Drivers/USB/Core/AVR8/../AVR8/Endpoint_AVR8.h **** */
   8:../../tmk_core/protocol/lufa/lufa-abcminiuser/LUFA/Drivers/USB/Core/AVR8/../AVR8/Endpoint_AVR8.h **** 
   9:../../tmk_core/protocol/lufa/lufa-abcminiuser/LUFA/Drivers/USB/Core/AVR8/../AVR8/Endpoint_AVR8.h **** /*
  10:../../tmk_core/protocol/lufa/lufa-abcminiuser/LUFA/Drivers/USB/Core/AVR8/../AVR8/Endpoint_AVR8.h ****   Copyright 2019  Dean Camera (dean [at] fourwalledcubicle [dot] com)
  11:../../tmk_core/protocol/lufa/lufa-abcminiuser/LUFA/Drivers/USB/Core/AVR8/../AVR8/Endpoint_AVR8.h **** 
  12:../../tmk_core/protocol/lufa/lufa-abcminiuser/LUFA/Drivers/USB/Core/AVR8/../AVR8/Endpoint_AVR8.h ****   Permission to use, copy, modify, distribute, and sell this
  13:../../tmk_core/protocol/lufa/lufa-abcminiuser/LUFA/Drivers/USB/Core/AVR8/../AVR8/Endpoint_AVR8.h ****   software and its documentation for any purpose is hereby granted
  14:../../tmk_core/protocol/lufa/lufa-abcminiuser/LUFA/Drivers/USB/Core/AVR8/../AVR8/Endpoint_AVR8.h ****   without fee, provided that the above copyright notice appear in
  15:../../tmk_core/protocol/lufa/lufa-abcminiuser/LUFA/Drivers/USB/Core/AVR8/../AVR8/Endpoint_AVR8.h ****   all copies and that both that the copyright notice and this
  16:../../tmk_core/protocol/lufa/lufa-abcminiuser/LUFA/Drivers/USB/Core/AVR8/../AVR8/Endpoint_AVR8.h ****   permission notice and warranty disclaimer appear in supporting
  17:../../tmk_core/protocol/lufa/lufa-abcminiuser/LUFA/Drivers/USB/Core/AVR8/../AVR8/Endpoint_AVR8.h ****   documentation, and that the name of the author not be used in
  18:../../tmk_core/protocol/lufa/lufa-abcminiuser/LUFA/Drivers/USB/Core/AVR8/../AVR8/Endpoint_AVR8.h ****   advertising or publicity pertaining to distribution of the
  19:../../tmk_core/protocol/lufa/lufa-abcminiuser/LUFA/Drivers/USB/Core/AVR8/../AVR8/Endpoint_AVR8.h ****   software without specific, written prior permission.
  20:../../tmk_core/protocol/lufa/lufa-abcminiuser/LUFA/Drivers/USB/Core/AVR8/../AVR8/Endpoint_AVR8.h **** 
  21:../../tmk_core/protocol/lufa/lufa-abcminiuser/LUFA/Drivers/USB/Core/AVR8/../AVR8/Endpoint_AVR8.h ****   The author disclaims all warranties with regard to this
  22:../../tmk_core/protocol/lufa/lufa-abcminiuser/LUFA/Drivers/USB/Core/AVR8/../AVR8/Endpoint_AVR8.h ****   software, including all implied warranties of merchantability
  23:../../tmk_core/protocol/lufa/lufa-abcminiuser/LUFA/Drivers/USB/Core/AVR8/../AVR8/Endpoint_AVR8.h ****   and fitness.  In no event shall the author be liable for any
  24:../../tmk_core/protocol/lufa/lufa-abcminiuser/LUFA/Drivers/USB/Core/AVR8/../AVR8/Endpoint_AVR8.h ****   special, indirect or consequential damages or any damages
  25:../../tmk_core/protocol/lufa/lufa-abcminiuser/LUFA/Drivers/USB/Core/AVR8/../AVR8/Endpoint_AVR8.h ****   whatsoever resulting from loss of use, data or profits, whether
  26:../../tmk_core/protocol/lufa/lufa-abcminiuser/LUFA/Drivers/USB/Core/AVR8/../AVR8/Endpoint_AVR8.h ****   in an action of contract, negligence or other tortious action,
  27:../../tmk_core/protocol/lufa/lufa-abcminiuser/LUFA/Drivers/USB/Core/AVR8/../AVR8/Endpoint_AVR8.h ****   arising out of or in connection with the use or performance of
  28:../../tmk_core/protocol/lufa/lufa-abcminiuser/LUFA/Drivers/USB/Core/AVR8/../AVR8/Endpoint_AVR8.h ****   this software.
  29:../../tmk_core/protocol/lufa/lufa-abcminiuser/LUFA/Drivers/USB/Core/AVR8/../AVR8/Endpoint_AVR8.h **** */
  30:../../tmk_core/protocol/lufa/lufa-abcminiuser/LUFA/Drivers/USB/Core/AVR8/../AVR8/Endpoint_AVR8.h **** 
  31:../../tmk_core/protocol/lufa/lufa-abcminiuser/LUFA/Drivers/USB/Core/AVR8/../AVR8/Endpoint_AVR8.h **** /** \file
  32:../../tmk_core/protocol/lufa/lufa-abcminiuser/LUFA/Drivers/USB/Core/AVR8/../AVR8/Endpoint_AVR8.h ****  *  \brief USB Endpoint definitions for the AVR8 microcontrollers.
  33:../../tmk_core/protocol/lufa/lufa-abcminiuser/LUFA/Drivers/USB/Core/AVR8/../AVR8/Endpoint_AVR8.h ****  *  \copydetails Group_EndpointManagement_AVR8
  34:../../tmk_core/protocol/lufa/lufa-abcminiuser/LUFA/Drivers/USB/Core/AVR8/../AVR8/Endpoint_AVR8.h ****  *
  35:../../tmk_core/protocol/lufa/lufa-abcminiuser/LUFA/Drivers/USB/Core/AVR8/../AVR8/Endpoint_AVR8.h ****  *  \note This file should not be included directly. It is automatically included as needed by the 
  36:../../tmk_core/protocol/lufa/lufa-abcminiuser/LUFA/Drivers/USB/Core/AVR8/../AVR8/Endpoint_AVR8.h ****  *        dispatch header located in LUFA/Drivers/USB/USB.h.
  37:../../tmk_core/protocol/lufa/lufa-abcminiuser/LUFA/Drivers/USB/Core/AVR8/../AVR8/Endpoint_AVR8.h ****  */
  38:../../tmk_core/protocol/lufa/lufa-abcminiuser/LUFA/Drivers/USB/Core/AVR8/../AVR8/Endpoint_AVR8.h **** 
  39:../../tmk_core/protocol/lufa/lufa-abcminiuser/LUFA/Drivers/USB/Core/AVR8/../AVR8/Endpoint_AVR8.h **** /** \ingroup Group_EndpointRW
  40:../../tmk_core/protocol/lufa/lufa-abcminiuser/LUFA/Drivers/USB/Core/AVR8/../AVR8/Endpoint_AVR8.h ****  *  \defgroup Group_EndpointRW_AVR8 Endpoint Data Reading and Writing (AVR8)
  41:../../tmk_core/protocol/lufa/lufa-abcminiuser/LUFA/Drivers/USB/Core/AVR8/../AVR8/Endpoint_AVR8.h ****  *  \brief Endpoint data read/write definitions for the Atmel AVR8 architecture.
  42:../../tmk_core/protocol/lufa/lufa-abcminiuser/LUFA/Drivers/USB/Core/AVR8/../AVR8/Endpoint_AVR8.h ****  *
  43:../../tmk_core/protocol/lufa/lufa-abcminiuser/LUFA/Drivers/USB/Core/AVR8/../AVR8/Endpoint_AVR8.h ****  *  Functions, macros, variables, enums and types related to data reading and writing from and to e
  44:../../tmk_core/protocol/lufa/lufa-abcminiuser/LUFA/Drivers/USB/Core/AVR8/../AVR8/Endpoint_AVR8.h ****  */
  45:../../tmk_core/protocol/lufa/lufa-abcminiuser/LUFA/Drivers/USB/Core/AVR8/../AVR8/Endpoint_AVR8.h **** 
  46:../../tmk_core/protocol/lufa/lufa-abcminiuser/LUFA/Drivers/USB/Core/AVR8/../AVR8/Endpoint_AVR8.h **** /** \ingroup Group_EndpointPrimitiveRW
  47:../../tmk_core/protocol/lufa/lufa-abcminiuser/LUFA/Drivers/USB/Core/AVR8/../AVR8/Endpoint_AVR8.h ****  *  \defgroup Group_EndpointPrimitiveRW_AVR8 Read/Write of Primitive Data Types (AVR8)
  48:../../tmk_core/protocol/lufa/lufa-abcminiuser/LUFA/Drivers/USB/Core/AVR8/../AVR8/Endpoint_AVR8.h ****  *  \brief Endpoint primitive read/write definitions for the Atmel AVR8 architecture.
  49:../../tmk_core/protocol/lufa/lufa-abcminiuser/LUFA/Drivers/USB/Core/AVR8/../AVR8/Endpoint_AVR8.h ****  *
  50:../../tmk_core/protocol/lufa/lufa-abcminiuser/LUFA/Drivers/USB/Core/AVR8/../AVR8/Endpoint_AVR8.h ****  *  Functions, macros, variables, enums and types related to data reading and writing of primitive 
  51:../../tmk_core/protocol/lufa/lufa-abcminiuser/LUFA/Drivers/USB/Core/AVR8/../AVR8/Endpoint_AVR8.h ****  *  from and to endpoints.
  52:../../tmk_core/protocol/lufa/lufa-abcminiuser/LUFA/Drivers/USB/Core/AVR8/../AVR8/Endpoint_AVR8.h ****  */
  53:../../tmk_core/protocol/lufa/lufa-abcminiuser/LUFA/Drivers/USB/Core/AVR8/../AVR8/Endpoint_AVR8.h **** 
  54:../../tmk_core/protocol/lufa/lufa-abcminiuser/LUFA/Drivers/USB/Core/AVR8/../AVR8/Endpoint_AVR8.h **** /** \ingroup Group_EndpointPacketManagement
  55:../../tmk_core/protocol/lufa/lufa-abcminiuser/LUFA/Drivers/USB/Core/AVR8/../AVR8/Endpoint_AVR8.h ****  *  \defgroup Group_EndpointPacketManagement_AVR8 Endpoint Packet Management (AVR8)
  56:../../tmk_core/protocol/lufa/lufa-abcminiuser/LUFA/Drivers/USB/Core/AVR8/../AVR8/Endpoint_AVR8.h ****  *  \brief Endpoint packet management definitions for the Atmel AVR8 architecture.
  57:../../tmk_core/protocol/lufa/lufa-abcminiuser/LUFA/Drivers/USB/Core/AVR8/../AVR8/Endpoint_AVR8.h ****  *
  58:../../tmk_core/protocol/lufa/lufa-abcminiuser/LUFA/Drivers/USB/Core/AVR8/../AVR8/Endpoint_AVR8.h ****  *  Functions, macros, variables, enums and types related to packet management of endpoints.
  59:../../tmk_core/protocol/lufa/lufa-abcminiuser/LUFA/Drivers/USB/Core/AVR8/../AVR8/Endpoint_AVR8.h ****  */
  60:../../tmk_core/protocol/lufa/lufa-abcminiuser/LUFA/Drivers/USB/Core/AVR8/../AVR8/Endpoint_AVR8.h **** 
  61:../../tmk_core/protocol/lufa/lufa-abcminiuser/LUFA/Drivers/USB/Core/AVR8/../AVR8/Endpoint_AVR8.h **** /** \ingroup Group_EndpointManagement
  62:../../tmk_core/protocol/lufa/lufa-abcminiuser/LUFA/Drivers/USB/Core/AVR8/../AVR8/Endpoint_AVR8.h ****  *  \defgroup Group_EndpointManagement_AVR8 Endpoint Management (AVR8)
  63:../../tmk_core/protocol/lufa/lufa-abcminiuser/LUFA/Drivers/USB/Core/AVR8/../AVR8/Endpoint_AVR8.h ****  *  \brief Endpoint management definitions for the Atmel AVR8 architecture.
  64:../../tmk_core/protocol/lufa/lufa-abcminiuser/LUFA/Drivers/USB/Core/AVR8/../AVR8/Endpoint_AVR8.h ****  *
  65:../../tmk_core/protocol/lufa/lufa-abcminiuser/LUFA/Drivers/USB/Core/AVR8/../AVR8/Endpoint_AVR8.h ****  *  Functions, macros and enums related to endpoint management when in USB Device mode. This
  66:../../tmk_core/protocol/lufa/lufa-abcminiuser/LUFA/Drivers/USB/Core/AVR8/../AVR8/Endpoint_AVR8.h ****  *  module contains the endpoint management macros, as well as endpoint interrupt and data
  67:../../tmk_core/protocol/lufa/lufa-abcminiuser/LUFA/Drivers/USB/Core/AVR8/../AVR8/Endpoint_AVR8.h ****  *  send/receive functions for various data types.
  68:../../tmk_core/protocol/lufa/lufa-abcminiuser/LUFA/Drivers/USB/Core/AVR8/../AVR8/Endpoint_AVR8.h ****  *
  69:../../tmk_core/protocol/lufa/lufa-abcminiuser/LUFA/Drivers/USB/Core/AVR8/../AVR8/Endpoint_AVR8.h ****  *  @{
  70:../../tmk_core/protocol/lufa/lufa-abcminiuser/LUFA/Drivers/USB/Core/AVR8/../AVR8/Endpoint_AVR8.h ****  */
  71:../../tmk_core/protocol/lufa/lufa-abcminiuser/LUFA/Drivers/USB/Core/AVR8/../AVR8/Endpoint_AVR8.h **** 
  72:../../tmk_core/protocol/lufa/lufa-abcminiuser/LUFA/Drivers/USB/Core/AVR8/../AVR8/Endpoint_AVR8.h **** #ifndef __ENDPOINT_AVR8_H__
  73:../../tmk_core/protocol/lufa/lufa-abcminiuser/LUFA/Drivers/USB/Core/AVR8/../AVR8/Endpoint_AVR8.h **** #define __ENDPOINT_AVR8_H__
  74:../../tmk_core/protocol/lufa/lufa-abcminiuser/LUFA/Drivers/USB/Core/AVR8/../AVR8/Endpoint_AVR8.h **** 
  75:../../tmk_core/protocol/lufa/lufa-abcminiuser/LUFA/Drivers/USB/Core/AVR8/../AVR8/Endpoint_AVR8.h **** 	/* Includes: */
  76:../../tmk_core/protocol/lufa/lufa-abcminiuser/LUFA/Drivers/USB/Core/AVR8/../AVR8/Endpoint_AVR8.h **** 		#include "../../../../Common/Common.h"
  77:../../tmk_core/protocol/lufa/lufa-abcminiuser/LUFA/Drivers/USB/Core/AVR8/../AVR8/Endpoint_AVR8.h **** 		#include "../USBTask.h"
  78:../../tmk_core/protocol/lufa/lufa-abcminiuser/LUFA/Drivers/USB/Core/AVR8/../AVR8/Endpoint_AVR8.h **** 		#include "../USBInterrupt.h"
  79:../../tmk_core/protocol/lufa/lufa-abcminiuser/LUFA/Drivers/USB/Core/AVR8/../AVR8/Endpoint_AVR8.h **** 
  80:../../tmk_core/protocol/lufa/lufa-abcminiuser/LUFA/Drivers/USB/Core/AVR8/../AVR8/Endpoint_AVR8.h **** 	/* Enable C linkage for C++ Compilers: */
  81:../../tmk_core/protocol/lufa/lufa-abcminiuser/LUFA/Drivers/USB/Core/AVR8/../AVR8/Endpoint_AVR8.h **** 		#if defined(__cplusplus)
  82:../../tmk_core/protocol/lufa/lufa-abcminiuser/LUFA/Drivers/USB/Core/AVR8/../AVR8/Endpoint_AVR8.h **** 			extern "C" {
  83:../../tmk_core/protocol/lufa/lufa-abcminiuser/LUFA/Drivers/USB/Core/AVR8/../AVR8/Endpoint_AVR8.h **** 		#endif
  84:../../tmk_core/protocol/lufa/lufa-abcminiuser/LUFA/Drivers/USB/Core/AVR8/../AVR8/Endpoint_AVR8.h **** 
  85:../../tmk_core/protocol/lufa/lufa-abcminiuser/LUFA/Drivers/USB/Core/AVR8/../AVR8/Endpoint_AVR8.h **** 	/* Preprocessor Checks: */
  86:../../tmk_core/protocol/lufa/lufa-abcminiuser/LUFA/Drivers/USB/Core/AVR8/../AVR8/Endpoint_AVR8.h **** 		#if !defined(__INCLUDE_FROM_USB_DRIVER)
  87:../../tmk_core/protocol/lufa/lufa-abcminiuser/LUFA/Drivers/USB/Core/AVR8/../AVR8/Endpoint_AVR8.h **** 			#error Do not include this file directly. Include LUFA/Drivers/USB/USB.h instead.
  88:../../tmk_core/protocol/lufa/lufa-abcminiuser/LUFA/Drivers/USB/Core/AVR8/../AVR8/Endpoint_AVR8.h **** 		#endif
  89:../../tmk_core/protocol/lufa/lufa-abcminiuser/LUFA/Drivers/USB/Core/AVR8/../AVR8/Endpoint_AVR8.h **** 
  90:../../tmk_core/protocol/lufa/lufa-abcminiuser/LUFA/Drivers/USB/Core/AVR8/../AVR8/Endpoint_AVR8.h **** 	/* Private Interface - For use in library only: */
  91:../../tmk_core/protocol/lufa/lufa-abcminiuser/LUFA/Drivers/USB/Core/AVR8/../AVR8/Endpoint_AVR8.h **** 	#if !defined(__DOXYGEN__)
  92:../../tmk_core/protocol/lufa/lufa-abcminiuser/LUFA/Drivers/USB/Core/AVR8/../AVR8/Endpoint_AVR8.h **** 		/* Inline Functions: */
  93:../../tmk_core/protocol/lufa/lufa-abcminiuser/LUFA/Drivers/USB/Core/AVR8/../AVR8/Endpoint_AVR8.h **** 			static inline uint8_t Endpoint_BytesToEPSizeMask(const uint16_t Bytes) ATTR_WARN_UNUSED_RESULT A
  94:../../tmk_core/protocol/lufa/lufa-abcminiuser/LUFA/Drivers/USB/Core/AVR8/../AVR8/Endpoint_AVR8.h **** 			                                                                       ATTR_ALWAYS_INLINE;
  95:../../tmk_core/protocol/lufa/lufa-abcminiuser/LUFA/Drivers/USB/Core/AVR8/../AVR8/Endpoint_AVR8.h **** 			static inline uint8_t Endpoint_BytesToEPSizeMask(const uint16_t Bytes)
  96:../../tmk_core/protocol/lufa/lufa-abcminiuser/LUFA/Drivers/USB/Core/AVR8/../AVR8/Endpoint_AVR8.h **** 			{
  97:../../tmk_core/protocol/lufa/lufa-abcminiuser/LUFA/Drivers/USB/Core/AVR8/../AVR8/Endpoint_AVR8.h **** 				uint8_t  MaskVal    = 0;
  98:../../tmk_core/protocol/lufa/lufa-abcminiuser/LUFA/Drivers/USB/Core/AVR8/../AVR8/Endpoint_AVR8.h **** 				uint16_t CheckBytes = 8;
  99:../../tmk_core/protocol/lufa/lufa-abcminiuser/LUFA/Drivers/USB/Core/AVR8/../AVR8/Endpoint_AVR8.h **** 
 100:../../tmk_core/protocol/lufa/lufa-abcminiuser/LUFA/Drivers/USB/Core/AVR8/../AVR8/Endpoint_AVR8.h **** 				while (CheckBytes < Bytes)
 101:../../tmk_core/protocol/lufa/lufa-abcminiuser/LUFA/Drivers/USB/Core/AVR8/../AVR8/Endpoint_AVR8.h **** 				{
 102:../../tmk_core/protocol/lufa/lufa-abcminiuser/LUFA/Drivers/USB/Core/AVR8/../AVR8/Endpoint_AVR8.h **** 					MaskVal++;
 103:../../tmk_core/protocol/lufa/lufa-abcminiuser/LUFA/Drivers/USB/Core/AVR8/../AVR8/Endpoint_AVR8.h **** 					CheckBytes <<= 1;
 104:../../tmk_core/protocol/lufa/lufa-abcminiuser/LUFA/Drivers/USB/Core/AVR8/../AVR8/Endpoint_AVR8.h **** 				}
 105:../../tmk_core/protocol/lufa/lufa-abcminiuser/LUFA/Drivers/USB/Core/AVR8/../AVR8/Endpoint_AVR8.h **** 
 106:../../tmk_core/protocol/lufa/lufa-abcminiuser/LUFA/Drivers/USB/Core/AVR8/../AVR8/Endpoint_AVR8.h **** 				return (MaskVal << EPSIZE0);
 107:../../tmk_core/protocol/lufa/lufa-abcminiuser/LUFA/Drivers/USB/Core/AVR8/../AVR8/Endpoint_AVR8.h **** 			}
 108:../../tmk_core/protocol/lufa/lufa-abcminiuser/LUFA/Drivers/USB/Core/AVR8/../AVR8/Endpoint_AVR8.h **** 
 109:../../tmk_core/protocol/lufa/lufa-abcminiuser/LUFA/Drivers/USB/Core/AVR8/../AVR8/Endpoint_AVR8.h **** 		/* Function Prototypes: */
 110:../../tmk_core/protocol/lufa/lufa-abcminiuser/LUFA/Drivers/USB/Core/AVR8/../AVR8/Endpoint_AVR8.h **** 			void Endpoint_ClearEndpoints(void);
 111:../../tmk_core/protocol/lufa/lufa-abcminiuser/LUFA/Drivers/USB/Core/AVR8/../AVR8/Endpoint_AVR8.h **** 			bool Endpoint_ConfigureEndpoint_Prv(const uint8_t Number,
 112:../../tmk_core/protocol/lufa/lufa-abcminiuser/LUFA/Drivers/USB/Core/AVR8/../AVR8/Endpoint_AVR8.h **** 			                                    const uint8_t UECFG0XData,
 113:../../tmk_core/protocol/lufa/lufa-abcminiuser/LUFA/Drivers/USB/Core/AVR8/../AVR8/Endpoint_AVR8.h **** 			                                    const uint8_t UECFG1XData);
 114:../../tmk_core/protocol/lufa/lufa-abcminiuser/LUFA/Drivers/USB/Core/AVR8/../AVR8/Endpoint_AVR8.h **** 
 115:../../tmk_core/protocol/lufa/lufa-abcminiuser/LUFA/Drivers/USB/Core/AVR8/../AVR8/Endpoint_AVR8.h **** 	#endif
 116:../../tmk_core/protocol/lufa/lufa-abcminiuser/LUFA/Drivers/USB/Core/AVR8/../AVR8/Endpoint_AVR8.h **** 
 117:../../tmk_core/protocol/lufa/lufa-abcminiuser/LUFA/Drivers/USB/Core/AVR8/../AVR8/Endpoint_AVR8.h **** 	/* Public Interface - May be used in end-application: */
 118:../../tmk_core/protocol/lufa/lufa-abcminiuser/LUFA/Drivers/USB/Core/AVR8/../AVR8/Endpoint_AVR8.h **** 		/* Macros: */
 119:../../tmk_core/protocol/lufa/lufa-abcminiuser/LUFA/Drivers/USB/Core/AVR8/../AVR8/Endpoint_AVR8.h **** 			#if (!defined(FIXED_CONTROL_ENDPOINT_SIZE) || defined(__DOXYGEN__))
 120:../../tmk_core/protocol/lufa/lufa-abcminiuser/LUFA/Drivers/USB/Core/AVR8/../AVR8/Endpoint_AVR8.h **** 				/** Default size of the default control endpoint's bank, until altered by the control endpoint 
 121:../../tmk_core/protocol/lufa/lufa-abcminiuser/LUFA/Drivers/USB/Core/AVR8/../AVR8/Endpoint_AVR8.h **** 				 *  value in the device descriptor. Not available if the \c FIXED_CONTROL_ENDPOINT_SIZE token i
 122:../../tmk_core/protocol/lufa/lufa-abcminiuser/LUFA/Drivers/USB/Core/AVR8/../AVR8/Endpoint_AVR8.h **** 				 */
 123:../../tmk_core/protocol/lufa/lufa-abcminiuser/LUFA/Drivers/USB/Core/AVR8/../AVR8/Endpoint_AVR8.h **** 				#define ENDPOINT_CONTROLEP_DEFAULT_SIZE     8
 124:../../tmk_core/protocol/lufa/lufa-abcminiuser/LUFA/Drivers/USB/Core/AVR8/../AVR8/Endpoint_AVR8.h **** 			#endif
 125:../../tmk_core/protocol/lufa/lufa-abcminiuser/LUFA/Drivers/USB/Core/AVR8/../AVR8/Endpoint_AVR8.h **** 
 126:../../tmk_core/protocol/lufa/lufa-abcminiuser/LUFA/Drivers/USB/Core/AVR8/../AVR8/Endpoint_AVR8.h **** 			#if !defined(CONTROL_ONLY_DEVICE) || defined(__DOXYGEN__)
 127:../../tmk_core/protocol/lufa/lufa-abcminiuser/LUFA/Drivers/USB/Core/AVR8/../AVR8/Endpoint_AVR8.h **** 				#if defined(USB_SERIES_4_AVR) || defined(USB_SERIES_6_AVR) || defined(USB_SERIES_7_AVR) || defi
 128:../../tmk_core/protocol/lufa/lufa-abcminiuser/LUFA/Drivers/USB/Core/AVR8/../AVR8/Endpoint_AVR8.h **** 					/** Total number of endpoints (including the default control endpoint at address 0) which may
 129:../../tmk_core/protocol/lufa/lufa-abcminiuser/LUFA/Drivers/USB/Core/AVR8/../AVR8/Endpoint_AVR8.h **** 					 *  be used in the device. Different USB AVR models support different amounts of endpoints,
 130:../../tmk_core/protocol/lufa/lufa-abcminiuser/LUFA/Drivers/USB/Core/AVR8/../AVR8/Endpoint_AVR8.h **** 					 *  this value reflects the maximum number of endpoints for the currently selected AVR model.
 131:../../tmk_core/protocol/lufa/lufa-abcminiuser/LUFA/Drivers/USB/Core/AVR8/../AVR8/Endpoint_AVR8.h **** 					 */
 132:../../tmk_core/protocol/lufa/lufa-abcminiuser/LUFA/Drivers/USB/Core/AVR8/../AVR8/Endpoint_AVR8.h **** 					#define ENDPOINT_TOTAL_ENDPOINTS        7
 133:../../tmk_core/protocol/lufa/lufa-abcminiuser/LUFA/Drivers/USB/Core/AVR8/../AVR8/Endpoint_AVR8.h **** 				#else
 134:../../tmk_core/protocol/lufa/lufa-abcminiuser/LUFA/Drivers/USB/Core/AVR8/../AVR8/Endpoint_AVR8.h **** 					#define ENDPOINT_TOTAL_ENDPOINTS        5
 135:../../tmk_core/protocol/lufa/lufa-abcminiuser/LUFA/Drivers/USB/Core/AVR8/../AVR8/Endpoint_AVR8.h **** 				#endif
 136:../../tmk_core/protocol/lufa/lufa-abcminiuser/LUFA/Drivers/USB/Core/AVR8/../AVR8/Endpoint_AVR8.h **** 			#else
 137:../../tmk_core/protocol/lufa/lufa-abcminiuser/LUFA/Drivers/USB/Core/AVR8/../AVR8/Endpoint_AVR8.h **** 				#define ENDPOINT_TOTAL_ENDPOINTS            1
 138:../../tmk_core/protocol/lufa/lufa-abcminiuser/LUFA/Drivers/USB/Core/AVR8/../AVR8/Endpoint_AVR8.h **** 			#endif
 139:../../tmk_core/protocol/lufa/lufa-abcminiuser/LUFA/Drivers/USB/Core/AVR8/../AVR8/Endpoint_AVR8.h **** 
 140:../../tmk_core/protocol/lufa/lufa-abcminiuser/LUFA/Drivers/USB/Core/AVR8/../AVR8/Endpoint_AVR8.h **** 		/* Enums: */
 141:../../tmk_core/protocol/lufa/lufa-abcminiuser/LUFA/Drivers/USB/Core/AVR8/../AVR8/Endpoint_AVR8.h **** 			/** Enum for the possible error return codes of the \ref Endpoint_WaitUntilReady() function.
 142:../../tmk_core/protocol/lufa/lufa-abcminiuser/LUFA/Drivers/USB/Core/AVR8/../AVR8/Endpoint_AVR8.h **** 			 *
 143:../../tmk_core/protocol/lufa/lufa-abcminiuser/LUFA/Drivers/USB/Core/AVR8/../AVR8/Endpoint_AVR8.h **** 			 *  \ingroup Group_EndpointRW_AVR8
 144:../../tmk_core/protocol/lufa/lufa-abcminiuser/LUFA/Drivers/USB/Core/AVR8/../AVR8/Endpoint_AVR8.h **** 			 */
 145:../../tmk_core/protocol/lufa/lufa-abcminiuser/LUFA/Drivers/USB/Core/AVR8/../AVR8/Endpoint_AVR8.h **** 			enum Endpoint_WaitUntilReady_ErrorCodes_t
 146:../../tmk_core/protocol/lufa/lufa-abcminiuser/LUFA/Drivers/USB/Core/AVR8/../AVR8/Endpoint_AVR8.h **** 			{
 147:../../tmk_core/protocol/lufa/lufa-abcminiuser/LUFA/Drivers/USB/Core/AVR8/../AVR8/Endpoint_AVR8.h **** 				ENDPOINT_READYWAIT_NoError                 = 0, /**< Endpoint is ready for next packet, no erro
 148:../../tmk_core/protocol/lufa/lufa-abcminiuser/LUFA/Drivers/USB/Core/AVR8/../AVR8/Endpoint_AVR8.h **** 				ENDPOINT_READYWAIT_EndpointStalled         = 1, /**< The endpoint was stalled during the stream
 149:../../tmk_core/protocol/lufa/lufa-abcminiuser/LUFA/Drivers/USB/Core/AVR8/../AVR8/Endpoint_AVR8.h **** 				                                                 *   transfer by the host or device.
 150:../../tmk_core/protocol/lufa/lufa-abcminiuser/LUFA/Drivers/USB/Core/AVR8/../AVR8/Endpoint_AVR8.h **** 				                                                 */
 151:../../tmk_core/protocol/lufa/lufa-abcminiuser/LUFA/Drivers/USB/Core/AVR8/../AVR8/Endpoint_AVR8.h **** 				ENDPOINT_READYWAIT_DeviceDisconnected      = 2,	/**< Device was disconnected from the host whil
 152:../../tmk_core/protocol/lufa/lufa-abcminiuser/LUFA/Drivers/USB/Core/AVR8/../AVR8/Endpoint_AVR8.h **** 				                                                 *   waiting for the endpoint to become ready.
 153:../../tmk_core/protocol/lufa/lufa-abcminiuser/LUFA/Drivers/USB/Core/AVR8/../AVR8/Endpoint_AVR8.h **** 				                                                 */
 154:../../tmk_core/protocol/lufa/lufa-abcminiuser/LUFA/Drivers/USB/Core/AVR8/../AVR8/Endpoint_AVR8.h **** 				ENDPOINT_READYWAIT_BusSuspended            = 3, /**< The USB bus has been suspended by the host
 155:../../tmk_core/protocol/lufa/lufa-abcminiuser/LUFA/Drivers/USB/Core/AVR8/../AVR8/Endpoint_AVR8.h **** 				                                                 *   no USB endpoint traffic can occur until th
 156:../../tmk_core/protocol/lufa/lufa-abcminiuser/LUFA/Drivers/USB/Core/AVR8/../AVR8/Endpoint_AVR8.h **** 				                                                 *   has resumed.
 157:../../tmk_core/protocol/lufa/lufa-abcminiuser/LUFA/Drivers/USB/Core/AVR8/../AVR8/Endpoint_AVR8.h **** 				                                                 */
 158:../../tmk_core/protocol/lufa/lufa-abcminiuser/LUFA/Drivers/USB/Core/AVR8/../AVR8/Endpoint_AVR8.h **** 				ENDPOINT_READYWAIT_Timeout                 = 4, /**< The host failed to accept or send the next
 159:../../tmk_core/protocol/lufa/lufa-abcminiuser/LUFA/Drivers/USB/Core/AVR8/../AVR8/Endpoint_AVR8.h **** 				                                                 *   within the software timeout period set by 
 160:../../tmk_core/protocol/lufa/lufa-abcminiuser/LUFA/Drivers/USB/Core/AVR8/../AVR8/Endpoint_AVR8.h **** 				                                                 *   \ref USB_STREAM_TIMEOUT_MS macro.
 161:../../tmk_core/protocol/lufa/lufa-abcminiuser/LUFA/Drivers/USB/Core/AVR8/../AVR8/Endpoint_AVR8.h **** 				                                                 */
 162:../../tmk_core/protocol/lufa/lufa-abcminiuser/LUFA/Drivers/USB/Core/AVR8/../AVR8/Endpoint_AVR8.h **** 			};
 163:../../tmk_core/protocol/lufa/lufa-abcminiuser/LUFA/Drivers/USB/Core/AVR8/../AVR8/Endpoint_AVR8.h **** 
 164:../../tmk_core/protocol/lufa/lufa-abcminiuser/LUFA/Drivers/USB/Core/AVR8/../AVR8/Endpoint_AVR8.h **** 		/* Inline Functions: */
 165:../../tmk_core/protocol/lufa/lufa-abcminiuser/LUFA/Drivers/USB/Core/AVR8/../AVR8/Endpoint_AVR8.h **** 			/** Configures the specified endpoint address with the given endpoint type, bank size and number
 166:../../tmk_core/protocol/lufa/lufa-abcminiuser/LUFA/Drivers/USB/Core/AVR8/../AVR8/Endpoint_AVR8.h **** 			 *  banks. Once configured, the endpoint may be read from or written to, depending on its direct
 167:../../tmk_core/protocol/lufa/lufa-abcminiuser/LUFA/Drivers/USB/Core/AVR8/../AVR8/Endpoint_AVR8.h **** 			 *
 168:../../tmk_core/protocol/lufa/lufa-abcminiuser/LUFA/Drivers/USB/Core/AVR8/../AVR8/Endpoint_AVR8.h **** 			 *  \param[in] Address    Endpoint address to configure.
 169:../../tmk_core/protocol/lufa/lufa-abcminiuser/LUFA/Drivers/USB/Core/AVR8/../AVR8/Endpoint_AVR8.h **** 			 *
 170:../../tmk_core/protocol/lufa/lufa-abcminiuser/LUFA/Drivers/USB/Core/AVR8/../AVR8/Endpoint_AVR8.h **** 			 *  \param[in] Type       Type of endpoint to configure, a \c EP_TYPE_* mask. Not all endpoint t
 171:../../tmk_core/protocol/lufa/lufa-abcminiuser/LUFA/Drivers/USB/Core/AVR8/../AVR8/Endpoint_AVR8.h **** 			 *                        are available on Low Speed USB devices - refer to the USB 2.0 specific
 172:../../tmk_core/protocol/lufa/lufa-abcminiuser/LUFA/Drivers/USB/Core/AVR8/../AVR8/Endpoint_AVR8.h **** 			 *
 173:../../tmk_core/protocol/lufa/lufa-abcminiuser/LUFA/Drivers/USB/Core/AVR8/../AVR8/Endpoint_AVR8.h **** 			 *  \param[in] Size       Size of the endpoint's bank, where packets are stored before they are 
 174:../../tmk_core/protocol/lufa/lufa-abcminiuser/LUFA/Drivers/USB/Core/AVR8/../AVR8/Endpoint_AVR8.h **** 			 *                        to the USB host, or after they have been received from the USB host (d
 175:../../tmk_core/protocol/lufa/lufa-abcminiuser/LUFA/Drivers/USB/Core/AVR8/../AVR8/Endpoint_AVR8.h **** 			 *                        the endpoint's data direction). The bank size must indicate the maximu
 176:../../tmk_core/protocol/lufa/lufa-abcminiuser/LUFA/Drivers/USB/Core/AVR8/../AVR8/Endpoint_AVR8.h **** 			 *                        that the endpoint can handle.
 177:../../tmk_core/protocol/lufa/lufa-abcminiuser/LUFA/Drivers/USB/Core/AVR8/../AVR8/Endpoint_AVR8.h **** 			 *
 178:../../tmk_core/protocol/lufa/lufa-abcminiuser/LUFA/Drivers/USB/Core/AVR8/../AVR8/Endpoint_AVR8.h **** 			 *  \param[in] Banks      Number of banks to use for the endpoint being configured.
 179:../../tmk_core/protocol/lufa/lufa-abcminiuser/LUFA/Drivers/USB/Core/AVR8/../AVR8/Endpoint_AVR8.h **** 			 *
 180:../../tmk_core/protocol/lufa/lufa-abcminiuser/LUFA/Drivers/USB/Core/AVR8/../AVR8/Endpoint_AVR8.h **** 			 *  \attention When the \c ORDERED_EP_CONFIG compile time option is used, Endpoints <b>must</b> 
 181:../../tmk_core/protocol/lufa/lufa-abcminiuser/LUFA/Drivers/USB/Core/AVR8/../AVR8/Endpoint_AVR8.h **** 			 *             ascending order, or bank corruption will occur.
 182:../../tmk_core/protocol/lufa/lufa-abcminiuser/LUFA/Drivers/USB/Core/AVR8/../AVR8/Endpoint_AVR8.h **** 			 *
 183:../../tmk_core/protocol/lufa/lufa-abcminiuser/LUFA/Drivers/USB/Core/AVR8/../AVR8/Endpoint_AVR8.h **** 			 *  \note Different endpoints may have different maximum packet sizes based on the endpoint's in
 184:../../tmk_core/protocol/lufa/lufa-abcminiuser/LUFA/Drivers/USB/Core/AVR8/../AVR8/Endpoint_AVR8.h **** 			 *        refer to the chosen microcontroller model's datasheet to determine the maximum bank si
 185:../../tmk_core/protocol/lufa/lufa-abcminiuser/LUFA/Drivers/USB/Core/AVR8/../AVR8/Endpoint_AVR8.h **** 			 *        \n\n
 186:../../tmk_core/protocol/lufa/lufa-abcminiuser/LUFA/Drivers/USB/Core/AVR8/../AVR8/Endpoint_AVR8.h **** 			 *
 187:../../tmk_core/protocol/lufa/lufa-abcminiuser/LUFA/Drivers/USB/Core/AVR8/../AVR8/Endpoint_AVR8.h **** 			 *  \note The default control endpoint should not be manually configured by the user application
 188:../../tmk_core/protocol/lufa/lufa-abcminiuser/LUFA/Drivers/USB/Core/AVR8/../AVR8/Endpoint_AVR8.h **** 			 *        it is automatically configured by the library internally.
 189:../../tmk_core/protocol/lufa/lufa-abcminiuser/LUFA/Drivers/USB/Core/AVR8/../AVR8/Endpoint_AVR8.h **** 			 *        \n\n
 190:../../tmk_core/protocol/lufa/lufa-abcminiuser/LUFA/Drivers/USB/Core/AVR8/../AVR8/Endpoint_AVR8.h **** 			 *
 191:../../tmk_core/protocol/lufa/lufa-abcminiuser/LUFA/Drivers/USB/Core/AVR8/../AVR8/Endpoint_AVR8.h **** 			 *  \note This routine will automatically select the specified endpoint upon success. Upon failu
 192:../../tmk_core/protocol/lufa/lufa-abcminiuser/LUFA/Drivers/USB/Core/AVR8/../AVR8/Endpoint_AVR8.h **** 			 *        which failed to reconfigure correctly will be selected.
 193:../../tmk_core/protocol/lufa/lufa-abcminiuser/LUFA/Drivers/USB/Core/AVR8/../AVR8/Endpoint_AVR8.h **** 			 *
 194:../../tmk_core/protocol/lufa/lufa-abcminiuser/LUFA/Drivers/USB/Core/AVR8/../AVR8/Endpoint_AVR8.h **** 			 *  \return Boolean \c true if the configuration succeeded, \c false otherwise.
 195:../../tmk_core/protocol/lufa/lufa-abcminiuser/LUFA/Drivers/USB/Core/AVR8/../AVR8/Endpoint_AVR8.h **** 			 */
 196:../../tmk_core/protocol/lufa/lufa-abcminiuser/LUFA/Drivers/USB/Core/AVR8/../AVR8/Endpoint_AVR8.h **** 			static inline bool Endpoint_ConfigureEndpoint(const uint8_t Address,
 197:../../tmk_core/protocol/lufa/lufa-abcminiuser/LUFA/Drivers/USB/Core/AVR8/../AVR8/Endpoint_AVR8.h **** 			                                              const uint8_t Type,
 198:../../tmk_core/protocol/lufa/lufa-abcminiuser/LUFA/Drivers/USB/Core/AVR8/../AVR8/Endpoint_AVR8.h **** 			                                              const uint16_t Size,
 199:../../tmk_core/protocol/lufa/lufa-abcminiuser/LUFA/Drivers/USB/Core/AVR8/../AVR8/Endpoint_AVR8.h **** 			                                              const uint8_t Banks) ATTR_ALWAYS_INLINE;
 200:../../tmk_core/protocol/lufa/lufa-abcminiuser/LUFA/Drivers/USB/Core/AVR8/../AVR8/Endpoint_AVR8.h **** 			static inline bool Endpoint_ConfigureEndpoint(const uint8_t Address,
 201:../../tmk_core/protocol/lufa/lufa-abcminiuser/LUFA/Drivers/USB/Core/AVR8/../AVR8/Endpoint_AVR8.h **** 			                                              const uint8_t Type,
 202:../../tmk_core/protocol/lufa/lufa-abcminiuser/LUFA/Drivers/USB/Core/AVR8/../AVR8/Endpoint_AVR8.h **** 			                                              const uint16_t Size,
 203:../../tmk_core/protocol/lufa/lufa-abcminiuser/LUFA/Drivers/USB/Core/AVR8/../AVR8/Endpoint_AVR8.h **** 			                                              const uint8_t Banks)
 204:../../tmk_core/protocol/lufa/lufa-abcminiuser/LUFA/Drivers/USB/Core/AVR8/../AVR8/Endpoint_AVR8.h **** 			{
 205:../../tmk_core/protocol/lufa/lufa-abcminiuser/LUFA/Drivers/USB/Core/AVR8/../AVR8/Endpoint_AVR8.h **** 				uint8_t Number = (Address & ENDPOINT_EPNUM_MASK);
 206:../../tmk_core/protocol/lufa/lufa-abcminiuser/LUFA/Drivers/USB/Core/AVR8/../AVR8/Endpoint_AVR8.h **** 
 207:../../tmk_core/protocol/lufa/lufa-abcminiuser/LUFA/Drivers/USB/Core/AVR8/../AVR8/Endpoint_AVR8.h **** 				if (Number >= ENDPOINT_TOTAL_ENDPOINTS)
 208:../../tmk_core/protocol/lufa/lufa-abcminiuser/LUFA/Drivers/USB/Core/AVR8/../AVR8/Endpoint_AVR8.h **** 				  return false;
 209:../../tmk_core/protocol/lufa/lufa-abcminiuser/LUFA/Drivers/USB/Core/AVR8/../AVR8/Endpoint_AVR8.h **** 
 210:../../tmk_core/protocol/lufa/lufa-abcminiuser/LUFA/Drivers/USB/Core/AVR8/../AVR8/Endpoint_AVR8.h **** 				return Endpoint_ConfigureEndpoint_Prv(Number,
 211:../../tmk_core/protocol/lufa/lufa-abcminiuser/LUFA/Drivers/USB/Core/AVR8/../AVR8/Endpoint_AVR8.h **** 				                                      ((Type << EPTYPE0) | ((Address & ENDPOINT_DIR_IN) ? (1 <<
 212:../../tmk_core/protocol/lufa/lufa-abcminiuser/LUFA/Drivers/USB/Core/AVR8/../AVR8/Endpoint_AVR8.h **** 				                                      ((1 << ALLOC) | ((Banks > 1) ? (1 << EPBK0) : 0) | Endpoi
 213:../../tmk_core/protocol/lufa/lufa-abcminiuser/LUFA/Drivers/USB/Core/AVR8/../AVR8/Endpoint_AVR8.h **** 			}
 214:../../tmk_core/protocol/lufa/lufa-abcminiuser/LUFA/Drivers/USB/Core/AVR8/../AVR8/Endpoint_AVR8.h **** 
 215:../../tmk_core/protocol/lufa/lufa-abcminiuser/LUFA/Drivers/USB/Core/AVR8/../AVR8/Endpoint_AVR8.h **** 			/** Indicates the number of bytes currently stored in the current endpoint's selected bank.
 216:../../tmk_core/protocol/lufa/lufa-abcminiuser/LUFA/Drivers/USB/Core/AVR8/../AVR8/Endpoint_AVR8.h **** 			 *
 217:../../tmk_core/protocol/lufa/lufa-abcminiuser/LUFA/Drivers/USB/Core/AVR8/../AVR8/Endpoint_AVR8.h **** 			 *  \ingroup Group_EndpointRW_AVR8
 218:../../tmk_core/protocol/lufa/lufa-abcminiuser/LUFA/Drivers/USB/Core/AVR8/../AVR8/Endpoint_AVR8.h **** 			 *
 219:../../tmk_core/protocol/lufa/lufa-abcminiuser/LUFA/Drivers/USB/Core/AVR8/../AVR8/Endpoint_AVR8.h **** 			 *  \return Total number of bytes in the currently selected Endpoint's FIFO buffer.
 220:../../tmk_core/protocol/lufa/lufa-abcminiuser/LUFA/Drivers/USB/Core/AVR8/../AVR8/Endpoint_AVR8.h **** 			 */
 221:../../tmk_core/protocol/lufa/lufa-abcminiuser/LUFA/Drivers/USB/Core/AVR8/../AVR8/Endpoint_AVR8.h **** 			static inline uint16_t Endpoint_BytesInEndpoint(void) ATTR_WARN_UNUSED_RESULT ATTR_ALWAYS_INLINE
 222:../../tmk_core/protocol/lufa/lufa-abcminiuser/LUFA/Drivers/USB/Core/AVR8/../AVR8/Endpoint_AVR8.h **** 			static inline uint16_t Endpoint_BytesInEndpoint(void)
 223:../../tmk_core/protocol/lufa/lufa-abcminiuser/LUFA/Drivers/USB/Core/AVR8/../AVR8/Endpoint_AVR8.h **** 			{
 224:../../tmk_core/protocol/lufa/lufa-abcminiuser/LUFA/Drivers/USB/Core/AVR8/../AVR8/Endpoint_AVR8.h **** 				#if (defined(USB_SERIES_6_AVR) || defined(USB_SERIES_7_AVR))
 225:../../tmk_core/protocol/lufa/lufa-abcminiuser/LUFA/Drivers/USB/Core/AVR8/../AVR8/Endpoint_AVR8.h **** 					return UEBCX;
 226:../../tmk_core/protocol/lufa/lufa-abcminiuser/LUFA/Drivers/USB/Core/AVR8/../AVR8/Endpoint_AVR8.h **** 				#elif defined(USB_SERIES_4_AVR)
 227:../../tmk_core/protocol/lufa/lufa-abcminiuser/LUFA/Drivers/USB/Core/AVR8/../AVR8/Endpoint_AVR8.h **** 					return (((uint16_t)UEBCHX << 8) | UEBCLX);
 228:../../tmk_core/protocol/lufa/lufa-abcminiuser/LUFA/Drivers/USB/Core/AVR8/../AVR8/Endpoint_AVR8.h **** 				#elif defined(USB_SERIES_2_AVR)
 229:../../tmk_core/protocol/lufa/lufa-abcminiuser/LUFA/Drivers/USB/Core/AVR8/../AVR8/Endpoint_AVR8.h **** 					return UEBCLX;
 230:../../tmk_core/protocol/lufa/lufa-abcminiuser/LUFA/Drivers/USB/Core/AVR8/../AVR8/Endpoint_AVR8.h **** 				#endif
 231:../../tmk_core/protocol/lufa/lufa-abcminiuser/LUFA/Drivers/USB/Core/AVR8/../AVR8/Endpoint_AVR8.h **** 			}
 232:../../tmk_core/protocol/lufa/lufa-abcminiuser/LUFA/Drivers/USB/Core/AVR8/../AVR8/Endpoint_AVR8.h **** 
 233:../../tmk_core/protocol/lufa/lufa-abcminiuser/LUFA/Drivers/USB/Core/AVR8/../AVR8/Endpoint_AVR8.h **** 			/** Determines the currently selected endpoint's direction.
 234:../../tmk_core/protocol/lufa/lufa-abcminiuser/LUFA/Drivers/USB/Core/AVR8/../AVR8/Endpoint_AVR8.h **** 			 *
 235:../../tmk_core/protocol/lufa/lufa-abcminiuser/LUFA/Drivers/USB/Core/AVR8/../AVR8/Endpoint_AVR8.h **** 			 *  \return The currently selected endpoint's direction, as a \c ENDPOINT_DIR_* mask.
 236:../../tmk_core/protocol/lufa/lufa-abcminiuser/LUFA/Drivers/USB/Core/AVR8/../AVR8/Endpoint_AVR8.h **** 			 */
 237:../../tmk_core/protocol/lufa/lufa-abcminiuser/LUFA/Drivers/USB/Core/AVR8/../AVR8/Endpoint_AVR8.h **** 			static inline uint8_t Endpoint_GetEndpointDirection(void) ATTR_WARN_UNUSED_RESULT ATTR_ALWAYS_IN
 238:../../tmk_core/protocol/lufa/lufa-abcminiuser/LUFA/Drivers/USB/Core/AVR8/../AVR8/Endpoint_AVR8.h **** 			static inline uint8_t Endpoint_GetEndpointDirection(void)
 239:../../tmk_core/protocol/lufa/lufa-abcminiuser/LUFA/Drivers/USB/Core/AVR8/../AVR8/Endpoint_AVR8.h **** 			{
 240:../../tmk_core/protocol/lufa/lufa-abcminiuser/LUFA/Drivers/USB/Core/AVR8/../AVR8/Endpoint_AVR8.h **** 				return (UECFG0X & (1 << EPDIR)) ? ENDPOINT_DIR_IN : ENDPOINT_DIR_OUT;
 241:../../tmk_core/protocol/lufa/lufa-abcminiuser/LUFA/Drivers/USB/Core/AVR8/../AVR8/Endpoint_AVR8.h **** 			}
 242:../../tmk_core/protocol/lufa/lufa-abcminiuser/LUFA/Drivers/USB/Core/AVR8/../AVR8/Endpoint_AVR8.h **** 
 243:../../tmk_core/protocol/lufa/lufa-abcminiuser/LUFA/Drivers/USB/Core/AVR8/../AVR8/Endpoint_AVR8.h **** 			/** Get the endpoint address of the currently selected endpoint. This is typically used to save
 244:../../tmk_core/protocol/lufa/lufa-abcminiuser/LUFA/Drivers/USB/Core/AVR8/../AVR8/Endpoint_AVR8.h **** 			 *  the currently selected endpoint so that it can be restored after another endpoint has been
 245:../../tmk_core/protocol/lufa/lufa-abcminiuser/LUFA/Drivers/USB/Core/AVR8/../AVR8/Endpoint_AVR8.h **** 			 *  manipulated.
 246:../../tmk_core/protocol/lufa/lufa-abcminiuser/LUFA/Drivers/USB/Core/AVR8/../AVR8/Endpoint_AVR8.h **** 			 *
 247:../../tmk_core/protocol/lufa/lufa-abcminiuser/LUFA/Drivers/USB/Core/AVR8/../AVR8/Endpoint_AVR8.h **** 			 *  \return Index of the currently selected endpoint.
 248:../../tmk_core/protocol/lufa/lufa-abcminiuser/LUFA/Drivers/USB/Core/AVR8/../AVR8/Endpoint_AVR8.h **** 			 */
 249:../../tmk_core/protocol/lufa/lufa-abcminiuser/LUFA/Drivers/USB/Core/AVR8/../AVR8/Endpoint_AVR8.h **** 			static inline uint8_t Endpoint_GetCurrentEndpoint(void) ATTR_WARN_UNUSED_RESULT ATTR_ALWAYS_INLI
 250:../../tmk_core/protocol/lufa/lufa-abcminiuser/LUFA/Drivers/USB/Core/AVR8/../AVR8/Endpoint_AVR8.h **** 			static inline uint8_t Endpoint_GetCurrentEndpoint(void)
 251:../../tmk_core/protocol/lufa/lufa-abcminiuser/LUFA/Drivers/USB/Core/AVR8/../AVR8/Endpoint_AVR8.h **** 			{
 252:../../tmk_core/protocol/lufa/lufa-abcminiuser/LUFA/Drivers/USB/Core/AVR8/../AVR8/Endpoint_AVR8.h **** 				#if !defined(CONTROL_ONLY_DEVICE)
 253:../../tmk_core/protocol/lufa/lufa-abcminiuser/LUFA/Drivers/USB/Core/AVR8/../AVR8/Endpoint_AVR8.h **** 					return ((UENUM & ENDPOINT_EPNUM_MASK) | Endpoint_GetEndpointDirection());
 254:../../tmk_core/protocol/lufa/lufa-abcminiuser/LUFA/Drivers/USB/Core/AVR8/../AVR8/Endpoint_AVR8.h **** 				#else
 255:../../tmk_core/protocol/lufa/lufa-abcminiuser/LUFA/Drivers/USB/Core/AVR8/../AVR8/Endpoint_AVR8.h **** 					return ENDPOINT_CONTROLEP;
 256:../../tmk_core/protocol/lufa/lufa-abcminiuser/LUFA/Drivers/USB/Core/AVR8/../AVR8/Endpoint_AVR8.h **** 				#endif
 257:../../tmk_core/protocol/lufa/lufa-abcminiuser/LUFA/Drivers/USB/Core/AVR8/../AVR8/Endpoint_AVR8.h **** 			}
 258:../../tmk_core/protocol/lufa/lufa-abcminiuser/LUFA/Drivers/USB/Core/AVR8/../AVR8/Endpoint_AVR8.h **** 
 259:../../tmk_core/protocol/lufa/lufa-abcminiuser/LUFA/Drivers/USB/Core/AVR8/../AVR8/Endpoint_AVR8.h **** 			/** Selects the given endpoint address.
 260:../../tmk_core/protocol/lufa/lufa-abcminiuser/LUFA/Drivers/USB/Core/AVR8/../AVR8/Endpoint_AVR8.h **** 			 *
 261:../../tmk_core/protocol/lufa/lufa-abcminiuser/LUFA/Drivers/USB/Core/AVR8/../AVR8/Endpoint_AVR8.h **** 			 *  Any endpoint operations which do not require the endpoint address to be indicated will opera
 262:../../tmk_core/protocol/lufa/lufa-abcminiuser/LUFA/Drivers/USB/Core/AVR8/../AVR8/Endpoint_AVR8.h **** 			 *  the currently selected endpoint.
 263:../../tmk_core/protocol/lufa/lufa-abcminiuser/LUFA/Drivers/USB/Core/AVR8/../AVR8/Endpoint_AVR8.h **** 			 *
 264:../../tmk_core/protocol/lufa/lufa-abcminiuser/LUFA/Drivers/USB/Core/AVR8/../AVR8/Endpoint_AVR8.h **** 			 *  \param[in] Address Endpoint address to select.
 265:../../tmk_core/protocol/lufa/lufa-abcminiuser/LUFA/Drivers/USB/Core/AVR8/../AVR8/Endpoint_AVR8.h **** 			 */
 266:../../tmk_core/protocol/lufa/lufa-abcminiuser/LUFA/Drivers/USB/Core/AVR8/../AVR8/Endpoint_AVR8.h **** 			static inline void Endpoint_SelectEndpoint(const uint8_t Address) ATTR_ALWAYS_INLINE;
 267:../../tmk_core/protocol/lufa/lufa-abcminiuser/LUFA/Drivers/USB/Core/AVR8/../AVR8/Endpoint_AVR8.h **** 			static inline void Endpoint_SelectEndpoint(const uint8_t Address)
  78               		.loc 2 267 23 view .LVU12
  79               	.LBB276:
 268:../../tmk_core/protocol/lufa/lufa-abcminiuser/LUFA/Drivers/USB/Core/AVR8/../AVR8/Endpoint_AVR8.h **** 			{
 269:../../tmk_core/protocol/lufa/lufa-abcminiuser/LUFA/Drivers/USB/Core/AVR8/../AVR8/Endpoint_AVR8.h **** 				#if !defined(CONTROL_ONLY_DEVICE)
 270:../../tmk_core/protocol/lufa/lufa-abcminiuser/LUFA/Drivers/USB/Core/AVR8/../AVR8/Endpoint_AVR8.h **** 					UENUM = (Address & ENDPOINT_EPNUM_MASK);
  80               		.loc 2 270 6 view .LVU13
  81               		.loc 2 270 12 is_stmt 0 view .LVU14
  82 001e 9093 E900 		sts 233,r25
  83               	.LVL4:
  84               		.loc 2 270 12 view .LVU15
  85 0022 8FEF      		ldi r24,lo8(-1)
  86               	.LVL5:
  87               	.L4:
  88               		.loc 2 270 12 view .LVU16
  89               	.LBE276:
  90               	.LBE275:
  91               	.LBB277:
  92               	.LBI277:
 271:../../tmk_core/protocol/lufa/lufa-abcminiuser/LUFA/Drivers/USB/Core/AVR8/../AVR8/Endpoint_AVR8.h **** 				#endif
 272:../../tmk_core/protocol/lufa/lufa-abcminiuser/LUFA/Drivers/USB/Core/AVR8/../AVR8/Endpoint_AVR8.h **** 			}
 273:../../tmk_core/protocol/lufa/lufa-abcminiuser/LUFA/Drivers/USB/Core/AVR8/../AVR8/Endpoint_AVR8.h **** 
 274:../../tmk_core/protocol/lufa/lufa-abcminiuser/LUFA/Drivers/USB/Core/AVR8/../AVR8/Endpoint_AVR8.h **** 			/** Resets the endpoint bank FIFO. This clears all the endpoint banks and resets the USB control
 275:../../tmk_core/protocol/lufa/lufa-abcminiuser/LUFA/Drivers/USB/Core/AVR8/../AVR8/Endpoint_AVR8.h **** 			 *  data In and Out pointers to the bank's contents.
 276:../../tmk_core/protocol/lufa/lufa-abcminiuser/LUFA/Drivers/USB/Core/AVR8/../AVR8/Endpoint_AVR8.h **** 			 *
 277:../../tmk_core/protocol/lufa/lufa-abcminiuser/LUFA/Drivers/USB/Core/AVR8/../AVR8/Endpoint_AVR8.h **** 			 *  \param[in] Address  Endpoint address whose FIFO buffers are to be reset.
 278:../../tmk_core/protocol/lufa/lufa-abcminiuser/LUFA/Drivers/USB/Core/AVR8/../AVR8/Endpoint_AVR8.h **** 			 */
 279:../../tmk_core/protocol/lufa/lufa-abcminiuser/LUFA/Drivers/USB/Core/AVR8/../AVR8/Endpoint_AVR8.h **** 			static inline void Endpoint_ResetEndpoint(const uint8_t Address) ATTR_ALWAYS_INLINE;
 280:../../tmk_core/protocol/lufa/lufa-abcminiuser/LUFA/Drivers/USB/Core/AVR8/../AVR8/Endpoint_AVR8.h **** 			static inline void Endpoint_ResetEndpoint(const uint8_t Address)
 281:../../tmk_core/protocol/lufa/lufa-abcminiuser/LUFA/Drivers/USB/Core/AVR8/../AVR8/Endpoint_AVR8.h **** 			{
 282:../../tmk_core/protocol/lufa/lufa-abcminiuser/LUFA/Drivers/USB/Core/AVR8/../AVR8/Endpoint_AVR8.h **** 				UERST = (1 << (Address & ENDPOINT_EPNUM_MASK));
 283:../../tmk_core/protocol/lufa/lufa-abcminiuser/LUFA/Drivers/USB/Core/AVR8/../AVR8/Endpoint_AVR8.h **** 				UERST = 0;
 284:../../tmk_core/protocol/lufa/lufa-abcminiuser/LUFA/Drivers/USB/Core/AVR8/../AVR8/Endpoint_AVR8.h **** 			}
 285:../../tmk_core/protocol/lufa/lufa-abcminiuser/LUFA/Drivers/USB/Core/AVR8/../AVR8/Endpoint_AVR8.h **** 
 286:../../tmk_core/protocol/lufa/lufa-abcminiuser/LUFA/Drivers/USB/Core/AVR8/../AVR8/Endpoint_AVR8.h **** 			/** Enables the currently selected endpoint so that data can be sent and received through it to
 287:../../tmk_core/protocol/lufa/lufa-abcminiuser/LUFA/Drivers/USB/Core/AVR8/../AVR8/Endpoint_AVR8.h **** 			 *  and from a host.
 288:../../tmk_core/protocol/lufa/lufa-abcminiuser/LUFA/Drivers/USB/Core/AVR8/../AVR8/Endpoint_AVR8.h **** 			 *
 289:../../tmk_core/protocol/lufa/lufa-abcminiuser/LUFA/Drivers/USB/Core/AVR8/../AVR8/Endpoint_AVR8.h **** 			 *  \note Endpoints must first be configured properly via \ref Endpoint_ConfigureEndpoint().
 290:../../tmk_core/protocol/lufa/lufa-abcminiuser/LUFA/Drivers/USB/Core/AVR8/../AVR8/Endpoint_AVR8.h **** 			 */
 291:../../tmk_core/protocol/lufa/lufa-abcminiuser/LUFA/Drivers/USB/Core/AVR8/../AVR8/Endpoint_AVR8.h **** 			static inline void Endpoint_EnableEndpoint(void) ATTR_ALWAYS_INLINE;
 292:../../tmk_core/protocol/lufa/lufa-abcminiuser/LUFA/Drivers/USB/Core/AVR8/../AVR8/Endpoint_AVR8.h **** 			static inline void Endpoint_EnableEndpoint(void)
 293:../../tmk_core/protocol/lufa/lufa-abcminiuser/LUFA/Drivers/USB/Core/AVR8/../AVR8/Endpoint_AVR8.h **** 			{
 294:../../tmk_core/protocol/lufa/lufa-abcminiuser/LUFA/Drivers/USB/Core/AVR8/../AVR8/Endpoint_AVR8.h **** 				UECONX |= (1 << EPEN);
 295:../../tmk_core/protocol/lufa/lufa-abcminiuser/LUFA/Drivers/USB/Core/AVR8/../AVR8/Endpoint_AVR8.h **** 			}
 296:../../tmk_core/protocol/lufa/lufa-abcminiuser/LUFA/Drivers/USB/Core/AVR8/../AVR8/Endpoint_AVR8.h **** 
 297:../../tmk_core/protocol/lufa/lufa-abcminiuser/LUFA/Drivers/USB/Core/AVR8/../AVR8/Endpoint_AVR8.h **** 			/** Disables the currently selected endpoint so that data cannot be sent and received through it
 298:../../tmk_core/protocol/lufa/lufa-abcminiuser/LUFA/Drivers/USB/Core/AVR8/../AVR8/Endpoint_AVR8.h **** 			 *  to and from a host.
 299:../../tmk_core/protocol/lufa/lufa-abcminiuser/LUFA/Drivers/USB/Core/AVR8/../AVR8/Endpoint_AVR8.h **** 			 */
 300:../../tmk_core/protocol/lufa/lufa-abcminiuser/LUFA/Drivers/USB/Core/AVR8/../AVR8/Endpoint_AVR8.h **** 			static inline void Endpoint_DisableEndpoint(void) ATTR_ALWAYS_INLINE;
 301:../../tmk_core/protocol/lufa/lufa-abcminiuser/LUFA/Drivers/USB/Core/AVR8/../AVR8/Endpoint_AVR8.h **** 			static inline void Endpoint_DisableEndpoint(void)
 302:../../tmk_core/protocol/lufa/lufa-abcminiuser/LUFA/Drivers/USB/Core/AVR8/../AVR8/Endpoint_AVR8.h **** 			{
 303:../../tmk_core/protocol/lufa/lufa-abcminiuser/LUFA/Drivers/USB/Core/AVR8/../AVR8/Endpoint_AVR8.h **** 				UECONX &= ~(1 << EPEN);
 304:../../tmk_core/protocol/lufa/lufa-abcminiuser/LUFA/Drivers/USB/Core/AVR8/../AVR8/Endpoint_AVR8.h **** 			}
 305:../../tmk_core/protocol/lufa/lufa-abcminiuser/LUFA/Drivers/USB/Core/AVR8/../AVR8/Endpoint_AVR8.h **** 
 306:../../tmk_core/protocol/lufa/lufa-abcminiuser/LUFA/Drivers/USB/Core/AVR8/../AVR8/Endpoint_AVR8.h **** 			/** Determines if the currently selected endpoint is enabled, but not necessarily configured.
 307:../../tmk_core/protocol/lufa/lufa-abcminiuser/LUFA/Drivers/USB/Core/AVR8/../AVR8/Endpoint_AVR8.h **** 			 *
 308:../../tmk_core/protocol/lufa/lufa-abcminiuser/LUFA/Drivers/USB/Core/AVR8/../AVR8/Endpoint_AVR8.h **** 			 * \return Boolean \c true if the currently selected endpoint is enabled, \c false otherwise.
 309:../../tmk_core/protocol/lufa/lufa-abcminiuser/LUFA/Drivers/USB/Core/AVR8/../AVR8/Endpoint_AVR8.h **** 			 */
 310:../../tmk_core/protocol/lufa/lufa-abcminiuser/LUFA/Drivers/USB/Core/AVR8/../AVR8/Endpoint_AVR8.h **** 			static inline bool Endpoint_IsEnabled(void) ATTR_WARN_UNUSED_RESULT ATTR_ALWAYS_INLINE;
 311:../../tmk_core/protocol/lufa/lufa-abcminiuser/LUFA/Drivers/USB/Core/AVR8/../AVR8/Endpoint_AVR8.h **** 			static inline bool Endpoint_IsEnabled(void)
 312:../../tmk_core/protocol/lufa/lufa-abcminiuser/LUFA/Drivers/USB/Core/AVR8/../AVR8/Endpoint_AVR8.h **** 			{
 313:../../tmk_core/protocol/lufa/lufa-abcminiuser/LUFA/Drivers/USB/Core/AVR8/../AVR8/Endpoint_AVR8.h **** 				return ((UECONX & (1 << EPEN)) ? true : false);
 314:../../tmk_core/protocol/lufa/lufa-abcminiuser/LUFA/Drivers/USB/Core/AVR8/../AVR8/Endpoint_AVR8.h **** 			}
 315:../../tmk_core/protocol/lufa/lufa-abcminiuser/LUFA/Drivers/USB/Core/AVR8/../AVR8/Endpoint_AVR8.h **** 
 316:../../tmk_core/protocol/lufa/lufa-abcminiuser/LUFA/Drivers/USB/Core/AVR8/../AVR8/Endpoint_AVR8.h **** 			/** Retrieves the number of busy banks in the currently selected endpoint, which have been queue
 317:../../tmk_core/protocol/lufa/lufa-abcminiuser/LUFA/Drivers/USB/Core/AVR8/../AVR8/Endpoint_AVR8.h **** 			 *  transmission via the \ref Endpoint_ClearIN() command, or are awaiting acknowledgment via the
 318:../../tmk_core/protocol/lufa/lufa-abcminiuser/LUFA/Drivers/USB/Core/AVR8/../AVR8/Endpoint_AVR8.h **** 			 *  \ref Endpoint_ClearOUT() command.
 319:../../tmk_core/protocol/lufa/lufa-abcminiuser/LUFA/Drivers/USB/Core/AVR8/../AVR8/Endpoint_AVR8.h **** 			 *
 320:../../tmk_core/protocol/lufa/lufa-abcminiuser/LUFA/Drivers/USB/Core/AVR8/../AVR8/Endpoint_AVR8.h **** 			 *  \ingroup Group_EndpointPacketManagement_AVR8
 321:../../tmk_core/protocol/lufa/lufa-abcminiuser/LUFA/Drivers/USB/Core/AVR8/../AVR8/Endpoint_AVR8.h **** 			 *
 322:../../tmk_core/protocol/lufa/lufa-abcminiuser/LUFA/Drivers/USB/Core/AVR8/../AVR8/Endpoint_AVR8.h **** 			 *  \return Total number of busy banks in the selected endpoint.
 323:../../tmk_core/protocol/lufa/lufa-abcminiuser/LUFA/Drivers/USB/Core/AVR8/../AVR8/Endpoint_AVR8.h **** 			 */
 324:../../tmk_core/protocol/lufa/lufa-abcminiuser/LUFA/Drivers/USB/Core/AVR8/../AVR8/Endpoint_AVR8.h **** 			static inline uint8_t Endpoint_GetBusyBanks(void) ATTR_ALWAYS_INLINE ATTR_WARN_UNUSED_RESULT;
 325:../../tmk_core/protocol/lufa/lufa-abcminiuser/LUFA/Drivers/USB/Core/AVR8/../AVR8/Endpoint_AVR8.h **** 			static inline uint8_t Endpoint_GetBusyBanks(void)
 326:../../tmk_core/protocol/lufa/lufa-abcminiuser/LUFA/Drivers/USB/Core/AVR8/../AVR8/Endpoint_AVR8.h **** 			{
 327:../../tmk_core/protocol/lufa/lufa-abcminiuser/LUFA/Drivers/USB/Core/AVR8/../AVR8/Endpoint_AVR8.h **** 				return (UESTA0X & (0x03 << NBUSYBK0));
 328:../../tmk_core/protocol/lufa/lufa-abcminiuser/LUFA/Drivers/USB/Core/AVR8/../AVR8/Endpoint_AVR8.h **** 			}
 329:../../tmk_core/protocol/lufa/lufa-abcminiuser/LUFA/Drivers/USB/Core/AVR8/../AVR8/Endpoint_AVR8.h **** 
 330:../../tmk_core/protocol/lufa/lufa-abcminiuser/LUFA/Drivers/USB/Core/AVR8/../AVR8/Endpoint_AVR8.h **** 			/** Aborts all pending IN transactions on the currently selected endpoint, once the bank
 331:../../tmk_core/protocol/lufa/lufa-abcminiuser/LUFA/Drivers/USB/Core/AVR8/../AVR8/Endpoint_AVR8.h **** 			 *  has been queued for transmission to the host via \ref Endpoint_ClearIN(). This function
 332:../../tmk_core/protocol/lufa/lufa-abcminiuser/LUFA/Drivers/USB/Core/AVR8/../AVR8/Endpoint_AVR8.h **** 			 *  will terminate all queued transactions, resetting the endpoint banks ready for a new
 333:../../tmk_core/protocol/lufa/lufa-abcminiuser/LUFA/Drivers/USB/Core/AVR8/../AVR8/Endpoint_AVR8.h **** 			 *  packet.
 334:../../tmk_core/protocol/lufa/lufa-abcminiuser/LUFA/Drivers/USB/Core/AVR8/../AVR8/Endpoint_AVR8.h **** 			 *
 335:../../tmk_core/protocol/lufa/lufa-abcminiuser/LUFA/Drivers/USB/Core/AVR8/../AVR8/Endpoint_AVR8.h **** 			 *  \ingroup Group_EndpointPacketManagement_AVR8
 336:../../tmk_core/protocol/lufa/lufa-abcminiuser/LUFA/Drivers/USB/Core/AVR8/../AVR8/Endpoint_AVR8.h **** 			 */
 337:../../tmk_core/protocol/lufa/lufa-abcminiuser/LUFA/Drivers/USB/Core/AVR8/../AVR8/Endpoint_AVR8.h **** 			static inline void Endpoint_AbortPendingIN(void)
 338:../../tmk_core/protocol/lufa/lufa-abcminiuser/LUFA/Drivers/USB/Core/AVR8/../AVR8/Endpoint_AVR8.h **** 			{
 339:../../tmk_core/protocol/lufa/lufa-abcminiuser/LUFA/Drivers/USB/Core/AVR8/../AVR8/Endpoint_AVR8.h **** 				while (Endpoint_GetBusyBanks() != 0)
 340:../../tmk_core/protocol/lufa/lufa-abcminiuser/LUFA/Drivers/USB/Core/AVR8/../AVR8/Endpoint_AVR8.h **** 				{
 341:../../tmk_core/protocol/lufa/lufa-abcminiuser/LUFA/Drivers/USB/Core/AVR8/../AVR8/Endpoint_AVR8.h **** 					UEINTX |= (1 << RXOUTI);
 342:../../tmk_core/protocol/lufa/lufa-abcminiuser/LUFA/Drivers/USB/Core/AVR8/../AVR8/Endpoint_AVR8.h **** 					while (UEINTX & (1 << RXOUTI));
 343:../../tmk_core/protocol/lufa/lufa-abcminiuser/LUFA/Drivers/USB/Core/AVR8/../AVR8/Endpoint_AVR8.h **** 				}
 344:../../tmk_core/protocol/lufa/lufa-abcminiuser/LUFA/Drivers/USB/Core/AVR8/../AVR8/Endpoint_AVR8.h **** 			}
 345:../../tmk_core/protocol/lufa/lufa-abcminiuser/LUFA/Drivers/USB/Core/AVR8/../AVR8/Endpoint_AVR8.h **** 
 346:../../tmk_core/protocol/lufa/lufa-abcminiuser/LUFA/Drivers/USB/Core/AVR8/../AVR8/Endpoint_AVR8.h **** 			/** Determines if the currently selected endpoint may be read from (if data is waiting in the en
 347:../../tmk_core/protocol/lufa/lufa-abcminiuser/LUFA/Drivers/USB/Core/AVR8/../AVR8/Endpoint_AVR8.h **** 			 *  bank and the endpoint is an OUT direction, or if the bank is not yet full if the endpoint is
 348:../../tmk_core/protocol/lufa/lufa-abcminiuser/LUFA/Drivers/USB/Core/AVR8/../AVR8/Endpoint_AVR8.h **** 			 *  direction). This function will return false if an error has occurred in the endpoint, if the
 349:../../tmk_core/protocol/lufa/lufa-abcminiuser/LUFA/Drivers/USB/Core/AVR8/../AVR8/Endpoint_AVR8.h **** 			 *  is an OUT direction and no packet (or an empty packet) has been received, or if the endpoint
 350:../../tmk_core/protocol/lufa/lufa-abcminiuser/LUFA/Drivers/USB/Core/AVR8/../AVR8/Endpoint_AVR8.h **** 			 *  direction and the endpoint bank is full.
 351:../../tmk_core/protocol/lufa/lufa-abcminiuser/LUFA/Drivers/USB/Core/AVR8/../AVR8/Endpoint_AVR8.h **** 			 *
 352:../../tmk_core/protocol/lufa/lufa-abcminiuser/LUFA/Drivers/USB/Core/AVR8/../AVR8/Endpoint_AVR8.h **** 			 *  \ingroup Group_EndpointPacketManagement_AVR8
 353:../../tmk_core/protocol/lufa/lufa-abcminiuser/LUFA/Drivers/USB/Core/AVR8/../AVR8/Endpoint_AVR8.h **** 			 *
 354:../../tmk_core/protocol/lufa/lufa-abcminiuser/LUFA/Drivers/USB/Core/AVR8/../AVR8/Endpoint_AVR8.h **** 			 *  \return Boolean \c true if the currently selected endpoint may be read from or written to, d
 355:../../tmk_core/protocol/lufa/lufa-abcminiuser/LUFA/Drivers/USB/Core/AVR8/../AVR8/Endpoint_AVR8.h **** 			 *          on its direction.
 356:../../tmk_core/protocol/lufa/lufa-abcminiuser/LUFA/Drivers/USB/Core/AVR8/../AVR8/Endpoint_AVR8.h **** 			 */
 357:../../tmk_core/protocol/lufa/lufa-abcminiuser/LUFA/Drivers/USB/Core/AVR8/../AVR8/Endpoint_AVR8.h **** 			static inline bool Endpoint_IsReadWriteAllowed(void) ATTR_WARN_UNUSED_RESULT ATTR_ALWAYS_INLINE;
 358:../../tmk_core/protocol/lufa/lufa-abcminiuser/LUFA/Drivers/USB/Core/AVR8/../AVR8/Endpoint_AVR8.h **** 			static inline bool Endpoint_IsReadWriteAllowed(void)
  93               		.loc 2 358 23 is_stmt 1 view .LVU17
  94               	.LBB278:
 359:../../tmk_core/protocol/lufa/lufa-abcminiuser/LUFA/Drivers/USB/Core/AVR8/../AVR8/Endpoint_AVR8.h **** 			{
 360:../../tmk_core/protocol/lufa/lufa-abcminiuser/LUFA/Drivers/USB/Core/AVR8/../AVR8/Endpoint_AVR8.h **** 				return ((UEINTX & (1 << RWAL)) ? true : false);
  95               		.loc 2 360 5 view .LVU18
  96               		.loc 2 360 14 is_stmt 0 view .LVU19
  97 0024 9091 E800 		lds r25,232
  98 0028 8150      		subi r24,lo8(-(-1))
  99               	.LVL6:
 100               		.loc 2 360 14 view .LVU20
 101               	.LBE278:
 102               	.LBE277:
 609:../../tmk_core/protocol/lufa/lufa.c **** 
 610:../../tmk_core/protocol/lufa/lufa.c ****     /* Check if write ready for a polling interval around 10ms */
 611:../../tmk_core/protocol/lufa/lufa.c ****     while (timeout-- && !Endpoint_IsReadWriteAllowed()) _delay_us(40);
 103               		.loc 1 611 22 view .LVU21
 104 002a 95FD      		sbrc r25,5
 105 002c 00C0      		rjmp .L5
 106               		.loc 1 611 57 is_stmt 1 view .LVU22
 107               	.LVL7:
 108               	.LBB279:
 109               	.LBI279:
 110               		.file 3 "/usr/avr/include/util/delay.h"
   1:/usr/avr/include/util/delay.h **** /* Copyright (c) 2002, Marek Michalkiewicz
   2:/usr/avr/include/util/delay.h ****    Copyright (c) 2004,2005,2007 Joerg Wunsch
   3:/usr/avr/include/util/delay.h ****    Copyright (c) 2007  Florin-Viorel Petrov
   4:/usr/avr/include/util/delay.h ****    All rights reserved.
   5:/usr/avr/include/util/delay.h **** 
   6:/usr/avr/include/util/delay.h ****    Redistribution and use in source and binary forms, with or without
   7:/usr/avr/include/util/delay.h ****    modification, are permitted provided that the following conditions are met:
   8:/usr/avr/include/util/delay.h **** 
   9:/usr/avr/include/util/delay.h ****    * Redistributions of source code must retain the above copyright
  10:/usr/avr/include/util/delay.h ****      notice, this list of conditions and the following disclaimer.
  11:/usr/avr/include/util/delay.h **** 
  12:/usr/avr/include/util/delay.h ****    * Redistributions in binary form must reproduce the above copyright
  13:/usr/avr/include/util/delay.h ****      notice, this list of conditions and the following disclaimer in
  14:/usr/avr/include/util/delay.h ****      the documentation and/or other materials provided with the
  15:/usr/avr/include/util/delay.h ****      distribution.
  16:/usr/avr/include/util/delay.h **** 
  17:/usr/avr/include/util/delay.h ****    * Neither the name of the copyright holders nor the names of
  18:/usr/avr/include/util/delay.h ****      contributors may be used to endorse or promote products derived
  19:/usr/avr/include/util/delay.h ****      from this software without specific prior written permission.
  20:/usr/avr/include/util/delay.h **** 
  21:/usr/avr/include/util/delay.h ****   THIS SOFTWARE IS PROVIDED BY THE COPYRIGHT HOLDERS AND CONTRIBUTORS "AS IS"
  22:/usr/avr/include/util/delay.h ****   AND ANY EXPRESS OR IMPLIED WARRANTIES, INCLUDING, BUT NOT LIMITED TO, THE
  23:/usr/avr/include/util/delay.h ****   IMPLIED WARRANTIES OF MERCHANTABILITY AND FITNESS FOR A PARTICULAR PURPOSE
  24:/usr/avr/include/util/delay.h ****   ARE DISCLAIMED. IN NO EVENT SHALL THE COPYRIGHT OWNER OR CONTRIBUTORS BE
  25:/usr/avr/include/util/delay.h ****   LIABLE FOR ANY DIRECT, INDIRECT, INCIDENTAL, SPECIAL, EXEMPLARY, OR
  26:/usr/avr/include/util/delay.h ****   CONSEQUENTIAL DAMAGES (INCLUDING, BUT NOT LIMITED TO, PROCUREMENT OF
  27:/usr/avr/include/util/delay.h ****   SUBSTITUTE GOODS OR SERVICES; LOSS OF USE, DATA, OR PROFITS; OR BUSINESS
  28:/usr/avr/include/util/delay.h ****   INTERRUPTION) HOWEVER CAUSED AND ON ANY THEORY OF LIABILITY, WHETHER IN
  29:/usr/avr/include/util/delay.h ****   CONTRACT, STRICT LIABILITY, OR TORT (INCLUDING NEGLIGENCE OR OTHERWISE)
  30:/usr/avr/include/util/delay.h ****   ARISING IN ANY WAY OUT OF THE USE OF THIS SOFTWARE, EVEN IF ADVISED OF THE
  31:/usr/avr/include/util/delay.h ****   POSSIBILITY OF SUCH DAMAGE. */
  32:/usr/avr/include/util/delay.h **** 
  33:/usr/avr/include/util/delay.h **** /* $Id: delay.h.in 2506 2016-02-08 10:05:45Z joerg_wunsch $ */
  34:/usr/avr/include/util/delay.h **** 
  35:/usr/avr/include/util/delay.h **** #ifndef _UTIL_DELAY_H_
  36:/usr/avr/include/util/delay.h **** #define _UTIL_DELAY_H_ 1
  37:/usr/avr/include/util/delay.h **** 
  38:/usr/avr/include/util/delay.h **** #ifndef __DOXYGEN__
  39:/usr/avr/include/util/delay.h **** #  ifndef __HAS_DELAY_CYCLES
  40:/usr/avr/include/util/delay.h **** #    define __HAS_DELAY_CYCLES 1
  41:/usr/avr/include/util/delay.h **** #  endif
  42:/usr/avr/include/util/delay.h **** #endif  /* __DOXYGEN__ */
  43:/usr/avr/include/util/delay.h **** 
  44:/usr/avr/include/util/delay.h **** #include <inttypes.h>
  45:/usr/avr/include/util/delay.h **** #include <util/delay_basic.h>
  46:/usr/avr/include/util/delay.h **** #include <math.h>
  47:/usr/avr/include/util/delay.h **** 
  48:/usr/avr/include/util/delay.h **** /** \file */
  49:/usr/avr/include/util/delay.h **** /** \defgroup util_delay <util/delay.h>: Convenience functions for busy-wait delay loops
  50:/usr/avr/include/util/delay.h ****     \code
  51:/usr/avr/include/util/delay.h ****     #define F_CPU 1000000UL  // 1 MHz
  52:/usr/avr/include/util/delay.h ****     //#define F_CPU 14.7456E6
  53:/usr/avr/include/util/delay.h ****     #include <util/delay.h>
  54:/usr/avr/include/util/delay.h ****     \endcode
  55:/usr/avr/include/util/delay.h **** 
  56:/usr/avr/include/util/delay.h ****     \note As an alternative method, it is possible to pass the
  57:/usr/avr/include/util/delay.h ****     F_CPU macro down to the compiler from the Makefile.
  58:/usr/avr/include/util/delay.h ****     Obviously, in that case, no \c \#define statement should be
  59:/usr/avr/include/util/delay.h ****     used.
  60:/usr/avr/include/util/delay.h **** 
  61:/usr/avr/include/util/delay.h ****     The functions in this header file are wrappers around the basic
  62:/usr/avr/include/util/delay.h ****     busy-wait functions from <util/delay_basic.h>.  They are meant as
  63:/usr/avr/include/util/delay.h ****     convenience functions where actual time values can be specified
  64:/usr/avr/include/util/delay.h ****     rather than a number of cycles to wait for.  The idea behind is
  65:/usr/avr/include/util/delay.h ****     that compile-time constant expressions will be eliminated by
  66:/usr/avr/include/util/delay.h ****     compiler optimization so floating-point expressions can be used
  67:/usr/avr/include/util/delay.h ****     to calculate the number of delay cycles needed based on the CPU
  68:/usr/avr/include/util/delay.h ****     frequency passed by the macro F_CPU.
  69:/usr/avr/include/util/delay.h **** 
  70:/usr/avr/include/util/delay.h ****     \note In order for these functions to work as intended, compiler
  71:/usr/avr/include/util/delay.h ****     optimizations <em>must</em> be enabled, and the delay time
  72:/usr/avr/include/util/delay.h ****     <em>must</em> be an expression that is a known constant at
  73:/usr/avr/include/util/delay.h ****     compile-time.  If these requirements are not met, the resulting
  74:/usr/avr/include/util/delay.h ****     delay will be much longer (and basically unpredictable), and
  75:/usr/avr/include/util/delay.h ****     applications that otherwise do not use floating-point calculations
  76:/usr/avr/include/util/delay.h ****     will experience severe code bloat by the floating-point library
  77:/usr/avr/include/util/delay.h ****     routines linked into the application.
  78:/usr/avr/include/util/delay.h **** 
  79:/usr/avr/include/util/delay.h ****     The functions available allow the specification of microsecond, and
  80:/usr/avr/include/util/delay.h ****     millisecond delays directly, using the application-supplied macro
  81:/usr/avr/include/util/delay.h ****     F_CPU as the CPU clock frequency (in Hertz).
  82:/usr/avr/include/util/delay.h **** 
  83:/usr/avr/include/util/delay.h **** */
  84:/usr/avr/include/util/delay.h **** 
  85:/usr/avr/include/util/delay.h **** #if !defined(__DOXYGEN__)
  86:/usr/avr/include/util/delay.h **** static __inline__ void _delay_us(double __us) __attribute__((__always_inline__));
  87:/usr/avr/include/util/delay.h **** static __inline__ void _delay_ms(double __ms) __attribute__((__always_inline__));
  88:/usr/avr/include/util/delay.h **** #endif
  89:/usr/avr/include/util/delay.h **** 
  90:/usr/avr/include/util/delay.h **** #ifndef F_CPU
  91:/usr/avr/include/util/delay.h **** /* prevent compiler error by supplying a default */
  92:/usr/avr/include/util/delay.h **** # warning "F_CPU not defined for <util/delay.h>"
  93:/usr/avr/include/util/delay.h **** /** \ingroup util_delay
  94:/usr/avr/include/util/delay.h ****     \def F_CPU
  95:/usr/avr/include/util/delay.h ****     \brief CPU frequency in Hz
  96:/usr/avr/include/util/delay.h **** 
  97:/usr/avr/include/util/delay.h ****     The macro F_CPU specifies the CPU frequency to be considered by
  98:/usr/avr/include/util/delay.h ****     the delay macros.  This macro is normally supplied by the
  99:/usr/avr/include/util/delay.h ****     environment (e.g. from within a project header, or the project's
 100:/usr/avr/include/util/delay.h ****     Makefile).  The value 1 MHz here is only provided as a "vanilla"
 101:/usr/avr/include/util/delay.h ****     fallback if no such user-provided definition could be found.
 102:/usr/avr/include/util/delay.h **** 
 103:/usr/avr/include/util/delay.h ****     In terms of the delay functions, the CPU frequency can be given as
 104:/usr/avr/include/util/delay.h ****     a floating-point constant (e.g. 3.6864E6 for 3.6864 MHz).
 105:/usr/avr/include/util/delay.h ****     However, the macros in <util/setbaud.h> require it to be an
 106:/usr/avr/include/util/delay.h ****     integer value.
 107:/usr/avr/include/util/delay.h ****  */
 108:/usr/avr/include/util/delay.h **** # define F_CPU 1000000UL
 109:/usr/avr/include/util/delay.h **** #endif
 110:/usr/avr/include/util/delay.h **** 
 111:/usr/avr/include/util/delay.h **** #ifndef __OPTIMIZE__
 112:/usr/avr/include/util/delay.h **** # warning "Compiler optimizations disabled; functions from <util/delay.h> won't work as designed"
 113:/usr/avr/include/util/delay.h **** #endif
 114:/usr/avr/include/util/delay.h **** 
 115:/usr/avr/include/util/delay.h **** #if __HAS_DELAY_CYCLES && defined(__OPTIMIZE__) && \
 116:/usr/avr/include/util/delay.h ****   !defined(__DELAY_BACKWARD_COMPATIBLE__) &&	   \
 117:/usr/avr/include/util/delay.h ****   __STDC_HOSTED__
 118:/usr/avr/include/util/delay.h **** #  include <math.h>
 119:/usr/avr/include/util/delay.h **** #endif
 120:/usr/avr/include/util/delay.h **** 
 121:/usr/avr/include/util/delay.h **** /**
 122:/usr/avr/include/util/delay.h ****    \ingroup util_delay
 123:/usr/avr/include/util/delay.h **** 
 124:/usr/avr/include/util/delay.h ****    Perform a delay of \c __ms milliseconds, using _delay_loop_2().
 125:/usr/avr/include/util/delay.h **** 
 126:/usr/avr/include/util/delay.h ****    The macro F_CPU is supposed to be defined to a
 127:/usr/avr/include/util/delay.h ****    constant defining the CPU clock frequency (in Hertz).
 128:/usr/avr/include/util/delay.h **** 
 129:/usr/avr/include/util/delay.h ****    The maximal possible delay is 262.14 ms / F_CPU in MHz.
 130:/usr/avr/include/util/delay.h **** 
 131:/usr/avr/include/util/delay.h ****    When the user request delay which exceed the maximum possible one,
 132:/usr/avr/include/util/delay.h ****    _delay_ms() provides a decreased resolution functionality. In this
 133:/usr/avr/include/util/delay.h ****    mode _delay_ms() will work with a resolution of 1/10 ms, providing
 134:/usr/avr/include/util/delay.h ****    delays up to 6.5535 seconds (independent from CPU frequency).  The
 135:/usr/avr/include/util/delay.h ****    user will not be informed about decreased resolution.
 136:/usr/avr/include/util/delay.h **** 
 137:/usr/avr/include/util/delay.h ****    If the avr-gcc toolchain has __builtin_avr_delay_cycles()
 138:/usr/avr/include/util/delay.h ****    support, maximal possible delay is 4294967.295 ms/ F_CPU in MHz. For
 139:/usr/avr/include/util/delay.h ****    values greater than the maximal possible delay, overflows results in
 140:/usr/avr/include/util/delay.h ****    no delay i.e., 0ms.
 141:/usr/avr/include/util/delay.h **** 
 142:/usr/avr/include/util/delay.h ****    Conversion of \c __ms into clock cycles may not always result in
 143:/usr/avr/include/util/delay.h ****    integer.  By default, the clock cycles rounded up to next
 144:/usr/avr/include/util/delay.h ****    integer. This ensures that the user gets at least \c __ms
 145:/usr/avr/include/util/delay.h ****    microseconds of delay.
 146:/usr/avr/include/util/delay.h **** 
 147:/usr/avr/include/util/delay.h ****    Alternatively, by defining the macro \c __DELAY_ROUND_DOWN__, or
 148:/usr/avr/include/util/delay.h ****    \c __DELAY_ROUND_CLOSEST__, before including this header file, the
 149:/usr/avr/include/util/delay.h ****    algorithm can be made to round down, or round to closest integer,
 150:/usr/avr/include/util/delay.h ****    respectively.
 151:/usr/avr/include/util/delay.h **** 
 152:/usr/avr/include/util/delay.h ****    \note
 153:/usr/avr/include/util/delay.h **** 
 154:/usr/avr/include/util/delay.h ****    The implementation of _delay_ms() based on
 155:/usr/avr/include/util/delay.h ****    __builtin_avr_delay_cycles() is not backward compatible with older
 156:/usr/avr/include/util/delay.h ****    implementations.  In order to get functionality backward compatible
 157:/usr/avr/include/util/delay.h ****    with previous versions, the macro \c "__DELAY_BACKWARD_COMPATIBLE__"
 158:/usr/avr/include/util/delay.h ****    must be defined before including this header file. Also, the
 159:/usr/avr/include/util/delay.h ****    backward compatible algorithm will be chosen if the code is
 160:/usr/avr/include/util/delay.h ****    compiled in a <em>freestanding environment</em> (GCC option
 161:/usr/avr/include/util/delay.h ****    \c -ffreestanding), as the math functions required for rounding are
 162:/usr/avr/include/util/delay.h ****    not available to the compiler then.
 163:/usr/avr/include/util/delay.h **** 
 164:/usr/avr/include/util/delay.h ****  */
 165:/usr/avr/include/util/delay.h **** void
 166:/usr/avr/include/util/delay.h **** _delay_ms(double __ms)
 167:/usr/avr/include/util/delay.h **** {
 168:/usr/avr/include/util/delay.h **** 	double __tmp ;
 169:/usr/avr/include/util/delay.h **** #if __HAS_DELAY_CYCLES && defined(__OPTIMIZE__) && \
 170:/usr/avr/include/util/delay.h ****   !defined(__DELAY_BACKWARD_COMPATIBLE__) &&	   \
 171:/usr/avr/include/util/delay.h ****   __STDC_HOSTED__
 172:/usr/avr/include/util/delay.h **** 	uint32_t __ticks_dc;
 173:/usr/avr/include/util/delay.h **** 	extern void __builtin_avr_delay_cycles(unsigned long);
 174:/usr/avr/include/util/delay.h **** 	__tmp = ((F_CPU) / 1e3) * __ms;
 175:/usr/avr/include/util/delay.h **** 
 176:/usr/avr/include/util/delay.h **** 	#if defined(__DELAY_ROUND_DOWN__)
 177:/usr/avr/include/util/delay.h **** 		__ticks_dc = (uint32_t)fabs(__tmp);
 178:/usr/avr/include/util/delay.h **** 
 179:/usr/avr/include/util/delay.h **** 	#elif defined(__DELAY_ROUND_CLOSEST__)
 180:/usr/avr/include/util/delay.h **** 		__ticks_dc = (uint32_t)(fabs(__tmp)+0.5);
 181:/usr/avr/include/util/delay.h **** 
 182:/usr/avr/include/util/delay.h **** 	#else
 183:/usr/avr/include/util/delay.h **** 		//round up by default
 184:/usr/avr/include/util/delay.h **** 		__ticks_dc = (uint32_t)(ceil(fabs(__tmp)));
 185:/usr/avr/include/util/delay.h **** 	#endif
 186:/usr/avr/include/util/delay.h **** 
 187:/usr/avr/include/util/delay.h **** 	__builtin_avr_delay_cycles(__ticks_dc);
 188:/usr/avr/include/util/delay.h **** 
 189:/usr/avr/include/util/delay.h **** #else
 190:/usr/avr/include/util/delay.h **** 	uint16_t __ticks;
 191:/usr/avr/include/util/delay.h **** 	__tmp = ((F_CPU) / 4e3) * __ms;
 192:/usr/avr/include/util/delay.h **** 	if (__tmp < 1.0)
 193:/usr/avr/include/util/delay.h **** 		__ticks = 1;
 194:/usr/avr/include/util/delay.h **** 	else if (__tmp > 65535)
 195:/usr/avr/include/util/delay.h **** 	{
 196:/usr/avr/include/util/delay.h **** 		//	__ticks = requested delay in 1/10 ms
 197:/usr/avr/include/util/delay.h **** 		__ticks = (uint16_t) (__ms * 10.0);
 198:/usr/avr/include/util/delay.h **** 		while(__ticks)
 199:/usr/avr/include/util/delay.h **** 		{
 200:/usr/avr/include/util/delay.h **** 			// wait 1/10 ms
 201:/usr/avr/include/util/delay.h **** 			_delay_loop_2(((F_CPU) / 4e3) / 10);
 202:/usr/avr/include/util/delay.h **** 			__ticks --;
 203:/usr/avr/include/util/delay.h **** 		}
 204:/usr/avr/include/util/delay.h **** 		return;
 205:/usr/avr/include/util/delay.h **** 	}
 206:/usr/avr/include/util/delay.h **** 	else
 207:/usr/avr/include/util/delay.h **** 		__ticks = (uint16_t)__tmp;
 208:/usr/avr/include/util/delay.h **** 	_delay_loop_2(__ticks);
 209:/usr/avr/include/util/delay.h **** #endif
 210:/usr/avr/include/util/delay.h **** }
 211:/usr/avr/include/util/delay.h **** 
 212:/usr/avr/include/util/delay.h **** /**
 213:/usr/avr/include/util/delay.h ****    \ingroup util_delay
 214:/usr/avr/include/util/delay.h **** 
 215:/usr/avr/include/util/delay.h ****    Perform a delay of \c __us microseconds, using _delay_loop_1().
 216:/usr/avr/include/util/delay.h **** 
 217:/usr/avr/include/util/delay.h ****    The macro F_CPU is supposed to be defined to a
 218:/usr/avr/include/util/delay.h ****    constant defining the CPU clock frequency (in Hertz).
 219:/usr/avr/include/util/delay.h **** 
 220:/usr/avr/include/util/delay.h ****    The maximal possible delay is 768 us / F_CPU in MHz.
 221:/usr/avr/include/util/delay.h **** 
 222:/usr/avr/include/util/delay.h ****    If the user requests a delay greater than the maximal possible one,
 223:/usr/avr/include/util/delay.h ****    _delay_us() will automatically call _delay_ms() instead.  The user
 224:/usr/avr/include/util/delay.h ****    will not be informed about this case.
 225:/usr/avr/include/util/delay.h **** 
 226:/usr/avr/include/util/delay.h ****    If the avr-gcc toolchain has __builtin_avr_delay_cycles()
 227:/usr/avr/include/util/delay.h ****    support, maximal possible delay is 4294967.295 us/ F_CPU in MHz. For
 228:/usr/avr/include/util/delay.h ****    values greater than the maximal possible delay, overflow results in
 229:/usr/avr/include/util/delay.h ****    no delay i.e., 0us.
 230:/usr/avr/include/util/delay.h **** 
 231:/usr/avr/include/util/delay.h ****    Conversion of \c __us into clock cycles may not always result in
 232:/usr/avr/include/util/delay.h ****    integer.  By default, the clock cycles rounded up to next
 233:/usr/avr/include/util/delay.h ****    integer. This ensures that the user gets at least \c __us
 234:/usr/avr/include/util/delay.h ****    microseconds of delay.
 235:/usr/avr/include/util/delay.h **** 
 236:/usr/avr/include/util/delay.h ****    Alternatively, by defining the macro \c __DELAY_ROUND_DOWN__, or
 237:/usr/avr/include/util/delay.h ****    \c __DELAY_ROUND_CLOSEST__, before including this header file, the
 238:/usr/avr/include/util/delay.h ****    algorithm can be made to round down, or round to closest integer,
 239:/usr/avr/include/util/delay.h ****    respectively.
 240:/usr/avr/include/util/delay.h **** 
 241:/usr/avr/include/util/delay.h ****    \note
 242:/usr/avr/include/util/delay.h **** 
 243:/usr/avr/include/util/delay.h ****    The implementation of _delay_ms() based on
 244:/usr/avr/include/util/delay.h ****    __builtin_avr_delay_cycles() is not backward compatible with older
 245:/usr/avr/include/util/delay.h ****    implementations.  In order to get functionality backward compatible
 246:/usr/avr/include/util/delay.h ****    with previous versions, the macro \c __DELAY_BACKWARD_COMPATIBLE__
 247:/usr/avr/include/util/delay.h ****    must be defined before including this header file. Also, the
 248:/usr/avr/include/util/delay.h ****    backward compatible algorithm will be chosen if the code is
 249:/usr/avr/include/util/delay.h ****    compiled in a <em>freestanding environment</em> (GCC option
 250:/usr/avr/include/util/delay.h ****    \c -ffreestanding), as the math functions required for rounding are
 251:/usr/avr/include/util/delay.h ****    not available to the compiler then.
 252:/usr/avr/include/util/delay.h **** 
 253:/usr/avr/include/util/delay.h ****  */
 254:/usr/avr/include/util/delay.h **** void
 255:/usr/avr/include/util/delay.h **** _delay_us(double __us)
 111               		.loc 3 255 1 view .LVU23
 112               	.LBB280:
 256:/usr/avr/include/util/delay.h **** {
 257:/usr/avr/include/util/delay.h **** 	double __tmp ;
 113               		.loc 3 257 2 view .LVU24
 258:/usr/avr/include/util/delay.h **** #if __HAS_DELAY_CYCLES && defined(__OPTIMIZE__) && \
 259:/usr/avr/include/util/delay.h ****   !defined(__DELAY_BACKWARD_COMPATIBLE__) &&	   \
 260:/usr/avr/include/util/delay.h ****   __STDC_HOSTED__
 261:/usr/avr/include/util/delay.h **** 	uint32_t __ticks_dc;
 114               		.loc 3 261 2 view .LVU25
 262:/usr/avr/include/util/delay.h **** 	extern void __builtin_avr_delay_cycles(unsigned long);
 115               		.loc 3 262 2 view .LVU26
 263:/usr/avr/include/util/delay.h **** 	__tmp = ((F_CPU) / 1e6) * __us;
 116               		.loc 3 263 2 view .LVU27
 264:/usr/avr/include/util/delay.h **** 
 265:/usr/avr/include/util/delay.h **** 	#if defined(__DELAY_ROUND_DOWN__)
 266:/usr/avr/include/util/delay.h **** 		__ticks_dc = (uint32_t)fabs(__tmp);
 267:/usr/avr/include/util/delay.h **** 
 268:/usr/avr/include/util/delay.h **** 	#elif defined(__DELAY_ROUND_CLOSEST__)
 269:/usr/avr/include/util/delay.h **** 		__ticks_dc = (uint32_t)(fabs(__tmp)+0.5);
 270:/usr/avr/include/util/delay.h **** 
 271:/usr/avr/include/util/delay.h **** 	#else
 272:/usr/avr/include/util/delay.h **** 		//round up by default
 273:/usr/avr/include/util/delay.h **** 		__ticks_dc = (uint32_t)(ceil(fabs(__tmp)));
 117               		.loc 3 273 3 view .LVU28
 274:/usr/avr/include/util/delay.h **** 	#endif
 275:/usr/avr/include/util/delay.h **** 
 276:/usr/avr/include/util/delay.h **** 	__builtin_avr_delay_cycles(__ticks_dc);
 118               		.loc 3 276 2 view .LVU29
 119 002e 95ED      		ldi r25,lo8(-43)
 120 0030 9A95      	1:	dec r25
 121 0032 01F4      		brne 1b
 122 0034 0000      		nop
 123               	.LVL8:
 124               		.loc 3 276 2 is_stmt 0 view .LVU30
 125               	.LBE280:
 126               	.LBE279:
 127               		.loc 1 611 11 view .LVU31
 128 0036 8111      		cpse r24,__zero_reg__
 129 0038 00C0      		rjmp .L4
 130               	.LVL9:
 131               	.L5:
 612:../../tmk_core/protocol/lufa/lufa.c ****     if (!Endpoint_IsReadWriteAllowed()) return;
 132               		.loc 1 612 5 is_stmt 1 view .LVU32
 133               	.LBB281:
 134               	.LBI281:
 358:../../tmk_core/protocol/lufa/lufa-abcminiuser/LUFA/Drivers/USB/Core/AVR8/../AVR8/Endpoint_AVR8.h **** 			{
 135               		.loc 2 358 23 view .LVU33
 136               	.LBB282:
 137               		.loc 2 360 5 view .LVU34
 138               		.loc 2 360 14 is_stmt 0 view .LVU35
 139 003a 8091 E800 		lds r24,232
 140               	.LBE282:
 141               	.LBE281:
 142               		.loc 1 612 8 view .LVU36
 143 003e 85FF      		sbrs r24,5
 144 0040 00C0      		rjmp .L2
 613:../../tmk_core/protocol/lufa/lufa.c **** 
 614:../../tmk_core/protocol/lufa/lufa.c ****     Endpoint_Write_Stream_LE(&r, sizeof(report_extra_t), NULL);
 145               		.loc 1 614 5 is_stmt 1 view .LVU37
 146 0042 50E0      		ldi r21,0
 147 0044 40E0      		ldi r20,0
 148 0046 63E0      		ldi r22,lo8(3)
 149 0048 70E0      		ldi r23,0
 150 004a CE01      		movw r24,r28
 151 004c 0196      		adiw r24,1
 152 004e 0E94 0000 		call Endpoint_Write_Stream_LE
 153               	.LVL10:
 615:../../tmk_core/protocol/lufa/lufa.c ****     Endpoint_ClearIN();
 154               		.loc 1 615 5 view .LVU38
 155               	.LBB283:
 156               	.LBI283:
 361:../../tmk_core/protocol/lufa/lufa-abcminiuser/LUFA/Drivers/USB/Core/AVR8/../AVR8/Endpoint_AVR8.h **** 			}
 362:../../tmk_core/protocol/lufa/lufa-abcminiuser/LUFA/Drivers/USB/Core/AVR8/../AVR8/Endpoint_AVR8.h **** 
 363:../../tmk_core/protocol/lufa/lufa-abcminiuser/LUFA/Drivers/USB/Core/AVR8/../AVR8/Endpoint_AVR8.h **** 			/** Determines if the currently selected endpoint is configured.
 364:../../tmk_core/protocol/lufa/lufa-abcminiuser/LUFA/Drivers/USB/Core/AVR8/../AVR8/Endpoint_AVR8.h **** 			 *
 365:../../tmk_core/protocol/lufa/lufa-abcminiuser/LUFA/Drivers/USB/Core/AVR8/../AVR8/Endpoint_AVR8.h **** 			 *  \return Boolean \c true if the currently selected endpoint has been configured, \c false oth
 366:../../tmk_core/protocol/lufa/lufa-abcminiuser/LUFA/Drivers/USB/Core/AVR8/../AVR8/Endpoint_AVR8.h **** 			 */
 367:../../tmk_core/protocol/lufa/lufa-abcminiuser/LUFA/Drivers/USB/Core/AVR8/../AVR8/Endpoint_AVR8.h **** 			static inline bool Endpoint_IsConfigured(void) ATTR_WARN_UNUSED_RESULT ATTR_ALWAYS_INLINE;
 368:../../tmk_core/protocol/lufa/lufa-abcminiuser/LUFA/Drivers/USB/Core/AVR8/../AVR8/Endpoint_AVR8.h **** 			static inline bool Endpoint_IsConfigured(void)
 369:../../tmk_core/protocol/lufa/lufa-abcminiuser/LUFA/Drivers/USB/Core/AVR8/../AVR8/Endpoint_AVR8.h **** 			{
 370:../../tmk_core/protocol/lufa/lufa-abcminiuser/LUFA/Drivers/USB/Core/AVR8/../AVR8/Endpoint_AVR8.h **** 				return ((UESTA0X & (1 << CFGOK)) ? true : false);
 371:../../tmk_core/protocol/lufa/lufa-abcminiuser/LUFA/Drivers/USB/Core/AVR8/../AVR8/Endpoint_AVR8.h **** 			}
 372:../../tmk_core/protocol/lufa/lufa-abcminiuser/LUFA/Drivers/USB/Core/AVR8/../AVR8/Endpoint_AVR8.h **** 
 373:../../tmk_core/protocol/lufa/lufa-abcminiuser/LUFA/Drivers/USB/Core/AVR8/../AVR8/Endpoint_AVR8.h **** 			/** Returns a mask indicating which INTERRUPT type endpoints have interrupted - i.e. their
 374:../../tmk_core/protocol/lufa/lufa-abcminiuser/LUFA/Drivers/USB/Core/AVR8/../AVR8/Endpoint_AVR8.h **** 			 *  interrupt duration has elapsed. Which endpoints have interrupted can be determined by
 375:../../tmk_core/protocol/lufa/lufa-abcminiuser/LUFA/Drivers/USB/Core/AVR8/../AVR8/Endpoint_AVR8.h **** 			 *  masking the return value against <tt>(1 << <i>{Endpoint Number}</i>)</tt>.
 376:../../tmk_core/protocol/lufa/lufa-abcminiuser/LUFA/Drivers/USB/Core/AVR8/../AVR8/Endpoint_AVR8.h **** 			 *
 377:../../tmk_core/protocol/lufa/lufa-abcminiuser/LUFA/Drivers/USB/Core/AVR8/../AVR8/Endpoint_AVR8.h **** 			 *  \return Mask whose bits indicate which endpoints have interrupted.
 378:../../tmk_core/protocol/lufa/lufa-abcminiuser/LUFA/Drivers/USB/Core/AVR8/../AVR8/Endpoint_AVR8.h **** 			 */
 379:../../tmk_core/protocol/lufa/lufa-abcminiuser/LUFA/Drivers/USB/Core/AVR8/../AVR8/Endpoint_AVR8.h **** 			static inline uint8_t Endpoint_GetEndpointInterrupts(void) ATTR_WARN_UNUSED_RESULT ATTR_ALWAYS_I
 380:../../tmk_core/protocol/lufa/lufa-abcminiuser/LUFA/Drivers/USB/Core/AVR8/../AVR8/Endpoint_AVR8.h **** 			static inline uint8_t Endpoint_GetEndpointInterrupts(void)
 381:../../tmk_core/protocol/lufa/lufa-abcminiuser/LUFA/Drivers/USB/Core/AVR8/../AVR8/Endpoint_AVR8.h **** 			{
 382:../../tmk_core/protocol/lufa/lufa-abcminiuser/LUFA/Drivers/USB/Core/AVR8/../AVR8/Endpoint_AVR8.h **** 				return UEINT;
 383:../../tmk_core/protocol/lufa/lufa-abcminiuser/LUFA/Drivers/USB/Core/AVR8/../AVR8/Endpoint_AVR8.h **** 			}
 384:../../tmk_core/protocol/lufa/lufa-abcminiuser/LUFA/Drivers/USB/Core/AVR8/../AVR8/Endpoint_AVR8.h **** 
 385:../../tmk_core/protocol/lufa/lufa-abcminiuser/LUFA/Drivers/USB/Core/AVR8/../AVR8/Endpoint_AVR8.h **** 			/** Determines if the specified endpoint number has interrupted (valid only for INTERRUPT type
 386:../../tmk_core/protocol/lufa/lufa-abcminiuser/LUFA/Drivers/USB/Core/AVR8/../AVR8/Endpoint_AVR8.h **** 			 *  endpoints).
 387:../../tmk_core/protocol/lufa/lufa-abcminiuser/LUFA/Drivers/USB/Core/AVR8/../AVR8/Endpoint_AVR8.h **** 			 *
 388:../../tmk_core/protocol/lufa/lufa-abcminiuser/LUFA/Drivers/USB/Core/AVR8/../AVR8/Endpoint_AVR8.h **** 			 *  \param[in] Address  Address of the endpoint whose interrupt flag should be tested.
 389:../../tmk_core/protocol/lufa/lufa-abcminiuser/LUFA/Drivers/USB/Core/AVR8/../AVR8/Endpoint_AVR8.h **** 			 *
 390:../../tmk_core/protocol/lufa/lufa-abcminiuser/LUFA/Drivers/USB/Core/AVR8/../AVR8/Endpoint_AVR8.h **** 			 *  \return Boolean \c true if the specified endpoint has interrupted, \c false otherwise.
 391:../../tmk_core/protocol/lufa/lufa-abcminiuser/LUFA/Drivers/USB/Core/AVR8/../AVR8/Endpoint_AVR8.h **** 			 */
 392:../../tmk_core/protocol/lufa/lufa-abcminiuser/LUFA/Drivers/USB/Core/AVR8/../AVR8/Endpoint_AVR8.h **** 			static inline bool Endpoint_HasEndpointInterrupted(const uint8_t Address) ATTR_WARN_UNUSED_RESUL
 393:../../tmk_core/protocol/lufa/lufa-abcminiuser/LUFA/Drivers/USB/Core/AVR8/../AVR8/Endpoint_AVR8.h **** 			static inline bool Endpoint_HasEndpointInterrupted(const uint8_t Address)
 394:../../tmk_core/protocol/lufa/lufa-abcminiuser/LUFA/Drivers/USB/Core/AVR8/../AVR8/Endpoint_AVR8.h **** 			{
 395:../../tmk_core/protocol/lufa/lufa-abcminiuser/LUFA/Drivers/USB/Core/AVR8/../AVR8/Endpoint_AVR8.h **** 				return ((Endpoint_GetEndpointInterrupts() & (1 << (Address & ENDPOINT_EPNUM_MASK))) ? true : fa
 396:../../tmk_core/protocol/lufa/lufa-abcminiuser/LUFA/Drivers/USB/Core/AVR8/../AVR8/Endpoint_AVR8.h **** 			}
 397:../../tmk_core/protocol/lufa/lufa-abcminiuser/LUFA/Drivers/USB/Core/AVR8/../AVR8/Endpoint_AVR8.h **** 
 398:../../tmk_core/protocol/lufa/lufa-abcminiuser/LUFA/Drivers/USB/Core/AVR8/../AVR8/Endpoint_AVR8.h **** 			/** Determines if the selected IN endpoint is ready for a new packet to be sent to the host.
 399:../../tmk_core/protocol/lufa/lufa-abcminiuser/LUFA/Drivers/USB/Core/AVR8/../AVR8/Endpoint_AVR8.h **** 			 *
 400:../../tmk_core/protocol/lufa/lufa-abcminiuser/LUFA/Drivers/USB/Core/AVR8/../AVR8/Endpoint_AVR8.h **** 			 *  \ingroup Group_EndpointPacketManagement_AVR8
 401:../../tmk_core/protocol/lufa/lufa-abcminiuser/LUFA/Drivers/USB/Core/AVR8/../AVR8/Endpoint_AVR8.h **** 			 *
 402:../../tmk_core/protocol/lufa/lufa-abcminiuser/LUFA/Drivers/USB/Core/AVR8/../AVR8/Endpoint_AVR8.h **** 			 *  \return Boolean \c true if the current endpoint is ready for an IN packet, \c false otherwis
 403:../../tmk_core/protocol/lufa/lufa-abcminiuser/LUFA/Drivers/USB/Core/AVR8/../AVR8/Endpoint_AVR8.h **** 			 */
 404:../../tmk_core/protocol/lufa/lufa-abcminiuser/LUFA/Drivers/USB/Core/AVR8/../AVR8/Endpoint_AVR8.h **** 			static inline bool Endpoint_IsINReady(void) ATTR_WARN_UNUSED_RESULT ATTR_ALWAYS_INLINE;
 405:../../tmk_core/protocol/lufa/lufa-abcminiuser/LUFA/Drivers/USB/Core/AVR8/../AVR8/Endpoint_AVR8.h **** 			static inline bool Endpoint_IsINReady(void)
 406:../../tmk_core/protocol/lufa/lufa-abcminiuser/LUFA/Drivers/USB/Core/AVR8/../AVR8/Endpoint_AVR8.h **** 			{
 407:../../tmk_core/protocol/lufa/lufa-abcminiuser/LUFA/Drivers/USB/Core/AVR8/../AVR8/Endpoint_AVR8.h **** 				return ((UEINTX & (1 << TXINI)) ? true : false);
 408:../../tmk_core/protocol/lufa/lufa-abcminiuser/LUFA/Drivers/USB/Core/AVR8/../AVR8/Endpoint_AVR8.h **** 			}
 409:../../tmk_core/protocol/lufa/lufa-abcminiuser/LUFA/Drivers/USB/Core/AVR8/../AVR8/Endpoint_AVR8.h **** 
 410:../../tmk_core/protocol/lufa/lufa-abcminiuser/LUFA/Drivers/USB/Core/AVR8/../AVR8/Endpoint_AVR8.h **** 			/** Determines if the selected OUT endpoint has received new packet from the host.
 411:../../tmk_core/protocol/lufa/lufa-abcminiuser/LUFA/Drivers/USB/Core/AVR8/../AVR8/Endpoint_AVR8.h **** 			 *
 412:../../tmk_core/protocol/lufa/lufa-abcminiuser/LUFA/Drivers/USB/Core/AVR8/../AVR8/Endpoint_AVR8.h **** 			 *  \ingroup Group_EndpointPacketManagement_AVR8
 413:../../tmk_core/protocol/lufa/lufa-abcminiuser/LUFA/Drivers/USB/Core/AVR8/../AVR8/Endpoint_AVR8.h **** 			 *
 414:../../tmk_core/protocol/lufa/lufa-abcminiuser/LUFA/Drivers/USB/Core/AVR8/../AVR8/Endpoint_AVR8.h **** 			 *  \return Boolean \c true if current endpoint is has received an OUT packet, \c false otherwis
 415:../../tmk_core/protocol/lufa/lufa-abcminiuser/LUFA/Drivers/USB/Core/AVR8/../AVR8/Endpoint_AVR8.h **** 			 */
 416:../../tmk_core/protocol/lufa/lufa-abcminiuser/LUFA/Drivers/USB/Core/AVR8/../AVR8/Endpoint_AVR8.h **** 			static inline bool Endpoint_IsOUTReceived(void) ATTR_WARN_UNUSED_RESULT ATTR_ALWAYS_INLINE;
 417:../../tmk_core/protocol/lufa/lufa-abcminiuser/LUFA/Drivers/USB/Core/AVR8/../AVR8/Endpoint_AVR8.h **** 			static inline bool Endpoint_IsOUTReceived(void)
 418:../../tmk_core/protocol/lufa/lufa-abcminiuser/LUFA/Drivers/USB/Core/AVR8/../AVR8/Endpoint_AVR8.h **** 			{
 419:../../tmk_core/protocol/lufa/lufa-abcminiuser/LUFA/Drivers/USB/Core/AVR8/../AVR8/Endpoint_AVR8.h **** 				return ((UEINTX & (1 << RXOUTI)) ? true : false);
 420:../../tmk_core/protocol/lufa/lufa-abcminiuser/LUFA/Drivers/USB/Core/AVR8/../AVR8/Endpoint_AVR8.h **** 			}
 421:../../tmk_core/protocol/lufa/lufa-abcminiuser/LUFA/Drivers/USB/Core/AVR8/../AVR8/Endpoint_AVR8.h **** 
 422:../../tmk_core/protocol/lufa/lufa-abcminiuser/LUFA/Drivers/USB/Core/AVR8/../AVR8/Endpoint_AVR8.h **** 			/** Determines if the current CONTROL type endpoint has received a SETUP packet.
 423:../../tmk_core/protocol/lufa/lufa-abcminiuser/LUFA/Drivers/USB/Core/AVR8/../AVR8/Endpoint_AVR8.h **** 			 *
 424:../../tmk_core/protocol/lufa/lufa-abcminiuser/LUFA/Drivers/USB/Core/AVR8/../AVR8/Endpoint_AVR8.h **** 			 *  \ingroup Group_EndpointPacketManagement_AVR8
 425:../../tmk_core/protocol/lufa/lufa-abcminiuser/LUFA/Drivers/USB/Core/AVR8/../AVR8/Endpoint_AVR8.h **** 			 *
 426:../../tmk_core/protocol/lufa/lufa-abcminiuser/LUFA/Drivers/USB/Core/AVR8/../AVR8/Endpoint_AVR8.h **** 			 *  \return Boolean \c true if the selected endpoint has received a SETUP packet, \c false other
 427:../../tmk_core/protocol/lufa/lufa-abcminiuser/LUFA/Drivers/USB/Core/AVR8/../AVR8/Endpoint_AVR8.h **** 			 */
 428:../../tmk_core/protocol/lufa/lufa-abcminiuser/LUFA/Drivers/USB/Core/AVR8/../AVR8/Endpoint_AVR8.h **** 			static inline bool Endpoint_IsSETUPReceived(void) ATTR_WARN_UNUSED_RESULT ATTR_ALWAYS_INLINE;
 429:../../tmk_core/protocol/lufa/lufa-abcminiuser/LUFA/Drivers/USB/Core/AVR8/../AVR8/Endpoint_AVR8.h **** 			static inline bool Endpoint_IsSETUPReceived(void)
 430:../../tmk_core/protocol/lufa/lufa-abcminiuser/LUFA/Drivers/USB/Core/AVR8/../AVR8/Endpoint_AVR8.h **** 			{
 431:../../tmk_core/protocol/lufa/lufa-abcminiuser/LUFA/Drivers/USB/Core/AVR8/../AVR8/Endpoint_AVR8.h **** 				return ((UEINTX & (1 << RXSTPI)) ? true : false);
 432:../../tmk_core/protocol/lufa/lufa-abcminiuser/LUFA/Drivers/USB/Core/AVR8/../AVR8/Endpoint_AVR8.h **** 			}
 433:../../tmk_core/protocol/lufa/lufa-abcminiuser/LUFA/Drivers/USB/Core/AVR8/../AVR8/Endpoint_AVR8.h **** 
 434:../../tmk_core/protocol/lufa/lufa-abcminiuser/LUFA/Drivers/USB/Core/AVR8/../AVR8/Endpoint_AVR8.h **** 			/** Clears a received SETUP packet on the currently selected CONTROL type endpoint, freeing up t
 435:../../tmk_core/protocol/lufa/lufa-abcminiuser/LUFA/Drivers/USB/Core/AVR8/../AVR8/Endpoint_AVR8.h **** 			 *  endpoint for the next packet.
 436:../../tmk_core/protocol/lufa/lufa-abcminiuser/LUFA/Drivers/USB/Core/AVR8/../AVR8/Endpoint_AVR8.h **** 			 *
 437:../../tmk_core/protocol/lufa/lufa-abcminiuser/LUFA/Drivers/USB/Core/AVR8/../AVR8/Endpoint_AVR8.h **** 			 *  \ingroup Group_EndpointPacketManagement_AVR8
 438:../../tmk_core/protocol/lufa/lufa-abcminiuser/LUFA/Drivers/USB/Core/AVR8/../AVR8/Endpoint_AVR8.h **** 			 *
 439:../../tmk_core/protocol/lufa/lufa-abcminiuser/LUFA/Drivers/USB/Core/AVR8/../AVR8/Endpoint_AVR8.h **** 			 *  \note This is not applicable for non CONTROL type endpoints.
 440:../../tmk_core/protocol/lufa/lufa-abcminiuser/LUFA/Drivers/USB/Core/AVR8/../AVR8/Endpoint_AVR8.h **** 			 */
 441:../../tmk_core/protocol/lufa/lufa-abcminiuser/LUFA/Drivers/USB/Core/AVR8/../AVR8/Endpoint_AVR8.h **** 			static inline void Endpoint_ClearSETUP(void) ATTR_ALWAYS_INLINE;
 442:../../tmk_core/protocol/lufa/lufa-abcminiuser/LUFA/Drivers/USB/Core/AVR8/../AVR8/Endpoint_AVR8.h **** 			static inline void Endpoint_ClearSETUP(void)
 443:../../tmk_core/protocol/lufa/lufa-abcminiuser/LUFA/Drivers/USB/Core/AVR8/../AVR8/Endpoint_AVR8.h **** 			{
 444:../../tmk_core/protocol/lufa/lufa-abcminiuser/LUFA/Drivers/USB/Core/AVR8/../AVR8/Endpoint_AVR8.h **** 				UEINTX &= ~(1 << RXSTPI);
 445:../../tmk_core/protocol/lufa/lufa-abcminiuser/LUFA/Drivers/USB/Core/AVR8/../AVR8/Endpoint_AVR8.h **** 			}
 446:../../tmk_core/protocol/lufa/lufa-abcminiuser/LUFA/Drivers/USB/Core/AVR8/../AVR8/Endpoint_AVR8.h **** 
 447:../../tmk_core/protocol/lufa/lufa-abcminiuser/LUFA/Drivers/USB/Core/AVR8/../AVR8/Endpoint_AVR8.h **** 			/** Sends an IN packet to the host on the currently selected endpoint, freeing up the endpoint f
 448:../../tmk_core/protocol/lufa/lufa-abcminiuser/LUFA/Drivers/USB/Core/AVR8/../AVR8/Endpoint_AVR8.h **** 			 *  next packet and switching to the alternative endpoint bank if double banked.
 449:../../tmk_core/protocol/lufa/lufa-abcminiuser/LUFA/Drivers/USB/Core/AVR8/../AVR8/Endpoint_AVR8.h **** 			 *
 450:../../tmk_core/protocol/lufa/lufa-abcminiuser/LUFA/Drivers/USB/Core/AVR8/../AVR8/Endpoint_AVR8.h **** 			 *  \ingroup Group_EndpointPacketManagement_AVR8
 451:../../tmk_core/protocol/lufa/lufa-abcminiuser/LUFA/Drivers/USB/Core/AVR8/../AVR8/Endpoint_AVR8.h **** 			 */
 452:../../tmk_core/protocol/lufa/lufa-abcminiuser/LUFA/Drivers/USB/Core/AVR8/../AVR8/Endpoint_AVR8.h **** 			static inline void Endpoint_ClearIN(void) ATTR_ALWAYS_INLINE;
 453:../../tmk_core/protocol/lufa/lufa-abcminiuser/LUFA/Drivers/USB/Core/AVR8/../AVR8/Endpoint_AVR8.h **** 			static inline void Endpoint_ClearIN(void)
 157               		.loc 2 453 23 view .LVU39
 158               	.LBB284:
 454:../../tmk_core/protocol/lufa/lufa-abcminiuser/LUFA/Drivers/USB/Core/AVR8/../AVR8/Endpoint_AVR8.h **** 			{
 455:../../tmk_core/protocol/lufa/lufa-abcminiuser/LUFA/Drivers/USB/Core/AVR8/../AVR8/Endpoint_AVR8.h **** 				#if !defined(CONTROL_ONLY_DEVICE)
 456:../../tmk_core/protocol/lufa/lufa-abcminiuser/LUFA/Drivers/USB/Core/AVR8/../AVR8/Endpoint_AVR8.h **** 					UEINTX &= ~((1 << TXINI) | (1 << FIFOCON));
 159               		.loc 2 456 6 view .LVU40
 160               		.loc 2 456 13 is_stmt 0 view .LVU41
 161 0052 8091 E800 		lds r24,232
 162 0056 8E77      		andi r24,lo8(126)
 163 0058 8093 E800 		sts 232,r24
 164               	.LVL11:
 165               	.L2:
 166               	/* epilogue start */
 167               		.loc 2 456 13 view .LVU42
 168               	.LBE284:
 169               	.LBE283:
 616:../../tmk_core/protocol/lufa/lufa.c **** #endif
 617:../../tmk_core/protocol/lufa/lufa.c **** }
 170               		.loc 1 617 1 view .LVU43
 171 005c 0F90      		pop __tmp_reg__
 172 005e 0F90      		pop __tmp_reg__
 173 0060 0F90      		pop __tmp_reg__
 174 0062 DF91      		pop r29
 175 0064 CF91      		pop r28
 176 0066 0895      		ret
 177               		.cfi_endproc
 178               	.LFE130:
 180               		.section	.text.send_system,"ax",@progbits
 182               	send_system:
 183               	.LVL12:
 184               	.LFB129:
 574:../../tmk_core/protocol/lufa/lufa.c **** #ifdef EXTRAKEY_ENABLE
 185               		.loc 1 574 1 is_stmt 1 view -0
 186               		.cfi_startproc
 574:../../tmk_core/protocol/lufa/lufa.c **** #ifdef EXTRAKEY_ENABLE
 187               		.loc 1 574 1 is_stmt 0 view .LVU45
 188 0000 CF93      		push r28
 189               	.LCFI4:
 190               		.cfi_def_cfa_offset 3
 191               		.cfi_offset 28, -2
 192 0002 DF93      		push r29
 193               	.LCFI5:
 194               		.cfi_def_cfa_offset 4
 195               		.cfi_offset 29, -3
 196 0004 00D0      		rcall .
 197 0006 0F92      		push __tmp_reg__
 198               	.LCFI6:
 199               		.cfi_def_cfa_offset 7
 200 0008 CDB7      		in r28,__SP_L__
 201 000a DEB7      		in r29,__SP_H__
 202               	.LCFI7:
 203               		.cfi_def_cfa_register 28
 204               	/* prologue: function */
 205               	/* frame size = 3 */
 206               	/* stack size = 5 */
 207               	.L__stack_usage = 5
 576:../../tmk_core/protocol/lufa/lufa.c **** 
 208               		.loc 1 576 5 is_stmt 1 view .LVU46
 209               	.LVL13:
 578:../../tmk_core/protocol/lufa/lufa.c ****         return;
 210               		.loc 1 578 5 view .LVU47
 578:../../tmk_core/protocol/lufa/lufa.c ****         return;
 211               		.loc 1 578 25 is_stmt 0 view .LVU48
 212 000c 2091 0000 		lds r18,USB_DeviceState
 578:../../tmk_core/protocol/lufa/lufa.c ****         return;
 213               		.loc 1 578 8 view .LVU49
 214 0010 2430      		cpi r18,lo8(4)
 215 0012 01F4      		brne .L14
 581:../../tmk_core/protocol/lufa/lufa.c ****         .report_id = REPORT_ID_SYSTEM,
 216               		.loc 1 581 5 is_stmt 1 view .LVU50
 581:../../tmk_core/protocol/lufa/lufa.c ****         .report_id = REPORT_ID_SYSTEM,
 217               		.loc 1 581 20 is_stmt 0 view .LVU51
 218 0014 22E0      		ldi r18,lo8(2)
 219 0016 2983      		std Y+1,r18
 583:../../tmk_core/protocol/lufa/lufa.c ****     };
 220               		.loc 1 583 43 view .LVU52
 221 0018 8058      		subi r24,-128
 222 001a 9109      		sbc r25,__zero_reg__
 223               	.LVL14:
 581:../../tmk_core/protocol/lufa/lufa.c ****         .report_id = REPORT_ID_SYSTEM,
 224               		.loc 1 581 20 view .LVU53
 225 001c 9B83      		std Y+3,r25
 226 001e 8A83      		std Y+2,r24
 585:../../tmk_core/protocol/lufa/lufa.c **** 
 227               		.loc 1 585 5 is_stmt 1 view .LVU54
 228               	.LVL15:
 229               	.LBB285:
 230               	.LBI285:
 267:../../tmk_core/protocol/lufa/lufa-abcminiuser/LUFA/Drivers/USB/Core/AVR8/../AVR8/Endpoint_AVR8.h **** 			{
 231               		.loc 2 267 23 view .LVU55
 232               	.LBB286:
 270:../../tmk_core/protocol/lufa/lufa-abcminiuser/LUFA/Drivers/USB/Core/AVR8/../AVR8/Endpoint_AVR8.h **** 				#endif
 233               		.loc 2 270 6 view .LVU56
 270:../../tmk_core/protocol/lufa/lufa-abcminiuser/LUFA/Drivers/USB/Core/AVR8/../AVR8/Endpoint_AVR8.h **** 				#endif
 234               		.loc 2 270 12 is_stmt 0 view .LVU57
 235 0020 83E0      		ldi r24,lo8(3)
 236               	.LVL16:
 270:../../tmk_core/protocol/lufa/lufa-abcminiuser/LUFA/Drivers/USB/Core/AVR8/../AVR8/Endpoint_AVR8.h **** 				#endif
 237               		.loc 2 270 12 view .LVU58
 238 0022 8093 E900 		sts 233,r24
 239               	.LVL17:
 270:../../tmk_core/protocol/lufa/lufa-abcminiuser/LUFA/Drivers/USB/Core/AVR8/../AVR8/Endpoint_AVR8.h **** 				#endif
 240               		.loc 2 270 12 view .LVU59
 241 0026 8FEF      		ldi r24,lo8(-1)
 242               	.LVL18:
 243               	.L16:
 270:../../tmk_core/protocol/lufa/lufa-abcminiuser/LUFA/Drivers/USB/Core/AVR8/../AVR8/Endpoint_AVR8.h **** 				#endif
 244               		.loc 2 270 12 view .LVU60
 245               	.LBE286:
 246               	.LBE285:
 247               	.LBB287:
 248               	.LBI287:
 358:../../tmk_core/protocol/lufa/lufa-abcminiuser/LUFA/Drivers/USB/Core/AVR8/../AVR8/Endpoint_AVR8.h **** 			{
 249               		.loc 2 358 23 is_stmt 1 view .LVU61
 250               	.LBB288:
 360:../../tmk_core/protocol/lufa/lufa-abcminiuser/LUFA/Drivers/USB/Core/AVR8/../AVR8/Endpoint_AVR8.h **** 			}
 251               		.loc 2 360 5 view .LVU62
 360:../../tmk_core/protocol/lufa/lufa-abcminiuser/LUFA/Drivers/USB/Core/AVR8/../AVR8/Endpoint_AVR8.h **** 			}
 252               		.loc 2 360 14 is_stmt 0 view .LVU63
 253 0028 9091 E800 		lds r25,232
 254 002c 8150      		subi r24,lo8(-(-1))
 255               	.LVL19:
 360:../../tmk_core/protocol/lufa/lufa-abcminiuser/LUFA/Drivers/USB/Core/AVR8/../AVR8/Endpoint_AVR8.h **** 			}
 256               		.loc 2 360 14 view .LVU64
 257               	.LBE288:
 258               	.LBE287:
 588:../../tmk_core/protocol/lufa/lufa.c ****     if (!Endpoint_IsReadWriteAllowed()) return;
 259               		.loc 1 588 22 view .LVU65
 260 002e 95FD      		sbrc r25,5
 261 0030 00C0      		rjmp .L17
 588:../../tmk_core/protocol/lufa/lufa.c ****     if (!Endpoint_IsReadWriteAllowed()) return;
 262               		.loc 1 588 57 is_stmt 1 view .LVU66
 263               	.LVL20:
 264               	.LBB289:
 265               	.LBI289:
 255:/usr/avr/include/util/delay.h **** {
 266               		.loc 3 255 1 view .LVU67
 267               	.LBB290:
 257:/usr/avr/include/util/delay.h **** #if __HAS_DELAY_CYCLES && defined(__OPTIMIZE__) && \
 268               		.loc 3 257 2 view .LVU68
 261:/usr/avr/include/util/delay.h **** 	extern void __builtin_avr_delay_cycles(unsigned long);
 269               		.loc 3 261 2 view .LVU69
 262:/usr/avr/include/util/delay.h **** 	__tmp = ((F_CPU) / 1e6) * __us;
 270               		.loc 3 262 2 view .LVU70
 263:/usr/avr/include/util/delay.h **** 
 271               		.loc 3 263 2 view .LVU71
 273:/usr/avr/include/util/delay.h **** 	#endif
 272               		.loc 3 273 3 view .LVU72
 273               		.loc 3 276 2 view .LVU73
 274 0032 95ED      		ldi r25,lo8(-43)
 275 0034 9A95      	1:	dec r25
 276 0036 01F4      		brne 1b
 277 0038 0000      		nop
 278               	.LVL21:
 279               		.loc 3 276 2 is_stmt 0 view .LVU74
 280               	.LBE290:
 281               	.LBE289:
 588:../../tmk_core/protocol/lufa/lufa.c ****     if (!Endpoint_IsReadWriteAllowed()) return;
 282               		.loc 1 588 11 view .LVU75
 283 003a 8111      		cpse r24,__zero_reg__
 284 003c 00C0      		rjmp .L16
 285               	.LVL22:
 286               	.L17:
 589:../../tmk_core/protocol/lufa/lufa.c **** 
 287               		.loc 1 589 5 is_stmt 1 view .LVU76
 288               	.LBB291:
 289               	.LBI291:
 358:../../tmk_core/protocol/lufa/lufa-abcminiuser/LUFA/Drivers/USB/Core/AVR8/../AVR8/Endpoint_AVR8.h **** 			{
 290               		.loc 2 358 23 view .LVU77
 291               	.LBB292:
 360:../../tmk_core/protocol/lufa/lufa-abcminiuser/LUFA/Drivers/USB/Core/AVR8/../AVR8/Endpoint_AVR8.h **** 			}
 292               		.loc 2 360 5 view .LVU78
 360:../../tmk_core/protocol/lufa/lufa-abcminiuser/LUFA/Drivers/USB/Core/AVR8/../AVR8/Endpoint_AVR8.h **** 			}
 293               		.loc 2 360 14 is_stmt 0 view .LVU79
 294 003e 8091 E800 		lds r24,232
 295               	.LBE292:
 296               	.LBE291:
 589:../../tmk_core/protocol/lufa/lufa.c **** 
 297               		.loc 1 589 8 view .LVU80
 298 0042 85FF      		sbrs r24,5
 299 0044 00C0      		rjmp .L14
 591:../../tmk_core/protocol/lufa/lufa.c ****     Endpoint_ClearIN();
 300               		.loc 1 591 5 is_stmt 1 view .LVU81
 301 0046 50E0      		ldi r21,0
 302 0048 40E0      		ldi r20,0
 303 004a 63E0      		ldi r22,lo8(3)
 304 004c 70E0      		ldi r23,0
 305 004e CE01      		movw r24,r28
 306 0050 0196      		adiw r24,1
 307 0052 0E94 0000 		call Endpoint_Write_Stream_LE
 308               	.LVL23:
 592:../../tmk_core/protocol/lufa/lufa.c **** #endif
 309               		.loc 1 592 5 view .LVU82
 310               	.LBB293:
 311               	.LBI293:
 453:../../tmk_core/protocol/lufa/lufa-abcminiuser/LUFA/Drivers/USB/Core/AVR8/../AVR8/Endpoint_AVR8.h **** 			{
 312               		.loc 2 453 23 view .LVU83
 313               	.LBB294:
 314               		.loc 2 456 6 view .LVU84
 315               		.loc 2 456 13 is_stmt 0 view .LVU85
 316 0056 8091 E800 		lds r24,232
 317 005a 8E77      		andi r24,lo8(126)
 318 005c 8093 E800 		sts 232,r24
 319               	.LVL24:
 320               	.L14:
 321               	/* epilogue start */
 322               		.loc 2 456 13 view .LVU86
 323               	.LBE294:
 324               	.LBE293:
 594:../../tmk_core/protocol/lufa/lufa.c **** 
 325               		.loc 1 594 1 view .LVU87
 326 0060 0F90      		pop __tmp_reg__
 327 0062 0F90      		pop __tmp_reg__
 328 0064 0F90      		pop __tmp_reg__
 329 0066 DF91      		pop r29
 330 0068 CF91      		pop r28
 331 006a 0895      		ret
 332               		.cfi_endproc
 333               	.LFE129:
 335               		.section	.text.send_mouse,"ax",@progbits
 337               	send_mouse:
 338               	.LVL25:
 339               	.LFB128:
 551:../../tmk_core/protocol/lufa/lufa.c **** #ifdef MOUSE_ENABLE
 340               		.loc 1 551 1 is_stmt 1 view -0
 341               		.cfi_startproc
 342               	/* prologue: function */
 343               	/* frame size = 0 */
 344               	/* stack size = 0 */
 345               	.L__stack_usage = 0
 551:../../tmk_core/protocol/lufa/lufa.c **** #ifdef MOUSE_ENABLE
 346               		.loc 1 551 1 is_stmt 0 view .LVU89
 347 0000 9C01      		movw r18,r24
 553:../../tmk_core/protocol/lufa/lufa.c **** 
 348               		.loc 1 553 5 is_stmt 1 view .LVU90
 349               	.LVL26:
 555:../../tmk_core/protocol/lufa/lufa.c ****         return;
 350               		.loc 1 555 5 view .LVU91
 555:../../tmk_core/protocol/lufa/lufa.c ****         return;
 351               		.loc 1 555 25 is_stmt 0 view .LVU92
 352 0002 8091 0000 		lds r24,USB_DeviceState
 353               	.LVL27:
 555:../../tmk_core/protocol/lufa/lufa.c ****         return;
 354               		.loc 1 555 8 view .LVU93
 355 0006 8430      		cpi r24,lo8(4)
 356 0008 01F4      		brne .L26
 559:../../tmk_core/protocol/lufa/lufa.c **** 
 357               		.loc 1 559 5 is_stmt 1 view .LVU94
 358               	.LVL28:
 359               	.LBB295:
 360               	.LBI295:
 267:../../tmk_core/protocol/lufa/lufa-abcminiuser/LUFA/Drivers/USB/Core/AVR8/../AVR8/Endpoint_AVR8.h **** 			{
 361               		.loc 2 267 23 view .LVU95
 362               	.LBB296:
 270:../../tmk_core/protocol/lufa/lufa-abcminiuser/LUFA/Drivers/USB/Core/AVR8/../AVR8/Endpoint_AVR8.h **** 				#endif
 363               		.loc 2 270 6 view .LVU96
 270:../../tmk_core/protocol/lufa/lufa-abcminiuser/LUFA/Drivers/USB/Core/AVR8/../AVR8/Endpoint_AVR8.h **** 				#endif
 364               		.loc 2 270 12 is_stmt 0 view .LVU97
 365 000a 82E0      		ldi r24,lo8(2)
 366 000c 8093 E900 		sts 233,r24
 367               	.LVL29:
 270:../../tmk_core/protocol/lufa/lufa-abcminiuser/LUFA/Drivers/USB/Core/AVR8/../AVR8/Endpoint_AVR8.h **** 				#endif
 368               		.loc 2 270 12 view .LVU98
 369 0010 9FEF      		ldi r25,lo8(-1)
 370               	.LVL30:
 371               	.L29:
 270:../../tmk_core/protocol/lufa/lufa-abcminiuser/LUFA/Drivers/USB/Core/AVR8/../AVR8/Endpoint_AVR8.h **** 				#endif
 372               		.loc 2 270 12 view .LVU99
 373               	.LBE296:
 374               	.LBE295:
 375               	.LBB297:
 376               	.LBI297:
 358:../../tmk_core/protocol/lufa/lufa-abcminiuser/LUFA/Drivers/USB/Core/AVR8/../AVR8/Endpoint_AVR8.h **** 			{
 377               		.loc 2 358 23 is_stmt 1 view .LVU100
 378               	.LBB298:
 360:../../tmk_core/protocol/lufa/lufa-abcminiuser/LUFA/Drivers/USB/Core/AVR8/../AVR8/Endpoint_AVR8.h **** 			}
 379               		.loc 2 360 5 view .LVU101
 360:../../tmk_core/protocol/lufa/lufa-abcminiuser/LUFA/Drivers/USB/Core/AVR8/../AVR8/Endpoint_AVR8.h **** 			}
 380               		.loc 2 360 14 is_stmt 0 view .LVU102
 381 0012 8091 E800 		lds r24,232
 382 0016 9150      		subi r25,lo8(-(-1))
 383               	.LVL31:
 360:../../tmk_core/protocol/lufa/lufa-abcminiuser/LUFA/Drivers/USB/Core/AVR8/../AVR8/Endpoint_AVR8.h **** 			}
 384               		.loc 2 360 14 view .LVU103
 385               	.LBE298:
 386               	.LBE297:
 562:../../tmk_core/protocol/lufa/lufa.c ****     if (!Endpoint_IsReadWriteAllowed()) return;
 387               		.loc 1 562 22 view .LVU104
 388 0018 85FD      		sbrc r24,5
 389 001a 00C0      		rjmp .L30
 562:../../tmk_core/protocol/lufa/lufa.c ****     if (!Endpoint_IsReadWriteAllowed()) return;
 390               		.loc 1 562 57 is_stmt 1 view .LVU105
 391               	.LVL32:
 392               	.LBB299:
 393               	.LBI299:
 255:/usr/avr/include/util/delay.h **** {
 394               		.loc 3 255 1 view .LVU106
 395               	.LBB300:
 257:/usr/avr/include/util/delay.h **** #if __HAS_DELAY_CYCLES && defined(__OPTIMIZE__) && \
 396               		.loc 3 257 2 view .LVU107
 261:/usr/avr/include/util/delay.h **** 	extern void __builtin_avr_delay_cycles(unsigned long);
 397               		.loc 3 261 2 view .LVU108
 262:/usr/avr/include/util/delay.h **** 	__tmp = ((F_CPU) / 1e6) * __us;
 398               		.loc 3 262 2 view .LVU109
 263:/usr/avr/include/util/delay.h **** 
 399               		.loc 3 263 2 view .LVU110
 273:/usr/avr/include/util/delay.h **** 	#endif
 400               		.loc 3 273 3 view .LVU111
 401               		.loc 3 276 2 view .LVU112
 402 001c 85ED      		ldi r24,lo8(-43)
 403 001e 8A95      	1:	dec r24
 404 0020 01F4      		brne 1b
 405 0022 0000      		nop
 406               	.LVL33:
 407               		.loc 3 276 2 is_stmt 0 view .LVU113
 408               	.LBE300:
 409               	.LBE299:
 562:../../tmk_core/protocol/lufa/lufa.c ****     if (!Endpoint_IsReadWriteAllowed()) return;
 410               		.loc 1 562 11 view .LVU114
 411 0024 9111      		cpse r25,__zero_reg__
 412 0026 00C0      		rjmp .L29
 413               	.LVL34:
 414               	.L30:
 563:../../tmk_core/protocol/lufa/lufa.c **** 
 415               		.loc 1 563 5 is_stmt 1 view .LVU115
 416               	.LBB301:
 417               	.LBI301:
 358:../../tmk_core/protocol/lufa/lufa-abcminiuser/LUFA/Drivers/USB/Core/AVR8/../AVR8/Endpoint_AVR8.h **** 			{
 418               		.loc 2 358 23 view .LVU116
 419               	.LBB302:
 360:../../tmk_core/protocol/lufa/lufa-abcminiuser/LUFA/Drivers/USB/Core/AVR8/../AVR8/Endpoint_AVR8.h **** 			}
 420               		.loc 2 360 5 view .LVU117
 360:../../tmk_core/protocol/lufa/lufa-abcminiuser/LUFA/Drivers/USB/Core/AVR8/../AVR8/Endpoint_AVR8.h **** 			}
 421               		.loc 2 360 14 is_stmt 0 view .LVU118
 422 0028 8091 E800 		lds r24,232
 423               	.LBE302:
 424               	.LBE301:
 563:../../tmk_core/protocol/lufa/lufa.c **** 
 425               		.loc 1 563 8 view .LVU119
 426 002c 85FF      		sbrs r24,5
 427 002e 00C0      		rjmp .L26
 566:../../tmk_core/protocol/lufa/lufa.c **** 
 428               		.loc 1 566 5 is_stmt 1 view .LVU120
 429 0030 50E0      		ldi r21,0
 430 0032 40E0      		ldi r20,0
 431 0034 65E0      		ldi r22,lo8(5)
 432 0036 70E0      		ldi r23,0
 433 0038 C901      		movw r24,r18
 434 003a 0E94 0000 		call Endpoint_Write_Stream_LE
 435               	.LVL35:
 569:../../tmk_core/protocol/lufa/lufa.c **** #endif
 436               		.loc 1 569 5 view .LVU121
 437               	.LBB303:
 438               	.LBI303:
 453:../../tmk_core/protocol/lufa/lufa-abcminiuser/LUFA/Drivers/USB/Core/AVR8/../AVR8/Endpoint_AVR8.h **** 			{
 439               		.loc 2 453 23 view .LVU122
 440               	.LBB304:
 441               		.loc 2 456 6 view .LVU123
 442               		.loc 2 456 13 is_stmt 0 view .LVU124
 443 003e 8091 E800 		lds r24,232
 444 0042 8E77      		andi r24,lo8(126)
 445 0044 8093 E800 		sts 232,r24
 446               	.LVL36:
 447               	.L26:
 448               	/* epilogue start */
 449               		.loc 2 456 13 view .LVU125
 450               	.LBE304:
 451               	.LBE303:
 571:../../tmk_core/protocol/lufa/lufa.c **** 
 452               		.loc 1 571 1 view .LVU126
 453 0048 0895      		ret
 454               		.cfi_endproc
 455               	.LFE128:
 457               		.section	.text.send_keyboard,"ax",@progbits
 459               	send_keyboard:
 460               	.LVL37:
 461               	.LFB127:
 511:../../tmk_core/protocol/lufa/lufa.c ****     uint8_t timeout = 128;
 462               		.loc 1 511 1 is_stmt 1 view -0
 463               		.cfi_startproc
 511:../../tmk_core/protocol/lufa/lufa.c ****     uint8_t timeout = 128;
 464               		.loc 1 511 1 is_stmt 0 view .LVU128
 465 0000 CF93      		push r28
 466               	.LCFI8:
 467               		.cfi_def_cfa_offset 3
 468               		.cfi_offset 28, -2
 469 0002 DF93      		push r29
 470               	.LCFI9:
 471               		.cfi_def_cfa_offset 4
 472               		.cfi_offset 29, -3
 473               	/* prologue: function */
 474               	/* frame size = 0 */
 475               	/* stack size = 2 */
 476               	.L__stack_usage = 2
 477 0004 EC01      		movw r28,r24
 512:../../tmk_core/protocol/lufa/lufa.c **** 
 478               		.loc 1 512 5 is_stmt 1 view .LVU129
 479               	.LVL38:
 514:../../tmk_core/protocol/lufa/lufa.c ****         return;
 480               		.loc 1 514 5 view .LVU130
 514:../../tmk_core/protocol/lufa/lufa.c ****         return;
 481               		.loc 1 514 25 is_stmt 0 view .LVU131
 482 0006 8091 0000 		lds r24,USB_DeviceState
 483               	.LVL39:
 514:../../tmk_core/protocol/lufa/lufa.c ****         return;
 484               		.loc 1 514 8 view .LVU132
 485 000a 8430      		cpi r24,lo8(4)
 486 000c 01F4      		brne .L39
 519:../../tmk_core/protocol/lufa/lufa.c ****         /* Report protocol - NKRO */
 487               		.loc 1 519 5 is_stmt 1 view .LVU133
 519:../../tmk_core/protocol/lufa/lufa.c ****         /* Report protocol - NKRO */
 488               		.loc 1 519 8 is_stmt 0 view .LVU134
 489 000e 8091 0000 		lds r24,keyboard_protocol
 490 0012 8823      		tst r24
 491 0014 01F0      		breq .L42
 519:../../tmk_core/protocol/lufa/lufa.c ****         /* Report protocol - NKRO */
 492               		.loc 1 519 27 discriminator 1 view .LVU135
 493 0016 8091 0000 		lds r24,keyboard_nkro
 494 001a 8823      		tst r24
 495 001c 01F0      		breq .L42
 521:../../tmk_core/protocol/lufa/lufa.c **** 
 496               		.loc 1 521 9 is_stmt 1 view .LVU136
 497               	.LVL40:
 498               	.LBB305:
 499               	.LBI305:
 267:../../tmk_core/protocol/lufa/lufa-abcminiuser/LUFA/Drivers/USB/Core/AVR8/../AVR8/Endpoint_AVR8.h **** 			{
 500               		.loc 2 267 23 view .LVU137
 501               	.LBB306:
 270:../../tmk_core/protocol/lufa/lufa-abcminiuser/LUFA/Drivers/USB/Core/AVR8/../AVR8/Endpoint_AVR8.h **** 				#endif
 502               		.loc 2 270 6 view .LVU138
 270:../../tmk_core/protocol/lufa/lufa-abcminiuser/LUFA/Drivers/USB/Core/AVR8/../AVR8/Endpoint_AVR8.h **** 				#endif
 503               		.loc 2 270 12 is_stmt 0 view .LVU139
 504 001e 85E0      		ldi r24,lo8(5)
 505 0020 8093 E900 		sts 233,r24
 506 0024 81E8      		ldi r24,lo8(-127)
 507               	.LVL41:
 508               	.L43:
 270:../../tmk_core/protocol/lufa/lufa-abcminiuser/LUFA/Drivers/USB/Core/AVR8/../AVR8/Endpoint_AVR8.h **** 				#endif
 509               		.loc 2 270 12 view .LVU140
 510 0026 8150      		subi r24,lo8(-(-1))
 511               	.LVL42:
 270:../../tmk_core/protocol/lufa/lufa-abcminiuser/LUFA/Drivers/USB/Core/AVR8/../AVR8/Endpoint_AVR8.h **** 				#endif
 512               		.loc 2 270 12 view .LVU141
 513               	.LBE306:
 514               	.LBE305:
 524:../../tmk_core/protocol/lufa/lufa.c ****         if (!Endpoint_IsReadWriteAllowed()) return;
 515               		.loc 1 524 15 discriminator 1 view .LVU142
 516 0028 01F0      		breq .L44
 517               	.LVL43:
 518               	.LBB307:
 519               	.LBI307:
 358:../../tmk_core/protocol/lufa/lufa-abcminiuser/LUFA/Drivers/USB/Core/AVR8/../AVR8/Endpoint_AVR8.h **** 			{
 520               		.loc 2 358 23 is_stmt 1 view .LVU143
 521               	.LBB308:
 360:../../tmk_core/protocol/lufa/lufa-abcminiuser/LUFA/Drivers/USB/Core/AVR8/../AVR8/Endpoint_AVR8.h **** 			}
 522               		.loc 2 360 5 view .LVU144
 360:../../tmk_core/protocol/lufa/lufa-abcminiuser/LUFA/Drivers/USB/Core/AVR8/../AVR8/Endpoint_AVR8.h **** 			}
 523               		.loc 2 360 14 is_stmt 0 view .LVU145
 524 002a 9091 E800 		lds r25,232
 525               	.LBE308:
 526               	.LBE307:
 524:../../tmk_core/protocol/lufa/lufa.c ****         if (!Endpoint_IsReadWriteAllowed()) return;
 527               		.loc 1 524 26 view .LVU146
 528 002e 95FF      		sbrs r25,5
 529 0030 00C0      		rjmp .L45
 530               	.LVL44:
 531               	.L44:
 525:../../tmk_core/protocol/lufa/lufa.c **** 
 532               		.loc 1 525 9 is_stmt 1 view .LVU147
 533               	.LBB309:
 534               	.LBI309:
 358:../../tmk_core/protocol/lufa/lufa-abcminiuser/LUFA/Drivers/USB/Core/AVR8/../AVR8/Endpoint_AVR8.h **** 			{
 535               		.loc 2 358 23 view .LVU148
 536               	.LBB310:
 360:../../tmk_core/protocol/lufa/lufa-abcminiuser/LUFA/Drivers/USB/Core/AVR8/../AVR8/Endpoint_AVR8.h **** 			}
 537               		.loc 2 360 5 view .LVU149
 360:../../tmk_core/protocol/lufa/lufa-abcminiuser/LUFA/Drivers/USB/Core/AVR8/../AVR8/Endpoint_AVR8.h **** 			}
 538               		.loc 2 360 14 is_stmt 0 view .LVU150
 539 0032 8091 E800 		lds r24,232
 540               	.LBE310:
 541               	.LBE309:
 528:../../tmk_core/protocol/lufa/lufa.c ****     }
 542               		.loc 1 528 9 view .LVU151
 543 0036 50E0      		ldi r21,0
 544 0038 40E0      		ldi r20,0
 545 003a 60E2      		ldi r22,lo8(32)
 546 003c 70E0      		ldi r23,0
 525:../../tmk_core/protocol/lufa/lufa.c **** 
 547               		.loc 1 525 12 view .LVU152
 548 003e 85FD      		sbrc r24,5
 549 0040 00C0      		rjmp .L69
 550               	.LVL45:
 551               	.L39:
 552               	/* epilogue start */
 548:../../tmk_core/protocol/lufa/lufa.c **** 
 553               		.loc 1 548 1 view .LVU153
 554 0042 DF91      		pop r29
 555 0044 CF91      		pop r28
 556               	.LVL46:
 548:../../tmk_core/protocol/lufa/lufa.c **** 
 557               		.loc 1 548 1 view .LVU154
 558 0046 0895      		ret
 559               	.LVL47:
 560               	.L45:
 524:../../tmk_core/protocol/lufa/lufa.c ****         if (!Endpoint_IsReadWriteAllowed()) return;
 561               		.loc 1 524 61 is_stmt 1 view .LVU155
 562               	.LBB311:
 563               	.LBI311:
 255:/usr/avr/include/util/delay.h **** {
 564               		.loc 3 255 1 view .LVU156
 565               	.LBB312:
 257:/usr/avr/include/util/delay.h **** #if __HAS_DELAY_CYCLES && defined(__OPTIMIZE__) && \
 566               		.loc 3 257 2 view .LVU157
 261:/usr/avr/include/util/delay.h **** 	extern void __builtin_avr_delay_cycles(unsigned long);
 567               		.loc 3 261 2 view .LVU158
 262:/usr/avr/include/util/delay.h **** 	__tmp = ((F_CPU) / 1e6) * __us;
 568               		.loc 3 262 2 view .LVU159
 263:/usr/avr/include/util/delay.h **** 
 569               		.loc 3 263 2 view .LVU160
 273:/usr/avr/include/util/delay.h **** 	#endif
 570               		.loc 3 273 3 view .LVU161
 571               		.loc 3 276 2 view .LVU162
 572 0048 9AE2      		ldi r25,lo8(42)
 573 004a 9A95      	1:	dec r25
 574 004c 01F4      		brne 1b
 575 004e 00C0      		rjmp .
 576 0050 00C0      		rjmp .L43
 577               	.LVL48:
 578               	.L42:
 579               		.loc 3 276 2 is_stmt 0 view .LVU163
 580               	.LBE312:
 581               	.LBE311:
 534:../../tmk_core/protocol/lufa/lufa.c **** 
 582               		.loc 1 534 9 is_stmt 1 view .LVU164
 583               	.LBB313:
 584               	.LBI313:
 267:../../tmk_core/protocol/lufa/lufa-abcminiuser/LUFA/Drivers/USB/Core/AVR8/../AVR8/Endpoint_AVR8.h **** 			{
 585               		.loc 2 267 23 view .LVU165
 586               	.LBB314:
 270:../../tmk_core/protocol/lufa/lufa-abcminiuser/LUFA/Drivers/USB/Core/AVR8/../AVR8/Endpoint_AVR8.h **** 				#endif
 587               		.loc 2 270 6 view .LVU166
 270:../../tmk_core/protocol/lufa/lufa-abcminiuser/LUFA/Drivers/USB/Core/AVR8/../AVR8/Endpoint_AVR8.h **** 				#endif
 588               		.loc 2 270 12 is_stmt 0 view .LVU167
 589 0052 81E0      		ldi r24,lo8(1)
 590 0054 8093 E900 		sts 233,r24
 591 0058 81E8      		ldi r24,lo8(-127)
 592               	.LVL49:
 593               	.L48:
 270:../../tmk_core/protocol/lufa/lufa-abcminiuser/LUFA/Drivers/USB/Core/AVR8/../AVR8/Endpoint_AVR8.h **** 				#endif
 594               		.loc 2 270 12 view .LVU168
 595 005a 8150      		subi r24,lo8(-(-1))
 596               	.LVL50:
 270:../../tmk_core/protocol/lufa/lufa-abcminiuser/LUFA/Drivers/USB/Core/AVR8/../AVR8/Endpoint_AVR8.h **** 				#endif
 597               		.loc 2 270 12 view .LVU169
 598               	.LBE314:
 599               	.LBE313:
 537:../../tmk_core/protocol/lufa/lufa.c ****         if (!Endpoint_IsReadWriteAllowed()) return;
 600               		.loc 1 537 15 discriminator 1 view .LVU170
 601 005c 01F0      		breq .L49
 602               	.LVL51:
 603               	.LBB315:
 604               	.LBI315:
 358:../../tmk_core/protocol/lufa/lufa-abcminiuser/LUFA/Drivers/USB/Core/AVR8/../AVR8/Endpoint_AVR8.h **** 			{
 605               		.loc 2 358 23 is_stmt 1 view .LVU171
 606               	.LBB316:
 360:../../tmk_core/protocol/lufa/lufa-abcminiuser/LUFA/Drivers/USB/Core/AVR8/../AVR8/Endpoint_AVR8.h **** 			}
 607               		.loc 2 360 5 view .LVU172
 360:../../tmk_core/protocol/lufa/lufa-abcminiuser/LUFA/Drivers/USB/Core/AVR8/../AVR8/Endpoint_AVR8.h **** 			}
 608               		.loc 2 360 14 is_stmt 0 view .LVU173
 609 005e 9091 E800 		lds r25,232
 610               	.LBE316:
 611               	.LBE315:
 537:../../tmk_core/protocol/lufa/lufa.c ****         if (!Endpoint_IsReadWriteAllowed()) return;
 612               		.loc 1 537 26 view .LVU174
 613 0062 95FF      		sbrs r25,5
 614 0064 00C0      		rjmp .L50
 615               	.LVL52:
 616               	.L49:
 538:../../tmk_core/protocol/lufa/lufa.c **** 
 617               		.loc 1 538 9 is_stmt 1 view .LVU175
 618               	.LBB317:
 619               	.LBI317:
 358:../../tmk_core/protocol/lufa/lufa-abcminiuser/LUFA/Drivers/USB/Core/AVR8/../AVR8/Endpoint_AVR8.h **** 			{
 620               		.loc 2 358 23 view .LVU176
 621               	.LBB318:
 360:../../tmk_core/protocol/lufa/lufa-abcminiuser/LUFA/Drivers/USB/Core/AVR8/../AVR8/Endpoint_AVR8.h **** 			}
 622               		.loc 2 360 5 view .LVU177
 360:../../tmk_core/protocol/lufa/lufa-abcminiuser/LUFA/Drivers/USB/Core/AVR8/../AVR8/Endpoint_AVR8.h **** 			}
 623               		.loc 2 360 14 is_stmt 0 view .LVU178
 624 0066 8091 E800 		lds r24,232
 625               	.LBE318:
 626               	.LBE317:
 538:../../tmk_core/protocol/lufa/lufa.c **** 
 627               		.loc 1 538 12 view .LVU179
 628 006a 85FF      		sbrs r24,5
 629 006c 00C0      		rjmp .L39
 541:../../tmk_core/protocol/lufa/lufa.c ****     }
 630               		.loc 1 541 9 is_stmt 1 view .LVU180
 631 006e 50E0      		ldi r21,0
 632 0070 40E0      		ldi r20,0
 633 0072 68E0      		ldi r22,lo8(8)
 634 0074 70E0      		ldi r23,0
 635               	.LVL53:
 636               	.L69:
 541:../../tmk_core/protocol/lufa/lufa.c ****     }
 637               		.loc 1 541 9 is_stmt 0 view .LVU181
 638 0076 CE01      		movw r24,r28
 639 0078 0E94 0000 		call Endpoint_Write_Stream_LE
 640               	.LVL54:
 545:../../tmk_core/protocol/lufa/lufa.c **** 
 641               		.loc 1 545 5 is_stmt 1 view .LVU182
 642               	.LBB319:
 643               	.LBI319:
 453:../../tmk_core/protocol/lufa/lufa-abcminiuser/LUFA/Drivers/USB/Core/AVR8/../AVR8/Endpoint_AVR8.h **** 			{
 644               		.loc 2 453 23 view .LVU183
 645               	.LBB320:
 646               		.loc 2 456 6 view .LVU184
 647               		.loc 2 456 13 is_stmt 0 view .LVU185
 648 007c 8091 E800 		lds r24,232
 649 0080 8E77      		andi r24,lo8(126)
 650 0082 8093 E800 		sts 232,r24
 651               	.LBE320:
 652               	.LBE319:
 547:../../tmk_core/protocol/lufa/lufa.c **** }
 653               		.loc 1 547 5 is_stmt 1 view .LVU186
 547:../../tmk_core/protocol/lufa/lufa.c **** }
 654               		.loc 1 547 26 is_stmt 0 view .LVU187
 655 0086 80E2      		ldi r24,lo8(32)
 656 0088 FE01      		movw r30,r28
 657 008a A0E0      		ldi r26,lo8(keyboard_report_sent)
 658 008c B0E0      		ldi r27,hi8(keyboard_report_sent)
 659               		0:
 660 008e 0190      		ld r0,Z+
 661 0090 0D92      		st X+,r0
 662 0092 8A95      		dec r24
 663 0094 01F4      		brne 0b
 664 0096 00C0      		rjmp .L39
 665               	.LVL55:
 666               	.L50:
 537:../../tmk_core/protocol/lufa/lufa.c ****         if (!Endpoint_IsReadWriteAllowed()) return;
 667               		.loc 1 537 61 is_stmt 1 view .LVU188
 668               	.LBB321:
 669               	.LBI321:
 255:/usr/avr/include/util/delay.h **** {
 670               		.loc 3 255 1 view .LVU189
 671               	.LBB322:
 257:/usr/avr/include/util/delay.h **** #if __HAS_DELAY_CYCLES && defined(__OPTIMIZE__) && \
 672               		.loc 3 257 2 view .LVU190
 261:/usr/avr/include/util/delay.h **** 	extern void __builtin_avr_delay_cycles(unsigned long);
 673               		.loc 3 261 2 view .LVU191
 262:/usr/avr/include/util/delay.h **** 	__tmp = ((F_CPU) / 1e6) * __us;
 674               		.loc 3 262 2 view .LVU192
 263:/usr/avr/include/util/delay.h **** 
 675               		.loc 3 263 2 view .LVU193
 273:/usr/avr/include/util/delay.h **** 	#endif
 676               		.loc 3 273 3 view .LVU194
 677               		.loc 3 276 2 view .LVU195
 678 0098 EFE3      		ldi r30,lo8(319)
 679 009a F1E0      		ldi r31,hi8(319)
 680 009c 3197      	1:	sbiw r30,1
 681 009e 01F4      		brne 1b
 682 00a0 00C0      		rjmp .
 683 00a2 0000      		nop
 684 00a4 00C0      		rjmp .L48
 685               	.LBE322:
 686               	.LBE321:
 687               		.cfi_endproc
 688               	.LFE127:
 690               		.section	.text.console_is_ready,"ax",@progbits
 692               	console_is_ready:
 693               	.LFB115:
 111:../../tmk_core/protocol/lufa/lufa.c ****     static bool hid_listen_ready = false;
 694               		.loc 1 111 1 view -0
 695               		.cfi_startproc
 696 0000 CF93      		push r28
 697               	.LCFI10:
 698               		.cfi_def_cfa_offset 3
 699               		.cfi_offset 28, -2
 700               	/* prologue: function */
 701               	/* frame size = 0 */
 702               	/* stack size = 1 */
 703               	.L__stack_usage = 1
 112:../../tmk_core/protocol/lufa/lufa.c ****     if (!hid_listen_ready) {
 704               		.loc 1 112 5 view .LVU197
 113:../../tmk_core/protocol/lufa/lufa.c ****         if (timer_read32() < 2500)
 705               		.loc 1 113 5 view .LVU198
 113:../../tmk_core/protocol/lufa/lufa.c ****         if (timer_read32() < 2500)
 706               		.loc 1 113 9 is_stmt 0 view .LVU199
 707 0002 C091 0000 		lds r28,hid_listen_ready.5132
 113:../../tmk_core/protocol/lufa/lufa.c ****         if (timer_read32() < 2500)
 708               		.loc 1 113 8 view .LVU200
 709 0006 C111      		cpse r28,__zero_reg__
 710 0008 00C0      		rjmp .L70
 114:../../tmk_core/protocol/lufa/lufa.c ****             return false;
 711               		.loc 1 114 9 is_stmt 1 view .LVU201
 114:../../tmk_core/protocol/lufa/lufa.c ****             return false;
 712               		.loc 1 114 13 is_stmt 0 view .LVU202
 713 000a 0E94 0000 		call timer_read32
 714               	.LVL56:
 114:../../tmk_core/protocol/lufa/lufa.c ****             return false;
 715               		.loc 1 114 12 view .LVU203
 716 000e 643C      		cpi r22,-60
 717 0010 7940      		sbci r23,9
 718 0012 8105      		cpc r24,__zero_reg__
 719 0014 9105      		cpc r25,__zero_reg__
 720 0016 00F0      		brlo .L70
 116:../../tmk_core/protocol/lufa/lufa.c ****     }
 721               		.loc 1 116 9 is_stmt 1 view .LVU204
 116:../../tmk_core/protocol/lufa/lufa.c ****     }
 722               		.loc 1 116 26 is_stmt 0 view .LVU205
 723 0018 81E0      		ldi r24,lo8(1)
 724 001a 8093 0000 		sts hid_listen_ready.5132,r24
 118:../../tmk_core/protocol/lufa/lufa.c **** }
 725               		.loc 1 118 12 view .LVU206
 726 001e C1E0      		ldi r28,lo8(1)
 727               	.L70:
 119:../../tmk_core/protocol/lufa/lufa.c **** 
 728               		.loc 1 119 1 view .LVU207
 729 0020 8C2F      		mov r24,r28
 730               	/* epilogue start */
 731 0022 CF91      		pop r28
 732 0024 0895      		ret
 733               		.cfi_endproc
 734               	.LFE115:
 736               		.section	.text.sendchar,"ax",@progbits
 737               	.global	sendchar
 739               	sendchar:
 740               	.LVL57:
 741               	.LFB131:
 618:../../tmk_core/protocol/lufa/lufa.c **** 
 619:../../tmk_core/protocol/lufa/lufa.c **** 
 620:../../tmk_core/protocol/lufa/lufa.c **** /*******************************************************************************
 621:../../tmk_core/protocol/lufa/lufa.c ****  * sendchar
 622:../../tmk_core/protocol/lufa/lufa.c ****  ******************************************************************************/
 623:../../tmk_core/protocol/lufa/lufa.c **** int8_t sendchar(uint8_t c)
 624:../../tmk_core/protocol/lufa/lufa.c **** {
 742               		.loc 1 624 1 is_stmt 1 view -0
 743               		.cfi_startproc
 744               		.loc 1 624 1 is_stmt 0 view .LVU209
 745 0000 FF92      		push r15
 746               	.LCFI11:
 747               		.cfi_def_cfa_offset 3
 748               		.cfi_offset 15, -2
 749 0002 0F93      		push r16
 750               	.LCFI12:
 751               		.cfi_def_cfa_offset 4
 752               		.cfi_offset 16, -3
 753 0004 1F93      		push r17
 754               	.LCFI13:
 755               		.cfi_def_cfa_offset 5
 756               		.cfi_offset 17, -4
 757 0006 CF93      		push r28
 758               	.LCFI14:
 759               		.cfi_def_cfa_offset 6
 760               		.cfi_offset 28, -5
 761 0008 DF93      		push r29
 762               	.LCFI15:
 763               		.cfi_def_cfa_offset 7
 764               		.cfi_offset 29, -6
 765               	/* prologue: function */
 766               	/* frame size = 0 */
 767               	/* stack size = 5 */
 768               	.L__stack_usage = 5
 769 000a D82F      		mov r29,r24
 625:../../tmk_core/protocol/lufa/lufa.c ****     #ifdef TMK_LUFA_DEBUG_SUART
 626:../../tmk_core/protocol/lufa/lufa.c ****     xmit(c);
 627:../../tmk_core/protocol/lufa/lufa.c ****     #endif
 628:../../tmk_core/protocol/lufa/lufa.c **** 
 629:../../tmk_core/protocol/lufa/lufa.c ****     #ifdef TMK_LUFA_DEBUG_UART
 630:../../tmk_core/protocol/lufa/lufa.c ****     uart_putchar(c);
 631:../../tmk_core/protocol/lufa/lufa.c ****     #endif
 632:../../tmk_core/protocol/lufa/lufa.c **** 
 633:../../tmk_core/protocol/lufa/lufa.c ****     #ifdef CONSOLE_ENABLE
 634:../../tmk_core/protocol/lufa/lufa.c ****     console_putc(c);
 770               		.loc 1 634 5 is_stmt 1 view .LVU210
 771               	.LVL58:
 772               	.LBB382:
 773               	.LBI382:
 121:../../tmk_core/protocol/lufa/lufa.c **** {
 774               		.loc 1 121 13 view .LVU211
 775               	.LBB383:
 124:../../tmk_core/protocol/lufa/lufa.c ****         goto EXIT;
 776               		.loc 1 124 5 view .LVU212
 124:../../tmk_core/protocol/lufa/lufa.c ****         goto EXIT;
 777               		.loc 1 124 8 is_stmt 0 view .LVU213
 778 000c 0FB6      		in __tmp_reg__,__SREG__
 779 000e 07FE      		sbrs __tmp_reg__,7
 780 0010 00C0      		rjmp .L74
 127:../../tmk_core/protocol/lufa/lufa.c ****         goto EXIT;
 781               		.loc 1 127 5 is_stmt 1 view .LVU214
 127:../../tmk_core/protocol/lufa/lufa.c ****         goto EXIT;
 782               		.loc 1 127 25 is_stmt 0 view .LVU215
 783 0012 8091 0000 		lds r24,USB_DeviceState
 784               	.LVL59:
 127:../../tmk_core/protocol/lufa/lufa.c ****         goto EXIT;
 785               		.loc 1 127 8 view .LVU216
 786 0016 8430      		cpi r24,lo8(4)
 787 0018 01F0      		breq .L75
 788               	.LBB384:
 789               	.LBI384:
 790               		.file 4 "../../tmk_core/common/ringbuf.h"
   1:../../tmk_core/common/ringbuf.h **** #ifndef RINGBUF_H
   2:../../tmk_core/common/ringbuf.h **** #define RINGBUF_H
   3:../../tmk_core/common/ringbuf.h **** 
   4:../../tmk_core/common/ringbuf.h **** #include <stdint.h>
   5:../../tmk_core/common/ringbuf.h **** #include <stdbool.h>
   6:../../tmk_core/common/ringbuf.h **** 
   7:../../tmk_core/common/ringbuf.h **** // NOTE: buffer size must be 2^n and up to 255. size_mask should be 2^n - 1 due to using &(AND) ins
   8:../../tmk_core/common/ringbuf.h **** typedef struct {
   9:../../tmk_core/common/ringbuf.h ****     uint8_t *buffer;
  10:../../tmk_core/common/ringbuf.h ****     uint8_t head;
  11:../../tmk_core/common/ringbuf.h ****     uint8_t tail;
  12:../../tmk_core/common/ringbuf.h ****     uint8_t size_mask;
  13:../../tmk_core/common/ringbuf.h **** } ringbuf_t;
  14:../../tmk_core/common/ringbuf.h **** 
  15:../../tmk_core/common/ringbuf.h **** static inline void ringbuf_init(ringbuf_t *buf, uint8_t *array, uint8_t size);
  16:../../tmk_core/common/ringbuf.h **** static inline int16_t ringbuf_get(ringbuf_t *buf);
  17:../../tmk_core/common/ringbuf.h **** static inline bool ringbuf_put(ringbuf_t *buf, uint8_t data);
  18:../../tmk_core/common/ringbuf.h **** static inline void ringbuf_write(ringbuf_t *buf, uint8_t data);
  19:../../tmk_core/common/ringbuf.h **** static inline bool ringbuf_is_empty(ringbuf_t *buf);
  20:../../tmk_core/common/ringbuf.h **** static inline bool ringbuf_is_full(ringbuf_t *buf);
  21:../../tmk_core/common/ringbuf.h **** static inline void ringbuf_reset(ringbuf_t *buf);
  22:../../tmk_core/common/ringbuf.h **** 
  23:../../tmk_core/common/ringbuf.h **** static inline void ringbuf_init(ringbuf_t *buf, uint8_t *array, uint8_t size)
  24:../../tmk_core/common/ringbuf.h **** {
  25:../../tmk_core/common/ringbuf.h ****     buf->buffer = array;
  26:../../tmk_core/common/ringbuf.h ****     buf->head = 0;
  27:../../tmk_core/common/ringbuf.h ****     buf->tail = 0;
  28:../../tmk_core/common/ringbuf.h ****     buf->size_mask = size - 1;
  29:../../tmk_core/common/ringbuf.h **** }
  30:../../tmk_core/common/ringbuf.h **** static inline int16_t ringbuf_get(ringbuf_t *buf)
  31:../../tmk_core/common/ringbuf.h **** {
  32:../../tmk_core/common/ringbuf.h ****     if (ringbuf_is_empty(buf)) return -1;
  33:../../tmk_core/common/ringbuf.h ****     uint8_t data = buf->buffer[buf->tail];
  34:../../tmk_core/common/ringbuf.h ****     buf->tail++;
  35:../../tmk_core/common/ringbuf.h ****     buf->tail &= buf->size_mask;
  36:../../tmk_core/common/ringbuf.h ****     return  data;
  37:../../tmk_core/common/ringbuf.h **** }
  38:../../tmk_core/common/ringbuf.h **** static inline bool ringbuf_put(ringbuf_t *buf, uint8_t data)
  39:../../tmk_core/common/ringbuf.h **** {
  40:../../tmk_core/common/ringbuf.h ****     if (ringbuf_is_full(buf)) {
  41:../../tmk_core/common/ringbuf.h ****         return false;
  42:../../tmk_core/common/ringbuf.h ****     }
  43:../../tmk_core/common/ringbuf.h ****     buf->buffer[buf->head] = data;
  44:../../tmk_core/common/ringbuf.h ****     buf->head++;
  45:../../tmk_core/common/ringbuf.h ****     buf->head &= buf->size_mask;
  46:../../tmk_core/common/ringbuf.h ****     return true;
  47:../../tmk_core/common/ringbuf.h **** }
  48:../../tmk_core/common/ringbuf.h **** // this overrides data in buffer when it is full
  49:../../tmk_core/common/ringbuf.h **** static inline void ringbuf_write(ringbuf_t *buf, uint8_t data)
  50:../../tmk_core/common/ringbuf.h **** {
  51:../../tmk_core/common/ringbuf.h ****     buf->buffer[buf->head] = data;
  52:../../tmk_core/common/ringbuf.h ****     buf->head++;
  53:../../tmk_core/common/ringbuf.h ****     buf->head &= buf->size_mask;
  54:../../tmk_core/common/ringbuf.h ****     // eat tail: override data yet to be consumed
  55:../../tmk_core/common/ringbuf.h ****     if (buf->head == buf->tail) {
  56:../../tmk_core/common/ringbuf.h ****         buf->tail++;
  57:../../tmk_core/common/ringbuf.h ****         buf->tail &= buf->size_mask;
  58:../../tmk_core/common/ringbuf.h ****     }
  59:../../tmk_core/common/ringbuf.h **** }
  60:../../tmk_core/common/ringbuf.h **** static inline bool ringbuf_is_empty(ringbuf_t *buf)
  61:../../tmk_core/common/ringbuf.h **** {
  62:../../tmk_core/common/ringbuf.h ****     return (buf->head == buf->tail);
  63:../../tmk_core/common/ringbuf.h **** }
  64:../../tmk_core/common/ringbuf.h **** static inline bool ringbuf_is_full(ringbuf_t *buf)
 791               		.loc 4 64 20 is_stmt 1 view .LVU217
 792               	.LVL60:
 793               	.LBB385:
  65:../../tmk_core/common/ringbuf.h **** {
  66:../../tmk_core/common/ringbuf.h ****     return (((buf->head + 1) & buf->size_mask) == buf->tail);
 794               		.loc 4 66 5 view .LVU218
 795               		.loc 4 66 18 is_stmt 0 view .LVU219
 796 001a 8091 0000 		lds r24,sendbuf+2
 797 001e 90E0      		ldi r25,0
 798               		.loc 4 66 25 view .LVU220
 799 0020 0196      		adiw r24,1
 800               		.loc 4 66 35 view .LVU221
 801 0022 2091 0000 		lds r18,sendbuf+4
 802 0026 30E0      		ldi r19,0
 803               		.loc 4 66 30 view .LVU222
 804 0028 8223      		and r24,r18
 805 002a 9323      		and r25,r19
 806               		.loc 4 66 54 view .LVU223
 807 002c 2091 0000 		lds r18,sendbuf+3
 808               	.LBE385:
 809               	.LBE384:
 127:../../tmk_core/protocol/lufa/lufa.c ****         goto EXIT;
 810               		.loc 1 127 52 view .LVU224
 811 0030 2817      		cp r18,r24
 812 0032 1906      		cpc __zero_reg__,r25
 813 0034 01F4      		brne .L74
 814               	.L75:
 130:../../tmk_core/protocol/lufa/lufa.c ****         goto EXIT;
 815               		.loc 1 130 5 is_stmt 1 view .LVU225
 130:../../tmk_core/protocol/lufa/lufa.c ****         goto EXIT;
 816               		.loc 1 130 10 is_stmt 0 view .LVU226
 817 0036 0E94 0000 		call console_is_ready
 818               	.LVL61:
 130:../../tmk_core/protocol/lufa/lufa.c ****         goto EXIT;
 819               		.loc 1 130 8 view .LVU227
 820 003a 8111      		cpse r24,__zero_reg__
 821 003c 00C0      		rjmp .L77
 822               	.LBB386:
 823               	.LBI386:
  64:../../tmk_core/common/ringbuf.h **** {
 824               		.loc 4 64 20 is_stmt 1 view .LVU228
 825               	.LVL62:
 826               	.LBB387:
 827               		.loc 4 66 5 view .LVU229
 828               		.loc 4 66 18 is_stmt 0 view .LVU230
 829 003e 8091 0000 		lds r24,sendbuf+2
 830 0042 90E0      		ldi r25,0
 831               		.loc 4 66 25 view .LVU231
 832 0044 0196      		adiw r24,1
 833               		.loc 4 66 35 view .LVU232
 834 0046 2091 0000 		lds r18,sendbuf+4
 835 004a 30E0      		ldi r19,0
 836               		.loc 4 66 30 view .LVU233
 837 004c 8223      		and r24,r18
 838 004e 9323      		and r25,r19
 839               		.loc 4 66 54 view .LVU234
 840 0050 2091 0000 		lds r18,sendbuf+3
 841               	.LBE387:
 842               	.LBE386:
 130:../../tmk_core/protocol/lufa/lufa.c ****         goto EXIT;
 843               		.loc 1 130 29 view .LVU235
 844 0054 2817      		cp r18,r24
 845 0056 1906      		cpc __zero_reg__,r25
 846 0058 01F4      		brne .L74
 847               	.L77:
 142:../../tmk_core/protocol/lufa/lufa.c ****     static uint8_t timeout = CONSOLE_TIMOUT;
 848               		.loc 1 142 5 is_stmt 1 view .LVU236
 849               	.LVL63:
 143:../../tmk_core/protocol/lufa/lufa.c ****     uint16_t prev = timer_read();
 850               		.loc 1 143 5 view .LVU237
 144:../../tmk_core/protocol/lufa/lufa.c ****     bool done = false;
 851               		.loc 1 144 5 view .LVU238
 144:../../tmk_core/protocol/lufa/lufa.c ****     bool done = false;
 852               		.loc 1 144 21 is_stmt 0 view .LVU239
 853 005a 0E94 0000 		call timer_read
 854               	.LVL64:
 855 005e 8C01      		movw r16,r24
 856               	.LVL65:
 145:../../tmk_core/protocol/lufa/lufa.c **** 
 857               		.loc 1 145 5 is_stmt 1 view .LVU240
 147:../../tmk_core/protocol/lufa/lufa.c ****     Endpoint_SelectEndpoint(CONSOLE_IN_EPNUM);
 858               		.loc 1 147 5 view .LVU241
 859               	.LBB388:
 860               	.LBI388:
 250:../../tmk_core/protocol/lufa/lufa-abcminiuser/LUFA/Drivers/USB/Core/AVR8/../AVR8/Endpoint_AVR8.h **** 			{
 861               		.loc 2 250 26 view .LVU242
 862               	.LBB389:
 253:../../tmk_core/protocol/lufa/lufa-abcminiuser/LUFA/Drivers/USB/Core/AVR8/../AVR8/Endpoint_AVR8.h **** 				#else
 863               		.loc 2 253 6 view .LVU243
 253:../../tmk_core/protocol/lufa/lufa-abcminiuser/LUFA/Drivers/USB/Core/AVR8/../AVR8/Endpoint_AVR8.h **** 				#else
 864               		.loc 2 253 15 is_stmt 0 view .LVU244
 865 0060 C091 E900 		lds r28,233
 253:../../tmk_core/protocol/lufa/lufa-abcminiuser/LUFA/Drivers/USB/Core/AVR8/../AVR8/Endpoint_AVR8.h **** 				#else
 866               		.loc 2 253 21 view .LVU245
 867 0064 CF70      		andi r28,lo8(15)
 868               	.LBB390:
 869               	.LBI390:
 238:../../tmk_core/protocol/lufa/lufa-abcminiuser/LUFA/Drivers/USB/Core/AVR8/../AVR8/Endpoint_AVR8.h **** 			{
 870               		.loc 2 238 26 is_stmt 1 view .LVU246
 871               	.LBB391:
 240:../../tmk_core/protocol/lufa/lufa-abcminiuser/LUFA/Drivers/USB/Core/AVR8/../AVR8/Endpoint_AVR8.h **** 			}
 872               		.loc 2 240 5 view .LVU247
 240:../../tmk_core/protocol/lufa/lufa-abcminiuser/LUFA/Drivers/USB/Core/AVR8/../AVR8/Endpoint_AVR8.h **** 			}
 873               		.loc 2 240 13 is_stmt 0 view .LVU248
 874 0066 9091 EC00 		lds r25,236
 240:../../tmk_core/protocol/lufa/lufa-abcminiuser/LUFA/Drivers/USB/Core/AVR8/../AVR8/Endpoint_AVR8.h **** 			}
 875               		.loc 2 240 55 view .LVU249
 876 006a 892F      		mov r24,r25
 877 006c 8170      		andi r24,lo8(1)
 878 006e 90FD      		sbrc r25,0
 879 0070 80E8      		ldi r24,lo8(-128)
 880               	.L78:
 881               	.LBE391:
 882               	.LBE390:
 253:../../tmk_core/protocol/lufa/lufa-abcminiuser/LUFA/Drivers/USB/Core/AVR8/../AVR8/Endpoint_AVR8.h **** 				#else
 883               		.loc 2 253 44 view .LVU250
 884 0072 C82B      		or r28,r24
 885               	.LVL66:
 253:../../tmk_core/protocol/lufa/lufa-abcminiuser/LUFA/Drivers/USB/Core/AVR8/../AVR8/Endpoint_AVR8.h **** 				#else
 886               		.loc 2 253 44 view .LVU251
 887               	.LBE389:
 888               	.LBE388:
 148:../../tmk_core/protocol/lufa/lufa.c **** 
 889               		.loc 1 148 5 is_stmt 1 view .LVU252
 890               	.LBB392:
 891               	.LBI392:
 267:../../tmk_core/protocol/lufa/lufa-abcminiuser/LUFA/Drivers/USB/Core/AVR8/../AVR8/Endpoint_AVR8.h **** 			{
 892               		.loc 2 267 23 view .LVU253
 893               	.LBB393:
 270:../../tmk_core/protocol/lufa/lufa-abcminiuser/LUFA/Drivers/USB/Core/AVR8/../AVR8/Endpoint_AVR8.h **** 				#endif
 894               		.loc 2 270 6 view .LVU254
 270:../../tmk_core/protocol/lufa/lufa-abcminiuser/LUFA/Drivers/USB/Core/AVR8/../AVR8/Endpoint_AVR8.h **** 				#endif
 895               		.loc 2 270 12 is_stmt 0 view .LVU255
 896 0074 84E0      		ldi r24,lo8(4)
 897 0076 8093 E900 		sts 233,r24
 898               	.LBE393:
 899               	.LBE392:
 162:../../tmk_core/protocol/lufa/lufa.c ****         }
 900               		.loc 1 162 21 view .LVU256
 901 007a 85E0      		ldi r24,lo8(5)
 902 007c F82E      		mov r15,r24
 903               	.LVL67:
 904               	.L91:
 151:../../tmk_core/protocol/lufa/lufa.c ****         goto EXIT_RESTORE_EP;
 905               		.loc 1 151 5 is_stmt 1 view .LVU257
 906               	.LBB394:
 907               	.LBI394:
 457:../../tmk_core/protocol/lufa/lufa-abcminiuser/LUFA/Drivers/USB/Core/AVR8/../AVR8/Endpoint_AVR8.h **** 				#else
 458:../../tmk_core/protocol/lufa/lufa-abcminiuser/LUFA/Drivers/USB/Core/AVR8/../AVR8/Endpoint_AVR8.h **** 					UEINTX &= ~(1 << TXINI);
 459:../../tmk_core/protocol/lufa/lufa-abcminiuser/LUFA/Drivers/USB/Core/AVR8/../AVR8/Endpoint_AVR8.h **** 				#endif
 460:../../tmk_core/protocol/lufa/lufa-abcminiuser/LUFA/Drivers/USB/Core/AVR8/../AVR8/Endpoint_AVR8.h **** 			}
 461:../../tmk_core/protocol/lufa/lufa-abcminiuser/LUFA/Drivers/USB/Core/AVR8/../AVR8/Endpoint_AVR8.h **** 
 462:../../tmk_core/protocol/lufa/lufa-abcminiuser/LUFA/Drivers/USB/Core/AVR8/../AVR8/Endpoint_AVR8.h **** 			/** Acknowledges an OUT packet to the host on the currently selected endpoint, freeing up the en
 463:../../tmk_core/protocol/lufa/lufa-abcminiuser/LUFA/Drivers/USB/Core/AVR8/../AVR8/Endpoint_AVR8.h **** 			 *  for the next packet and switching to the alternative endpoint bank if double banked.
 464:../../tmk_core/protocol/lufa/lufa-abcminiuser/LUFA/Drivers/USB/Core/AVR8/../AVR8/Endpoint_AVR8.h **** 			 *
 465:../../tmk_core/protocol/lufa/lufa-abcminiuser/LUFA/Drivers/USB/Core/AVR8/../AVR8/Endpoint_AVR8.h **** 			 *  \ingroup Group_EndpointPacketManagement_AVR8
 466:../../tmk_core/protocol/lufa/lufa-abcminiuser/LUFA/Drivers/USB/Core/AVR8/../AVR8/Endpoint_AVR8.h **** 			 */
 467:../../tmk_core/protocol/lufa/lufa-abcminiuser/LUFA/Drivers/USB/Core/AVR8/../AVR8/Endpoint_AVR8.h **** 			static inline void Endpoint_ClearOUT(void) ATTR_ALWAYS_INLINE;
 468:../../tmk_core/protocol/lufa/lufa-abcminiuser/LUFA/Drivers/USB/Core/AVR8/../AVR8/Endpoint_AVR8.h **** 			static inline void Endpoint_ClearOUT(void)
 469:../../tmk_core/protocol/lufa/lufa-abcminiuser/LUFA/Drivers/USB/Core/AVR8/../AVR8/Endpoint_AVR8.h **** 			{
 470:../../tmk_core/protocol/lufa/lufa-abcminiuser/LUFA/Drivers/USB/Core/AVR8/../AVR8/Endpoint_AVR8.h **** 				#if !defined(CONTROL_ONLY_DEVICE)
 471:../../tmk_core/protocol/lufa/lufa-abcminiuser/LUFA/Drivers/USB/Core/AVR8/../AVR8/Endpoint_AVR8.h **** 					UEINTX &= ~((1 << RXOUTI) | (1 << FIFOCON));
 472:../../tmk_core/protocol/lufa/lufa-abcminiuser/LUFA/Drivers/USB/Core/AVR8/../AVR8/Endpoint_AVR8.h **** 				#else
 473:../../tmk_core/protocol/lufa/lufa-abcminiuser/LUFA/Drivers/USB/Core/AVR8/../AVR8/Endpoint_AVR8.h **** 					UEINTX &= ~(1 << RXOUTI);
 474:../../tmk_core/protocol/lufa/lufa-abcminiuser/LUFA/Drivers/USB/Core/AVR8/../AVR8/Endpoint_AVR8.h **** 				#endif
 475:../../tmk_core/protocol/lufa/lufa-abcminiuser/LUFA/Drivers/USB/Core/AVR8/../AVR8/Endpoint_AVR8.h **** 			}
 476:../../tmk_core/protocol/lufa/lufa-abcminiuser/LUFA/Drivers/USB/Core/AVR8/../AVR8/Endpoint_AVR8.h **** 
 477:../../tmk_core/protocol/lufa/lufa-abcminiuser/LUFA/Drivers/USB/Core/AVR8/../AVR8/Endpoint_AVR8.h **** 			/** Stalls the current endpoint, indicating to the host that a logical problem occurred with the
 478:../../tmk_core/protocol/lufa/lufa-abcminiuser/LUFA/Drivers/USB/Core/AVR8/../AVR8/Endpoint_AVR8.h **** 			 *  indicated endpoint and that the current transfer sequence should be aborted. This provides a
 479:../../tmk_core/protocol/lufa/lufa-abcminiuser/LUFA/Drivers/USB/Core/AVR8/../AVR8/Endpoint_AVR8.h **** 			 *  way for devices to indicate invalid commands to the host so that the current transfer can be
 480:../../tmk_core/protocol/lufa/lufa-abcminiuser/LUFA/Drivers/USB/Core/AVR8/../AVR8/Endpoint_AVR8.h **** 			 *  aborted and the host can begin its own recovery sequence.
 481:../../tmk_core/protocol/lufa/lufa-abcminiuser/LUFA/Drivers/USB/Core/AVR8/../AVR8/Endpoint_AVR8.h **** 			 *
 482:../../tmk_core/protocol/lufa/lufa-abcminiuser/LUFA/Drivers/USB/Core/AVR8/../AVR8/Endpoint_AVR8.h **** 			 *  The currently selected endpoint remains stalled until either the \ref Endpoint_ClearStall() 
 483:../../tmk_core/protocol/lufa/lufa-abcminiuser/LUFA/Drivers/USB/Core/AVR8/../AVR8/Endpoint_AVR8.h **** 			 *  is called, or the host issues a CLEAR FEATURE request to the device for the currently select
 484:../../tmk_core/protocol/lufa/lufa-abcminiuser/LUFA/Drivers/USB/Core/AVR8/../AVR8/Endpoint_AVR8.h **** 			 *  endpoint.
 485:../../tmk_core/protocol/lufa/lufa-abcminiuser/LUFA/Drivers/USB/Core/AVR8/../AVR8/Endpoint_AVR8.h **** 			 *
 486:../../tmk_core/protocol/lufa/lufa-abcminiuser/LUFA/Drivers/USB/Core/AVR8/../AVR8/Endpoint_AVR8.h **** 			 *  \ingroup Group_EndpointPacketManagement_AVR8
 487:../../tmk_core/protocol/lufa/lufa-abcminiuser/LUFA/Drivers/USB/Core/AVR8/../AVR8/Endpoint_AVR8.h **** 			 */
 488:../../tmk_core/protocol/lufa/lufa-abcminiuser/LUFA/Drivers/USB/Core/AVR8/../AVR8/Endpoint_AVR8.h **** 			static inline void Endpoint_StallTransaction(void) ATTR_ALWAYS_INLINE;
 489:../../tmk_core/protocol/lufa/lufa-abcminiuser/LUFA/Drivers/USB/Core/AVR8/../AVR8/Endpoint_AVR8.h **** 			static inline void Endpoint_StallTransaction(void)
 490:../../tmk_core/protocol/lufa/lufa-abcminiuser/LUFA/Drivers/USB/Core/AVR8/../AVR8/Endpoint_AVR8.h **** 			{
 491:../../tmk_core/protocol/lufa/lufa-abcminiuser/LUFA/Drivers/USB/Core/AVR8/../AVR8/Endpoint_AVR8.h **** 				UECONX |= (1 << STALLRQ);
 492:../../tmk_core/protocol/lufa/lufa-abcminiuser/LUFA/Drivers/USB/Core/AVR8/../AVR8/Endpoint_AVR8.h **** 			}
 493:../../tmk_core/protocol/lufa/lufa-abcminiuser/LUFA/Drivers/USB/Core/AVR8/../AVR8/Endpoint_AVR8.h **** 
 494:../../tmk_core/protocol/lufa/lufa-abcminiuser/LUFA/Drivers/USB/Core/AVR8/../AVR8/Endpoint_AVR8.h **** 			/** Clears the STALL condition on the currently selected endpoint.
 495:../../tmk_core/protocol/lufa/lufa-abcminiuser/LUFA/Drivers/USB/Core/AVR8/../AVR8/Endpoint_AVR8.h **** 			 *
 496:../../tmk_core/protocol/lufa/lufa-abcminiuser/LUFA/Drivers/USB/Core/AVR8/../AVR8/Endpoint_AVR8.h **** 			 *  \ingroup Group_EndpointPacketManagement_AVR8
 497:../../tmk_core/protocol/lufa/lufa-abcminiuser/LUFA/Drivers/USB/Core/AVR8/../AVR8/Endpoint_AVR8.h **** 			 */
 498:../../tmk_core/protocol/lufa/lufa-abcminiuser/LUFA/Drivers/USB/Core/AVR8/../AVR8/Endpoint_AVR8.h **** 			static inline void Endpoint_ClearStall(void) ATTR_ALWAYS_INLINE;
 499:../../tmk_core/protocol/lufa/lufa-abcminiuser/LUFA/Drivers/USB/Core/AVR8/../AVR8/Endpoint_AVR8.h **** 			static inline void Endpoint_ClearStall(void)
 500:../../tmk_core/protocol/lufa/lufa-abcminiuser/LUFA/Drivers/USB/Core/AVR8/../AVR8/Endpoint_AVR8.h **** 			{
 501:../../tmk_core/protocol/lufa/lufa-abcminiuser/LUFA/Drivers/USB/Core/AVR8/../AVR8/Endpoint_AVR8.h **** 				UECONX |= (1 << STALLRQC);
 502:../../tmk_core/protocol/lufa/lufa-abcminiuser/LUFA/Drivers/USB/Core/AVR8/../AVR8/Endpoint_AVR8.h **** 			}
 503:../../tmk_core/protocol/lufa/lufa-abcminiuser/LUFA/Drivers/USB/Core/AVR8/../AVR8/Endpoint_AVR8.h **** 
 504:../../tmk_core/protocol/lufa/lufa-abcminiuser/LUFA/Drivers/USB/Core/AVR8/../AVR8/Endpoint_AVR8.h **** 			/** Determines if the currently selected endpoint is stalled, \c false otherwise.
 505:../../tmk_core/protocol/lufa/lufa-abcminiuser/LUFA/Drivers/USB/Core/AVR8/../AVR8/Endpoint_AVR8.h **** 			 *
 506:../../tmk_core/protocol/lufa/lufa-abcminiuser/LUFA/Drivers/USB/Core/AVR8/../AVR8/Endpoint_AVR8.h **** 			 *  \ingroup Group_EndpointPacketManagement_AVR8
 507:../../tmk_core/protocol/lufa/lufa-abcminiuser/LUFA/Drivers/USB/Core/AVR8/../AVR8/Endpoint_AVR8.h **** 			 *
 508:../../tmk_core/protocol/lufa/lufa-abcminiuser/LUFA/Drivers/USB/Core/AVR8/../AVR8/Endpoint_AVR8.h **** 			 *  \return Boolean \c true if the currently selected endpoint is stalled, \c false otherwise.
 509:../../tmk_core/protocol/lufa/lufa-abcminiuser/LUFA/Drivers/USB/Core/AVR8/../AVR8/Endpoint_AVR8.h **** 			 */
 510:../../tmk_core/protocol/lufa/lufa-abcminiuser/LUFA/Drivers/USB/Core/AVR8/../AVR8/Endpoint_AVR8.h **** 			static inline bool Endpoint_IsStalled(void) ATTR_WARN_UNUSED_RESULT ATTR_ALWAYS_INLINE;
 511:../../tmk_core/protocol/lufa/lufa-abcminiuser/LUFA/Drivers/USB/Core/AVR8/../AVR8/Endpoint_AVR8.h **** 			static inline bool Endpoint_IsStalled(void)
 908               		.loc 2 511 23 view .LVU258
 909               	.LBB395:
 512:../../tmk_core/protocol/lufa/lufa-abcminiuser/LUFA/Drivers/USB/Core/AVR8/../AVR8/Endpoint_AVR8.h **** 			{
 513:../../tmk_core/protocol/lufa/lufa-abcminiuser/LUFA/Drivers/USB/Core/AVR8/../AVR8/Endpoint_AVR8.h **** 				return ((UECONX & (1 << STALLRQ)) ? true : false);
 910               		.loc 2 513 5 view .LVU259
 911               		.loc 2 513 14 is_stmt 0 view .LVU260
 912 007e 8091 EB00 		lds r24,235
 913               	.LBE395:
 914               	.LBE394:
 151:../../tmk_core/protocol/lufa/lufa.c ****         goto EXIT_RESTORE_EP;
 915               		.loc 1 151 8 view .LVU261
 916 0082 85FD      		sbrc r24,5
 917 0084 00C0      		rjmp .L80
 918               	.LBB396:
 919               	.LBI396:
 311:../../tmk_core/protocol/lufa/lufa-abcminiuser/LUFA/Drivers/USB/Core/AVR8/../AVR8/Endpoint_AVR8.h **** 			{
 920               		.loc 2 311 23 is_stmt 1 view .LVU262
 921               	.LBB397:
 313:../../tmk_core/protocol/lufa/lufa-abcminiuser/LUFA/Drivers/USB/Core/AVR8/../AVR8/Endpoint_AVR8.h **** 			}
 922               		.loc 2 313 5 view .LVU263
 313:../../tmk_core/protocol/lufa/lufa-abcminiuser/LUFA/Drivers/USB/Core/AVR8/../AVR8/Endpoint_AVR8.h **** 			}
 923               		.loc 2 313 14 is_stmt 0 view .LVU264
 924 0086 8091 EB00 		lds r24,235
 925               	.LBE397:
 926               	.LBE396:
 151:../../tmk_core/protocol/lufa/lufa.c ****         goto EXIT_RESTORE_EP;
 927               		.loc 1 151 30 view .LVU265
 928 008a 80FF      		sbrs r24,0
 929 008c 00C0      		rjmp .L80
 930               	.LBB398:
 931               	.LBI398:
 368:../../tmk_core/protocol/lufa/lufa-abcminiuser/LUFA/Drivers/USB/Core/AVR8/../AVR8/Endpoint_AVR8.h **** 			{
 932               		.loc 2 368 23 is_stmt 1 view .LVU266
 933               	.LBB399:
 370:../../tmk_core/protocol/lufa/lufa-abcminiuser/LUFA/Drivers/USB/Core/AVR8/../AVR8/Endpoint_AVR8.h **** 			}
 934               		.loc 2 370 5 view .LVU267
 370:../../tmk_core/protocol/lufa/lufa-abcminiuser/LUFA/Drivers/USB/Core/AVR8/../AVR8/Endpoint_AVR8.h **** 			}
 935               		.loc 2 370 14 is_stmt 0 view .LVU268
 936 008e 8091 EE00 		lds r24,238
 937               	.LBE399:
 938               	.LBE398:
 151:../../tmk_core/protocol/lufa/lufa.c ****         goto EXIT_RESTORE_EP;
 939               		.loc 1 151 55 view .LVU269
 940 0092 87FD      		sbrc r24,7
 941 0094 00C0      		rjmp .L81
 942               	.LVL68:
 943               	.L80:
 944               	.LDL1:
 201:../../tmk_core/protocol/lufa/lufa.c **** EXIT:
 945               		.loc 1 201 5 is_stmt 1 view .LVU270
 946               	.LBB400:
 947               	.LBI400:
 267:../../tmk_core/protocol/lufa/lufa-abcminiuser/LUFA/Drivers/USB/Core/AVR8/../AVR8/Endpoint_AVR8.h **** 			{
 948               		.loc 2 267 23 view .LVU271
 949               	.LBB401:
 270:../../tmk_core/protocol/lufa/lufa-abcminiuser/LUFA/Drivers/USB/Core/AVR8/../AVR8/Endpoint_AVR8.h **** 				#endif
 950               		.loc 2 270 6 view .LVU272
 270:../../tmk_core/protocol/lufa/lufa-abcminiuser/LUFA/Drivers/USB/Core/AVR8/../AVR8/Endpoint_AVR8.h **** 				#endif
 951               		.loc 2 270 23 is_stmt 0 view .LVU273
 952 0096 CF70      		andi r28,lo8(15)
 953               	.LVL69:
 270:../../tmk_core/protocol/lufa/lufa-abcminiuser/LUFA/Drivers/USB/Core/AVR8/../AVR8/Endpoint_AVR8.h **** 				#endif
 954               		.loc 2 270 12 view .LVU274
 955 0098 C093 E900 		sts 233,r28
 956               	.LVL70:
 957               	.L74:
 270:../../tmk_core/protocol/lufa/lufa-abcminiuser/LUFA/Drivers/USB/Core/AVR8/../AVR8/Endpoint_AVR8.h **** 				#endif
 958               		.loc 2 270 12 view .LVU275
 959               	.LBE401:
 960               	.LBE400:
 203:../../tmk_core/protocol/lufa/lufa.c **** }
 961               		.loc 1 203 5 is_stmt 1 view .LVU276
 962               	.LBB402:
 963               	.LBI402:
  38:../../tmk_core/common/ringbuf.h **** {
 964               		.loc 4 38 20 view .LVU277
 965               	.LBB403:
  40:../../tmk_core/common/ringbuf.h ****         return false;
 966               		.loc 4 40 5 view .LVU278
 967               	.LBB404:
 968               	.LBI404:
  64:../../tmk_core/common/ringbuf.h **** {
 969               		.loc 4 64 20 view .LVU279
 970               	.LBB405:
 971               		.loc 4 66 5 view .LVU280
 972               		.loc 4 66 18 is_stmt 0 view .LVU281
 973 009c 8091 0000 		lds r24,sendbuf+2
 974               	.LVL71:
 975               		.loc 4 66 18 view .LVU282
 976 00a0 90E0      		ldi r25,0
 977               		.loc 4 66 25 view .LVU283
 978 00a2 9C01      		movw r18,r24
 979 00a4 2F5F      		subi r18,-1
 980 00a6 3F4F      		sbci r19,-1
 981               		.loc 4 66 35 view .LVU284
 982 00a8 4091 0000 		lds r20,sendbuf+4
 983 00ac 50E0      		ldi r21,0
 984               		.loc 4 66 30 view .LVU285
 985 00ae 2423      		and r18,r20
 986 00b0 3523      		and r19,r21
 987               		.loc 4 66 54 view .LVU286
 988 00b2 4091 0000 		lds r20,sendbuf+3
 989               	.LBE405:
 990               	.LBE404:
  40:../../tmk_core/common/ringbuf.h ****         return false;
 991               		.loc 4 40 8 view .LVU287
 992 00b6 4217      		cp r20,r18
 993 00b8 1306      		cpc __zero_reg__,r19
 994 00ba 01F4      		brne .+2
 995 00bc 00C0      		rjmp .L99
  43:../../tmk_core/common/ringbuf.h ****     buf->head++;
 996               		.loc 4 43 5 is_stmt 1 view .LVU288
  43:../../tmk_core/common/ringbuf.h ****     buf->head++;
 997               		.loc 4 43 28 is_stmt 0 view .LVU289
 998 00be 2091 0000 		lds r18,sendbuf
 999 00c2 3091 0000 		lds r19,sendbuf+1
 1000 00c6 820F      		add r24,r18
 1001 00c8 931F      		adc r25,r19
 1002 00ca FC01      		movw r30,r24
 1003 00cc D083      		st Z,r29
  44:../../tmk_core/common/ringbuf.h ****     buf->head &= buf->size_mask;
 1004               		.loc 4 44 5 is_stmt 1 view .LVU290
  45:../../tmk_core/common/ringbuf.h ****     return true;
 1005               		.loc 4 45 5 view .LVU291
  44:../../tmk_core/common/ringbuf.h ****     buf->head &= buf->size_mask;
 1006               		.loc 4 44 14 is_stmt 0 view .LVU292
 1007 00ce 8091 0000 		lds r24,sendbuf+2
 1008 00d2 8F5F      		subi r24,lo8(-(1))
  45:../../tmk_core/common/ringbuf.h ****     return true;
 1009               		.loc 4 45 15 view .LVU293
 1010 00d4 9091 0000 		lds r25,sendbuf+4
 1011 00d8 8923      		and r24,r25
 1012 00da 8093 0000 		sts sendbuf+2,r24
  46:../../tmk_core/common/ringbuf.h **** }
 1013               		.loc 4 46 5 is_stmt 1 view .LVU294
 1014               	.LVL72:
  46:../../tmk_core/common/ringbuf.h **** }
 1015               		.loc 4 46 5 is_stmt 0 view .LVU295
 1016               	.LBE403:
 1017               	.LBE402:
 1018               	.LBE383:
 1019               	.LBE382:
 635:../../tmk_core/protocol/lufa/lufa.c ****     #endif
 636:../../tmk_core/protocol/lufa/lufa.c **** 
 637:../../tmk_core/protocol/lufa/lufa.c ****     return 0;
 1020               		.loc 1 637 5 is_stmt 1 view .LVU296
 1021               		.loc 1 637 12 is_stmt 0 view .LVU297
 1022 00de 00C0      		rjmp .L99
 1023               	.LVL73:
 1024               	.L84:
 1025               	.LBB446:
 1026               	.LBB443:
 157:../../tmk_core/protocol/lufa/lufa.c **** 
 1027               		.loc 1 157 9 is_stmt 1 view .LVU298
 1028               	.LBB406:
 1029               	.LBI406:
  30:../../tmk_core/common/ringbuf.h **** {
 1030               		.loc 4 30 23 view .LVU299
 1031               	.LBB407:
  32:../../tmk_core/common/ringbuf.h ****     uint8_t data = buf->buffer[buf->tail];
 1032               		.loc 4 32 5 view .LVU300
  32:../../tmk_core/common/ringbuf.h ****     uint8_t data = buf->buffer[buf->tail];
 1033               		.loc 4 32 5 is_stmt 0 view .LVU301
 1034               	.LBE407:
 1035               	.LBE406:
 1036               	.LBE443:
 1037               	.LBE446:
  62:../../tmk_core/common/ringbuf.h **** }
 1038               		.loc 4 62 5 is_stmt 1 view .LVU302
 1039               	.LBB447:
 1040               	.LBB444:
 1041               	.LBB409:
 1042               	.LBB408:
  33:../../tmk_core/common/ringbuf.h ****     buf->tail++;
 1043               		.loc 4 33 5 view .LVU303
  33:../../tmk_core/common/ringbuf.h ****     buf->tail++;
 1044               		.loc 4 33 13 is_stmt 0 view .LVU304
 1045 00e0 E091 0000 		lds r30,sendbuf
 1046 00e4 F091 0000 		lds r31,sendbuf+1
 1047 00e8 E80F      		add r30,r24
 1048 00ea F11D      		adc r31,__zero_reg__
 1049 00ec 9081      		ld r25,Z
 1050               	.LVL74:
  34:../../tmk_core/common/ringbuf.h ****     buf->tail &= buf->size_mask;
 1051               		.loc 4 34 5 is_stmt 1 view .LVU305
  35:../../tmk_core/common/ringbuf.h ****     return  data;
 1052               		.loc 4 35 5 view .LVU306
  34:../../tmk_core/common/ringbuf.h ****     buf->tail &= buf->size_mask;
 1053               		.loc 4 34 14 is_stmt 0 view .LVU307
 1054 00ee 8F5F      		subi r24,lo8(-(1))
  35:../../tmk_core/common/ringbuf.h ****     return  data;
 1055               		.loc 4 35 15 view .LVU308
 1056 00f0 2091 0000 		lds r18,sendbuf+4
 1057 00f4 8223      		and r24,r18
 1058 00f6 8093 0000 		sts sendbuf+3,r24
  36:../../tmk_core/common/ringbuf.h **** }
 1059               		.loc 4 36 5 is_stmt 1 view .LVU309
 1060               	.LVL75:
  36:../../tmk_core/common/ringbuf.h **** }
 1061               		.loc 4 36 5 is_stmt 0 view .LVU310
 1062               	.LBE408:
 1063               	.LBE409:
 1064               	.LBB410:
 1065               	.LBI410:
 514:../../tmk_core/protocol/lufa/lufa-abcminiuser/LUFA/Drivers/USB/Core/AVR8/../AVR8/Endpoint_AVR8.h **** 			}
 515:../../tmk_core/protocol/lufa/lufa-abcminiuser/LUFA/Drivers/USB/Core/AVR8/../AVR8/Endpoint_AVR8.h **** 
 516:../../tmk_core/protocol/lufa/lufa-abcminiuser/LUFA/Drivers/USB/Core/AVR8/../AVR8/Endpoint_AVR8.h **** 			/** Resets the data toggle of the currently selected endpoint. */
 517:../../tmk_core/protocol/lufa/lufa-abcminiuser/LUFA/Drivers/USB/Core/AVR8/../AVR8/Endpoint_AVR8.h **** 			static inline void Endpoint_ResetDataToggle(void) ATTR_ALWAYS_INLINE;
 518:../../tmk_core/protocol/lufa/lufa-abcminiuser/LUFA/Drivers/USB/Core/AVR8/../AVR8/Endpoint_AVR8.h **** 			static inline void Endpoint_ResetDataToggle(void)
 519:../../tmk_core/protocol/lufa/lufa-abcminiuser/LUFA/Drivers/USB/Core/AVR8/../AVR8/Endpoint_AVR8.h **** 			{
 520:../../tmk_core/protocol/lufa/lufa-abcminiuser/LUFA/Drivers/USB/Core/AVR8/../AVR8/Endpoint_AVR8.h **** 				UECONX |= (1 << RSTDT);
 521:../../tmk_core/protocol/lufa/lufa-abcminiuser/LUFA/Drivers/USB/Core/AVR8/../AVR8/Endpoint_AVR8.h **** 			}
 522:../../tmk_core/protocol/lufa/lufa-abcminiuser/LUFA/Drivers/USB/Core/AVR8/../AVR8/Endpoint_AVR8.h **** 
 523:../../tmk_core/protocol/lufa/lufa-abcminiuser/LUFA/Drivers/USB/Core/AVR8/../AVR8/Endpoint_AVR8.h **** 			/** Sets the direction of the currently selected endpoint.
 524:../../tmk_core/protocol/lufa/lufa-abcminiuser/LUFA/Drivers/USB/Core/AVR8/../AVR8/Endpoint_AVR8.h **** 			 *
 525:../../tmk_core/protocol/lufa/lufa-abcminiuser/LUFA/Drivers/USB/Core/AVR8/../AVR8/Endpoint_AVR8.h **** 			 *  \param[in] DirectionMask  New endpoint direction, as a \c ENDPOINT_DIR_* mask.
 526:../../tmk_core/protocol/lufa/lufa-abcminiuser/LUFA/Drivers/USB/Core/AVR8/../AVR8/Endpoint_AVR8.h **** 			 */
 527:../../tmk_core/protocol/lufa/lufa-abcminiuser/LUFA/Drivers/USB/Core/AVR8/../AVR8/Endpoint_AVR8.h **** 			static inline void Endpoint_SetEndpointDirection(const uint8_t DirectionMask) ATTR_ALWAYS_INLINE
 528:../../tmk_core/protocol/lufa/lufa-abcminiuser/LUFA/Drivers/USB/Core/AVR8/../AVR8/Endpoint_AVR8.h **** 			static inline void Endpoint_SetEndpointDirection(const uint8_t DirectionMask)
 529:../../tmk_core/protocol/lufa/lufa-abcminiuser/LUFA/Drivers/USB/Core/AVR8/../AVR8/Endpoint_AVR8.h **** 			{
 530:../../tmk_core/protocol/lufa/lufa-abcminiuser/LUFA/Drivers/USB/Core/AVR8/../AVR8/Endpoint_AVR8.h **** 				UECFG0X = ((UECFG0X & ~(1 << EPDIR)) | (DirectionMask ? (1 << EPDIR) : 0));
 531:../../tmk_core/protocol/lufa/lufa-abcminiuser/LUFA/Drivers/USB/Core/AVR8/../AVR8/Endpoint_AVR8.h **** 			}
 532:../../tmk_core/protocol/lufa/lufa-abcminiuser/LUFA/Drivers/USB/Core/AVR8/../AVR8/Endpoint_AVR8.h **** 
 533:../../tmk_core/protocol/lufa/lufa-abcminiuser/LUFA/Drivers/USB/Core/AVR8/../AVR8/Endpoint_AVR8.h **** 			/** Reads one byte from the currently selected endpoint's bank, for OUT direction endpoints.
 534:../../tmk_core/protocol/lufa/lufa-abcminiuser/LUFA/Drivers/USB/Core/AVR8/../AVR8/Endpoint_AVR8.h **** 			 *
 535:../../tmk_core/protocol/lufa/lufa-abcminiuser/LUFA/Drivers/USB/Core/AVR8/../AVR8/Endpoint_AVR8.h **** 			 *  \ingroup Group_EndpointPrimitiveRW_AVR8
 536:../../tmk_core/protocol/lufa/lufa-abcminiuser/LUFA/Drivers/USB/Core/AVR8/../AVR8/Endpoint_AVR8.h **** 			 *
 537:../../tmk_core/protocol/lufa/lufa-abcminiuser/LUFA/Drivers/USB/Core/AVR8/../AVR8/Endpoint_AVR8.h **** 			 *  \return Next byte in the currently selected endpoint's FIFO buffer.
 538:../../tmk_core/protocol/lufa/lufa-abcminiuser/LUFA/Drivers/USB/Core/AVR8/../AVR8/Endpoint_AVR8.h **** 			 */
 539:../../tmk_core/protocol/lufa/lufa-abcminiuser/LUFA/Drivers/USB/Core/AVR8/../AVR8/Endpoint_AVR8.h **** 			static inline uint8_t Endpoint_Read_8(void) ATTR_WARN_UNUSED_RESULT ATTR_ALWAYS_INLINE;
 540:../../tmk_core/protocol/lufa/lufa-abcminiuser/LUFA/Drivers/USB/Core/AVR8/../AVR8/Endpoint_AVR8.h **** 			static inline uint8_t Endpoint_Read_8(void)
 541:../../tmk_core/protocol/lufa/lufa-abcminiuser/LUFA/Drivers/USB/Core/AVR8/../AVR8/Endpoint_AVR8.h **** 			{
 542:../../tmk_core/protocol/lufa/lufa-abcminiuser/LUFA/Drivers/USB/Core/AVR8/../AVR8/Endpoint_AVR8.h **** 				return UEDATX;
 543:../../tmk_core/protocol/lufa/lufa-abcminiuser/LUFA/Drivers/USB/Core/AVR8/../AVR8/Endpoint_AVR8.h **** 			}
 544:../../tmk_core/protocol/lufa/lufa-abcminiuser/LUFA/Drivers/USB/Core/AVR8/../AVR8/Endpoint_AVR8.h **** 
 545:../../tmk_core/protocol/lufa/lufa-abcminiuser/LUFA/Drivers/USB/Core/AVR8/../AVR8/Endpoint_AVR8.h **** 			/** Writes one byte to the currently selected endpoint's bank, for IN direction endpoints.
 546:../../tmk_core/protocol/lufa/lufa-abcminiuser/LUFA/Drivers/USB/Core/AVR8/../AVR8/Endpoint_AVR8.h **** 			 *
 547:../../tmk_core/protocol/lufa/lufa-abcminiuser/LUFA/Drivers/USB/Core/AVR8/../AVR8/Endpoint_AVR8.h **** 			 *  \ingroup Group_EndpointPrimitiveRW_AVR8
 548:../../tmk_core/protocol/lufa/lufa-abcminiuser/LUFA/Drivers/USB/Core/AVR8/../AVR8/Endpoint_AVR8.h **** 			 *
 549:../../tmk_core/protocol/lufa/lufa-abcminiuser/LUFA/Drivers/USB/Core/AVR8/../AVR8/Endpoint_AVR8.h **** 			 *  \param[in] Data  Data to write into the the currently selected endpoint's FIFO buffer.
 550:../../tmk_core/protocol/lufa/lufa-abcminiuser/LUFA/Drivers/USB/Core/AVR8/../AVR8/Endpoint_AVR8.h **** 			 */
 551:../../tmk_core/protocol/lufa/lufa-abcminiuser/LUFA/Drivers/USB/Core/AVR8/../AVR8/Endpoint_AVR8.h **** 			static inline void Endpoint_Write_8(const uint8_t Data) ATTR_ALWAYS_INLINE;
 552:../../tmk_core/protocol/lufa/lufa-abcminiuser/LUFA/Drivers/USB/Core/AVR8/../AVR8/Endpoint_AVR8.h **** 			static inline void Endpoint_Write_8(const uint8_t Data)
 1066               		.loc 2 552 23 is_stmt 1 view .LVU311
 1067               	.LBB411:
 553:../../tmk_core/protocol/lufa/lufa-abcminiuser/LUFA/Drivers/USB/Core/AVR8/../AVR8/Endpoint_AVR8.h **** 			{
 554:../../tmk_core/protocol/lufa/lufa-abcminiuser/LUFA/Drivers/USB/Core/AVR8/../AVR8/Endpoint_AVR8.h **** 				UEDATX = Data;
 1068               		.loc 2 554 5 view .LVU312
 1069               		.loc 2 554 12 is_stmt 0 view .LVU313
 1070 00fa 9093 F100 		sts 241,r25
 1071               	.LVL76:
 1072               		.loc 2 554 12 view .LVU314
 1073               	.LBE411:
 1074               	.LBE410:
 160:../../tmk_core/protocol/lufa/lufa.c ****             Endpoint_ClearIN();
 1075               		.loc 1 160 9 is_stmt 1 view .LVU315
 1076               	.LBB412:
 1077               	.LBI412:
 358:../../tmk_core/protocol/lufa/lufa-abcminiuser/LUFA/Drivers/USB/Core/AVR8/../AVR8/Endpoint_AVR8.h **** 			{
 1078               		.loc 2 358 23 view .LVU316
 1079               	.LBB413:
 360:../../tmk_core/protocol/lufa/lufa-abcminiuser/LUFA/Drivers/USB/Core/AVR8/../AVR8/Endpoint_AVR8.h **** 			}
 1080               		.loc 2 360 5 view .LVU317
 360:../../tmk_core/protocol/lufa/lufa-abcminiuser/LUFA/Drivers/USB/Core/AVR8/../AVR8/Endpoint_AVR8.h **** 			}
 1081               		.loc 2 360 14 is_stmt 0 view .LVU318
 1082 00fe 8091 E800 		lds r24,232
 1083               	.LBE413:
 1084               	.LBE412:
 160:../../tmk_core/protocol/lufa/lufa.c ****             Endpoint_ClearIN();
 1085               		.loc 1 160 12 view .LVU319
 1086 0102 85FD      		sbrc r24,5
 1087 0104 00C0      		rjmp .L81
 1088               	.LBB414:
 1089               	.LBI414:
 405:../../tmk_core/protocol/lufa/lufa-abcminiuser/LUFA/Drivers/USB/Core/AVR8/../AVR8/Endpoint_AVR8.h **** 			{
 1090               		.loc 2 405 23 is_stmt 1 view .LVU320
 1091               	.LBB415:
 407:../../tmk_core/protocol/lufa/lufa-abcminiuser/LUFA/Drivers/USB/Core/AVR8/../AVR8/Endpoint_AVR8.h **** 			}
 1092               		.loc 2 407 5 view .LVU321
 407:../../tmk_core/protocol/lufa/lufa-abcminiuser/LUFA/Drivers/USB/Core/AVR8/../AVR8/Endpoint_AVR8.h **** 			}
 1093               		.loc 2 407 14 is_stmt 0 view .LVU322
 1094 0106 8091 E800 		lds r24,232
 1095               	.LBE415:
 1096               	.LBE414:
 160:../../tmk_core/protocol/lufa/lufa.c ****             Endpoint_ClearIN();
 1097               		.loc 1 160 44 view .LVU323
 1098 010a 80FF      		sbrs r24,0
 1099 010c 00C0      		rjmp .L81
 161:../../tmk_core/protocol/lufa/lufa.c ****             timeout = CONSOLE_TIMOUT; // re-enable retry only when host can receive
 1100               		.loc 1 161 13 is_stmt 1 view .LVU324
 1101               	.LBB416:
 1102               	.LBI416:
 453:../../tmk_core/protocol/lufa/lufa-abcminiuser/LUFA/Drivers/USB/Core/AVR8/../AVR8/Endpoint_AVR8.h **** 			{
 1103               		.loc 2 453 23 view .LVU325
 1104               	.LBB417:
 456:../../tmk_core/protocol/lufa/lufa-abcminiuser/LUFA/Drivers/USB/Core/AVR8/../AVR8/Endpoint_AVR8.h **** 				#else
 1105               		.loc 2 456 6 view .LVU326
 456:../../tmk_core/protocol/lufa/lufa-abcminiuser/LUFA/Drivers/USB/Core/AVR8/../AVR8/Endpoint_AVR8.h **** 				#else
 1106               		.loc 2 456 13 is_stmt 0 view .LVU327
 1107 010e 8091 E800 		lds r24,232
 1108 0112 8E77      		andi r24,lo8(126)
 1109 0114 8093 E800 		sts 232,r24
 1110               	.LBE417:
 1111               	.LBE416:
 162:../../tmk_core/protocol/lufa/lufa.c ****         }
 1112               		.loc 1 162 13 is_stmt 1 view .LVU328
 162:../../tmk_core/protocol/lufa/lufa.c ****         }
 1113               		.loc 1 162 21 is_stmt 0 view .LVU329
 1114 0118 F092 0000 		sts timeout.5138,r15
 1115               	.L81:
 1116               	.LVL77:
 1117               	.LBB418:
 1118               	.LBI418:
  60:../../tmk_core/common/ringbuf.h **** {
 1119               		.loc 4 60 20 is_stmt 1 view .LVU330
 1120               	.LBB419:
  62:../../tmk_core/common/ringbuf.h **** }
 1121               		.loc 4 62 5 view .LVU331
  62:../../tmk_core/common/ringbuf.h **** }
 1122               		.loc 4 62 29 is_stmt 0 view .LVU332
 1123 011c 8091 0000 		lds r24,sendbuf+3
 1124               	.LVL78:
  62:../../tmk_core/common/ringbuf.h **** }
 1125               		.loc 4 62 29 view .LVU333
 1126               	.LBE419:
 1127               	.LBE418:
 156:../../tmk_core/protocol/lufa/lufa.c ****         Endpoint_Write_8(ringbuf_get(&sendbuf));
 1128               		.loc 1 156 11 view .LVU334
 1129 0120 2091 0000 		lds r18,sendbuf+2
 1130               	.LBB420:
 1131               	.LBB421:
 360:../../tmk_core/protocol/lufa/lufa-abcminiuser/LUFA/Drivers/USB/Core/AVR8/../AVR8/Endpoint_AVR8.h **** 			}
 1132               		.loc 2 360 14 view .LVU335
 1133 0124 9091 E800 		lds r25,232
 1134               	.LBE421:
 1135               	.LBE420:
 156:../../tmk_core/protocol/lufa/lufa.c ****         Endpoint_Write_8(ringbuf_get(&sendbuf));
 1136               		.loc 1 156 11 view .LVU336
 1137 0128 2817      		cp r18,r24
 1138 012a 01F0      		breq .L83
 1139               	.LBB423:
 1140               	.LBI420:
 358:../../tmk_core/protocol/lufa/lufa-abcminiuser/LUFA/Drivers/USB/Core/AVR8/../AVR8/Endpoint_AVR8.h **** 			{
 1141               		.loc 2 358 23 is_stmt 1 view .LVU337
 1142               	.LBB422:
 360:../../tmk_core/protocol/lufa/lufa-abcminiuser/LUFA/Drivers/USB/Core/AVR8/../AVR8/Endpoint_AVR8.h **** 			}
 1143               		.loc 2 360 5 view .LVU338
 1144               	.LBE422:
 1145               	.LBE423:
 156:../../tmk_core/protocol/lufa/lufa.c ****         Endpoint_Write_8(ringbuf_get(&sendbuf));
 1146               		.loc 1 156 40 is_stmt 0 view .LVU339
 1147 012c 95FD      		sbrc r25,5
 1148 012e 00C0      		rjmp .L84
 1149               	.L112:
 167:../../tmk_core/protocol/lufa/lufa.c ****         Endpoint_Write_8(c);
 1150               		.loc 1 167 36 view .LVU340
 1151 0130 90E0      		ldi r25,0
 1152 0132 00C0      		rjmp .L85
 1153               	.LVL79:
 1154               	.L88:
 176:../../tmk_core/protocol/lufa/lufa.c ****         }
 1155               		.loc 1 176 17 is_stmt 1 view .LVU341
 1156               	.LBB424:
 1157               	.LBI424:
 552:../../tmk_core/protocol/lufa/lufa-abcminiuser/LUFA/Drivers/USB/Core/AVR8/../AVR8/Endpoint_AVR8.h **** 			{
 1158               		.loc 2 552 23 view .LVU342
 1159               	.LBB425:
 1160               		.loc 2 554 5 view .LVU343
 1161               		.loc 2 554 12 is_stmt 0 view .LVU344
 1162 0134 1092 F100 		sts 241,__zero_reg__
 1163 0138 00C0      		rjmp .L87
 1164               	.LVL80:
 1165               	.L89:
 1166               		.loc 2 554 12 view .LVU345
 1167               	.LBE425:
 1168               	.LBE424:
 191:../../tmk_core/protocol/lufa/lufa.c ****         uint16_t curr = timer_read();
 1169               		.loc 1 191 5 is_stmt 1 view .LVU346
 1170               	.LBB426:
 1171               	.LBI426:
  64:../../tmk_core/common/ringbuf.h **** {
 1172               		.loc 4 64 20 view .LVU347
 1173               	.LBB427:
 1174               		.loc 4 66 5 view .LVU348
 1175               		.loc 4 66 18 is_stmt 0 view .LVU349
 1176 013a 30E0      		ldi r19,0
 1177               		.loc 4 66 25 view .LVU350
 1178 013c 2F5F      		subi r18,-1
 1179 013e 3F4F      		sbci r19,-1
 1180               		.loc 4 66 35 view .LVU351
 1181 0140 4091 0000 		lds r20,sendbuf+4
 1182 0144 50E0      		ldi r21,0
 1183               		.loc 4 66 30 view .LVU352
 1184 0146 2423      		and r18,r20
 1185 0148 3523      		and r19,r21
 1186               	.LBE427:
 1187               	.LBE426:
 191:../../tmk_core/protocol/lufa/lufa.c ****         uint16_t curr = timer_read();
 1188               		.loc 1 191 8 view .LVU353
 1189 014a 8217      		cp r24,r18
 1190 014c 1306      		cpc __zero_reg__,r19
 1191 014e 01F0      		breq .+2
 1192 0150 00C0      		rjmp .L80
 191:../../tmk_core/protocol/lufa/lufa.c ****         uint16_t curr = timer_read();
 1193               		.loc 1 191 35 view .LVU354
 1194 0152 8091 0000 		lds r24,timeout.5138
 1195 0156 8823      		tst r24
 1196 0158 01F4      		brne .+2
 1197 015a 00C0      		rjmp .L80
 1198               	.LBB428:
 192:../../tmk_core/protocol/lufa/lufa.c ****         if (curr != prev) {
 1199               		.loc 1 192 9 is_stmt 1 view .LVU355
 192:../../tmk_core/protocol/lufa/lufa.c ****         if (curr != prev) {
 1200               		.loc 1 192 25 is_stmt 0 view .LVU356
 1201 015c 0E94 0000 		call timer_read
 1202               	.LVL81:
 192:../../tmk_core/protocol/lufa/lufa.c ****         if (curr != prev) {
 1203               		.loc 1 192 25 view .LVU357
 1204 0160 9C01      		movw r18,r24
 1205               	.LVL82:
 193:../../tmk_core/protocol/lufa/lufa.c ****             timeout--;
 1206               		.loc 1 193 9 is_stmt 1 view .LVU358
 193:../../tmk_core/protocol/lufa/lufa.c ****             timeout--;
 1207               		.loc 1 193 12 is_stmt 0 view .LVU359
 1208 0162 8017      		cp r24,r16
 1209 0164 9107      		cpc r25,r17
 1210 0166 01F4      		brne .+2
 1211 0168 00C0      		rjmp .L91
 194:../../tmk_core/protocol/lufa/lufa.c ****             prev = curr;
 1212               		.loc 1 194 13 is_stmt 1 view .LVU360
 194:../../tmk_core/protocol/lufa/lufa.c ****             prev = curr;
 1213               		.loc 1 194 20 is_stmt 0 view .LVU361
 1214 016a 9091 0000 		lds r25,timeout.5138
 1215 016e 9150      		subi r25,lo8(-(-1))
 1216 0170 9093 0000 		sts timeout.5138,r25
 195:../../tmk_core/protocol/lufa/lufa.c ****         }
 1217               		.loc 1 195 13 is_stmt 1 view .LVU362
 1218               	.LVL83:
 192:../../tmk_core/protocol/lufa/lufa.c ****         if (curr != prev) {
 1219               		.loc 1 192 25 is_stmt 0 view .LVU363
 1220 0174 8901      		movw r16,r18
 1221               	.L79:
 1222 0176 00C0      		rjmp .L91
 1223               	.LVL84:
 1224               	.L83:
 192:../../tmk_core/protocol/lufa/lufa.c ****         if (curr != prev) {
 1225               		.loc 1 192 25 view .LVU364
 1226               	.LBE428:
 167:../../tmk_core/protocol/lufa/lufa.c ****         Endpoint_Write_8(c);
 1227               		.loc 1 167 5 is_stmt 1 view .LVU365
 167:../../tmk_core/protocol/lufa/lufa.c ****         Endpoint_Write_8(c);
 1228               		.loc 1 167 5 is_stmt 0 view .LVU366
 1229               	.LBE444:
 1230               	.LBE447:
  62:../../tmk_core/common/ringbuf.h **** }
 1231               		.loc 4 62 5 is_stmt 1 view .LVU367
 1232               	.LBB448:
 1233               	.LBB445:
 1234               	.LBB429:
 1235               	.LBI429:
 358:../../tmk_core/protocol/lufa/lufa-abcminiuser/LUFA/Drivers/USB/Core/AVR8/../AVR8/Endpoint_AVR8.h **** 			{
 1236               		.loc 2 358 23 view .LVU368
 1237               	.LBB430:
 360:../../tmk_core/protocol/lufa/lufa-abcminiuser/LUFA/Drivers/USB/Core/AVR8/../AVR8/Endpoint_AVR8.h **** 			}
 1238               		.loc 2 360 5 view .LVU369
 1239               	.LBE430:
 1240               	.LBE429:
 167:../../tmk_core/protocol/lufa/lufa.c ****         Endpoint_Write_8(c);
 1241               		.loc 1 167 36 is_stmt 0 view .LVU370
 1242 0178 95FF      		sbrs r25,5
 1243 017a 00C0      		rjmp .L112
 168:../../tmk_core/protocol/lufa/lufa.c ****         done = true;
 1244               		.loc 1 168 9 is_stmt 1 view .LVU371
 1245               	.LVL85:
 1246               	.LBB431:
 1247               	.LBI431:
 552:../../tmk_core/protocol/lufa/lufa-abcminiuser/LUFA/Drivers/USB/Core/AVR8/../AVR8/Endpoint_AVR8.h **** 			{
 1248               		.loc 2 552 23 view .LVU372
 1249               	.LBB432:
 1250               		.loc 2 554 5 view .LVU373
 1251               		.loc 2 554 12 is_stmt 0 view .LVU374
 1252 017c D093 F100 		sts 241,r29
 1253               	.LVL86:
 1254               		.loc 2 554 12 view .LVU375
 1255               	.LBE432:
 1256               	.LBE431:
 169:../../tmk_core/protocol/lufa/lufa.c ****     }
 1257               		.loc 1 169 9 is_stmt 1 view .LVU376
 169:../../tmk_core/protocol/lufa/lufa.c ****     }
 1258               		.loc 1 169 14 is_stmt 0 view .LVU377
 1259 0180 91E0      		ldi r25,lo8(1)
 1260               	.LVL87:
 1261               	.L85:
 173:../../tmk_core/protocol/lufa/lufa.c ****         // Windows needs to fill packet with 0
 1262               		.loc 1 173 5 is_stmt 1 view .LVU378
 1263               	.LBB433:
 1264               	.LBI433:
 222:../../tmk_core/protocol/lufa/lufa-abcminiuser/LUFA/Drivers/USB/Core/AVR8/../AVR8/Endpoint_AVR8.h **** 			{
 1265               		.loc 2 222 27 view .LVU379
 1266               	.LBB434:
 227:../../tmk_core/protocol/lufa/lufa-abcminiuser/LUFA/Drivers/USB/Core/AVR8/../AVR8/Endpoint_AVR8.h **** 				#elif defined(USB_SERIES_2_AVR)
 1267               		.loc 2 227 6 view .LVU380
 227:../../tmk_core/protocol/lufa/lufa-abcminiuser/LUFA/Drivers/USB/Core/AVR8/../AVR8/Endpoint_AVR8.h **** 				#elif defined(USB_SERIES_2_AVR)
 1268               		.loc 2 227 25 is_stmt 0 view .LVU381
 1269 0182 3091 F300 		lds r19,243
 227:../../tmk_core/protocol/lufa/lufa-abcminiuser/LUFA/Drivers/USB/Core/AVR8/../AVR8/Endpoint_AVR8.h **** 				#elif defined(USB_SERIES_2_AVR)
 1270               		.loc 2 227 40 view .LVU382
 1271 0186 4091 F200 		lds r20,242
 227:../../tmk_core/protocol/lufa/lufa-abcminiuser/LUFA/Drivers/USB/Core/AVR8/../AVR8/Endpoint_AVR8.h **** 				#elif defined(USB_SERIES_2_AVR)
 1272               		.loc 2 227 38 view .LVU383
 1273 018a 532F      		mov r21,r19
 1274               	.LBE434:
 1275               	.LBE433:
 173:../../tmk_core/protocol/lufa/lufa.c ****         // Windows needs to fill packet with 0
 1276               		.loc 1 173 8 view .LVU384
 1277 018c 452B      		or r20,r21
 1278 018e 01F0      		breq .L86
 1279               	.LBB435:
 1280               	.LBI435:
 405:../../tmk_core/protocol/lufa/lufa-abcminiuser/LUFA/Drivers/USB/Core/AVR8/../AVR8/Endpoint_AVR8.h **** 			{
 1281               		.loc 2 405 23 is_stmt 1 view .LVU385
 1282               	.LBB436:
 407:../../tmk_core/protocol/lufa/lufa-abcminiuser/LUFA/Drivers/USB/Core/AVR8/../AVR8/Endpoint_AVR8.h **** 			}
 1283               		.loc 2 407 5 view .LVU386
 407:../../tmk_core/protocol/lufa/lufa-abcminiuser/LUFA/Drivers/USB/Core/AVR8/../AVR8/Endpoint_AVR8.h **** 			}
 1284               		.loc 2 407 14 is_stmt 0 view .LVU387
 1285 0190 3091 E800 		lds r19,232
 1286               	.LBE436:
 1287               	.LBE435:
 173:../../tmk_core/protocol/lufa/lufa.c ****         // Windows needs to fill packet with 0
 1288               		.loc 1 173 36 view .LVU388
 1289 0194 30FF      		sbrs r19,0
 1290 0196 00C0      		rjmp .L86
 1291               	.L87:
 1292               	.LBB437:
 1293               	.LBI437:
 358:../../tmk_core/protocol/lufa/lufa-abcminiuser/LUFA/Drivers/USB/Core/AVR8/../AVR8/Endpoint_AVR8.h **** 			{
 1294               		.loc 2 358 23 is_stmt 1 view .LVU389
 1295               	.LBB438:
 360:../../tmk_core/protocol/lufa/lufa-abcminiuser/LUFA/Drivers/USB/Core/AVR8/../AVR8/Endpoint_AVR8.h **** 			}
 1296               		.loc 2 360 5 view .LVU390
 360:../../tmk_core/protocol/lufa/lufa-abcminiuser/LUFA/Drivers/USB/Core/AVR8/../AVR8/Endpoint_AVR8.h **** 			}
 1297               		.loc 2 360 14 is_stmt 0 view .LVU391
 1298 0198 3091 E800 		lds r19,232
 1299               	.LBE438:
 1300               	.LBE437:
 175:../../tmk_core/protocol/lufa/lufa.c ****                 Endpoint_Write_8(0);
 1301               		.loc 1 175 15 view .LVU392
 1302 019c 35FD      		sbrc r19,5
 1303 019e 00C0      		rjmp .L88
 178:../../tmk_core/protocol/lufa/lufa.c ****         timeout = CONSOLE_TIMOUT; // re-enable retry only when host can receive
 1304               		.loc 1 178 9 is_stmt 1 view .LVU393
 1305               	.LBB439:
 1306               	.LBI439:
 453:../../tmk_core/protocol/lufa/lufa-abcminiuser/LUFA/Drivers/USB/Core/AVR8/../AVR8/Endpoint_AVR8.h **** 			{
 1307               		.loc 2 453 23 view .LVU394
 1308               	.LBB440:
 456:../../tmk_core/protocol/lufa/lufa-abcminiuser/LUFA/Drivers/USB/Core/AVR8/../AVR8/Endpoint_AVR8.h **** 				#else
 1309               		.loc 2 456 6 view .LVU395
 456:../../tmk_core/protocol/lufa/lufa-abcminiuser/LUFA/Drivers/USB/Core/AVR8/../AVR8/Endpoint_AVR8.h **** 				#else
 1310               		.loc 2 456 13 is_stmt 0 view .LVU396
 1311 01a0 3091 E800 		lds r19,232
 1312 01a4 3E77      		andi r19,lo8(126)
 1313 01a6 3093 E800 		sts 232,r19
 1314               	.LBE440:
 1315               	.LBE439:
 179:../../tmk_core/protocol/lufa/lufa.c ****     }
 1316               		.loc 1 179 9 is_stmt 1 view .LVU397
 179:../../tmk_core/protocol/lufa/lufa.c ****     }
 1317               		.loc 1 179 17 is_stmt 0 view .LVU398
 1318 01aa F092 0000 		sts timeout.5138,r15
 1319               	.L86:
 182:../../tmk_core/protocol/lufa/lufa.c ****         Endpoint_SelectEndpoint(ep);
 1320               		.loc 1 182 5 is_stmt 1 view .LVU399
 182:../../tmk_core/protocol/lufa/lufa.c ****         Endpoint_SelectEndpoint(ep);
 1321               		.loc 1 182 8 is_stmt 0 view .LVU400
 1322 01ae 9923      		tst r25
 1323 01b0 01F0      		breq .L89
 183:../../tmk_core/protocol/lufa/lufa.c ****         return true;
 1324               		.loc 1 183 9 is_stmt 1 view .LVU401
 1325               	.LVL88:
 1326               	.LBB441:
 1327               	.LBI441:
 267:../../tmk_core/protocol/lufa/lufa-abcminiuser/LUFA/Drivers/USB/Core/AVR8/../AVR8/Endpoint_AVR8.h **** 			{
 1328               		.loc 2 267 23 view .LVU402
 1329               	.LBB442:
 270:../../tmk_core/protocol/lufa/lufa-abcminiuser/LUFA/Drivers/USB/Core/AVR8/../AVR8/Endpoint_AVR8.h **** 				#endif
 1330               		.loc 2 270 6 view .LVU403
 270:../../tmk_core/protocol/lufa/lufa-abcminiuser/LUFA/Drivers/USB/Core/AVR8/../AVR8/Endpoint_AVR8.h **** 				#endif
 1331               		.loc 2 270 23 is_stmt 0 view .LVU404
 1332 01b2 CF70      		andi r28,lo8(15)
 1333               	.LVL89:
 270:../../tmk_core/protocol/lufa/lufa-abcminiuser/LUFA/Drivers/USB/Core/AVR8/../AVR8/Endpoint_AVR8.h **** 				#endif
 1334               		.loc 2 270 12 view .LVU405
 1335 01b4 C093 E900 		sts 233,r28
 270:../../tmk_core/protocol/lufa/lufa-abcminiuser/LUFA/Drivers/USB/Core/AVR8/../AVR8/Endpoint_AVR8.h **** 				#endif
 1336               		.loc 2 270 12 view .LVU406
 1337               	.LBE442:
 1338               	.LBE441:
 184:../../tmk_core/protocol/lufa/lufa.c ****     }
 1339               		.loc 1 184 9 is_stmt 1 view .LVU407
 1340               	.LVL90:
 1341               	.L99:
 184:../../tmk_core/protocol/lufa/lufa.c ****     }
 1342               		.loc 1 184 9 is_stmt 0 view .LVU408
 1343               	.LBE445:
 1344               	.LBE448:
 638:../../tmk_core/protocol/lufa/lufa.c **** }
 1345               		.loc 1 638 1 view .LVU409
 1346 01b8 80E0      		ldi r24,0
 1347               	/* epilogue start */
 1348 01ba DF91      		pop r29
 1349               	.LVL91:
 1350               		.loc 1 638 1 view .LVU410
 1351 01bc CF91      		pop r28
 1352 01be 1F91      		pop r17
 1353 01c0 0F91      		pop r16
 1354 01c2 FF90      		pop r15
 1355 01c4 0895      		ret
 1356               		.cfi_endproc
 1357               	.LFE131:
 1359               		.section	.text.EVENT_USB_Device_Connect,"ax",@progbits
 1360               	.global	EVENT_USB_Device_Connect
 1362               	EVENT_USB_Device_Connect:
 1363               	.LFB119:
 267:../../tmk_core/protocol/lufa/lufa.c **** #ifdef TMK_LUFA_DEBUG
 1364               		.loc 1 267 1 is_stmt 1 view -0
 1365               		.cfi_startproc
 1366               	/* prologue: function */
 1367               	/* frame size = 0 */
 1368               	/* stack size = 0 */
 1369               	.L__stack_usage = 0
 272:../../tmk_core/protocol/lufa/lufa.c ****         USB_Disable();
 1370               		.loc 1 272 5 view .LVU412
 272:../../tmk_core/protocol/lufa/lufa.c ****         USB_Disable();
 1371               		.loc 1 272 9 is_stmt 0 view .LVU413
 1372 0000 8091 0000 		lds r24,USB_IsInitialized
 272:../../tmk_core/protocol/lufa/lufa.c ****         USB_Disable();
 1373               		.loc 1 272 8 view .LVU414
 1374 0004 8111      		cpse r24,__zero_reg__
 1375 0006 00C0      		rjmp .L113
 273:../../tmk_core/protocol/lufa/lufa.c ****         USB_Init();
 1376               		.loc 1 273 9 is_stmt 1 view .LVU415
 1377 0008 0E94 0000 		call USB_Disable
 1378               	.LVL92:
 274:../../tmk_core/protocol/lufa/lufa.c ****     }
 1379               		.loc 1 274 9 view .LVU416
 1380 000c 0C94 0000 		jmp USB_Init
 1381               	.LVL93:
 1382               	.L113:
 1383               	/* epilogue start */
 276:../../tmk_core/protocol/lufa/lufa.c **** 
 1384               		.loc 1 276 1 is_stmt 0 view .LVU417
 1385 0010 0895      		ret
 1386               		.cfi_endproc
 1387               	.LFE119:
 1389               		.section	.text.EVENT_USB_Device_Disconnect,"ax",@progbits
 1390               	.global	EVENT_USB_Device_Disconnect
 1392               	EVENT_USB_Device_Disconnect:
 1393               	.LFB120:
 279:../../tmk_core/protocol/lufa/lufa.c **** #ifdef TMK_LUFA_DEBUG
 1394               		.loc 1 279 1 is_stmt 1 view -0
 1395               		.cfi_startproc
 1396               	/* prologue: function */
 1397               	/* frame size = 0 */
 1398               	/* stack size = 0 */
 1399               	.L__stack_usage = 0
 284:../../tmk_core/protocol/lufa/lufa.c **** /* TODO: This doesn't work. After several plug in/outs can not be enumerated.
 1400               		.loc 1 284 5 view .LVU419
 284:../../tmk_core/protocol/lufa/lufa.c **** /* TODO: This doesn't work. After several plug in/outs can not be enumerated.
 1401               		.loc 1 284 23 is_stmt 0 view .LVU420
 1402 0000 1092 0000 		sts USB_IsInitialized,__zero_reg__
 1403               	/* epilogue start */
 292:../../tmk_core/protocol/lufa/lufa.c **** 
 1404               		.loc 1 292 1 view .LVU421
 1405 0004 0895      		ret
 1406               		.cfi_endproc
 1407               	.LFE120:
 1409               		.section	.text.EVENT_USB_Device_Reset,"ax",@progbits
 1410               	.global	EVENT_USB_Device_Reset
 1412               	EVENT_USB_Device_Reset:
 1413               	.LFB121:
 295:../../tmk_core/protocol/lufa/lufa.c **** #ifdef TMK_LUFA_DEBUG
 1414               		.loc 1 295 1 is_stmt 1 view -0
 1415               		.cfi_startproc
 1416               	/* prologue: function */
 1417               	/* frame size = 0 */
 1418               	/* stack size = 0 */
 1419               	.L__stack_usage = 0
 299:../../tmk_core/protocol/lufa/lufa.c **** 
 1420               		.loc 1 299 1 view .LVU423
 1421               	/* epilogue start */
 1422 0000 0895      		ret
 1423               		.cfi_endproc
 1424               	.LFE121:
 1426               		.section	.text.EVENT_USB_Device_ConfigurationChanged,"ax",@progbits
 1427               	.global	EVENT_USB_Device_ConfigurationChanged
 1429               	EVENT_USB_Device_ConfigurationChanged:
 1430               	.LFB124:
 324:../../tmk_core/protocol/lufa/lufa.c **** #ifdef TMK_LUFA_DEBUG
 1431               		.loc 1 324 1 view -0
 1432               		.cfi_startproc
 1433               	/* prologue: function */
 1434               	/* frame size = 0 */
 1435               	/* stack size = 0 */
 1436               	.L__stack_usage = 0
 328:../../tmk_core/protocol/lufa/lufa.c **** 
 1437               		.loc 1 328 5 view .LVU425
 1438               	.LVL94:
 331:../../tmk_core/protocol/lufa/lufa.c ****                                      KEYBOARD_EPSIZE, ENDPOINT_BANK_SINGLE);
 1439               		.loc 1 331 5 view .LVU426
 1440               	.LBB449:
 1441               	.LBI449:
 200:../../tmk_core/protocol/lufa/lufa-abcminiuser/LUFA/Drivers/USB/Core/AVR8/../AVR8/Endpoint_AVR8.h **** 			                                              const uint8_t Type,
 1442               		.loc 2 200 23 view .LVU427
 1443               	.LBB450:
 205:../../tmk_core/protocol/lufa/lufa-abcminiuser/LUFA/Drivers/USB/Core/AVR8/../AVR8/Endpoint_AVR8.h **** 
 1444               		.loc 2 205 5 view .LVU428
 207:../../tmk_core/protocol/lufa/lufa-abcminiuser/LUFA/Drivers/USB/Core/AVR8/../AVR8/Endpoint_AVR8.h **** 				  return false;
 1445               		.loc 2 207 5 view .LVU429
 210:../../tmk_core/protocol/lufa/lufa-abcminiuser/LUFA/Drivers/USB/Core/AVR8/../AVR8/Endpoint_AVR8.h **** 				                                      ((Type << EPTYPE0) | ((Address & ENDPOINT_DIR_IN) ? (1 <<
 1446               		.loc 2 210 5 view .LVU430
 210:../../tmk_core/protocol/lufa/lufa-abcminiuser/LUFA/Drivers/USB/Core/AVR8/../AVR8/Endpoint_AVR8.h **** 				                                      ((Type << EPTYPE0) | ((Address & ENDPOINT_DIR_IN) ? (1 <<
 1447               		.loc 2 210 5 is_stmt 0 view .LVU431
 1448               	.LBE450:
 1449               	.LBE449:
  97:../../tmk_core/protocol/lufa/lufa-abcminiuser/LUFA/Drivers/USB/Core/AVR8/../AVR8/Endpoint_AVR8.h **** 				uint16_t CheckBytes = 8;
 1450               		.loc 2 97 5 is_stmt 1 view .LVU432
  98:../../tmk_core/protocol/lufa/lufa-abcminiuser/LUFA/Drivers/USB/Core/AVR8/../AVR8/Endpoint_AVR8.h **** 
 1451               		.loc 2 98 5 view .LVU433
 100:../../tmk_core/protocol/lufa/lufa-abcminiuser/LUFA/Drivers/USB/Core/AVR8/../AVR8/Endpoint_AVR8.h **** 				{
 1452               		.loc 2 100 5 view .LVU434
 106:../../tmk_core/protocol/lufa/lufa-abcminiuser/LUFA/Drivers/USB/Core/AVR8/../AVR8/Endpoint_AVR8.h **** 			}
 1453               		.loc 2 106 5 view .LVU435
 1454               	.LBB452:
 1455               	.LBB451:
 210:../../tmk_core/protocol/lufa/lufa-abcminiuser/LUFA/Drivers/USB/Core/AVR8/../AVR8/Endpoint_AVR8.h **** 				                                      ((Type << EPTYPE0) | ((Address & ENDPOINT_DIR_IN) ? (1 <<
 1456               		.loc 2 210 12 is_stmt 0 view .LVU436
 1457 0000 42E0      		ldi r20,lo8(2)
 1458 0002 61EC      		ldi r22,lo8(-63)
 1459 0004 81E0      		ldi r24,lo8(1)
 1460 0006 0E94 0000 		call Endpoint_ConfigureEndpoint_Prv
 1461               	.LVL95:
 210:../../tmk_core/protocol/lufa/lufa-abcminiuser/LUFA/Drivers/USB/Core/AVR8/../AVR8/Endpoint_AVR8.h **** 				                                      ((Type << EPTYPE0) | ((Address & ENDPOINT_DIR_IN) ? (1 <<
 1462               		.loc 2 210 12 view .LVU437
 1463               	.LBE451:
 1464               	.LBE452:
 336:../../tmk_core/protocol/lufa/lufa.c ****                                      MOUSE_EPSIZE, ENDPOINT_BANK_SINGLE);
 1465               		.loc 1 336 5 is_stmt 1 view .LVU438
 1466               	.LBB453:
 1467               	.LBI453:
 200:../../tmk_core/protocol/lufa/lufa-abcminiuser/LUFA/Drivers/USB/Core/AVR8/../AVR8/Endpoint_AVR8.h **** 			                                              const uint8_t Type,
 1468               		.loc 2 200 23 view .LVU439
 1469               	.LBB454:
 205:../../tmk_core/protocol/lufa/lufa-abcminiuser/LUFA/Drivers/USB/Core/AVR8/../AVR8/Endpoint_AVR8.h **** 
 1470               		.loc 2 205 5 view .LVU440
 207:../../tmk_core/protocol/lufa/lufa-abcminiuser/LUFA/Drivers/USB/Core/AVR8/../AVR8/Endpoint_AVR8.h **** 				  return false;
 1471               		.loc 2 207 5 view .LVU441
 210:../../tmk_core/protocol/lufa/lufa-abcminiuser/LUFA/Drivers/USB/Core/AVR8/../AVR8/Endpoint_AVR8.h **** 				                                      ((Type << EPTYPE0) | ((Address & ENDPOINT_DIR_IN) ? (1 <<
 1472               		.loc 2 210 5 view .LVU442
 210:../../tmk_core/protocol/lufa/lufa-abcminiuser/LUFA/Drivers/USB/Core/AVR8/../AVR8/Endpoint_AVR8.h **** 				                                      ((Type << EPTYPE0) | ((Address & ENDPOINT_DIR_IN) ? (1 <<
 1473               		.loc 2 210 5 is_stmt 0 view .LVU443
 1474               	.LBE454:
 1475               	.LBE453:
  97:../../tmk_core/protocol/lufa/lufa-abcminiuser/LUFA/Drivers/USB/Core/AVR8/../AVR8/Endpoint_AVR8.h **** 				uint16_t CheckBytes = 8;
 1476               		.loc 2 97 5 is_stmt 1 view .LVU444
  98:../../tmk_core/protocol/lufa/lufa-abcminiuser/LUFA/Drivers/USB/Core/AVR8/../AVR8/Endpoint_AVR8.h **** 
 1477               		.loc 2 98 5 view .LVU445
 100:../../tmk_core/protocol/lufa/lufa-abcminiuser/LUFA/Drivers/USB/Core/AVR8/../AVR8/Endpoint_AVR8.h **** 				{
 1478               		.loc 2 100 5 view .LVU446
 106:../../tmk_core/protocol/lufa/lufa-abcminiuser/LUFA/Drivers/USB/Core/AVR8/../AVR8/Endpoint_AVR8.h **** 			}
 1479               		.loc 2 106 5 view .LVU447
 1480               	.LBB456:
 1481               	.LBB455:
 210:../../tmk_core/protocol/lufa/lufa-abcminiuser/LUFA/Drivers/USB/Core/AVR8/../AVR8/Endpoint_AVR8.h **** 				                                      ((Type << EPTYPE0) | ((Address & ENDPOINT_DIR_IN) ? (1 <<
 1482               		.loc 2 210 12 is_stmt 0 view .LVU448
 1483 000a 42E0      		ldi r20,lo8(2)
 1484 000c 61EC      		ldi r22,lo8(-63)
 1485 000e 82E0      		ldi r24,lo8(2)
 1486 0010 0E94 0000 		call Endpoint_ConfigureEndpoint_Prv
 1487               	.LVL96:
 210:../../tmk_core/protocol/lufa/lufa-abcminiuser/LUFA/Drivers/USB/Core/AVR8/../AVR8/Endpoint_AVR8.h **** 				                                      ((Type << EPTYPE0) | ((Address & ENDPOINT_DIR_IN) ? (1 <<
 1488               		.loc 2 210 12 view .LVU449
 1489               	.LBE455:
 1490               	.LBE456:
 342:../../tmk_core/protocol/lufa/lufa.c ****                                      EXTRAKEY_EPSIZE, ENDPOINT_BANK_SINGLE);
 1491               		.loc 1 342 5 is_stmt 1 view .LVU450
 1492               	.LBB457:
 1493               	.LBI457:
 200:../../tmk_core/protocol/lufa/lufa-abcminiuser/LUFA/Drivers/USB/Core/AVR8/../AVR8/Endpoint_AVR8.h **** 			                                              const uint8_t Type,
 1494               		.loc 2 200 23 view .LVU451
 1495               	.LBB458:
 205:../../tmk_core/protocol/lufa/lufa-abcminiuser/LUFA/Drivers/USB/Core/AVR8/../AVR8/Endpoint_AVR8.h **** 
 1496               		.loc 2 205 5 view .LVU452
 207:../../tmk_core/protocol/lufa/lufa-abcminiuser/LUFA/Drivers/USB/Core/AVR8/../AVR8/Endpoint_AVR8.h **** 				  return false;
 1497               		.loc 2 207 5 view .LVU453
 210:../../tmk_core/protocol/lufa/lufa-abcminiuser/LUFA/Drivers/USB/Core/AVR8/../AVR8/Endpoint_AVR8.h **** 				                                      ((Type << EPTYPE0) | ((Address & ENDPOINT_DIR_IN) ? (1 <<
 1498               		.loc 2 210 5 view .LVU454
 210:../../tmk_core/protocol/lufa/lufa-abcminiuser/LUFA/Drivers/USB/Core/AVR8/../AVR8/Endpoint_AVR8.h **** 				                                      ((Type << EPTYPE0) | ((Address & ENDPOINT_DIR_IN) ? (1 <<
 1499               		.loc 2 210 5 is_stmt 0 view .LVU455
 1500               	.LBE458:
 1501               	.LBE457:
  97:../../tmk_core/protocol/lufa/lufa-abcminiuser/LUFA/Drivers/USB/Core/AVR8/../AVR8/Endpoint_AVR8.h **** 				uint16_t CheckBytes = 8;
 1502               		.loc 2 97 5 is_stmt 1 view .LVU456
  98:../../tmk_core/protocol/lufa/lufa-abcminiuser/LUFA/Drivers/USB/Core/AVR8/../AVR8/Endpoint_AVR8.h **** 
 1503               		.loc 2 98 5 view .LVU457
 100:../../tmk_core/protocol/lufa/lufa-abcminiuser/LUFA/Drivers/USB/Core/AVR8/../AVR8/Endpoint_AVR8.h **** 				{
 1504               		.loc 2 100 5 view .LVU458
 106:../../tmk_core/protocol/lufa/lufa-abcminiuser/LUFA/Drivers/USB/Core/AVR8/../AVR8/Endpoint_AVR8.h **** 			}
 1505               		.loc 2 106 5 view .LVU459
 1506               	.LBB460:
 1507               	.LBB459:
 210:../../tmk_core/protocol/lufa/lufa-abcminiuser/LUFA/Drivers/USB/Core/AVR8/../AVR8/Endpoint_AVR8.h **** 				                                      ((Type << EPTYPE0) | ((Address & ENDPOINT_DIR_IN) ? (1 <<
 1508               		.loc 2 210 12 is_stmt 0 view .LVU460
 1509 0014 42E0      		ldi r20,lo8(2)
 1510 0016 61EC      		ldi r22,lo8(-63)
 1511 0018 83E0      		ldi r24,lo8(3)
 1512 001a 0E94 0000 		call Endpoint_ConfigureEndpoint_Prv
 1513               	.LVL97:
 210:../../tmk_core/protocol/lufa/lufa-abcminiuser/LUFA/Drivers/USB/Core/AVR8/../AVR8/Endpoint_AVR8.h **** 				                                      ((Type << EPTYPE0) | ((Address & ENDPOINT_DIR_IN) ? (1 <<
 1514               		.loc 2 210 12 view .LVU461
 1515               	.LBE459:
 1516               	.LBE460:
 348:../../tmk_core/protocol/lufa/lufa.c ****                                      CONSOLE_EPSIZE, ENDPOINT_BANK_SINGLE);
 1517               		.loc 1 348 5 is_stmt 1 view .LVU462
 1518               	.LBB461:
 1519               	.LBI461:
 200:../../tmk_core/protocol/lufa/lufa-abcminiuser/LUFA/Drivers/USB/Core/AVR8/../AVR8/Endpoint_AVR8.h **** 			                                              const uint8_t Type,
 1520               		.loc 2 200 23 view .LVU463
 1521               	.LBB462:
 205:../../tmk_core/protocol/lufa/lufa-abcminiuser/LUFA/Drivers/USB/Core/AVR8/../AVR8/Endpoint_AVR8.h **** 
 1522               		.loc 2 205 5 view .LVU464
 207:../../tmk_core/protocol/lufa/lufa-abcminiuser/LUFA/Drivers/USB/Core/AVR8/../AVR8/Endpoint_AVR8.h **** 				  return false;
 1523               		.loc 2 207 5 view .LVU465
 207:../../tmk_core/protocol/lufa/lufa-abcminiuser/LUFA/Drivers/USB/Core/AVR8/../AVR8/Endpoint_AVR8.h **** 				  return false;
 1524               		.loc 2 207 5 is_stmt 0 view .LVU466
 1525               	.LBE462:
 1526               	.LBE461:
 102:../../tmk_core/protocol/lufa/lufa-abcminiuser/LUFA/Drivers/USB/Core/AVR8/../AVR8/Endpoint_AVR8.h **** 					CheckBytes <<= 1;
 1527               		.loc 2 102 6 is_stmt 1 view .LVU467
 103:../../tmk_core/protocol/lufa/lufa-abcminiuser/LUFA/Drivers/USB/Core/AVR8/../AVR8/Endpoint_AVR8.h **** 				}
 1528               		.loc 2 103 6 view .LVU468
 102:../../tmk_core/protocol/lufa/lufa-abcminiuser/LUFA/Drivers/USB/Core/AVR8/../AVR8/Endpoint_AVR8.h **** 					CheckBytes <<= 1;
 1529               		.loc 2 102 6 view .LVU469
 103:../../tmk_core/protocol/lufa/lufa-abcminiuser/LUFA/Drivers/USB/Core/AVR8/../AVR8/Endpoint_AVR8.h **** 				}
 1530               		.loc 2 103 6 view .LVU470
 106:../../tmk_core/protocol/lufa/lufa-abcminiuser/LUFA/Drivers/USB/Core/AVR8/../AVR8/Endpoint_AVR8.h **** 			}
 1531               		.loc 2 106 5 view .LVU471
 1532               	.LBB464:
 1533               	.LBB463:
 210:../../tmk_core/protocol/lufa/lufa-abcminiuser/LUFA/Drivers/USB/Core/AVR8/../AVR8/Endpoint_AVR8.h **** 				                                      ((Type << EPTYPE0) | ((Address & ENDPOINT_DIR_IN) ? (1 <<
 1534               		.loc 2 210 12 is_stmt 0 view .LVU472
 1535 001e 42E2      		ldi r20,lo8(34)
 1536 0020 61EC      		ldi r22,lo8(-63)
 1537 0022 84E0      		ldi r24,lo8(4)
 1538 0024 0E94 0000 		call Endpoint_ConfigureEndpoint_Prv
 1539               	.LVL98:
 210:../../tmk_core/protocol/lufa/lufa-abcminiuser/LUFA/Drivers/USB/Core/AVR8/../AVR8/Endpoint_AVR8.h **** 				                                      ((Type << EPTYPE0) | ((Address & ENDPOINT_DIR_IN) ? (1 <<
 1540               		.loc 2 210 12 view .LVU473
 1541               	.LBE463:
 1542               	.LBE464:
 358:../../tmk_core/protocol/lufa/lufa.c ****                                      NKRO_EPSIZE, ENDPOINT_BANK_SINGLE);
 1543               		.loc 1 358 5 is_stmt 1 view .LVU474
 1544               	.LBB465:
 1545               	.LBI465:
 200:../../tmk_core/protocol/lufa/lufa-abcminiuser/LUFA/Drivers/USB/Core/AVR8/../AVR8/Endpoint_AVR8.h **** 			                                              const uint8_t Type,
 1546               		.loc 2 200 23 view .LVU475
 1547               	.LBB466:
