   1               		.file	"EndpointStream_AVR8.c"
   2               	__SP_H__ = 0x3e
   3               	__SP_L__ = 0x3d
   4               	__SREG__ = 0x3f
   5               	__RAMPZ__ = 0x3b
   6               	__tmp_reg__ = 0
   7               	__zero_reg__ = 1
   8               		.text
   9               	.Ltext0:
  10               		.cfi_sections	.debug_frame
  11               		.file 1 "./tmk_core/protocol/lufa/LUFA-git/LUFA/Drivers/USB/Core/AVR8/EndpointStream_AVR8.c"
  12               		.section	.text.Endpoint_Discard_Stream,"ax",@progbits
  13               	.global	Endpoint_Discard_Stream
  15               	Endpoint_Discard_Stream:
  16               	.LVL0:
  17               	.LFB89:
   1:./tmk_core/protocol/lufa/LUFA-git/LUFA/Drivers/USB/Core/AVR8/EndpointStream_AVR8.c **** /*
   2:./tmk_core/protocol/lufa/LUFA-git/LUFA/Drivers/USB/Core/AVR8/EndpointStream_AVR8.c ****              LUFA Library
   3:./tmk_core/protocol/lufa/LUFA-git/LUFA/Drivers/USB/Core/AVR8/EndpointStream_AVR8.c ****      Copyright (C) Dean Camera, 2014.
   4:./tmk_core/protocol/lufa/LUFA-git/LUFA/Drivers/USB/Core/AVR8/EndpointStream_AVR8.c **** 
   5:./tmk_core/protocol/lufa/LUFA-git/LUFA/Drivers/USB/Core/AVR8/EndpointStream_AVR8.c ****   dean [at] fourwalledcubicle [dot] com
   6:./tmk_core/protocol/lufa/LUFA-git/LUFA/Drivers/USB/Core/AVR8/EndpointStream_AVR8.c ****            www.lufa-lib.org
   7:./tmk_core/protocol/lufa/LUFA-git/LUFA/Drivers/USB/Core/AVR8/EndpointStream_AVR8.c **** */
   8:./tmk_core/protocol/lufa/LUFA-git/LUFA/Drivers/USB/Core/AVR8/EndpointStream_AVR8.c **** 
   9:./tmk_core/protocol/lufa/LUFA-git/LUFA/Drivers/USB/Core/AVR8/EndpointStream_AVR8.c **** /*
  10:./tmk_core/protocol/lufa/LUFA-git/LUFA/Drivers/USB/Core/AVR8/EndpointStream_AVR8.c ****   Copyright 2014  Dean Camera (dean [at] fourwalledcubicle [dot] com)
  11:./tmk_core/protocol/lufa/LUFA-git/LUFA/Drivers/USB/Core/AVR8/EndpointStream_AVR8.c **** 
  12:./tmk_core/protocol/lufa/LUFA-git/LUFA/Drivers/USB/Core/AVR8/EndpointStream_AVR8.c ****   Permission to use, copy, modify, distribute, and sell this
  13:./tmk_core/protocol/lufa/LUFA-git/LUFA/Drivers/USB/Core/AVR8/EndpointStream_AVR8.c ****   software and its documentation for any purpose is hereby granted
  14:./tmk_core/protocol/lufa/LUFA-git/LUFA/Drivers/USB/Core/AVR8/EndpointStream_AVR8.c ****   without fee, provided that the above copyright notice appear in
  15:./tmk_core/protocol/lufa/LUFA-git/LUFA/Drivers/USB/Core/AVR8/EndpointStream_AVR8.c ****   all copies and that both that the copyright notice and this
  16:./tmk_core/protocol/lufa/LUFA-git/LUFA/Drivers/USB/Core/AVR8/EndpointStream_AVR8.c ****   permission notice and warranty disclaimer appear in supporting
  17:./tmk_core/protocol/lufa/LUFA-git/LUFA/Drivers/USB/Core/AVR8/EndpointStream_AVR8.c ****   documentation, and that the name of the author not be used in
  18:./tmk_core/protocol/lufa/LUFA-git/LUFA/Drivers/USB/Core/AVR8/EndpointStream_AVR8.c ****   advertising or publicity pertaining to distribution of the
  19:./tmk_core/protocol/lufa/LUFA-git/LUFA/Drivers/USB/Core/AVR8/EndpointStream_AVR8.c ****   software without specific, written prior permission.
  20:./tmk_core/protocol/lufa/LUFA-git/LUFA/Drivers/USB/Core/AVR8/EndpointStream_AVR8.c **** 
  21:./tmk_core/protocol/lufa/LUFA-git/LUFA/Drivers/USB/Core/AVR8/EndpointStream_AVR8.c ****   The author disclaims all warranties with regard to this
  22:./tmk_core/protocol/lufa/LUFA-git/LUFA/Drivers/USB/Core/AVR8/EndpointStream_AVR8.c ****   software, including all implied warranties of merchantability
  23:./tmk_core/protocol/lufa/LUFA-git/LUFA/Drivers/USB/Core/AVR8/EndpointStream_AVR8.c ****   and fitness.  In no event shall the author be liable for any
  24:./tmk_core/protocol/lufa/LUFA-git/LUFA/Drivers/USB/Core/AVR8/EndpointStream_AVR8.c ****   special, indirect or consequential damages or any damages
  25:./tmk_core/protocol/lufa/LUFA-git/LUFA/Drivers/USB/Core/AVR8/EndpointStream_AVR8.c ****   whatsoever resulting from loss of use, data or profits, whether
  26:./tmk_core/protocol/lufa/LUFA-git/LUFA/Drivers/USB/Core/AVR8/EndpointStream_AVR8.c ****   in an action of contract, negligence or other tortious action,
  27:./tmk_core/protocol/lufa/LUFA-git/LUFA/Drivers/USB/Core/AVR8/EndpointStream_AVR8.c ****   arising out of or in connection with the use or performance of
  28:./tmk_core/protocol/lufa/LUFA-git/LUFA/Drivers/USB/Core/AVR8/EndpointStream_AVR8.c ****   this software.
  29:./tmk_core/protocol/lufa/LUFA-git/LUFA/Drivers/USB/Core/AVR8/EndpointStream_AVR8.c **** */
  30:./tmk_core/protocol/lufa/LUFA-git/LUFA/Drivers/USB/Core/AVR8/EndpointStream_AVR8.c **** 
  31:./tmk_core/protocol/lufa/LUFA-git/LUFA/Drivers/USB/Core/AVR8/EndpointStream_AVR8.c **** #include "../../../../Common/Common.h"
  32:./tmk_core/protocol/lufa/LUFA-git/LUFA/Drivers/USB/Core/AVR8/EndpointStream_AVR8.c **** #if (ARCH == ARCH_AVR8)
  33:./tmk_core/protocol/lufa/LUFA-git/LUFA/Drivers/USB/Core/AVR8/EndpointStream_AVR8.c **** 
  34:./tmk_core/protocol/lufa/LUFA-git/LUFA/Drivers/USB/Core/AVR8/EndpointStream_AVR8.c **** #define  __INCLUDE_FROM_USB_DRIVER
  35:./tmk_core/protocol/lufa/LUFA-git/LUFA/Drivers/USB/Core/AVR8/EndpointStream_AVR8.c **** #include "../USBMode.h"
  36:./tmk_core/protocol/lufa/LUFA-git/LUFA/Drivers/USB/Core/AVR8/EndpointStream_AVR8.c **** 
  37:./tmk_core/protocol/lufa/LUFA-git/LUFA/Drivers/USB/Core/AVR8/EndpointStream_AVR8.c **** #if defined(USB_CAN_BE_DEVICE)
  38:./tmk_core/protocol/lufa/LUFA-git/LUFA/Drivers/USB/Core/AVR8/EndpointStream_AVR8.c **** 
  39:./tmk_core/protocol/lufa/LUFA-git/LUFA/Drivers/USB/Core/AVR8/EndpointStream_AVR8.c **** #include "EndpointStream_AVR8.h"
  40:./tmk_core/protocol/lufa/LUFA-git/LUFA/Drivers/USB/Core/AVR8/EndpointStream_AVR8.c **** 
  41:./tmk_core/protocol/lufa/LUFA-git/LUFA/Drivers/USB/Core/AVR8/EndpointStream_AVR8.c **** #if !defined(CONTROL_ONLY_DEVICE)
  42:./tmk_core/protocol/lufa/LUFA-git/LUFA/Drivers/USB/Core/AVR8/EndpointStream_AVR8.c **** uint8_t Endpoint_Discard_Stream(uint16_t Length,
  43:./tmk_core/protocol/lufa/LUFA-git/LUFA/Drivers/USB/Core/AVR8/EndpointStream_AVR8.c ****                                 uint16_t* const BytesProcessed)
  44:./tmk_core/protocol/lufa/LUFA-git/LUFA/Drivers/USB/Core/AVR8/EndpointStream_AVR8.c **** {
  18               		.loc 1 44 1 view -0
  19               		.cfi_startproc
  20               		.loc 1 44 1 is_stmt 0 view .LVU1
  21 0000 CF92      		push r12
  22               	.LCFI0:
  23               		.cfi_def_cfa_offset 3
  24               		.cfi_offset 12, -2
  25 0002 DF92      		push r13
  26               	.LCFI1:
  27               		.cfi_def_cfa_offset 4
  28               		.cfi_offset 13, -3
  29 0004 FF92      		push r15
  30               	.LCFI2:
  31               		.cfi_def_cfa_offset 5
  32               		.cfi_offset 15, -4
  33 0006 0F93      		push r16
  34               	.LCFI3:
  35               		.cfi_def_cfa_offset 6
  36               		.cfi_offset 16, -5
  37 0008 1F93      		push r17
  38               	.LCFI4:
  39               		.cfi_def_cfa_offset 7
  40               		.cfi_offset 17, -6
  41 000a CF93      		push r28
  42               	.LCFI5:
  43               		.cfi_def_cfa_offset 8
  44               		.cfi_offset 28, -7
  45 000c DF93      		push r29
  46               	.LCFI6:
  47               		.cfi_def_cfa_offset 9
  48               		.cfi_offset 29, -8
  49               	/* prologue: function */
  50               	/* frame size = 0 */
  51               	/* stack size = 7 */
  52               	.L__stack_usage = 7
  53 000e EC01      		movw r28,r24
  54 0010 8B01      		movw r16,r22
  45:./tmk_core/protocol/lufa/LUFA-git/LUFA/Drivers/USB/Core/AVR8/EndpointStream_AVR8.c **** 	uint8_t  ErrorCode;
  55               		.loc 1 45 2 is_stmt 1 view .LVU2
  46:./tmk_core/protocol/lufa/LUFA-git/LUFA/Drivers/USB/Core/AVR8/EndpointStream_AVR8.c **** 	uint16_t BytesInTransfer = 0;
  56               		.loc 1 46 2 view .LVU3
  57               	.LVL1:
  47:./tmk_core/protocol/lufa/LUFA-git/LUFA/Drivers/USB/Core/AVR8/EndpointStream_AVR8.c **** 
  48:./tmk_core/protocol/lufa/LUFA-git/LUFA/Drivers/USB/Core/AVR8/EndpointStream_AVR8.c **** 	if ((ErrorCode = Endpoint_WaitUntilReady()))
  58               		.loc 1 48 2 view .LVU4
  59               		.loc 1 48 19 is_stmt 0 view .LVU5
  60 0012 0E94 0000 		call Endpoint_WaitUntilReady
  61               	.LVL2:
  62               		.loc 1 48 19 view .LVU6
  63 0016 F82E      		mov r15,r24
  64               	.LVL3:
  65               		.loc 1 48 5 view .LVU7
  66 0018 8111      		cpse r24,__zero_reg__
  67 001a 00C0      		rjmp .L1
  49:./tmk_core/protocol/lufa/LUFA-git/LUFA/Drivers/USB/Core/AVR8/EndpointStream_AVR8.c **** 	  return ErrorCode;
  50:./tmk_core/protocol/lufa/LUFA-git/LUFA/Drivers/USB/Core/AVR8/EndpointStream_AVR8.c **** 
  51:./tmk_core/protocol/lufa/LUFA-git/LUFA/Drivers/USB/Core/AVR8/EndpointStream_AVR8.c **** 	if (BytesProcessed != NULL)
  68               		.loc 1 51 2 is_stmt 1 view .LVU8
  69               		.loc 1 51 5 is_stmt 0 view .LVU9
  70 001c 0115      		cp r16,__zero_reg__
  71 001e 1105      		cpc r17,__zero_reg__
  72 0020 01F0      		breq .L3
  52:./tmk_core/protocol/lufa/LUFA-git/LUFA/Drivers/USB/Core/AVR8/EndpointStream_AVR8.c **** 	  Length -= *BytesProcessed;
  73               		.loc 1 52 4 is_stmt 1 view .LVU10
  74               		.loc 1 52 11 is_stmt 0 view .LVU11
  75 0022 F801      		movw r30,r16
  76 0024 8081      		ld r24,Z
  77 0026 9181      		ldd r25,Z+1
  78 0028 C81B      		sub r28,r24
  79 002a D90B      		sbc r29,r25
  80               	.LVL4:
  81               	.L3:
  44:./tmk_core/protocol/lufa/LUFA-git/LUFA/Drivers/USB/Core/AVR8/EndpointStream_AVR8.c **** 	uint8_t  ErrorCode;
  82               		.loc 1 44 1 view .LVU12
  83 002c C12C      		mov r12,__zero_reg__
  84 002e D12C      		mov r13,__zero_reg__
  85               	.LVL5:
  86               	.L4:
  53:./tmk_core/protocol/lufa/LUFA-git/LUFA/Drivers/USB/Core/AVR8/EndpointStream_AVR8.c **** 
  54:./tmk_core/protocol/lufa/LUFA-git/LUFA/Drivers/USB/Core/AVR8/EndpointStream_AVR8.c **** 	while (Length)
  87               		.loc 1 54 9 is_stmt 1 view .LVU13
  88 0030 2097      		sbiw r28,0
  89 0032 01F0      		breq .L1
  90               	.LVL6:
  91               	.L7:
  55:./tmk_core/protocol/lufa/LUFA-git/LUFA/Drivers/USB/Core/AVR8/EndpointStream_AVR8.c **** 	{
  56:./tmk_core/protocol/lufa/LUFA-git/LUFA/Drivers/USB/Core/AVR8/EndpointStream_AVR8.c **** 		if (!(Endpoint_IsReadWriteAllowed()))
  92               		.loc 1 56 3 view .LVU14
  93               	.LBB268:
  94               	.LBI268:
  95               		.file 2 "./tmk_core/protocol/lufa/LUFA-git/LUFA/Drivers/USB/Core/AVR8/../AVR8/../AVR8/Endpoint_AVR
   1:./tmk_core/protocol/lufa/LUFA-git/LUFA/Drivers/USB/Core/AVR8/../AVR8/../AVR8/Endpoint_AVR8.h **** /*
   2:./tmk_core/protocol/lufa/LUFA-git/LUFA/Drivers/USB/Core/AVR8/../AVR8/../AVR8/Endpoint_AVR8.h ****              LUFA Library
   3:./tmk_core/protocol/lufa/LUFA-git/LUFA/Drivers/USB/Core/AVR8/../AVR8/../AVR8/Endpoint_AVR8.h ****      Copyright (C) Dean Camera, 2014.
   4:./tmk_core/protocol/lufa/LUFA-git/LUFA/Drivers/USB/Core/AVR8/../AVR8/../AVR8/Endpoint_AVR8.h **** 
   5:./tmk_core/protocol/lufa/LUFA-git/LUFA/Drivers/USB/Core/AVR8/../AVR8/../AVR8/Endpoint_AVR8.h ****   dean [at] fourwalledcubicle [dot] com
   6:./tmk_core/protocol/lufa/LUFA-git/LUFA/Drivers/USB/Core/AVR8/../AVR8/../AVR8/Endpoint_AVR8.h ****            www.lufa-lib.org
   7:./tmk_core/protocol/lufa/LUFA-git/LUFA/Drivers/USB/Core/AVR8/../AVR8/../AVR8/Endpoint_AVR8.h **** */
   8:./tmk_core/protocol/lufa/LUFA-git/LUFA/Drivers/USB/Core/AVR8/../AVR8/../AVR8/Endpoint_AVR8.h **** 
   9:./tmk_core/protocol/lufa/LUFA-git/LUFA/Drivers/USB/Core/AVR8/../AVR8/../AVR8/Endpoint_AVR8.h **** /*
  10:./tmk_core/protocol/lufa/LUFA-git/LUFA/Drivers/USB/Core/AVR8/../AVR8/../AVR8/Endpoint_AVR8.h ****   Copyright 2014  Dean Camera (dean [at] fourwalledcubicle [dot] com)
  11:./tmk_core/protocol/lufa/LUFA-git/LUFA/Drivers/USB/Core/AVR8/../AVR8/../AVR8/Endpoint_AVR8.h **** 
  12:./tmk_core/protocol/lufa/LUFA-git/LUFA/Drivers/USB/Core/AVR8/../AVR8/../AVR8/Endpoint_AVR8.h ****   Permission to use, copy, modify, distribute, and sell this
  13:./tmk_core/protocol/lufa/LUFA-git/LUFA/Drivers/USB/Core/AVR8/../AVR8/../AVR8/Endpoint_AVR8.h ****   software and its documentation for any purpose is hereby granted
  14:./tmk_core/protocol/lufa/LUFA-git/LUFA/Drivers/USB/Core/AVR8/../AVR8/../AVR8/Endpoint_AVR8.h ****   without fee, provided that the above copyright notice appear in
  15:./tmk_core/protocol/lufa/LUFA-git/LUFA/Drivers/USB/Core/AVR8/../AVR8/../AVR8/Endpoint_AVR8.h ****   all copies and that both that the copyright notice and this
  16:./tmk_core/protocol/lufa/LUFA-git/LUFA/Drivers/USB/Core/AVR8/../AVR8/../AVR8/Endpoint_AVR8.h ****   permission notice and warranty disclaimer appear in supporting
  17:./tmk_core/protocol/lufa/LUFA-git/LUFA/Drivers/USB/Core/AVR8/../AVR8/../AVR8/Endpoint_AVR8.h ****   documentation, and that the name of the author not be used in
  18:./tmk_core/protocol/lufa/LUFA-git/LUFA/Drivers/USB/Core/AVR8/../AVR8/../AVR8/Endpoint_AVR8.h ****   advertising or publicity pertaining to distribution of the
  19:./tmk_core/protocol/lufa/LUFA-git/LUFA/Drivers/USB/Core/AVR8/../AVR8/../AVR8/Endpoint_AVR8.h ****   software without specific, written prior permission.
  20:./tmk_core/protocol/lufa/LUFA-git/LUFA/Drivers/USB/Core/AVR8/../AVR8/../AVR8/Endpoint_AVR8.h **** 
  21:./tmk_core/protocol/lufa/LUFA-git/LUFA/Drivers/USB/Core/AVR8/../AVR8/../AVR8/Endpoint_AVR8.h ****   The author disclaims all warranties with regard to this
  22:./tmk_core/protocol/lufa/LUFA-git/LUFA/Drivers/USB/Core/AVR8/../AVR8/../AVR8/Endpoint_AVR8.h ****   software, including all implied warranties of merchantability
  23:./tmk_core/protocol/lufa/LUFA-git/LUFA/Drivers/USB/Core/AVR8/../AVR8/../AVR8/Endpoint_AVR8.h ****   and fitness.  In no event shall the author be liable for any
  24:./tmk_core/protocol/lufa/LUFA-git/LUFA/Drivers/USB/Core/AVR8/../AVR8/../AVR8/Endpoint_AVR8.h ****   special, indirect or consequential damages or any damages
  25:./tmk_core/protocol/lufa/LUFA-git/LUFA/Drivers/USB/Core/AVR8/../AVR8/../AVR8/Endpoint_AVR8.h ****   whatsoever resulting from loss of use, data or profits, whether
  26:./tmk_core/protocol/lufa/LUFA-git/LUFA/Drivers/USB/Core/AVR8/../AVR8/../AVR8/Endpoint_AVR8.h ****   in an action of contract, negligence or other tortious action,
  27:./tmk_core/protocol/lufa/LUFA-git/LUFA/Drivers/USB/Core/AVR8/../AVR8/../AVR8/Endpoint_AVR8.h ****   arising out of or in connection with the use or performance of
  28:./tmk_core/protocol/lufa/LUFA-git/LUFA/Drivers/USB/Core/AVR8/../AVR8/../AVR8/Endpoint_AVR8.h ****   this software.
  29:./tmk_core/protocol/lufa/LUFA-git/LUFA/Drivers/USB/Core/AVR8/../AVR8/../AVR8/Endpoint_AVR8.h **** */
  30:./tmk_core/protocol/lufa/LUFA-git/LUFA/Drivers/USB/Core/AVR8/../AVR8/../AVR8/Endpoint_AVR8.h **** 
  31:./tmk_core/protocol/lufa/LUFA-git/LUFA/Drivers/USB/Core/AVR8/../AVR8/../AVR8/Endpoint_AVR8.h **** /** \file
  32:./tmk_core/protocol/lufa/LUFA-git/LUFA/Drivers/USB/Core/AVR8/../AVR8/../AVR8/Endpoint_AVR8.h ****  *  \brief USB Endpoint definitions for the AVR8 microcontrollers.
  33:./tmk_core/protocol/lufa/LUFA-git/LUFA/Drivers/USB/Core/AVR8/../AVR8/../AVR8/Endpoint_AVR8.h ****  *  \copydetails Group_EndpointManagement_AVR8
  34:./tmk_core/protocol/lufa/LUFA-git/LUFA/Drivers/USB/Core/AVR8/../AVR8/../AVR8/Endpoint_AVR8.h ****  *
  35:./tmk_core/protocol/lufa/LUFA-git/LUFA/Drivers/USB/Core/AVR8/../AVR8/../AVR8/Endpoint_AVR8.h ****  *  \note This file should not be included directly. It is automatically included as needed by the 
  36:./tmk_core/protocol/lufa/LUFA-git/LUFA/Drivers/USB/Core/AVR8/../AVR8/../AVR8/Endpoint_AVR8.h ****  *        dispatch header located in LUFA/Drivers/USB/USB.h.
  37:./tmk_core/protocol/lufa/LUFA-git/LUFA/Drivers/USB/Core/AVR8/../AVR8/../AVR8/Endpoint_AVR8.h ****  */
  38:./tmk_core/protocol/lufa/LUFA-git/LUFA/Drivers/USB/Core/AVR8/../AVR8/../AVR8/Endpoint_AVR8.h **** 
  39:./tmk_core/protocol/lufa/LUFA-git/LUFA/Drivers/USB/Core/AVR8/../AVR8/../AVR8/Endpoint_AVR8.h **** /** \ingroup Group_EndpointRW
  40:./tmk_core/protocol/lufa/LUFA-git/LUFA/Drivers/USB/Core/AVR8/../AVR8/../AVR8/Endpoint_AVR8.h ****  *  \defgroup Group_EndpointRW_AVR8 Endpoint Data Reading and Writing (AVR8)
  41:./tmk_core/protocol/lufa/LUFA-git/LUFA/Drivers/USB/Core/AVR8/../AVR8/../AVR8/Endpoint_AVR8.h ****  *  \brief Endpoint data read/write definitions for the Atmel AVR8 architecture.
  42:./tmk_core/protocol/lufa/LUFA-git/LUFA/Drivers/USB/Core/AVR8/../AVR8/../AVR8/Endpoint_AVR8.h ****  *
  43:./tmk_core/protocol/lufa/LUFA-git/LUFA/Drivers/USB/Core/AVR8/../AVR8/../AVR8/Endpoint_AVR8.h ****  *  Functions, macros, variables, enums and types related to data reading and writing from and to e
  44:./tmk_core/protocol/lufa/LUFA-git/LUFA/Drivers/USB/Core/AVR8/../AVR8/../AVR8/Endpoint_AVR8.h ****  */
  45:./tmk_core/protocol/lufa/LUFA-git/LUFA/Drivers/USB/Core/AVR8/../AVR8/../AVR8/Endpoint_AVR8.h **** 
  46:./tmk_core/protocol/lufa/LUFA-git/LUFA/Drivers/USB/Core/AVR8/../AVR8/../AVR8/Endpoint_AVR8.h **** /** \ingroup Group_EndpointPrimitiveRW
  47:./tmk_core/protocol/lufa/LUFA-git/LUFA/Drivers/USB/Core/AVR8/../AVR8/../AVR8/Endpoint_AVR8.h ****  *  \defgroup Group_EndpointPrimitiveRW_AVR8 Read/Write of Primitive Data Types (AVR8)
  48:./tmk_core/protocol/lufa/LUFA-git/LUFA/Drivers/USB/Core/AVR8/../AVR8/../AVR8/Endpoint_AVR8.h ****  *  \brief Endpoint primitive read/write definitions for the Atmel AVR8 architecture.
  49:./tmk_core/protocol/lufa/LUFA-git/LUFA/Drivers/USB/Core/AVR8/../AVR8/../AVR8/Endpoint_AVR8.h ****  *
  50:./tmk_core/protocol/lufa/LUFA-git/LUFA/Drivers/USB/Core/AVR8/../AVR8/../AVR8/Endpoint_AVR8.h ****  *  Functions, macros, variables, enums and types related to data reading and writing of primitive 
  51:./tmk_core/protocol/lufa/LUFA-git/LUFA/Drivers/USB/Core/AVR8/../AVR8/../AVR8/Endpoint_AVR8.h ****  *  from and to endpoints.
  52:./tmk_core/protocol/lufa/LUFA-git/LUFA/Drivers/USB/Core/AVR8/../AVR8/../AVR8/Endpoint_AVR8.h ****  */
  53:./tmk_core/protocol/lufa/LUFA-git/LUFA/Drivers/USB/Core/AVR8/../AVR8/../AVR8/Endpoint_AVR8.h **** 
  54:./tmk_core/protocol/lufa/LUFA-git/LUFA/Drivers/USB/Core/AVR8/../AVR8/../AVR8/Endpoint_AVR8.h **** /** \ingroup Group_EndpointPacketManagement
  55:./tmk_core/protocol/lufa/LUFA-git/LUFA/Drivers/USB/Core/AVR8/../AVR8/../AVR8/Endpoint_AVR8.h ****  *  \defgroup Group_EndpointPacketManagement_AVR8 Endpoint Packet Management (AVR8)
  56:./tmk_core/protocol/lufa/LUFA-git/LUFA/Drivers/USB/Core/AVR8/../AVR8/../AVR8/Endpoint_AVR8.h ****  *  \brief Endpoint packet management definitions for the Atmel AVR8 architecture.
  57:./tmk_core/protocol/lufa/LUFA-git/LUFA/Drivers/USB/Core/AVR8/../AVR8/../AVR8/Endpoint_AVR8.h ****  *
  58:./tmk_core/protocol/lufa/LUFA-git/LUFA/Drivers/USB/Core/AVR8/../AVR8/../AVR8/Endpoint_AVR8.h ****  *  Functions, macros, variables, enums and types related to packet management of endpoints.
  59:./tmk_core/protocol/lufa/LUFA-git/LUFA/Drivers/USB/Core/AVR8/../AVR8/../AVR8/Endpoint_AVR8.h ****  */
  60:./tmk_core/protocol/lufa/LUFA-git/LUFA/Drivers/USB/Core/AVR8/../AVR8/../AVR8/Endpoint_AVR8.h **** 
  61:./tmk_core/protocol/lufa/LUFA-git/LUFA/Drivers/USB/Core/AVR8/../AVR8/../AVR8/Endpoint_AVR8.h **** /** \ingroup Group_EndpointManagement
  62:./tmk_core/protocol/lufa/LUFA-git/LUFA/Drivers/USB/Core/AVR8/../AVR8/../AVR8/Endpoint_AVR8.h ****  *  \defgroup Group_EndpointManagement_AVR8 Endpoint Management (AVR8)
  63:./tmk_core/protocol/lufa/LUFA-git/LUFA/Drivers/USB/Core/AVR8/../AVR8/../AVR8/Endpoint_AVR8.h ****  *  \brief Endpoint management definitions for the Atmel AVR8 architecture.
  64:./tmk_core/protocol/lufa/LUFA-git/LUFA/Drivers/USB/Core/AVR8/../AVR8/../AVR8/Endpoint_AVR8.h ****  *
  65:./tmk_core/protocol/lufa/LUFA-git/LUFA/Drivers/USB/Core/AVR8/../AVR8/../AVR8/Endpoint_AVR8.h ****  *  Functions, macros and enums related to endpoint management when in USB Device mode. This
  66:./tmk_core/protocol/lufa/LUFA-git/LUFA/Drivers/USB/Core/AVR8/../AVR8/../AVR8/Endpoint_AVR8.h ****  *  module contains the endpoint management macros, as well as endpoint interrupt and data
  67:./tmk_core/protocol/lufa/LUFA-git/LUFA/Drivers/USB/Core/AVR8/../AVR8/../AVR8/Endpoint_AVR8.h ****  *  send/receive functions for various data types.
  68:./tmk_core/protocol/lufa/LUFA-git/LUFA/Drivers/USB/Core/AVR8/../AVR8/../AVR8/Endpoint_AVR8.h ****  *
  69:./tmk_core/protocol/lufa/LUFA-git/LUFA/Drivers/USB/Core/AVR8/../AVR8/../AVR8/Endpoint_AVR8.h ****  *  @{
  70:./tmk_core/protocol/lufa/LUFA-git/LUFA/Drivers/USB/Core/AVR8/../AVR8/../AVR8/Endpoint_AVR8.h ****  */
  71:./tmk_core/protocol/lufa/LUFA-git/LUFA/Drivers/USB/Core/AVR8/../AVR8/../AVR8/Endpoint_AVR8.h **** 
  72:./tmk_core/protocol/lufa/LUFA-git/LUFA/Drivers/USB/Core/AVR8/../AVR8/../AVR8/Endpoint_AVR8.h **** #ifndef __ENDPOINT_AVR8_H__
  73:./tmk_core/protocol/lufa/LUFA-git/LUFA/Drivers/USB/Core/AVR8/../AVR8/../AVR8/Endpoint_AVR8.h **** #define __ENDPOINT_AVR8_H__
  74:./tmk_core/protocol/lufa/LUFA-git/LUFA/Drivers/USB/Core/AVR8/../AVR8/../AVR8/Endpoint_AVR8.h **** 
  75:./tmk_core/protocol/lufa/LUFA-git/LUFA/Drivers/USB/Core/AVR8/../AVR8/../AVR8/Endpoint_AVR8.h **** 	/* Includes: */
  76:./tmk_core/protocol/lufa/LUFA-git/LUFA/Drivers/USB/Core/AVR8/../AVR8/../AVR8/Endpoint_AVR8.h **** 		#include "../../../../Common/Common.h"
  77:./tmk_core/protocol/lufa/LUFA-git/LUFA/Drivers/USB/Core/AVR8/../AVR8/../AVR8/Endpoint_AVR8.h **** 		#include "../USBTask.h"
  78:./tmk_core/protocol/lufa/LUFA-git/LUFA/Drivers/USB/Core/AVR8/../AVR8/../AVR8/Endpoint_AVR8.h **** 		#include "../USBInterrupt.h"
  79:./tmk_core/protocol/lufa/LUFA-git/LUFA/Drivers/USB/Core/AVR8/../AVR8/../AVR8/Endpoint_AVR8.h **** 
  80:./tmk_core/protocol/lufa/LUFA-git/LUFA/Drivers/USB/Core/AVR8/../AVR8/../AVR8/Endpoint_AVR8.h **** 	/* Enable C linkage for C++ Compilers: */
  81:./tmk_core/protocol/lufa/LUFA-git/LUFA/Drivers/USB/Core/AVR8/../AVR8/../AVR8/Endpoint_AVR8.h **** 		#if defined(__cplusplus)
  82:./tmk_core/protocol/lufa/LUFA-git/LUFA/Drivers/USB/Core/AVR8/../AVR8/../AVR8/Endpoint_AVR8.h **** 			extern "C" {
  83:./tmk_core/protocol/lufa/LUFA-git/LUFA/Drivers/USB/Core/AVR8/../AVR8/../AVR8/Endpoint_AVR8.h **** 		#endif
  84:./tmk_core/protocol/lufa/LUFA-git/LUFA/Drivers/USB/Core/AVR8/../AVR8/../AVR8/Endpoint_AVR8.h **** 
  85:./tmk_core/protocol/lufa/LUFA-git/LUFA/Drivers/USB/Core/AVR8/../AVR8/../AVR8/Endpoint_AVR8.h **** 	/* Preprocessor Checks: */
  86:./tmk_core/protocol/lufa/LUFA-git/LUFA/Drivers/USB/Core/AVR8/../AVR8/../AVR8/Endpoint_AVR8.h **** 		#if !defined(__INCLUDE_FROM_USB_DRIVER)
  87:./tmk_core/protocol/lufa/LUFA-git/LUFA/Drivers/USB/Core/AVR8/../AVR8/../AVR8/Endpoint_AVR8.h **** 			#error Do not include this file directly. Include LUFA/Drivers/USB/USB.h instead.
  88:./tmk_core/protocol/lufa/LUFA-git/LUFA/Drivers/USB/Core/AVR8/../AVR8/../AVR8/Endpoint_AVR8.h **** 		#endif
  89:./tmk_core/protocol/lufa/LUFA-git/LUFA/Drivers/USB/Core/AVR8/../AVR8/../AVR8/Endpoint_AVR8.h **** 
  90:./tmk_core/protocol/lufa/LUFA-git/LUFA/Drivers/USB/Core/AVR8/../AVR8/../AVR8/Endpoint_AVR8.h **** 	/* Private Interface - For use in library only: */
  91:./tmk_core/protocol/lufa/LUFA-git/LUFA/Drivers/USB/Core/AVR8/../AVR8/../AVR8/Endpoint_AVR8.h **** 	#if !defined(__DOXYGEN__)
  92:./tmk_core/protocol/lufa/LUFA-git/LUFA/Drivers/USB/Core/AVR8/../AVR8/../AVR8/Endpoint_AVR8.h **** 		/* Inline Functions: */
  93:./tmk_core/protocol/lufa/LUFA-git/LUFA/Drivers/USB/Core/AVR8/../AVR8/../AVR8/Endpoint_AVR8.h **** 			static inline uint8_t Endpoint_BytesToEPSizeMask(const uint16_t Bytes) ATTR_WARN_UNUSED_RESULT A
  94:./tmk_core/protocol/lufa/LUFA-git/LUFA/Drivers/USB/Core/AVR8/../AVR8/../AVR8/Endpoint_AVR8.h **** 			                                                                       ATTR_ALWAYS_INLINE;
  95:./tmk_core/protocol/lufa/LUFA-git/LUFA/Drivers/USB/Core/AVR8/../AVR8/../AVR8/Endpoint_AVR8.h **** 			static inline uint8_t Endpoint_BytesToEPSizeMask(const uint16_t Bytes)
  96:./tmk_core/protocol/lufa/LUFA-git/LUFA/Drivers/USB/Core/AVR8/../AVR8/../AVR8/Endpoint_AVR8.h **** 			{
  97:./tmk_core/protocol/lufa/LUFA-git/LUFA/Drivers/USB/Core/AVR8/../AVR8/../AVR8/Endpoint_AVR8.h **** 				uint8_t  MaskVal    = 0;
  98:./tmk_core/protocol/lufa/LUFA-git/LUFA/Drivers/USB/Core/AVR8/../AVR8/../AVR8/Endpoint_AVR8.h **** 				uint16_t CheckBytes = 8;
  99:./tmk_core/protocol/lufa/LUFA-git/LUFA/Drivers/USB/Core/AVR8/../AVR8/../AVR8/Endpoint_AVR8.h **** 
 100:./tmk_core/protocol/lufa/LUFA-git/LUFA/Drivers/USB/Core/AVR8/../AVR8/../AVR8/Endpoint_AVR8.h **** 				while (CheckBytes < Bytes)
 101:./tmk_core/protocol/lufa/LUFA-git/LUFA/Drivers/USB/Core/AVR8/../AVR8/../AVR8/Endpoint_AVR8.h **** 				{
 102:./tmk_core/protocol/lufa/LUFA-git/LUFA/Drivers/USB/Core/AVR8/../AVR8/../AVR8/Endpoint_AVR8.h **** 					MaskVal++;
 103:./tmk_core/protocol/lufa/LUFA-git/LUFA/Drivers/USB/Core/AVR8/../AVR8/../AVR8/Endpoint_AVR8.h **** 					CheckBytes <<= 1;
 104:./tmk_core/protocol/lufa/LUFA-git/LUFA/Drivers/USB/Core/AVR8/../AVR8/../AVR8/Endpoint_AVR8.h **** 				}
 105:./tmk_core/protocol/lufa/LUFA-git/LUFA/Drivers/USB/Core/AVR8/../AVR8/../AVR8/Endpoint_AVR8.h **** 
 106:./tmk_core/protocol/lufa/LUFA-git/LUFA/Drivers/USB/Core/AVR8/../AVR8/../AVR8/Endpoint_AVR8.h **** 				return (MaskVal << EPSIZE0);
 107:./tmk_core/protocol/lufa/LUFA-git/LUFA/Drivers/USB/Core/AVR8/../AVR8/../AVR8/Endpoint_AVR8.h **** 			}
 108:./tmk_core/protocol/lufa/LUFA-git/LUFA/Drivers/USB/Core/AVR8/../AVR8/../AVR8/Endpoint_AVR8.h **** 
 109:./tmk_core/protocol/lufa/LUFA-git/LUFA/Drivers/USB/Core/AVR8/../AVR8/../AVR8/Endpoint_AVR8.h **** 		/* Function Prototypes: */
 110:./tmk_core/protocol/lufa/LUFA-git/LUFA/Drivers/USB/Core/AVR8/../AVR8/../AVR8/Endpoint_AVR8.h **** 			void Endpoint_ClearEndpoints(void);
 111:./tmk_core/protocol/lufa/LUFA-git/LUFA/Drivers/USB/Core/AVR8/../AVR8/../AVR8/Endpoint_AVR8.h **** 			bool Endpoint_ConfigureEndpoint_Prv(const uint8_t Number,
 112:./tmk_core/protocol/lufa/LUFA-git/LUFA/Drivers/USB/Core/AVR8/../AVR8/../AVR8/Endpoint_AVR8.h **** 			                                    const uint8_t UECFG0XData,
 113:./tmk_core/protocol/lufa/LUFA-git/LUFA/Drivers/USB/Core/AVR8/../AVR8/../AVR8/Endpoint_AVR8.h **** 			                                    const uint8_t UECFG1XData);
 114:./tmk_core/protocol/lufa/LUFA-git/LUFA/Drivers/USB/Core/AVR8/../AVR8/../AVR8/Endpoint_AVR8.h **** 
 115:./tmk_core/protocol/lufa/LUFA-git/LUFA/Drivers/USB/Core/AVR8/../AVR8/../AVR8/Endpoint_AVR8.h **** 	#endif
 116:./tmk_core/protocol/lufa/LUFA-git/LUFA/Drivers/USB/Core/AVR8/../AVR8/../AVR8/Endpoint_AVR8.h **** 
 117:./tmk_core/protocol/lufa/LUFA-git/LUFA/Drivers/USB/Core/AVR8/../AVR8/../AVR8/Endpoint_AVR8.h **** 	/* Public Interface - May be used in end-application: */
 118:./tmk_core/protocol/lufa/LUFA-git/LUFA/Drivers/USB/Core/AVR8/../AVR8/../AVR8/Endpoint_AVR8.h **** 		/* Macros: */
 119:./tmk_core/protocol/lufa/LUFA-git/LUFA/Drivers/USB/Core/AVR8/../AVR8/../AVR8/Endpoint_AVR8.h **** 			#if (!defined(FIXED_CONTROL_ENDPOINT_SIZE) || defined(__DOXYGEN__))
 120:./tmk_core/protocol/lufa/LUFA-git/LUFA/Drivers/USB/Core/AVR8/../AVR8/../AVR8/Endpoint_AVR8.h **** 				/** Default size of the default control endpoint's bank, until altered by the control endpoint 
 121:./tmk_core/protocol/lufa/LUFA-git/LUFA/Drivers/USB/Core/AVR8/../AVR8/../AVR8/Endpoint_AVR8.h **** 				 *  value in the device descriptor. Not available if the \c FIXED_CONTROL_ENDPOINT_SIZE token i
 122:./tmk_core/protocol/lufa/LUFA-git/LUFA/Drivers/USB/Core/AVR8/../AVR8/../AVR8/Endpoint_AVR8.h **** 				 */
 123:./tmk_core/protocol/lufa/LUFA-git/LUFA/Drivers/USB/Core/AVR8/../AVR8/../AVR8/Endpoint_AVR8.h **** 				#define ENDPOINT_CONTROLEP_DEFAULT_SIZE     8
 124:./tmk_core/protocol/lufa/LUFA-git/LUFA/Drivers/USB/Core/AVR8/../AVR8/../AVR8/Endpoint_AVR8.h **** 			#endif
 125:./tmk_core/protocol/lufa/LUFA-git/LUFA/Drivers/USB/Core/AVR8/../AVR8/../AVR8/Endpoint_AVR8.h **** 
 126:./tmk_core/protocol/lufa/LUFA-git/LUFA/Drivers/USB/Core/AVR8/../AVR8/../AVR8/Endpoint_AVR8.h **** 			#if !defined(CONTROL_ONLY_DEVICE) || defined(__DOXYGEN__)
 127:./tmk_core/protocol/lufa/LUFA-git/LUFA/Drivers/USB/Core/AVR8/../AVR8/../AVR8/Endpoint_AVR8.h **** 				#if defined(USB_SERIES_4_AVR) || defined(USB_SERIES_6_AVR) || defined(USB_SERIES_7_AVR) || defi
 128:./tmk_core/protocol/lufa/LUFA-git/LUFA/Drivers/USB/Core/AVR8/../AVR8/../AVR8/Endpoint_AVR8.h **** 					/** Total number of endpoints (including the default control endpoint at address 0) which may
 129:./tmk_core/protocol/lufa/LUFA-git/LUFA/Drivers/USB/Core/AVR8/../AVR8/../AVR8/Endpoint_AVR8.h **** 					 *  be used in the device. Different USB AVR models support different amounts of endpoints,
 130:./tmk_core/protocol/lufa/LUFA-git/LUFA/Drivers/USB/Core/AVR8/../AVR8/../AVR8/Endpoint_AVR8.h **** 					 *  this value reflects the maximum number of endpoints for the currently selected AVR model.
 131:./tmk_core/protocol/lufa/LUFA-git/LUFA/Drivers/USB/Core/AVR8/../AVR8/../AVR8/Endpoint_AVR8.h **** 					 */
 132:./tmk_core/protocol/lufa/LUFA-git/LUFA/Drivers/USB/Core/AVR8/../AVR8/../AVR8/Endpoint_AVR8.h **** 					#define ENDPOINT_TOTAL_ENDPOINTS        7
 133:./tmk_core/protocol/lufa/LUFA-git/LUFA/Drivers/USB/Core/AVR8/../AVR8/../AVR8/Endpoint_AVR8.h **** 				#else
 134:./tmk_core/protocol/lufa/LUFA-git/LUFA/Drivers/USB/Core/AVR8/../AVR8/../AVR8/Endpoint_AVR8.h **** 					#define ENDPOINT_TOTAL_ENDPOINTS        5
 135:./tmk_core/protocol/lufa/LUFA-git/LUFA/Drivers/USB/Core/AVR8/../AVR8/../AVR8/Endpoint_AVR8.h **** 				#endif
 136:./tmk_core/protocol/lufa/LUFA-git/LUFA/Drivers/USB/Core/AVR8/../AVR8/../AVR8/Endpoint_AVR8.h **** 			#else
 137:./tmk_core/protocol/lufa/LUFA-git/LUFA/Drivers/USB/Core/AVR8/../AVR8/../AVR8/Endpoint_AVR8.h **** 				#define ENDPOINT_TOTAL_ENDPOINTS            1
 138:./tmk_core/protocol/lufa/LUFA-git/LUFA/Drivers/USB/Core/AVR8/../AVR8/../AVR8/Endpoint_AVR8.h **** 			#endif
 139:./tmk_core/protocol/lufa/LUFA-git/LUFA/Drivers/USB/Core/AVR8/../AVR8/../AVR8/Endpoint_AVR8.h **** 
 140:./tmk_core/protocol/lufa/LUFA-git/LUFA/Drivers/USB/Core/AVR8/../AVR8/../AVR8/Endpoint_AVR8.h **** 		/* Enums: */
 141:./tmk_core/protocol/lufa/LUFA-git/LUFA/Drivers/USB/Core/AVR8/../AVR8/../AVR8/Endpoint_AVR8.h **** 			/** Enum for the possible error return codes of the \ref Endpoint_WaitUntilReady() function.
 142:./tmk_core/protocol/lufa/LUFA-git/LUFA/Drivers/USB/Core/AVR8/../AVR8/../AVR8/Endpoint_AVR8.h **** 			 *
 143:./tmk_core/protocol/lufa/LUFA-git/LUFA/Drivers/USB/Core/AVR8/../AVR8/../AVR8/Endpoint_AVR8.h **** 			 *  \ingroup Group_EndpointRW_AVR8
 144:./tmk_core/protocol/lufa/LUFA-git/LUFA/Drivers/USB/Core/AVR8/../AVR8/../AVR8/Endpoint_AVR8.h **** 			 */
 145:./tmk_core/protocol/lufa/LUFA-git/LUFA/Drivers/USB/Core/AVR8/../AVR8/../AVR8/Endpoint_AVR8.h **** 			enum Endpoint_WaitUntilReady_ErrorCodes_t
 146:./tmk_core/protocol/lufa/LUFA-git/LUFA/Drivers/USB/Core/AVR8/../AVR8/../AVR8/Endpoint_AVR8.h **** 			{
 147:./tmk_core/protocol/lufa/LUFA-git/LUFA/Drivers/USB/Core/AVR8/../AVR8/../AVR8/Endpoint_AVR8.h **** 				ENDPOINT_READYWAIT_NoError                 = 0, /**< Endpoint is ready for next packet, no erro
 148:./tmk_core/protocol/lufa/LUFA-git/LUFA/Drivers/USB/Core/AVR8/../AVR8/../AVR8/Endpoint_AVR8.h **** 				ENDPOINT_READYWAIT_EndpointStalled         = 1, /**< The endpoint was stalled during the stream
 149:./tmk_core/protocol/lufa/LUFA-git/LUFA/Drivers/USB/Core/AVR8/../AVR8/../AVR8/Endpoint_AVR8.h **** 				                                                 *   transfer by the host or device.
 150:./tmk_core/protocol/lufa/LUFA-git/LUFA/Drivers/USB/Core/AVR8/../AVR8/../AVR8/Endpoint_AVR8.h **** 				                                                 */
 151:./tmk_core/protocol/lufa/LUFA-git/LUFA/Drivers/USB/Core/AVR8/../AVR8/../AVR8/Endpoint_AVR8.h **** 				ENDPOINT_READYWAIT_DeviceDisconnected      = 2,	/**< Device was disconnected from the host whil
 152:./tmk_core/protocol/lufa/LUFA-git/LUFA/Drivers/USB/Core/AVR8/../AVR8/../AVR8/Endpoint_AVR8.h **** 				                                                 *   waiting for the endpoint to become ready.
 153:./tmk_core/protocol/lufa/LUFA-git/LUFA/Drivers/USB/Core/AVR8/../AVR8/../AVR8/Endpoint_AVR8.h **** 				                                                 */
 154:./tmk_core/protocol/lufa/LUFA-git/LUFA/Drivers/USB/Core/AVR8/../AVR8/../AVR8/Endpoint_AVR8.h **** 				ENDPOINT_READYWAIT_BusSuspended            = 3, /**< The USB bus has been suspended by the host
 155:./tmk_core/protocol/lufa/LUFA-git/LUFA/Drivers/USB/Core/AVR8/../AVR8/../AVR8/Endpoint_AVR8.h **** 				                                                 *   no USB endpoint traffic can occur until th
 156:./tmk_core/protocol/lufa/LUFA-git/LUFA/Drivers/USB/Core/AVR8/../AVR8/../AVR8/Endpoint_AVR8.h **** 				                                                 *   has resumed.
 157:./tmk_core/protocol/lufa/LUFA-git/LUFA/Drivers/USB/Core/AVR8/../AVR8/../AVR8/Endpoint_AVR8.h **** 				                                                 */
 158:./tmk_core/protocol/lufa/LUFA-git/LUFA/Drivers/USB/Core/AVR8/../AVR8/../AVR8/Endpoint_AVR8.h **** 				ENDPOINT_READYWAIT_Timeout                 = 4, /**< The host failed to accept or send the next
 159:./tmk_core/protocol/lufa/LUFA-git/LUFA/Drivers/USB/Core/AVR8/../AVR8/../AVR8/Endpoint_AVR8.h **** 				                                                 *   within the software timeout period set by 
 160:./tmk_core/protocol/lufa/LUFA-git/LUFA/Drivers/USB/Core/AVR8/../AVR8/../AVR8/Endpoint_AVR8.h **** 				                                                 *   \ref USB_STREAM_TIMEOUT_MS macro.
 161:./tmk_core/protocol/lufa/LUFA-git/LUFA/Drivers/USB/Core/AVR8/../AVR8/../AVR8/Endpoint_AVR8.h **** 				                                                 */
 162:./tmk_core/protocol/lufa/LUFA-git/LUFA/Drivers/USB/Core/AVR8/../AVR8/../AVR8/Endpoint_AVR8.h **** 			};
 163:./tmk_core/protocol/lufa/LUFA-git/LUFA/Drivers/USB/Core/AVR8/../AVR8/../AVR8/Endpoint_AVR8.h **** 
 164:./tmk_core/protocol/lufa/LUFA-git/LUFA/Drivers/USB/Core/AVR8/../AVR8/../AVR8/Endpoint_AVR8.h **** 		/* Inline Functions: */
 165:./tmk_core/protocol/lufa/LUFA-git/LUFA/Drivers/USB/Core/AVR8/../AVR8/../AVR8/Endpoint_AVR8.h **** 			/** Configures the specified endpoint address with the given endpoint type, bank size and number
 166:./tmk_core/protocol/lufa/LUFA-git/LUFA/Drivers/USB/Core/AVR8/../AVR8/../AVR8/Endpoint_AVR8.h **** 			 *  banks. Once configured, the endpoint may be read from or written to, depending on its direct
 167:./tmk_core/protocol/lufa/LUFA-git/LUFA/Drivers/USB/Core/AVR8/../AVR8/../AVR8/Endpoint_AVR8.h **** 			 *
 168:./tmk_core/protocol/lufa/LUFA-git/LUFA/Drivers/USB/Core/AVR8/../AVR8/../AVR8/Endpoint_AVR8.h **** 			 *  \param[in] Address    Endpoint address to configure.
 169:./tmk_core/protocol/lufa/LUFA-git/LUFA/Drivers/USB/Core/AVR8/../AVR8/../AVR8/Endpoint_AVR8.h **** 			 *
 170:./tmk_core/protocol/lufa/LUFA-git/LUFA/Drivers/USB/Core/AVR8/../AVR8/../AVR8/Endpoint_AVR8.h **** 			 *  \param[in] Type       Type of endpoint to configure, a \c EP_TYPE_* mask. Not all endpoint t
 171:./tmk_core/protocol/lufa/LUFA-git/LUFA/Drivers/USB/Core/AVR8/../AVR8/../AVR8/Endpoint_AVR8.h **** 			 *                        are available on Low Speed USB devices - refer to the USB 2.0 specific
 172:./tmk_core/protocol/lufa/LUFA-git/LUFA/Drivers/USB/Core/AVR8/../AVR8/../AVR8/Endpoint_AVR8.h **** 			 *
 173:./tmk_core/protocol/lufa/LUFA-git/LUFA/Drivers/USB/Core/AVR8/../AVR8/../AVR8/Endpoint_AVR8.h **** 			 *  \param[in] Size       Size of the endpoint's bank, where packets are stored before they are 
 174:./tmk_core/protocol/lufa/LUFA-git/LUFA/Drivers/USB/Core/AVR8/../AVR8/../AVR8/Endpoint_AVR8.h **** 			 *                        to the USB host, or after they have been received from the USB host (d
 175:./tmk_core/protocol/lufa/LUFA-git/LUFA/Drivers/USB/Core/AVR8/../AVR8/../AVR8/Endpoint_AVR8.h **** 			 *                        the endpoint's data direction). The bank size must indicate the maximu
 176:./tmk_core/protocol/lufa/LUFA-git/LUFA/Drivers/USB/Core/AVR8/../AVR8/../AVR8/Endpoint_AVR8.h **** 			 *                        that the endpoint can handle.
 177:./tmk_core/protocol/lufa/LUFA-git/LUFA/Drivers/USB/Core/AVR8/../AVR8/../AVR8/Endpoint_AVR8.h **** 			 *
 178:./tmk_core/protocol/lufa/LUFA-git/LUFA/Drivers/USB/Core/AVR8/../AVR8/../AVR8/Endpoint_AVR8.h **** 			 *  \param[in] Banks      Number of banks to use for the endpoint being configured.
 179:./tmk_core/protocol/lufa/LUFA-git/LUFA/Drivers/USB/Core/AVR8/../AVR8/../AVR8/Endpoint_AVR8.h **** 			 *
 180:./tmk_core/protocol/lufa/LUFA-git/LUFA/Drivers/USB/Core/AVR8/../AVR8/../AVR8/Endpoint_AVR8.h **** 			 *  \attention When the \c ORDERED_EP_CONFIG compile time option is used, Endpoints <b>must</b> 
 181:./tmk_core/protocol/lufa/LUFA-git/LUFA/Drivers/USB/Core/AVR8/../AVR8/../AVR8/Endpoint_AVR8.h **** 			 *             ascending order, or bank corruption will occur.
 182:./tmk_core/protocol/lufa/LUFA-git/LUFA/Drivers/USB/Core/AVR8/../AVR8/../AVR8/Endpoint_AVR8.h **** 			 *
 183:./tmk_core/protocol/lufa/LUFA-git/LUFA/Drivers/USB/Core/AVR8/../AVR8/../AVR8/Endpoint_AVR8.h **** 			 *  \note Different endpoints may have different maximum packet sizes based on the endpoint's in
 184:./tmk_core/protocol/lufa/LUFA-git/LUFA/Drivers/USB/Core/AVR8/../AVR8/../AVR8/Endpoint_AVR8.h **** 			 *        refer to the chosen microcontroller model's datasheet to determine the maximum bank si
 185:./tmk_core/protocol/lufa/LUFA-git/LUFA/Drivers/USB/Core/AVR8/../AVR8/../AVR8/Endpoint_AVR8.h **** 			 *        \n\n
 186:./tmk_core/protocol/lufa/LUFA-git/LUFA/Drivers/USB/Core/AVR8/../AVR8/../AVR8/Endpoint_AVR8.h **** 			 *
 187:./tmk_core/protocol/lufa/LUFA-git/LUFA/Drivers/USB/Core/AVR8/../AVR8/../AVR8/Endpoint_AVR8.h **** 			 *  \note The default control endpoint should not be manually configured by the user application
 188:./tmk_core/protocol/lufa/LUFA-git/LUFA/Drivers/USB/Core/AVR8/../AVR8/../AVR8/Endpoint_AVR8.h **** 			 *        it is automatically configured by the library internally.
 189:./tmk_core/protocol/lufa/LUFA-git/LUFA/Drivers/USB/Core/AVR8/../AVR8/../AVR8/Endpoint_AVR8.h **** 			 *        \n\n
 190:./tmk_core/protocol/lufa/LUFA-git/LUFA/Drivers/USB/Core/AVR8/../AVR8/../AVR8/Endpoint_AVR8.h **** 			 *
 191:./tmk_core/protocol/lufa/LUFA-git/LUFA/Drivers/USB/Core/AVR8/../AVR8/../AVR8/Endpoint_AVR8.h **** 			 *  \note This routine will automatically select the specified endpoint upon success. Upon failu
 192:./tmk_core/protocol/lufa/LUFA-git/LUFA/Drivers/USB/Core/AVR8/../AVR8/../AVR8/Endpoint_AVR8.h **** 			 *        which failed to reconfigure correctly will be selected.
 193:./tmk_core/protocol/lufa/LUFA-git/LUFA/Drivers/USB/Core/AVR8/../AVR8/../AVR8/Endpoint_AVR8.h **** 			 *
 194:./tmk_core/protocol/lufa/LUFA-git/LUFA/Drivers/USB/Core/AVR8/../AVR8/../AVR8/Endpoint_AVR8.h **** 			 *  \return Boolean \c true if the configuration succeeded, \c false otherwise.
 195:./tmk_core/protocol/lufa/LUFA-git/LUFA/Drivers/USB/Core/AVR8/../AVR8/../AVR8/Endpoint_AVR8.h **** 			 */
 196:./tmk_core/protocol/lufa/LUFA-git/LUFA/Drivers/USB/Core/AVR8/../AVR8/../AVR8/Endpoint_AVR8.h **** 			static inline bool Endpoint_ConfigureEndpoint(const uint8_t Address,
 197:./tmk_core/protocol/lufa/LUFA-git/LUFA/Drivers/USB/Core/AVR8/../AVR8/../AVR8/Endpoint_AVR8.h **** 			                                              const uint8_t Type,
 198:./tmk_core/protocol/lufa/LUFA-git/LUFA/Drivers/USB/Core/AVR8/../AVR8/../AVR8/Endpoint_AVR8.h **** 			                                              const uint16_t Size,
 199:./tmk_core/protocol/lufa/LUFA-git/LUFA/Drivers/USB/Core/AVR8/../AVR8/../AVR8/Endpoint_AVR8.h **** 			                                              const uint8_t Banks) ATTR_ALWAYS_INLINE;
 200:./tmk_core/protocol/lufa/LUFA-git/LUFA/Drivers/USB/Core/AVR8/../AVR8/../AVR8/Endpoint_AVR8.h **** 			static inline bool Endpoint_ConfigureEndpoint(const uint8_t Address,
 201:./tmk_core/protocol/lufa/LUFA-git/LUFA/Drivers/USB/Core/AVR8/../AVR8/../AVR8/Endpoint_AVR8.h **** 			                                              const uint8_t Type,
 202:./tmk_core/protocol/lufa/LUFA-git/LUFA/Drivers/USB/Core/AVR8/../AVR8/../AVR8/Endpoint_AVR8.h **** 			                                              const uint16_t Size,
 203:./tmk_core/protocol/lufa/LUFA-git/LUFA/Drivers/USB/Core/AVR8/../AVR8/../AVR8/Endpoint_AVR8.h **** 			                                              const uint8_t Banks)
 204:./tmk_core/protocol/lufa/LUFA-git/LUFA/Drivers/USB/Core/AVR8/../AVR8/../AVR8/Endpoint_AVR8.h **** 			{
 205:./tmk_core/protocol/lufa/LUFA-git/LUFA/Drivers/USB/Core/AVR8/../AVR8/../AVR8/Endpoint_AVR8.h **** 				uint8_t Number = (Address & ENDPOINT_EPNUM_MASK);
 206:./tmk_core/protocol/lufa/LUFA-git/LUFA/Drivers/USB/Core/AVR8/../AVR8/../AVR8/Endpoint_AVR8.h **** 
 207:./tmk_core/protocol/lufa/LUFA-git/LUFA/Drivers/USB/Core/AVR8/../AVR8/../AVR8/Endpoint_AVR8.h **** 				if (Number >= ENDPOINT_TOTAL_ENDPOINTS)
 208:./tmk_core/protocol/lufa/LUFA-git/LUFA/Drivers/USB/Core/AVR8/../AVR8/../AVR8/Endpoint_AVR8.h **** 				  return false;
 209:./tmk_core/protocol/lufa/LUFA-git/LUFA/Drivers/USB/Core/AVR8/../AVR8/../AVR8/Endpoint_AVR8.h **** 
 210:./tmk_core/protocol/lufa/LUFA-git/LUFA/Drivers/USB/Core/AVR8/../AVR8/../AVR8/Endpoint_AVR8.h **** 				return Endpoint_ConfigureEndpoint_Prv(Number,
 211:./tmk_core/protocol/lufa/LUFA-git/LUFA/Drivers/USB/Core/AVR8/../AVR8/../AVR8/Endpoint_AVR8.h **** 				                                      ((Type << EPTYPE0) | ((Address & ENDPOINT_DIR_IN) ? (1 <<
 212:./tmk_core/protocol/lufa/LUFA-git/LUFA/Drivers/USB/Core/AVR8/../AVR8/../AVR8/Endpoint_AVR8.h **** 				                                      ((1 << ALLOC) | ((Banks > 1) ? (1 << EPBK0) : 0) | Endpoi
 213:./tmk_core/protocol/lufa/LUFA-git/LUFA/Drivers/USB/Core/AVR8/../AVR8/../AVR8/Endpoint_AVR8.h **** 			}
 214:./tmk_core/protocol/lufa/LUFA-git/LUFA/Drivers/USB/Core/AVR8/../AVR8/../AVR8/Endpoint_AVR8.h **** 
 215:./tmk_core/protocol/lufa/LUFA-git/LUFA/Drivers/USB/Core/AVR8/../AVR8/../AVR8/Endpoint_AVR8.h **** 			/** Indicates the number of bytes currently stored in the current endpoint's selected bank.
 216:./tmk_core/protocol/lufa/LUFA-git/LUFA/Drivers/USB/Core/AVR8/../AVR8/../AVR8/Endpoint_AVR8.h **** 			 *
 217:./tmk_core/protocol/lufa/LUFA-git/LUFA/Drivers/USB/Core/AVR8/../AVR8/../AVR8/Endpoint_AVR8.h **** 			 *  \ingroup Group_EndpointRW_AVR8
 218:./tmk_core/protocol/lufa/LUFA-git/LUFA/Drivers/USB/Core/AVR8/../AVR8/../AVR8/Endpoint_AVR8.h **** 			 *
 219:./tmk_core/protocol/lufa/LUFA-git/LUFA/Drivers/USB/Core/AVR8/../AVR8/../AVR8/Endpoint_AVR8.h **** 			 *  \return Total number of bytes in the currently selected Endpoint's FIFO buffer.
 220:./tmk_core/protocol/lufa/LUFA-git/LUFA/Drivers/USB/Core/AVR8/../AVR8/../AVR8/Endpoint_AVR8.h **** 			 */
 221:./tmk_core/protocol/lufa/LUFA-git/LUFA/Drivers/USB/Core/AVR8/../AVR8/../AVR8/Endpoint_AVR8.h **** 			static inline uint16_t Endpoint_BytesInEndpoint(void) ATTR_WARN_UNUSED_RESULT ATTR_ALWAYS_INLINE
 222:./tmk_core/protocol/lufa/LUFA-git/LUFA/Drivers/USB/Core/AVR8/../AVR8/../AVR8/Endpoint_AVR8.h **** 			static inline uint16_t Endpoint_BytesInEndpoint(void)
 223:./tmk_core/protocol/lufa/LUFA-git/LUFA/Drivers/USB/Core/AVR8/../AVR8/../AVR8/Endpoint_AVR8.h **** 			{
 224:./tmk_core/protocol/lufa/LUFA-git/LUFA/Drivers/USB/Core/AVR8/../AVR8/../AVR8/Endpoint_AVR8.h **** 				#if (defined(USB_SERIES_6_AVR) || defined(USB_SERIES_7_AVR))
 225:./tmk_core/protocol/lufa/LUFA-git/LUFA/Drivers/USB/Core/AVR8/../AVR8/../AVR8/Endpoint_AVR8.h **** 					return UEBCX;
 226:./tmk_core/protocol/lufa/LUFA-git/LUFA/Drivers/USB/Core/AVR8/../AVR8/../AVR8/Endpoint_AVR8.h **** 				#elif defined(USB_SERIES_4_AVR)
 227:./tmk_core/protocol/lufa/LUFA-git/LUFA/Drivers/USB/Core/AVR8/../AVR8/../AVR8/Endpoint_AVR8.h **** 					return (((uint16_t)UEBCHX << 8) | UEBCLX);
 228:./tmk_core/protocol/lufa/LUFA-git/LUFA/Drivers/USB/Core/AVR8/../AVR8/../AVR8/Endpoint_AVR8.h **** 				#elif defined(USB_SERIES_2_AVR)
 229:./tmk_core/protocol/lufa/LUFA-git/LUFA/Drivers/USB/Core/AVR8/../AVR8/../AVR8/Endpoint_AVR8.h **** 					return UEBCLX;
 230:./tmk_core/protocol/lufa/LUFA-git/LUFA/Drivers/USB/Core/AVR8/../AVR8/../AVR8/Endpoint_AVR8.h **** 				#endif
 231:./tmk_core/protocol/lufa/LUFA-git/LUFA/Drivers/USB/Core/AVR8/../AVR8/../AVR8/Endpoint_AVR8.h **** 			}
 232:./tmk_core/protocol/lufa/LUFA-git/LUFA/Drivers/USB/Core/AVR8/../AVR8/../AVR8/Endpoint_AVR8.h **** 
 233:./tmk_core/protocol/lufa/LUFA-git/LUFA/Drivers/USB/Core/AVR8/../AVR8/../AVR8/Endpoint_AVR8.h **** 			/** Determines the currently selected endpoint's direction.
 234:./tmk_core/protocol/lufa/LUFA-git/LUFA/Drivers/USB/Core/AVR8/../AVR8/../AVR8/Endpoint_AVR8.h **** 			 *
 235:./tmk_core/protocol/lufa/LUFA-git/LUFA/Drivers/USB/Core/AVR8/../AVR8/../AVR8/Endpoint_AVR8.h **** 			 *  \return The currently selected endpoint's direction, as a \c ENDPOINT_DIR_* mask.
 236:./tmk_core/protocol/lufa/LUFA-git/LUFA/Drivers/USB/Core/AVR8/../AVR8/../AVR8/Endpoint_AVR8.h **** 			 */
 237:./tmk_core/protocol/lufa/LUFA-git/LUFA/Drivers/USB/Core/AVR8/../AVR8/../AVR8/Endpoint_AVR8.h **** 			static inline uint8_t Endpoint_GetEndpointDirection(void) ATTR_WARN_UNUSED_RESULT ATTR_ALWAYS_IN
 238:./tmk_core/protocol/lufa/LUFA-git/LUFA/Drivers/USB/Core/AVR8/../AVR8/../AVR8/Endpoint_AVR8.h **** 			static inline uint8_t Endpoint_GetEndpointDirection(void)
 239:./tmk_core/protocol/lufa/LUFA-git/LUFA/Drivers/USB/Core/AVR8/../AVR8/../AVR8/Endpoint_AVR8.h **** 			{
 240:./tmk_core/protocol/lufa/LUFA-git/LUFA/Drivers/USB/Core/AVR8/../AVR8/../AVR8/Endpoint_AVR8.h **** 				return (UECFG0X & (1 << EPDIR)) ? ENDPOINT_DIR_IN : ENDPOINT_DIR_OUT;
 241:./tmk_core/protocol/lufa/LUFA-git/LUFA/Drivers/USB/Core/AVR8/../AVR8/../AVR8/Endpoint_AVR8.h **** 			}
 242:./tmk_core/protocol/lufa/LUFA-git/LUFA/Drivers/USB/Core/AVR8/../AVR8/../AVR8/Endpoint_AVR8.h **** 
 243:./tmk_core/protocol/lufa/LUFA-git/LUFA/Drivers/USB/Core/AVR8/../AVR8/../AVR8/Endpoint_AVR8.h **** 			/** Get the endpoint address of the currently selected endpoint. This is typically used to save
 244:./tmk_core/protocol/lufa/LUFA-git/LUFA/Drivers/USB/Core/AVR8/../AVR8/../AVR8/Endpoint_AVR8.h **** 			 *  the currently selected endpoint so that it can be restored after another endpoint has been
 245:./tmk_core/protocol/lufa/LUFA-git/LUFA/Drivers/USB/Core/AVR8/../AVR8/../AVR8/Endpoint_AVR8.h **** 			 *  manipulated.
 246:./tmk_core/protocol/lufa/LUFA-git/LUFA/Drivers/USB/Core/AVR8/../AVR8/../AVR8/Endpoint_AVR8.h **** 			 *
 247:./tmk_core/protocol/lufa/LUFA-git/LUFA/Drivers/USB/Core/AVR8/../AVR8/../AVR8/Endpoint_AVR8.h **** 			 *  \return Index of the currently selected endpoint.
 248:./tmk_core/protocol/lufa/LUFA-git/LUFA/Drivers/USB/Core/AVR8/../AVR8/../AVR8/Endpoint_AVR8.h **** 			 */
 249:./tmk_core/protocol/lufa/LUFA-git/LUFA/Drivers/USB/Core/AVR8/../AVR8/../AVR8/Endpoint_AVR8.h **** 			static inline uint8_t Endpoint_GetCurrentEndpoint(void) ATTR_WARN_UNUSED_RESULT ATTR_ALWAYS_INLI
 250:./tmk_core/protocol/lufa/LUFA-git/LUFA/Drivers/USB/Core/AVR8/../AVR8/../AVR8/Endpoint_AVR8.h **** 			static inline uint8_t Endpoint_GetCurrentEndpoint(void)
 251:./tmk_core/protocol/lufa/LUFA-git/LUFA/Drivers/USB/Core/AVR8/../AVR8/../AVR8/Endpoint_AVR8.h **** 			{
 252:./tmk_core/protocol/lufa/LUFA-git/LUFA/Drivers/USB/Core/AVR8/../AVR8/../AVR8/Endpoint_AVR8.h **** 				#if !defined(CONTROL_ONLY_DEVICE)
 253:./tmk_core/protocol/lufa/LUFA-git/LUFA/Drivers/USB/Core/AVR8/../AVR8/../AVR8/Endpoint_AVR8.h **** 					return ((UENUM & ENDPOINT_EPNUM_MASK) | Endpoint_GetEndpointDirection());
 254:./tmk_core/protocol/lufa/LUFA-git/LUFA/Drivers/USB/Core/AVR8/../AVR8/../AVR8/Endpoint_AVR8.h **** 				#else
 255:./tmk_core/protocol/lufa/LUFA-git/LUFA/Drivers/USB/Core/AVR8/../AVR8/../AVR8/Endpoint_AVR8.h **** 					return ENDPOINT_CONTROLEP;
 256:./tmk_core/protocol/lufa/LUFA-git/LUFA/Drivers/USB/Core/AVR8/../AVR8/../AVR8/Endpoint_AVR8.h **** 				#endif
 257:./tmk_core/protocol/lufa/LUFA-git/LUFA/Drivers/USB/Core/AVR8/../AVR8/../AVR8/Endpoint_AVR8.h **** 			}
 258:./tmk_core/protocol/lufa/LUFA-git/LUFA/Drivers/USB/Core/AVR8/../AVR8/../AVR8/Endpoint_AVR8.h **** 
 259:./tmk_core/protocol/lufa/LUFA-git/LUFA/Drivers/USB/Core/AVR8/../AVR8/../AVR8/Endpoint_AVR8.h **** 			/** Selects the given endpoint address.
 260:./tmk_core/protocol/lufa/LUFA-git/LUFA/Drivers/USB/Core/AVR8/../AVR8/../AVR8/Endpoint_AVR8.h **** 			 *
 261:./tmk_core/protocol/lufa/LUFA-git/LUFA/Drivers/USB/Core/AVR8/../AVR8/../AVR8/Endpoint_AVR8.h **** 			 *  Any endpoint operations which do not require the endpoint address to be indicated will opera
 262:./tmk_core/protocol/lufa/LUFA-git/LUFA/Drivers/USB/Core/AVR8/../AVR8/../AVR8/Endpoint_AVR8.h **** 			 *  the currently selected endpoint.
 263:./tmk_core/protocol/lufa/LUFA-git/LUFA/Drivers/USB/Core/AVR8/../AVR8/../AVR8/Endpoint_AVR8.h **** 			 *
 264:./tmk_core/protocol/lufa/LUFA-git/LUFA/Drivers/USB/Core/AVR8/../AVR8/../AVR8/Endpoint_AVR8.h **** 			 *  \param[in] Address Endpoint address to select.
 265:./tmk_core/protocol/lufa/LUFA-git/LUFA/Drivers/USB/Core/AVR8/../AVR8/../AVR8/Endpoint_AVR8.h **** 			 */
 266:./tmk_core/protocol/lufa/LUFA-git/LUFA/Drivers/USB/Core/AVR8/../AVR8/../AVR8/Endpoint_AVR8.h **** 			static inline void Endpoint_SelectEndpoint(const uint8_t Address) ATTR_ALWAYS_INLINE;
 267:./tmk_core/protocol/lufa/LUFA-git/LUFA/Drivers/USB/Core/AVR8/../AVR8/../AVR8/Endpoint_AVR8.h **** 			static inline void Endpoint_SelectEndpoint(const uint8_t Address)
 268:./tmk_core/protocol/lufa/LUFA-git/LUFA/Drivers/USB/Core/AVR8/../AVR8/../AVR8/Endpoint_AVR8.h **** 			{
 269:./tmk_core/protocol/lufa/LUFA-git/LUFA/Drivers/USB/Core/AVR8/../AVR8/../AVR8/Endpoint_AVR8.h **** 				#if !defined(CONTROL_ONLY_DEVICE)
 270:./tmk_core/protocol/lufa/LUFA-git/LUFA/Drivers/USB/Core/AVR8/../AVR8/../AVR8/Endpoint_AVR8.h **** 					UENUM = (Address & ENDPOINT_EPNUM_MASK);
 271:./tmk_core/protocol/lufa/LUFA-git/LUFA/Drivers/USB/Core/AVR8/../AVR8/../AVR8/Endpoint_AVR8.h **** 				#endif
 272:./tmk_core/protocol/lufa/LUFA-git/LUFA/Drivers/USB/Core/AVR8/../AVR8/../AVR8/Endpoint_AVR8.h **** 			}
 273:./tmk_core/protocol/lufa/LUFA-git/LUFA/Drivers/USB/Core/AVR8/../AVR8/../AVR8/Endpoint_AVR8.h **** 
 274:./tmk_core/protocol/lufa/LUFA-git/LUFA/Drivers/USB/Core/AVR8/../AVR8/../AVR8/Endpoint_AVR8.h **** 			/** Resets the endpoint bank FIFO. This clears all the endpoint banks and resets the USB control
 275:./tmk_core/protocol/lufa/LUFA-git/LUFA/Drivers/USB/Core/AVR8/../AVR8/../AVR8/Endpoint_AVR8.h **** 			 *  data In and Out pointers to the bank's contents.
 276:./tmk_core/protocol/lufa/LUFA-git/LUFA/Drivers/USB/Core/AVR8/../AVR8/../AVR8/Endpoint_AVR8.h **** 			 *
 277:./tmk_core/protocol/lufa/LUFA-git/LUFA/Drivers/USB/Core/AVR8/../AVR8/../AVR8/Endpoint_AVR8.h **** 			 *  \param[in] Address  Endpoint address whose FIFO buffers are to be reset.
 278:./tmk_core/protocol/lufa/LUFA-git/LUFA/Drivers/USB/Core/AVR8/../AVR8/../AVR8/Endpoint_AVR8.h **** 			 */
 279:./tmk_core/protocol/lufa/LUFA-git/LUFA/Drivers/USB/Core/AVR8/../AVR8/../AVR8/Endpoint_AVR8.h **** 			static inline void Endpoint_ResetEndpoint(const uint8_t Address) ATTR_ALWAYS_INLINE;
 280:./tmk_core/protocol/lufa/LUFA-git/LUFA/Drivers/USB/Core/AVR8/../AVR8/../AVR8/Endpoint_AVR8.h **** 			static inline void Endpoint_ResetEndpoint(const uint8_t Address)
 281:./tmk_core/protocol/lufa/LUFA-git/LUFA/Drivers/USB/Core/AVR8/../AVR8/../AVR8/Endpoint_AVR8.h **** 			{
 282:./tmk_core/protocol/lufa/LUFA-git/LUFA/Drivers/USB/Core/AVR8/../AVR8/../AVR8/Endpoint_AVR8.h **** 				UERST = (1 << (Address & ENDPOINT_EPNUM_MASK));
 283:./tmk_core/protocol/lufa/LUFA-git/LUFA/Drivers/USB/Core/AVR8/../AVR8/../AVR8/Endpoint_AVR8.h **** 				UERST = 0;
 284:./tmk_core/protocol/lufa/LUFA-git/LUFA/Drivers/USB/Core/AVR8/../AVR8/../AVR8/Endpoint_AVR8.h **** 			}
 285:./tmk_core/protocol/lufa/LUFA-git/LUFA/Drivers/USB/Core/AVR8/../AVR8/../AVR8/Endpoint_AVR8.h **** 
 286:./tmk_core/protocol/lufa/LUFA-git/LUFA/Drivers/USB/Core/AVR8/../AVR8/../AVR8/Endpoint_AVR8.h **** 			/** Enables the currently selected endpoint so that data can be sent and received through it to
 287:./tmk_core/protocol/lufa/LUFA-git/LUFA/Drivers/USB/Core/AVR8/../AVR8/../AVR8/Endpoint_AVR8.h **** 			 *  and from a host.
 288:./tmk_core/protocol/lufa/LUFA-git/LUFA/Drivers/USB/Core/AVR8/../AVR8/../AVR8/Endpoint_AVR8.h **** 			 *
 289:./tmk_core/protocol/lufa/LUFA-git/LUFA/Drivers/USB/Core/AVR8/../AVR8/../AVR8/Endpoint_AVR8.h **** 			 *  \note Endpoints must first be configured properly via \ref Endpoint_ConfigureEndpoint().
 290:./tmk_core/protocol/lufa/LUFA-git/LUFA/Drivers/USB/Core/AVR8/../AVR8/../AVR8/Endpoint_AVR8.h **** 			 */
 291:./tmk_core/protocol/lufa/LUFA-git/LUFA/Drivers/USB/Core/AVR8/../AVR8/../AVR8/Endpoint_AVR8.h **** 			static inline void Endpoint_EnableEndpoint(void) ATTR_ALWAYS_INLINE;
 292:./tmk_core/protocol/lufa/LUFA-git/LUFA/Drivers/USB/Core/AVR8/../AVR8/../AVR8/Endpoint_AVR8.h **** 			static inline void Endpoint_EnableEndpoint(void)
 293:./tmk_core/protocol/lufa/LUFA-git/LUFA/Drivers/USB/Core/AVR8/../AVR8/../AVR8/Endpoint_AVR8.h **** 			{
 294:./tmk_core/protocol/lufa/LUFA-git/LUFA/Drivers/USB/Core/AVR8/../AVR8/../AVR8/Endpoint_AVR8.h **** 				UECONX |= (1 << EPEN);
 295:./tmk_core/protocol/lufa/LUFA-git/LUFA/Drivers/USB/Core/AVR8/../AVR8/../AVR8/Endpoint_AVR8.h **** 			}
 296:./tmk_core/protocol/lufa/LUFA-git/LUFA/Drivers/USB/Core/AVR8/../AVR8/../AVR8/Endpoint_AVR8.h **** 
 297:./tmk_core/protocol/lufa/LUFA-git/LUFA/Drivers/USB/Core/AVR8/../AVR8/../AVR8/Endpoint_AVR8.h **** 			/** Disables the currently selected endpoint so that data cannot be sent and received through it
 298:./tmk_core/protocol/lufa/LUFA-git/LUFA/Drivers/USB/Core/AVR8/../AVR8/../AVR8/Endpoint_AVR8.h **** 			 *  to and from a host.
 299:./tmk_core/protocol/lufa/LUFA-git/LUFA/Drivers/USB/Core/AVR8/../AVR8/../AVR8/Endpoint_AVR8.h **** 			 */
 300:./tmk_core/protocol/lufa/LUFA-git/LUFA/Drivers/USB/Core/AVR8/../AVR8/../AVR8/Endpoint_AVR8.h **** 			static inline void Endpoint_DisableEndpoint(void) ATTR_ALWAYS_INLINE;
 301:./tmk_core/protocol/lufa/LUFA-git/LUFA/Drivers/USB/Core/AVR8/../AVR8/../AVR8/Endpoint_AVR8.h **** 			static inline void Endpoint_DisableEndpoint(void)
 302:./tmk_core/protocol/lufa/LUFA-git/LUFA/Drivers/USB/Core/AVR8/../AVR8/../AVR8/Endpoint_AVR8.h **** 			{
 303:./tmk_core/protocol/lufa/LUFA-git/LUFA/Drivers/USB/Core/AVR8/../AVR8/../AVR8/Endpoint_AVR8.h **** 				UECONX &= ~(1 << EPEN);
 304:./tmk_core/protocol/lufa/LUFA-git/LUFA/Drivers/USB/Core/AVR8/../AVR8/../AVR8/Endpoint_AVR8.h **** 			}
 305:./tmk_core/protocol/lufa/LUFA-git/LUFA/Drivers/USB/Core/AVR8/../AVR8/../AVR8/Endpoint_AVR8.h **** 
 306:./tmk_core/protocol/lufa/LUFA-git/LUFA/Drivers/USB/Core/AVR8/../AVR8/../AVR8/Endpoint_AVR8.h **** 			/** Determines if the currently selected endpoint is enabled, but not necessarily configured.
 307:./tmk_core/protocol/lufa/LUFA-git/LUFA/Drivers/USB/Core/AVR8/../AVR8/../AVR8/Endpoint_AVR8.h **** 			 *
 308:./tmk_core/protocol/lufa/LUFA-git/LUFA/Drivers/USB/Core/AVR8/../AVR8/../AVR8/Endpoint_AVR8.h **** 			 * \return Boolean \c true if the currently selected endpoint is enabled, \c false otherwise.
 309:./tmk_core/protocol/lufa/LUFA-git/LUFA/Drivers/USB/Core/AVR8/../AVR8/../AVR8/Endpoint_AVR8.h **** 			 */
 310:./tmk_core/protocol/lufa/LUFA-git/LUFA/Drivers/USB/Core/AVR8/../AVR8/../AVR8/Endpoint_AVR8.h **** 			static inline bool Endpoint_IsEnabled(void) ATTR_WARN_UNUSED_RESULT ATTR_ALWAYS_INLINE;
 311:./tmk_core/protocol/lufa/LUFA-git/LUFA/Drivers/USB/Core/AVR8/../AVR8/../AVR8/Endpoint_AVR8.h **** 			static inline bool Endpoint_IsEnabled(void)
 312:./tmk_core/protocol/lufa/LUFA-git/LUFA/Drivers/USB/Core/AVR8/../AVR8/../AVR8/Endpoint_AVR8.h **** 			{
 313:./tmk_core/protocol/lufa/LUFA-git/LUFA/Drivers/USB/Core/AVR8/../AVR8/../AVR8/Endpoint_AVR8.h **** 				return ((UECONX & (1 << EPEN)) ? true : false);
 314:./tmk_core/protocol/lufa/LUFA-git/LUFA/Drivers/USB/Core/AVR8/../AVR8/../AVR8/Endpoint_AVR8.h **** 			}
 315:./tmk_core/protocol/lufa/LUFA-git/LUFA/Drivers/USB/Core/AVR8/../AVR8/../AVR8/Endpoint_AVR8.h **** 
 316:./tmk_core/protocol/lufa/LUFA-git/LUFA/Drivers/USB/Core/AVR8/../AVR8/../AVR8/Endpoint_AVR8.h **** 			/** Retrieves the number of busy banks in the currently selected endpoint, which have been queue
 317:./tmk_core/protocol/lufa/LUFA-git/LUFA/Drivers/USB/Core/AVR8/../AVR8/../AVR8/Endpoint_AVR8.h **** 			 *  transmission via the \ref Endpoint_ClearIN() command, or are awaiting acknowledgment via the
 318:./tmk_core/protocol/lufa/LUFA-git/LUFA/Drivers/USB/Core/AVR8/../AVR8/../AVR8/Endpoint_AVR8.h **** 			 *  \ref Endpoint_ClearOUT() command.
 319:./tmk_core/protocol/lufa/LUFA-git/LUFA/Drivers/USB/Core/AVR8/../AVR8/../AVR8/Endpoint_AVR8.h **** 			 *
 320:./tmk_core/protocol/lufa/LUFA-git/LUFA/Drivers/USB/Core/AVR8/../AVR8/../AVR8/Endpoint_AVR8.h **** 			 *  \ingroup Group_EndpointPacketManagement_AVR8
 321:./tmk_core/protocol/lufa/LUFA-git/LUFA/Drivers/USB/Core/AVR8/../AVR8/../AVR8/Endpoint_AVR8.h **** 			 *
 322:./tmk_core/protocol/lufa/LUFA-git/LUFA/Drivers/USB/Core/AVR8/../AVR8/../AVR8/Endpoint_AVR8.h **** 			 *  \return Total number of busy banks in the selected endpoint.
 323:./tmk_core/protocol/lufa/LUFA-git/LUFA/Drivers/USB/Core/AVR8/../AVR8/../AVR8/Endpoint_AVR8.h **** 			 */
 324:./tmk_core/protocol/lufa/LUFA-git/LUFA/Drivers/USB/Core/AVR8/../AVR8/../AVR8/Endpoint_AVR8.h **** 			static inline uint8_t Endpoint_GetBusyBanks(void) ATTR_ALWAYS_INLINE ATTR_WARN_UNUSED_RESULT;
 325:./tmk_core/protocol/lufa/LUFA-git/LUFA/Drivers/USB/Core/AVR8/../AVR8/../AVR8/Endpoint_AVR8.h **** 			static inline uint8_t Endpoint_GetBusyBanks(void)
 326:./tmk_core/protocol/lufa/LUFA-git/LUFA/Drivers/USB/Core/AVR8/../AVR8/../AVR8/Endpoint_AVR8.h **** 			{
 327:./tmk_core/protocol/lufa/LUFA-git/LUFA/Drivers/USB/Core/AVR8/../AVR8/../AVR8/Endpoint_AVR8.h **** 				return (UESTA0X & (0x03 << NBUSYBK0));
 328:./tmk_core/protocol/lufa/LUFA-git/LUFA/Drivers/USB/Core/AVR8/../AVR8/../AVR8/Endpoint_AVR8.h **** 			}
 329:./tmk_core/protocol/lufa/LUFA-git/LUFA/Drivers/USB/Core/AVR8/../AVR8/../AVR8/Endpoint_AVR8.h **** 
 330:./tmk_core/protocol/lufa/LUFA-git/LUFA/Drivers/USB/Core/AVR8/../AVR8/../AVR8/Endpoint_AVR8.h **** 			/** Aborts all pending IN transactions on the currently selected endpoint, once the bank
 331:./tmk_core/protocol/lufa/LUFA-git/LUFA/Drivers/USB/Core/AVR8/../AVR8/../AVR8/Endpoint_AVR8.h **** 			 *  has been queued for transmission to the host via \ref Endpoint_ClearIN(). This function
 332:./tmk_core/protocol/lufa/LUFA-git/LUFA/Drivers/USB/Core/AVR8/../AVR8/../AVR8/Endpoint_AVR8.h **** 			 *  will terminate all queued transactions, resetting the endpoint banks ready for a new
 333:./tmk_core/protocol/lufa/LUFA-git/LUFA/Drivers/USB/Core/AVR8/../AVR8/../AVR8/Endpoint_AVR8.h **** 			 *  packet.
 334:./tmk_core/protocol/lufa/LUFA-git/LUFA/Drivers/USB/Core/AVR8/../AVR8/../AVR8/Endpoint_AVR8.h **** 			 *
 335:./tmk_core/protocol/lufa/LUFA-git/LUFA/Drivers/USB/Core/AVR8/../AVR8/../AVR8/Endpoint_AVR8.h **** 			 *  \ingroup Group_EndpointPacketManagement_AVR8
 336:./tmk_core/protocol/lufa/LUFA-git/LUFA/Drivers/USB/Core/AVR8/../AVR8/../AVR8/Endpoint_AVR8.h **** 			 */
 337:./tmk_core/protocol/lufa/LUFA-git/LUFA/Drivers/USB/Core/AVR8/../AVR8/../AVR8/Endpoint_AVR8.h **** 			static inline void Endpoint_AbortPendingIN(void)
 338:./tmk_core/protocol/lufa/LUFA-git/LUFA/Drivers/USB/Core/AVR8/../AVR8/../AVR8/Endpoint_AVR8.h **** 			{
 339:./tmk_core/protocol/lufa/LUFA-git/LUFA/Drivers/USB/Core/AVR8/../AVR8/../AVR8/Endpoint_AVR8.h **** 				while (Endpoint_GetBusyBanks() != 0)
 340:./tmk_core/protocol/lufa/LUFA-git/LUFA/Drivers/USB/Core/AVR8/../AVR8/../AVR8/Endpoint_AVR8.h **** 				{
 341:./tmk_core/protocol/lufa/LUFA-git/LUFA/Drivers/USB/Core/AVR8/../AVR8/../AVR8/Endpoint_AVR8.h **** 					UEINTX |= (1 << RXOUTI);
 342:./tmk_core/protocol/lufa/LUFA-git/LUFA/Drivers/USB/Core/AVR8/../AVR8/../AVR8/Endpoint_AVR8.h **** 					while (UEINTX & (1 << RXOUTI));
 343:./tmk_core/protocol/lufa/LUFA-git/LUFA/Drivers/USB/Core/AVR8/../AVR8/../AVR8/Endpoint_AVR8.h **** 				}
 344:./tmk_core/protocol/lufa/LUFA-git/LUFA/Drivers/USB/Core/AVR8/../AVR8/../AVR8/Endpoint_AVR8.h **** 			}
 345:./tmk_core/protocol/lufa/LUFA-git/LUFA/Drivers/USB/Core/AVR8/../AVR8/../AVR8/Endpoint_AVR8.h **** 
 346:./tmk_core/protocol/lufa/LUFA-git/LUFA/Drivers/USB/Core/AVR8/../AVR8/../AVR8/Endpoint_AVR8.h **** 			/** Determines if the currently selected endpoint may be read from (if data is waiting in the en
 347:./tmk_core/protocol/lufa/LUFA-git/LUFA/Drivers/USB/Core/AVR8/../AVR8/../AVR8/Endpoint_AVR8.h **** 			 *  bank and the endpoint is an OUT direction, or if the bank is not yet full if the endpoint is
 348:./tmk_core/protocol/lufa/LUFA-git/LUFA/Drivers/USB/Core/AVR8/../AVR8/../AVR8/Endpoint_AVR8.h **** 			 *  direction). This function will return false if an error has occurred in the endpoint, if the
 349:./tmk_core/protocol/lufa/LUFA-git/LUFA/Drivers/USB/Core/AVR8/../AVR8/../AVR8/Endpoint_AVR8.h **** 			 *  is an OUT direction and no packet (or an empty packet) has been received, or if the endpoint
 350:./tmk_core/protocol/lufa/LUFA-git/LUFA/Drivers/USB/Core/AVR8/../AVR8/../AVR8/Endpoint_AVR8.h **** 			 *  direction and the endpoint bank is full.
 351:./tmk_core/protocol/lufa/LUFA-git/LUFA/Drivers/USB/Core/AVR8/../AVR8/../AVR8/Endpoint_AVR8.h **** 			 *
 352:./tmk_core/protocol/lufa/LUFA-git/LUFA/Drivers/USB/Core/AVR8/../AVR8/../AVR8/Endpoint_AVR8.h **** 			 *  \ingroup Group_EndpointPacketManagement_AVR8
 353:./tmk_core/protocol/lufa/LUFA-git/LUFA/Drivers/USB/Core/AVR8/../AVR8/../AVR8/Endpoint_AVR8.h **** 			 *
 354:./tmk_core/protocol/lufa/LUFA-git/LUFA/Drivers/USB/Core/AVR8/../AVR8/../AVR8/Endpoint_AVR8.h **** 			 *  \return Boolean \c true if the currently selected endpoint may be read from or written to, d
 355:./tmk_core/protocol/lufa/LUFA-git/LUFA/Drivers/USB/Core/AVR8/../AVR8/../AVR8/Endpoint_AVR8.h **** 			 *          on its direction.
 356:./tmk_core/protocol/lufa/LUFA-git/LUFA/Drivers/USB/Core/AVR8/../AVR8/../AVR8/Endpoint_AVR8.h **** 			 */
 357:./tmk_core/protocol/lufa/LUFA-git/LUFA/Drivers/USB/Core/AVR8/../AVR8/../AVR8/Endpoint_AVR8.h **** 			static inline bool Endpoint_IsReadWriteAllowed(void) ATTR_WARN_UNUSED_RESULT ATTR_ALWAYS_INLINE;
 358:./tmk_core/protocol/lufa/LUFA-git/LUFA/Drivers/USB/Core/AVR8/../AVR8/../AVR8/Endpoint_AVR8.h **** 			static inline bool Endpoint_IsReadWriteAllowed(void)
  96               		.loc 2 358 23 view .LVU15
  97               	.LBB269:
 359:./tmk_core/protocol/lufa/LUFA-git/LUFA/Drivers/USB/Core/AVR8/../AVR8/../AVR8/Endpoint_AVR8.h **** 			{
 360:./tmk_core/protocol/lufa/LUFA-git/LUFA/Drivers/USB/Core/AVR8/../AVR8/../AVR8/Endpoint_AVR8.h **** 				return ((UEINTX & (1 << RWAL)) ? true : false);
  98               		.loc 2 360 5 view .LVU16
  99               		.loc 2 360 14 is_stmt 0 view .LVU17
 100 0034 8091 E800 		lds r24,232
 101               	.LBE269:
 102               	.LBE268:
 103               		.loc 1 56 6 view .LVU18
 104 0038 85FD      		sbrc r24,5
 105 003a 00C0      		rjmp .L5
  57:./tmk_core/protocol/lufa/LUFA-git/LUFA/Drivers/USB/Core/AVR8/EndpointStream_AVR8.c **** 		{
  58:./tmk_core/protocol/lufa/LUFA-git/LUFA/Drivers/USB/Core/AVR8/EndpointStream_AVR8.c **** 			Endpoint_ClearOUT();
 106               		.loc 1 58 4 is_stmt 1 view .LVU19
 107               	.LBB270:
 108               	.LBI270:
 361:./tmk_core/protocol/lufa/LUFA-git/LUFA/Drivers/USB/Core/AVR8/../AVR8/../AVR8/Endpoint_AVR8.h **** 			}
 362:./tmk_core/protocol/lufa/LUFA-git/LUFA/Drivers/USB/Core/AVR8/../AVR8/../AVR8/Endpoint_AVR8.h **** 
 363:./tmk_core/protocol/lufa/LUFA-git/LUFA/Drivers/USB/Core/AVR8/../AVR8/../AVR8/Endpoint_AVR8.h **** 			/** Determines if the currently selected endpoint is configured.
 364:./tmk_core/protocol/lufa/LUFA-git/LUFA/Drivers/USB/Core/AVR8/../AVR8/../AVR8/Endpoint_AVR8.h **** 			 *
 365:./tmk_core/protocol/lufa/LUFA-git/LUFA/Drivers/USB/Core/AVR8/../AVR8/../AVR8/Endpoint_AVR8.h **** 			 *  \return Boolean \c true if the currently selected endpoint has been configured, \c false oth
 366:./tmk_core/protocol/lufa/LUFA-git/LUFA/Drivers/USB/Core/AVR8/../AVR8/../AVR8/Endpoint_AVR8.h **** 			 */
 367:./tmk_core/protocol/lufa/LUFA-git/LUFA/Drivers/USB/Core/AVR8/../AVR8/../AVR8/Endpoint_AVR8.h **** 			static inline bool Endpoint_IsConfigured(void) ATTR_WARN_UNUSED_RESULT ATTR_ALWAYS_INLINE;
 368:./tmk_core/protocol/lufa/LUFA-git/LUFA/Drivers/USB/Core/AVR8/../AVR8/../AVR8/Endpoint_AVR8.h **** 			static inline bool Endpoint_IsConfigured(void)
 369:./tmk_core/protocol/lufa/LUFA-git/LUFA/Drivers/USB/Core/AVR8/../AVR8/../AVR8/Endpoint_AVR8.h **** 			{
 370:./tmk_core/protocol/lufa/LUFA-git/LUFA/Drivers/USB/Core/AVR8/../AVR8/../AVR8/Endpoint_AVR8.h **** 				return ((UESTA0X & (1 << CFGOK)) ? true : false);
 371:./tmk_core/protocol/lufa/LUFA-git/LUFA/Drivers/USB/Core/AVR8/../AVR8/../AVR8/Endpoint_AVR8.h **** 			}
 372:./tmk_core/protocol/lufa/LUFA-git/LUFA/Drivers/USB/Core/AVR8/../AVR8/../AVR8/Endpoint_AVR8.h **** 
 373:./tmk_core/protocol/lufa/LUFA-git/LUFA/Drivers/USB/Core/AVR8/../AVR8/../AVR8/Endpoint_AVR8.h **** 			/** Returns a mask indicating which INTERRUPT type endpoints have interrupted - i.e. their
 374:./tmk_core/protocol/lufa/LUFA-git/LUFA/Drivers/USB/Core/AVR8/../AVR8/../AVR8/Endpoint_AVR8.h **** 			 *  interrupt duration has elapsed. Which endpoints have interrupted can be determined by
 375:./tmk_core/protocol/lufa/LUFA-git/LUFA/Drivers/USB/Core/AVR8/../AVR8/../AVR8/Endpoint_AVR8.h **** 			 *  masking the return value against <tt>(1 << <i>{Endpoint Number}</i>)</tt>.
 376:./tmk_core/protocol/lufa/LUFA-git/LUFA/Drivers/USB/Core/AVR8/../AVR8/../AVR8/Endpoint_AVR8.h **** 			 *
 377:./tmk_core/protocol/lufa/LUFA-git/LUFA/Drivers/USB/Core/AVR8/../AVR8/../AVR8/Endpoint_AVR8.h **** 			 *  \return Mask whose bits indicate which endpoints have interrupted.
 378:./tmk_core/protocol/lufa/LUFA-git/LUFA/Drivers/USB/Core/AVR8/../AVR8/../AVR8/Endpoint_AVR8.h **** 			 */
 379:./tmk_core/protocol/lufa/LUFA-git/LUFA/Drivers/USB/Core/AVR8/../AVR8/../AVR8/Endpoint_AVR8.h **** 			static inline uint8_t Endpoint_GetEndpointInterrupts(void) ATTR_WARN_UNUSED_RESULT ATTR_ALWAYS_I
 380:./tmk_core/protocol/lufa/LUFA-git/LUFA/Drivers/USB/Core/AVR8/../AVR8/../AVR8/Endpoint_AVR8.h **** 			static inline uint8_t Endpoint_GetEndpointInterrupts(void)
 381:./tmk_core/protocol/lufa/LUFA-git/LUFA/Drivers/USB/Core/AVR8/../AVR8/../AVR8/Endpoint_AVR8.h **** 			{
 382:./tmk_core/protocol/lufa/LUFA-git/LUFA/Drivers/USB/Core/AVR8/../AVR8/../AVR8/Endpoint_AVR8.h **** 				return UEINT;
 383:./tmk_core/protocol/lufa/LUFA-git/LUFA/Drivers/USB/Core/AVR8/../AVR8/../AVR8/Endpoint_AVR8.h **** 			}
 384:./tmk_core/protocol/lufa/LUFA-git/LUFA/Drivers/USB/Core/AVR8/../AVR8/../AVR8/Endpoint_AVR8.h **** 
 385:./tmk_core/protocol/lufa/LUFA-git/LUFA/Drivers/USB/Core/AVR8/../AVR8/../AVR8/Endpoint_AVR8.h **** 			/** Determines if the specified endpoint number has interrupted (valid only for INTERRUPT type
 386:./tmk_core/protocol/lufa/LUFA-git/LUFA/Drivers/USB/Core/AVR8/../AVR8/../AVR8/Endpoint_AVR8.h **** 			 *  endpoints).
 387:./tmk_core/protocol/lufa/LUFA-git/LUFA/Drivers/USB/Core/AVR8/../AVR8/../AVR8/Endpoint_AVR8.h **** 			 *
 388:./tmk_core/protocol/lufa/LUFA-git/LUFA/Drivers/USB/Core/AVR8/../AVR8/../AVR8/Endpoint_AVR8.h **** 			 *  \param[in] Address  Address of the endpoint whose interrupt flag should be tested.
 389:./tmk_core/protocol/lufa/LUFA-git/LUFA/Drivers/USB/Core/AVR8/../AVR8/../AVR8/Endpoint_AVR8.h **** 			 *
 390:./tmk_core/protocol/lufa/LUFA-git/LUFA/Drivers/USB/Core/AVR8/../AVR8/../AVR8/Endpoint_AVR8.h **** 			 *  \return Boolean \c true if the specified endpoint has interrupted, \c false otherwise.
 391:./tmk_core/protocol/lufa/LUFA-git/LUFA/Drivers/USB/Core/AVR8/../AVR8/../AVR8/Endpoint_AVR8.h **** 			 */
 392:./tmk_core/protocol/lufa/LUFA-git/LUFA/Drivers/USB/Core/AVR8/../AVR8/../AVR8/Endpoint_AVR8.h **** 			static inline bool Endpoint_HasEndpointInterrupted(const uint8_t Address) ATTR_WARN_UNUSED_RESUL
 393:./tmk_core/protocol/lufa/LUFA-git/LUFA/Drivers/USB/Core/AVR8/../AVR8/../AVR8/Endpoint_AVR8.h **** 			static inline bool Endpoint_HasEndpointInterrupted(const uint8_t Address)
 394:./tmk_core/protocol/lufa/LUFA-git/LUFA/Drivers/USB/Core/AVR8/../AVR8/../AVR8/Endpoint_AVR8.h **** 			{
 395:./tmk_core/protocol/lufa/LUFA-git/LUFA/Drivers/USB/Core/AVR8/../AVR8/../AVR8/Endpoint_AVR8.h **** 				return ((Endpoint_GetEndpointInterrupts() & (1 << (Address & ENDPOINT_EPNUM_MASK))) ? true : fa
 396:./tmk_core/protocol/lufa/LUFA-git/LUFA/Drivers/USB/Core/AVR8/../AVR8/../AVR8/Endpoint_AVR8.h **** 			}
 397:./tmk_core/protocol/lufa/LUFA-git/LUFA/Drivers/USB/Core/AVR8/../AVR8/../AVR8/Endpoint_AVR8.h **** 
 398:./tmk_core/protocol/lufa/LUFA-git/LUFA/Drivers/USB/Core/AVR8/../AVR8/../AVR8/Endpoint_AVR8.h **** 			/** Determines if the selected IN endpoint is ready for a new packet to be sent to the host.
 399:./tmk_core/protocol/lufa/LUFA-git/LUFA/Drivers/USB/Core/AVR8/../AVR8/../AVR8/Endpoint_AVR8.h **** 			 *
 400:./tmk_core/protocol/lufa/LUFA-git/LUFA/Drivers/USB/Core/AVR8/../AVR8/../AVR8/Endpoint_AVR8.h **** 			 *  \ingroup Group_EndpointPacketManagement_AVR8
 401:./tmk_core/protocol/lufa/LUFA-git/LUFA/Drivers/USB/Core/AVR8/../AVR8/../AVR8/Endpoint_AVR8.h **** 			 *
 402:./tmk_core/protocol/lufa/LUFA-git/LUFA/Drivers/USB/Core/AVR8/../AVR8/../AVR8/Endpoint_AVR8.h **** 			 *  \return Boolean \c true if the current endpoint is ready for an IN packet, \c false otherwis
 403:./tmk_core/protocol/lufa/LUFA-git/LUFA/Drivers/USB/Core/AVR8/../AVR8/../AVR8/Endpoint_AVR8.h **** 			 */
 404:./tmk_core/protocol/lufa/LUFA-git/LUFA/Drivers/USB/Core/AVR8/../AVR8/../AVR8/Endpoint_AVR8.h **** 			static inline bool Endpoint_IsINReady(void) ATTR_WARN_UNUSED_RESULT ATTR_ALWAYS_INLINE;
 405:./tmk_core/protocol/lufa/LUFA-git/LUFA/Drivers/USB/Core/AVR8/../AVR8/../AVR8/Endpoint_AVR8.h **** 			static inline bool Endpoint_IsINReady(void)
 406:./tmk_core/protocol/lufa/LUFA-git/LUFA/Drivers/USB/Core/AVR8/../AVR8/../AVR8/Endpoint_AVR8.h **** 			{
 407:./tmk_core/protocol/lufa/LUFA-git/LUFA/Drivers/USB/Core/AVR8/../AVR8/../AVR8/Endpoint_AVR8.h **** 				return ((UEINTX & (1 << TXINI)) ? true : false);
 408:./tmk_core/protocol/lufa/LUFA-git/LUFA/Drivers/USB/Core/AVR8/../AVR8/../AVR8/Endpoint_AVR8.h **** 			}
 409:./tmk_core/protocol/lufa/LUFA-git/LUFA/Drivers/USB/Core/AVR8/../AVR8/../AVR8/Endpoint_AVR8.h **** 
 410:./tmk_core/protocol/lufa/LUFA-git/LUFA/Drivers/USB/Core/AVR8/../AVR8/../AVR8/Endpoint_AVR8.h **** 			/** Determines if the selected OUT endpoint has received new packet from the host.
 411:./tmk_core/protocol/lufa/LUFA-git/LUFA/Drivers/USB/Core/AVR8/../AVR8/../AVR8/Endpoint_AVR8.h **** 			 *
 412:./tmk_core/protocol/lufa/LUFA-git/LUFA/Drivers/USB/Core/AVR8/../AVR8/../AVR8/Endpoint_AVR8.h **** 			 *  \ingroup Group_EndpointPacketManagement_AVR8
 413:./tmk_core/protocol/lufa/LUFA-git/LUFA/Drivers/USB/Core/AVR8/../AVR8/../AVR8/Endpoint_AVR8.h **** 			 *
 414:./tmk_core/protocol/lufa/LUFA-git/LUFA/Drivers/USB/Core/AVR8/../AVR8/../AVR8/Endpoint_AVR8.h **** 			 *  \return Boolean \c true if current endpoint is has received an OUT packet, \c false otherwis
 415:./tmk_core/protocol/lufa/LUFA-git/LUFA/Drivers/USB/Core/AVR8/../AVR8/../AVR8/Endpoint_AVR8.h **** 			 */
 416:./tmk_core/protocol/lufa/LUFA-git/LUFA/Drivers/USB/Core/AVR8/../AVR8/../AVR8/Endpoint_AVR8.h **** 			static inline bool Endpoint_IsOUTReceived(void) ATTR_WARN_UNUSED_RESULT ATTR_ALWAYS_INLINE;
 417:./tmk_core/protocol/lufa/LUFA-git/LUFA/Drivers/USB/Core/AVR8/../AVR8/../AVR8/Endpoint_AVR8.h **** 			static inline bool Endpoint_IsOUTReceived(void)
 418:./tmk_core/protocol/lufa/LUFA-git/LUFA/Drivers/USB/Core/AVR8/../AVR8/../AVR8/Endpoint_AVR8.h **** 			{
 419:./tmk_core/protocol/lufa/LUFA-git/LUFA/Drivers/USB/Core/AVR8/../AVR8/../AVR8/Endpoint_AVR8.h **** 				return ((UEINTX & (1 << RXOUTI)) ? true : false);
 420:./tmk_core/protocol/lufa/LUFA-git/LUFA/Drivers/USB/Core/AVR8/../AVR8/../AVR8/Endpoint_AVR8.h **** 			}
 421:./tmk_core/protocol/lufa/LUFA-git/LUFA/Drivers/USB/Core/AVR8/../AVR8/../AVR8/Endpoint_AVR8.h **** 
 422:./tmk_core/protocol/lufa/LUFA-git/LUFA/Drivers/USB/Core/AVR8/../AVR8/../AVR8/Endpoint_AVR8.h **** 			/** Determines if the current CONTROL type endpoint has received a SETUP packet.
 423:./tmk_core/protocol/lufa/LUFA-git/LUFA/Drivers/USB/Core/AVR8/../AVR8/../AVR8/Endpoint_AVR8.h **** 			 *
 424:./tmk_core/protocol/lufa/LUFA-git/LUFA/Drivers/USB/Core/AVR8/../AVR8/../AVR8/Endpoint_AVR8.h **** 			 *  \ingroup Group_EndpointPacketManagement_AVR8
 425:./tmk_core/protocol/lufa/LUFA-git/LUFA/Drivers/USB/Core/AVR8/../AVR8/../AVR8/Endpoint_AVR8.h **** 			 *
 426:./tmk_core/protocol/lufa/LUFA-git/LUFA/Drivers/USB/Core/AVR8/../AVR8/../AVR8/Endpoint_AVR8.h **** 			 *  \return Boolean \c true if the selected endpoint has received a SETUP packet, \c false other
 427:./tmk_core/protocol/lufa/LUFA-git/LUFA/Drivers/USB/Core/AVR8/../AVR8/../AVR8/Endpoint_AVR8.h **** 			 */
 428:./tmk_core/protocol/lufa/LUFA-git/LUFA/Drivers/USB/Core/AVR8/../AVR8/../AVR8/Endpoint_AVR8.h **** 			static inline bool Endpoint_IsSETUPReceived(void) ATTR_WARN_UNUSED_RESULT ATTR_ALWAYS_INLINE;
 429:./tmk_core/protocol/lufa/LUFA-git/LUFA/Drivers/USB/Core/AVR8/../AVR8/../AVR8/Endpoint_AVR8.h **** 			static inline bool Endpoint_IsSETUPReceived(void)
 430:./tmk_core/protocol/lufa/LUFA-git/LUFA/Drivers/USB/Core/AVR8/../AVR8/../AVR8/Endpoint_AVR8.h **** 			{
 431:./tmk_core/protocol/lufa/LUFA-git/LUFA/Drivers/USB/Core/AVR8/../AVR8/../AVR8/Endpoint_AVR8.h **** 				return ((UEINTX & (1 << RXSTPI)) ? true : false);
 432:./tmk_core/protocol/lufa/LUFA-git/LUFA/Drivers/USB/Core/AVR8/../AVR8/../AVR8/Endpoint_AVR8.h **** 			}
 433:./tmk_core/protocol/lufa/LUFA-git/LUFA/Drivers/USB/Core/AVR8/../AVR8/../AVR8/Endpoint_AVR8.h **** 
 434:./tmk_core/protocol/lufa/LUFA-git/LUFA/Drivers/USB/Core/AVR8/../AVR8/../AVR8/Endpoint_AVR8.h **** 			/** Clears a received SETUP packet on the currently selected CONTROL type endpoint, freeing up t
 435:./tmk_core/protocol/lufa/LUFA-git/LUFA/Drivers/USB/Core/AVR8/../AVR8/../AVR8/Endpoint_AVR8.h **** 			 *  endpoint for the next packet.
 436:./tmk_core/protocol/lufa/LUFA-git/LUFA/Drivers/USB/Core/AVR8/../AVR8/../AVR8/Endpoint_AVR8.h **** 			 *
 437:./tmk_core/protocol/lufa/LUFA-git/LUFA/Drivers/USB/Core/AVR8/../AVR8/../AVR8/Endpoint_AVR8.h **** 			 *  \ingroup Group_EndpointPacketManagement_AVR8
 438:./tmk_core/protocol/lufa/LUFA-git/LUFA/Drivers/USB/Core/AVR8/../AVR8/../AVR8/Endpoint_AVR8.h **** 			 *
 439:./tmk_core/protocol/lufa/LUFA-git/LUFA/Drivers/USB/Core/AVR8/../AVR8/../AVR8/Endpoint_AVR8.h **** 			 *  \note This is not applicable for non CONTROL type endpoints.
 440:./tmk_core/protocol/lufa/LUFA-git/LUFA/Drivers/USB/Core/AVR8/../AVR8/../AVR8/Endpoint_AVR8.h **** 			 */
 441:./tmk_core/protocol/lufa/LUFA-git/LUFA/Drivers/USB/Core/AVR8/../AVR8/../AVR8/Endpoint_AVR8.h **** 			static inline void Endpoint_ClearSETUP(void) ATTR_ALWAYS_INLINE;
 442:./tmk_core/protocol/lufa/LUFA-git/LUFA/Drivers/USB/Core/AVR8/../AVR8/../AVR8/Endpoint_AVR8.h **** 			static inline void Endpoint_ClearSETUP(void)
 443:./tmk_core/protocol/lufa/LUFA-git/LUFA/Drivers/USB/Core/AVR8/../AVR8/../AVR8/Endpoint_AVR8.h **** 			{
 444:./tmk_core/protocol/lufa/LUFA-git/LUFA/Drivers/USB/Core/AVR8/../AVR8/../AVR8/Endpoint_AVR8.h **** 				UEINTX &= ~(1 << RXSTPI);
 445:./tmk_core/protocol/lufa/LUFA-git/LUFA/Drivers/USB/Core/AVR8/../AVR8/../AVR8/Endpoint_AVR8.h **** 			}
 446:./tmk_core/protocol/lufa/LUFA-git/LUFA/Drivers/USB/Core/AVR8/../AVR8/../AVR8/Endpoint_AVR8.h **** 
 447:./tmk_core/protocol/lufa/LUFA-git/LUFA/Drivers/USB/Core/AVR8/../AVR8/../AVR8/Endpoint_AVR8.h **** 			/** Sends an IN packet to the host on the currently selected endpoint, freeing up the endpoint f
 448:./tmk_core/protocol/lufa/LUFA-git/LUFA/Drivers/USB/Core/AVR8/../AVR8/../AVR8/Endpoint_AVR8.h **** 			 *  next packet and switching to the alternative endpoint bank if double banked.
 449:./tmk_core/protocol/lufa/LUFA-git/LUFA/Drivers/USB/Core/AVR8/../AVR8/../AVR8/Endpoint_AVR8.h **** 			 *
 450:./tmk_core/protocol/lufa/LUFA-git/LUFA/Drivers/USB/Core/AVR8/../AVR8/../AVR8/Endpoint_AVR8.h **** 			 *  \ingroup Group_EndpointPacketManagement_AVR8
 451:./tmk_core/protocol/lufa/LUFA-git/LUFA/Drivers/USB/Core/AVR8/../AVR8/../AVR8/Endpoint_AVR8.h **** 			 */
 452:./tmk_core/protocol/lufa/LUFA-git/LUFA/Drivers/USB/Core/AVR8/../AVR8/../AVR8/Endpoint_AVR8.h **** 			static inline void Endpoint_ClearIN(void) ATTR_ALWAYS_INLINE;
 453:./tmk_core/protocol/lufa/LUFA-git/LUFA/Drivers/USB/Core/AVR8/../AVR8/../AVR8/Endpoint_AVR8.h **** 			static inline void Endpoint_ClearIN(void)
 454:./tmk_core/protocol/lufa/LUFA-git/LUFA/Drivers/USB/Core/AVR8/../AVR8/../AVR8/Endpoint_AVR8.h **** 			{
 455:./tmk_core/protocol/lufa/LUFA-git/LUFA/Drivers/USB/Core/AVR8/../AVR8/../AVR8/Endpoint_AVR8.h **** 				#if !defined(CONTROL_ONLY_DEVICE)
 456:./tmk_core/protocol/lufa/LUFA-git/LUFA/Drivers/USB/Core/AVR8/../AVR8/../AVR8/Endpoint_AVR8.h **** 					UEINTX &= ~((1 << TXINI) | (1 << FIFOCON));
 457:./tmk_core/protocol/lufa/LUFA-git/LUFA/Drivers/USB/Core/AVR8/../AVR8/../AVR8/Endpoint_AVR8.h **** 				#else
 458:./tmk_core/protocol/lufa/LUFA-git/LUFA/Drivers/USB/Core/AVR8/../AVR8/../AVR8/Endpoint_AVR8.h **** 					UEINTX &= ~(1 << TXINI);
 459:./tmk_core/protocol/lufa/LUFA-git/LUFA/Drivers/USB/Core/AVR8/../AVR8/../AVR8/Endpoint_AVR8.h **** 				#endif
 460:./tmk_core/protocol/lufa/LUFA-git/LUFA/Drivers/USB/Core/AVR8/../AVR8/../AVR8/Endpoint_AVR8.h **** 			}
 461:./tmk_core/protocol/lufa/LUFA-git/LUFA/Drivers/USB/Core/AVR8/../AVR8/../AVR8/Endpoint_AVR8.h **** 
 462:./tmk_core/protocol/lufa/LUFA-git/LUFA/Drivers/USB/Core/AVR8/../AVR8/../AVR8/Endpoint_AVR8.h **** 			/** Acknowledges an OUT packet to the host on the currently selected endpoint, freeing up the en
 463:./tmk_core/protocol/lufa/LUFA-git/LUFA/Drivers/USB/Core/AVR8/../AVR8/../AVR8/Endpoint_AVR8.h **** 			 *  for the next packet and switching to the alternative endpoint bank if double banked.
 464:./tmk_core/protocol/lufa/LUFA-git/LUFA/Drivers/USB/Core/AVR8/../AVR8/../AVR8/Endpoint_AVR8.h **** 			 *
 465:./tmk_core/protocol/lufa/LUFA-git/LUFA/Drivers/USB/Core/AVR8/../AVR8/../AVR8/Endpoint_AVR8.h **** 			 *  \ingroup Group_EndpointPacketManagement_AVR8
 466:./tmk_core/protocol/lufa/LUFA-git/LUFA/Drivers/USB/Core/AVR8/../AVR8/../AVR8/Endpoint_AVR8.h **** 			 */
 467:./tmk_core/protocol/lufa/LUFA-git/LUFA/Drivers/USB/Core/AVR8/../AVR8/../AVR8/Endpoint_AVR8.h **** 			static inline void Endpoint_ClearOUT(void) ATTR_ALWAYS_INLINE;
 468:./tmk_core/protocol/lufa/LUFA-git/LUFA/Drivers/USB/Core/AVR8/../AVR8/../AVR8/Endpoint_AVR8.h **** 			static inline void Endpoint_ClearOUT(void)
 109               		.loc 2 468 23 view .LVU20
 110               	.LBB271:
 469:./tmk_core/protocol/lufa/LUFA-git/LUFA/Drivers/USB/Core/AVR8/../AVR8/../AVR8/Endpoint_AVR8.h **** 			{
 470:./tmk_core/protocol/lufa/LUFA-git/LUFA/Drivers/USB/Core/AVR8/../AVR8/../AVR8/Endpoint_AVR8.h **** 				#if !defined(CONTROL_ONLY_DEVICE)
 471:./tmk_core/protocol/lufa/LUFA-git/LUFA/Drivers/USB/Core/AVR8/../AVR8/../AVR8/Endpoint_AVR8.h **** 					UEINTX &= ~((1 << RXOUTI) | (1 << FIFOCON));
 111               		.loc 2 471 6 view .LVU21
 112               		.loc 2 471 13 is_stmt 0 view .LVU22
 113 003c 8091 E800 		lds r24,232
 114 0040 8B77      		andi r24,lo8(123)
 115 0042 8093 E800 		sts 232,r24
 116               	.LBE271:
 117               	.LBE270:
  59:./tmk_core/protocol/lufa/LUFA-git/LUFA/Drivers/USB/Core/AVR8/EndpointStream_AVR8.c **** 
  60:./tmk_core/protocol/lufa/LUFA-git/LUFA/Drivers/USB/Core/AVR8/EndpointStream_AVR8.c **** 			if (BytesProcessed != NULL)
 118               		.loc 1 60 4 is_stmt 1 view .LVU23
 119               		.loc 1 60 7 is_stmt 0 view .LVU24
 120 0046 0115      		cp r16,__zero_reg__
 121 0048 1105      		cpc r17,__zero_reg__
 122 004a 01F0      		breq .L6
  61:./tmk_core/protocol/lufa/LUFA-git/LUFA/Drivers/USB/Core/AVR8/EndpointStream_AVR8.c **** 			{
  62:./tmk_core/protocol/lufa/LUFA-git/LUFA/Drivers/USB/Core/AVR8/EndpointStream_AVR8.c **** 				*BytesProcessed += BytesInTransfer;
 123               		.loc 1 62 5 is_stmt 1 view .LVU25
 124               		.loc 1 62 21 is_stmt 0 view .LVU26
 125 004c F801      		movw r30,r16
 126 004e 8081      		ld r24,Z
 127 0050 9181      		ldd r25,Z+1
 128 0052 8C0D      		add r24,r12
 129 0054 9D1D      		adc r25,r13
 130 0056 9183      		std Z+1,r25
 131 0058 8083      		st Z,r24
  63:./tmk_core/protocol/lufa/LUFA-git/LUFA/Drivers/USB/Core/AVR8/EndpointStream_AVR8.c **** 				return ENDPOINT_RWSTREAM_IncompleteTransfer;
 132               		.loc 1 63 5 is_stmt 1 view .LVU27
 133               		.loc 1 63 12 is_stmt 0 view .LVU28
 134 005a 85E0      		ldi r24,lo8(5)
 135 005c F82E      		mov r15,r24
 136               	.L1:
  64:./tmk_core/protocol/lufa/LUFA-git/LUFA/Drivers/USB/Core/AVR8/EndpointStream_AVR8.c **** 			}
  65:./tmk_core/protocol/lufa/LUFA-git/LUFA/Drivers/USB/Core/AVR8/EndpointStream_AVR8.c **** 
  66:./tmk_core/protocol/lufa/LUFA-git/LUFA/Drivers/USB/Core/AVR8/EndpointStream_AVR8.c **** 			if ((ErrorCode = Endpoint_WaitUntilReady()))
  67:./tmk_core/protocol/lufa/LUFA-git/LUFA/Drivers/USB/Core/AVR8/EndpointStream_AVR8.c **** 			  return ErrorCode;
  68:./tmk_core/protocol/lufa/LUFA-git/LUFA/Drivers/USB/Core/AVR8/EndpointStream_AVR8.c **** 		}
  69:./tmk_core/protocol/lufa/LUFA-git/LUFA/Drivers/USB/Core/AVR8/EndpointStream_AVR8.c **** 		else
  70:./tmk_core/protocol/lufa/LUFA-git/LUFA/Drivers/USB/Core/AVR8/EndpointStream_AVR8.c **** 		{
  71:./tmk_core/protocol/lufa/LUFA-git/LUFA/Drivers/USB/Core/AVR8/EndpointStream_AVR8.c **** 			Endpoint_Discard_8();
  72:./tmk_core/protocol/lufa/LUFA-git/LUFA/Drivers/USB/Core/AVR8/EndpointStream_AVR8.c **** 
  73:./tmk_core/protocol/lufa/LUFA-git/LUFA/Drivers/USB/Core/AVR8/EndpointStream_AVR8.c **** 			Length--;
  74:./tmk_core/protocol/lufa/LUFA-git/LUFA/Drivers/USB/Core/AVR8/EndpointStream_AVR8.c **** 			BytesInTransfer++;
  75:./tmk_core/protocol/lufa/LUFA-git/LUFA/Drivers/USB/Core/AVR8/EndpointStream_AVR8.c **** 		}
  76:./tmk_core/protocol/lufa/LUFA-git/LUFA/Drivers/USB/Core/AVR8/EndpointStream_AVR8.c **** 	}
  77:./tmk_core/protocol/lufa/LUFA-git/LUFA/Drivers/USB/Core/AVR8/EndpointStream_AVR8.c **** 
  78:./tmk_core/protocol/lufa/LUFA-git/LUFA/Drivers/USB/Core/AVR8/EndpointStream_AVR8.c **** 	return ENDPOINT_RWSTREAM_NoError;
  79:./tmk_core/protocol/lufa/LUFA-git/LUFA/Drivers/USB/Core/AVR8/EndpointStream_AVR8.c **** }
 137               		.loc 1 79 1 view .LVU29
 138 005e 8F2D      		mov r24,r15
 139               	/* epilogue start */
 140 0060 DF91      		pop r29
 141 0062 CF91      		pop r28
 142 0064 1F91      		pop r17
 143 0066 0F91      		pop r16
 144               	.LVL7:
 145               		.loc 1 79 1 view .LVU30
 146 0068 FF90      		pop r15
 147 006a DF90      		pop r13
 148 006c CF90      		pop r12
 149 006e 0895      		ret
 150               	.LVL8:
 151               	.L6:
  66:./tmk_core/protocol/lufa/LUFA-git/LUFA/Drivers/USB/Core/AVR8/EndpointStream_AVR8.c **** 			  return ErrorCode;
 152               		.loc 1 66 4 is_stmt 1 view .LVU31
  66:./tmk_core/protocol/lufa/LUFA-git/LUFA/Drivers/USB/Core/AVR8/EndpointStream_AVR8.c **** 			  return ErrorCode;
 153               		.loc 1 66 21 is_stmt 0 view .LVU32
 154 0070 0E94 0000 		call Endpoint_WaitUntilReady
 155               	.LVL9:
  66:./tmk_core/protocol/lufa/LUFA-git/LUFA/Drivers/USB/Core/AVR8/EndpointStream_AVR8.c **** 			  return ErrorCode;
 156               		.loc 1 66 7 view .LVU33
 157 0074 8823      		tst r24
 158 0076 01F0      		breq .L7
  66:./tmk_core/protocol/lufa/LUFA-git/LUFA/Drivers/USB/Core/AVR8/EndpointStream_AVR8.c **** 			  return ErrorCode;
 159               		.loc 1 66 21 view .LVU34
 160 0078 F82E      		mov r15,r24
 161 007a 00C0      		rjmp .L1
 162               	.LVL10:
 163               	.L5:
  71:./tmk_core/protocol/lufa/LUFA-git/LUFA/Drivers/USB/Core/AVR8/EndpointStream_AVR8.c **** 
 164               		.loc 1 71 4 is_stmt 1 view .LVU35
 165               	.LBB272:
 166               	.LBI272:
 472:./tmk_core/protocol/lufa/LUFA-git/LUFA/Drivers/USB/Core/AVR8/../AVR8/../AVR8/Endpoint_AVR8.h **** 				#else
 473:./tmk_core/protocol/lufa/LUFA-git/LUFA/Drivers/USB/Core/AVR8/../AVR8/../AVR8/Endpoint_AVR8.h **** 					UEINTX &= ~(1 << RXOUTI);
 474:./tmk_core/protocol/lufa/LUFA-git/LUFA/Drivers/USB/Core/AVR8/../AVR8/../AVR8/Endpoint_AVR8.h **** 				#endif
 475:./tmk_core/protocol/lufa/LUFA-git/LUFA/Drivers/USB/Core/AVR8/../AVR8/../AVR8/Endpoint_AVR8.h **** 			}
 476:./tmk_core/protocol/lufa/LUFA-git/LUFA/Drivers/USB/Core/AVR8/../AVR8/../AVR8/Endpoint_AVR8.h **** 
 477:./tmk_core/protocol/lufa/LUFA-git/LUFA/Drivers/USB/Core/AVR8/../AVR8/../AVR8/Endpoint_AVR8.h **** 			/** Stalls the current endpoint, indicating to the host that a logical problem occurred with the
 478:./tmk_core/protocol/lufa/LUFA-git/LUFA/Drivers/USB/Core/AVR8/../AVR8/../AVR8/Endpoint_AVR8.h **** 			 *  indicated endpoint and that the current transfer sequence should be aborted. This provides a
 479:./tmk_core/protocol/lufa/LUFA-git/LUFA/Drivers/USB/Core/AVR8/../AVR8/../AVR8/Endpoint_AVR8.h **** 			 *  way for devices to indicate invalid commands to the host so that the current transfer can be
 480:./tmk_core/protocol/lufa/LUFA-git/LUFA/Drivers/USB/Core/AVR8/../AVR8/../AVR8/Endpoint_AVR8.h **** 			 *  aborted and the host can begin its own recovery sequence.
 481:./tmk_core/protocol/lufa/LUFA-git/LUFA/Drivers/USB/Core/AVR8/../AVR8/../AVR8/Endpoint_AVR8.h **** 			 *
 482:./tmk_core/protocol/lufa/LUFA-git/LUFA/Drivers/USB/Core/AVR8/../AVR8/../AVR8/Endpoint_AVR8.h **** 			 *  The currently selected endpoint remains stalled until either the \ref Endpoint_ClearStall() 
 483:./tmk_core/protocol/lufa/LUFA-git/LUFA/Drivers/USB/Core/AVR8/../AVR8/../AVR8/Endpoint_AVR8.h **** 			 *  is called, or the host issues a CLEAR FEATURE request to the device for the currently select
 484:./tmk_core/protocol/lufa/LUFA-git/LUFA/Drivers/USB/Core/AVR8/../AVR8/../AVR8/Endpoint_AVR8.h **** 			 *  endpoint.
 485:./tmk_core/protocol/lufa/LUFA-git/LUFA/Drivers/USB/Core/AVR8/../AVR8/../AVR8/Endpoint_AVR8.h **** 			 *
 486:./tmk_core/protocol/lufa/LUFA-git/LUFA/Drivers/USB/Core/AVR8/../AVR8/../AVR8/Endpoint_AVR8.h **** 			 *  \ingroup Group_EndpointPacketManagement_AVR8
 487:./tmk_core/protocol/lufa/LUFA-git/LUFA/Drivers/USB/Core/AVR8/../AVR8/../AVR8/Endpoint_AVR8.h **** 			 */
 488:./tmk_core/protocol/lufa/LUFA-git/LUFA/Drivers/USB/Core/AVR8/../AVR8/../AVR8/Endpoint_AVR8.h **** 			static inline void Endpoint_StallTransaction(void) ATTR_ALWAYS_INLINE;
 489:./tmk_core/protocol/lufa/LUFA-git/LUFA/Drivers/USB/Core/AVR8/../AVR8/../AVR8/Endpoint_AVR8.h **** 			static inline void Endpoint_StallTransaction(void)
 490:./tmk_core/protocol/lufa/LUFA-git/LUFA/Drivers/USB/Core/AVR8/../AVR8/../AVR8/Endpoint_AVR8.h **** 			{
 491:./tmk_core/protocol/lufa/LUFA-git/LUFA/Drivers/USB/Core/AVR8/../AVR8/../AVR8/Endpoint_AVR8.h **** 				UECONX |= (1 << STALLRQ);
 492:./tmk_core/protocol/lufa/LUFA-git/LUFA/Drivers/USB/Core/AVR8/../AVR8/../AVR8/Endpoint_AVR8.h **** 			}
 493:./tmk_core/protocol/lufa/LUFA-git/LUFA/Drivers/USB/Core/AVR8/../AVR8/../AVR8/Endpoint_AVR8.h **** 
 494:./tmk_core/protocol/lufa/LUFA-git/LUFA/Drivers/USB/Core/AVR8/../AVR8/../AVR8/Endpoint_AVR8.h **** 			/** Clears the STALL condition on the currently selected endpoint.
 495:./tmk_core/protocol/lufa/LUFA-git/LUFA/Drivers/USB/Core/AVR8/../AVR8/../AVR8/Endpoint_AVR8.h **** 			 *
 496:./tmk_core/protocol/lufa/LUFA-git/LUFA/Drivers/USB/Core/AVR8/../AVR8/../AVR8/Endpoint_AVR8.h **** 			 *  \ingroup Group_EndpointPacketManagement_AVR8
 497:./tmk_core/protocol/lufa/LUFA-git/LUFA/Drivers/USB/Core/AVR8/../AVR8/../AVR8/Endpoint_AVR8.h **** 			 */
 498:./tmk_core/protocol/lufa/LUFA-git/LUFA/Drivers/USB/Core/AVR8/../AVR8/../AVR8/Endpoint_AVR8.h **** 			static inline void Endpoint_ClearStall(void) ATTR_ALWAYS_INLINE;
 499:./tmk_core/protocol/lufa/LUFA-git/LUFA/Drivers/USB/Core/AVR8/../AVR8/../AVR8/Endpoint_AVR8.h **** 			static inline void Endpoint_ClearStall(void)
 500:./tmk_core/protocol/lufa/LUFA-git/LUFA/Drivers/USB/Core/AVR8/../AVR8/../AVR8/Endpoint_AVR8.h **** 			{
 501:./tmk_core/protocol/lufa/LUFA-git/LUFA/Drivers/USB/Core/AVR8/../AVR8/../AVR8/Endpoint_AVR8.h **** 				UECONX |= (1 << STALLRQC);
 502:./tmk_core/protocol/lufa/LUFA-git/LUFA/Drivers/USB/Core/AVR8/../AVR8/../AVR8/Endpoint_AVR8.h **** 			}
 503:./tmk_core/protocol/lufa/LUFA-git/LUFA/Drivers/USB/Core/AVR8/../AVR8/../AVR8/Endpoint_AVR8.h **** 
 504:./tmk_core/protocol/lufa/LUFA-git/LUFA/Drivers/USB/Core/AVR8/../AVR8/../AVR8/Endpoint_AVR8.h **** 			/** Determines if the currently selected endpoint is stalled, \c false otherwise.
 505:./tmk_core/protocol/lufa/LUFA-git/LUFA/Drivers/USB/Core/AVR8/../AVR8/../AVR8/Endpoint_AVR8.h **** 			 *
 506:./tmk_core/protocol/lufa/LUFA-git/LUFA/Drivers/USB/Core/AVR8/../AVR8/../AVR8/Endpoint_AVR8.h **** 			 *  \ingroup Group_EndpointPacketManagement_AVR8
 507:./tmk_core/protocol/lufa/LUFA-git/LUFA/Drivers/USB/Core/AVR8/../AVR8/../AVR8/Endpoint_AVR8.h **** 			 *
 508:./tmk_core/protocol/lufa/LUFA-git/LUFA/Drivers/USB/Core/AVR8/../AVR8/../AVR8/Endpoint_AVR8.h **** 			 *  \return Boolean \c true if the currently selected endpoint is stalled, \c false otherwise.
 509:./tmk_core/protocol/lufa/LUFA-git/LUFA/Drivers/USB/Core/AVR8/../AVR8/../AVR8/Endpoint_AVR8.h **** 			 */
 510:./tmk_core/protocol/lufa/LUFA-git/LUFA/Drivers/USB/Core/AVR8/../AVR8/../AVR8/Endpoint_AVR8.h **** 			static inline bool Endpoint_IsStalled(void) ATTR_WARN_UNUSED_RESULT ATTR_ALWAYS_INLINE;
 511:./tmk_core/protocol/lufa/LUFA-git/LUFA/Drivers/USB/Core/AVR8/../AVR8/../AVR8/Endpoint_AVR8.h **** 			static inline bool Endpoint_IsStalled(void)
 512:./tmk_core/protocol/lufa/LUFA-git/LUFA/Drivers/USB/Core/AVR8/../AVR8/../AVR8/Endpoint_AVR8.h **** 			{
 513:./tmk_core/protocol/lufa/LUFA-git/LUFA/Drivers/USB/Core/AVR8/../AVR8/../AVR8/Endpoint_AVR8.h **** 				return ((UECONX & (1 << STALLRQ)) ? true : false);
 514:./tmk_core/protocol/lufa/LUFA-git/LUFA/Drivers/USB/Core/AVR8/../AVR8/../AVR8/Endpoint_AVR8.h **** 			}
 515:./tmk_core/protocol/lufa/LUFA-git/LUFA/Drivers/USB/Core/AVR8/../AVR8/../AVR8/Endpoint_AVR8.h **** 
 516:./tmk_core/protocol/lufa/LUFA-git/LUFA/Drivers/USB/Core/AVR8/../AVR8/../AVR8/Endpoint_AVR8.h **** 			/** Resets the data toggle of the currently selected endpoint. */
 517:./tmk_core/protocol/lufa/LUFA-git/LUFA/Drivers/USB/Core/AVR8/../AVR8/../AVR8/Endpoint_AVR8.h **** 			static inline void Endpoint_ResetDataToggle(void) ATTR_ALWAYS_INLINE;
 518:./tmk_core/protocol/lufa/LUFA-git/LUFA/Drivers/USB/Core/AVR8/../AVR8/../AVR8/Endpoint_AVR8.h **** 			static inline void Endpoint_ResetDataToggle(void)
 519:./tmk_core/protocol/lufa/LUFA-git/LUFA/Drivers/USB/Core/AVR8/../AVR8/../AVR8/Endpoint_AVR8.h **** 			{
 520:./tmk_core/protocol/lufa/LUFA-git/LUFA/Drivers/USB/Core/AVR8/../AVR8/../AVR8/Endpoint_AVR8.h **** 				UECONX |= (1 << RSTDT);
 521:./tmk_core/protocol/lufa/LUFA-git/LUFA/Drivers/USB/Core/AVR8/../AVR8/../AVR8/Endpoint_AVR8.h **** 			}
 522:./tmk_core/protocol/lufa/LUFA-git/LUFA/Drivers/USB/Core/AVR8/../AVR8/../AVR8/Endpoint_AVR8.h **** 
 523:./tmk_core/protocol/lufa/LUFA-git/LUFA/Drivers/USB/Core/AVR8/../AVR8/../AVR8/Endpoint_AVR8.h **** 			/** Sets the direction of the currently selected endpoint.
 524:./tmk_core/protocol/lufa/LUFA-git/LUFA/Drivers/USB/Core/AVR8/../AVR8/../AVR8/Endpoint_AVR8.h **** 			 *
 525:./tmk_core/protocol/lufa/LUFA-git/LUFA/Drivers/USB/Core/AVR8/../AVR8/../AVR8/Endpoint_AVR8.h **** 			 *  \param[in] DirectionMask  New endpoint direction, as a \c ENDPOINT_DIR_* mask.
 526:./tmk_core/protocol/lufa/LUFA-git/LUFA/Drivers/USB/Core/AVR8/../AVR8/../AVR8/Endpoint_AVR8.h **** 			 */
 527:./tmk_core/protocol/lufa/LUFA-git/LUFA/Drivers/USB/Core/AVR8/../AVR8/../AVR8/Endpoint_AVR8.h **** 			static inline void Endpoint_SetEndpointDirection(const uint8_t DirectionMask) ATTR_ALWAYS_INLINE
 528:./tmk_core/protocol/lufa/LUFA-git/LUFA/Drivers/USB/Core/AVR8/../AVR8/../AVR8/Endpoint_AVR8.h **** 			static inline void Endpoint_SetEndpointDirection(const uint8_t DirectionMask)
 529:./tmk_core/protocol/lufa/LUFA-git/LUFA/Drivers/USB/Core/AVR8/../AVR8/../AVR8/Endpoint_AVR8.h **** 			{
 530:./tmk_core/protocol/lufa/LUFA-git/LUFA/Drivers/USB/Core/AVR8/../AVR8/../AVR8/Endpoint_AVR8.h **** 				UECFG0X = ((UECFG0X & ~(1 << EPDIR)) | (DirectionMask ? (1 << EPDIR) : 0));
 531:./tmk_core/protocol/lufa/LUFA-git/LUFA/Drivers/USB/Core/AVR8/../AVR8/../AVR8/Endpoint_AVR8.h **** 			}
 532:./tmk_core/protocol/lufa/LUFA-git/LUFA/Drivers/USB/Core/AVR8/../AVR8/../AVR8/Endpoint_AVR8.h **** 
 533:./tmk_core/protocol/lufa/LUFA-git/LUFA/Drivers/USB/Core/AVR8/../AVR8/../AVR8/Endpoint_AVR8.h **** 			/** Reads one byte from the currently selected endpoint's bank, for OUT direction endpoints.
 534:./tmk_core/protocol/lufa/LUFA-git/LUFA/Drivers/USB/Core/AVR8/../AVR8/../AVR8/Endpoint_AVR8.h **** 			 *
 535:./tmk_core/protocol/lufa/LUFA-git/LUFA/Drivers/USB/Core/AVR8/../AVR8/../AVR8/Endpoint_AVR8.h **** 			 *  \ingroup Group_EndpointPrimitiveRW_AVR8
 536:./tmk_core/protocol/lufa/LUFA-git/LUFA/Drivers/USB/Core/AVR8/../AVR8/../AVR8/Endpoint_AVR8.h **** 			 *
 537:./tmk_core/protocol/lufa/LUFA-git/LUFA/Drivers/USB/Core/AVR8/../AVR8/../AVR8/Endpoint_AVR8.h **** 			 *  \return Next byte in the currently selected endpoint's FIFO buffer.
 538:./tmk_core/protocol/lufa/LUFA-git/LUFA/Drivers/USB/Core/AVR8/../AVR8/../AVR8/Endpoint_AVR8.h **** 			 */
 539:./tmk_core/protocol/lufa/LUFA-git/LUFA/Drivers/USB/Core/AVR8/../AVR8/../AVR8/Endpoint_AVR8.h **** 			static inline uint8_t Endpoint_Read_8(void) ATTR_WARN_UNUSED_RESULT ATTR_ALWAYS_INLINE;
 540:./tmk_core/protocol/lufa/LUFA-git/LUFA/Drivers/USB/Core/AVR8/../AVR8/../AVR8/Endpoint_AVR8.h **** 			static inline uint8_t Endpoint_Read_8(void)
 541:./tmk_core/protocol/lufa/LUFA-git/LUFA/Drivers/USB/Core/AVR8/../AVR8/../AVR8/Endpoint_AVR8.h **** 			{
 542:./tmk_core/protocol/lufa/LUFA-git/LUFA/Drivers/USB/Core/AVR8/../AVR8/../AVR8/Endpoint_AVR8.h **** 				return UEDATX;
 543:./tmk_core/protocol/lufa/LUFA-git/LUFA/Drivers/USB/Core/AVR8/../AVR8/../AVR8/Endpoint_AVR8.h **** 			}
 544:./tmk_core/protocol/lufa/LUFA-git/LUFA/Drivers/USB/Core/AVR8/../AVR8/../AVR8/Endpoint_AVR8.h **** 
 545:./tmk_core/protocol/lufa/LUFA-git/LUFA/Drivers/USB/Core/AVR8/../AVR8/../AVR8/Endpoint_AVR8.h **** 			/** Writes one byte to the currently selected endpoint's bank, for IN direction endpoints.
 546:./tmk_core/protocol/lufa/LUFA-git/LUFA/Drivers/USB/Core/AVR8/../AVR8/../AVR8/Endpoint_AVR8.h **** 			 *
 547:./tmk_core/protocol/lufa/LUFA-git/LUFA/Drivers/USB/Core/AVR8/../AVR8/../AVR8/Endpoint_AVR8.h **** 			 *  \ingroup Group_EndpointPrimitiveRW_AVR8
 548:./tmk_core/protocol/lufa/LUFA-git/LUFA/Drivers/USB/Core/AVR8/../AVR8/../AVR8/Endpoint_AVR8.h **** 			 *
 549:./tmk_core/protocol/lufa/LUFA-git/LUFA/Drivers/USB/Core/AVR8/../AVR8/../AVR8/Endpoint_AVR8.h **** 			 *  \param[in] Data  Data to write into the the currently selected endpoint's FIFO buffer.
 550:./tmk_core/protocol/lufa/LUFA-git/LUFA/Drivers/USB/Core/AVR8/../AVR8/../AVR8/Endpoint_AVR8.h **** 			 */
 551:./tmk_core/protocol/lufa/LUFA-git/LUFA/Drivers/USB/Core/AVR8/../AVR8/../AVR8/Endpoint_AVR8.h **** 			static inline void Endpoint_Write_8(const uint8_t Data) ATTR_ALWAYS_INLINE;
 552:./tmk_core/protocol/lufa/LUFA-git/LUFA/Drivers/USB/Core/AVR8/../AVR8/../AVR8/Endpoint_AVR8.h **** 			static inline void Endpoint_Write_8(const uint8_t Data)
 553:./tmk_core/protocol/lufa/LUFA-git/LUFA/Drivers/USB/Core/AVR8/../AVR8/../AVR8/Endpoint_AVR8.h **** 			{
 554:./tmk_core/protocol/lufa/LUFA-git/LUFA/Drivers/USB/Core/AVR8/../AVR8/../AVR8/Endpoint_AVR8.h **** 				UEDATX = Data;
 555:./tmk_core/protocol/lufa/LUFA-git/LUFA/Drivers/USB/Core/AVR8/../AVR8/../AVR8/Endpoint_AVR8.h **** 			}
 556:./tmk_core/protocol/lufa/LUFA-git/LUFA/Drivers/USB/Core/AVR8/../AVR8/../AVR8/Endpoint_AVR8.h **** 
 557:./tmk_core/protocol/lufa/LUFA-git/LUFA/Drivers/USB/Core/AVR8/../AVR8/../AVR8/Endpoint_AVR8.h **** 			/** Discards one byte from the currently selected endpoint's bank, for OUT direction endpoints.
 558:./tmk_core/protocol/lufa/LUFA-git/LUFA/Drivers/USB/Core/AVR8/../AVR8/../AVR8/Endpoint_AVR8.h **** 			 *
 559:./tmk_core/protocol/lufa/LUFA-git/LUFA/Drivers/USB/Core/AVR8/../AVR8/../AVR8/Endpoint_AVR8.h **** 			 *  \ingroup Group_EndpointPrimitiveRW_AVR8
 560:./tmk_core/protocol/lufa/LUFA-git/LUFA/Drivers/USB/Core/AVR8/../AVR8/../AVR8/Endpoint_AVR8.h **** 			 */
 561:./tmk_core/protocol/lufa/LUFA-git/LUFA/Drivers/USB/Core/AVR8/../AVR8/../AVR8/Endpoint_AVR8.h **** 			static inline void Endpoint_Discard_8(void) ATTR_ALWAYS_INLINE;
 562:./tmk_core/protocol/lufa/LUFA-git/LUFA/Drivers/USB/Core/AVR8/../AVR8/../AVR8/Endpoint_AVR8.h **** 			static inline void Endpoint_Discard_8(void)
 167               		.loc 2 562 23 view .LVU36
 168               	.LBB273:
 563:./tmk_core/protocol/lufa/LUFA-git/LUFA/Drivers/USB/Core/AVR8/../AVR8/../AVR8/Endpoint_AVR8.h **** 			{
 564:./tmk_core/protocol/lufa/LUFA-git/LUFA/Drivers/USB/Core/AVR8/../AVR8/../AVR8/Endpoint_AVR8.h **** 				uint8_t Dummy;
 169               		.loc 2 564 5 view .LVU37
 565:./tmk_core/protocol/lufa/LUFA-git/LUFA/Drivers/USB/Core/AVR8/../AVR8/../AVR8/Endpoint_AVR8.h **** 
 566:./tmk_core/protocol/lufa/LUFA-git/LUFA/Drivers/USB/Core/AVR8/../AVR8/../AVR8/Endpoint_AVR8.h **** 				Dummy = UEDATX;
 170               		.loc 2 566 5 view .LVU38
 171               		.loc 2 566 11 is_stmt 0 view .LVU39
 172 007c 8091 F100 		lds r24,241
 567:./tmk_core/protocol/lufa/LUFA-git/LUFA/Drivers/USB/Core/AVR8/../AVR8/../AVR8/Endpoint_AVR8.h **** 
 568:./tmk_core/protocol/lufa/LUFA-git/LUFA/Drivers/USB/Core/AVR8/../AVR8/../AVR8/Endpoint_AVR8.h **** 				(void)Dummy;
 173               		.loc 2 568 5 is_stmt 1 view .LVU40
 174               	.LBE273:
 175               	.LBE272:
  73:./tmk_core/protocol/lufa/LUFA-git/LUFA/Drivers/USB/Core/AVR8/EndpointStream_AVR8.c **** 			BytesInTransfer++;
 176               		.loc 1 73 4 view .LVU41
  73:./tmk_core/protocol/lufa/LUFA-git/LUFA/Drivers/USB/Core/AVR8/EndpointStream_AVR8.c **** 			BytesInTransfer++;
 177               		.loc 1 73 10 is_stmt 0 view .LVU42
 178 0080 2197      		sbiw r28,1
 179               	.LVL11:
  74:./tmk_core/protocol/lufa/LUFA-git/LUFA/Drivers/USB/Core/AVR8/EndpointStream_AVR8.c **** 		}
 180               		.loc 1 74 4 is_stmt 1 view .LVU43
  74:./tmk_core/protocol/lufa/LUFA-git/LUFA/Drivers/USB/Core/AVR8/EndpointStream_AVR8.c **** 		}
 181               		.loc 1 74 19 is_stmt 0 view .LVU44
 182 0082 FFEF      		ldi r31,-1
 183 0084 CF1A      		sub r12,r31
 184 0086 DF0A      		sbc r13,r31
 185               	.LVL12:
  74:./tmk_core/protocol/lufa/LUFA-git/LUFA/Drivers/USB/Core/AVR8/EndpointStream_AVR8.c **** 		}
 186               		.loc 1 74 19 view .LVU45
 187 0088 00C0      		rjmp .L4
 188               		.cfi_endproc
 189               	.LFE89:
 191               		.section	.text.Endpoint_Null_Stream,"ax",@progbits
 192               	.global	Endpoint_Null_Stream
 194               	Endpoint_Null_Stream:
 195               	.LVL13:
 196               	.LFB90:
  80:./tmk_core/protocol/lufa/LUFA-git/LUFA/Drivers/USB/Core/AVR8/EndpointStream_AVR8.c **** 
  81:./tmk_core/protocol/lufa/LUFA-git/LUFA/Drivers/USB/Core/AVR8/EndpointStream_AVR8.c **** uint8_t Endpoint_Null_Stream(uint16_t Length,
  82:./tmk_core/protocol/lufa/LUFA-git/LUFA/Drivers/USB/Core/AVR8/EndpointStream_AVR8.c ****                              uint16_t* const BytesProcessed)
  83:./tmk_core/protocol/lufa/LUFA-git/LUFA/Drivers/USB/Core/AVR8/EndpointStream_AVR8.c **** {
 197               		.loc 1 83 1 is_stmt 1 view -0
 198               		.cfi_startproc
 199               		.loc 1 83 1 is_stmt 0 view .LVU47
 200 0000 CF92      		push r12
 201               	.LCFI7:
 202               		.cfi_def_cfa_offset 3
 203               		.cfi_offset 12, -2
 204 0002 DF92      		push r13
 205               	.LCFI8:
 206               		.cfi_def_cfa_offset 4
 207               		.cfi_offset 13, -3
 208 0004 FF92      		push r15
 209               	.LCFI9:
 210               		.cfi_def_cfa_offset 5
 211               		.cfi_offset 15, -4
 212 0006 0F93      		push r16
 213               	.LCFI10:
 214               		.cfi_def_cfa_offset 6
 215               		.cfi_offset 16, -5
 216 0008 1F93      		push r17
 217               	.LCFI11:
 218               		.cfi_def_cfa_offset 7
 219               		.cfi_offset 17, -6
 220 000a CF93      		push r28
 221               	.LCFI12:
 222               		.cfi_def_cfa_offset 8
 223               		.cfi_offset 28, -7
 224 000c DF93      		push r29
 225               	.LCFI13:
 226               		.cfi_def_cfa_offset 9
 227               		.cfi_offset 29, -8
 228               	/* prologue: function */
 229               	/* frame size = 0 */
 230               	/* stack size = 7 */
 231               	.L__stack_usage = 7
 232 000e EC01      		movw r28,r24
 233 0010 8B01      		movw r16,r22
  84:./tmk_core/protocol/lufa/LUFA-git/LUFA/Drivers/USB/Core/AVR8/EndpointStream_AVR8.c **** 	uint8_t  ErrorCode;
 234               		.loc 1 84 2 is_stmt 1 view .LVU48
  85:./tmk_core/protocol/lufa/LUFA-git/LUFA/Drivers/USB/Core/AVR8/EndpointStream_AVR8.c **** 	uint16_t BytesInTransfer = 0;
 235               		.loc 1 85 2 view .LVU49
 236               	.LVL14:
  86:./tmk_core/protocol/lufa/LUFA-git/LUFA/Drivers/USB/Core/AVR8/EndpointStream_AVR8.c **** 
  87:./tmk_core/protocol/lufa/LUFA-git/LUFA/Drivers/USB/Core/AVR8/EndpointStream_AVR8.c **** 	if ((ErrorCode = Endpoint_WaitUntilReady()))
 237               		.loc 1 87 2 view .LVU50
 238               		.loc 1 87 19 is_stmt 0 view .LVU51
 239 0012 0E94 0000 		call Endpoint_WaitUntilReady
 240               	.LVL15:
 241               		.loc 1 87 19 view .LVU52
 242 0016 F82E      		mov r15,r24
 243               	.LVL16:
 244               		.loc 1 87 5 view .LVU53
 245 0018 8111      		cpse r24,__zero_reg__
 246 001a 00C0      		rjmp .L13
  88:./tmk_core/protocol/lufa/LUFA-git/LUFA/Drivers/USB/Core/AVR8/EndpointStream_AVR8.c **** 	  return ErrorCode;
  89:./tmk_core/protocol/lufa/LUFA-git/LUFA/Drivers/USB/Core/AVR8/EndpointStream_AVR8.c **** 
  90:./tmk_core/protocol/lufa/LUFA-git/LUFA/Drivers/USB/Core/AVR8/EndpointStream_AVR8.c **** 	if (BytesProcessed != NULL)
 247               		.loc 1 90 2 is_stmt 1 view .LVU54
 248               		.loc 1 90 5 is_stmt 0 view .LVU55
 249 001c 0115      		cp r16,__zero_reg__
 250 001e 1105      		cpc r17,__zero_reg__
 251 0020 01F0      		breq .L15
  91:./tmk_core/protocol/lufa/LUFA-git/LUFA/Drivers/USB/Core/AVR8/EndpointStream_AVR8.c **** 	  Length -= *BytesProcessed;
 252               		.loc 1 91 4 is_stmt 1 view .LVU56
 253               		.loc 1 91 11 is_stmt 0 view .LVU57
 254 0022 F801      		movw r30,r16
 255 0024 8081      		ld r24,Z
 256 0026 9181      		ldd r25,Z+1
 257 0028 C81B      		sub r28,r24
 258 002a D90B      		sbc r29,r25
 259               	.LVL17:
 260               	.L15:
  83:./tmk_core/protocol/lufa/LUFA-git/LUFA/Drivers/USB/Core/AVR8/EndpointStream_AVR8.c **** 	uint8_t  ErrorCode;
 261               		.loc 1 83 1 view .LVU58
 262 002c C12C      		mov r12,__zero_reg__
 263 002e D12C      		mov r13,__zero_reg__
 264               	.LVL18:
 265               	.L16:
  92:./tmk_core/protocol/lufa/LUFA-git/LUFA/Drivers/USB/Core/AVR8/EndpointStream_AVR8.c **** 
  93:./tmk_core/protocol/lufa/LUFA-git/LUFA/Drivers/USB/Core/AVR8/EndpointStream_AVR8.c **** 	while (Length)
 266               		.loc 1 93 9 is_stmt 1 view .LVU59
 267 0030 2097      		sbiw r28,0
 268 0032 01F0      		breq .L13
 269               	.LVL19:
 270               	.L19:
  94:./tmk_core/protocol/lufa/LUFA-git/LUFA/Drivers/USB/Core/AVR8/EndpointStream_AVR8.c **** 	{
  95:./tmk_core/protocol/lufa/LUFA-git/LUFA/Drivers/USB/Core/AVR8/EndpointStream_AVR8.c **** 		if (!(Endpoint_IsReadWriteAllowed()))
 271               		.loc 1 95 3 view .LVU60
 272               	.LBB274:
 273               	.LBI274:
 358:./tmk_core/protocol/lufa/LUFA-git/LUFA/Drivers/USB/Core/AVR8/../AVR8/../AVR8/Endpoint_AVR8.h **** 			{
 274               		.loc 2 358 23 view .LVU61
 275               	.LBB275:
 360:./tmk_core/protocol/lufa/LUFA-git/LUFA/Drivers/USB/Core/AVR8/../AVR8/../AVR8/Endpoint_AVR8.h **** 			}
 276               		.loc 2 360 5 view .LVU62
 360:./tmk_core/protocol/lufa/LUFA-git/LUFA/Drivers/USB/Core/AVR8/../AVR8/../AVR8/Endpoint_AVR8.h **** 			}
 277               		.loc 2 360 14 is_stmt 0 view .LVU63
 278 0034 8091 E800 		lds r24,232
 279               	.LBE275:
 280               	.LBE274:
 281               		.loc 1 95 6 view .LVU64
 282 0038 85FD      		sbrc r24,5
 283 003a 00C0      		rjmp .L17
  96:./tmk_core/protocol/lufa/LUFA-git/LUFA/Drivers/USB/Core/AVR8/EndpointStream_AVR8.c **** 		{
  97:./tmk_core/protocol/lufa/LUFA-git/LUFA/Drivers/USB/Core/AVR8/EndpointStream_AVR8.c **** 			Endpoint_ClearIN();
 284               		.loc 1 97 4 is_stmt 1 view .LVU65
 285               	.LBB276:
 286               	.LBI276:
 453:./tmk_core/protocol/lufa/LUFA-git/LUFA/Drivers/USB/Core/AVR8/../AVR8/../AVR8/Endpoint_AVR8.h **** 			{
 287               		.loc 2 453 23 view .LVU66
 288               	.LBB277:
 456:./tmk_core/protocol/lufa/LUFA-git/LUFA/Drivers/USB/Core/AVR8/../AVR8/../AVR8/Endpoint_AVR8.h **** 				#else
 289               		.loc 2 456 6 view .LVU67
 456:./tmk_core/protocol/lufa/LUFA-git/LUFA/Drivers/USB/Core/AVR8/../AVR8/../AVR8/Endpoint_AVR8.h **** 				#else
 290               		.loc 2 456 13 is_stmt 0 view .LVU68
 291 003c 8091 E800 		lds r24,232
 292 0040 8E77      		andi r24,lo8(126)
 293 0042 8093 E800 		sts 232,r24
 294               	.LBE277:
 295               	.LBE276:
  98:./tmk_core/protocol/lufa/LUFA-git/LUFA/Drivers/USB/Core/AVR8/EndpointStream_AVR8.c **** 
  99:./tmk_core/protocol/lufa/LUFA-git/LUFA/Drivers/USB/Core/AVR8/EndpointStream_AVR8.c **** 			if (BytesProcessed != NULL)
 296               		.loc 1 99 4 is_stmt 1 view .LVU69
 297               		.loc 1 99 7 is_stmt 0 view .LVU70
 298 0046 0115      		cp r16,__zero_reg__
 299 0048 1105      		cpc r17,__zero_reg__
 300 004a 01F0      		breq .L18
 100:./tmk_core/protocol/lufa/LUFA-git/LUFA/Drivers/USB/Core/AVR8/EndpointStream_AVR8.c **** 			{
 101:./tmk_core/protocol/lufa/LUFA-git/LUFA/Drivers/USB/Core/AVR8/EndpointStream_AVR8.c **** 				*BytesProcessed += BytesInTransfer;
 301               		.loc 1 101 5 is_stmt 1 view .LVU71
 302               		.loc 1 101 21 is_stmt 0 view .LVU72
 303 004c F801      		movw r30,r16
 304 004e 8081      		ld r24,Z
 305 0050 9181      		ldd r25,Z+1
 306 0052 8C0D      		add r24,r12
 307 0054 9D1D      		adc r25,r13
 308 0056 9183      		std Z+1,r25
 309 0058 8083      		st Z,r24
 102:./tmk_core/protocol/lufa/LUFA-git/LUFA/Drivers/USB/Core/AVR8/EndpointStream_AVR8.c **** 				return ENDPOINT_RWSTREAM_IncompleteTransfer;
 310               		.loc 1 102 5 is_stmt 1 view .LVU73
 311               		.loc 1 102 12 is_stmt 0 view .LVU74
 312 005a 85E0      		ldi r24,lo8(5)
 313 005c F82E      		mov r15,r24
 314               	.L13:
 103:./tmk_core/protocol/lufa/LUFA-git/LUFA/Drivers/USB/Core/AVR8/EndpointStream_AVR8.c **** 			}
 104:./tmk_core/protocol/lufa/LUFA-git/LUFA/Drivers/USB/Core/AVR8/EndpointStream_AVR8.c **** 
 105:./tmk_core/protocol/lufa/LUFA-git/LUFA/Drivers/USB/Core/AVR8/EndpointStream_AVR8.c **** 			if ((ErrorCode = Endpoint_WaitUntilReady()))
 106:./tmk_core/protocol/lufa/LUFA-git/LUFA/Drivers/USB/Core/AVR8/EndpointStream_AVR8.c **** 			  return ErrorCode;
 107:./tmk_core/protocol/lufa/LUFA-git/LUFA/Drivers/USB/Core/AVR8/EndpointStream_AVR8.c **** 		}
 108:./tmk_core/protocol/lufa/LUFA-git/LUFA/Drivers/USB/Core/AVR8/EndpointStream_AVR8.c **** 		else
 109:./tmk_core/protocol/lufa/LUFA-git/LUFA/Drivers/USB/Core/AVR8/EndpointStream_AVR8.c **** 		{
 110:./tmk_core/protocol/lufa/LUFA-git/LUFA/Drivers/USB/Core/AVR8/EndpointStream_AVR8.c **** 			Endpoint_Write_8(0);
 111:./tmk_core/protocol/lufa/LUFA-git/LUFA/Drivers/USB/Core/AVR8/EndpointStream_AVR8.c **** 
 112:./tmk_core/protocol/lufa/LUFA-git/LUFA/Drivers/USB/Core/AVR8/EndpointStream_AVR8.c **** 			Length--;
 113:./tmk_core/protocol/lufa/LUFA-git/LUFA/Drivers/USB/Core/AVR8/EndpointStream_AVR8.c **** 			BytesInTransfer++;
 114:./tmk_core/protocol/lufa/LUFA-git/LUFA/Drivers/USB/Core/AVR8/EndpointStream_AVR8.c **** 		}
 115:./tmk_core/protocol/lufa/LUFA-git/LUFA/Drivers/USB/Core/AVR8/EndpointStream_AVR8.c **** 	}
 116:./tmk_core/protocol/lufa/LUFA-git/LUFA/Drivers/USB/Core/AVR8/EndpointStream_AVR8.c **** 
 117:./tmk_core/protocol/lufa/LUFA-git/LUFA/Drivers/USB/Core/AVR8/EndpointStream_AVR8.c **** 	return ENDPOINT_RWSTREAM_NoError;
 118:./tmk_core/protocol/lufa/LUFA-git/LUFA/Drivers/USB/Core/AVR8/EndpointStream_AVR8.c **** }
 315               		.loc 1 118 1 view .LVU75
 316 005e 8F2D      		mov r24,r15
 317               	/* epilogue start */
 318 0060 DF91      		pop r29
 319 0062 CF91      		pop r28
 320 0064 1F91      		pop r17
 321 0066 0F91      		pop r16
 322               	.LVL20:
 323               		.loc 1 118 1 view .LVU76
 324 0068 FF90      		pop r15
 325 006a DF90      		pop r13
 326 006c CF90      		pop r12
 327 006e 0895      		ret
 328               	.LVL21:
 329               	.L18:
 105:./tmk_core/protocol/lufa/LUFA-git/LUFA/Drivers/USB/Core/AVR8/EndpointStream_AVR8.c **** 			  return ErrorCode;
 330               		.loc 1 105 4 is_stmt 1 view .LVU77
 105:./tmk_core/protocol/lufa/LUFA-git/LUFA/Drivers/USB/Core/AVR8/EndpointStream_AVR8.c **** 			  return ErrorCode;
 331               		.loc 1 105 21 is_stmt 0 view .LVU78
 332 0070 0E94 0000 		call Endpoint_WaitUntilReady
 333               	.LVL22:
 105:./tmk_core/protocol/lufa/LUFA-git/LUFA/Drivers/USB/Core/AVR8/EndpointStream_AVR8.c **** 			  return ErrorCode;
 334               		.loc 1 105 7 view .LVU79
 335 0074 8823      		tst r24
 336 0076 01F0      		breq .L19
 105:./tmk_core/protocol/lufa/LUFA-git/LUFA/Drivers/USB/Core/AVR8/EndpointStream_AVR8.c **** 			  return ErrorCode;
 337               		.loc 1 105 21 view .LVU80
 338 0078 F82E      		mov r15,r24
 339 007a 00C0      		rjmp .L13
 340               	.LVL23:
 341               	.L17:
 110:./tmk_core/protocol/lufa/LUFA-git/LUFA/Drivers/USB/Core/AVR8/EndpointStream_AVR8.c **** 
 342               		.loc 1 110 4 is_stmt 1 view .LVU81
 343               	.LBB278:
 344               	.LBI278:
 552:./tmk_core/protocol/lufa/LUFA-git/LUFA/Drivers/USB/Core/AVR8/../AVR8/../AVR8/Endpoint_AVR8.h **** 			{
 345               		.loc 2 552 23 view .LVU82
 346               	.LBB279:
 554:./tmk_core/protocol/lufa/LUFA-git/LUFA/Drivers/USB/Core/AVR8/../AVR8/../AVR8/Endpoint_AVR8.h **** 			}
 347               		.loc 2 554 5 view .LVU83
 554:./tmk_core/protocol/lufa/LUFA-git/LUFA/Drivers/USB/Core/AVR8/../AVR8/../AVR8/Endpoint_AVR8.h **** 			}
 348               		.loc 2 554 12 is_stmt 0 view .LVU84
 349 007c 1092 F100 		sts 241,__zero_reg__
 350               	.LVL24:
 554:./tmk_core/protocol/lufa/LUFA-git/LUFA/Drivers/USB/Core/AVR8/../AVR8/../AVR8/Endpoint_AVR8.h **** 			}
 351               		.loc 2 554 12 view .LVU85
 352               	.LBE279:
 353               	.LBE278:
 112:./tmk_core/protocol/lufa/LUFA-git/LUFA/Drivers/USB/Core/AVR8/EndpointStream_AVR8.c **** 			BytesInTransfer++;
 354               		.loc 1 112 4 is_stmt 1 view .LVU86
 112:./tmk_core/protocol/lufa/LUFA-git/LUFA/Drivers/USB/Core/AVR8/EndpointStream_AVR8.c **** 			BytesInTransfer++;
 355               		.loc 1 112 10 is_stmt 0 view .LVU87
 356 0080 2197      		sbiw r28,1
 357               	.LVL25:
 113:./tmk_core/protocol/lufa/LUFA-git/LUFA/Drivers/USB/Core/AVR8/EndpointStream_AVR8.c **** 		}
 358               		.loc 1 113 4 is_stmt 1 view .LVU88
 113:./tmk_core/protocol/lufa/LUFA-git/LUFA/Drivers/USB/Core/AVR8/EndpointStream_AVR8.c **** 		}
 359               		.loc 1 113 19 is_stmt 0 view .LVU89
 360 0082 FFEF      		ldi r31,-1
 361 0084 CF1A      		sub r12,r31
 362 0086 DF0A      		sbc r13,r31
 363               	.LVL26:
 113:./tmk_core/protocol/lufa/LUFA-git/LUFA/Drivers/USB/Core/AVR8/EndpointStream_AVR8.c **** 		}
 364               		.loc 1 113 19 view .LVU90
 365 0088 00C0      		rjmp .L16
 366               		.cfi_endproc
 367               	.LFE90:
 369               		.section	.text.Endpoint_Write_Stream_LE,"ax",@progbits
 370               	.global	Endpoint_Write_Stream_LE
 372               	Endpoint_Write_Stream_LE:
 373               	.LVL27:
 374               	.LFB91:
 375               		.file 3 "./tmk_core/protocol/lufa/LUFA-git/LUFA/Drivers/USB/Core/AVR8/Template/Template_Endpoint_R
   1:./tmk_core/protocol/lufa/LUFA-git/LUFA/Drivers/USB/Core/AVR8/Template/Template_Endpoint_RW.c **** /*
   2:./tmk_core/protocol/lufa/LUFA-git/LUFA/Drivers/USB/Core/AVR8/Template/Template_Endpoint_RW.c ****              LUFA Library
   3:./tmk_core/protocol/lufa/LUFA-git/LUFA/Drivers/USB/Core/AVR8/Template/Template_Endpoint_RW.c ****      Copyright (C) Dean Camera, 2014.
   4:./tmk_core/protocol/lufa/LUFA-git/LUFA/Drivers/USB/Core/AVR8/Template/Template_Endpoint_RW.c **** 
   5:./tmk_core/protocol/lufa/LUFA-git/LUFA/Drivers/USB/Core/AVR8/Template/Template_Endpoint_RW.c ****   dean [at] fourwalledcubicle [dot] com
   6:./tmk_core/protocol/lufa/LUFA-git/LUFA/Drivers/USB/Core/AVR8/Template/Template_Endpoint_RW.c ****            www.lufa-lib.org
   7:./tmk_core/protocol/lufa/LUFA-git/LUFA/Drivers/USB/Core/AVR8/Template/Template_Endpoint_RW.c **** */
   8:./tmk_core/protocol/lufa/LUFA-git/LUFA/Drivers/USB/Core/AVR8/Template/Template_Endpoint_RW.c **** 
   9:./tmk_core/protocol/lufa/LUFA-git/LUFA/Drivers/USB/Core/AVR8/Template/Template_Endpoint_RW.c **** /*
  10:./tmk_core/protocol/lufa/LUFA-git/LUFA/Drivers/USB/Core/AVR8/Template/Template_Endpoint_RW.c ****   Copyright 2014  Dean Camera (dean [at] fourwalledcubicle [dot] com)
  11:./tmk_core/protocol/lufa/LUFA-git/LUFA/Drivers/USB/Core/AVR8/Template/Template_Endpoint_RW.c **** 
  12:./tmk_core/protocol/lufa/LUFA-git/LUFA/Drivers/USB/Core/AVR8/Template/Template_Endpoint_RW.c ****   Permission to use, copy, modify, distribute, and sell this
  13:./tmk_core/protocol/lufa/LUFA-git/LUFA/Drivers/USB/Core/AVR8/Template/Template_Endpoint_RW.c ****   software and its documentation for any purpose is hereby granted
  14:./tmk_core/protocol/lufa/LUFA-git/LUFA/Drivers/USB/Core/AVR8/Template/Template_Endpoint_RW.c ****   without fee, provided that the above copyright notice appear in
  15:./tmk_core/protocol/lufa/LUFA-git/LUFA/Drivers/USB/Core/AVR8/Template/Template_Endpoint_RW.c ****   all copies and that both that the copyright notice and this
  16:./tmk_core/protocol/lufa/LUFA-git/LUFA/Drivers/USB/Core/AVR8/Template/Template_Endpoint_RW.c ****   permission notice and warranty disclaimer appear in supporting
  17:./tmk_core/protocol/lufa/LUFA-git/LUFA/Drivers/USB/Core/AVR8/Template/Template_Endpoint_RW.c ****   documentation, and that the name of the author not be used in
  18:./tmk_core/protocol/lufa/LUFA-git/LUFA/Drivers/USB/Core/AVR8/Template/Template_Endpoint_RW.c ****   advertising or publicity pertaining to distribution of the
  19:./tmk_core/protocol/lufa/LUFA-git/LUFA/Drivers/USB/Core/AVR8/Template/Template_Endpoint_RW.c ****   software without specific, written prior permission.
  20:./tmk_core/protocol/lufa/LUFA-git/LUFA/Drivers/USB/Core/AVR8/Template/Template_Endpoint_RW.c **** 
  21:./tmk_core/protocol/lufa/LUFA-git/LUFA/Drivers/USB/Core/AVR8/Template/Template_Endpoint_RW.c ****   The author disclaims all warranties with regard to this
  22:./tmk_core/protocol/lufa/LUFA-git/LUFA/Drivers/USB/Core/AVR8/Template/Template_Endpoint_RW.c ****   software, including all implied warranties of merchantability
  23:./tmk_core/protocol/lufa/LUFA-git/LUFA/Drivers/USB/Core/AVR8/Template/Template_Endpoint_RW.c ****   and fitness.  In no event shall the author be liable for any
  24:./tmk_core/protocol/lufa/LUFA-git/LUFA/Drivers/USB/Core/AVR8/Template/Template_Endpoint_RW.c ****   special, indirect or consequential damages or any damages
  25:./tmk_core/protocol/lufa/LUFA-git/LUFA/Drivers/USB/Core/AVR8/Template/Template_Endpoint_RW.c ****   whatsoever resulting from loss of use, data or profits, whether
  26:./tmk_core/protocol/lufa/LUFA-git/LUFA/Drivers/USB/Core/AVR8/Template/Template_Endpoint_RW.c ****   in an action of contract, negligence or other tortious action,
  27:./tmk_core/protocol/lufa/LUFA-git/LUFA/Drivers/USB/Core/AVR8/Template/Template_Endpoint_RW.c ****   arising out of or in connection with the use or performance of
  28:./tmk_core/protocol/lufa/LUFA-git/LUFA/Drivers/USB/Core/AVR8/Template/Template_Endpoint_RW.c ****   this software.
  29:./tmk_core/protocol/lufa/LUFA-git/LUFA/Drivers/USB/Core/AVR8/Template/Template_Endpoint_RW.c **** */
  30:./tmk_core/protocol/lufa/LUFA-git/LUFA/Drivers/USB/Core/AVR8/Template/Template_Endpoint_RW.c **** 
  31:./tmk_core/protocol/lufa/LUFA-git/LUFA/Drivers/USB/Core/AVR8/Template/Template_Endpoint_RW.c **** #if defined(TEMPLATE_FUNC_NAME)
  32:./tmk_core/protocol/lufa/LUFA-git/LUFA/Drivers/USB/Core/AVR8/Template/Template_Endpoint_RW.c **** 
  33:./tmk_core/protocol/lufa/LUFA-git/LUFA/Drivers/USB/Core/AVR8/Template/Template_Endpoint_RW.c **** uint8_t TEMPLATE_FUNC_NAME (TEMPLATE_BUFFER_TYPE const Buffer,
  34:./tmk_core/protocol/lufa/LUFA-git/LUFA/Drivers/USB/Core/AVR8/Template/Template_Endpoint_RW.c ****                             uint16_t Length,
  35:./tmk_core/protocol/lufa/LUFA-git/LUFA/Drivers/USB/Core/AVR8/Template/Template_Endpoint_RW.c ****                             uint16_t* const BytesProcessed)
  36:./tmk_core/protocol/lufa/LUFA-git/LUFA/Drivers/USB/Core/AVR8/Template/Template_Endpoint_RW.c **** {
 376               		.loc 3 36 1 is_stmt 1 view -0
 377               		.cfi_startproc
 378               		.loc 3 36 1 is_stmt 0 view .LVU92
 379 0000 AF92      		push r10
 380               	.LCFI14:
 381               		.cfi_def_cfa_offset 3
 382               		.cfi_offset 10, -2
 383 0002 BF92      		push r11
 384               	.LCFI15:
 385               		.cfi_def_cfa_offset 4
 386               		.cfi_offset 11, -3
 387 0004 CF92      		push r12
 388               	.LCFI16:
 389               		.cfi_def_cfa_offset 5
 390               		.cfi_offset 12, -4
 391 0006 DF92      		push r13
 392               	.LCFI17:
 393               		.cfi_def_cfa_offset 6
 394               		.cfi_offset 13, -5
 395 0008 FF92      		push r15
 396               	.LCFI18:
 397               		.cfi_def_cfa_offset 7
 398               		.cfi_offset 15, -6
 399 000a 0F93      		push r16
 400               	.LCFI19:
 401               		.cfi_def_cfa_offset 8
 402               		.cfi_offset 16, -7
 403 000c 1F93      		push r17
 404               	.LCFI20:
 405               		.cfi_def_cfa_offset 9
 406               		.cfi_offset 17, -8
 407 000e CF93      		push r28
 408               	.LCFI21:
 409               		.cfi_def_cfa_offset 10
 410               		.cfi_offset 28, -9
 411 0010 DF93      		push r29
 412               	.LCFI22:
 413               		.cfi_def_cfa_offset 11
 414               		.cfi_offset 29, -10
 415               	/* prologue: function */
 416               	/* frame size = 0 */
 417               	/* stack size = 9 */
 418               	.L__stack_usage = 9
 419 0012 6C01      		movw r12,r24
 420 0014 EB01      		movw r28,r22
 421 0016 8A01      		movw r16,r20
  37:./tmk_core/protocol/lufa/LUFA-git/LUFA/Drivers/USB/Core/AVR8/Template/Template_Endpoint_RW.c **** 	uint8_t* DataStream      = ((uint8_t*)Buffer + TEMPLATE_BUFFER_OFFSET(Length));
 422               		.loc 3 37 2 is_stmt 1 view .LVU93
 423               	.LVL28:
  38:./tmk_core/protocol/lufa/LUFA-git/LUFA/Drivers/USB/Core/AVR8/Template/Template_Endpoint_RW.c **** 	uint16_t BytesInTransfer = 0;
 424               		.loc 3 38 2 view .LVU94
  39:./tmk_core/protocol/lufa/LUFA-git/LUFA/Drivers/USB/Core/AVR8/Template/Template_Endpoint_RW.c **** 	uint8_t  ErrorCode;
 425               		.loc 3 39 2 view .LVU95
  40:./tmk_core/protocol/lufa/LUFA-git/LUFA/Drivers/USB/Core/AVR8/Template/Template_Endpoint_RW.c **** 
  41:./tmk_core/protocol/lufa/LUFA-git/LUFA/Drivers/USB/Core/AVR8/Template/Template_Endpoint_RW.c **** 	if ((ErrorCode = Endpoint_WaitUntilReady()))
 426               		.loc 3 41 2 view .LVU96
 427               		.loc 3 41 19 is_stmt 0 view .LVU97
 428 0018 0E94 0000 		call Endpoint_WaitUntilReady
 429               	.LVL29:
 430               		.loc 3 41 19 view .LVU98
 431 001c F82E      		mov r15,r24
 432               	.LVL30:
 433               		.loc 3 41 5 view .LVU99
 434 001e 8111      		cpse r24,__zero_reg__
 435 0020 00C0      		rjmp .L25
  42:./tmk_core/protocol/lufa/LUFA-git/LUFA/Drivers/USB/Core/AVR8/Template/Template_Endpoint_RW.c **** 	  return ErrorCode;
  43:./tmk_core/protocol/lufa/LUFA-git/LUFA/Drivers/USB/Core/AVR8/Template/Template_Endpoint_RW.c **** 
  44:./tmk_core/protocol/lufa/LUFA-git/LUFA/Drivers/USB/Core/AVR8/Template/Template_Endpoint_RW.c **** 	if (BytesProcessed != NULL)
 436               		.loc 3 44 2 is_stmt 1 view .LVU100
 437               		.loc 3 44 5 is_stmt 0 view .LVU101
 438 0022 0115      		cp r16,__zero_reg__
 439 0024 1105      		cpc r17,__zero_reg__
 440 0026 01F0      		breq .L27
  45:./tmk_core/protocol/lufa/LUFA-git/LUFA/Drivers/USB/Core/AVR8/Template/Template_Endpoint_RW.c **** 	{
  46:./tmk_core/protocol/lufa/LUFA-git/LUFA/Drivers/USB/Core/AVR8/Template/Template_Endpoint_RW.c **** 		Length -= *BytesProcessed;
 441               		.loc 3 46 3 is_stmt 1 view .LVU102
 442               		.loc 3 46 13 is_stmt 0 view .LVU103
 443 0028 F801      		movw r30,r16
 444 002a 8081      		ld r24,Z
 445 002c 9181      		ldd r25,Z+1
 446               		.loc 3 46 10 view .LVU104
 447 002e C81B      		sub r28,r24
 448 0030 D90B      		sbc r29,r25
 449               	.LVL31:
  47:./tmk_core/protocol/lufa/LUFA-git/LUFA/Drivers/USB/Core/AVR8/Template/Template_Endpoint_RW.c **** 		TEMPLATE_BUFFER_MOVE(DataStream, *BytesProcessed);
 450               		.loc 3 47 3 is_stmt 1 view .LVU105
 451 0032 C80E      		add r12,r24
 452 0034 D91E      		adc r13,r25
 453               	.LVL32:
 454               	.L27:
  36:./tmk_core/protocol/lufa/LUFA-git/LUFA/Drivers/USB/Core/AVR8/Template/Template_Endpoint_RW.c **** 	uint8_t* DataStream      = ((uint8_t*)Buffer + TEMPLATE_BUFFER_OFFSET(Length));
 455               		.loc 3 36 1 is_stmt 0 view .LVU106
 456 0036 A12C      		mov r10,__zero_reg__
 457 0038 B12C      		mov r11,__zero_reg__
 458               	.LVL33:
 459               	.L28:
  48:./tmk_core/protocol/lufa/LUFA-git/LUFA/Drivers/USB/Core/AVR8/Template/Template_Endpoint_RW.c **** 	}
  49:./tmk_core/protocol/lufa/LUFA-git/LUFA/Drivers/USB/Core/AVR8/Template/Template_Endpoint_RW.c **** 
  50:./tmk_core/protocol/lufa/LUFA-git/LUFA/Drivers/USB/Core/AVR8/Template/Template_Endpoint_RW.c **** 	while (Length)
 460               		.loc 3 50 9 is_stmt 1 view .LVU107
 461 003a 2097      		sbiw r28,0
 462 003c 01F0      		breq .L25
 463               	.LVL34:
 464               	.L31:
  51:./tmk_core/protocol/lufa/LUFA-git/LUFA/Drivers/USB/Core/AVR8/Template/Template_Endpoint_RW.c **** 	{
  52:./tmk_core/protocol/lufa/LUFA-git/LUFA/Drivers/USB/Core/AVR8/Template/Template_Endpoint_RW.c **** 		if (!(Endpoint_IsReadWriteAllowed()))
 465               		.loc 3 52 3 view .LVU108
 466               	.LBB280:
 467               	.LBI280:
 358:./tmk_core/protocol/lufa/LUFA-git/LUFA/Drivers/USB/Core/AVR8/../AVR8/../AVR8/Endpoint_AVR8.h **** 			{
 468               		.loc 2 358 23 view .LVU109
 469               	.LBB281:
 360:./tmk_core/protocol/lufa/LUFA-git/LUFA/Drivers/USB/Core/AVR8/../AVR8/../AVR8/Endpoint_AVR8.h **** 			}
 470               		.loc 2 360 5 view .LVU110
 360:./tmk_core/protocol/lufa/LUFA-git/LUFA/Drivers/USB/Core/AVR8/../AVR8/../AVR8/Endpoint_AVR8.h **** 			}
 471               		.loc 2 360 14 is_stmt 0 view .LVU111
 472 003e 8091 E800 		lds r24,232
 473               	.LBE281:
 474               	.LBE280:
 475               		.loc 3 52 6 view .LVU112
 476 0042 85FD      		sbrc r24,5
 477 0044 00C0      		rjmp .L29
  53:./tmk_core/protocol/lufa/LUFA-git/LUFA/Drivers/USB/Core/AVR8/Template/Template_Endpoint_RW.c **** 		{
  54:./tmk_core/protocol/lufa/LUFA-git/LUFA/Drivers/USB/Core/AVR8/Template/Template_Endpoint_RW.c **** 			TEMPLATE_CLEAR_ENDPOINT();
 478               		.loc 3 54 4 is_stmt 1 view .LVU113
 479               	.LBB282:
 480               	.LBI282:
 453:./tmk_core/protocol/lufa/LUFA-git/LUFA/Drivers/USB/Core/AVR8/../AVR8/../AVR8/Endpoint_AVR8.h **** 			{
 481               		.loc 2 453 23 view .LVU114
 482               	.LBB283:
 456:./tmk_core/protocol/lufa/LUFA-git/LUFA/Drivers/USB/Core/AVR8/../AVR8/../AVR8/Endpoint_AVR8.h **** 				#else
 483               		.loc 2 456 6 view .LVU115
 456:./tmk_core/protocol/lufa/LUFA-git/LUFA/Drivers/USB/Core/AVR8/../AVR8/../AVR8/Endpoint_AVR8.h **** 				#else
 484               		.loc 2 456 13 is_stmt 0 view .LVU116
 485 0046 8091 E800 		lds r24,232
 486 004a 8E77      		andi r24,lo8(126)
 487 004c 8093 E800 		sts 232,r24
 488               	.LBE283:
 489               	.LBE282:
  55:./tmk_core/protocol/lufa/LUFA-git/LUFA/Drivers/USB/Core/AVR8/Template/Template_Endpoint_RW.c **** 
  56:./tmk_core/protocol/lufa/LUFA-git/LUFA/Drivers/USB/Core/AVR8/Template/Template_Endpoint_RW.c **** 			#if !defined(INTERRUPT_CONTROL_ENDPOINT)
  57:./tmk_core/protocol/lufa/LUFA-git/LUFA/Drivers/USB/Core/AVR8/Template/Template_Endpoint_RW.c **** 			USB_USBTask();
  58:./tmk_core/protocol/lufa/LUFA-git/LUFA/Drivers/USB/Core/AVR8/Template/Template_Endpoint_RW.c **** 			#endif
  59:./tmk_core/protocol/lufa/LUFA-git/LUFA/Drivers/USB/Core/AVR8/Template/Template_Endpoint_RW.c **** 
  60:./tmk_core/protocol/lufa/LUFA-git/LUFA/Drivers/USB/Core/AVR8/Template/Template_Endpoint_RW.c **** 			if (BytesProcessed != NULL)
 490               		.loc 3 60 4 is_stmt 1 view .LVU117
 491               		.loc 3 60 7 is_stmt 0 view .LVU118
 492 0050 0115      		cp r16,__zero_reg__
 493 0052 1105      		cpc r17,__zero_reg__
 494 0054 01F0      		breq .L30
  61:./tmk_core/protocol/lufa/LUFA-git/LUFA/Drivers/USB/Core/AVR8/Template/Template_Endpoint_RW.c **** 			{
  62:./tmk_core/protocol/lufa/LUFA-git/LUFA/Drivers/USB/Core/AVR8/Template/Template_Endpoint_RW.c **** 				*BytesProcessed += BytesInTransfer;
 495               		.loc 3 62 5 is_stmt 1 view .LVU119
 496               		.loc 3 62 21 is_stmt 0 view .LVU120
 497 0056 F801      		movw r30,r16
 498 0058 8081      		ld r24,Z
 499 005a 9181      		ldd r25,Z+1
 500 005c 8A0D      		add r24,r10
 501 005e 9B1D      		adc r25,r11
 502 0060 9183      		std Z+1,r25
 503 0062 8083      		st Z,r24
  63:./tmk_core/protocol/lufa/LUFA-git/LUFA/Drivers/USB/Core/AVR8/Template/Template_Endpoint_RW.c **** 				return ENDPOINT_RWSTREAM_IncompleteTransfer;
 504               		.loc 3 63 5 is_stmt 1 view .LVU121
 505               		.loc 3 63 12 is_stmt 0 view .LVU122
 506 0064 85E0      		ldi r24,lo8(5)
 507 0066 F82E      		mov r15,r24
 508               	.L25:
  64:./tmk_core/protocol/lufa/LUFA-git/LUFA/Drivers/USB/Core/AVR8/Template/Template_Endpoint_RW.c **** 			}
  65:./tmk_core/protocol/lufa/LUFA-git/LUFA/Drivers/USB/Core/AVR8/Template/Template_Endpoint_RW.c **** 
  66:./tmk_core/protocol/lufa/LUFA-git/LUFA/Drivers/USB/Core/AVR8/Template/Template_Endpoint_RW.c **** 			if ((ErrorCode = Endpoint_WaitUntilReady()))
  67:./tmk_core/protocol/lufa/LUFA-git/LUFA/Drivers/USB/Core/AVR8/Template/Template_Endpoint_RW.c **** 			  return ErrorCode;
  68:./tmk_core/protocol/lufa/LUFA-git/LUFA/Drivers/USB/Core/AVR8/Template/Template_Endpoint_RW.c **** 		}
  69:./tmk_core/protocol/lufa/LUFA-git/LUFA/Drivers/USB/Core/AVR8/Template/Template_Endpoint_RW.c **** 		else
  70:./tmk_core/protocol/lufa/LUFA-git/LUFA/Drivers/USB/Core/AVR8/Template/Template_Endpoint_RW.c **** 		{
  71:./tmk_core/protocol/lufa/LUFA-git/LUFA/Drivers/USB/Core/AVR8/Template/Template_Endpoint_RW.c **** 			TEMPLATE_TRANSFER_BYTE(DataStream);
  72:./tmk_core/protocol/lufa/LUFA-git/LUFA/Drivers/USB/Core/AVR8/Template/Template_Endpoint_RW.c **** 			TEMPLATE_BUFFER_MOVE(DataStream, 1);
  73:./tmk_core/protocol/lufa/LUFA-git/LUFA/Drivers/USB/Core/AVR8/Template/Template_Endpoint_RW.c **** 			Length--;
  74:./tmk_core/protocol/lufa/LUFA-git/LUFA/Drivers/USB/Core/AVR8/Template/Template_Endpoint_RW.c **** 			BytesInTransfer++;
  75:./tmk_core/protocol/lufa/LUFA-git/LUFA/Drivers/USB/Core/AVR8/Template/Template_Endpoint_RW.c **** 		}
  76:./tmk_core/protocol/lufa/LUFA-git/LUFA/Drivers/USB/Core/AVR8/Template/Template_Endpoint_RW.c **** 	}
  77:./tmk_core/protocol/lufa/LUFA-git/LUFA/Drivers/USB/Core/AVR8/Template/Template_Endpoint_RW.c **** 
  78:./tmk_core/protocol/lufa/LUFA-git/LUFA/Drivers/USB/Core/AVR8/Template/Template_Endpoint_RW.c **** 	return ENDPOINT_RWSTREAM_NoError;
  79:./tmk_core/protocol/lufa/LUFA-git/LUFA/Drivers/USB/Core/AVR8/Template/Template_Endpoint_RW.c **** }
 509               		.loc 3 79 1 view .LVU123
 510 0068 8F2D      		mov r24,r15
 511               	/* epilogue start */
 512 006a DF91      		pop r29
 513 006c CF91      		pop r28
 514 006e 1F91      		pop r17
 515 0070 0F91      		pop r16
 516               	.LVL35:
 517               		.loc 3 79 1 view .LVU124
 518 0072 FF90      		pop r15
 519 0074 DF90      		pop r13
 520 0076 CF90      		pop r12
 521 0078 BF90      		pop r11
 522 007a AF90      		pop r10
 523 007c 0895      		ret
 524               	.LVL36:
 525               	.L30:
  66:./tmk_core/protocol/lufa/LUFA-git/LUFA/Drivers/USB/Core/AVR8/Template/Template_Endpoint_RW.c **** 			  return ErrorCode;
 526               		.loc 3 66 4 is_stmt 1 view .LVU125
  66:./tmk_core/protocol/lufa/LUFA-git/LUFA/Drivers/USB/Core/AVR8/Template/Template_Endpoint_RW.c **** 			  return ErrorCode;
 527               		.loc 3 66 21 is_stmt 0 view .LVU126
 528 007e 0E94 0000 		call Endpoint_WaitUntilReady
 529               	.LVL37:
  66:./tmk_core/protocol/lufa/LUFA-git/LUFA/Drivers/USB/Core/AVR8/Template/Template_Endpoint_RW.c **** 			  return ErrorCode;
 530               		.loc 3 66 7 view .LVU127
 531 0082 8823      		tst r24
 532 0084 01F0      		breq .L31
  66:./tmk_core/protocol/lufa/LUFA-git/LUFA/Drivers/USB/Core/AVR8/Template/Template_Endpoint_RW.c **** 			  return ErrorCode;
 533               		.loc 3 66 21 view .LVU128
 534 0086 F82E      		mov r15,r24
 535 0088 00C0      		rjmp .L25
 536               	.LVL38:
 537               	.L29:
  71:./tmk_core/protocol/lufa/LUFA-git/LUFA/Drivers/USB/Core/AVR8/Template/Template_Endpoint_RW.c **** 			TEMPLATE_BUFFER_MOVE(DataStream, 1);
 538               		.loc 3 71 4 is_stmt 1 view .LVU129
 539 008a F601      		movw r30,r12
 540 008c 8191      		ld r24,Z+
 541 008e 6F01      		movw r12,r30
 542               	.LVL39:
 543               	.LBB284:
 544               	.LBI284:
 552:./tmk_core/protocol/lufa/LUFA-git/LUFA/Drivers/USB/Core/AVR8/../AVR8/../AVR8/Endpoint_AVR8.h **** 			{
 545               		.loc 2 552 23 view .LVU130
 546               	.LBB285:
 554:./tmk_core/protocol/lufa/LUFA-git/LUFA/Drivers/USB/Core/AVR8/../AVR8/../AVR8/Endpoint_AVR8.h **** 			}
 547               		.loc 2 554 5 view .LVU131
 554:./tmk_core/protocol/lufa/LUFA-git/LUFA/Drivers/USB/Core/AVR8/../AVR8/../AVR8/Endpoint_AVR8.h **** 			}
 548               		.loc 2 554 12 is_stmt 0 view .LVU132
 549 0090 8093 F100 		sts 241,r24
 550               	.LVL40:
 554:./tmk_core/protocol/lufa/LUFA-git/LUFA/Drivers/USB/Core/AVR8/../AVR8/../AVR8/Endpoint_AVR8.h **** 			}
 551               		.loc 2 554 12 view .LVU133
 552               	.LBE285:
 553               	.LBE284:
  72:./tmk_core/protocol/lufa/LUFA-git/LUFA/Drivers/USB/Core/AVR8/Template/Template_Endpoint_RW.c **** 			Length--;
 554               		.loc 3 72 4 is_stmt 1 view .LVU134
  73:./tmk_core/protocol/lufa/LUFA-git/LUFA/Drivers/USB/Core/AVR8/Template/Template_Endpoint_RW.c **** 			BytesInTransfer++;
 555               		.loc 3 73 4 view .LVU135
  73:./tmk_core/protocol/lufa/LUFA-git/LUFA/Drivers/USB/Core/AVR8/Template/Template_Endpoint_RW.c **** 			BytesInTransfer++;
 556               		.loc 3 73 10 is_stmt 0 view .LVU136
 557 0094 2197      		sbiw r28,1
 558               	.LVL41:
  74:./tmk_core/protocol/lufa/LUFA-git/LUFA/Drivers/USB/Core/AVR8/Template/Template_Endpoint_RW.c **** 		}
 559               		.loc 3 74 4 is_stmt 1 view .LVU137
  74:./tmk_core/protocol/lufa/LUFA-git/LUFA/Drivers/USB/Core/AVR8/Template/Template_Endpoint_RW.c **** 		}
 560               		.loc 3 74 19 is_stmt 0 view .LVU138
 561 0096 FFEF      		ldi r31,-1
 562 0098 AF1A      		sub r10,r31
 563 009a BF0A      		sbc r11,r31
 564               	.LVL42:
  74:./tmk_core/protocol/lufa/LUFA-git/LUFA/Drivers/USB/Core/AVR8/Template/Template_Endpoint_RW.c **** 		}
 565               		.loc 3 74 19 view .LVU139
 566 009c 00C0      		rjmp .L28
 567               		.cfi_endproc
 568               	.LFE91:
 570               		.section	.text.Endpoint_Write_Stream_BE,"ax",@progbits
 571               	.global	Endpoint_Write_Stream_BE
 573               	Endpoint_Write_Stream_BE:
 574               	.LVL43:
 575               	.LFB92:
  36:./tmk_core/protocol/lufa/LUFA-git/LUFA/Drivers/USB/Core/AVR8/Template/Template_Endpoint_RW.c **** 	uint8_t* DataStream      = ((uint8_t*)Buffer + TEMPLATE_BUFFER_OFFSET(Length));
 576               		.loc 3 36 1 is_stmt 1 view -0
 577               		.cfi_startproc
  36:./tmk_core/protocol/lufa/LUFA-git/LUFA/Drivers/USB/Core/AVR8/Template/Template_Endpoint_RW.c **** 	uint8_t* DataStream      = ((uint8_t*)Buffer + TEMPLATE_BUFFER_OFFSET(Length));
 578               		.loc 3 36 1 is_stmt 0 view .LVU141
 579 0000 AF92      		push r10
 580               	.LCFI23:
 581               		.cfi_def_cfa_offset 3
 582               		.cfi_offset 10, -2
 583 0002 BF92      		push r11
 584               	.LCFI24:
 585               		.cfi_def_cfa_offset 4
 586               		.cfi_offset 11, -3
 587 0004 DF92      		push r13
 588               	.LCFI25:
 589               		.cfi_def_cfa_offset 5
 590               		.cfi_offset 13, -4
 591 0006 EF92      		push r14
 592               	.LCFI26:
 593               		.cfi_def_cfa_offset 6
 594               		.cfi_offset 14, -5
 595 0008 FF92      		push r15
 596               	.LCFI27:
 597               		.cfi_def_cfa_offset 7
 598               		.cfi_offset 15, -6
 599 000a 0F93      		push r16
 600               	.LCFI28:
 601               		.cfi_def_cfa_offset 8
 602               		.cfi_offset 16, -7
 603 000c 1F93      		push r17
 604               	.LCFI29:
 605               		.cfi_def_cfa_offset 9
 606               		.cfi_offset 17, -8
 607 000e CF93      		push r28
 608               	.LCFI30:
 609               		.cfi_def_cfa_offset 10
 610               		.cfi_offset 28, -9
 611 0010 DF93      		push r29
 612               	.LCFI31:
 613               		.cfi_def_cfa_offset 11
 614               		.cfi_offset 29, -10
 615               	/* prologue: function */
 616               	/* frame size = 0 */
 617               	/* stack size = 9 */
 618               	.L__stack_usage = 9
 619 0012 EC01      		movw r28,r24
 620 0014 8B01      		movw r16,r22
 621 0016 7A01      		movw r14,r20
  37:./tmk_core/protocol/lufa/LUFA-git/LUFA/Drivers/USB/Core/AVR8/Template/Template_Endpoint_RW.c **** 	uint16_t BytesInTransfer = 0;
 622               		.loc 3 37 2 is_stmt 1 view .LVU142
 623               	.LVL44:
  38:./tmk_core/protocol/lufa/LUFA-git/LUFA/Drivers/USB/Core/AVR8/Template/Template_Endpoint_RW.c **** 	uint8_t  ErrorCode;
 624               		.loc 3 38 2 view .LVU143
  39:./tmk_core/protocol/lufa/LUFA-git/LUFA/Drivers/USB/Core/AVR8/Template/Template_Endpoint_RW.c **** 
 625               		.loc 3 39 2 view .LVU144
  41:./tmk_core/protocol/lufa/LUFA-git/LUFA/Drivers/USB/Core/AVR8/Template/Template_Endpoint_RW.c **** 	  return ErrorCode;
 626               		.loc 3 41 2 view .LVU145
  41:./tmk_core/protocol/lufa/LUFA-git/LUFA/Drivers/USB/Core/AVR8/Template/Template_Endpoint_RW.c **** 	  return ErrorCode;
 627               		.loc 3 41 19 is_stmt 0 view .LVU146
 628 0018 0E94 0000 		call Endpoint_WaitUntilReady
 629               	.LVL45:
  41:./tmk_core/protocol/lufa/LUFA-git/LUFA/Drivers/USB/Core/AVR8/Template/Template_Endpoint_RW.c **** 	  return ErrorCode;
 630               		.loc 3 41 19 view .LVU147
 631 001c D82E      		mov r13,r24
 632               	.LVL46:
  41:./tmk_core/protocol/lufa/LUFA-git/LUFA/Drivers/USB/Core/AVR8/Template/Template_Endpoint_RW.c **** 	  return ErrorCode;
 633               		.loc 3 41 5 view .LVU148
 634 001e 8111      		cpse r24,__zero_reg__
 635 0020 00C0      		rjmp .L37
  37:./tmk_core/protocol/lufa/LUFA-git/LUFA/Drivers/USB/Core/AVR8/Template/Template_Endpoint_RW.c **** 	uint16_t BytesInTransfer = 0;
 636               		.loc 3 37 47 view .LVU149
 637 0022 C801      		movw r24,r16
 638 0024 0197      		sbiw r24,1
 639               	.LVL47:
  37:./tmk_core/protocol/lufa/LUFA-git/LUFA/Drivers/USB/Core/AVR8/Template/Template_Endpoint_RW.c **** 	uint16_t BytesInTransfer = 0;
 640               		.loc 3 37 11 view .LVU150
 641 0026 C80F      		add r28,r24
 642 0028 D91F      		adc r29,r25
 643               	.LVL48:
  44:./tmk_core/protocol/lufa/LUFA-git/LUFA/Drivers/USB/Core/AVR8/Template/Template_Endpoint_RW.c **** 	{
 644               		.loc 3 44 2 is_stmt 1 view .LVU151
  44:./tmk_core/protocol/lufa/LUFA-git/LUFA/Drivers/USB/Core/AVR8/Template/Template_Endpoint_RW.c **** 	{
 645               		.loc 3 44 5 is_stmt 0 view .LVU152
 646 002a E114      		cp r14,__zero_reg__
 647 002c F104      		cpc r15,__zero_reg__
 648 002e 01F0      		breq .L39
  46:./tmk_core/protocol/lufa/LUFA-git/LUFA/Drivers/USB/Core/AVR8/Template/Template_Endpoint_RW.c **** 		TEMPLATE_BUFFER_MOVE(DataStream, *BytesProcessed);
 649               		.loc 3 46 3 is_stmt 1 view .LVU153
  46:./tmk_core/protocol/lufa/LUFA-git/LUFA/Drivers/USB/Core/AVR8/Template/Template_Endpoint_RW.c **** 		TEMPLATE_BUFFER_MOVE(DataStream, *BytesProcessed);
 650               		.loc 3 46 13 is_stmt 0 view .LVU154
 651 0030 F701      		movw r30,r14
 652 0032 8081      		ld r24,Z
 653 0034 9181      		ldd r25,Z+1
 654               	.LVL49:
  46:./tmk_core/protocol/lufa/LUFA-git/LUFA/Drivers/USB/Core/AVR8/Template/Template_Endpoint_RW.c **** 		TEMPLATE_BUFFER_MOVE(DataStream, *BytesProcessed);
 655               		.loc 3 46 10 view .LVU155
 656 0036 081B      		sub r16,r24
 657 0038 190B      		sbc r17,r25
 658               	.LVL50:
  47:./tmk_core/protocol/lufa/LUFA-git/LUFA/Drivers/USB/Core/AVR8/Template/Template_Endpoint_RW.c **** 	}
 659               		.loc 3 47 3 is_stmt 1 view .LVU156
 660 003a C81B      		sub r28,r24
 661 003c D90B      		sbc r29,r25
 662               	.LVL51:
 663               	.L39:
  36:./tmk_core/protocol/lufa/LUFA-git/LUFA/Drivers/USB/Core/AVR8/Template/Template_Endpoint_RW.c **** 	uint8_t* DataStream      = ((uint8_t*)Buffer + TEMPLATE_BUFFER_OFFSET(Length));
 664               		.loc 3 36 1 is_stmt 0 view .LVU157
 665 003e A12C      		mov r10,__zero_reg__
 666 0040 B12C      		mov r11,__zero_reg__
 667               	.LVL52:
 668               	.L40:
  50:./tmk_core/protocol/lufa/LUFA-git/LUFA/Drivers/USB/Core/AVR8/Template/Template_Endpoint_RW.c **** 	{
 669               		.loc 3 50 9 is_stmt 1 view .LVU158
 670 0042 0115      		cp r16,__zero_reg__
 671 0044 1105      		cpc r17,__zero_reg__
 672 0046 01F0      		breq .L37
 673               	.LVL53:
 674               	.L43:
  52:./tmk_core/protocol/lufa/LUFA-git/LUFA/Drivers/USB/Core/AVR8/Template/Template_Endpoint_RW.c **** 		{
 675               		.loc 3 52 3 view .LVU159
 676               	.LBB286:
 677               	.LBI286:
 358:./tmk_core/protocol/lufa/LUFA-git/LUFA/Drivers/USB/Core/AVR8/../AVR8/../AVR8/Endpoint_AVR8.h **** 			{
 678               		.loc 2 358 23 view .LVU160
 679               	.LBB287:
 360:./tmk_core/protocol/lufa/LUFA-git/LUFA/Drivers/USB/Core/AVR8/../AVR8/../AVR8/Endpoint_AVR8.h **** 			}
 680               		.loc 2 360 5 view .LVU161
 360:./tmk_core/protocol/lufa/LUFA-git/LUFA/Drivers/USB/Core/AVR8/../AVR8/../AVR8/Endpoint_AVR8.h **** 			}
 681               		.loc 2 360 14 is_stmt 0 view .LVU162
 682 0048 8091 E800 		lds r24,232
 683               	.LBE287:
 684               	.LBE286:
  52:./tmk_core/protocol/lufa/LUFA-git/LUFA/Drivers/USB/Core/AVR8/Template/Template_Endpoint_RW.c **** 		{
 685               		.loc 3 52 6 view .LVU163
 686 004c 85FD      		sbrc r24,5
 687 004e 00C0      		rjmp .L41
  54:./tmk_core/protocol/lufa/LUFA-git/LUFA/Drivers/USB/Core/AVR8/Template/Template_Endpoint_RW.c **** 
 688               		.loc 3 54 4 is_stmt 1 view .LVU164
 689               	.LBB288:
 690               	.LBI288:
 453:./tmk_core/protocol/lufa/LUFA-git/LUFA/Drivers/USB/Core/AVR8/../AVR8/../AVR8/Endpoint_AVR8.h **** 			{
 691               		.loc 2 453 23 view .LVU165
 692               	.LBB289:
 456:./tmk_core/protocol/lufa/LUFA-git/LUFA/Drivers/USB/Core/AVR8/../AVR8/../AVR8/Endpoint_AVR8.h **** 				#else
 693               		.loc 2 456 6 view .LVU166
 456:./tmk_core/protocol/lufa/LUFA-git/LUFA/Drivers/USB/Core/AVR8/../AVR8/../AVR8/Endpoint_AVR8.h **** 				#else
 694               		.loc 2 456 13 is_stmt 0 view .LVU167
 695 0050 8091 E800 		lds r24,232
 696 0054 8E77      		andi r24,lo8(126)
 697 0056 8093 E800 		sts 232,r24
 698               	.LBE289:
 699               	.LBE288:
  60:./tmk_core/protocol/lufa/LUFA-git/LUFA/Drivers/USB/Core/AVR8/Template/Template_Endpoint_RW.c **** 			{
 700               		.loc 3 60 4 is_stmt 1 view .LVU168
  60:./tmk_core/protocol/lufa/LUFA-git/LUFA/Drivers/USB/Core/AVR8/Template/Template_Endpoint_RW.c **** 			{
 701               		.loc 3 60 7 is_stmt 0 view .LVU169
 702 005a E114      		cp r14,__zero_reg__
 703 005c F104      		cpc r15,__zero_reg__
 704 005e 01F0      		breq .L42
  62:./tmk_core/protocol/lufa/LUFA-git/LUFA/Drivers/USB/Core/AVR8/Template/Template_Endpoint_RW.c **** 				return ENDPOINT_RWSTREAM_IncompleteTransfer;
 705               		.loc 3 62 5 is_stmt 1 view .LVU170
  62:./tmk_core/protocol/lufa/LUFA-git/LUFA/Drivers/USB/Core/AVR8/Template/Template_Endpoint_RW.c **** 				return ENDPOINT_RWSTREAM_IncompleteTransfer;
 706               		.loc 3 62 21 is_stmt 0 view .LVU171
 707 0060 F701      		movw r30,r14
 708 0062 8081      		ld r24,Z
 709 0064 9181      		ldd r25,Z+1
 710 0066 8A0D      		add r24,r10
 711 0068 9B1D      		adc r25,r11
 712 006a 9183      		std Z+1,r25
 713 006c 8083      		st Z,r24
  63:./tmk_core/protocol/lufa/LUFA-git/LUFA/Drivers/USB/Core/AVR8/Template/Template_Endpoint_RW.c **** 			}
 714               		.loc 3 63 5 is_stmt 1 view .LVU172
  63:./tmk_core/protocol/lufa/LUFA-git/LUFA/Drivers/USB/Core/AVR8/Template/Template_Endpoint_RW.c **** 			}
 715               		.loc 3 63 12 is_stmt 0 view .LVU173
 716 006e 85E0      		ldi r24,lo8(5)
 717 0070 D82E      		mov r13,r24
 718               	.L37:
 719               		.loc 3 79 1 view .LVU174
 720 0072 8D2D      		mov r24,r13
 721               	/* epilogue start */
 722 0074 DF91      		pop r29
 723 0076 CF91      		pop r28
 724 0078 1F91      		pop r17
 725 007a 0F91      		pop r16
 726 007c FF90      		pop r15
 727 007e EF90      		pop r14
 728               	.LVL54:
 729               		.loc 3 79 1 view .LVU175
 730 0080 DF90      		pop r13
 731 0082 BF90      		pop r11
 732 0084 AF90      		pop r10
 733 0086 0895      		ret
 734               	.LVL55:
 735               	.L42:
  66:./tmk_core/protocol/lufa/LUFA-git/LUFA/Drivers/USB/Core/AVR8/Template/Template_Endpoint_RW.c **** 			  return ErrorCode;
 736               		.loc 3 66 4 is_stmt 1 view .LVU176
  66:./tmk_core/protocol/lufa/LUFA-git/LUFA/Drivers/USB/Core/AVR8/Template/Template_Endpoint_RW.c **** 			  return ErrorCode;
 737               		.loc 3 66 21 is_stmt 0 view .LVU177
 738 0088 0E94 0000 		call Endpoint_WaitUntilReady
 739               	.LVL56:
  66:./tmk_core/protocol/lufa/LUFA-git/LUFA/Drivers/USB/Core/AVR8/Template/Template_Endpoint_RW.c **** 			  return ErrorCode;
 740               		.loc 3 66 7 view .LVU178
 741 008c 8823      		tst r24
 742 008e 01F0      		breq .L43
  66:./tmk_core/protocol/lufa/LUFA-git/LUFA/Drivers/USB/Core/AVR8/Template/Template_Endpoint_RW.c **** 			  return ErrorCode;
 743               		.loc 3 66 21 view .LVU179
 744 0090 D82E      		mov r13,r24
 745 0092 00C0      		rjmp .L37
 746               	.LVL57:
 747               	.L41:
  71:./tmk_core/protocol/lufa/LUFA-git/LUFA/Drivers/USB/Core/AVR8/Template/Template_Endpoint_RW.c **** 			TEMPLATE_BUFFER_MOVE(DataStream, 1);
 748               		.loc 3 71 4 is_stmt 1 view .LVU180
 749 0094 8881      		ld r24,Y
 750               	.LVL58:
 751               	.LBB290:
 752               	.LBI290:
 552:./tmk_core/protocol/lufa/LUFA-git/LUFA/Drivers/USB/Core/AVR8/../AVR8/../AVR8/Endpoint_AVR8.h **** 			{
 753               		.loc 2 552 23 view .LVU181
 754               	.LBB291:
 554:./tmk_core/protocol/lufa/LUFA-git/LUFA/Drivers/USB/Core/AVR8/../AVR8/../AVR8/Endpoint_AVR8.h **** 			}
 755               		.loc 2 554 5 view .LVU182
 554:./tmk_core/protocol/lufa/LUFA-git/LUFA/Drivers/USB/Core/AVR8/../AVR8/../AVR8/Endpoint_AVR8.h **** 			}
 756               		.loc 2 554 12 is_stmt 0 view .LVU183
 757 0096 8093 F100 		sts 241,r24
 758               	.LVL59:
 554:./tmk_core/protocol/lufa/LUFA-git/LUFA/Drivers/USB/Core/AVR8/../AVR8/../AVR8/Endpoint_AVR8.h **** 			}
 759               		.loc 2 554 12 view .LVU184
 760               	.LBE291:
 761               	.LBE290:
  72:./tmk_core/protocol/lufa/LUFA-git/LUFA/Drivers/USB/Core/AVR8/Template/Template_Endpoint_RW.c **** 			Length--;
 762               		.loc 3 72 4 is_stmt 1 view .LVU185
 763 009a 2197      		sbiw r28,1
 764               	.LVL60:
  73:./tmk_core/protocol/lufa/LUFA-git/LUFA/Drivers/USB/Core/AVR8/Template/Template_Endpoint_RW.c **** 			BytesInTransfer++;
 765               		.loc 3 73 4 view .LVU186
  73:./tmk_core/protocol/lufa/LUFA-git/LUFA/Drivers/USB/Core/AVR8/Template/Template_Endpoint_RW.c **** 			BytesInTransfer++;
 766               		.loc 3 73 10 is_stmt 0 view .LVU187
 767 009c 0150      		subi r16,1
 768 009e 1109      		sbc r17,__zero_reg__
 769               	.LVL61:
  74:./tmk_core/protocol/lufa/LUFA-git/LUFA/Drivers/USB/Core/AVR8/Template/Template_Endpoint_RW.c **** 		}
 770               		.loc 3 74 4 is_stmt 1 view .LVU188
  74:./tmk_core/protocol/lufa/LUFA-git/LUFA/Drivers/USB/Core/AVR8/Template/Template_Endpoint_RW.c **** 		}
 771               		.loc 3 74 19 is_stmt 0 view .LVU189
 772 00a0 FFEF      		ldi r31,-1
 773 00a2 AF1A      		sub r10,r31
 774 00a4 BF0A      		sbc r11,r31
 775               	.LVL62:
  74:./tmk_core/protocol/lufa/LUFA-git/LUFA/Drivers/USB/Core/AVR8/Template/Template_Endpoint_RW.c **** 		}
 776               		.loc 3 74 19 view .LVU190
 777 00a6 00C0      		rjmp .L40
 778               		.cfi_endproc
 779               	.LFE92:
 781               		.section	.text.Endpoint_Read_Stream_LE,"ax",@progbits
 782               	.global	Endpoint_Read_Stream_LE
 784               	Endpoint_Read_Stream_LE:
 785               	.LVL63:
 786               	.LFB93:
  36:./tmk_core/protocol/lufa/LUFA-git/LUFA/Drivers/USB/Core/AVR8/Template/Template_Endpoint_RW.c **** 	uint8_t* DataStream      = ((uint8_t*)Buffer + TEMPLATE_BUFFER_OFFSET(Length));
 787               		.loc 3 36 1 is_stmt 1 view -0
 788               		.cfi_startproc
  36:./tmk_core/protocol/lufa/LUFA-git/LUFA/Drivers/USB/Core/AVR8/Template/Template_Endpoint_RW.c **** 	uint8_t* DataStream      = ((uint8_t*)Buffer + TEMPLATE_BUFFER_OFFSET(Length));
 789               		.loc 3 36 1 is_stmt 0 view .LVU192
 790 0000 AF92      		push r10
 791               	.LCFI32:
 792               		.cfi_def_cfa_offset 3
 793               		.cfi_offset 10, -2
 794 0002 BF92      		push r11
 795               	.LCFI33:
 796               		.cfi_def_cfa_offset 4
 797               		.cfi_offset 11, -3
 798 0004 CF92      		push r12
 799               	.LCFI34:
 800               		.cfi_def_cfa_offset 5
 801               		.cfi_offset 12, -4
 802 0006 DF92      		push r13
 803               	.LCFI35:
 804               		.cfi_def_cfa_offset 6
 805               		.cfi_offset 13, -5
 806 0008 FF92      		push r15
 807               	.LCFI36:
 808               		.cfi_def_cfa_offset 7
 809               		.cfi_offset 15, -6
 810 000a 0F93      		push r16
 811               	.LCFI37:
 812               		.cfi_def_cfa_offset 8
 813               		.cfi_offset 16, -7
 814 000c 1F93      		push r17
 815               	.LCFI38:
 816               		.cfi_def_cfa_offset 9
 817               		.cfi_offset 17, -8
 818 000e CF93      		push r28
 819               	.LCFI39:
 820               		.cfi_def_cfa_offset 10
 821               		.cfi_offset 28, -9
 822 0010 DF93      		push r29
 823               	.LCFI40:
 824               		.cfi_def_cfa_offset 11
 825               		.cfi_offset 29, -10
 826               	/* prologue: function */
 827               	/* frame size = 0 */
 828               	/* stack size = 9 */
 829               	.L__stack_usage = 9
 830 0012 6C01      		movw r12,r24
 831 0014 EB01      		movw r28,r22
 832 0016 8A01      		movw r16,r20
  37:./tmk_core/protocol/lufa/LUFA-git/LUFA/Drivers/USB/Core/AVR8/Template/Template_Endpoint_RW.c **** 	uint16_t BytesInTransfer = 0;
 833               		.loc 3 37 2 is_stmt 1 view .LVU193
 834               	.LVL64:
  38:./tmk_core/protocol/lufa/LUFA-git/LUFA/Drivers/USB/Core/AVR8/Template/Template_Endpoint_RW.c **** 	uint8_t  ErrorCode;
 835               		.loc 3 38 2 view .LVU194
  39:./tmk_core/protocol/lufa/LUFA-git/LUFA/Drivers/USB/Core/AVR8/Template/Template_Endpoint_RW.c **** 
 836               		.loc 3 39 2 view .LVU195
  41:./tmk_core/protocol/lufa/LUFA-git/LUFA/Drivers/USB/Core/AVR8/Template/Template_Endpoint_RW.c **** 	  return ErrorCode;
 837               		.loc 3 41 2 view .LVU196
  41:./tmk_core/protocol/lufa/LUFA-git/LUFA/Drivers/USB/Core/AVR8/Template/Template_Endpoint_RW.c **** 	  return ErrorCode;
 838               		.loc 3 41 19 is_stmt 0 view .LVU197
 839 0018 0E94 0000 		call Endpoint_WaitUntilReady
 840               	.LVL65:
  41:./tmk_core/protocol/lufa/LUFA-git/LUFA/Drivers/USB/Core/AVR8/Template/Template_Endpoint_RW.c **** 	  return ErrorCode;
 841               		.loc 3 41 19 view .LVU198
 842 001c F82E      		mov r15,r24
 843               	.LVL66:
  41:./tmk_core/protocol/lufa/LUFA-git/LUFA/Drivers/USB/Core/AVR8/Template/Template_Endpoint_RW.c **** 	  return ErrorCode;
 844               		.loc 3 41 5 view .LVU199
 845 001e 8111      		cpse r24,__zero_reg__
 846 0020 00C0      		rjmp .L49
  44:./tmk_core/protocol/lufa/LUFA-git/LUFA/Drivers/USB/Core/AVR8/Template/Template_Endpoint_RW.c **** 	{
 847               		.loc 3 44 2 is_stmt 1 view .LVU200
  44:./tmk_core/protocol/lufa/LUFA-git/LUFA/Drivers/USB/Core/AVR8/Template/Template_Endpoint_RW.c **** 	{
 848               		.loc 3 44 5 is_stmt 0 view .LVU201
 849 0022 0115      		cp r16,__zero_reg__
 850 0024 1105      		cpc r17,__zero_reg__
 851 0026 01F0      		breq .L51
  46:./tmk_core/protocol/lufa/LUFA-git/LUFA/Drivers/USB/Core/AVR8/Template/Template_Endpoint_RW.c **** 		TEMPLATE_BUFFER_MOVE(DataStream, *BytesProcessed);
 852               		.loc 3 46 3 is_stmt 1 view .LVU202
  46:./tmk_core/protocol/lufa/LUFA-git/LUFA/Drivers/USB/Core/AVR8/Template/Template_Endpoint_RW.c **** 		TEMPLATE_BUFFER_MOVE(DataStream, *BytesProcessed);
 853               		.loc 3 46 13 is_stmt 0 view .LVU203
 854 0028 F801      		movw r30,r16
 855 002a 8081      		ld r24,Z
 856 002c 9181      		ldd r25,Z+1
  46:./tmk_core/protocol/lufa/LUFA-git/LUFA/Drivers/USB/Core/AVR8/Template/Template_Endpoint_RW.c **** 		TEMPLATE_BUFFER_MOVE(DataStream, *BytesProcessed);
 857               		.loc 3 46 10 view .LVU204
 858 002e C81B      		sub r28,r24
 859 0030 D90B      		sbc r29,r25
 860               	.LVL67:
  47:./tmk_core/protocol/lufa/LUFA-git/LUFA/Drivers/USB/Core/AVR8/Template/Template_Endpoint_RW.c **** 	}
 861               		.loc 3 47 3 is_stmt 1 view .LVU205
 862 0032 C80E      		add r12,r24
 863 0034 D91E      		adc r13,r25
 864               	.LVL68:
 865               	.L51:
  36:./tmk_core/protocol/lufa/LUFA-git/LUFA/Drivers/USB/Core/AVR8/Template/Template_Endpoint_RW.c **** 	uint8_t* DataStream      = ((uint8_t*)Buffer + TEMPLATE_BUFFER_OFFSET(Length));
 866               		.loc 3 36 1 is_stmt 0 view .LVU206
 867 0036 A12C      		mov r10,__zero_reg__
 868 0038 B12C      		mov r11,__zero_reg__
 869               	.LVL69:
 870               	.L52:
  50:./tmk_core/protocol/lufa/LUFA-git/LUFA/Drivers/USB/Core/AVR8/Template/Template_Endpoint_RW.c **** 	{
 871               		.loc 3 50 9 is_stmt 1 view .LVU207
 872 003a 2097      		sbiw r28,0
 873 003c 01F0      		breq .L49
 874               	.LVL70:
 875               	.L55:
  52:./tmk_core/protocol/lufa/LUFA-git/LUFA/Drivers/USB/Core/AVR8/Template/Template_Endpoint_RW.c **** 		{
 876               		.loc 3 52 3 view .LVU208
 877               	.LBB292:
 878               	.LBI292:
 358:./tmk_core/protocol/lufa/LUFA-git/LUFA/Drivers/USB/Core/AVR8/../AVR8/../AVR8/Endpoint_AVR8.h **** 			{
 879               		.loc 2 358 23 view .LVU209
 880               	.LBB293:
 360:./tmk_core/protocol/lufa/LUFA-git/LUFA/Drivers/USB/Core/AVR8/../AVR8/../AVR8/Endpoint_AVR8.h **** 			}
 881               		.loc 2 360 5 view .LVU210
 360:./tmk_core/protocol/lufa/LUFA-git/LUFA/Drivers/USB/Core/AVR8/../AVR8/../AVR8/Endpoint_AVR8.h **** 			}
 882               		.loc 2 360 14 is_stmt 0 view .LVU211
 883 003e 8091 E800 		lds r24,232
 884               	.LBE293:
 885               	.LBE292:
  52:./tmk_core/protocol/lufa/LUFA-git/LUFA/Drivers/USB/Core/AVR8/Template/Template_Endpoint_RW.c **** 		{
 886               		.loc 3 52 6 view .LVU212
 887 0042 85FD      		sbrc r24,5
 888 0044 00C0      		rjmp .L53
  54:./tmk_core/protocol/lufa/LUFA-git/LUFA/Drivers/USB/Core/AVR8/Template/Template_Endpoint_RW.c **** 
 889               		.loc 3 54 4 is_stmt 1 view .LVU213
 890               	.LBB294:
 891               	.LBI294:
 468:./tmk_core/protocol/lufa/LUFA-git/LUFA/Drivers/USB/Core/AVR8/../AVR8/../AVR8/Endpoint_AVR8.h **** 			{
 892               		.loc 2 468 23 view .LVU214
 893               	.LBB295:
 471:./tmk_core/protocol/lufa/LUFA-git/LUFA/Drivers/USB/Core/AVR8/../AVR8/../AVR8/Endpoint_AVR8.h **** 				#else
 894               		.loc 2 471 6 view .LVU215
 471:./tmk_core/protocol/lufa/LUFA-git/LUFA/Drivers/USB/Core/AVR8/../AVR8/../AVR8/Endpoint_AVR8.h **** 				#else
 895               		.loc 2 471 13 is_stmt 0 view .LVU216
 896 0046 8091 E800 		lds r24,232
 897 004a 8B77      		andi r24,lo8(123)
 898 004c 8093 E800 		sts 232,r24
 899               	.LBE295:
 900               	.LBE294:
  60:./tmk_core/protocol/lufa/LUFA-git/LUFA/Drivers/USB/Core/AVR8/Template/Template_Endpoint_RW.c **** 			{
 901               		.loc 3 60 4 is_stmt 1 view .LVU217
  60:./tmk_core/protocol/lufa/LUFA-git/LUFA/Drivers/USB/Core/AVR8/Template/Template_Endpoint_RW.c **** 			{
 902               		.loc 3 60 7 is_stmt 0 view .LVU218
 903 0050 0115      		cp r16,__zero_reg__
 904 0052 1105      		cpc r17,__zero_reg__
 905 0054 01F0      		breq .L54
  62:./tmk_core/protocol/lufa/LUFA-git/LUFA/Drivers/USB/Core/AVR8/Template/Template_Endpoint_RW.c **** 				return ENDPOINT_RWSTREAM_IncompleteTransfer;
 906               		.loc 3 62 5 is_stmt 1 view .LVU219
  62:./tmk_core/protocol/lufa/LUFA-git/LUFA/Drivers/USB/Core/AVR8/Template/Template_Endpoint_RW.c **** 				return ENDPOINT_RWSTREAM_IncompleteTransfer;
 907               		.loc 3 62 21 is_stmt 0 view .LVU220
 908 0056 F801      		movw r30,r16
 909 0058 8081      		ld r24,Z
 910 005a 9181      		ldd r25,Z+1
 911 005c 8A0D      		add r24,r10
 912 005e 9B1D      		adc r25,r11
 913 0060 9183      		std Z+1,r25
 914 0062 8083      		st Z,r24
  63:./tmk_core/protocol/lufa/LUFA-git/LUFA/Drivers/USB/Core/AVR8/Template/Template_Endpoint_RW.c **** 			}
 915               		.loc 3 63 5 is_stmt 1 view .LVU221
  63:./tmk_core/protocol/lufa/LUFA-git/LUFA/Drivers/USB/Core/AVR8/Template/Template_Endpoint_RW.c **** 			}
 916               		.loc 3 63 12 is_stmt 0 view .LVU222
 917 0064 85E0      		ldi r24,lo8(5)
 918 0066 F82E      		mov r15,r24
 919               	.L49:
 920               		.loc 3 79 1 view .LVU223
 921 0068 8F2D      		mov r24,r15
 922               	/* epilogue start */
 923 006a DF91      		pop r29
 924 006c CF91      		pop r28
 925 006e 1F91      		pop r17
 926 0070 0F91      		pop r16
 927               	.LVL71:
 928               		.loc 3 79 1 view .LVU224
 929 0072 FF90      		pop r15
 930 0074 DF90      		pop r13
 931 0076 CF90      		pop r12
 932 0078 BF90      		pop r11
 933 007a AF90      		pop r10
 934 007c 0895      		ret
 935               	.LVL72:
 936               	.L54:
  66:./tmk_core/protocol/lufa/LUFA-git/LUFA/Drivers/USB/Core/AVR8/Template/Template_Endpoint_RW.c **** 			  return ErrorCode;
 937               		.loc 3 66 4 is_stmt 1 view .LVU225
  66:./tmk_core/protocol/lufa/LUFA-git/LUFA/Drivers/USB/Core/AVR8/Template/Template_Endpoint_RW.c **** 			  return ErrorCode;
 938               		.loc 3 66 21 is_stmt 0 view .LVU226
 939 007e 0E94 0000 		call Endpoint_WaitUntilReady
 940               	.LVL73:
  66:./tmk_core/protocol/lufa/LUFA-git/LUFA/Drivers/USB/Core/AVR8/Template/Template_Endpoint_RW.c **** 			  return ErrorCode;
 941               		.loc 3 66 7 view .LVU227
 942 0082 8823      		tst r24
 943 0084 01F0      		breq .L55
  66:./tmk_core/protocol/lufa/LUFA-git/LUFA/Drivers/USB/Core/AVR8/Template/Template_Endpoint_RW.c **** 			  return ErrorCode;
 944               		.loc 3 66 21 view .LVU228
 945 0086 F82E      		mov r15,r24
 946 0088 00C0      		rjmp .L49
 947               	.LVL74:
 948               	.L53:
  71:./tmk_core/protocol/lufa/LUFA-git/LUFA/Drivers/USB/Core/AVR8/Template/Template_Endpoint_RW.c **** 			TEMPLATE_BUFFER_MOVE(DataStream, 1);
 949               		.loc 3 71 4 is_stmt 1 view .LVU229
 950               	.LBB296:
 951               	.LBI296:
 540:./tmk_core/protocol/lufa/LUFA-git/LUFA/Drivers/USB/Core/AVR8/../AVR8/../AVR8/Endpoint_AVR8.h **** 			{
 952               		.loc 2 540 26 view .LVU230
 953               	.LBB297:
 542:./tmk_core/protocol/lufa/LUFA-git/LUFA/Drivers/USB/Core/AVR8/../AVR8/../AVR8/Endpoint_AVR8.h **** 			}
 954               		.loc 2 542 5 view .LVU231
 542:./tmk_core/protocol/lufa/LUFA-git/LUFA/Drivers/USB/Core/AVR8/../AVR8/../AVR8/Endpoint_AVR8.h **** 			}
 955               		.loc 2 542 12 is_stmt 0 view .LVU232
 956 008a 8091 F100 		lds r24,241
 957               	.LBE297:
 958               	.LBE296:
  71:./tmk_core/protocol/lufa/LUFA-git/LUFA/Drivers/USB/Core/AVR8/Template/Template_Endpoint_RW.c **** 			TEMPLATE_BUFFER_MOVE(DataStream, 1);
 959               		.loc 3 71 4 view .LVU233
 960 008e F601      		movw r30,r12
 961 0090 8193      		st Z+,r24
 962 0092 6F01      		movw r12,r30
  72:./tmk_core/protocol/lufa/LUFA-git/LUFA/Drivers/USB/Core/AVR8/Template/Template_Endpoint_RW.c **** 			Length--;
 963               		.loc 3 72 4 is_stmt 1 view .LVU234
 964               	.LVL75:
  73:./tmk_core/protocol/lufa/LUFA-git/LUFA/Drivers/USB/Core/AVR8/Template/Template_Endpoint_RW.c **** 			BytesInTransfer++;
 965               		.loc 3 73 4 view .LVU235
  73:./tmk_core/protocol/lufa/LUFA-git/LUFA/Drivers/USB/Core/AVR8/Template/Template_Endpoint_RW.c **** 			BytesInTransfer++;
 966               		.loc 3 73 10 is_stmt 0 view .LVU236
 967 0094 2197      		sbiw r28,1
 968               	.LVL76:
  74:./tmk_core/protocol/lufa/LUFA-git/LUFA/Drivers/USB/Core/AVR8/Template/Template_Endpoint_RW.c **** 		}
 969               		.loc 3 74 4 is_stmt 1 view .LVU237
  74:./tmk_core/protocol/lufa/LUFA-git/LUFA/Drivers/USB/Core/AVR8/Template/Template_Endpoint_RW.c **** 		}
 970               		.loc 3 74 19 is_stmt 0 view .LVU238
 971 0096 FFEF      		ldi r31,-1
 972 0098 AF1A      		sub r10,r31
 973 009a BF0A      		sbc r11,r31
 974               	.LVL77:
  74:./tmk_core/protocol/lufa/LUFA-git/LUFA/Drivers/USB/Core/AVR8/Template/Template_Endpoint_RW.c **** 		}
 975               		.loc 3 74 19 view .LVU239
 976 009c 00C0      		rjmp .L52
 977               		.cfi_endproc
 978               	.LFE93:
 980               		.section	.text.Endpoint_Read_Stream_BE,"ax",@progbits
 981               	.global	Endpoint_Read_Stream_BE
 983               	Endpoint_Read_Stream_BE:
 984               	.LVL78:
 985               	.LFB94:
  36:./tmk_core/protocol/lufa/LUFA-git/LUFA/Drivers/USB/Core/AVR8/Template/Template_Endpoint_RW.c **** 	uint8_t* DataStream      = ((uint8_t*)Buffer + TEMPLATE_BUFFER_OFFSET(Length));
 986               		.loc 3 36 1 is_stmt 1 view -0
 987               		.cfi_startproc
  36:./tmk_core/protocol/lufa/LUFA-git/LUFA/Drivers/USB/Core/AVR8/Template/Template_Endpoint_RW.c **** 	uint8_t* DataStream      = ((uint8_t*)Buffer + TEMPLATE_BUFFER_OFFSET(Length));
 988               		.loc 3 36 1 is_stmt 0 view .LVU241
 989 0000 AF92      		push r10
 990               	.LCFI41:
 991               		.cfi_def_cfa_offset 3
 992               		.cfi_offset 10, -2
 993 0002 BF92      		push r11
 994               	.LCFI42:
 995               		.cfi_def_cfa_offset 4
 996               		.cfi_offset 11, -3
 997 0004 DF92      		push r13
 998               	.LCFI43:
 999               		.cfi_def_cfa_offset 5
 1000               		.cfi_offset 13, -4
 1001 0006 EF92      		push r14
 1002               	.LCFI44:
 1003               		.cfi_def_cfa_offset 6
 1004               		.cfi_offset 14, -5
 1005 0008 FF92      		push r15
 1006               	.LCFI45:
 1007               		.cfi_def_cfa_offset 7
 1008               		.cfi_offset 15, -6
 1009 000a 0F93      		push r16
 1010               	.LCFI46:
 1011               		.cfi_def_cfa_offset 8
 1012               		.cfi_offset 16, -7
 1013 000c 1F93      		push r17
 1014               	.LCFI47:
 1015               		.cfi_def_cfa_offset 9
 1016               		.cfi_offset 17, -8
 1017 000e CF93      		push r28
 1018               	.LCFI48:
 1019               		.cfi_def_cfa_offset 10
 1020               		.cfi_offset 28, -9
 1021 0010 DF93      		push r29
 1022               	.LCFI49:
 1023               		.cfi_def_cfa_offset 11
 1024               		.cfi_offset 29, -10
 1025               	/* prologue: function */
 1026               	/* frame size = 0 */
 1027               	/* stack size = 9 */
 1028               	.L__stack_usage = 9
 1029 0012 EC01      		movw r28,r24
 1030 0014 8B01      		movw r16,r22
 1031 0016 7A01      		movw r14,r20
  37:./tmk_core/protocol/lufa/LUFA-git/LUFA/Drivers/USB/Core/AVR8/Template/Template_Endpoint_RW.c **** 	uint16_t BytesInTransfer = 0;
 1032               		.loc 3 37 2 is_stmt 1 view .LVU242
 1033               	.LVL79:
  38:./tmk_core/protocol/lufa/LUFA-git/LUFA/Drivers/USB/Core/AVR8/Template/Template_Endpoint_RW.c **** 	uint8_t  ErrorCode;
 1034               		.loc 3 38 2 view .LVU243
  39:./tmk_core/protocol/lufa/LUFA-git/LUFA/Drivers/USB/Core/AVR8/Template/Template_Endpoint_RW.c **** 
 1035               		.loc 3 39 2 view .LVU244
  41:./tmk_core/protocol/lufa/LUFA-git/LUFA/Drivers/USB/Core/AVR8/Template/Template_Endpoint_RW.c **** 	  return ErrorCode;
 1036               		.loc 3 41 2 view .LVU245
  41:./tmk_core/protocol/lufa/LUFA-git/LUFA/Drivers/USB/Core/AVR8/Template/Template_Endpoint_RW.c **** 	  return ErrorCode;
 1037               		.loc 3 41 19 is_stmt 0 view .LVU246
 1038 0018 0E94 0000 		call Endpoint_WaitUntilReady
 1039               	.LVL80:
  41:./tmk_core/protocol/lufa/LUFA-git/LUFA/Drivers/USB/Core/AVR8/Template/Template_Endpoint_RW.c **** 	  return ErrorCode;
 1040               		.loc 3 41 19 view .LVU247
 1041 001c D82E      		mov r13,r24
 1042               	.LVL81:
  41:./tmk_core/protocol/lufa/LUFA-git/LUFA/Drivers/USB/Core/AVR8/Template/Template_Endpoint_RW.c **** 	  return ErrorCode;
 1043               		.loc 3 41 5 view .LVU248
 1044 001e 8111      		cpse r24,__zero_reg__
 1045 0020 00C0      		rjmp .L61
  37:./tmk_core/protocol/lufa/LUFA-git/LUFA/Drivers/USB/Core/AVR8/Template/Template_Endpoint_RW.c **** 	uint16_t BytesInTransfer = 0;
 1046               		.loc 3 37 47 view .LVU249
 1047 0022 C801      		movw r24,r16
 1048 0024 0197      		sbiw r24,1
 1049               	.LVL82:
  37:./tmk_core/protocol/lufa/LUFA-git/LUFA/Drivers/USB/Core/AVR8/Template/Template_Endpoint_RW.c **** 	uint16_t BytesInTransfer = 0;
 1050               		.loc 3 37 11 view .LVU250
 1051 0026 C80F      		add r28,r24
 1052 0028 D91F      		adc r29,r25
 1053               	.LVL83:
  44:./tmk_core/protocol/lufa/LUFA-git/LUFA/Drivers/USB/Core/AVR8/Template/Template_Endpoint_RW.c **** 	{
 1054               		.loc 3 44 2 is_stmt 1 view .LVU251
  44:./tmk_core/protocol/lufa/LUFA-git/LUFA/Drivers/USB/Core/AVR8/Template/Template_Endpoint_RW.c **** 	{
 1055               		.loc 3 44 5 is_stmt 0 view .LVU252
 1056 002a E114      		cp r14,__zero_reg__
 1057 002c F104      		cpc r15,__zero_reg__
 1058 002e 01F0      		breq .L63
  46:./tmk_core/protocol/lufa/LUFA-git/LUFA/Drivers/USB/Core/AVR8/Template/Template_Endpoint_RW.c **** 		TEMPLATE_BUFFER_MOVE(DataStream, *BytesProcessed);
 1059               		.loc 3 46 3 is_stmt 1 view .LVU253
  46:./tmk_core/protocol/lufa/LUFA-git/LUFA/Drivers/USB/Core/AVR8/Template/Template_Endpoint_RW.c **** 		TEMPLATE_BUFFER_MOVE(DataStream, *BytesProcessed);
 1060               		.loc 3 46 13 is_stmt 0 view .LVU254
 1061 0030 F701      		movw r30,r14
 1062 0032 8081      		ld r24,Z
 1063 0034 9181      		ldd r25,Z+1
 1064               	.LVL84:
  46:./tmk_core/protocol/lufa/LUFA-git/LUFA/Drivers/USB/Core/AVR8/Template/Template_Endpoint_RW.c **** 		TEMPLATE_BUFFER_MOVE(DataStream, *BytesProcessed);
 1065               		.loc 3 46 10 view .LVU255
 1066 0036 081B      		sub r16,r24
 1067 0038 190B      		sbc r17,r25
 1068               	.LVL85:
  47:./tmk_core/protocol/lufa/LUFA-git/LUFA/Drivers/USB/Core/AVR8/Template/Template_Endpoint_RW.c **** 	}
 1069               		.loc 3 47 3 is_stmt 1 view .LVU256
 1070 003a C81B      		sub r28,r24
 1071 003c D90B      		sbc r29,r25
 1072               	.LVL86:
 1073               	.L63:
  36:./tmk_core/protocol/lufa/LUFA-git/LUFA/Drivers/USB/Core/AVR8/Template/Template_Endpoint_RW.c **** 	uint8_t* DataStream      = ((uint8_t*)Buffer + TEMPLATE_BUFFER_OFFSET(Length));
 1074               		.loc 3 36 1 is_stmt 0 view .LVU257
 1075 003e A12C      		mov r10,__zero_reg__
 1076 0040 B12C      		mov r11,__zero_reg__
 1077               	.LVL87:
 1078               	.L64:
  50:./tmk_core/protocol/lufa/LUFA-git/LUFA/Drivers/USB/Core/AVR8/Template/Template_Endpoint_RW.c **** 	{
 1079               		.loc 3 50 9 is_stmt 1 view .LVU258
 1080 0042 0115      		cp r16,__zero_reg__
 1081 0044 1105      		cpc r17,__zero_reg__
 1082 0046 01F0      		breq .L61
 1083               	.LVL88:
 1084               	.L67:
  52:./tmk_core/protocol/lufa/LUFA-git/LUFA/Drivers/USB/Core/AVR8/Template/Template_Endpoint_RW.c **** 		{
 1085               		.loc 3 52 3 view .LVU259
 1086               	.LBB298:
 1087               	.LBI298:
 358:./tmk_core/protocol/lufa/LUFA-git/LUFA/Drivers/USB/Core/AVR8/../AVR8/../AVR8/Endpoint_AVR8.h **** 			{
 1088               		.loc 2 358 23 view .LVU260
 1089               	.LBB299:
 360:./tmk_core/protocol/lufa/LUFA-git/LUFA/Drivers/USB/Core/AVR8/../AVR8/../AVR8/Endpoint_AVR8.h **** 			}
 1090               		.loc 2 360 5 view .LVU261
 360:./tmk_core/protocol/lufa/LUFA-git/LUFA/Drivers/USB/Core/AVR8/../AVR8/../AVR8/Endpoint_AVR8.h **** 			}
 1091               		.loc 2 360 14 is_stmt 0 view .LVU262
 1092 0048 8091 E800 		lds r24,232
 1093               	.LBE299:
 1094               	.LBE298:
  52:./tmk_core/protocol/lufa/LUFA-git/LUFA/Drivers/USB/Core/AVR8/Template/Template_Endpoint_RW.c **** 		{
 1095               		.loc 3 52 6 view .LVU263
 1096 004c 85FD      		sbrc r24,5
 1097 004e 00C0      		rjmp .L65
  54:./tmk_core/protocol/lufa/LUFA-git/LUFA/Drivers/USB/Core/AVR8/Template/Template_Endpoint_RW.c **** 
 1098               		.loc 3 54 4 is_stmt 1 view .LVU264
 1099               	.LBB300:
 1100               	.LBI300:
 468:./tmk_core/protocol/lufa/LUFA-git/LUFA/Drivers/USB/Core/AVR8/../AVR8/../AVR8/Endpoint_AVR8.h **** 			{
 1101               		.loc 2 468 23 view .LVU265
 1102               	.LBB301:
 471:./tmk_core/protocol/lufa/LUFA-git/LUFA/Drivers/USB/Core/AVR8/../AVR8/../AVR8/Endpoint_AVR8.h **** 				#else
 1103               		.loc 2 471 6 view .LVU266
 471:./tmk_core/protocol/lufa/LUFA-git/LUFA/Drivers/USB/Core/AVR8/../AVR8/../AVR8/Endpoint_AVR8.h **** 				#else
 1104               		.loc 2 471 13 is_stmt 0 view .LVU267
 1105 0050 8091 E800 		lds r24,232
 1106 0054 8B77      		andi r24,lo8(123)
 1107 0056 8093 E800 		sts 232,r24
 1108               	.LBE301:
 1109               	.LBE300:
  60:./tmk_core/protocol/lufa/LUFA-git/LUFA/Drivers/USB/Core/AVR8/Template/Template_Endpoint_RW.c **** 			{
 1110               		.loc 3 60 4 is_stmt 1 view .LVU268
  60:./tmk_core/protocol/lufa/LUFA-git/LUFA/Drivers/USB/Core/AVR8/Template/Template_Endpoint_RW.c **** 			{
 1111               		.loc 3 60 7 is_stmt 0 view .LVU269
 1112 005a E114      		cp r14,__zero_reg__
 1113 005c F104      		cpc r15,__zero_reg__
 1114 005e 01F0      		breq .L66
  62:./tmk_core/protocol/lufa/LUFA-git/LUFA/Drivers/USB/Core/AVR8/Template/Template_Endpoint_RW.c **** 				return ENDPOINT_RWSTREAM_IncompleteTransfer;
 1115               		.loc 3 62 5 is_stmt 1 view .LVU270
  62:./tmk_core/protocol/lufa/LUFA-git/LUFA/Drivers/USB/Core/AVR8/Template/Template_Endpoint_RW.c **** 				return ENDPOINT_RWSTREAM_IncompleteTransfer;
 1116               		.loc 3 62 21 is_stmt 0 view .LVU271
 1117 0060 F701      		movw r30,r14
 1118 0062 8081      		ld r24,Z
 1119 0064 9181      		ldd r25,Z+1
 1120 0066 8A0D      		add r24,r10
 1121 0068 9B1D      		adc r25,r11
 1122 006a 9183      		std Z+1,r25
 1123 006c 8083      		st Z,r24
  63:./tmk_core/protocol/lufa/LUFA-git/LUFA/Drivers/USB/Core/AVR8/Template/Template_Endpoint_RW.c **** 			}
 1124               		.loc 3 63 5 is_stmt 1 view .LVU272
  63:./tmk_core/protocol/lufa/LUFA-git/LUFA/Drivers/USB/Core/AVR8/Template/Template_Endpoint_RW.c **** 			}
 1125               		.loc 3 63 12 is_stmt 0 view .LVU273
 1126 006e 85E0      		ldi r24,lo8(5)
 1127 0070 D82E      		mov r13,r24
 1128               	.L61:
 1129               		.loc 3 79 1 view .LVU274
 1130 0072 8D2D      		mov r24,r13
 1131               	/* epilogue start */
 1132 0074 DF91      		pop r29
 1133 0076 CF91      		pop r28
 1134 0078 1F91      		pop r17
 1135 007a 0F91      		pop r16
 1136 007c FF90      		pop r15
 1137 007e EF90      		pop r14
 1138               	.LVL89:
 1139               		.loc 3 79 1 view .LVU275
 1140 0080 DF90      		pop r13
 1141 0082 BF90      		pop r11
 1142 0084 AF90      		pop r10
 1143 0086 0895      		ret
 1144               	.LVL90:
 1145               	.L66:
  66:./tmk_core/protocol/lufa/LUFA-git/LUFA/Drivers/USB/Core/AVR8/Template/Template_Endpoint_RW.c **** 			  return ErrorCode;
 1146               		.loc 3 66 4 is_stmt 1 view .LVU276
  66:./tmk_core/protocol/lufa/LUFA-git/LUFA/Drivers/USB/Core/AVR8/Template/Template_Endpoint_RW.c **** 			  return ErrorCode;
 1147               		.loc 3 66 21 is_stmt 0 view .LVU277
 1148 0088 0E94 0000 		call Endpoint_WaitUntilReady
 1149               	.LVL91:
  66:./tmk_core/protocol/lufa/LUFA-git/LUFA/Drivers/USB/Core/AVR8/Template/Template_Endpoint_RW.c **** 			  return ErrorCode;
 1150               		.loc 3 66 7 view .LVU278
 1151 008c 8823      		tst r24
 1152 008e 01F0      		breq .L67
  66:./tmk_core/protocol/lufa/LUFA-git/LUFA/Drivers/USB/Core/AVR8/Template/Template_Endpoint_RW.c **** 			  return ErrorCode;
 1153               		.loc 3 66 21 view .LVU279
 1154 0090 D82E      		mov r13,r24
 1155 0092 00C0      		rjmp .L61
 1156               	.LVL92:
 1157               	.L65:
  71:./tmk_core/protocol/lufa/LUFA-git/LUFA/Drivers/USB/Core/AVR8/Template/Template_Endpoint_RW.c **** 			TEMPLATE_BUFFER_MOVE(DataStream, 1);
 1158               		.loc 3 71 4 is_stmt 1 view .LVU280
 1159               	.LBB302:
 1160               	.LBI302:
 540:./tmk_core/protocol/lufa/LUFA-git/LUFA/Drivers/USB/Core/AVR8/../AVR8/../AVR8/Endpoint_AVR8.h **** 			{
 1161               		.loc 2 540 26 view .LVU281
 1162               	.LBB303:
 542:./tmk_core/protocol/lufa/LUFA-git/LUFA/Drivers/USB/Core/AVR8/../AVR8/../AVR8/Endpoint_AVR8.h **** 			}
 1163               		.loc 2 542 5 view .LVU282
 542:./tmk_core/protocol/lufa/LUFA-git/LUFA/Drivers/USB/Core/AVR8/../AVR8/../AVR8/Endpoint_AVR8.h **** 			}
 1164               		.loc 2 542 12 is_stmt 0 view .LVU283
 1165 0094 8091 F100 		lds r24,241
 1166               	.LBE303:
 1167               	.LBE302:
  71:./tmk_core/protocol/lufa/LUFA-git/LUFA/Drivers/USB/Core/AVR8/Template/Template_Endpoint_RW.c **** 			TEMPLATE_BUFFER_MOVE(DataStream, 1);
 1168               		.loc 3 71 4 view .LVU284
 1169 0098 8883      		st Y,r24
  72:./tmk_core/protocol/lufa/LUFA-git/LUFA/Drivers/USB/Core/AVR8/Template/Template_Endpoint_RW.c **** 			Length--;
 1170               		.loc 3 72 4 is_stmt 1 view .LVU285
 1171 009a 2197      		sbiw r28,1
 1172               	.LVL93:
  73:./tmk_core/protocol/lufa/LUFA-git/LUFA/Drivers/USB/Core/AVR8/Template/Template_Endpoint_RW.c **** 			BytesInTransfer++;
 1173               		.loc 3 73 4 view .LVU286
  73:./tmk_core/protocol/lufa/LUFA-git/LUFA/Drivers/USB/Core/AVR8/Template/Template_Endpoint_RW.c **** 			BytesInTransfer++;
 1174               		.loc 3 73 10 is_stmt 0 view .LVU287
 1175 009c 0150      		subi r16,1
 1176 009e 1109      		sbc r17,__zero_reg__
 1177               	.LVL94:
  74:./tmk_core/protocol/lufa/LUFA-git/LUFA/Drivers/USB/Core/AVR8/Template/Template_Endpoint_RW.c **** 		}
 1178               		.loc 3 74 4 is_stmt 1 view .LVU288
  74:./tmk_core/protocol/lufa/LUFA-git/LUFA/Drivers/USB/Core/AVR8/Template/Template_Endpoint_RW.c **** 		}
 1179               		.loc 3 74 19 is_stmt 0 view .LVU289
 1180 00a0 FFEF      		ldi r31,-1
 1181 00a2 AF1A      		sub r10,r31
 1182 00a4 BF0A      		sbc r11,r31
 1183               	.LVL95:
  74:./tmk_core/protocol/lufa/LUFA-git/LUFA/Drivers/USB/Core/AVR8/Template/Template_Endpoint_RW.c **** 		}
 1184               		.loc 3 74 19 view .LVU290
 1185 00a6 00C0      		rjmp .L64
 1186               		.cfi_endproc
 1187               	.LFE94:
 1189               		.section	.text.Endpoint_Write_PStream_LE,"ax",@progbits
 1190               	.global	Endpoint_Write_PStream_LE
 1192               	Endpoint_Write_PStream_LE:
 1193               	.LVL96:
 1194               	.LFB95:
  36:./tmk_core/protocol/lufa/LUFA-git/LUFA/Drivers/USB/Core/AVR8/Template/Template_Endpoint_RW.c **** 	uint8_t* DataStream      = ((uint8_t*)Buffer + TEMPLATE_BUFFER_OFFSET(Length));
 1195               		.loc 3 36 1 is_stmt 1 view -0
 1196               		.cfi_startproc
  36:./tmk_core/protocol/lufa/LUFA-git/LUFA/Drivers/USB/Core/AVR8/Template/Template_Endpoint_RW.c **** 	uint8_t* DataStream      = ((uint8_t*)Buffer + TEMPLATE_BUFFER_OFFSET(Length));
 1197               		.loc 3 36 1 is_stmt 0 view .LVU292
 1198 0000 AF92      		push r10
 1199               	.LCFI50:
 1200               		.cfi_def_cfa_offset 3
 1201               		.cfi_offset 10, -2
 1202 0002 BF92      		push r11
 1203               	.LCFI51:
 1204               		.cfi_def_cfa_offset 4
 1205               		.cfi_offset 11, -3
 1206 0004 DF92      		push r13
 1207               	.LCFI52:
 1208               		.cfi_def_cfa_offset 5
 1209               		.cfi_offset 13, -4
 1210 0006 EF92      		push r14
 1211               	.LCFI53:
 1212               		.cfi_def_cfa_offset 6
 1213               		.cfi_offset 14, -5
 1214 0008 FF92      		push r15
 1215               	.LCFI54:
 1216               		.cfi_def_cfa_offset 7
 1217               		.cfi_offset 15, -6
 1218 000a 0F93      		push r16
 1219               	.LCFI55:
 1220               		.cfi_def_cfa_offset 8
 1221               		.cfi_offset 16, -7
 1222 000c 1F93      		push r17
 1223               	.LCFI56:
 1224               		.cfi_def_cfa_offset 9
 1225               		.cfi_offset 17, -8
 1226 000e CF93      		push r28
 1227               	.LCFI57:
 1228               		.cfi_def_cfa_offset 10
 1229               		.cfi_offset 28, -9
 1230 0010 DF93      		push r29
 1231               	.LCFI58:
 1232               		.cfi_def_cfa_offset 11
 1233               		.cfi_offset 29, -10
 1234               	/* prologue: function */
 1235               	/* frame size = 0 */
 1236               	/* stack size = 9 */
 1237               	.L__stack_usage = 9
 1238 0012 8C01      		movw r16,r24
 1239 0014 EB01      		movw r28,r22
 1240 0016 7A01      		movw r14,r20
  37:./tmk_core/protocol/lufa/LUFA-git/LUFA/Drivers/USB/Core/AVR8/Template/Template_Endpoint_RW.c **** 	uint16_t BytesInTransfer = 0;
 1241               		.loc 3 37 2 is_stmt 1 view .LVU293
 1242               	.LVL97:
  38:./tmk_core/protocol/lufa/LUFA-git/LUFA/Drivers/USB/Core/AVR8/Template/Template_Endpoint_RW.c **** 	uint8_t  ErrorCode;
 1243               		.loc 3 38 2 view .LVU294
  39:./tmk_core/protocol/lufa/LUFA-git/LUFA/Drivers/USB/Core/AVR8/Template/Template_Endpoint_RW.c **** 
 1244               		.loc 3 39 2 view .LVU295
  41:./tmk_core/protocol/lufa/LUFA-git/LUFA/Drivers/USB/Core/AVR8/Template/Template_Endpoint_RW.c **** 	  return ErrorCode;
 1245               		.loc 3 41 2 view .LVU296
  41:./tmk_core/protocol/lufa/LUFA-git/LUFA/Drivers/USB/Core/AVR8/Template/Template_Endpoint_RW.c **** 	  return ErrorCode;
 1246               		.loc 3 41 19 is_stmt 0 view .LVU297
 1247 0018 0E94 0000 		call Endpoint_WaitUntilReady
 1248               	.LVL98:
  41:./tmk_core/protocol/lufa/LUFA-git/LUFA/Drivers/USB/Core/AVR8/Template/Template_Endpoint_RW.c **** 	  return ErrorCode;
 1249               		.loc 3 41 19 view .LVU298
 1250 001c D82E      		mov r13,r24
 1251               	.LVL99:
  41:./tmk_core/protocol/lufa/LUFA-git/LUFA/Drivers/USB/Core/AVR8/Template/Template_Endpoint_RW.c **** 	  return ErrorCode;
 1252               		.loc 3 41 5 view .LVU299
 1253 001e 8111      		cpse r24,__zero_reg__
 1254 0020 00C0      		rjmp .L73
  44:./tmk_core/protocol/lufa/LUFA-git/LUFA/Drivers/USB/Core/AVR8/Template/Template_Endpoint_RW.c **** 	{
 1255               		.loc 3 44 2 is_stmt 1 view .LVU300
  44:./tmk_core/protocol/lufa/LUFA-git/LUFA/Drivers/USB/Core/AVR8/Template/Template_Endpoint_RW.c **** 	{
 1256               		.loc 3 44 5 is_stmt 0 view .LVU301
 1257 0022 E114      		cp r14,__zero_reg__
 1258 0024 F104      		cpc r15,__zero_reg__
 1259 0026 01F0      		breq .L75
  46:./tmk_core/protocol/lufa/LUFA-git/LUFA/Drivers/USB/Core/AVR8/Template/Template_Endpoint_RW.c **** 		TEMPLATE_BUFFER_MOVE(DataStream, *BytesProcessed);
 1260               		.loc 3 46 3 is_stmt 1 view .LVU302
  46:./tmk_core/protocol/lufa/LUFA-git/LUFA/Drivers/USB/Core/AVR8/Template/Template_Endpoint_RW.c **** 		TEMPLATE_BUFFER_MOVE(DataStream, *BytesProcessed);
 1261               		.loc 3 46 13 is_stmt 0 view .LVU303
 1262 0028 F701      		movw r30,r14
 1263 002a 8081      		ld r24,Z
 1264 002c 9181      		ldd r25,Z+1
  46:./tmk_core/protocol/lufa/LUFA-git/LUFA/Drivers/USB/Core/AVR8/Template/Template_Endpoint_RW.c **** 		TEMPLATE_BUFFER_MOVE(DataStream, *BytesProcessed);
 1265               		.loc 3 46 10 view .LVU304
 1266 002e C81B      		sub r28,r24
 1267 0030 D90B      		sbc r29,r25
 1268               	.LVL100:
  47:./tmk_core/protocol/lufa/LUFA-git/LUFA/Drivers/USB/Core/AVR8/Template/Template_Endpoint_RW.c **** 	}
 1269               		.loc 3 47 3 is_stmt 1 view .LVU305
 1270 0032 080F      		add r16,r24
 1271 0034 191F      		adc r17,r25
 1272               	.LVL101:
 1273               	.L75:
  36:./tmk_core/protocol/lufa/LUFA-git/LUFA/Drivers/USB/Core/AVR8/Template/Template_Endpoint_RW.c **** 	uint8_t* DataStream      = ((uint8_t*)Buffer + TEMPLATE_BUFFER_OFFSET(Length));
 1274               		.loc 3 36 1 is_stmt 0 view .LVU306
 1275 0036 A12C      		mov r10,__zero_reg__
 1276 0038 B12C      		mov r11,__zero_reg__
 1277               	.LVL102:
 1278               	.L76:
  50:./tmk_core/protocol/lufa/LUFA-git/LUFA/Drivers/USB/Core/AVR8/Template/Template_Endpoint_RW.c **** 	{
 1279               		.loc 3 50 9 is_stmt 1 view .LVU307
 1280 003a 2097      		sbiw r28,0
 1281 003c 01F0      		breq .L73
 1282               	.LVL103:
 1283               	.L79:
  52:./tmk_core/protocol/lufa/LUFA-git/LUFA/Drivers/USB/Core/AVR8/Template/Template_Endpoint_RW.c **** 		{
 1284               		.loc 3 52 3 view .LVU308
 1285               	.LBB304:
 1286               	.LBI304:
 358:./tmk_core/protocol/lufa/LUFA-git/LUFA/Drivers/USB/Core/AVR8/../AVR8/../AVR8/Endpoint_AVR8.h **** 			{
 1287               		.loc 2 358 23 view .LVU309
 1288               	.LBB305:
 360:./tmk_core/protocol/lufa/LUFA-git/LUFA/Drivers/USB/Core/AVR8/../AVR8/../AVR8/Endpoint_AVR8.h **** 			}
 1289               		.loc 2 360 5 view .LVU310
 360:./tmk_core/protocol/lufa/LUFA-git/LUFA/Drivers/USB/Core/AVR8/../AVR8/../AVR8/Endpoint_AVR8.h **** 			}
 1290               		.loc 2 360 14 is_stmt 0 view .LVU311
 1291 003e 8091 E800 		lds r24,232
 1292               	.LBE305:
 1293               	.LBE304:
  52:./tmk_core/protocol/lufa/LUFA-git/LUFA/Drivers/USB/Core/AVR8/Template/Template_Endpoint_RW.c **** 		{
 1294               		.loc 3 52 6 view .LVU312
 1295 0042 85FD      		sbrc r24,5
 1296 0044 00C0      		rjmp .L77
  54:./tmk_core/protocol/lufa/LUFA-git/LUFA/Drivers/USB/Core/AVR8/Template/Template_Endpoint_RW.c **** 
 1297               		.loc 3 54 4 is_stmt 1 view .LVU313
 1298               	.LBB306:
 1299               	.LBI306:
 453:./tmk_core/protocol/lufa/LUFA-git/LUFA/Drivers/USB/Core/AVR8/../AVR8/../AVR8/Endpoint_AVR8.h **** 			{
 1300               		.loc 2 453 23 view .LVU314
 1301               	.LBB307:
 456:./tmk_core/protocol/lufa/LUFA-git/LUFA/Drivers/USB/Core/AVR8/../AVR8/../AVR8/Endpoint_AVR8.h **** 				#else
 1302               		.loc 2 456 6 view .LVU315
 456:./tmk_core/protocol/lufa/LUFA-git/LUFA/Drivers/USB/Core/AVR8/../AVR8/../AVR8/Endpoint_AVR8.h **** 				#else
 1303               		.loc 2 456 13 is_stmt 0 view .LVU316
 1304 0046 8091 E800 		lds r24,232
 1305 004a 8E77      		andi r24,lo8(126)
 1306 004c 8093 E800 		sts 232,r24
 1307               	.LBE307:
 1308               	.LBE306:
  60:./tmk_core/protocol/lufa/LUFA-git/LUFA/Drivers/USB/Core/AVR8/Template/Template_Endpoint_RW.c **** 			{
 1309               		.loc 3 60 4 is_stmt 1 view .LVU317
  60:./tmk_core/protocol/lufa/LUFA-git/LUFA/Drivers/USB/Core/AVR8/Template/Template_Endpoint_RW.c **** 			{
 1310               		.loc 3 60 7 is_stmt 0 view .LVU318
 1311 0050 E114      		cp r14,__zero_reg__
 1312 0052 F104      		cpc r15,__zero_reg__
 1313 0054 01F0      		breq .L78
  62:./tmk_core/protocol/lufa/LUFA-git/LUFA/Drivers/USB/Core/AVR8/Template/Template_Endpoint_RW.c **** 				return ENDPOINT_RWSTREAM_IncompleteTransfer;
 1314               		.loc 3 62 5 is_stmt 1 view .LVU319
  62:./tmk_core/protocol/lufa/LUFA-git/LUFA/Drivers/USB/Core/AVR8/Template/Template_Endpoint_RW.c **** 				return ENDPOINT_RWSTREAM_IncompleteTransfer;
 1315               		.loc 3 62 21 is_stmt 0 view .LVU320
 1316 0056 F701      		movw r30,r14
 1317 0058 8081      		ld r24,Z
 1318 005a 9181      		ldd r25,Z+1
 1319 005c 8A0D      		add r24,r10
 1320 005e 9B1D      		adc r25,r11
 1321 0060 9183      		std Z+1,r25
 1322 0062 8083      		st Z,r24
  63:./tmk_core/protocol/lufa/LUFA-git/LUFA/Drivers/USB/Core/AVR8/Template/Template_Endpoint_RW.c **** 			}
 1323               		.loc 3 63 5 is_stmt 1 view .LVU321
  63:./tmk_core/protocol/lufa/LUFA-git/LUFA/Drivers/USB/Core/AVR8/Template/Template_Endpoint_RW.c **** 			}
 1324               		.loc 3 63 12 is_stmt 0 view .LVU322
 1325 0064 85E0      		ldi r24,lo8(5)
 1326 0066 D82E      		mov r13,r24
 1327               	.L73:
 1328               		.loc 3 79 1 view .LVU323
 1329 0068 8D2D      		mov r24,r13
 1330               	/* epilogue start */
 1331 006a DF91      		pop r29
 1332 006c CF91      		pop r28
 1333 006e 1F91      		pop r17
 1334 0070 0F91      		pop r16
 1335 0072 FF90      		pop r15
 1336 0074 EF90      		pop r14
 1337               	.LVL104:
 1338               		.loc 3 79 1 view .LVU324
 1339 0076 DF90      		pop r13
 1340 0078 BF90      		pop r11
 1341 007a AF90      		pop r10
 1342 007c 0895      		ret
 1343               	.LVL105:
 1344               	.L78:
  66:./tmk_core/protocol/lufa/LUFA-git/LUFA/Drivers/USB/Core/AVR8/Template/Template_Endpoint_RW.c **** 			  return ErrorCode;
 1345               		.loc 3 66 4 is_stmt 1 view .LVU325
  66:./tmk_core/protocol/lufa/LUFA-git/LUFA/Drivers/USB/Core/AVR8/Template/Template_Endpoint_RW.c **** 			  return ErrorCode;
 1346               		.loc 3 66 21 is_stmt 0 view .LVU326
 1347 007e 0E94 0000 		call Endpoint_WaitUntilReady
 1348               	.LVL106:
  66:./tmk_core/protocol/lufa/LUFA-git/LUFA/Drivers/USB/Core/AVR8/Template/Template_Endpoint_RW.c **** 			  return ErrorCode;
 1349               		.loc 3 66 7 view .LVU327
 1350 0082 8823      		tst r24
 1351 0084 01F0      		breq .L79
  66:./tmk_core/protocol/lufa/LUFA-git/LUFA/Drivers/USB/Core/AVR8/Template/Template_Endpoint_RW.c **** 			  return ErrorCode;
 1352               		.loc 3 66 21 view .LVU328
 1353 0086 D82E      		mov r13,r24
 1354 0088 00C0      		rjmp .L73
 1355               	.LVL107:
 1356               	.L77:
  71:./tmk_core/protocol/lufa/LUFA-git/LUFA/Drivers/USB/Core/AVR8/Template/Template_Endpoint_RW.c **** 			TEMPLATE_BUFFER_MOVE(DataStream, 1);
 1357               		.loc 3 71 4 is_stmt 1 view .LVU329
 1358               	.LBB308:
  71:./tmk_core/protocol/lufa/LUFA-git/LUFA/Drivers/USB/Core/AVR8/Template/Template_Endpoint_RW.c **** 			TEMPLATE_BUFFER_MOVE(DataStream, 1);
 1359               		.loc 3 71 4 view .LVU330
  71:./tmk_core/protocol/lufa/LUFA-git/LUFA/Drivers/USB/Core/AVR8/Template/Template_Endpoint_RW.c **** 			TEMPLATE_BUFFER_MOVE(DataStream, 1);
 1360               		.loc 3 71 4 view .LVU331
  71:./tmk_core/protocol/lufa/LUFA-git/LUFA/Drivers/USB/Core/AVR8/Template/Template_Endpoint_RW.c **** 			TEMPLATE_BUFFER_MOVE(DataStream, 1);
 1361               		.loc 3 71 4 view .LVU332
 1362 008a F801      		movw r30,r16
 1363               	/* #APP */
 1364               	 ;  71 "./tmk_core/protocol/lufa/LUFA-git/LUFA/Drivers/USB/Core/AVR8/Template/Template_Endpoint_RW.
 1365 008c 8491      		lpm r24, Z
 1366               		
 1367               	 ;  0 "" 2
 1368               	.LVL108:
  71:./tmk_core/protocol/lufa/LUFA-git/LUFA/Drivers/USB/Core/AVR8/Template/Template_Endpoint_RW.c **** 			TEMPLATE_BUFFER_MOVE(DataStream, 1);
 1369               		.loc 3 71 4 view .LVU333
  71:./tmk_core/protocol/lufa/LUFA-git/LUFA/Drivers/USB/Core/AVR8/Template/Template_Endpoint_RW.c **** 			TEMPLATE_BUFFER_MOVE(DataStream, 1);
 1370               		.loc 3 71 4 is_stmt 0 view .LVU334
 1371               	/* #NOAPP */
 1372               	.LBE308:
 1373               	.LBB309:
 1374               	.LBI309:
 552:./tmk_core/protocol/lufa/LUFA-git/LUFA/Drivers/USB/Core/AVR8/../AVR8/../AVR8/Endpoint_AVR8.h **** 			{
 1375               		.loc 2 552 23 is_stmt 1 view .LVU335
 1376               	.LBB310:
 554:./tmk_core/protocol/lufa/LUFA-git/LUFA/Drivers/USB/Core/AVR8/../AVR8/../AVR8/Endpoint_AVR8.h **** 			}
 1377               		.loc 2 554 5 view .LVU336
 554:./tmk_core/protocol/lufa/LUFA-git/LUFA/Drivers/USB/Core/AVR8/../AVR8/../AVR8/Endpoint_AVR8.h **** 			}
 1378               		.loc 2 554 12 is_stmt 0 view .LVU337
 1379 008e 8093 F100 		sts 241,r24
 1380               	.LVL109:
 554:./tmk_core/protocol/lufa/LUFA-git/LUFA/Drivers/USB/Core/AVR8/../AVR8/../AVR8/Endpoint_AVR8.h **** 			}
 1381               		.loc 2 554 12 view .LVU338
 1382               	.LBE310:
 1383               	.LBE309:
  72:./tmk_core/protocol/lufa/LUFA-git/LUFA/Drivers/USB/Core/AVR8/Template/Template_Endpoint_RW.c **** 			Length--;
 1384               		.loc 3 72 4 is_stmt 1 view .LVU339
 1385 0092 0F5F      		subi r16,-1
 1386 0094 1F4F      		sbci r17,-1
 1387               	.LVL110:
  73:./tmk_core/protocol/lufa/LUFA-git/LUFA/Drivers/USB/Core/AVR8/Template/Template_Endpoint_RW.c **** 			BytesInTransfer++;
 1388               		.loc 3 73 4 view .LVU340
  73:./tmk_core/protocol/lufa/LUFA-git/LUFA/Drivers/USB/Core/AVR8/Template/Template_Endpoint_RW.c **** 			BytesInTransfer++;
 1389               		.loc 3 73 10 is_stmt 0 view .LVU341
 1390 0096 2197      		sbiw r28,1
 1391               	.LVL111:
  74:./tmk_core/protocol/lufa/LUFA-git/LUFA/Drivers/USB/Core/AVR8/Template/Template_Endpoint_RW.c **** 		}
 1392               		.loc 3 74 4 is_stmt 1 view .LVU342
  74:./tmk_core/protocol/lufa/LUFA-git/LUFA/Drivers/USB/Core/AVR8/Template/Template_Endpoint_RW.c **** 		}
 1393               		.loc 3 74 19 is_stmt 0 view .LVU343
 1394 0098 FFEF      		ldi r31,-1
 1395 009a AF1A      		sub r10,r31
 1396 009c BF0A      		sbc r11,r31
 1397               	.LVL112:
  74:./tmk_core/protocol/lufa/LUFA-git/LUFA/Drivers/USB/Core/AVR8/Template/Template_Endpoint_RW.c **** 		}
 1398               		.loc 3 74 19 view .LVU344
 1399 009e 00C0      		rjmp .L76
 1400               		.cfi_endproc
 1401               	.LFE95:
 1403               		.section	.text.Endpoint_Write_PStream_BE,"ax",@progbits
 1404               	.global	Endpoint_Write_PStream_BE
 1406               	Endpoint_Write_PStream_BE:
 1407               	.LVL113:
 1408               	.LFB96:
  36:./tmk_core/protocol/lufa/LUFA-git/LUFA/Drivers/USB/Core/AVR8/Template/Template_Endpoint_RW.c **** 	uint8_t* DataStream      = ((uint8_t*)Buffer + TEMPLATE_BUFFER_OFFSET(Length));
 1409               		.loc 3 36 1 is_stmt 1 view -0
 1410               		.cfi_startproc
  36:./tmk_core/protocol/lufa/LUFA-git/LUFA/Drivers/USB/Core/AVR8/Template/Template_Endpoint_RW.c **** 	uint8_t* DataStream      = ((uint8_t*)Buffer + TEMPLATE_BUFFER_OFFSET(Length));
 1411               		.loc 3 36 1 is_stmt 0 view .LVU346
 1412 0000 AF92      		push r10
 1413               	.LCFI59:
 1414               		.cfi_def_cfa_offset 3
 1415               		.cfi_offset 10, -2
 1416 0002 BF92      		push r11
 1417               	.LCFI60:
 1418               		.cfi_def_cfa_offset 4
 1419               		.cfi_offset 11, -3
 1420 0004 DF92      		push r13
 1421               	.LCFI61:
 1422               		.cfi_def_cfa_offset 5
 1423               		.cfi_offset 13, -4
 1424 0006 EF92      		push r14
 1425               	.LCFI62:
 1426               		.cfi_def_cfa_offset 6
 1427               		.cfi_offset 14, -5
 1428 0008 FF92      		push r15
 1429               	.LCFI63:
 1430               		.cfi_def_cfa_offset 7
 1431               		.cfi_offset 15, -6
 1432 000a 0F93      		push r16
 1433               	.LCFI64:
 1434               		.cfi_def_cfa_offset 8
 1435               		.cfi_offset 16, -7
 1436 000c 1F93      		push r17
 1437               	.LCFI65:
 1438               		.cfi_def_cfa_offset 9
 1439               		.cfi_offset 17, -8
 1440 000e CF93      		push r28
 1441               	.LCFI66:
 1442               		.cfi_def_cfa_offset 10
 1443               		.cfi_offset 28, -9
 1444 0010 DF93      		push r29
 1445               	.LCFI67:
 1446               		.cfi_def_cfa_offset 11
 1447               		.cfi_offset 29, -10
 1448               	/* prologue: function */
 1449               	/* frame size = 0 */
 1450               	/* stack size = 9 */
 1451               	.L__stack_usage = 9
 1452 0012 EC01      		movw r28,r24
 1453 0014 8B01      		movw r16,r22
 1454 0016 7A01      		movw r14,r20
  37:./tmk_core/protocol/lufa/LUFA-git/LUFA/Drivers/USB/Core/AVR8/Template/Template_Endpoint_RW.c **** 	uint16_t BytesInTransfer = 0;
 1455               		.loc 3 37 2 is_stmt 1 view .LVU347
 1456               	.LVL114:
  38:./tmk_core/protocol/lufa/LUFA-git/LUFA/Drivers/USB/Core/AVR8/Template/Template_Endpoint_RW.c **** 	uint8_t  ErrorCode;
 1457               		.loc 3 38 2 view .LVU348
  39:./tmk_core/protocol/lufa/LUFA-git/LUFA/Drivers/USB/Core/AVR8/Template/Template_Endpoint_RW.c **** 
 1458               		.loc 3 39 2 view .LVU349
  41:./tmk_core/protocol/lufa/LUFA-git/LUFA/Drivers/USB/Core/AVR8/Template/Template_Endpoint_RW.c **** 	  return ErrorCode;
 1459               		.loc 3 41 2 view .LVU350
  41:./tmk_core/protocol/lufa/LUFA-git/LUFA/Drivers/USB/Core/AVR8/Template/Template_Endpoint_RW.c **** 	  return ErrorCode;
 1460               		.loc 3 41 19 is_stmt 0 view .LVU351
 1461 0018 0E94 0000 		call Endpoint_WaitUntilReady
 1462               	.LVL115:
  41:./tmk_core/protocol/lufa/LUFA-git/LUFA/Drivers/USB/Core/AVR8/Template/Template_Endpoint_RW.c **** 	  return ErrorCode;
 1463               		.loc 3 41 19 view .LVU352
 1464 001c D82E      		mov r13,r24
 1465               	.LVL116:
  41:./tmk_core/protocol/lufa/LUFA-git/LUFA/Drivers/USB/Core/AVR8/Template/Template_Endpoint_RW.c **** 	  return ErrorCode;
 1466               		.loc 3 41 5 view .LVU353
 1467 001e 8111      		cpse r24,__zero_reg__
 1468 0020 00C0      		rjmp .L85
  37:./tmk_core/protocol/lufa/LUFA-git/LUFA/Drivers/USB/Core/AVR8/Template/Template_Endpoint_RW.c **** 	uint16_t BytesInTransfer = 0;
 1469               		.loc 3 37 47 view .LVU354
 1470 0022 C801      		movw r24,r16
 1471 0024 0197      		sbiw r24,1
 1472               	.LVL117:
  37:./tmk_core/protocol/lufa/LUFA-git/LUFA/Drivers/USB/Core/AVR8/Template/Template_Endpoint_RW.c **** 	uint16_t BytesInTransfer = 0;
 1473               		.loc 3 37 11 view .LVU355
 1474 0026 C80F      		add r28,r24
 1475 0028 D91F      		adc r29,r25
 1476               	.LVL118:
  44:./tmk_core/protocol/lufa/LUFA-git/LUFA/Drivers/USB/Core/AVR8/Template/Template_Endpoint_RW.c **** 	{
 1477               		.loc 3 44 2 is_stmt 1 view .LVU356
  44:./tmk_core/protocol/lufa/LUFA-git/LUFA/Drivers/USB/Core/AVR8/Template/Template_Endpoint_RW.c **** 	{
 1478               		.loc 3 44 5 is_stmt 0 view .LVU357
 1479 002a E114      		cp r14,__zero_reg__
 1480 002c F104      		cpc r15,__zero_reg__
 1481 002e 01F0      		breq .L87
  46:./tmk_core/protocol/lufa/LUFA-git/LUFA/Drivers/USB/Core/AVR8/Template/Template_Endpoint_RW.c **** 		TEMPLATE_BUFFER_MOVE(DataStream, *BytesProcessed);
 1482               		.loc 3 46 3 is_stmt 1 view .LVU358
  46:./tmk_core/protocol/lufa/LUFA-git/LUFA/Drivers/USB/Core/AVR8/Template/Template_Endpoint_RW.c **** 		TEMPLATE_BUFFER_MOVE(DataStream, *BytesProcessed);
 1483               		.loc 3 46 13 is_stmt 0 view .LVU359
 1484 0030 F701      		movw r30,r14
 1485 0032 8081      		ld r24,Z
 1486 0034 9181      		ldd r25,Z+1
 1487               	.LVL119:
  46:./tmk_core/protocol/lufa/LUFA-git/LUFA/Drivers/USB/Core/AVR8/Template/Template_Endpoint_RW.c **** 		TEMPLATE_BUFFER_MOVE(DataStream, *BytesProcessed);
 1488               		.loc 3 46 10 view .LVU360
 1489 0036 081B      		sub r16,r24
 1490 0038 190B      		sbc r17,r25
 1491               	.LVL120:
  47:./tmk_core/protocol/lufa/LUFA-git/LUFA/Drivers/USB/Core/AVR8/Template/Template_Endpoint_RW.c **** 	}
 1492               		.loc 3 47 3 is_stmt 1 view .LVU361
 1493 003a C81B      		sub r28,r24
 1494 003c D90B      		sbc r29,r25
 1495               	.LVL121:
 1496               	.L87:
  36:./tmk_core/protocol/lufa/LUFA-git/LUFA/Drivers/USB/Core/AVR8/Template/Template_Endpoint_RW.c **** 	uint8_t* DataStream      = ((uint8_t*)Buffer + TEMPLATE_BUFFER_OFFSET(Length));
 1497               		.loc 3 36 1 is_stmt 0 view .LVU362
 1498 003e A12C      		mov r10,__zero_reg__
 1499 0040 B12C      		mov r11,__zero_reg__
 1500               	.LVL122:
 1501               	.L88:
  50:./tmk_core/protocol/lufa/LUFA-git/LUFA/Drivers/USB/Core/AVR8/Template/Template_Endpoint_RW.c **** 	{
 1502               		.loc 3 50 9 is_stmt 1 view .LVU363
 1503 0042 0115      		cp r16,__zero_reg__
 1504 0044 1105      		cpc r17,__zero_reg__
 1505 0046 01F0      		breq .L85
 1506               	.LVL123:
 1507               	.L91:
  52:./tmk_core/protocol/lufa/LUFA-git/LUFA/Drivers/USB/Core/AVR8/Template/Template_Endpoint_RW.c **** 		{
 1508               		.loc 3 52 3 view .LVU364
 1509               	.LBB311:
 1510               	.LBI311:
 358:./tmk_core/protocol/lufa/LUFA-git/LUFA/Drivers/USB/Core/AVR8/../AVR8/../AVR8/Endpoint_AVR8.h **** 			{
 1511               		.loc 2 358 23 view .LVU365
 1512               	.LBB312:
 360:./tmk_core/protocol/lufa/LUFA-git/LUFA/Drivers/USB/Core/AVR8/../AVR8/../AVR8/Endpoint_AVR8.h **** 			}
 1513               		.loc 2 360 5 view .LVU366
 360:./tmk_core/protocol/lufa/LUFA-git/LUFA/Drivers/USB/Core/AVR8/../AVR8/../AVR8/Endpoint_AVR8.h **** 			}
 1514               		.loc 2 360 14 is_stmt 0 view .LVU367
 1515 0048 8091 E800 		lds r24,232
 1516               	.LBE312:
 1517               	.LBE311:
  52:./tmk_core/protocol/lufa/LUFA-git/LUFA/Drivers/USB/Core/AVR8/Template/Template_Endpoint_RW.c **** 		{
 1518               		.loc 3 52 6 view .LVU368
 1519 004c 85FD      		sbrc r24,5
 1520 004e 00C0      		rjmp .L89
  54:./tmk_core/protocol/lufa/LUFA-git/LUFA/Drivers/USB/Core/AVR8/Template/Template_Endpoint_RW.c **** 
 1521               		.loc 3 54 4 is_stmt 1 view .LVU369
 1522               	.LBB313:
 1523               	.LBI313:
 453:./tmk_core/protocol/lufa/LUFA-git/LUFA/Drivers/USB/Core/AVR8/../AVR8/../AVR8/Endpoint_AVR8.h **** 			{
 1524               		.loc 2 453 23 view .LVU370
 1525               	.LBB314:
 456:./tmk_core/protocol/lufa/LUFA-git/LUFA/Drivers/USB/Core/AVR8/../AVR8/../AVR8/Endpoint_AVR8.h **** 				#else
 1526               		.loc 2 456 6 view .LVU371
 456:./tmk_core/protocol/lufa/LUFA-git/LUFA/Drivers/USB/Core/AVR8/../AVR8/../AVR8/Endpoint_AVR8.h **** 				#else
 1527               		.loc 2 456 13 is_stmt 0 view .LVU372
 1528 0050 8091 E800 		lds r24,232
 1529 0054 8E77      		andi r24,lo8(126)
 1530 0056 8093 E800 		sts 232,r24
 1531               	.LBE314:
 1532               	.LBE313:
  60:./tmk_core/protocol/lufa/LUFA-git/LUFA/Drivers/USB/Core/AVR8/Template/Template_Endpoint_RW.c **** 			{
 1533               		.loc 3 60 4 is_stmt 1 view .LVU373
  60:./tmk_core/protocol/lufa/LUFA-git/LUFA/Drivers/USB/Core/AVR8/Template/Template_Endpoint_RW.c **** 			{
 1534               		.loc 3 60 7 is_stmt 0 view .LVU374
 1535 005a E114      		cp r14,__zero_reg__
 1536 005c F104      		cpc r15,__zero_reg__
 1537 005e 01F0      		breq .L90
  62:./tmk_core/protocol/lufa/LUFA-git/LUFA/Drivers/USB/Core/AVR8/Template/Template_Endpoint_RW.c **** 				return ENDPOINT_RWSTREAM_IncompleteTransfer;
 1538               		.loc 3 62 5 is_stmt 1 view .LVU375
  62:./tmk_core/protocol/lufa/LUFA-git/LUFA/Drivers/USB/Core/AVR8/Template/Template_Endpoint_RW.c **** 				return ENDPOINT_RWSTREAM_IncompleteTransfer;
 1539               		.loc 3 62 21 is_stmt 0 view .LVU376
 1540 0060 F701      		movw r30,r14
 1541 0062 8081      		ld r24,Z
 1542 0064 9181      		ldd r25,Z+1
 1543 0066 8A0D      		add r24,r10
 1544 0068 9B1D      		adc r25,r11
 1545 006a 9183      		std Z+1,r25
 1546 006c 8083      		st Z,r24
  63:./tmk_core/protocol/lufa/LUFA-git/LUFA/Drivers/USB/Core/AVR8/Template/Template_Endpoint_RW.c **** 			}
 1547               		.loc 3 63 5 is_stmt 1 view .LVU377
  63:./tmk_core/protocol/lufa/LUFA-git/LUFA/Drivers/USB/Core/AVR8/Template/Template_Endpoint_RW.c **** 			}
 1548               		.loc 3 63 12 is_stmt 0 view .LVU378
 1549 006e 85E0      		ldi r24,lo8(5)
 1550 0070 D82E      		mov r13,r24
 1551               	.L85:
 1552               		.loc 3 79 1 view .LVU379
 1553 0072 8D2D      		mov r24,r13
 1554               	/* epilogue start */
 1555 0074 DF91      		pop r29
 1556 0076 CF91      		pop r28
 1557 0078 1F91      		pop r17
 1558 007a 0F91      		pop r16
 1559 007c FF90      		pop r15
 1560 007e EF90      		pop r14
 1561               	.LVL124:
 1562               		.loc 3 79 1 view .LVU380
 1563 0080 DF90      		pop r13
 1564 0082 BF90      		pop r11
 1565 0084 AF90      		pop r10
 1566 0086 0895      		ret
 1567               	.LVL125:
 1568               	.L90:
  66:./tmk_core/protocol/lufa/LUFA-git/LUFA/Drivers/USB/Core/AVR8/Template/Template_Endpoint_RW.c **** 			  return ErrorCode;
 1569               		.loc 3 66 4 is_stmt 1 view .LVU381
  66:./tmk_core/protocol/lufa/LUFA-git/LUFA/Drivers/USB/Core/AVR8/Template/Template_Endpoint_RW.c **** 			  return ErrorCode;
 1570               		.loc 3 66 21 is_stmt 0 view .LVU382
 1571 0088 0E94 0000 		call Endpoint_WaitUntilReady
 1572               	.LVL126:
  66:./tmk_core/protocol/lufa/LUFA-git/LUFA/Drivers/USB/Core/AVR8/Template/Template_Endpoint_RW.c **** 			  return ErrorCode;
 1573               		.loc 3 66 7 view .LVU383
 1574 008c 8823      		tst r24
 1575 008e 01F0      		breq .L91
  66:./tmk_core/protocol/lufa/LUFA-git/LUFA/Drivers/USB/Core/AVR8/Template/Template_Endpoint_RW.c **** 			  return ErrorCode;
 1576               		.loc 3 66 21 view .LVU384
 1577 0090 D82E      		mov r13,r24
 1578 0092 00C0      		rjmp .L85
 1579               	.LVL127:
 1580               	.L89:
  71:./tmk_core/protocol/lufa/LUFA-git/LUFA/Drivers/USB/Core/AVR8/Template/Template_Endpoint_RW.c **** 			TEMPLATE_BUFFER_MOVE(DataStream, 1);
 1581               		.loc 3 71 4 is_stmt 1 view .LVU385
 1582               	.LBB315:
  71:./tmk_core/protocol/lufa/LUFA-git/LUFA/Drivers/USB/Core/AVR8/Template/Template_Endpoint_RW.c **** 			TEMPLATE_BUFFER_MOVE(DataStream, 1);
 1583               		.loc 3 71 4 view .LVU386
  71:./tmk_core/protocol/lufa/LUFA-git/LUFA/Drivers/USB/Core/AVR8/Template/Template_Endpoint_RW.c **** 			TEMPLATE_BUFFER_MOVE(DataStream, 1);
 1584               		.loc 3 71 4 view .LVU387
  71:./tmk_core/protocol/lufa/LUFA-git/LUFA/Drivers/USB/Core/AVR8/Template/Template_Endpoint_RW.c **** 			TEMPLATE_BUFFER_MOVE(DataStream, 1);
 1585               		.loc 3 71 4 view .LVU388
 1586 0094 FE01      		movw r30,r28
 1587               	/* #APP */
 1588               	 ;  71 "./tmk_core/protocol/lufa/LUFA-git/LUFA/Drivers/USB/Core/AVR8/Template/Template_Endpoint_RW.
 1589 0096 8491      		lpm r24, Z
 1590               		
 1591               	 ;  0 "" 2
 1592               	.LVL128:
  71:./tmk_core/protocol/lufa/LUFA-git/LUFA/Drivers/USB/Core/AVR8/Template/Template_Endpoint_RW.c **** 			TEMPLATE_BUFFER_MOVE(DataStream, 1);
 1593               		.loc 3 71 4 view .LVU389
  71:./tmk_core/protocol/lufa/LUFA-git/LUFA/Drivers/USB/Core/AVR8/Template/Template_Endpoint_RW.c **** 			TEMPLATE_BUFFER_MOVE(DataStream, 1);
 1594               		.loc 3 71 4 is_stmt 0 view .LVU390
 1595               	/* #NOAPP */
 1596               	.LBE315:
 1597               	.LBB316:
 1598               	.LBI316:
 552:./tmk_core/protocol/lufa/LUFA-git/LUFA/Drivers/USB/Core/AVR8/../AVR8/../AVR8/Endpoint_AVR8.h **** 			{
 1599               		.loc 2 552 23 is_stmt 1 view .LVU391
 1600               	.LBB317:
 554:./tmk_core/protocol/lufa/LUFA-git/LUFA/Drivers/USB/Core/AVR8/../AVR8/../AVR8/Endpoint_AVR8.h **** 			}
 1601               		.loc 2 554 5 view .LVU392
 554:./tmk_core/protocol/lufa/LUFA-git/LUFA/Drivers/USB/Core/AVR8/../AVR8/../AVR8/Endpoint_AVR8.h **** 			}
 1602               		.loc 2 554 12 is_stmt 0 view .LVU393
 1603 0098 8093 F100 		sts 241,r24
 1604               	.LVL129:
 554:./tmk_core/protocol/lufa/LUFA-git/LUFA/Drivers/USB/Core/AVR8/../AVR8/../AVR8/Endpoint_AVR8.h **** 			}
 1605               		.loc 2 554 12 view .LVU394
 1606               	.LBE317:
 1607               	.LBE316:
  72:./tmk_core/protocol/lufa/LUFA-git/LUFA/Drivers/USB/Core/AVR8/Template/Template_Endpoint_RW.c **** 			Length--;
 1608               		.loc 3 72 4 is_stmt 1 view .LVU395
 1609 009c 2197      		sbiw r28,1
 1610               	.LVL130:
  73:./tmk_core/protocol/lufa/LUFA-git/LUFA/Drivers/USB/Core/AVR8/Template/Template_Endpoint_RW.c **** 			BytesInTransfer++;
 1611               		.loc 3 73 4 view .LVU396
  73:./tmk_core/protocol/lufa/LUFA-git/LUFA/Drivers/USB/Core/AVR8/Template/Template_Endpoint_RW.c **** 			BytesInTransfer++;
 1612               		.loc 3 73 10 is_stmt 0 view .LVU397
 1613 009e 0150      		subi r16,1
 1614 00a0 1109      		sbc r17,__zero_reg__
 1615               	.LVL131:
  74:./tmk_core/protocol/lufa/LUFA-git/LUFA/Drivers/USB/Core/AVR8/Template/Template_Endpoint_RW.c **** 		}
 1616               		.loc 3 74 4 is_stmt 1 view .LVU398
  74:./tmk_core/protocol/lufa/LUFA-git/LUFA/Drivers/USB/Core/AVR8/Template/Template_Endpoint_RW.c **** 		}
 1617               		.loc 3 74 19 is_stmt 0 view .LVU399
 1618 00a2 FFEF      		ldi r31,-1
 1619 00a4 AF1A      		sub r10,r31
 1620 00a6 BF0A      		sbc r11,r31
 1621               	.LVL132:
  74:./tmk_core/protocol/lufa/LUFA-git/LUFA/Drivers/USB/Core/AVR8/Template/Template_Endpoint_RW.c **** 		}
 1622               		.loc 3 74 19 view .LVU400
 1623 00a8 00C0      		rjmp .L88
 1624               		.cfi_endproc
 1625               	.LFE96:
 1627               		.section	.text.Endpoint_Write_EStream_LE,"ax",@progbits
 1628               	.global	Endpoint_Write_EStream_LE
 1630               	Endpoint_Write_EStream_LE:
 1631               	.LVL133:
 1632               	.LFB97:
  36:./tmk_core/protocol/lufa/LUFA-git/LUFA/Drivers/USB/Core/AVR8/Template/Template_Endpoint_RW.c **** 	uint8_t* DataStream      = ((uint8_t*)Buffer + TEMPLATE_BUFFER_OFFSET(Length));
 1633               		.loc 3 36 1 is_stmt 1 view -0
 1634               		.cfi_startproc
  36:./tmk_core/protocol/lufa/LUFA-git/LUFA/Drivers/USB/Core/AVR8/Template/Template_Endpoint_RW.c **** 	uint8_t* DataStream      = ((uint8_t*)Buffer + TEMPLATE_BUFFER_OFFSET(Length));
 1635               		.loc 3 36 1 is_stmt 0 view .LVU402
 1636 0000 AF92      		push r10
 1637               	.LCFI68:
 1638               		.cfi_def_cfa_offset 3
 1639               		.cfi_offset 10, -2
 1640 0002 BF92      		push r11
 1641               	.LCFI69:
 1642               		.cfi_def_cfa_offset 4
 1643               		.cfi_offset 11, -3
 1644 0004 DF92      		push r13
 1645               	.LCFI70:
 1646               		.cfi_def_cfa_offset 5
 1647               		.cfi_offset 13, -4
 1648 0006 EF92      		push r14
 1649               	.LCFI71:
 1650               		.cfi_def_cfa_offset 6
 1651               		.cfi_offset 14, -5
 1652 0008 FF92      		push r15
 1653               	.LCFI72:
 1654               		.cfi_def_cfa_offset 7
 1655               		.cfi_offset 15, -6
 1656 000a 0F93      		push r16
 1657               	.LCFI73:
 1658               		.cfi_def_cfa_offset 8
 1659               		.cfi_offset 16, -7
 1660 000c 1F93      		push r17
 1661               	.LCFI74:
 1662               		.cfi_def_cfa_offset 9
 1663               		.cfi_offset 17, -8
 1664 000e CF93      		push r28
 1665               	.LCFI75:
 1666               		.cfi_def_cfa_offset 10
 1667               		.cfi_offset 28, -9
 1668 0010 DF93      		push r29
 1669               	.LCFI76:
 1670               		.cfi_def_cfa_offset 11
 1671               		.cfi_offset 29, -10
 1672               	/* prologue: function */
 1673               	/* frame size = 0 */
 1674               	/* stack size = 9 */
 1675               	.L__stack_usage = 9
 1676 0012 8C01      		movw r16,r24
 1677 0014 EB01      		movw r28,r22
 1678 0016 7A01      		movw r14,r20
  37:./tmk_core/protocol/lufa/LUFA-git/LUFA/Drivers/USB/Core/AVR8/Template/Template_Endpoint_RW.c **** 	uint16_t BytesInTransfer = 0;
 1679               		.loc 3 37 2 is_stmt 1 view .LVU403
 1680               	.LVL134:
  38:./tmk_core/protocol/lufa/LUFA-git/LUFA/Drivers/USB/Core/AVR8/Template/Template_Endpoint_RW.c **** 	uint8_t  ErrorCode;
 1681               		.loc 3 38 2 view .LVU404
  39:./tmk_core/protocol/lufa/LUFA-git/LUFA/Drivers/USB/Core/AVR8/Template/Template_Endpoint_RW.c **** 
 1682               		.loc 3 39 2 view .LVU405
  41:./tmk_core/protocol/lufa/LUFA-git/LUFA/Drivers/USB/Core/AVR8/Template/Template_Endpoint_RW.c **** 	  return ErrorCode;
 1683               		.loc 3 41 2 view .LVU406
  41:./tmk_core/protocol/lufa/LUFA-git/LUFA/Drivers/USB/Core/AVR8/Template/Template_Endpoint_RW.c **** 	  return ErrorCode;
 1684               		.loc 3 41 19 is_stmt 0 view .LVU407
 1685 0018 0E94 0000 		call Endpoint_WaitUntilReady
 1686               	.LVL135:
  41:./tmk_core/protocol/lufa/LUFA-git/LUFA/Drivers/USB/Core/AVR8/Template/Template_Endpoint_RW.c **** 	  return ErrorCode;
 1687               		.loc 3 41 19 view .LVU408
 1688 001c D82E      		mov r13,r24
 1689               	.LVL136:
  41:./tmk_core/protocol/lufa/LUFA-git/LUFA/Drivers/USB/Core/AVR8/Template/Template_Endpoint_RW.c **** 	  return ErrorCode;
 1690               		.loc 3 41 5 view .LVU409
 1691 001e 8111      		cpse r24,__zero_reg__
 1692 0020 00C0      		rjmp .L97
  44:./tmk_core/protocol/lufa/LUFA-git/LUFA/Drivers/USB/Core/AVR8/Template/Template_Endpoint_RW.c **** 	{
 1693               		.loc 3 44 2 is_stmt 1 view .LVU410
  44:./tmk_core/protocol/lufa/LUFA-git/LUFA/Drivers/USB/Core/AVR8/Template/Template_Endpoint_RW.c **** 	{
 1694               		.loc 3 44 5 is_stmt 0 view .LVU411
 1695 0022 E114      		cp r14,__zero_reg__
 1696 0024 F104      		cpc r15,__zero_reg__
 1697 0026 01F0      		breq .L99
  46:./tmk_core/protocol/lufa/LUFA-git/LUFA/Drivers/USB/Core/AVR8/Template/Template_Endpoint_RW.c **** 		TEMPLATE_BUFFER_MOVE(DataStream, *BytesProcessed);
 1698               		.loc 3 46 3 is_stmt 1 view .LVU412
  46:./tmk_core/protocol/lufa/LUFA-git/LUFA/Drivers/USB/Core/AVR8/Template/Template_Endpoint_RW.c **** 		TEMPLATE_BUFFER_MOVE(DataStream, *BytesProcessed);
 1699               		.loc 3 46 13 is_stmt 0 view .LVU413
 1700 0028 F701      		movw r30,r14
 1701 002a 8081      		ld r24,Z
 1702 002c 9181      		ldd r25,Z+1
  46:./tmk_core/protocol/lufa/LUFA-git/LUFA/Drivers/USB/Core/AVR8/Template/Template_Endpoint_RW.c **** 		TEMPLATE_BUFFER_MOVE(DataStream, *BytesProcessed);
 1703               		.loc 3 46 10 view .LVU414
 1704 002e C81B      		sub r28,r24
 1705 0030 D90B      		sbc r29,r25
 1706               	.LVL137:
  47:./tmk_core/protocol/lufa/LUFA-git/LUFA/Drivers/USB/Core/AVR8/Template/Template_Endpoint_RW.c **** 	}
 1707               		.loc 3 47 3 is_stmt 1 view .LVU415
 1708 0032 080F      		add r16,r24
 1709 0034 191F      		adc r17,r25
 1710               	.LVL138:
 1711               	.L99:
  36:./tmk_core/protocol/lufa/LUFA-git/LUFA/Drivers/USB/Core/AVR8/Template/Template_Endpoint_RW.c **** 	uint8_t* DataStream      = ((uint8_t*)Buffer + TEMPLATE_BUFFER_OFFSET(Length));
 1712               		.loc 3 36 1 is_stmt 0 view .LVU416
 1713 0036 A12C      		mov r10,__zero_reg__
 1714 0038 B12C      		mov r11,__zero_reg__
 1715               	.LVL139:
 1716               	.L100:
  50:./tmk_core/protocol/lufa/LUFA-git/LUFA/Drivers/USB/Core/AVR8/Template/Template_Endpoint_RW.c **** 	{
 1717               		.loc 3 50 9 is_stmt 1 view .LVU417
 1718 003a 2097      		sbiw r28,0
 1719 003c 01F0      		breq .L97
 1720               	.LVL140:
 1721               	.L103:
  52:./tmk_core/protocol/lufa/LUFA-git/LUFA/Drivers/USB/Core/AVR8/Template/Template_Endpoint_RW.c **** 		{
 1722               		.loc 3 52 3 view .LVU418
 1723               	.LBB318:
 1724               	.LBI318:
 358:./tmk_core/protocol/lufa/LUFA-git/LUFA/Drivers/USB/Core/AVR8/../AVR8/../AVR8/Endpoint_AVR8.h **** 			{
 1725               		.loc 2 358 23 view .LVU419
 1726               	.LBB319:
 360:./tmk_core/protocol/lufa/LUFA-git/LUFA/Drivers/USB/Core/AVR8/../AVR8/../AVR8/Endpoint_AVR8.h **** 			}
 1727               		.loc 2 360 5 view .LVU420
 360:./tmk_core/protocol/lufa/LUFA-git/LUFA/Drivers/USB/Core/AVR8/../AVR8/../AVR8/Endpoint_AVR8.h **** 			}
 1728               		.loc 2 360 14 is_stmt 0 view .LVU421
 1729 003e 8091 E800 		lds r24,232
 1730               	.LBE319:
 1731               	.LBE318:
  52:./tmk_core/protocol/lufa/LUFA-git/LUFA/Drivers/USB/Core/AVR8/Template/Template_Endpoint_RW.c **** 		{
 1732               		.loc 3 52 6 view .LVU422
 1733 0042 85FD      		sbrc r24,5
 1734 0044 00C0      		rjmp .L101
  54:./tmk_core/protocol/lufa/LUFA-git/LUFA/Drivers/USB/Core/AVR8/Template/Template_Endpoint_RW.c **** 
 1735               		.loc 3 54 4 is_stmt 1 view .LVU423
 1736               	.LBB320:
 1737               	.LBI320:
 453:./tmk_core/protocol/lufa/LUFA-git/LUFA/Drivers/USB/Core/AVR8/../AVR8/../AVR8/Endpoint_AVR8.h **** 			{
 1738               		.loc 2 453 23 view .LVU424
 1739               	.LBB321:
 456:./tmk_core/protocol/lufa/LUFA-git/LUFA/Drivers/USB/Core/AVR8/../AVR8/../AVR8/Endpoint_AVR8.h **** 				#else
 1740               		.loc 2 456 6 view .LVU425
 456:./tmk_core/protocol/lufa/LUFA-git/LUFA/Drivers/USB/Core/AVR8/../AVR8/../AVR8/Endpoint_AVR8.h **** 				#else
 1741               		.loc 2 456 13 is_stmt 0 view .LVU426
 1742 0046 8091 E800 		lds r24,232
 1743 004a 8E77      		andi r24,lo8(126)
 1744 004c 8093 E800 		sts 232,r24
 1745               	.LBE321:
 1746               	.LBE320:
  60:./tmk_core/protocol/lufa/LUFA-git/LUFA/Drivers/USB/Core/AVR8/Template/Template_Endpoint_RW.c **** 			{
 1747               		.loc 3 60 4 is_stmt 1 view .LVU427
  60:./tmk_core/protocol/lufa/LUFA-git/LUFA/Drivers/USB/Core/AVR8/Template/Template_Endpoint_RW.c **** 			{
 1748               		.loc 3 60 7 is_stmt 0 view .LVU428
 1749 0050 E114      		cp r14,__zero_reg__
 1750 0052 F104      		cpc r15,__zero_reg__
 1751 0054 01F0      		breq .L102
  62:./tmk_core/protocol/lufa/LUFA-git/LUFA/Drivers/USB/Core/AVR8/Template/Template_Endpoint_RW.c **** 				return ENDPOINT_RWSTREAM_IncompleteTransfer;
 1752               		.loc 3 62 5 is_stmt 1 view .LVU429
  62:./tmk_core/protocol/lufa/LUFA-git/LUFA/Drivers/USB/Core/AVR8/Template/Template_Endpoint_RW.c **** 				return ENDPOINT_RWSTREAM_IncompleteTransfer;
 1753               		.loc 3 62 21 is_stmt 0 view .LVU430
 1754 0056 F701      		movw r30,r14
 1755 0058 8081      		ld r24,Z
 1756 005a 9181      		ldd r25,Z+1
 1757 005c 8A0D      		add r24,r10
 1758 005e 9B1D      		adc r25,r11
 1759 0060 9183      		std Z+1,r25
 1760 0062 8083      		st Z,r24
  63:./tmk_core/protocol/lufa/LUFA-git/LUFA/Drivers/USB/Core/AVR8/Template/Template_Endpoint_RW.c **** 			}
 1761               		.loc 3 63 5 is_stmt 1 view .LVU431
  63:./tmk_core/protocol/lufa/LUFA-git/LUFA/Drivers/USB/Core/AVR8/Template/Template_Endpoint_RW.c **** 			}
 1762               		.loc 3 63 12 is_stmt 0 view .LVU432
 1763 0064 85E0      		ldi r24,lo8(5)
 1764 0066 D82E      		mov r13,r24
 1765               	.L97:
 1766               		.loc 3 79 1 view .LVU433
 1767 0068 8D2D      		mov r24,r13
 1768               	/* epilogue start */
 1769 006a DF91      		pop r29
 1770 006c CF91      		pop r28
 1771 006e 1F91      		pop r17
 1772 0070 0F91      		pop r16
 1773 0072 FF90      		pop r15
 1774 0074 EF90      		pop r14
 1775               	.LVL141:
 1776               		.loc 3 79 1 view .LVU434
 1777 0076 DF90      		pop r13
 1778 0078 BF90      		pop r11
 1779 007a AF90      		pop r10
 1780 007c 0895      		ret
 1781               	.LVL142:
 1782               	.L102:
  66:./tmk_core/protocol/lufa/LUFA-git/LUFA/Drivers/USB/Core/AVR8/Template/Template_Endpoint_RW.c **** 			  return ErrorCode;
 1783               		.loc 3 66 4 is_stmt 1 view .LVU435
  66:./tmk_core/protocol/lufa/LUFA-git/LUFA/Drivers/USB/Core/AVR8/Template/Template_Endpoint_RW.c **** 			  return ErrorCode;
 1784               		.loc 3 66 21 is_stmt 0 view .LVU436
 1785 007e 0E94 0000 		call Endpoint_WaitUntilReady
 1786               	.LVL143:
  66:./tmk_core/protocol/lufa/LUFA-git/LUFA/Drivers/USB/Core/AVR8/Template/Template_Endpoint_RW.c **** 			  return ErrorCode;
 1787               		.loc 3 66 7 view .LVU437
 1788 0082 8823      		tst r24
 1789 0084 01F0      		breq .L103
  66:./tmk_core/protocol/lufa/LUFA-git/LUFA/Drivers/USB/Core/AVR8/Template/Template_Endpoint_RW.c **** 			  return ErrorCode;
 1790               		.loc 3 66 21 view .LVU438
 1791 0086 D82E      		mov r13,r24
 1792 0088 00C0      		rjmp .L97
 1793               	.LVL144:
 1794               	.L101:
  71:./tmk_core/protocol/lufa/LUFA-git/LUFA/Drivers/USB/Core/AVR8/Template/Template_Endpoint_RW.c **** 			TEMPLATE_BUFFER_MOVE(DataStream, 1);
 1795               		.loc 3 71 4 is_stmt 1 view .LVU439
 1796 008a C801      		movw r24,r16
 1797 008c 0E94 0000 		call eeprom_read_byte
 1798               	.LVL145:
 1799               	.LBB322:
 1800               	.LBI322:
 552:./tmk_core/protocol/lufa/LUFA-git/LUFA/Drivers/USB/Core/AVR8/../AVR8/../AVR8/Endpoint_AVR8.h **** 			{
 1801               		.loc 2 552 23 view .LVU440
 1802               	.LBB323:
 554:./tmk_core/protocol/lufa/LUFA-git/LUFA/Drivers/USB/Core/AVR8/../AVR8/../AVR8/Endpoint_AVR8.h **** 			}
 1803               		.loc 2 554 5 view .LVU441
 554:./tmk_core/protocol/lufa/LUFA-git/LUFA/Drivers/USB/Core/AVR8/../AVR8/../AVR8/Endpoint_AVR8.h **** 			}
 1804               		.loc 2 554 12 is_stmt 0 view .LVU442
 1805 0090 8093 F100 		sts 241,r24
 1806               	.LVL146:
 554:./tmk_core/protocol/lufa/LUFA-git/LUFA/Drivers/USB/Core/AVR8/../AVR8/../AVR8/Endpoint_AVR8.h **** 			}
 1807               		.loc 2 554 12 view .LVU443
 1808               	.LBE323:
 1809               	.LBE322:
  72:./tmk_core/protocol/lufa/LUFA-git/LUFA/Drivers/USB/Core/AVR8/Template/Template_Endpoint_RW.c **** 			Length--;
 1810               		.loc 3 72 4 is_stmt 1 view .LVU444
 1811 0094 0F5F      		subi r16,-1
 1812 0096 1F4F      		sbci r17,-1
 1813               	.LVL147:
  73:./tmk_core/protocol/lufa/LUFA-git/LUFA/Drivers/USB/Core/AVR8/Template/Template_Endpoint_RW.c **** 			BytesInTransfer++;
 1814               		.loc 3 73 4 view .LVU445
  73:./tmk_core/protocol/lufa/LUFA-git/LUFA/Drivers/USB/Core/AVR8/Template/Template_Endpoint_RW.c **** 			BytesInTransfer++;
 1815               		.loc 3 73 10 is_stmt 0 view .LVU446
 1816 0098 2197      		sbiw r28,1
 1817               	.LVL148:
  74:./tmk_core/protocol/lufa/LUFA-git/LUFA/Drivers/USB/Core/AVR8/Template/Template_Endpoint_RW.c **** 		}
 1818               		.loc 3 74 4 is_stmt 1 view .LVU447
  74:./tmk_core/protocol/lufa/LUFA-git/LUFA/Drivers/USB/Core/AVR8/Template/Template_Endpoint_RW.c **** 		}
 1819               		.loc 3 74 19 is_stmt 0 view .LVU448
 1820 009a FFEF      		ldi r31,-1
 1821 009c AF1A      		sub r10,r31
 1822 009e BF0A      		sbc r11,r31
 1823               	.LVL149:
  74:./tmk_core/protocol/lufa/LUFA-git/LUFA/Drivers/USB/Core/AVR8/Template/Template_Endpoint_RW.c **** 		}
 1824               		.loc 3 74 19 view .LVU449
 1825 00a0 00C0      		rjmp .L100
 1826               		.cfi_endproc
 1827               	.LFE97:
 1829               		.section	.text.Endpoint_Write_EStream_BE,"ax",@progbits
 1830               	.global	Endpoint_Write_EStream_BE
 1832               	Endpoint_Write_EStream_BE:
 1833               	.LVL150:
 1834               	.LFB98:
  36:./tmk_core/protocol/lufa/LUFA-git/LUFA/Drivers/USB/Core/AVR8/Template/Template_Endpoint_RW.c **** 	uint8_t* DataStream      = ((uint8_t*)Buffer + TEMPLATE_BUFFER_OFFSET(Length));
 1835               		.loc 3 36 1 is_stmt 1 view -0
 1836               		.cfi_startproc
  36:./tmk_core/protocol/lufa/LUFA-git/LUFA/Drivers/USB/Core/AVR8/Template/Template_Endpoint_RW.c **** 	uint8_t* DataStream      = ((uint8_t*)Buffer + TEMPLATE_BUFFER_OFFSET(Length));
 1837               		.loc 3 36 1 is_stmt 0 view .LVU451
 1838 0000 AF92      		push r10
 1839               	.LCFI77:
 1840               		.cfi_def_cfa_offset 3
 1841               		.cfi_offset 10, -2
 1842 0002 BF92      		push r11
 1843               	.LCFI78:
 1844               		.cfi_def_cfa_offset 4
 1845               		.cfi_offset 11, -3
 1846 0004 DF92      		push r13
 1847               	.LCFI79:
 1848               		.cfi_def_cfa_offset 5
 1849               		.cfi_offset 13, -4
 1850 0006 EF92      		push r14
 1851               	.LCFI80:
 1852               		.cfi_def_cfa_offset 6
 1853               		.cfi_offset 14, -5
 1854 0008 FF92      		push r15
 1855               	.LCFI81:
 1856               		.cfi_def_cfa_offset 7
 1857               		.cfi_offset 15, -6
 1858 000a 0F93      		push r16
 1859               	.LCFI82:
 1860               		.cfi_def_cfa_offset 8
 1861               		.cfi_offset 16, -7
 1862 000c 1F93      		push r17
 1863               	.LCFI83:
 1864               		.cfi_def_cfa_offset 9
 1865               		.cfi_offset 17, -8
 1866 000e CF93      		push r28
 1867               	.LCFI84:
 1868               		.cfi_def_cfa_offset 10
 1869               		.cfi_offset 28, -9
 1870 0010 DF93      		push r29
 1871               	.LCFI85:
 1872               		.cfi_def_cfa_offset 11
 1873               		.cfi_offset 29, -10
 1874               	/* prologue: function */
 1875               	/* frame size = 0 */
 1876               	/* stack size = 9 */
 1877               	.L__stack_usage = 9
 1878 0012 EC01      		movw r28,r24
 1879 0014 8B01      		movw r16,r22
 1880 0016 7A01      		movw r14,r20
  37:./tmk_core/protocol/lufa/LUFA-git/LUFA/Drivers/USB/Core/AVR8/Template/Template_Endpoint_RW.c **** 	uint16_t BytesInTransfer = 0;
 1881               		.loc 3 37 2 is_stmt 1 view .LVU452
 1882               	.LVL151:
  38:./tmk_core/protocol/lufa/LUFA-git/LUFA/Drivers/USB/Core/AVR8/Template/Template_Endpoint_RW.c **** 	uint8_t  ErrorCode;
 1883               		.loc 3 38 2 view .LVU453
  39:./tmk_core/protocol/lufa/LUFA-git/LUFA/Drivers/USB/Core/AVR8/Template/Template_Endpoint_RW.c **** 
 1884               		.loc 3 39 2 view .LVU454
  41:./tmk_core/protocol/lufa/LUFA-git/LUFA/Drivers/USB/Core/AVR8/Template/Template_Endpoint_RW.c **** 	  return ErrorCode;
 1885               		.loc 3 41 2 view .LVU455
  41:./tmk_core/protocol/lufa/LUFA-git/LUFA/Drivers/USB/Core/AVR8/Template/Template_Endpoint_RW.c **** 	  return ErrorCode;
 1886               		.loc 3 41 19 is_stmt 0 view .LVU456
 1887 0018 0E94 0000 		call Endpoint_WaitUntilReady
 1888               	.LVL152:
  41:./tmk_core/protocol/lufa/LUFA-git/LUFA/Drivers/USB/Core/AVR8/Template/Template_Endpoint_RW.c **** 	  return ErrorCode;
 1889               		.loc 3 41 19 view .LVU457
 1890 001c D82E      		mov r13,r24
 1891               	.LVL153:
  41:./tmk_core/protocol/lufa/LUFA-git/LUFA/Drivers/USB/Core/AVR8/Template/Template_Endpoint_RW.c **** 	  return ErrorCode;
 1892               		.loc 3 41 5 view .LVU458
 1893 001e 8111      		cpse r24,__zero_reg__
 1894 0020 00C0      		rjmp .L109
  37:./tmk_core/protocol/lufa/LUFA-git/LUFA/Drivers/USB/Core/AVR8/Template/Template_Endpoint_RW.c **** 	uint16_t BytesInTransfer = 0;
 1895               		.loc 3 37 47 view .LVU459
 1896 0022 C801      		movw r24,r16
 1897 0024 0197      		sbiw r24,1
 1898               	.LVL154:
  37:./tmk_core/protocol/lufa/LUFA-git/LUFA/Drivers/USB/Core/AVR8/Template/Template_Endpoint_RW.c **** 	uint16_t BytesInTransfer = 0;
 1899               		.loc 3 37 11 view .LVU460
 1900 0026 C80F      		add r28,r24
 1901 0028 D91F      		adc r29,r25
 1902               	.LVL155:
  44:./tmk_core/protocol/lufa/LUFA-git/LUFA/Drivers/USB/Core/AVR8/Template/Template_Endpoint_RW.c **** 	{
 1903               		.loc 3 44 2 is_stmt 1 view .LVU461
  44:./tmk_core/protocol/lufa/LUFA-git/LUFA/Drivers/USB/Core/AVR8/Template/Template_Endpoint_RW.c **** 	{
 1904               		.loc 3 44 5 is_stmt 0 view .LVU462
 1905 002a E114      		cp r14,__zero_reg__
 1906 002c F104      		cpc r15,__zero_reg__
 1907 002e 01F0      		breq .L111
  46:./tmk_core/protocol/lufa/LUFA-git/LUFA/Drivers/USB/Core/AVR8/Template/Template_Endpoint_RW.c **** 		TEMPLATE_BUFFER_MOVE(DataStream, *BytesProcessed);
 1908               		.loc 3 46 3 is_stmt 1 view .LVU463
  46:./tmk_core/protocol/lufa/LUFA-git/LUFA/Drivers/USB/Core/AVR8/Template/Template_Endpoint_RW.c **** 		TEMPLATE_BUFFER_MOVE(DataStream, *BytesProcessed);
 1909               		.loc 3 46 13 is_stmt 0 view .LVU464
 1910 0030 F701      		movw r30,r14
 1911 0032 8081      		ld r24,Z
 1912 0034 9181      		ldd r25,Z+1
 1913               	.LVL156:
  46:./tmk_core/protocol/lufa/LUFA-git/LUFA/Drivers/USB/Core/AVR8/Template/Template_Endpoint_RW.c **** 		TEMPLATE_BUFFER_MOVE(DataStream, *BytesProcessed);
 1914               		.loc 3 46 10 view .LVU465
 1915 0036 081B      		sub r16,r24
 1916 0038 190B      		sbc r17,r25
 1917               	.LVL157:
  47:./tmk_core/protocol/lufa/LUFA-git/LUFA/Drivers/USB/Core/AVR8/Template/Template_Endpoint_RW.c **** 	}
 1918               		.loc 3 47 3 is_stmt 1 view .LVU466
 1919 003a C81B      		sub r28,r24
 1920 003c D90B      		sbc r29,r25
 1921               	.LVL158:
 1922               	.L111:
  36:./tmk_core/protocol/lufa/LUFA-git/LUFA/Drivers/USB/Core/AVR8/Template/Template_Endpoint_RW.c **** 	uint8_t* DataStream      = ((uint8_t*)Buffer + TEMPLATE_BUFFER_OFFSET(Length));
 1923               		.loc 3 36 1 is_stmt 0 view .LVU467
 1924 003e A12C      		mov r10,__zero_reg__
 1925 0040 B12C      		mov r11,__zero_reg__
 1926               	.LVL159:
 1927               	.L112:
  50:./tmk_core/protocol/lufa/LUFA-git/LUFA/Drivers/USB/Core/AVR8/Template/Template_Endpoint_RW.c **** 	{
 1928               		.loc 3 50 9 is_stmt 1 view .LVU468
 1929 0042 0115      		cp r16,__zero_reg__
 1930 0044 1105      		cpc r17,__zero_reg__
 1931 0046 01F0      		breq .L109
 1932               	.LVL160:
 1933               	.L115:
  52:./tmk_core/protocol/lufa/LUFA-git/LUFA/Drivers/USB/Core/AVR8/Template/Template_Endpoint_RW.c **** 		{
 1934               		.loc 3 52 3 view .LVU469
 1935               	.LBB324:
 1936               	.LBI324:
 358:./tmk_core/protocol/lufa/LUFA-git/LUFA/Drivers/USB/Core/AVR8/../AVR8/../AVR8/Endpoint_AVR8.h **** 			{
 1937               		.loc 2 358 23 view .LVU470
 1938               	.LBB325:
 360:./tmk_core/protocol/lufa/LUFA-git/LUFA/Drivers/USB/Core/AVR8/../AVR8/../AVR8/Endpoint_AVR8.h **** 			}
 1939               		.loc 2 360 5 view .LVU471
 360:./tmk_core/protocol/lufa/LUFA-git/LUFA/Drivers/USB/Core/AVR8/../AVR8/../AVR8/Endpoint_AVR8.h **** 			}
 1940               		.loc 2 360 14 is_stmt 0 view .LVU472
 1941 0048 8091 E800 		lds r24,232
 1942               	.LBE325:
 1943               	.LBE324:
  52:./tmk_core/protocol/lufa/LUFA-git/LUFA/Drivers/USB/Core/AVR8/Template/Template_Endpoint_RW.c **** 		{
 1944               		.loc 3 52 6 view .LVU473
 1945 004c 85FD      		sbrc r24,5
 1946 004e 00C0      		rjmp .L113
  54:./tmk_core/protocol/lufa/LUFA-git/LUFA/Drivers/USB/Core/AVR8/Template/Template_Endpoint_RW.c **** 
 1947               		.loc 3 54 4 is_stmt 1 view .LVU474
 1948               	.LBB326:
 1949               	.LBI326:
 453:./tmk_core/protocol/lufa/LUFA-git/LUFA/Drivers/USB/Core/AVR8/../AVR8/../AVR8/Endpoint_AVR8.h **** 			{
 1950               		.loc 2 453 23 view .LVU475
 1951               	.LBB327:
 456:./tmk_core/protocol/lufa/LUFA-git/LUFA/Drivers/USB/Core/AVR8/../AVR8/../AVR8/Endpoint_AVR8.h **** 				#else
 1952               		.loc 2 456 6 view .LVU476
 456:./tmk_core/protocol/lufa/LUFA-git/LUFA/Drivers/USB/Core/AVR8/../AVR8/../AVR8/Endpoint_AVR8.h **** 				#else
 1953               		.loc 2 456 13 is_stmt 0 view .LVU477
 1954 0050 8091 E800 		lds r24,232
 1955 0054 8E77      		andi r24,lo8(126)
 1956 0056 8093 E800 		sts 232,r24
 1957               	.LBE327:
 1958               	.LBE326:
  60:./tmk_core/protocol/lufa/LUFA-git/LUFA/Drivers/USB/Core/AVR8/Template/Template_Endpoint_RW.c **** 			{
 1959               		.loc 3 60 4 is_stmt 1 view .LVU478
  60:./tmk_core/protocol/lufa/LUFA-git/LUFA/Drivers/USB/Core/AVR8/Template/Template_Endpoint_RW.c **** 			{
 1960               		.loc 3 60 7 is_stmt 0 view .LVU479
 1961 005a E114      		cp r14,__zero_reg__
 1962 005c F104      		cpc r15,__zero_reg__
 1963 005e 01F0      		breq .L114
  62:./tmk_core/protocol/lufa/LUFA-git/LUFA/Drivers/USB/Core/AVR8/Template/Template_Endpoint_RW.c **** 				return ENDPOINT_RWSTREAM_IncompleteTransfer;
 1964               		.loc 3 62 5 is_stmt 1 view .LVU480
  62:./tmk_core/protocol/lufa/LUFA-git/LUFA/Drivers/USB/Core/AVR8/Template/Template_Endpoint_RW.c **** 				return ENDPOINT_RWSTREAM_IncompleteTransfer;
 1965               		.loc 3 62 21 is_stmt 0 view .LVU481
 1966 0060 F701      		movw r30,r14
 1967 0062 8081      		ld r24,Z
 1968 0064 9181      		ldd r25,Z+1
 1969 0066 8A0D      		add r24,r10
 1970 0068 9B1D      		adc r25,r11
 1971 006a 9183      		std Z+1,r25
 1972 006c 8083      		st Z,r24
  63:./tmk_core/protocol/lufa/LUFA-git/LUFA/Drivers/USB/Core/AVR8/Template/Template_Endpoint_RW.c **** 			}
 1973               		.loc 3 63 5 is_stmt 1 view .LVU482
  63:./tmk_core/protocol/lufa/LUFA-git/LUFA/Drivers/USB/Core/AVR8/Template/Template_Endpoint_RW.c **** 			}
 1974               		.loc 3 63 12 is_stmt 0 view .LVU483
 1975 006e 85E0      		ldi r24,lo8(5)
 1976 0070 D82E      		mov r13,r24
 1977               	.L109:
 1978               		.loc 3 79 1 view .LVU484
 1979 0072 8D2D      		mov r24,r13
 1980               	/* epilogue start */
 1981 0074 DF91      		pop r29
 1982 0076 CF91      		pop r28
 1983 0078 1F91      		pop r17
 1984 007a 0F91      		pop r16
 1985 007c FF90      		pop r15
 1986 007e EF90      		pop r14
 1987               	.LVL161:
 1988               		.loc 3 79 1 view .LVU485
 1989 0080 DF90      		pop r13
 1990 0082 BF90      		pop r11
 1991 0084 AF90      		pop r10
 1992 0086 0895      		ret
 1993               	.LVL162:
 1994               	.L114:
  66:./tmk_core/protocol/lufa/LUFA-git/LUFA/Drivers/USB/Core/AVR8/Template/Template_Endpoint_RW.c **** 			  return ErrorCode;
 1995               		.loc 3 66 4 is_stmt 1 view .LVU486
  66:./tmk_core/protocol/lufa/LUFA-git/LUFA/Drivers/USB/Core/AVR8/Template/Template_Endpoint_RW.c **** 			  return ErrorCode;
 1996               		.loc 3 66 21 is_stmt 0 view .LVU487
 1997 0088 0E94 0000 		call Endpoint_WaitUntilReady
 1998               	.LVL163:
  66:./tmk_core/protocol/lufa/LUFA-git/LUFA/Drivers/USB/Core/AVR8/Template/Template_Endpoint_RW.c **** 			  return ErrorCode;
 1999               		.loc 3 66 7 view .LVU488
 2000 008c 8823      		tst r24
 2001 008e 01F0      		breq .L115
  66:./tmk_core/protocol/lufa/LUFA-git/LUFA/Drivers/USB/Core/AVR8/Template/Template_Endpoint_RW.c **** 			  return ErrorCode;
 2002               		.loc 3 66 21 view .LVU489
 2003 0090 D82E      		mov r13,r24
 2004 0092 00C0      		rjmp .L109
 2005               	.LVL164:
 2006               	.L113:
  71:./tmk_core/protocol/lufa/LUFA-git/LUFA/Drivers/USB/Core/AVR8/Template/Template_Endpoint_RW.c **** 			TEMPLATE_BUFFER_MOVE(DataStream, 1);
 2007               		.loc 3 71 4 is_stmt 1 view .LVU490
 2008 0094 CE01      		movw r24,r28
 2009 0096 0E94 0000 		call eeprom_read_byte
 2010               	.LVL165:
 2011               	.LBB328:
 2012               	.LBI328:
 552:./tmk_core/protocol/lufa/LUFA-git/LUFA/Drivers/USB/Core/AVR8/../AVR8/../AVR8/Endpoint_AVR8.h **** 			{
 2013               		.loc 2 552 23 view .LVU491
 2014               	.LBB329:
 554:./tmk_core/protocol/lufa/LUFA-git/LUFA/Drivers/USB/Core/AVR8/../AVR8/../AVR8/Endpoint_AVR8.h **** 			}
 2015               		.loc 2 554 5 view .LVU492
 554:./tmk_core/protocol/lufa/LUFA-git/LUFA/Drivers/USB/Core/AVR8/../AVR8/../AVR8/Endpoint_AVR8.h **** 			}
 2016               		.loc 2 554 12 is_stmt 0 view .LVU493
 2017 009a 8093 F100 		sts 241,r24
 2018               	.LVL166:
 554:./tmk_core/protocol/lufa/LUFA-git/LUFA/Drivers/USB/Core/AVR8/../AVR8/../AVR8/Endpoint_AVR8.h **** 			}
 2019               		.loc 2 554 12 view .LVU494
 2020               	.LBE329:
 2021               	.LBE328:
  72:./tmk_core/protocol/lufa/LUFA-git/LUFA/Drivers/USB/Core/AVR8/Template/Template_Endpoint_RW.c **** 			Length--;
 2022               		.loc 3 72 4 is_stmt 1 view .LVU495
 2023 009e 2197      		sbiw r28,1
 2024               	.LVL167:
  73:./tmk_core/protocol/lufa/LUFA-git/LUFA/Drivers/USB/Core/AVR8/Template/Template_Endpoint_RW.c **** 			BytesInTransfer++;
 2025               		.loc 3 73 4 view .LVU496
  73:./tmk_core/protocol/lufa/LUFA-git/LUFA/Drivers/USB/Core/AVR8/Template/Template_Endpoint_RW.c **** 			BytesInTransfer++;
 2026               		.loc 3 73 10 is_stmt 0 view .LVU497
 2027 00a0 0150      		subi r16,1
 2028 00a2 1109      		sbc r17,__zero_reg__
 2029               	.LVL168:
  74:./tmk_core/protocol/lufa/LUFA-git/LUFA/Drivers/USB/Core/AVR8/Template/Template_Endpoint_RW.c **** 		}
 2030               		.loc 3 74 4 is_stmt 1 view .LVU498
  74:./tmk_core/protocol/lufa/LUFA-git/LUFA/Drivers/USB/Core/AVR8/Template/Template_Endpoint_RW.c **** 		}
 2031               		.loc 3 74 19 is_stmt 0 view .LVU499
 2032 00a4 FFEF      		ldi r31,-1
 2033 00a6 AF1A      		sub r10,r31
 2034 00a8 BF0A      		sbc r11,r31
 2035               	.LVL169:
  74:./tmk_core/protocol/lufa/LUFA-git/LUFA/Drivers/USB/Core/AVR8/Template/Template_Endpoint_RW.c **** 		}
 2036               		.loc 3 74 19 view .LVU500
 2037 00aa 00C0      		rjmp .L112
 2038               		.cfi_endproc
 2039               	.LFE98:
 2041               		.section	.text.Endpoint_Read_EStream_LE,"ax",@progbits
 2042               	.global	Endpoint_Read_EStream_LE
 2044               	Endpoint_Read_EStream_LE:
 2045               	.LVL170:
 2046               	.LFB99:
  36:./tmk_core/protocol/lufa/LUFA-git/LUFA/Drivers/USB/Core/AVR8/Template/Template_Endpoint_RW.c **** 	uint8_t* DataStream      = ((uint8_t*)Buffer + TEMPLATE_BUFFER_OFFSET(Length));
 2047               		.loc 3 36 1 is_stmt 1 view -0
 2048               		.cfi_startproc
  36:./tmk_core/protocol/lufa/LUFA-git/LUFA/Drivers/USB/Core/AVR8/Template/Template_Endpoint_RW.c **** 	uint8_t* DataStream      = ((uint8_t*)Buffer + TEMPLATE_BUFFER_OFFSET(Length));
 2049               		.loc 3 36 1 is_stmt 0 view .LVU502
 2050 0000 AF92      		push r10
 2051               	.LCFI86:
 2052               		.cfi_def_cfa_offset 3
 2053               		.cfi_offset 10, -2
 2054 0002 BF92      		push r11
 2055               	.LCFI87:
 2056               		.cfi_def_cfa_offset 4
 2057               		.cfi_offset 11, -3
 2058 0004 DF92      		push r13
 2059               	.LCFI88:
 2060               		.cfi_def_cfa_offset 5
 2061               		.cfi_offset 13, -4
 2062 0006 EF92      		push r14
 2063               	.LCFI89:
 2064               		.cfi_def_cfa_offset 6
 2065               		.cfi_offset 14, -5
 2066 0008 FF92      		push r15
 2067               	.LCFI90:
 2068               		.cfi_def_cfa_offset 7
 2069               		.cfi_offset 15, -6
 2070 000a 0F93      		push r16
 2071               	.LCFI91:
 2072               		.cfi_def_cfa_offset 8
 2073               		.cfi_offset 16, -7
 2074 000c 1F93      		push r17
 2075               	.LCFI92:
 2076               		.cfi_def_cfa_offset 9
 2077               		.cfi_offset 17, -8
 2078 000e CF93      		push r28
 2079               	.LCFI93:
 2080               		.cfi_def_cfa_offset 10
 2081               		.cfi_offset 28, -9
 2082 0010 DF93      		push r29
 2083               	.LCFI94:
 2084               		.cfi_def_cfa_offset 11
 2085               		.cfi_offset 29, -10
 2086               	/* prologue: function */
 2087               	/* frame size = 0 */
 2088               	/* stack size = 9 */
 2089               	.L__stack_usage = 9
 2090 0012 8C01      		movw r16,r24
 2091 0014 EB01      		movw r28,r22
 2092 0016 7A01      		movw r14,r20
  37:./tmk_core/protocol/lufa/LUFA-git/LUFA/Drivers/USB/Core/AVR8/Template/Template_Endpoint_RW.c **** 	uint16_t BytesInTransfer = 0;
 2093               		.loc 3 37 2 is_stmt 1 view .LVU503
 2094               	.LVL171:
  38:./tmk_core/protocol/lufa/LUFA-git/LUFA/Drivers/USB/Core/AVR8/Template/Template_Endpoint_RW.c **** 	uint8_t  ErrorCode;
 2095               		.loc 3 38 2 view .LVU504
  39:./tmk_core/protocol/lufa/LUFA-git/LUFA/Drivers/USB/Core/AVR8/Template/Template_Endpoint_RW.c **** 
 2096               		.loc 3 39 2 view .LVU505
  41:./tmk_core/protocol/lufa/LUFA-git/LUFA/Drivers/USB/Core/AVR8/Template/Template_Endpoint_RW.c **** 	  return ErrorCode;
 2097               		.loc 3 41 2 view .LVU506
  41:./tmk_core/protocol/lufa/LUFA-git/LUFA/Drivers/USB/Core/AVR8/Template/Template_Endpoint_RW.c **** 	  return ErrorCode;
 2098               		.loc 3 41 19 is_stmt 0 view .LVU507
 2099 0018 0E94 0000 		call Endpoint_WaitUntilReady
 2100               	.LVL172:
  41:./tmk_core/protocol/lufa/LUFA-git/LUFA/Drivers/USB/Core/AVR8/Template/Template_Endpoint_RW.c **** 	  return ErrorCode;
 2101               		.loc 3 41 19 view .LVU508
 2102 001c D82E      		mov r13,r24
 2103               	.LVL173:
  41:./tmk_core/protocol/lufa/LUFA-git/LUFA/Drivers/USB/Core/AVR8/Template/Template_Endpoint_RW.c **** 	  return ErrorCode;
 2104               		.loc 3 41 5 view .LVU509
 2105 001e 8111      		cpse r24,__zero_reg__
 2106 0020 00C0      		rjmp .L121
  44:./tmk_core/protocol/lufa/LUFA-git/LUFA/Drivers/USB/Core/AVR8/Template/Template_Endpoint_RW.c **** 	{
 2107               		.loc 3 44 2 is_stmt 1 view .LVU510
  44:./tmk_core/protocol/lufa/LUFA-git/LUFA/Drivers/USB/Core/AVR8/Template/Template_Endpoint_RW.c **** 	{
 2108               		.loc 3 44 5 is_stmt 0 view .LVU511
 2109 0022 E114      		cp r14,__zero_reg__
 2110 0024 F104      		cpc r15,__zero_reg__
 2111 0026 01F0      		breq .L123
  46:./tmk_core/protocol/lufa/LUFA-git/LUFA/Drivers/USB/Core/AVR8/Template/Template_Endpoint_RW.c **** 		TEMPLATE_BUFFER_MOVE(DataStream, *BytesProcessed);
 2112               		.loc 3 46 3 is_stmt 1 view .LVU512
  46:./tmk_core/protocol/lufa/LUFA-git/LUFA/Drivers/USB/Core/AVR8/Template/Template_Endpoint_RW.c **** 		TEMPLATE_BUFFER_MOVE(DataStream, *BytesProcessed);
 2113               		.loc 3 46 13 is_stmt 0 view .LVU513
 2114 0028 F701      		movw r30,r14
 2115 002a 8081      		ld r24,Z
 2116 002c 9181      		ldd r25,Z+1
  46:./tmk_core/protocol/lufa/LUFA-git/LUFA/Drivers/USB/Core/AVR8/Template/Template_Endpoint_RW.c **** 		TEMPLATE_BUFFER_MOVE(DataStream, *BytesProcessed);
 2117               		.loc 3 46 10 view .LVU514
 2118 002e C81B      		sub r28,r24
 2119 0030 D90B      		sbc r29,r25
 2120               	.LVL174:
  47:./tmk_core/protocol/lufa/LUFA-git/LUFA/Drivers/USB/Core/AVR8/Template/Template_Endpoint_RW.c **** 	}
 2121               		.loc 3 47 3 is_stmt 1 view .LVU515
 2122 0032 080F      		add r16,r24
 2123 0034 191F      		adc r17,r25
 2124               	.LVL175:
 2125               	.L123:
  36:./tmk_core/protocol/lufa/LUFA-git/LUFA/Drivers/USB/Core/AVR8/Template/Template_Endpoint_RW.c **** 	uint8_t* DataStream      = ((uint8_t*)Buffer + TEMPLATE_BUFFER_OFFSET(Length));
 2126               		.loc 3 36 1 is_stmt 0 view .LVU516
 2127 0036 A12C      		mov r10,__zero_reg__
 2128 0038 B12C      		mov r11,__zero_reg__
 2129               	.LVL176:
 2130               	.L124:
  50:./tmk_core/protocol/lufa/LUFA-git/LUFA/Drivers/USB/Core/AVR8/Template/Template_Endpoint_RW.c **** 	{
 2131               		.loc 3 50 9 is_stmt 1 view .LVU517
 2132 003a 2097      		sbiw r28,0
 2133 003c 01F0      		breq .L121
 2134               	.LVL177:
 2135               	.L127:
  52:./tmk_core/protocol/lufa/LUFA-git/LUFA/Drivers/USB/Core/AVR8/Template/Template_Endpoint_RW.c **** 		{
 2136               		.loc 3 52 3 view .LVU518
 2137               	.LBB330:
 2138               	.LBI330:
 358:./tmk_core/protocol/lufa/LUFA-git/LUFA/Drivers/USB/Core/AVR8/../AVR8/../AVR8/Endpoint_AVR8.h **** 			{
 2139               		.loc 2 358 23 view .LVU519
 2140               	.LBB331:
 360:./tmk_core/protocol/lufa/LUFA-git/LUFA/Drivers/USB/Core/AVR8/../AVR8/../AVR8/Endpoint_AVR8.h **** 			}
 2141               		.loc 2 360 5 view .LVU520
 360:./tmk_core/protocol/lufa/LUFA-git/LUFA/Drivers/USB/Core/AVR8/../AVR8/../AVR8/Endpoint_AVR8.h **** 			}
 2142               		.loc 2 360 14 is_stmt 0 view .LVU521
 2143 003e 8091 E800 		lds r24,232
 2144               	.LBE331:
 2145               	.LBE330:
  52:./tmk_core/protocol/lufa/LUFA-git/LUFA/Drivers/USB/Core/AVR8/Template/Template_Endpoint_RW.c **** 		{
 2146               		.loc 3 52 6 view .LVU522
 2147 0042 85FD      		sbrc r24,5
 2148 0044 00C0      		rjmp .L125
  54:./tmk_core/protocol/lufa/LUFA-git/LUFA/Drivers/USB/Core/AVR8/Template/Template_Endpoint_RW.c **** 
 2149               		.loc 3 54 4 is_stmt 1 view .LVU523
 2150               	.LBB332:
 2151               	.LBI332:
 468:./tmk_core/protocol/lufa/LUFA-git/LUFA/Drivers/USB/Core/AVR8/../AVR8/../AVR8/Endpoint_AVR8.h **** 			{
 2152               		.loc 2 468 23 view .LVU524
 2153               	.LBB333:
 471:./tmk_core/protocol/lufa/LUFA-git/LUFA/Drivers/USB/Core/AVR8/../AVR8/../AVR8/Endpoint_AVR8.h **** 				#else
 2154               		.loc 2 471 6 view .LVU525
 471:./tmk_core/protocol/lufa/LUFA-git/LUFA/Drivers/USB/Core/AVR8/../AVR8/../AVR8/Endpoint_AVR8.h **** 				#else
 2155               		.loc 2 471 13 is_stmt 0 view .LVU526
 2156 0046 8091 E800 		lds r24,232
 2157 004a 8B77      		andi r24,lo8(123)
 2158 004c 8093 E800 		sts 232,r24
 2159               	.LBE333:
 2160               	.LBE332:
  60:./tmk_core/protocol/lufa/LUFA-git/LUFA/Drivers/USB/Core/AVR8/Template/Template_Endpoint_RW.c **** 			{
 2161               		.loc 3 60 4 is_stmt 1 view .LVU527
  60:./tmk_core/protocol/lufa/LUFA-git/LUFA/Drivers/USB/Core/AVR8/Template/Template_Endpoint_RW.c **** 			{
 2162               		.loc 3 60 7 is_stmt 0 view .LVU528
 2163 0050 E114      		cp r14,__zero_reg__
 2164 0052 F104      		cpc r15,__zero_reg__
 2165 0054 01F0      		breq .L126
  62:./tmk_core/protocol/lufa/LUFA-git/LUFA/Drivers/USB/Core/AVR8/Template/Template_Endpoint_RW.c **** 				return ENDPOINT_RWSTREAM_IncompleteTransfer;
 2166               		.loc 3 62 5 is_stmt 1 view .LVU529
  62:./tmk_core/protocol/lufa/LUFA-git/LUFA/Drivers/USB/Core/AVR8/Template/Template_Endpoint_RW.c **** 				return ENDPOINT_RWSTREAM_IncompleteTransfer;
 2167               		.loc 3 62 21 is_stmt 0 view .LVU530
 2168 0056 F701      		movw r30,r14
 2169 0058 8081      		ld r24,Z
 2170 005a 9181      		ldd r25,Z+1
 2171 005c 8A0D      		add r24,r10
 2172 005e 9B1D      		adc r25,r11
 2173 0060 9183      		std Z+1,r25
 2174 0062 8083      		st Z,r24
  63:./tmk_core/protocol/lufa/LUFA-git/LUFA/Drivers/USB/Core/AVR8/Template/Template_Endpoint_RW.c **** 			}
 2175               		.loc 3 63 5 is_stmt 1 view .LVU531
  63:./tmk_core/protocol/lufa/LUFA-git/LUFA/Drivers/USB/Core/AVR8/Template/Template_Endpoint_RW.c **** 			}
 2176               		.loc 3 63 12 is_stmt 0 view .LVU532
 2177 0064 85E0      		ldi r24,lo8(5)
 2178 0066 D82E      		mov r13,r24
 2179               	.L121:
 2180               		.loc 3 79 1 view .LVU533
 2181 0068 8D2D      		mov r24,r13
 2182               	/* epilogue start */
 2183 006a DF91      		pop r29
 2184 006c CF91      		pop r28
 2185 006e 1F91      		pop r17
 2186 0070 0F91      		pop r16
 2187 0072 FF90      		pop r15
 2188 0074 EF90      		pop r14
 2189               	.LVL178:
 2190               		.loc 3 79 1 view .LVU534
 2191 0076 DF90      		pop r13
 2192 0078 BF90      		pop r11
 2193 007a AF90      		pop r10
 2194 007c 0895      		ret
 2195               	.LVL179:
 2196               	.L126:
  66:./tmk_core/protocol/lufa/LUFA-git/LUFA/Drivers/USB/Core/AVR8/Template/Template_Endpoint_RW.c **** 			  return ErrorCode;
 2197               		.loc 3 66 4 is_stmt 1 view .LVU535
  66:./tmk_core/protocol/lufa/LUFA-git/LUFA/Drivers/USB/Core/AVR8/Template/Template_Endpoint_RW.c **** 			  return ErrorCode;
 2198               		.loc 3 66 21 is_stmt 0 view .LVU536
 2199 007e 0E94 0000 		call Endpoint_WaitUntilReady
 2200               	.LVL180:
  66:./tmk_core/protocol/lufa/LUFA-git/LUFA/Drivers/USB/Core/AVR8/Template/Template_Endpoint_RW.c **** 			  return ErrorCode;
 2201               		.loc 3 66 7 view .LVU537
 2202 0082 8823      		tst r24
 2203 0084 01F0      		breq .L127
  66:./tmk_core/protocol/lufa/LUFA-git/LUFA/Drivers/USB/Core/AVR8/Template/Template_Endpoint_RW.c **** 			  return ErrorCode;
 2204               		.loc 3 66 21 view .LVU538
 2205 0086 D82E      		mov r13,r24
 2206 0088 00C0      		rjmp .L121
 2207               	.LVL181:
 2208               	.L125:
  71:./tmk_core/protocol/lufa/LUFA-git/LUFA/Drivers/USB/Core/AVR8/Template/Template_Endpoint_RW.c **** 			TEMPLATE_BUFFER_MOVE(DataStream, 1);
 2209               		.loc 3 71 4 is_stmt 1 view .LVU539
 2210               	.LBB334:
 2211               	.LBI334:
 540:./tmk_core/protocol/lufa/LUFA-git/LUFA/Drivers/USB/Core/AVR8/../AVR8/../AVR8/Endpoint_AVR8.h **** 			{
 2212               		.loc 2 540 26 view .LVU540
 2213               	.LBB335:
 542:./tmk_core/protocol/lufa/LUFA-git/LUFA/Drivers/USB/Core/AVR8/../AVR8/../AVR8/Endpoint_AVR8.h **** 			}
 2214               		.loc 2 542 5 view .LVU541
 542:./tmk_core/protocol/lufa/LUFA-git/LUFA/Drivers/USB/Core/AVR8/../AVR8/../AVR8/Endpoint_AVR8.h **** 			}
 2215               		.loc 2 542 12 is_stmt 0 view .LVU542
 2216 008a 6091 F100 		lds r22,241
 2217               	.LBE335:
 2218               	.LBE334:
  71:./tmk_core/protocol/lufa/LUFA-git/LUFA/Drivers/USB/Core/AVR8/Template/Template_Endpoint_RW.c **** 			TEMPLATE_BUFFER_MOVE(DataStream, 1);
 2219               		.loc 3 71 4 view .LVU543
 2220 008e C801      		movw r24,r16
 2221 0090 0E94 0000 		call eeprom_update_byte
 2222               	.LVL182:
  72:./tmk_core/protocol/lufa/LUFA-git/LUFA/Drivers/USB/Core/AVR8/Template/Template_Endpoint_RW.c **** 			Length--;
 2223               		.loc 3 72 4 is_stmt 1 view .LVU544
 2224 0094 0F5F      		subi r16,-1
 2225 0096 1F4F      		sbci r17,-1
 2226               	.LVL183:
  73:./tmk_core/protocol/lufa/LUFA-git/LUFA/Drivers/USB/Core/AVR8/Template/Template_Endpoint_RW.c **** 			BytesInTransfer++;
 2227               		.loc 3 73 4 view .LVU545
  73:./tmk_core/protocol/lufa/LUFA-git/LUFA/Drivers/USB/Core/AVR8/Template/Template_Endpoint_RW.c **** 			BytesInTransfer++;
 2228               		.loc 3 73 10 is_stmt 0 view .LVU546
 2229 0098 2197      		sbiw r28,1
 2230               	.LVL184:
  74:./tmk_core/protocol/lufa/LUFA-git/LUFA/Drivers/USB/Core/AVR8/Template/Template_Endpoint_RW.c **** 		}
 2231               		.loc 3 74 4 is_stmt 1 view .LVU547
  74:./tmk_core/protocol/lufa/LUFA-git/LUFA/Drivers/USB/Core/AVR8/Template/Template_Endpoint_RW.c **** 		}
 2232               		.loc 3 74 19 is_stmt 0 view .LVU548
 2233 009a FFEF      		ldi r31,-1
 2234 009c AF1A      		sub r10,r31
 2235 009e BF0A      		sbc r11,r31
 2236               	.LVL185:
  74:./tmk_core/protocol/lufa/LUFA-git/LUFA/Drivers/USB/Core/AVR8/Template/Template_Endpoint_RW.c **** 		}
 2237               		.loc 3 74 19 view .LVU549
 2238 00a0 00C0      		rjmp .L124
 2239               		.cfi_endproc
 2240               	.LFE99:
 2242               		.section	.text.Endpoint_Read_EStream_BE,"ax",@progbits
 2243               	.global	Endpoint_Read_EStream_BE
 2245               	Endpoint_Read_EStream_BE:
 2246               	.LVL186:
 2247               	.LFB100:
  36:./tmk_core/protocol/lufa/LUFA-git/LUFA/Drivers/USB/Core/AVR8/Template/Template_Endpoint_RW.c **** 	uint8_t* DataStream      = ((uint8_t*)Buffer + TEMPLATE_BUFFER_OFFSET(Length));
 2248               		.loc 3 36 1 is_stmt 1 view -0
 2249               		.cfi_startproc
  36:./tmk_core/protocol/lufa/LUFA-git/LUFA/Drivers/USB/Core/AVR8/Template/Template_Endpoint_RW.c **** 	uint8_t* DataStream      = ((uint8_t*)Buffer + TEMPLATE_BUFFER_OFFSET(Length));
 2250               		.loc 3 36 1 is_stmt 0 view .LVU551
 2251 0000 AF92      		push r10
 2252               	.LCFI95:
 2253               		.cfi_def_cfa_offset 3
 2254               		.cfi_offset 10, -2
 2255 0002 BF92      		push r11
 2256               	.LCFI96:
 2257               		.cfi_def_cfa_offset 4
 2258               		.cfi_offset 11, -3
 2259 0004 DF92      		push r13
 2260               	.LCFI97:
 2261               		.cfi_def_cfa_offset 5
 2262               		.cfi_offset 13, -4
 2263 0006 EF92      		push r14
 2264               	.LCFI98:
 2265               		.cfi_def_cfa_offset 6
 2266               		.cfi_offset 14, -5
 2267 0008 FF92      		push r15
 2268               	.LCFI99:
 2269               		.cfi_def_cfa_offset 7
 2270               		.cfi_offset 15, -6
 2271 000a 0F93      		push r16
 2272               	.LCFI100:
 2273               		.cfi_def_cfa_offset 8
 2274               		.cfi_offset 16, -7
 2275 000c 1F93      		push r17
 2276               	.LCFI101:
 2277               		.cfi_def_cfa_offset 9
 2278               		.cfi_offset 17, -8
 2279 000e CF93      		push r28
 2280               	.LCFI102:
 2281               		.cfi_def_cfa_offset 10
 2282               		.cfi_offset 28, -9
 2283 0010 DF93      		push r29
 2284               	.LCFI103:
 2285               		.cfi_def_cfa_offset 11
 2286               		.cfi_offset 29, -10
 2287               	/* prologue: function */
 2288               	/* frame size = 0 */
 2289               	/* stack size = 9 */
 2290               	.L__stack_usage = 9
 2291 0012 EC01      		movw r28,r24
 2292 0014 8B01      		movw r16,r22
 2293 0016 7A01      		movw r14,r20
  37:./tmk_core/protocol/lufa/LUFA-git/LUFA/Drivers/USB/Core/AVR8/Template/Template_Endpoint_RW.c **** 	uint16_t BytesInTransfer = 0;
 2294               		.loc 3 37 2 is_stmt 1 view .LVU552
 2295               	.LVL187:
  38:./tmk_core/protocol/lufa/LUFA-git/LUFA/Drivers/USB/Core/AVR8/Template/Template_Endpoint_RW.c **** 	uint8_t  ErrorCode;
 2296               		.loc 3 38 2 view .LVU553
  39:./tmk_core/protocol/lufa/LUFA-git/LUFA/Drivers/USB/Core/AVR8/Template/Template_Endpoint_RW.c **** 
 2297               		.loc 3 39 2 view .LVU554
  41:./tmk_core/protocol/lufa/LUFA-git/LUFA/Drivers/USB/Core/AVR8/Template/Template_Endpoint_RW.c **** 	  return ErrorCode;
 2298               		.loc 3 41 2 view .LVU555
  41:./tmk_core/protocol/lufa/LUFA-git/LUFA/Drivers/USB/Core/AVR8/Template/Template_Endpoint_RW.c **** 	  return ErrorCode;
 2299               		.loc 3 41 19 is_stmt 0 view .LVU556
 2300 0018 0E94 0000 		call Endpoint_WaitUntilReady
 2301               	.LVL188:
  41:./tmk_core/protocol/lufa/LUFA-git/LUFA/Drivers/USB/Core/AVR8/Template/Template_Endpoint_RW.c **** 	  return ErrorCode;
 2302               		.loc 3 41 19 view .LVU557
 2303 001c D82E      		mov r13,r24
 2304               	.LVL189:
  41:./tmk_core/protocol/lufa/LUFA-git/LUFA/Drivers/USB/Core/AVR8/Template/Template_Endpoint_RW.c **** 	  return ErrorCode;
 2305               		.loc 3 41 5 view .LVU558
 2306 001e 8111      		cpse r24,__zero_reg__
 2307 0020 00C0      		rjmp .L133
  37:./tmk_core/protocol/lufa/LUFA-git/LUFA/Drivers/USB/Core/AVR8/Template/Template_Endpoint_RW.c **** 	uint16_t BytesInTransfer = 0;
 2308               		.loc 3 37 47 view .LVU559
 2309 0022 C801      		movw r24,r16
 2310 0024 0197      		sbiw r24,1
 2311               	.LVL190:
  37:./tmk_core/protocol/lufa/LUFA-git/LUFA/Drivers/USB/Core/AVR8/Template/Template_Endpoint_RW.c **** 	uint16_t BytesInTransfer = 0;
 2312               		.loc 3 37 11 view .LVU560
 2313 0026 C80F      		add r28,r24
 2314 0028 D91F      		adc r29,r25
 2315               	.LVL191:
  44:./tmk_core/protocol/lufa/LUFA-git/LUFA/Drivers/USB/Core/AVR8/Template/Template_Endpoint_RW.c **** 	{
 2316               		.loc 3 44 2 is_stmt 1 view .LVU561
  44:./tmk_core/protocol/lufa/LUFA-git/LUFA/Drivers/USB/Core/AVR8/Template/Template_Endpoint_RW.c **** 	{
 2317               		.loc 3 44 5 is_stmt 0 view .LVU562
 2318 002a E114      		cp r14,__zero_reg__
 2319 002c F104      		cpc r15,__zero_reg__
 2320 002e 01F0      		breq .L135
  46:./tmk_core/protocol/lufa/LUFA-git/LUFA/Drivers/USB/Core/AVR8/Template/Template_Endpoint_RW.c **** 		TEMPLATE_BUFFER_MOVE(DataStream, *BytesProcessed);
 2321               		.loc 3 46 3 is_stmt 1 view .LVU563
  46:./tmk_core/protocol/lufa/LUFA-git/LUFA/Drivers/USB/Core/AVR8/Template/Template_Endpoint_RW.c **** 		TEMPLATE_BUFFER_MOVE(DataStream, *BytesProcessed);
 2322               		.loc 3 46 13 is_stmt 0 view .LVU564
 2323 0030 F701      		movw r30,r14
 2324 0032 8081      		ld r24,Z
 2325 0034 9181      		ldd r25,Z+1
 2326               	.LVL192:
  46:./tmk_core/protocol/lufa/LUFA-git/LUFA/Drivers/USB/Core/AVR8/Template/Template_Endpoint_RW.c **** 		TEMPLATE_BUFFER_MOVE(DataStream, *BytesProcessed);
 2327               		.loc 3 46 10 view .LVU565
 2328 0036 081B      		sub r16,r24
 2329 0038 190B      		sbc r17,r25
 2330               	.LVL193:
  47:./tmk_core/protocol/lufa/LUFA-git/LUFA/Drivers/USB/Core/AVR8/Template/Template_Endpoint_RW.c **** 	}
 2331               		.loc 3 47 3 is_stmt 1 view .LVU566
 2332 003a C81B      		sub r28,r24
 2333 003c D90B      		sbc r29,r25
 2334               	.LVL194:
 2335               	.L135:
  36:./tmk_core/protocol/lufa/LUFA-git/LUFA/Drivers/USB/Core/AVR8/Template/Template_Endpoint_RW.c **** 	uint8_t* DataStream      = ((uint8_t*)Buffer + TEMPLATE_BUFFER_OFFSET(Length));
 2336               		.loc 3 36 1 is_stmt 0 view .LVU567
 2337 003e A12C      		mov r10,__zero_reg__
 2338 0040 B12C      		mov r11,__zero_reg__
 2339               	.LVL195:
 2340               	.L136:
  50:./tmk_core/protocol/lufa/LUFA-git/LUFA/Drivers/USB/Core/AVR8/Template/Template_Endpoint_RW.c **** 	{
 2341               		.loc 3 50 9 is_stmt 1 view .LVU568
 2342 0042 0115      		cp r16,__zero_reg__
 2343 0044 1105      		cpc r17,__zero_reg__
 2344 0046 01F0      		breq .L133
 2345               	.LVL196:
 2346               	.L139:
  52:./tmk_core/protocol/lufa/LUFA-git/LUFA/Drivers/USB/Core/AVR8/Template/Template_Endpoint_RW.c **** 		{
 2347               		.loc 3 52 3 view .LVU569
 2348               	.LBB336:
 2349               	.LBI336:
 358:./tmk_core/protocol/lufa/LUFA-git/LUFA/Drivers/USB/Core/AVR8/../AVR8/../AVR8/Endpoint_AVR8.h **** 			{
 2350               		.loc 2 358 23 view .LVU570
 2351               	.LBB337:
 360:./tmk_core/protocol/lufa/LUFA-git/LUFA/Drivers/USB/Core/AVR8/../AVR8/../AVR8/Endpoint_AVR8.h **** 			}
 2352               		.loc 2 360 5 view .LVU571
 360:./tmk_core/protocol/lufa/LUFA-git/LUFA/Drivers/USB/Core/AVR8/../AVR8/../AVR8/Endpoint_AVR8.h **** 			}
 2353               		.loc 2 360 14 is_stmt 0 view .LVU572
 2354 0048 8091 E800 		lds r24,232
 2355               	.LBE337:
 2356               	.LBE336:
  52:./tmk_core/protocol/lufa/LUFA-git/LUFA/Drivers/USB/Core/AVR8/Template/Template_Endpoint_RW.c **** 		{
 2357               		.loc 3 52 6 view .LVU573
 2358 004c 85FD      		sbrc r24,5
 2359 004e 00C0      		rjmp .L137
  54:./tmk_core/protocol/lufa/LUFA-git/LUFA/Drivers/USB/Core/AVR8/Template/Template_Endpoint_RW.c **** 
 2360               		.loc 3 54 4 is_stmt 1 view .LVU574
 2361               	.LBB338:
 2362               	.LBI338:
 468:./tmk_core/protocol/lufa/LUFA-git/LUFA/Drivers/USB/Core/AVR8/../AVR8/../AVR8/Endpoint_AVR8.h **** 			{
 2363               		.loc 2 468 23 view .LVU575
 2364               	.LBB339:
 471:./tmk_core/protocol/lufa/LUFA-git/LUFA/Drivers/USB/Core/AVR8/../AVR8/../AVR8/Endpoint_AVR8.h **** 				#else
 2365               		.loc 2 471 6 view .LVU576
 471:./tmk_core/protocol/lufa/LUFA-git/LUFA/Drivers/USB/Core/AVR8/../AVR8/../AVR8/Endpoint_AVR8.h **** 				#else
 2366               		.loc 2 471 13 is_stmt 0 view .LVU577
 2367 0050 8091 E800 		lds r24,232
 2368 0054 8B77      		andi r24,lo8(123)
 2369 0056 8093 E800 		sts 232,r24
 2370               	.LBE339:
 2371               	.LBE338:
  60:./tmk_core/protocol/lufa/LUFA-git/LUFA/Drivers/USB/Core/AVR8/Template/Template_Endpoint_RW.c **** 			{
 2372               		.loc 3 60 4 is_stmt 1 view .LVU578
  60:./tmk_core/protocol/lufa/LUFA-git/LUFA/Drivers/USB/Core/AVR8/Template/Template_Endpoint_RW.c **** 			{
 2373               		.loc 3 60 7 is_stmt 0 view .LVU579
 2374 005a E114      		cp r14,__zero_reg__
 2375 005c F104      		cpc r15,__zero_reg__
 2376 005e 01F0      		breq .L138
  62:./tmk_core/protocol/lufa/LUFA-git/LUFA/Drivers/USB/Core/AVR8/Template/Template_Endpoint_RW.c **** 				return ENDPOINT_RWSTREAM_IncompleteTransfer;
 2377               		.loc 3 62 5 is_stmt 1 view .LVU580
  62:./tmk_core/protocol/lufa/LUFA-git/LUFA/Drivers/USB/Core/AVR8/Template/Template_Endpoint_RW.c **** 				return ENDPOINT_RWSTREAM_IncompleteTransfer;
 2378               		.loc 3 62 21 is_stmt 0 view .LVU581
 2379 0060 F701      		movw r30,r14
 2380 0062 8081      		ld r24,Z
 2381 0064 9181      		ldd r25,Z+1
 2382 0066 8A0D      		add r24,r10
 2383 0068 9B1D      		adc r25,r11
 2384 006a 9183      		std Z+1,r25
 2385 006c 8083      		st Z,r24
  63:./tmk_core/protocol/lufa/LUFA-git/LUFA/Drivers/USB/Core/AVR8/Template/Template_Endpoint_RW.c **** 			}
 2386               		.loc 3 63 5 is_stmt 1 view .LVU582
  63:./tmk_core/protocol/lufa/LUFA-git/LUFA/Drivers/USB/Core/AVR8/Template/Template_Endpoint_RW.c **** 			}
 2387               		.loc 3 63 12 is_stmt 0 view .LVU583
 2388 006e 85E0      		ldi r24,lo8(5)
 2389 0070 D82E      		mov r13,r24
 2390               	.L133:
 2391               		.loc 3 79 1 view .LVU584
 2392 0072 8D2D      		mov r24,r13
 2393               	/* epilogue start */
 2394 0074 DF91      		pop r29
 2395 0076 CF91      		pop r28
 2396 0078 1F91      		pop r17
 2397 007a 0F91      		pop r16
 2398 007c FF90      		pop r15
 2399 007e EF90      		pop r14
 2400               	.LVL197:
 2401               		.loc 3 79 1 view .LVU585
 2402 0080 DF90      		pop r13
 2403 0082 BF90      		pop r11
 2404 0084 AF90      		pop r10
 2405 0086 0895      		ret
 2406               	.LVL198:
 2407               	.L138:
  66:./tmk_core/protocol/lufa/LUFA-git/LUFA/Drivers/USB/Core/AVR8/Template/Template_Endpoint_RW.c **** 			  return ErrorCode;
 2408               		.loc 3 66 4 is_stmt 1 view .LVU586
  66:./tmk_core/protocol/lufa/LUFA-git/LUFA/Drivers/USB/Core/AVR8/Template/Template_Endpoint_RW.c **** 			  return ErrorCode;
 2409               		.loc 3 66 21 is_stmt 0 view .LVU587
 2410 0088 0E94 0000 		call Endpoint_WaitUntilReady
 2411               	.LVL199:
  66:./tmk_core/protocol/lufa/LUFA-git/LUFA/Drivers/USB/Core/AVR8/Template/Template_Endpoint_RW.c **** 			  return ErrorCode;
 2412               		.loc 3 66 7 view .LVU588
 2413 008c 8823      		tst r24
 2414 008e 01F0      		breq .L139
  66:./tmk_core/protocol/lufa/LUFA-git/LUFA/Drivers/USB/Core/AVR8/Template/Template_Endpoint_RW.c **** 			  return ErrorCode;
 2415               		.loc 3 66 21 view .LVU589
 2416 0090 D82E      		mov r13,r24
 2417 0092 00C0      		rjmp .L133
 2418               	.LVL200:
 2419               	.L137:
  71:./tmk_core/protocol/lufa/LUFA-git/LUFA/Drivers/USB/Core/AVR8/Template/Template_Endpoint_RW.c **** 			TEMPLATE_BUFFER_MOVE(DataStream, 1);
 2420               		.loc 3 71 4 is_stmt 1 view .LVU590
 2421               	.LBB340:
 2422               	.LBI340:
 540:./tmk_core/protocol/lufa/LUFA-git/LUFA/Drivers/USB/Core/AVR8/../AVR8/../AVR8/Endpoint_AVR8.h **** 			{
 2423               		.loc 2 540 26 view .LVU591
 2424               	.LBB341:
 542:./tmk_core/protocol/lufa/LUFA-git/LUFA/Drivers/USB/Core/AVR8/../AVR8/../AVR8/Endpoint_AVR8.h **** 			}
 2425               		.loc 2 542 5 view .LVU592
 542:./tmk_core/protocol/lufa/LUFA-git/LUFA/Drivers/USB/Core/AVR8/../AVR8/../AVR8/Endpoint_AVR8.h **** 			}
 2426               		.loc 2 542 12 is_stmt 0 view .LVU593
 2427 0094 6091 F100 		lds r22,241
 2428               	.LBE341:
 2429               	.LBE340:
  71:./tmk_core/protocol/lufa/LUFA-git/LUFA/Drivers/USB/Core/AVR8/Template/Template_Endpoint_RW.c **** 			TEMPLATE_BUFFER_MOVE(DataStream, 1);
 2430               		.loc 3 71 4 view .LVU594
 2431 0098 CE01      		movw r24,r28
 2432 009a 0E94 0000 		call eeprom_update_byte
 2433               	.LVL201:
  72:./tmk_core/protocol/lufa/LUFA-git/LUFA/Drivers/USB/Core/AVR8/Template/Template_Endpoint_RW.c **** 			Length--;
 2434               		.loc 3 72 4 is_stmt 1 view .LVU595
 2435 009e 2197      		sbiw r28,1
 2436               	.LVL202:
  73:./tmk_core/protocol/lufa/LUFA-git/LUFA/Drivers/USB/Core/AVR8/Template/Template_Endpoint_RW.c **** 			BytesInTransfer++;
 2437               		.loc 3 73 4 view .LVU596
  73:./tmk_core/protocol/lufa/LUFA-git/LUFA/Drivers/USB/Core/AVR8/Template/Template_Endpoint_RW.c **** 			BytesInTransfer++;
 2438               		.loc 3 73 10 is_stmt 0 view .LVU597
 2439 00a0 0150      		subi r16,1
 2440 00a2 1109      		sbc r17,__zero_reg__
 2441               	.LVL203:
  74:./tmk_core/protocol/lufa/LUFA-git/LUFA/Drivers/USB/Core/AVR8/Template/Template_Endpoint_RW.c **** 		}
 2442               		.loc 3 74 4 is_stmt 1 view .LVU598
  74:./tmk_core/protocol/lufa/LUFA-git/LUFA/Drivers/USB/Core/AVR8/Template/Template_Endpoint_RW.c **** 		}
 2443               		.loc 3 74 19 is_stmt 0 view .LVU599
 2444 00a4 FFEF      		ldi r31,-1
 2445 00a6 AF1A      		sub r10,r31
 2446 00a8 BF0A      		sbc r11,r31
 2447               	.LVL204:
  74:./tmk_core/protocol/lufa/LUFA-git/LUFA/Drivers/USB/Core/AVR8/Template/Template_Endpoint_RW.c **** 		}
 2448               		.loc 3 74 19 view .LVU600
 2449 00aa 00C0      		rjmp .L136
 2450               		.cfi_endproc
 2451               	.LFE100:
 2453               		.section	.text.Endpoint_Write_Control_Stream_LE,"ax",@progbits
 2454               	.global	Endpoint_Write_Control_Stream_LE
 2456               	Endpoint_Write_Control_Stream_LE:
 2457               	.LVL205:
 2458               	.LFB101:
 2459               		.file 4 "./tmk_core/protocol/lufa/LUFA-git/LUFA/Drivers/USB/Core/AVR8/Template/Template_Endpoint_C
   1:./tmk_core/protocol/lufa/LUFA-git/LUFA/Drivers/USB/Core/AVR8/Template/Template_Endpoint_Control_W.c **** /*
   2:./tmk_core/protocol/lufa/LUFA-git/LUFA/Drivers/USB/Core/AVR8/Template/Template_Endpoint_Control_W.c ****              LUFA Library
   3:./tmk_core/protocol/lufa/LUFA-git/LUFA/Drivers/USB/Core/AVR8/Template/Template_Endpoint_Control_W.c ****      Copyright (C) Dean Camera, 2014.
   4:./tmk_core/protocol/lufa/LUFA-git/LUFA/Drivers/USB/Core/AVR8/Template/Template_Endpoint_Control_W.c **** 
   5:./tmk_core/protocol/lufa/LUFA-git/LUFA/Drivers/USB/Core/AVR8/Template/Template_Endpoint_Control_W.c ****   dean [at] fourwalledcubicle [dot] com
   6:./tmk_core/protocol/lufa/LUFA-git/LUFA/Drivers/USB/Core/AVR8/Template/Template_Endpoint_Control_W.c ****            www.lufa-lib.org
   7:./tmk_core/protocol/lufa/LUFA-git/LUFA/Drivers/USB/Core/AVR8/Template/Template_Endpoint_Control_W.c **** */
   8:./tmk_core/protocol/lufa/LUFA-git/LUFA/Drivers/USB/Core/AVR8/Template/Template_Endpoint_Control_W.c **** 
   9:./tmk_core/protocol/lufa/LUFA-git/LUFA/Drivers/USB/Core/AVR8/Template/Template_Endpoint_Control_W.c **** /*
  10:./tmk_core/protocol/lufa/LUFA-git/LUFA/Drivers/USB/Core/AVR8/Template/Template_Endpoint_Control_W.c ****   Copyright 2014  Dean Camera (dean [at] fourwalledcubicle [dot] com)
  11:./tmk_core/protocol/lufa/LUFA-git/LUFA/Drivers/USB/Core/AVR8/Template/Template_Endpoint_Control_W.c **** 
  12:./tmk_core/protocol/lufa/LUFA-git/LUFA/Drivers/USB/Core/AVR8/Template/Template_Endpoint_Control_W.c ****   Permission to use, copy, modify, distribute, and sell this
  13:./tmk_core/protocol/lufa/LUFA-git/LUFA/Drivers/USB/Core/AVR8/Template/Template_Endpoint_Control_W.c ****   software and its documentation for any purpose is hereby granted
  14:./tmk_core/protocol/lufa/LUFA-git/LUFA/Drivers/USB/Core/AVR8/Template/Template_Endpoint_Control_W.c ****   without fee, provided that the above copyright notice appear in
  15:./tmk_core/protocol/lufa/LUFA-git/LUFA/Drivers/USB/Core/AVR8/Template/Template_Endpoint_Control_W.c ****   all copies and that both that the copyright notice and this
  16:./tmk_core/protocol/lufa/LUFA-git/LUFA/Drivers/USB/Core/AVR8/Template/Template_Endpoint_Control_W.c ****   permission notice and warranty disclaimer appear in supporting
  17:./tmk_core/protocol/lufa/LUFA-git/LUFA/Drivers/USB/Core/AVR8/Template/Template_Endpoint_Control_W.c ****   documentation, and that the name of the author not be used in
  18:./tmk_core/protocol/lufa/LUFA-git/LUFA/Drivers/USB/Core/AVR8/Template/Template_Endpoint_Control_W.c ****   advertising or publicity pertaining to distribution of the
  19:./tmk_core/protocol/lufa/LUFA-git/LUFA/Drivers/USB/Core/AVR8/Template/Template_Endpoint_Control_W.c ****   software without specific, written prior permission.
  20:./tmk_core/protocol/lufa/LUFA-git/LUFA/Drivers/USB/Core/AVR8/Template/Template_Endpoint_Control_W.c **** 
  21:./tmk_core/protocol/lufa/LUFA-git/LUFA/Drivers/USB/Core/AVR8/Template/Template_Endpoint_Control_W.c ****   The author disclaims all warranties with regard to this
  22:./tmk_core/protocol/lufa/LUFA-git/LUFA/Drivers/USB/Core/AVR8/Template/Template_Endpoint_Control_W.c ****   software, including all implied warranties of merchantability
  23:./tmk_core/protocol/lufa/LUFA-git/LUFA/Drivers/USB/Core/AVR8/Template/Template_Endpoint_Control_W.c ****   and fitness.  In no event shall the author be liable for any
  24:./tmk_core/protocol/lufa/LUFA-git/LUFA/Drivers/USB/Core/AVR8/Template/Template_Endpoint_Control_W.c ****   special, indirect or consequential damages or any damages
  25:./tmk_core/protocol/lufa/LUFA-git/LUFA/Drivers/USB/Core/AVR8/Template/Template_Endpoint_Control_W.c ****   whatsoever resulting from loss of use, data or profits, whether
  26:./tmk_core/protocol/lufa/LUFA-git/LUFA/Drivers/USB/Core/AVR8/Template/Template_Endpoint_Control_W.c ****   in an action of contract, negligence or other tortious action,
  27:./tmk_core/protocol/lufa/LUFA-git/LUFA/Drivers/USB/Core/AVR8/Template/Template_Endpoint_Control_W.c ****   arising out of or in connection with the use or performance of
  28:./tmk_core/protocol/lufa/LUFA-git/LUFA/Drivers/USB/Core/AVR8/Template/Template_Endpoint_Control_W.c ****   this software.
  29:./tmk_core/protocol/lufa/LUFA-git/LUFA/Drivers/USB/Core/AVR8/Template/Template_Endpoint_Control_W.c **** */
  30:./tmk_core/protocol/lufa/LUFA-git/LUFA/Drivers/USB/Core/AVR8/Template/Template_Endpoint_Control_W.c **** 
  31:./tmk_core/protocol/lufa/LUFA-git/LUFA/Drivers/USB/Core/AVR8/Template/Template_Endpoint_Control_W.c **** #if defined(TEMPLATE_FUNC_NAME)
  32:./tmk_core/protocol/lufa/LUFA-git/LUFA/Drivers/USB/Core/AVR8/Template/Template_Endpoint_Control_W.c **** 
  33:./tmk_core/protocol/lufa/LUFA-git/LUFA/Drivers/USB/Core/AVR8/Template/Template_Endpoint_Control_W.c **** uint8_t TEMPLATE_FUNC_NAME (const void* const Buffer,
  34:./tmk_core/protocol/lufa/LUFA-git/LUFA/Drivers/USB/Core/AVR8/Template/Template_Endpoint_Control_W.c ****                             uint16_t Length)
  35:./tmk_core/protocol/lufa/LUFA-git/LUFA/Drivers/USB/Core/AVR8/Template/Template_Endpoint_Control_W.c **** {
 2460               		.loc 4 35 1 is_stmt 1 view -0
 2461               		.cfi_startproc
 2462               	/* prologue: function */
 2463               	/* frame size = 0 */
 2464               	/* stack size = 0 */
 2465               	.L__stack_usage = 0
 2466               		.loc 4 35 1 is_stmt 0 view .LVU602
 2467 0000 FC01      		movw r30,r24
 2468 0002 9B01      		movw r18,r22
  36:./tmk_core/protocol/lufa/LUFA-git/LUFA/Drivers/USB/Core/AVR8/Template/Template_Endpoint_Control_W.c **** 	uint8_t* DataStream     = ((uint8_t*)Buffer + TEMPLATE_BUFFER_OFFSET(Length));
 2469               		.loc 4 36 2 is_stmt 1 view .LVU603
 2470               	.LVL206:
  37:./tmk_core/protocol/lufa/LUFA-git/LUFA/Drivers/USB/Core/AVR8/Template/Template_Endpoint_Control_W.c **** 	bool     LastPacketFull = false;
 2471               		.loc 4 37 2 view .LVU604
  38:./tmk_core/protocol/lufa/LUFA-git/LUFA/Drivers/USB/Core/AVR8/Template/Template_Endpoint_Control_W.c **** 
  39:./tmk_core/protocol/lufa/LUFA-git/LUFA/Drivers/USB/Core/AVR8/Template/Template_Endpoint_Control_W.c **** 	if (Length > USB_ControlRequest.wLength)
 2472               		.loc 4 39 2 view .LVU605
 2473               		.loc 4 39 33 is_stmt 0 view .LVU606
 2474 0004 8091 0000 		lds r24,USB_ControlRequest+6
 2475 0008 9091 0000 		lds r25,USB_ControlRequest+6+1
 2476               	.LVL207:
 2477               		.loc 4 39 5 view .LVU607
 2478 000c 8617      		cp r24,r22
 2479 000e 9707      		cpc r25,r23
 2480 0010 00F0      		brlo .L146
  40:./tmk_core/protocol/lufa/LUFA-git/LUFA/Drivers/USB/Core/AVR8/Template/Template_Endpoint_Control_W.c **** 	  Length = USB_ControlRequest.wLength;
  41:./tmk_core/protocol/lufa/LUFA-git/LUFA/Drivers/USB/Core/AVR8/Template/Template_Endpoint_Control_W.c **** 	else if (!(Length))
 2481               		.loc 4 41 7 is_stmt 1 view .LVU608
 2482               		.loc 4 41 10 is_stmt 0 view .LVU609
 2483 0012 672B      		or r22,r23
 2484 0014 01F0      		breq .L147
 2485               	.L148:
  35:./tmk_core/protocol/lufa/LUFA-git/LUFA/Drivers/USB/Core/AVR8/Template/Template_Endpoint_Control_W.c **** 	uint8_t* DataStream     = ((uint8_t*)Buffer + TEMPLATE_BUFFER_OFFSET(Length));
 2486               		.loc 4 35 1 view .LVU610
 2487 0016 C901      		movw r24,r18
 2488               	.LVL208:
 2489               	.L146:
  35:./tmk_core/protocol/lufa/LUFA-git/LUFA/Drivers/USB/Core/AVR8/Template/Template_Endpoint_Control_W.c **** 	uint8_t* DataStream     = ((uint8_t*)Buffer + TEMPLATE_BUFFER_OFFSET(Length));
 2490               		.loc 4 35 1 view .LVU611
 2491 0018 40E0      		ldi r20,0
 2492               	.LVL209:
 2493               	.L152:
  42:./tmk_core/protocol/lufa/LUFA-git/LUFA/Drivers/USB/Core/AVR8/Template/Template_Endpoint_Control_W.c **** 	  Endpoint_ClearIN();
  43:./tmk_core/protocol/lufa/LUFA-git/LUFA/Drivers/USB/Core/AVR8/Template/Template_Endpoint_Control_W.c **** 
  44:./tmk_core/protocol/lufa/LUFA-git/LUFA/Drivers/USB/Core/AVR8/Template/Template_Endpoint_Control_W.c **** 	while (Length || LastPacketFull)
 2494               		.loc 4 44 16 is_stmt 1 view .LVU612
 2495 001a 0097      		sbiw r24,0
 2496 001c 01F4      		brne .L157
 2497               		.loc 4 44 16 is_stmt 0 discriminator 1 view .LVU613
 2498 001e 4111      		cpse r20,__zero_reg__
 2499 0020 00C0      		rjmp .L157
 2500               	.LVL210:
 2501               	.L170:
  45:./tmk_core/protocol/lufa/LUFA-git/LUFA/Drivers/USB/Core/AVR8/Template/Template_Endpoint_Control_W.c **** 	{
  46:./tmk_core/protocol/lufa/LUFA-git/LUFA/Drivers/USB/Core/AVR8/Template/Template_Endpoint_Control_W.c **** 		uint8_t USB_DeviceState_LCL = USB_DeviceState;
  47:./tmk_core/protocol/lufa/LUFA-git/LUFA/Drivers/USB/Core/AVR8/Template/Template_Endpoint_Control_W.c **** 
  48:./tmk_core/protocol/lufa/LUFA-git/LUFA/Drivers/USB/Core/AVR8/Template/Template_Endpoint_Control_W.c **** 		if (USB_DeviceState_LCL == DEVICE_STATE_Unattached)
  49:./tmk_core/protocol/lufa/LUFA-git/LUFA/Drivers/USB/Core/AVR8/Template/Template_Endpoint_Control_W.c **** 		  return ENDPOINT_RWCSTREAM_DeviceDisconnected;
  50:./tmk_core/protocol/lufa/LUFA-git/LUFA/Drivers/USB/Core/AVR8/Template/Template_Endpoint_Control_W.c **** 		else if (USB_DeviceState_LCL == DEVICE_STATE_Suspended)
  51:./tmk_core/protocol/lufa/LUFA-git/LUFA/Drivers/USB/Core/AVR8/Template/Template_Endpoint_Control_W.c **** 		  return ENDPOINT_RWCSTREAM_BusSuspended;
  52:./tmk_core/protocol/lufa/LUFA-git/LUFA/Drivers/USB/Core/AVR8/Template/Template_Endpoint_Control_W.c **** 		else if (Endpoint_IsSETUPReceived())
  53:./tmk_core/protocol/lufa/LUFA-git/LUFA/Drivers/USB/Core/AVR8/Template/Template_Endpoint_Control_W.c **** 		  return ENDPOINT_RWCSTREAM_HostAborted;
  54:./tmk_core/protocol/lufa/LUFA-git/LUFA/Drivers/USB/Core/AVR8/Template/Template_Endpoint_Control_W.c **** 		else if (Endpoint_IsOUTReceived())
  55:./tmk_core/protocol/lufa/LUFA-git/LUFA/Drivers/USB/Core/AVR8/Template/Template_Endpoint_Control_W.c **** 		  break;
  56:./tmk_core/protocol/lufa/LUFA-git/LUFA/Drivers/USB/Core/AVR8/Template/Template_Endpoint_Control_W.c **** 
  57:./tmk_core/protocol/lufa/LUFA-git/LUFA/Drivers/USB/Core/AVR8/Template/Template_Endpoint_Control_W.c **** 		if (Endpoint_IsINReady())
  58:./tmk_core/protocol/lufa/LUFA-git/LUFA/Drivers/USB/Core/AVR8/Template/Template_Endpoint_Control_W.c **** 		{
  59:./tmk_core/protocol/lufa/LUFA-git/LUFA/Drivers/USB/Core/AVR8/Template/Template_Endpoint_Control_W.c **** 			uint16_t BytesInEndpoint = Endpoint_BytesInEndpoint();
  60:./tmk_core/protocol/lufa/LUFA-git/LUFA/Drivers/USB/Core/AVR8/Template/Template_Endpoint_Control_W.c **** 
  61:./tmk_core/protocol/lufa/LUFA-git/LUFA/Drivers/USB/Core/AVR8/Template/Template_Endpoint_Control_W.c **** 			while (Length && (BytesInEndpoint < USB_Device_ControlEndpointSize))
  62:./tmk_core/protocol/lufa/LUFA-git/LUFA/Drivers/USB/Core/AVR8/Template/Template_Endpoint_Control_W.c **** 			{
  63:./tmk_core/protocol/lufa/LUFA-git/LUFA/Drivers/USB/Core/AVR8/Template/Template_Endpoint_Control_W.c **** 				TEMPLATE_TRANSFER_BYTE(DataStream);
  64:./tmk_core/protocol/lufa/LUFA-git/LUFA/Drivers/USB/Core/AVR8/Template/Template_Endpoint_Control_W.c **** 				TEMPLATE_BUFFER_MOVE(DataStream, 1);
  65:./tmk_core/protocol/lufa/LUFA-git/LUFA/Drivers/USB/Core/AVR8/Template/Template_Endpoint_Control_W.c **** 				Length--;
  66:./tmk_core/protocol/lufa/LUFA-git/LUFA/Drivers/USB/Core/AVR8/Template/Template_Endpoint_Control_W.c **** 				BytesInEndpoint++;
  67:./tmk_core/protocol/lufa/LUFA-git/LUFA/Drivers/USB/Core/AVR8/Template/Template_Endpoint_Control_W.c **** 			}
  68:./tmk_core/protocol/lufa/LUFA-git/LUFA/Drivers/USB/Core/AVR8/Template/Template_Endpoint_Control_W.c **** 
  69:./tmk_core/protocol/lufa/LUFA-git/LUFA/Drivers/USB/Core/AVR8/Template/Template_Endpoint_Control_W.c **** 			LastPacketFull = (BytesInEndpoint == USB_Device_ControlEndpointSize);
  70:./tmk_core/protocol/lufa/LUFA-git/LUFA/Drivers/USB/Core/AVR8/Template/Template_Endpoint_Control_W.c **** 			Endpoint_ClearIN();
  71:./tmk_core/protocol/lufa/LUFA-git/LUFA/Drivers/USB/Core/AVR8/Template/Template_Endpoint_Control_W.c **** 		}
  72:./tmk_core/protocol/lufa/LUFA-git/LUFA/Drivers/USB/Core/AVR8/Template/Template_Endpoint_Control_W.c **** 	}
  73:./tmk_core/protocol/lufa/LUFA-git/LUFA/Drivers/USB/Core/AVR8/Template/Template_Endpoint_Control_W.c **** 
  74:./tmk_core/protocol/lufa/LUFA-git/LUFA/Drivers/USB/Core/AVR8/Template/Template_Endpoint_Control_W.c **** 	while (!(Endpoint_IsOUTReceived()))
 2502               		.loc 4 74 9 is_stmt 1 view .LVU614
 2503               	.LBB342:
 2504               	.LBI342:
 417:./tmk_core/protocol/lufa/LUFA-git/LUFA/Drivers/USB/Core/AVR8/../AVR8/../AVR8/Endpoint_AVR8.h **** 			{
 2505               		.loc 2 417 23 view .LVU615
 2506               	.LBB343:
 419:./tmk_core/protocol/lufa/LUFA-git/LUFA/Drivers/USB/Core/AVR8/../AVR8/../AVR8/Endpoint_AVR8.h **** 			}
 2507               		.loc 2 419 5 view .LVU616
 419:./tmk_core/protocol/lufa/LUFA-git/LUFA/Drivers/USB/Core/AVR8/../AVR8/../AVR8/Endpoint_AVR8.h **** 			}
 2508               		.loc 2 419 14 is_stmt 0 view .LVU617
 2509 0022 8091 E800 		lds r24,232
 2510               	.LBE343:
 2511               	.LBE342:
 2512               		.loc 4 74 9 view .LVU618
 2513 0026 82FF      		sbrs r24,2
 2514 0028 00C0      		rjmp .L158
  75:./tmk_core/protocol/lufa/LUFA-git/LUFA/Drivers/USB/Core/AVR8/Template/Template_Endpoint_Control_W.c **** 	{
  76:./tmk_core/protocol/lufa/LUFA-git/LUFA/Drivers/USB/Core/AVR8/Template/Template_Endpoint_Control_W.c **** 		uint8_t USB_DeviceState_LCL = USB_DeviceState;
  77:./tmk_core/protocol/lufa/LUFA-git/LUFA/Drivers/USB/Core/AVR8/Template/Template_Endpoint_Control_W.c **** 
  78:./tmk_core/protocol/lufa/LUFA-git/LUFA/Drivers/USB/Core/AVR8/Template/Template_Endpoint_Control_W.c **** 		if (USB_DeviceState_LCL == DEVICE_STATE_Unattached)
  79:./tmk_core/protocol/lufa/LUFA-git/LUFA/Drivers/USB/Core/AVR8/Template/Template_Endpoint_Control_W.c **** 		  return ENDPOINT_RWCSTREAM_DeviceDisconnected;
  80:./tmk_core/protocol/lufa/LUFA-git/LUFA/Drivers/USB/Core/AVR8/Template/Template_Endpoint_Control_W.c **** 		else if (USB_DeviceState_LCL == DEVICE_STATE_Suspended)
  81:./tmk_core/protocol/lufa/LUFA-git/LUFA/Drivers/USB/Core/AVR8/Template/Template_Endpoint_Control_W.c **** 		  return ENDPOINT_RWCSTREAM_BusSuspended;
  82:./tmk_core/protocol/lufa/LUFA-git/LUFA/Drivers/USB/Core/AVR8/Template/Template_Endpoint_Control_W.c **** 		else if (Endpoint_IsSETUPReceived())
  83:./tmk_core/protocol/lufa/LUFA-git/LUFA/Drivers/USB/Core/AVR8/Template/Template_Endpoint_Control_W.c **** 		  return ENDPOINT_RWCSTREAM_HostAborted;
  84:./tmk_core/protocol/lufa/LUFA-git/LUFA/Drivers/USB/Core/AVR8/Template/Template_Endpoint_Control_W.c **** 	}
  85:./tmk_core/protocol/lufa/LUFA-git/LUFA/Drivers/USB/Core/AVR8/Template/Template_Endpoint_Control_W.c **** 
  86:./tmk_core/protocol/lufa/LUFA-git/LUFA/Drivers/USB/Core/AVR8/Template/Template_Endpoint_Control_W.c **** 	return ENDPOINT_RWCSTREAM_NoError;
 2515               		.loc 4 86 9 view .LVU619
 2516 002a 80E0      		ldi r24,0
 2517 002c 0895      		ret
 2518               	.LVL211:
 2519               	.L147:
  42:./tmk_core/protocol/lufa/LUFA-git/LUFA/Drivers/USB/Core/AVR8/Template/Template_Endpoint_Control_W.c **** 
 2520               		.loc 4 42 4 is_stmt 1 view .LVU620
 2521               	.LBB344:
 2522               	.LBI344:
 453:./tmk_core/protocol/lufa/LUFA-git/LUFA/Drivers/USB/Core/AVR8/../AVR8/../AVR8/Endpoint_AVR8.h **** 			{
 2523               		.loc 2 453 23 view .LVU621
 2524               	.LBB345:
 456:./tmk_core/protocol/lufa/LUFA-git/LUFA/Drivers/USB/Core/AVR8/../AVR8/../AVR8/Endpoint_AVR8.h **** 				#else
 2525               		.loc 2 456 6 view .LVU622
 456:./tmk_core/protocol/lufa/LUFA-git/LUFA/Drivers/USB/Core/AVR8/../AVR8/../AVR8/Endpoint_AVR8.h **** 				#else
 2526               		.loc 2 456 13 is_stmt 0 view .LVU623
 2527 002e 8091 E800 		lds r24,232
 2528 0032 8E77      		andi r24,lo8(126)
 2529 0034 8093 E800 		sts 232,r24
 460:./tmk_core/protocol/lufa/LUFA-git/LUFA/Drivers/USB/Core/AVR8/../AVR8/../AVR8/Endpoint_AVR8.h **** 
 2530               		.loc 2 460 4 view .LVU624
 2531 0038 00C0      		rjmp .L148
 2532               	.LVL212:
 2533               	.L157:
 460:./tmk_core/protocol/lufa/LUFA-git/LUFA/Drivers/USB/Core/AVR8/../AVR8/../AVR8/Endpoint_AVR8.h **** 
 2534               		.loc 2 460 4 view .LVU625
 2535               	.LBE345:
 2536               	.LBE344:
 2537               	.LBB346:
  46:./tmk_core/protocol/lufa/LUFA-git/LUFA/Drivers/USB/Core/AVR8/Template/Template_Endpoint_Control_W.c **** 
 2538               		.loc 4 46 3 is_stmt 1 view .LVU626
  46:./tmk_core/protocol/lufa/LUFA-git/LUFA/Drivers/USB/Core/AVR8/Template/Template_Endpoint_Control_W.c **** 
 2539               		.loc 4 46 11 is_stmt 0 view .LVU627
 2540 003a 2091 0000 		lds r18,USB_DeviceState
 2541               	.LVL213:
  48:./tmk_core/protocol/lufa/LUFA-git/LUFA/Drivers/USB/Core/AVR8/Template/Template_Endpoint_Control_W.c **** 		  return ENDPOINT_RWCSTREAM_DeviceDisconnected;
 2542               		.loc 4 48 3 is_stmt 1 view .LVU628
  48:./tmk_core/protocol/lufa/LUFA-git/LUFA/Drivers/USB/Core/AVR8/Template/Template_Endpoint_Control_W.c **** 		  return ENDPOINT_RWCSTREAM_DeviceDisconnected;
 2543               		.loc 4 48 6 is_stmt 0 view .LVU629
 2544 003e 2223      		tst r18
 2545 0040 01F0      		breq .L162
  50:./tmk_core/protocol/lufa/LUFA-git/LUFA/Drivers/USB/Core/AVR8/Template/Template_Endpoint_Control_W.c **** 		  return ENDPOINT_RWCSTREAM_BusSuspended;
 2546               		.loc 4 50 8 is_stmt 1 view .LVU630
  50:./tmk_core/protocol/lufa/LUFA-git/LUFA/Drivers/USB/Core/AVR8/Template/Template_Endpoint_Control_W.c **** 		  return ENDPOINT_RWCSTREAM_BusSuspended;
 2547               		.loc 4 50 11 is_stmt 0 view .LVU631
 2548 0042 2530      		cpi r18,lo8(5)
 2549 0044 01F0      		breq .L163
  52:./tmk_core/protocol/lufa/LUFA-git/LUFA/Drivers/USB/Core/AVR8/Template/Template_Endpoint_Control_W.c **** 		  return ENDPOINT_RWCSTREAM_HostAborted;
 2550               		.loc 4 52 8 is_stmt 1 view .LVU632
 2551               	.LBB347:
 2552               	.LBI347:
 429:./tmk_core/protocol/lufa/LUFA-git/LUFA/Drivers/USB/Core/AVR8/../AVR8/../AVR8/Endpoint_AVR8.h **** 			{
 2553               		.loc 2 429 23 view .LVU633
 2554               	.LBB348:
 431:./tmk_core/protocol/lufa/LUFA-git/LUFA/Drivers/USB/Core/AVR8/../AVR8/../AVR8/Endpoint_AVR8.h **** 			}
 2555               		.loc 2 431 5 view .LVU634
 431:./tmk_core/protocol/lufa/LUFA-git/LUFA/Drivers/USB/Core/AVR8/../AVR8/../AVR8/Endpoint_AVR8.h **** 			}
 2556               		.loc 2 431 14 is_stmt 0 view .LVU635
 2557 0046 2091 E800 		lds r18,232
 2558               	.LVL214:
 431:./tmk_core/protocol/lufa/LUFA-git/LUFA/Drivers/USB/Core/AVR8/../AVR8/../AVR8/Endpoint_AVR8.h **** 			}
 2559               		.loc 2 431 14 view .LVU636
 2560               	.LBE348:
 2561               	.LBE347:
  52:./tmk_core/protocol/lufa/LUFA-git/LUFA/Drivers/USB/Core/AVR8/Template/Template_Endpoint_Control_W.c **** 		  return ENDPOINT_RWCSTREAM_HostAborted;
 2562               		.loc 4 52 11 view .LVU637
 2563 004a 23FD      		sbrc r18,3
 2564 004c 00C0      		rjmp .L164
  54:./tmk_core/protocol/lufa/LUFA-git/LUFA/Drivers/USB/Core/AVR8/Template/Template_Endpoint_Control_W.c **** 		  break;
 2565               		.loc 4 54 8 is_stmt 1 view .LVU638
 2566               	.LBB349:
 2567               	.LBI349:
 417:./tmk_core/protocol/lufa/LUFA-git/LUFA/Drivers/USB/Core/AVR8/../AVR8/../AVR8/Endpoint_AVR8.h **** 			{
 2568               		.loc 2 417 23 view .LVU639
 2569               	.LBB350:
 419:./tmk_core/protocol/lufa/LUFA-git/LUFA/Drivers/USB/Core/AVR8/../AVR8/../AVR8/Endpoint_AVR8.h **** 			}
 2570               		.loc 2 419 5 view .LVU640
 419:./tmk_core/protocol/lufa/LUFA-git/LUFA/Drivers/USB/Core/AVR8/../AVR8/../AVR8/Endpoint_AVR8.h **** 			}
 2571               		.loc 2 419 14 is_stmt 0 view .LVU641
 2572 004e 2091 E800 		lds r18,232
 2573               	.LBE350:
 2574               	.LBE349:
  54:./tmk_core/protocol/lufa/LUFA-git/LUFA/Drivers/USB/Core/AVR8/Template/Template_Endpoint_Control_W.c **** 		  break;
 2575               		.loc 4 54 11 view .LVU642
 2576 0052 22FD      		sbrc r18,2
 2577 0054 00C0      		rjmp .L170
  57:./tmk_core/protocol/lufa/LUFA-git/LUFA/Drivers/USB/Core/AVR8/Template/Template_Endpoint_Control_W.c **** 		{
 2578               		.loc 4 57 3 is_stmt 1 view .LVU643
 2579               	.LBB351:
 2580               	.LBI351:
 405:./tmk_core/protocol/lufa/LUFA-git/LUFA/Drivers/USB/Core/AVR8/../AVR8/../AVR8/Endpoint_AVR8.h **** 			{
 2581               		.loc 2 405 23 view .LVU644
 2582               	.LBB352:
 407:./tmk_core/protocol/lufa/LUFA-git/LUFA/Drivers/USB/Core/AVR8/../AVR8/../AVR8/Endpoint_AVR8.h **** 			}
 2583               		.loc 2 407 5 view .LVU645
 407:./tmk_core/protocol/lufa/LUFA-git/LUFA/Drivers/USB/Core/AVR8/../AVR8/../AVR8/Endpoint_AVR8.h **** 			}
 2584               		.loc 2 407 14 is_stmt 0 view .LVU646
 2585 0056 2091 E800 		lds r18,232
 2586               	.LBE352:
 2587               	.LBE351:
  57:./tmk_core/protocol/lufa/LUFA-git/LUFA/Drivers/USB/Core/AVR8/Template/Template_Endpoint_Control_W.c **** 		{
 2588               		.loc 4 57 6 view .LVU647
 2589 005a 20FF      		sbrs r18,0
 2590 005c 00C0      		rjmp .L152
 2591               	.LBB353:
  59:./tmk_core/protocol/lufa/LUFA-git/LUFA/Drivers/USB/Core/AVR8/Template/Template_Endpoint_Control_W.c **** 
 2592               		.loc 4 59 4 is_stmt 1 view .LVU648
 2593               	.LBB354:
 2594               	.LBI354:
 222:./tmk_core/protocol/lufa/LUFA-git/LUFA/Drivers/USB/Core/AVR8/../AVR8/../AVR8/Endpoint_AVR8.h **** 			{
 2595               		.loc 2 222 27 view .LVU649
 2596               	.LBB355:
 225:./tmk_core/protocol/lufa/LUFA-git/LUFA/Drivers/USB/Core/AVR8/../AVR8/../AVR8/Endpoint_AVR8.h **** 				#elif defined(USB_SERIES_4_AVR)
 2597               		.loc 2 225 6 view .LVU650
 225:./tmk_core/protocol/lufa/LUFA-git/LUFA/Drivers/USB/Core/AVR8/../AVR8/../AVR8/Endpoint_AVR8.h **** 				#elif defined(USB_SERIES_4_AVR)
 2598               		.loc 2 225 13 is_stmt 0 view .LVU651
 2599 005e 2091 F200 		lds r18,242
 2600 0062 3091 F300 		lds r19,242+1
 2601               	.LVL215:
 225:./tmk_core/protocol/lufa/LUFA-git/LUFA/Drivers/USB/Core/AVR8/../AVR8/../AVR8/Endpoint_AVR8.h **** 				#elif defined(USB_SERIES_4_AVR)
 2602               		.loc 2 225 13 view .LVU652
 2603               	.LBE355:
 2604               	.LBE354:
  61:./tmk_core/protocol/lufa/LUFA-git/LUFA/Drivers/USB/Core/AVR8/Template/Template_Endpoint_Control_W.c **** 			{
 2605               		.loc 4 61 4 is_stmt 1 view .LVU653
 2606               	.L153:
  61:./tmk_core/protocol/lufa/LUFA-git/LUFA/Drivers/USB/Core/AVR8/Template/Template_Endpoint_Control_W.c **** 			{
 2607               		.loc 4 61 18 view .LVU654
 2608 0066 0097      		sbiw r24,0
 2609 0068 01F0      		breq .L154
  61:./tmk_core/protocol/lufa/LUFA-git/LUFA/Drivers/USB/Core/AVR8/Template/Template_Endpoint_Control_W.c **** 			{
 2610               		.loc 4 61 18 is_stmt 0 discriminator 1 view .LVU655
 2611 006a 2830      		cpi r18,8
 2612 006c 3105      		cpc r19,__zero_reg__
 2613 006e 00F0      		brlo .L155
 2614               	.L154:
  69:./tmk_core/protocol/lufa/LUFA-git/LUFA/Drivers/USB/Core/AVR8/Template/Template_Endpoint_Control_W.c **** 			Endpoint_ClearIN();
 2615               		.loc 4 69 4 is_stmt 1 view .LVU656
  69:./tmk_core/protocol/lufa/LUFA-git/LUFA/Drivers/USB/Core/AVR8/Template/Template_Endpoint_Control_W.c **** 			Endpoint_ClearIN();
 2616               		.loc 4 69 19 is_stmt 0 view .LVU657
 2617 0070 41E0      		ldi r20,lo8(1)
 2618 0072 2830      		cpi r18,8
 2619 0074 3105      		cpc r19,__zero_reg__
 2620 0076 01F0      		breq .L156
 2621 0078 40E0      		ldi r20,0
 2622               	.L156:
 2623               	.LVL216:
  70:./tmk_core/protocol/lufa/LUFA-git/LUFA/Drivers/USB/Core/AVR8/Template/Template_Endpoint_Control_W.c **** 		}
 2624               		.loc 4 70 4 is_stmt 1 view .LVU658
 2625               	.LBB356:
 2626               	.LBI356:
 453:./tmk_core/protocol/lufa/LUFA-git/LUFA/Drivers/USB/Core/AVR8/../AVR8/../AVR8/Endpoint_AVR8.h **** 			{
 2627               		.loc 2 453 23 view .LVU659
 2628               	.LBB357:
 456:./tmk_core/protocol/lufa/LUFA-git/LUFA/Drivers/USB/Core/AVR8/../AVR8/../AVR8/Endpoint_AVR8.h **** 				#else
 2629               		.loc 2 456 6 view .LVU660
 456:./tmk_core/protocol/lufa/LUFA-git/LUFA/Drivers/USB/Core/AVR8/../AVR8/../AVR8/Endpoint_AVR8.h **** 				#else
 2630               		.loc 2 456 13 is_stmt 0 view .LVU661
 2631 007a 2091 E800 		lds r18,232
 2632               	.LVL217:
 456:./tmk_core/protocol/lufa/LUFA-git/LUFA/Drivers/USB/Core/AVR8/../AVR8/../AVR8/Endpoint_AVR8.h **** 				#else
 2633               		.loc 2 456 13 view .LVU662
 2634 007e 2E77      		andi r18,lo8(126)
 2635 0080 2093 E800 		sts 232,r18
 2636               	.LVL218:
 460:./tmk_core/protocol/lufa/LUFA-git/LUFA/Drivers/USB/Core/AVR8/../AVR8/../AVR8/Endpoint_AVR8.h **** 
 2637               		.loc 2 460 4 view .LVU663
 2638 0084 00C0      		rjmp .L152
 2639               	.LVL219:
 2640               	.L155:
 460:./tmk_core/protocol/lufa/LUFA-git/LUFA/Drivers/USB/Core/AVR8/../AVR8/../AVR8/Endpoint_AVR8.h **** 
 2641               		.loc 2 460 4 view .LVU664
 2642               	.LBE357:
 2643               	.LBE356:
  63:./tmk_core/protocol/lufa/LUFA-git/LUFA/Drivers/USB/Core/AVR8/Template/Template_Endpoint_Control_W.c **** 				TEMPLATE_BUFFER_MOVE(DataStream, 1);
 2644               		.loc 4 63 5 is_stmt 1 view .LVU665
 2645 0086 4191      		ld r20,Z+
 2646               	.LVL220:
 2647               	.LBB358:
 2648               	.LBI358:
 552:./tmk_core/protocol/lufa/LUFA-git/LUFA/Drivers/USB/Core/AVR8/../AVR8/../AVR8/Endpoint_AVR8.h **** 			{
 2649               		.loc 2 552 23 view .LVU666
 2650               	.LBB359:
 554:./tmk_core/protocol/lufa/LUFA-git/LUFA/Drivers/USB/Core/AVR8/../AVR8/../AVR8/Endpoint_AVR8.h **** 			}
 2651               		.loc 2 554 5 view .LVU667
 554:./tmk_core/protocol/lufa/LUFA-git/LUFA/Drivers/USB/Core/AVR8/../AVR8/../AVR8/Endpoint_AVR8.h **** 			}
 2652               		.loc 2 554 12 is_stmt 0 view .LVU668
 2653 0088 4093 F100 		sts 241,r20
 2654               	.LVL221:
 554:./tmk_core/protocol/lufa/LUFA-git/LUFA/Drivers/USB/Core/AVR8/../AVR8/../AVR8/Endpoint_AVR8.h **** 			}
 2655               		.loc 2 554 12 view .LVU669
 2656               	.LBE359:
 2657               	.LBE358:
  64:./tmk_core/protocol/lufa/LUFA-git/LUFA/Drivers/USB/Core/AVR8/Template/Template_Endpoint_Control_W.c **** 				Length--;
 2658               		.loc 4 64 5 is_stmt 1 view .LVU670
  65:./tmk_core/protocol/lufa/LUFA-git/LUFA/Drivers/USB/Core/AVR8/Template/Template_Endpoint_Control_W.c **** 				BytesInEndpoint++;
 2659               		.loc 4 65 5 view .LVU671
  65:./tmk_core/protocol/lufa/LUFA-git/LUFA/Drivers/USB/Core/AVR8/Template/Template_Endpoint_Control_W.c **** 				BytesInEndpoint++;
 2660               		.loc 4 65 11 is_stmt 0 view .LVU672
 2661 008c 0197      		sbiw r24,1
 2662               	.LVL222:
  66:./tmk_core/protocol/lufa/LUFA-git/LUFA/Drivers/USB/Core/AVR8/Template/Template_Endpoint_Control_W.c **** 			}
 2663               		.loc 4 66 5 is_stmt 1 view .LVU673
  66:./tmk_core/protocol/lufa/LUFA-git/LUFA/Drivers/USB/Core/AVR8/Template/Template_Endpoint_Control_W.c **** 			}
 2664               		.loc 4 66 20 is_stmt 0 view .LVU674
 2665 008e 2F5F      		subi r18,-1
 2666 0090 3F4F      		sbci r19,-1
 2667               	.LVL223:
  66:./tmk_core/protocol/lufa/LUFA-git/LUFA/Drivers/USB/Core/AVR8/Template/Template_Endpoint_Control_W.c **** 			}
 2668               		.loc 4 66 20 view .LVU675
 2669 0092 00C0      		rjmp .L153
 2670               	.LVL224:
 2671               	.L158:
  66:./tmk_core/protocol/lufa/LUFA-git/LUFA/Drivers/USB/Core/AVR8/Template/Template_Endpoint_Control_W.c **** 			}
 2672               		.loc 4 66 20 view .LVU676
 2673               	.LBE353:
 2674               	.LBE346:
 2675               	.LBB360:
  76:./tmk_core/protocol/lufa/LUFA-git/LUFA/Drivers/USB/Core/AVR8/Template/Template_Endpoint_Control_W.c **** 
 2676               		.loc 4 76 3 is_stmt 1 view .LVU677
  76:./tmk_core/protocol/lufa/LUFA-git/LUFA/Drivers/USB/Core/AVR8/Template/Template_Endpoint_Control_W.c **** 
 2677               		.loc 4 76 11 is_stmt 0 view .LVU678
 2678 0094 8091 0000 		lds r24,USB_DeviceState
 2679               	.LVL225:
  78:./tmk_core/protocol/lufa/LUFA-git/LUFA/Drivers/USB/Core/AVR8/Template/Template_Endpoint_Control_W.c **** 		  return ENDPOINT_RWCSTREAM_DeviceDisconnected;
 2680               		.loc 4 78 3 is_stmt 1 view .LVU679
  78:./tmk_core/protocol/lufa/LUFA-git/LUFA/Drivers/USB/Core/AVR8/Template/Template_Endpoint_Control_W.c **** 		  return ENDPOINT_RWCSTREAM_DeviceDisconnected;
 2681               		.loc 4 78 6 is_stmt 0 view .LVU680
 2682 0098 8823      		tst r24
 2683 009a 01F0      		breq .L162
  80:./tmk_core/protocol/lufa/LUFA-git/LUFA/Drivers/USB/Core/AVR8/Template/Template_Endpoint_Control_W.c **** 		  return ENDPOINT_RWCSTREAM_BusSuspended;
 2684               		.loc 4 80 8 is_stmt 1 view .LVU681
  80:./tmk_core/protocol/lufa/LUFA-git/LUFA/Drivers/USB/Core/AVR8/Template/Template_Endpoint_Control_W.c **** 		  return ENDPOINT_RWCSTREAM_BusSuspended;
 2685               		.loc 4 80 11 is_stmt 0 view .LVU682
 2686 009c 8530      		cpi r24,lo8(5)
 2687 009e 01F0      		breq .L163
  82:./tmk_core/protocol/lufa/LUFA-git/LUFA/Drivers/USB/Core/AVR8/Template/Template_Endpoint_Control_W.c **** 		  return ENDPOINT_RWCSTREAM_HostAborted;
 2688               		.loc 4 82 8 is_stmt 1 view .LVU683
 2689               	.LBB361:
 2690               	.LBI361:
 429:./tmk_core/protocol/lufa/LUFA-git/LUFA/Drivers/USB/Core/AVR8/../AVR8/../AVR8/Endpoint_AVR8.h **** 			{
 2691               		.loc 2 429 23 view .LVU684
 2692               	.LBB362:
 431:./tmk_core/protocol/lufa/LUFA-git/LUFA/Drivers/USB/Core/AVR8/../AVR8/../AVR8/Endpoint_AVR8.h **** 			}
 2693               		.loc 2 431 5 view .LVU685
 431:./tmk_core/protocol/lufa/LUFA-git/LUFA/Drivers/USB/Core/AVR8/../AVR8/../AVR8/Endpoint_AVR8.h **** 			}
 2694               		.loc 2 431 14 is_stmt 0 view .LVU686
 2695 00a0 8091 E800 		lds r24,232
 2696               	.LVL226:
 431:./tmk_core/protocol/lufa/LUFA-git/LUFA/Drivers/USB/Core/AVR8/../AVR8/../AVR8/Endpoint_AVR8.h **** 			}
 2697               		.loc 2 431 14 view .LVU687
 2698               	.LBE362:
 2699               	.LBE361:
  82:./tmk_core/protocol/lufa/LUFA-git/LUFA/Drivers/USB/Core/AVR8/Template/Template_Endpoint_Control_W.c **** 		  return ENDPOINT_RWCSTREAM_HostAborted;
 2700               		.loc 4 82 11 view .LVU688
 2701 00a4 83FF      		sbrs r24,3
 2702 00a6 00C0      		rjmp .L170
 2703               	.LVL227:
 2704               	.L164:
  82:./tmk_core/protocol/lufa/LUFA-git/LUFA/Drivers/USB/Core/AVR8/Template/Template_Endpoint_Control_W.c **** 		  return ENDPOINT_RWCSTREAM_HostAborted;
 2705               		.loc 4 82 11 view .LVU689
 2706               	.LBE360:
 2707               	.LBB363:
  53:./tmk_core/protocol/lufa/LUFA-git/LUFA/Drivers/USB/Core/AVR8/Template/Template_Endpoint_Control_W.c **** 		else if (Endpoint_IsOUTReceived())
 2708               		.loc 4 53 12 view .LVU690
 2709 00a8 81E0      		ldi r24,lo8(1)
 2710               	/* epilogue start */
 2711               	.LBE363:
  87:./tmk_core/protocol/lufa/LUFA-git/LUFA/Drivers/USB/Core/AVR8/Template/Template_Endpoint_Control_W.c **** }
 2712               		.loc 4 87 1 view .LVU691
 2713 00aa 0895      		ret
 2714               	.L162:
 2715               	.LBB364:
  49:./tmk_core/protocol/lufa/LUFA-git/LUFA/Drivers/USB/Core/AVR8/Template/Template_Endpoint_Control_W.c **** 		else if (USB_DeviceState_LCL == DEVICE_STATE_Suspended)
 2716               		.loc 4 49 12 view .LVU692
 2717 00ac 82E0      		ldi r24,lo8(2)
 2718 00ae 0895      		ret
 2719               	.L163:
  51:./tmk_core/protocol/lufa/LUFA-git/LUFA/Drivers/USB/Core/AVR8/Template/Template_Endpoint_Control_W.c **** 		else if (Endpoint_IsSETUPReceived())
 2720               		.loc 4 51 12 view .LVU693
 2721 00b0 83E0      		ldi r24,lo8(3)
 2722 00b2 0895      		ret
 2723               	.LBE364:
 2724               		.cfi_endproc
 2725               	.LFE101:
 2727               		.section	.text.Endpoint_Write_Control_Stream_BE,"ax",@progbits
 2728               	.global	Endpoint_Write_Control_Stream_BE
 2730               	Endpoint_Write_Control_Stream_BE:
 2731               	.LVL228:
 2732               	.LFB102:
  35:./tmk_core/protocol/lufa/LUFA-git/LUFA/Drivers/USB/Core/AVR8/Template/Template_Endpoint_Control_W.c **** 	uint8_t* DataStream     = ((uint8_t*)Buffer + TEMPLATE_BUFFER_OFFSET(Length));
 2733               		.loc 4 35 1 is_stmt 1 view -0
 2734               		.cfi_startproc
 2735               	/* prologue: function */
 2736               	/* frame size = 0 */
 2737               	/* stack size = 0 */
 2738               	.L__stack_usage = 0
  35:./tmk_core/protocol/lufa/LUFA-git/LUFA/Drivers/USB/Core/AVR8/Template/Template_Endpoint_Control_W.c **** 	uint8_t* DataStream     = ((uint8_t*)Buffer + TEMPLATE_BUFFER_OFFSET(Length));
 2739               		.loc 4 35 1 is_stmt 0 view .LVU695
 2740 0000 AB01      		movw r20,r22
  36:./tmk_core/protocol/lufa/LUFA-git/LUFA/Drivers/USB/Core/AVR8/Template/Template_Endpoint_Control_W.c **** 	bool     LastPacketFull = false;
 2741               		.loc 4 36 2 is_stmt 1 view .LVU696
  36:./tmk_core/protocol/lufa/LUFA-git/LUFA/Drivers/USB/Core/AVR8/Template/Template_Endpoint_Control_W.c **** 	bool     LastPacketFull = false;
 2742               		.loc 4 36 46 is_stmt 0 view .LVU697
 2743 0002 FB01      		movw r30,r22
 2744 0004 3197      		sbiw r30,1
  36:./tmk_core/protocol/lufa/LUFA-git/LUFA/Drivers/USB/Core/AVR8/Template/Template_Endpoint_Control_W.c **** 	bool     LastPacketFull = false;
 2745               		.loc 4 36 11 view .LVU698
 2746 0006 E80F      		add r30,r24
 2747 0008 F91F      		adc r31,r25
 2748               	.LVL229:
  37:./tmk_core/protocol/lufa/LUFA-git/LUFA/Drivers/USB/Core/AVR8/Template/Template_Endpoint_Control_W.c **** 
 2749               		.loc 4 37 2 is_stmt 1 view .LVU699
  39:./tmk_core/protocol/lufa/LUFA-git/LUFA/Drivers/USB/Core/AVR8/Template/Template_Endpoint_Control_W.c **** 	  Length = USB_ControlRequest.wLength;
 2750               		.loc 4 39 2 view .LVU700
  39:./tmk_core/protocol/lufa/LUFA-git/LUFA/Drivers/USB/Core/AVR8/Template/Template_Endpoint_Control_W.c **** 	  Length = USB_ControlRequest.wLength;
 2751               		.loc 4 39 33 is_stmt 0 view .LVU701
 2752 000a 2091 0000 		lds r18,USB_ControlRequest+6
 2753 000e 3091 0000 		lds r19,USB_ControlRequest+6+1
  39:./tmk_core/protocol/lufa/LUFA-git/LUFA/Drivers/USB/Core/AVR8/Template/Template_Endpoint_Control_W.c **** 	  Length = USB_ControlRequest.wLength;
 2754               		.loc 4 39 5 view .LVU702
 2755 0012 2617      		cp r18,r22
 2756 0014 3707      		cpc r19,r23
 2757 0016 00F0      		brlo .L175
  41:./tmk_core/protocol/lufa/LUFA-git/LUFA/Drivers/USB/Core/AVR8/Template/Template_Endpoint_Control_W.c **** 	  Endpoint_ClearIN();
 2758               		.loc 4 41 7 is_stmt 1 view .LVU703
  41:./tmk_core/protocol/lufa/LUFA-git/LUFA/Drivers/USB/Core/AVR8/Template/Template_Endpoint_Control_W.c **** 	  Endpoint_ClearIN();
 2759               		.loc 4 41 10 is_stmt 0 view .LVU704
 2760 0018 672B      		or r22,r23
 2761 001a 01F0      		breq .L176
 2762               	.LVL230:
 2763               	.L177:
  35:./tmk_core/protocol/lufa/LUFA-git/LUFA/Drivers/USB/Core/AVR8/Template/Template_Endpoint_Control_W.c **** 	uint8_t* DataStream     = ((uint8_t*)Buffer + TEMPLATE_BUFFER_OFFSET(Length));
 2764               		.loc 4 35 1 view .LVU705
 2765 001c 9A01      		movw r18,r20
 2766               	.LVL231:
 2767               	.L175:
  35:./tmk_core/protocol/lufa/LUFA-git/LUFA/Drivers/USB/Core/AVR8/Template/Template_Endpoint_Control_W.c **** 	uint8_t* DataStream     = ((uint8_t*)Buffer + TEMPLATE_BUFFER_OFFSET(Length));
 2768               		.loc 4 35 1 view .LVU706
 2769 001e 40E0      		ldi r20,0
 2770               	.LVL232:
 2771               	.L181:
  44:./tmk_core/protocol/lufa/LUFA-git/LUFA/Drivers/USB/Core/AVR8/Template/Template_Endpoint_Control_W.c **** 	{
 2772               		.loc 4 44 16 is_stmt 1 view .LVU707
 2773 0020 2115      		cp r18,__zero_reg__
 2774 0022 3105      		cpc r19,__zero_reg__
 2775 0024 01F4      		brne .L186
  44:./tmk_core/protocol/lufa/LUFA-git/LUFA/Drivers/USB/Core/AVR8/Template/Template_Endpoint_Control_W.c **** 	{
 2776               		.loc 4 44 16 is_stmt 0 discriminator 1 view .LVU708
 2777 0026 4111      		cpse r20,__zero_reg__
 2778 0028 00C0      		rjmp .L186
 2779               	.L199:
  74:./tmk_core/protocol/lufa/LUFA-git/LUFA/Drivers/USB/Core/AVR8/Template/Template_Endpoint_Control_W.c **** 	{
 2780               		.loc 4 74 9 is_stmt 1 view .LVU709
 2781               	.LBB365:
 2782               	.LBI365:
 417:./tmk_core/protocol/lufa/LUFA-git/LUFA/Drivers/USB/Core/AVR8/../AVR8/../AVR8/Endpoint_AVR8.h **** 			{
 2783               		.loc 2 417 23 view .LVU710
 2784               	.LBB366:
 419:./tmk_core/protocol/lufa/LUFA-git/LUFA/Drivers/USB/Core/AVR8/../AVR8/../AVR8/Endpoint_AVR8.h **** 			}
 2785               		.loc 2 419 5 view .LVU711
 419:./tmk_core/protocol/lufa/LUFA-git/LUFA/Drivers/USB/Core/AVR8/../AVR8/../AVR8/Endpoint_AVR8.h **** 			}
 2786               		.loc 2 419 14 is_stmt 0 view .LVU712
 2787 002a 8091 E800 		lds r24,232
 2788               	.LBE366:
 2789               	.LBE365:
  74:./tmk_core/protocol/lufa/LUFA-git/LUFA/Drivers/USB/Core/AVR8/Template/Template_Endpoint_Control_W.c **** 	{
 2790               		.loc 4 74 9 view .LVU713
 2791 002e 82FF      		sbrs r24,2
 2792 0030 00C0      		rjmp .L187
  86:./tmk_core/protocol/lufa/LUFA-git/LUFA/Drivers/USB/Core/AVR8/Template/Template_Endpoint_Control_W.c **** }
 2793               		.loc 4 86 9 view .LVU714
 2794 0032 80E0      		ldi r24,0
 2795 0034 0895      		ret
 2796               	.LVL233:
 2797               	.L176:
  42:./tmk_core/protocol/lufa/LUFA-git/LUFA/Drivers/USB/Core/AVR8/Template/Template_Endpoint_Control_W.c **** 
 2798               		.loc 4 42 4 is_stmt 1 view .LVU715
 2799               	.LBB367:
 2800               	.LBI367:
 453:./tmk_core/protocol/lufa/LUFA-git/LUFA/Drivers/USB/Core/AVR8/../AVR8/../AVR8/Endpoint_AVR8.h **** 			{
 2801               		.loc 2 453 23 view .LVU716
 2802               	.LBB368:
 456:./tmk_core/protocol/lufa/LUFA-git/LUFA/Drivers/USB/Core/AVR8/../AVR8/../AVR8/Endpoint_AVR8.h **** 				#else
 2803               		.loc 2 456 6 view .LVU717
 456:./tmk_core/protocol/lufa/LUFA-git/LUFA/Drivers/USB/Core/AVR8/../AVR8/../AVR8/Endpoint_AVR8.h **** 				#else
 2804               		.loc 2 456 13 is_stmt 0 view .LVU718
 2805 0036 8091 E800 		lds r24,232
 2806               	.LVL234:
 456:./tmk_core/protocol/lufa/LUFA-git/LUFA/Drivers/USB/Core/AVR8/../AVR8/../AVR8/Endpoint_AVR8.h **** 				#else
 2807               		.loc 2 456 13 view .LVU719
 2808 003a 8E77      		andi r24,lo8(126)
 2809 003c 8093 E800 		sts 232,r24
 460:./tmk_core/protocol/lufa/LUFA-git/LUFA/Drivers/USB/Core/AVR8/../AVR8/../AVR8/Endpoint_AVR8.h **** 
 2810               		.loc 2 460 4 view .LVU720
 2811 0040 00C0      		rjmp .L177
 2812               	.LVL235:
 2813               	.L186:
 460:./tmk_core/protocol/lufa/LUFA-git/LUFA/Drivers/USB/Core/AVR8/../AVR8/../AVR8/Endpoint_AVR8.h **** 
 2814               		.loc 2 460 4 view .LVU721
 2815               	.LBE368:
 2816               	.LBE367:
 2817               	.LBB369:
  46:./tmk_core/protocol/lufa/LUFA-git/LUFA/Drivers/USB/Core/AVR8/Template/Template_Endpoint_Control_W.c **** 
 2818               		.loc 4 46 3 is_stmt 1 view .LVU722
  46:./tmk_core/protocol/lufa/LUFA-git/LUFA/Drivers/USB/Core/AVR8/Template/Template_Endpoint_Control_W.c **** 
 2819               		.loc 4 46 11 is_stmt 0 view .LVU723
 2820 0042 8091 0000 		lds r24,USB_DeviceState
 2821               	.LVL236:
  48:./tmk_core/protocol/lufa/LUFA-git/LUFA/Drivers/USB/Core/AVR8/Template/Template_Endpoint_Control_W.c **** 		  return ENDPOINT_RWCSTREAM_DeviceDisconnected;
 2822               		.loc 4 48 3 is_stmt 1 view .LVU724
  48:./tmk_core/protocol/lufa/LUFA-git/LUFA/Drivers/USB/Core/AVR8/Template/Template_Endpoint_Control_W.c **** 		  return ENDPOINT_RWCSTREAM_DeviceDisconnected;
 2823               		.loc 4 48 6 is_stmt 0 view .LVU725
 2824 0046 8823      		tst r24
 2825 0048 01F0      		breq .L191
  50:./tmk_core/protocol/lufa/LUFA-git/LUFA/Drivers/USB/Core/AVR8/Template/Template_Endpoint_Control_W.c **** 		  return ENDPOINT_RWCSTREAM_BusSuspended;
 2826               		.loc 4 50 8 is_stmt 1 view .LVU726
  50:./tmk_core/protocol/lufa/LUFA-git/LUFA/Drivers/USB/Core/AVR8/Template/Template_Endpoint_Control_W.c **** 		  return ENDPOINT_RWCSTREAM_BusSuspended;
 2827               		.loc 4 50 11 is_stmt 0 view .LVU727
 2828 004a 8530      		cpi r24,lo8(5)
 2829 004c 01F0      		breq .L192
  52:./tmk_core/protocol/lufa/LUFA-git/LUFA/Drivers/USB/Core/AVR8/Template/Template_Endpoint_Control_W.c **** 		  return ENDPOINT_RWCSTREAM_HostAborted;
 2830               		.loc 4 52 8 is_stmt 1 view .LVU728
 2831               	.LBB370:
 2832               	.LBI370:
 429:./tmk_core/protocol/lufa/LUFA-git/LUFA/Drivers/USB/Core/AVR8/../AVR8/../AVR8/Endpoint_AVR8.h **** 			{
 2833               		.loc 2 429 23 view .LVU729
 2834               	.LBB371:
 431:./tmk_core/protocol/lufa/LUFA-git/LUFA/Drivers/USB/Core/AVR8/../AVR8/../AVR8/Endpoint_AVR8.h **** 			}
 2835               		.loc 2 431 5 view .LVU730
 431:./tmk_core/protocol/lufa/LUFA-git/LUFA/Drivers/USB/Core/AVR8/../AVR8/../AVR8/Endpoint_AVR8.h **** 			}
 2836               		.loc 2 431 14 is_stmt 0 view .LVU731
 2837 004e 8091 E800 		lds r24,232
 2838               	.LVL237:
 431:./tmk_core/protocol/lufa/LUFA-git/LUFA/Drivers/USB/Core/AVR8/../AVR8/../AVR8/Endpoint_AVR8.h **** 			}
 2839               		.loc 2 431 14 view .LVU732
 2840               	.LBE371:
 2841               	.LBE370:
  52:./tmk_core/protocol/lufa/LUFA-git/LUFA/Drivers/USB/Core/AVR8/Template/Template_Endpoint_Control_W.c **** 		  return ENDPOINT_RWCSTREAM_HostAborted;
 2842               		.loc 4 52 11 view .LVU733
 2843 0052 83FD      		sbrc r24,3
 2844 0054 00C0      		rjmp .L193
  54:./tmk_core/protocol/lufa/LUFA-git/LUFA/Drivers/USB/Core/AVR8/Template/Template_Endpoint_Control_W.c **** 		  break;
 2845               		.loc 4 54 8 is_stmt 1 view .LVU734
 2846               	.LBB372:
 2847               	.LBI372:
 417:./tmk_core/protocol/lufa/LUFA-git/LUFA/Drivers/USB/Core/AVR8/../AVR8/../AVR8/Endpoint_AVR8.h **** 			{
 2848               		.loc 2 417 23 view .LVU735
 2849               	.LBB373:
 419:./tmk_core/protocol/lufa/LUFA-git/LUFA/Drivers/USB/Core/AVR8/../AVR8/../AVR8/Endpoint_AVR8.h **** 			}
 2850               		.loc 2 419 5 view .LVU736
 419:./tmk_core/protocol/lufa/LUFA-git/LUFA/Drivers/USB/Core/AVR8/../AVR8/../AVR8/Endpoint_AVR8.h **** 			}
 2851               		.loc 2 419 14 is_stmt 0 view .LVU737
 2852 0056 8091 E800 		lds r24,232
 2853               	.LBE373:
 2854               	.LBE372:
  54:./tmk_core/protocol/lufa/LUFA-git/LUFA/Drivers/USB/Core/AVR8/Template/Template_Endpoint_Control_W.c **** 		  break;
 2855               		.loc 4 54 11 view .LVU738
 2856 005a 82FD      		sbrc r24,2
 2857 005c 00C0      		rjmp .L199
  57:./tmk_core/protocol/lufa/LUFA-git/LUFA/Drivers/USB/Core/AVR8/Template/Template_Endpoint_Control_W.c **** 		{
 2858               		.loc 4 57 3 is_stmt 1 view .LVU739
 2859               	.LBB374:
 2860               	.LBI374:
 405:./tmk_core/protocol/lufa/LUFA-git/LUFA/Drivers/USB/Core/AVR8/../AVR8/../AVR8/Endpoint_AVR8.h **** 			{
 2861               		.loc 2 405 23 view .LVU740
 2862               	.LBB375:
 407:./tmk_core/protocol/lufa/LUFA-git/LUFA/Drivers/USB/Core/AVR8/../AVR8/../AVR8/Endpoint_AVR8.h **** 			}
 2863               		.loc 2 407 5 view .LVU741
 407:./tmk_core/protocol/lufa/LUFA-git/LUFA/Drivers/USB/Core/AVR8/../AVR8/../AVR8/Endpoint_AVR8.h **** 			}
 2864               		.loc 2 407 14 is_stmt 0 view .LVU742
 2865 005e 8091 E800 		lds r24,232
 2866               	.LBE375:
 2867               	.LBE374:
  57:./tmk_core/protocol/lufa/LUFA-git/LUFA/Drivers/USB/Core/AVR8/Template/Template_Endpoint_Control_W.c **** 		{
 2868               		.loc 4 57 6 view .LVU743
 2869 0062 80FF      		sbrs r24,0
 2870 0064 00C0      		rjmp .L181
 2871               	.LBB376:
  59:./tmk_core/protocol/lufa/LUFA-git/LUFA/Drivers/USB/Core/AVR8/Template/Template_Endpoint_Control_W.c **** 
 2872               		.loc 4 59 4 is_stmt 1 view .LVU744
 2873               	.LBB377:
 2874               	.LBI377:
 222:./tmk_core/protocol/lufa/LUFA-git/LUFA/Drivers/USB/Core/AVR8/../AVR8/../AVR8/Endpoint_AVR8.h **** 			{
 2875               		.loc 2 222 27 view .LVU745
 2876               	.LBB378:
 225:./tmk_core/protocol/lufa/LUFA-git/LUFA/Drivers/USB/Core/AVR8/../AVR8/../AVR8/Endpoint_AVR8.h **** 				#elif defined(USB_SERIES_4_AVR)
 2877               		.loc 2 225 6 view .LVU746
 225:./tmk_core/protocol/lufa/LUFA-git/LUFA/Drivers/USB/Core/AVR8/../AVR8/../AVR8/Endpoint_AVR8.h **** 				#elif defined(USB_SERIES_4_AVR)
 2878               		.loc 2 225 13 is_stmt 0 view .LVU747
 2879 0066 8091 F200 		lds r24,242
 2880 006a 9091 F300 		lds r25,242+1
 2881               	.LVL238:
 225:./tmk_core/protocol/lufa/LUFA-git/LUFA/Drivers/USB/Core/AVR8/../AVR8/../AVR8/Endpoint_AVR8.h **** 				#elif defined(USB_SERIES_4_AVR)
 2882               		.loc 2 225 13 view .LVU748
 2883               	.LBE378:
 2884               	.LBE377:
  61:./tmk_core/protocol/lufa/LUFA-git/LUFA/Drivers/USB/Core/AVR8/Template/Template_Endpoint_Control_W.c **** 			{
 2885               		.loc 4 61 4 is_stmt 1 view .LVU749
 2886               	.L182:
  61:./tmk_core/protocol/lufa/LUFA-git/LUFA/Drivers/USB/Core/AVR8/Template/Template_Endpoint_Control_W.c **** 			{
 2887               		.loc 4 61 18 view .LVU750
 2888 006e 2115      		cp r18,__zero_reg__
 2889 0070 3105      		cpc r19,__zero_reg__
 2890 0072 01F0      		breq .L183
  61:./tmk_core/protocol/lufa/LUFA-git/LUFA/Drivers/USB/Core/AVR8/Template/Template_Endpoint_Control_W.c **** 			{
 2891               		.loc 4 61 18 is_stmt 0 discriminator 1 view .LVU751
 2892 0074 8830      		cpi r24,8
 2893 0076 9105      		cpc r25,__zero_reg__
 2894 0078 00F0      		brlo .L184
 2895               	.L183:
  69:./tmk_core/protocol/lufa/LUFA-git/LUFA/Drivers/USB/Core/AVR8/Template/Template_Endpoint_Control_W.c **** 			Endpoint_ClearIN();
 2896               		.loc 4 69 4 is_stmt 1 view .LVU752
  69:./tmk_core/protocol/lufa/LUFA-git/LUFA/Drivers/USB/Core/AVR8/Template/Template_Endpoint_Control_W.c **** 			Endpoint_ClearIN();
 2897               		.loc 4 69 19 is_stmt 0 view .LVU753
 2898 007a 41E0      		ldi r20,lo8(1)
 2899 007c 0897      		sbiw r24,8
 2900 007e 01F0      		breq .L185
 2901 0080 40E0      		ldi r20,0
 2902               	.L185:
 2903               	.LVL239:
  70:./tmk_core/protocol/lufa/LUFA-git/LUFA/Drivers/USB/Core/AVR8/Template/Template_Endpoint_Control_W.c **** 		}
 2904               		.loc 4 70 4 is_stmt 1 view .LVU754
 2905               	.LBB379:
 2906               	.LBI379:
 453:./tmk_core/protocol/lufa/LUFA-git/LUFA/Drivers/USB/Core/AVR8/../AVR8/../AVR8/Endpoint_AVR8.h **** 			{
 2907               		.loc 2 453 23 view .LVU755
 2908               	.LBB380:
 456:./tmk_core/protocol/lufa/LUFA-git/LUFA/Drivers/USB/Core/AVR8/../AVR8/../AVR8/Endpoint_AVR8.h **** 				#else
 2909               		.loc 2 456 6 view .LVU756
 456:./tmk_core/protocol/lufa/LUFA-git/LUFA/Drivers/USB/Core/AVR8/../AVR8/../AVR8/Endpoint_AVR8.h **** 				#else
 2910               		.loc 2 456 13 is_stmt 0 view .LVU757
 2911 0082 8091 E800 		lds r24,232
 2912               	.LVL240:
 456:./tmk_core/protocol/lufa/LUFA-git/LUFA/Drivers/USB/Core/AVR8/../AVR8/../AVR8/Endpoint_AVR8.h **** 				#else
 2913               		.loc 2 456 13 view .LVU758
 2914 0086 8E77      		andi r24,lo8(126)
 2915 0088 8093 E800 		sts 232,r24
 2916               	.LVL241:
 460:./tmk_core/protocol/lufa/LUFA-git/LUFA/Drivers/USB/Core/AVR8/../AVR8/../AVR8/Endpoint_AVR8.h **** 
 2917               		.loc 2 460 4 view .LVU759
 2918 008c 00C0      		rjmp .L181
 2919               	.LVL242:
 2920               	.L184:
 460:./tmk_core/protocol/lufa/LUFA-git/LUFA/Drivers/USB/Core/AVR8/../AVR8/../AVR8/Endpoint_AVR8.h **** 
 2921               		.loc 2 460 4 view .LVU760
 2922               	.LBE380:
 2923               	.LBE379:
  63:./tmk_core/protocol/lufa/LUFA-git/LUFA/Drivers/USB/Core/AVR8/Template/Template_Endpoint_Control_W.c **** 				TEMPLATE_BUFFER_MOVE(DataStream, 1);
 2924               		.loc 4 63 5 is_stmt 1 view .LVU761
 2925 008e 4081      		ld r20,Z
 2926               	.LVL243:
 2927               	.LBB381:
 2928               	.LBI381:
 552:./tmk_core/protocol/lufa/LUFA-git/LUFA/Drivers/USB/Core/AVR8/../AVR8/../AVR8/Endpoint_AVR8.h **** 			{
 2929               		.loc 2 552 23 view .LVU762
 2930               	.LBB382:
 554:./tmk_core/protocol/lufa/LUFA-git/LUFA/Drivers/USB/Core/AVR8/../AVR8/../AVR8/Endpoint_AVR8.h **** 			}
 2931               		.loc 2 554 5 view .LVU763
 554:./tmk_core/protocol/lufa/LUFA-git/LUFA/Drivers/USB/Core/AVR8/../AVR8/../AVR8/Endpoint_AVR8.h **** 			}
 2932               		.loc 2 554 12 is_stmt 0 view .LVU764
 2933 0090 4093 F100 		sts 241,r20
 2934               	.LVL244:
 554:./tmk_core/protocol/lufa/LUFA-git/LUFA/Drivers/USB/Core/AVR8/../AVR8/../AVR8/Endpoint_AVR8.h **** 			}
 2935               		.loc 2 554 12 view .LVU765
 2936               	.LBE382:
 2937               	.LBE381:
  64:./tmk_core/protocol/lufa/LUFA-git/LUFA/Drivers/USB/Core/AVR8/Template/Template_Endpoint_Control_W.c **** 				Length--;
 2938               		.loc 4 64 5 is_stmt 1 view .LVU766
 2939 0094 3197      		sbiw r30,1
 2940               	.LVL245:
  65:./tmk_core/protocol/lufa/LUFA-git/LUFA/Drivers/USB/Core/AVR8/Template/Template_Endpoint_Control_W.c **** 				BytesInEndpoint++;
 2941               		.loc 4 65 5 view .LVU767
  65:./tmk_core/protocol/lufa/LUFA-git/LUFA/Drivers/USB/Core/AVR8/Template/Template_Endpoint_Control_W.c **** 				BytesInEndpoint++;
 2942               		.loc 4 65 11 is_stmt 0 view .LVU768
 2943 0096 2150      		subi r18,1
 2944 0098 3109      		sbc r19,__zero_reg__
 2945               	.LVL246:
  66:./tmk_core/protocol/lufa/LUFA-git/LUFA/Drivers/USB/Core/AVR8/Template/Template_Endpoint_Control_W.c **** 			}
 2946               		.loc 4 66 5 is_stmt 1 view .LVU769
  66:./tmk_core/protocol/lufa/LUFA-git/LUFA/Drivers/USB/Core/AVR8/Template/Template_Endpoint_Control_W.c **** 			}
 2947               		.loc 4 66 20 is_stmt 0 view .LVU770
 2948 009a 0196      		adiw r24,1
 2949               	.LVL247:
  66:./tmk_core/protocol/lufa/LUFA-git/LUFA/Drivers/USB/Core/AVR8/Template/Template_Endpoint_Control_W.c **** 			}
 2950               		.loc 4 66 20 view .LVU771
 2951 009c 00C0      		rjmp .L182
 2952               	.LVL248:
 2953               	.L187:
  66:./tmk_core/protocol/lufa/LUFA-git/LUFA/Drivers/USB/Core/AVR8/Template/Template_Endpoint_Control_W.c **** 			}
 2954               		.loc 4 66 20 view .LVU772
 2955               	.LBE376:
 2956               	.LBE369:
 2957               	.LBB383:
  76:./tmk_core/protocol/lufa/LUFA-git/LUFA/Drivers/USB/Core/AVR8/Template/Template_Endpoint_Control_W.c **** 
 2958               		.loc 4 76 3 is_stmt 1 view .LVU773
  76:./tmk_core/protocol/lufa/LUFA-git/LUFA/Drivers/USB/Core/AVR8/Template/Template_Endpoint_Control_W.c **** 
 2959               		.loc 4 76 11 is_stmt 0 view .LVU774
 2960 009e 8091 0000 		lds r24,USB_DeviceState
 2961               	.LVL249:
  78:./tmk_core/protocol/lufa/LUFA-git/LUFA/Drivers/USB/Core/AVR8/Template/Template_Endpoint_Control_W.c **** 		  return ENDPOINT_RWCSTREAM_DeviceDisconnected;
 2962               		.loc 4 78 3 is_stmt 1 view .LVU775
  78:./tmk_core/protocol/lufa/LUFA-git/LUFA/Drivers/USB/Core/AVR8/Template/Template_Endpoint_Control_W.c **** 		  return ENDPOINT_RWCSTREAM_DeviceDisconnected;
 2963               		.loc 4 78 6 is_stmt 0 view .LVU776
 2964 00a2 8823      		tst r24
 2965 00a4 01F0      		breq .L191
  80:./tmk_core/protocol/lufa/LUFA-git/LUFA/Drivers/USB/Core/AVR8/Template/Template_Endpoint_Control_W.c **** 		  return ENDPOINT_RWCSTREAM_BusSuspended;
 2966               		.loc 4 80 8 is_stmt 1 view .LVU777
  80:./tmk_core/protocol/lufa/LUFA-git/LUFA/Drivers/USB/Core/AVR8/Template/Template_Endpoint_Control_W.c **** 		  return ENDPOINT_RWCSTREAM_BusSuspended;
 2967               		.loc 4 80 11 is_stmt 0 view .LVU778
 2968 00a6 8530      		cpi r24,lo8(5)
 2969 00a8 01F0      		breq .L192
  82:./tmk_core/protocol/lufa/LUFA-git/LUFA/Drivers/USB/Core/AVR8/Template/Template_Endpoint_Control_W.c **** 		  return ENDPOINT_RWCSTREAM_HostAborted;
 2970               		.loc 4 82 8 is_stmt 1 view .LVU779
 2971               	.LBB384:
 2972               	.LBI384:
 429:./tmk_core/protocol/lufa/LUFA-git/LUFA/Drivers/USB/Core/AVR8/../AVR8/../AVR8/Endpoint_AVR8.h **** 			{
 2973               		.loc 2 429 23 view .LVU780
 2974               	.LBB385:
 431:./tmk_core/protocol/lufa/LUFA-git/LUFA/Drivers/USB/Core/AVR8/../AVR8/../AVR8/Endpoint_AVR8.h **** 			}
 2975               		.loc 2 431 5 view .LVU781
 431:./tmk_core/protocol/lufa/LUFA-git/LUFA/Drivers/USB/Core/AVR8/../AVR8/../AVR8/Endpoint_AVR8.h **** 			}
 2976               		.loc 2 431 14 is_stmt 0 view .LVU782
 2977 00aa 8091 E800 		lds r24,232
 2978               	.LVL250:
 431:./tmk_core/protocol/lufa/LUFA-git/LUFA/Drivers/USB/Core/AVR8/../AVR8/../AVR8/Endpoint_AVR8.h **** 			}
 2979               		.loc 2 431 14 view .LVU783
 2980               	.LBE385:
 2981               	.LBE384:
  82:./tmk_core/protocol/lufa/LUFA-git/LUFA/Drivers/USB/Core/AVR8/Template/Template_Endpoint_Control_W.c **** 		  return ENDPOINT_RWCSTREAM_HostAborted;
 2982               		.loc 4 82 11 view .LVU784
 2983 00ae 83FF      		sbrs r24,3
 2984 00b0 00C0      		rjmp .L199
 2985               	.LVL251:
 2986               	.L193:
  82:./tmk_core/protocol/lufa/LUFA-git/LUFA/Drivers/USB/Core/AVR8/Template/Template_Endpoint_Control_W.c **** 		  return ENDPOINT_RWCSTREAM_HostAborted;
 2987               		.loc 4 82 11 view .LVU785
 2988               	.LBE383:
 2989               	.LBB386:
  53:./tmk_core/protocol/lufa/LUFA-git/LUFA/Drivers/USB/Core/AVR8/Template/Template_Endpoint_Control_W.c **** 		else if (Endpoint_IsOUTReceived())
 2990               		.loc 4 53 12 view .LVU786
 2991 00b2 81E0      		ldi r24,lo8(1)
 2992               	/* epilogue start */
 2993               	.LBE386:
 2994               		.loc 4 87 1 view .LVU787
 2995 00b4 0895      		ret
 2996               	.L191:
 2997               	.LBB387:
  49:./tmk_core/protocol/lufa/LUFA-git/LUFA/Drivers/USB/Core/AVR8/Template/Template_Endpoint_Control_W.c **** 		else if (USB_DeviceState_LCL == DEVICE_STATE_Suspended)
 2998               		.loc 4 49 12 view .LVU788
 2999 00b6 82E0      		ldi r24,lo8(2)
 3000 00b8 0895      		ret
 3001               	.L192:
  51:./tmk_core/protocol/lufa/LUFA-git/LUFA/Drivers/USB/Core/AVR8/Template/Template_Endpoint_Control_W.c **** 		else if (Endpoint_IsSETUPReceived())
 3002               		.loc 4 51 12 view .LVU789
 3003 00ba 83E0      		ldi r24,lo8(3)
 3004 00bc 0895      		ret
 3005               	.LBE387:
 3006               		.cfi_endproc
 3007               	.LFE102:
 3009               		.section	.text.Endpoint_Read_Control_Stream_LE,"ax",@progbits
 3010               	.global	Endpoint_Read_Control_Stream_LE
 3012               	Endpoint_Read_Control_Stream_LE:
 3013               	.LVL252:
 3014               	.LFB103:
 3015               		.file 5 "./tmk_core/protocol/lufa/LUFA-git/LUFA/Drivers/USB/Core/AVR8/Template/Template_Endpoint_C
   1:./tmk_core/protocol/lufa/LUFA-git/LUFA/Drivers/USB/Core/AVR8/Template/Template_Endpoint_Control_R.c **** /*
   2:./tmk_core/protocol/lufa/LUFA-git/LUFA/Drivers/USB/Core/AVR8/Template/Template_Endpoint_Control_R.c ****              LUFA Library
   3:./tmk_core/protocol/lufa/LUFA-git/LUFA/Drivers/USB/Core/AVR8/Template/Template_Endpoint_Control_R.c ****      Copyright (C) Dean Camera, 2014.
   4:./tmk_core/protocol/lufa/LUFA-git/LUFA/Drivers/USB/Core/AVR8/Template/Template_Endpoint_Control_R.c **** 
   5:./tmk_core/protocol/lufa/LUFA-git/LUFA/Drivers/USB/Core/AVR8/Template/Template_Endpoint_Control_R.c ****   dean [at] fourwalledcubicle [dot] com
   6:./tmk_core/protocol/lufa/LUFA-git/LUFA/Drivers/USB/Core/AVR8/Template/Template_Endpoint_Control_R.c ****            www.lufa-lib.org
   7:./tmk_core/protocol/lufa/LUFA-git/LUFA/Drivers/USB/Core/AVR8/Template/Template_Endpoint_Control_R.c **** */
   8:./tmk_core/protocol/lufa/LUFA-git/LUFA/Drivers/USB/Core/AVR8/Template/Template_Endpoint_Control_R.c **** 
   9:./tmk_core/protocol/lufa/LUFA-git/LUFA/Drivers/USB/Core/AVR8/Template/Template_Endpoint_Control_R.c **** /*
  10:./tmk_core/protocol/lufa/LUFA-git/LUFA/Drivers/USB/Core/AVR8/Template/Template_Endpoint_Control_R.c ****   Copyright 2014  Dean Camera (dean [at] fourwalledcubicle [dot] com)
  11:./tmk_core/protocol/lufa/LUFA-git/LUFA/Drivers/USB/Core/AVR8/Template/Template_Endpoint_Control_R.c **** 
  12:./tmk_core/protocol/lufa/LUFA-git/LUFA/Drivers/USB/Core/AVR8/Template/Template_Endpoint_Control_R.c ****   Permission to use, copy, modify, distribute, and sell this
  13:./tmk_core/protocol/lufa/LUFA-git/LUFA/Drivers/USB/Core/AVR8/Template/Template_Endpoint_Control_R.c ****   software and its documentation for any purpose is hereby granted
  14:./tmk_core/protocol/lufa/LUFA-git/LUFA/Drivers/USB/Core/AVR8/Template/Template_Endpoint_Control_R.c ****   without fee, provided that the above copyright notice appear in
  15:./tmk_core/protocol/lufa/LUFA-git/LUFA/Drivers/USB/Core/AVR8/Template/Template_Endpoint_Control_R.c ****   all copies and that both that the copyright notice and this
  16:./tmk_core/protocol/lufa/LUFA-git/LUFA/Drivers/USB/Core/AVR8/Template/Template_Endpoint_Control_R.c ****   permission notice and warranty disclaimer appear in supporting
  17:./tmk_core/protocol/lufa/LUFA-git/LUFA/Drivers/USB/Core/AVR8/Template/Template_Endpoint_Control_R.c ****   documentation, and that the name of the author not be used in
  18:./tmk_core/protocol/lufa/LUFA-git/LUFA/Drivers/USB/Core/AVR8/Template/Template_Endpoint_Control_R.c ****   advertising or publicity pertaining to distribution of the
  19:./tmk_core/protocol/lufa/LUFA-git/LUFA/Drivers/USB/Core/AVR8/Template/Template_Endpoint_Control_R.c ****   software without specific, written prior permission.
  20:./tmk_core/protocol/lufa/LUFA-git/LUFA/Drivers/USB/Core/AVR8/Template/Template_Endpoint_Control_R.c **** 
  21:./tmk_core/protocol/lufa/LUFA-git/LUFA/Drivers/USB/Core/AVR8/Template/Template_Endpoint_Control_R.c ****   The author disclaims all warranties with regard to this
  22:./tmk_core/protocol/lufa/LUFA-git/LUFA/Drivers/USB/Core/AVR8/Template/Template_Endpoint_Control_R.c ****   software, including all implied warranties of merchantability
  23:./tmk_core/protocol/lufa/LUFA-git/LUFA/Drivers/USB/Core/AVR8/Template/Template_Endpoint_Control_R.c ****   and fitness.  In no event shall the author be liable for any
  24:./tmk_core/protocol/lufa/LUFA-git/LUFA/Drivers/USB/Core/AVR8/Template/Template_Endpoint_Control_R.c ****   special, indirect or consequential damages or any damages
  25:./tmk_core/protocol/lufa/LUFA-git/LUFA/Drivers/USB/Core/AVR8/Template/Template_Endpoint_Control_R.c ****   whatsoever resulting from loss of use, data or profits, whether
  26:./tmk_core/protocol/lufa/LUFA-git/LUFA/Drivers/USB/Core/AVR8/Template/Template_Endpoint_Control_R.c ****   in an action of contract, negligence or other tortious action,
  27:./tmk_core/protocol/lufa/LUFA-git/LUFA/Drivers/USB/Core/AVR8/Template/Template_Endpoint_Control_R.c ****   arising out of or in connection with the use or performance of
  28:./tmk_core/protocol/lufa/LUFA-git/LUFA/Drivers/USB/Core/AVR8/Template/Template_Endpoint_Control_R.c ****   this software.
  29:./tmk_core/protocol/lufa/LUFA-git/LUFA/Drivers/USB/Core/AVR8/Template/Template_Endpoint_Control_R.c **** */
  30:./tmk_core/protocol/lufa/LUFA-git/LUFA/Drivers/USB/Core/AVR8/Template/Template_Endpoint_Control_R.c **** 
  31:./tmk_core/protocol/lufa/LUFA-git/LUFA/Drivers/USB/Core/AVR8/Template/Template_Endpoint_Control_R.c **** #if defined(TEMPLATE_FUNC_NAME)
  32:./tmk_core/protocol/lufa/LUFA-git/LUFA/Drivers/USB/Core/AVR8/Template/Template_Endpoint_Control_R.c **** 
  33:./tmk_core/protocol/lufa/LUFA-git/LUFA/Drivers/USB/Core/AVR8/Template/Template_Endpoint_Control_R.c **** uint8_t TEMPLATE_FUNC_NAME (void* const Buffer,
  34:./tmk_core/protocol/lufa/LUFA-git/LUFA/Drivers/USB/Core/AVR8/Template/Template_Endpoint_Control_R.c ****                             uint16_t Length)
  35:./tmk_core/protocol/lufa/LUFA-git/LUFA/Drivers/USB/Core/AVR8/Template/Template_Endpoint_Control_R.c **** {
 3016               		.loc 5 35 1 is_stmt 1 view -0
 3017               		.cfi_startproc
 3018               	/* prologue: function */
 3019               	/* frame size = 0 */
 3020               	/* stack size = 0 */
 3021               	.L__stack_usage = 0
 3022               		.loc 5 35 1 is_stmt 0 view .LVU791
 3023 0000 FC01      		movw r30,r24
 3024 0002 CB01      		movw r24,r22
 3025               	.LVL253:
  36:./tmk_core/protocol/lufa/LUFA-git/LUFA/Drivers/USB/Core/AVR8/Template/Template_Endpoint_Control_R.c **** 	uint8_t* DataStream = ((uint8_t*)Buffer + TEMPLATE_BUFFER_OFFSET(Length));
 3026               		.loc 5 36 2 is_stmt 1 view .LVU792
  37:./tmk_core/protocol/lufa/LUFA-git/LUFA/Drivers/USB/Core/AVR8/Template/Template_Endpoint_Control_R.c **** 
  38:./tmk_core/protocol/lufa/LUFA-git/LUFA/Drivers/USB/Core/AVR8/Template/Template_Endpoint_Control_R.c **** 	if (!(Length))
 3027               		.loc 5 38 2 view .LVU793
 3028               		.loc 5 38 5 is_stmt 0 view .LVU794
 3029 0004 0097      		sbiw r24,0
 3030 0006 01F4      		brne .L208
 3031               	.LVL254:
 3032               	.L209:
 3033               	.LBB388:
  39:./tmk_core/protocol/lufa/LUFA-git/LUFA/Drivers/USB/Core/AVR8/Template/Template_Endpoint_Control_R.c **** 	  Endpoint_ClearOUT();
  40:./tmk_core/protocol/lufa/LUFA-git/LUFA/Drivers/USB/Core/AVR8/Template/Template_Endpoint_Control_R.c **** 
  41:./tmk_core/protocol/lufa/LUFA-git/LUFA/Drivers/USB/Core/AVR8/Template/Template_Endpoint_Control_R.c **** 	while (Length)
  42:./tmk_core/protocol/lufa/LUFA-git/LUFA/Drivers/USB/Core/AVR8/Template/Template_Endpoint_Control_R.c **** 	{
  43:./tmk_core/protocol/lufa/LUFA-git/LUFA/Drivers/USB/Core/AVR8/Template/Template_Endpoint_Control_R.c **** 		uint8_t USB_DeviceState_LCL = USB_DeviceState;
  44:./tmk_core/protocol/lufa/LUFA-git/LUFA/Drivers/USB/Core/AVR8/Template/Template_Endpoint_Control_R.c **** 
  45:./tmk_core/protocol/lufa/LUFA-git/LUFA/Drivers/USB/Core/AVR8/Template/Template_Endpoint_Control_R.c **** 		if (USB_DeviceState_LCL == DEVICE_STATE_Unattached)
  46:./tmk_core/protocol/lufa/LUFA-git/LUFA/Drivers/USB/Core/AVR8/Template/Template_Endpoint_Control_R.c **** 		  return ENDPOINT_RWCSTREAM_DeviceDisconnected;
  47:./tmk_core/protocol/lufa/LUFA-git/LUFA/Drivers/USB/Core/AVR8/Template/Template_Endpoint_Control_R.c **** 		else if (USB_DeviceState_LCL == DEVICE_STATE_Suspended)
  48:./tmk_core/protocol/lufa/LUFA-git/LUFA/Drivers/USB/Core/AVR8/Template/Template_Endpoint_Control_R.c **** 		  return ENDPOINT_RWCSTREAM_BusSuspended;
  49:./tmk_core/protocol/lufa/LUFA-git/LUFA/Drivers/USB/Core/AVR8/Template/Template_Endpoint_Control_R.c **** 		else if (Endpoint_IsSETUPReceived())
  50:./tmk_core/protocol/lufa/LUFA-git/LUFA/Drivers/USB/Core/AVR8/Template/Template_Endpoint_Control_R.c **** 		  return ENDPOINT_RWCSTREAM_HostAborted;
  51:./tmk_core/protocol/lufa/LUFA-git/LUFA/Drivers/USB/Core/AVR8/Template/Template_Endpoint_Control_R.c **** 
  52:./tmk_core/protocol/lufa/LUFA-git/LUFA/Drivers/USB/Core/AVR8/Template/Template_Endpoint_Control_R.c **** 		if (Endpoint_IsOUTReceived())
  53:./tmk_core/protocol/lufa/LUFA-git/LUFA/Drivers/USB/Core/AVR8/Template/Template_Endpoint_Control_R.c **** 		{
  54:./tmk_core/protocol/lufa/LUFA-git/LUFA/Drivers/USB/Core/AVR8/Template/Template_Endpoint_Control_R.c **** 			while (Length && Endpoint_BytesInEndpoint())
  55:./tmk_core/protocol/lufa/LUFA-git/LUFA/Drivers/USB/Core/AVR8/Template/Template_Endpoint_Control_R.c **** 			{
  56:./tmk_core/protocol/lufa/LUFA-git/LUFA/Drivers/USB/Core/AVR8/Template/Template_Endpoint_Control_R.c **** 				TEMPLATE_TRANSFER_BYTE(DataStream);
  57:./tmk_core/protocol/lufa/LUFA-git/LUFA/Drivers/USB/Core/AVR8/Template/Template_Endpoint_Control_R.c **** 				TEMPLATE_BUFFER_MOVE(DataStream, 1);
  58:./tmk_core/protocol/lufa/LUFA-git/LUFA/Drivers/USB/Core/AVR8/Template/Template_Endpoint_Control_R.c **** 				Length--;
  59:./tmk_core/protocol/lufa/LUFA-git/LUFA/Drivers/USB/Core/AVR8/Template/Template_Endpoint_Control_R.c **** 			}
  60:./tmk_core/protocol/lufa/LUFA-git/LUFA/Drivers/USB/Core/AVR8/Template/Template_Endpoint_Control_R.c **** 
  61:./tmk_core/protocol/lufa/LUFA-git/LUFA/Drivers/USB/Core/AVR8/Template/Template_Endpoint_Control_R.c **** 			Endpoint_ClearOUT();
 3034               		.loc 5 61 4 is_stmt 1 view .LVU795
 3035               	.LBB389:
 3036               	.LBI389:
 468:./tmk_core/protocol/lufa/LUFA-git/LUFA/Drivers/USB/Core/AVR8/../AVR8/../AVR8/Endpoint_AVR8.h **** 			{
 3037               		.loc 2 468 23 view .LVU796
 3038               	.LBB390:
 471:./tmk_core/protocol/lufa/LUFA-git/LUFA/Drivers/USB/Core/AVR8/../AVR8/../AVR8/Endpoint_AVR8.h **** 				#else
 3039               		.loc 2 471 6 view .LVU797
 471:./tmk_core/protocol/lufa/LUFA-git/LUFA/Drivers/USB/Core/AVR8/../AVR8/../AVR8/Endpoint_AVR8.h **** 				#else
 3040               		.loc 2 471 13 is_stmt 0 view .LVU798
 3041 0008 2091 E800 		lds r18,232
 3042 000c 2B77      		andi r18,lo8(123)
 3043 000e 2093 E800 		sts 232,r18
 471:./tmk_core/protocol/lufa/LUFA-git/LUFA/Drivers/USB/Core/AVR8/../AVR8/../AVR8/Endpoint_AVR8.h **** 				#else
 3044               		.loc 2 471 13 view .LVU799
 3045               	.LBE390:
 3046               	.LBE389:
 3047               	.LBE388:
  41:./tmk_core/protocol/lufa/LUFA-git/LUFA/Drivers/USB/Core/AVR8/Template/Template_Endpoint_Control_R.c **** 	{
 3048               		.loc 5 41 9 is_stmt 1 view .LVU800
 3049 0012 0097      		sbiw r24,0
 3050 0014 01F4      		brne .L208
 3051               	.LVL255:
 3052               	.L211:
  62:./tmk_core/protocol/lufa/LUFA-git/LUFA/Drivers/USB/Core/AVR8/Template/Template_Endpoint_Control_R.c **** 		}
  63:./tmk_core/protocol/lufa/LUFA-git/LUFA/Drivers/USB/Core/AVR8/Template/Template_Endpoint_Control_R.c **** 	}
  64:./tmk_core/protocol/lufa/LUFA-git/LUFA/Drivers/USB/Core/AVR8/Template/Template_Endpoint_Control_R.c **** 
  65:./tmk_core/protocol/lufa/LUFA-git/LUFA/Drivers/USB/Core/AVR8/Template/Template_Endpoint_Control_R.c **** 	while (!(Endpoint_IsINReady()))
 3053               		.loc 5 65 9 view .LVU801
 3054               	.LBB399:
 3055               	.LBI399:
 405:./tmk_core/protocol/lufa/LUFA-git/LUFA/Drivers/USB/Core/AVR8/../AVR8/../AVR8/Endpoint_AVR8.h **** 			{
 3056               		.loc 2 405 23 view .LVU802
 3057               	.LBB400:
 407:./tmk_core/protocol/lufa/LUFA-git/LUFA/Drivers/USB/Core/AVR8/../AVR8/../AVR8/Endpoint_AVR8.h **** 			}
 3058               		.loc 2 407 5 view .LVU803
 407:./tmk_core/protocol/lufa/LUFA-git/LUFA/Drivers/USB/Core/AVR8/../AVR8/../AVR8/Endpoint_AVR8.h **** 			}
 3059               		.loc 2 407 14 is_stmt 0 view .LVU804
 3060 0016 8091 E800 		lds r24,232
 3061               	.LBE400:
 3062               	.LBE399:
 3063               		.loc 5 65 9 view .LVU805
 3064 001a 80FF      		sbrs r24,0
 3065 001c 00C0      		rjmp .L212
  66:./tmk_core/protocol/lufa/LUFA-git/LUFA/Drivers/USB/Core/AVR8/Template/Template_Endpoint_Control_R.c **** 	{
  67:./tmk_core/protocol/lufa/LUFA-git/LUFA/Drivers/USB/Core/AVR8/Template/Template_Endpoint_Control_R.c **** 		uint8_t USB_DeviceState_LCL = USB_DeviceState;
  68:./tmk_core/protocol/lufa/LUFA-git/LUFA/Drivers/USB/Core/AVR8/Template/Template_Endpoint_Control_R.c **** 
  69:./tmk_core/protocol/lufa/LUFA-git/LUFA/Drivers/USB/Core/AVR8/Template/Template_Endpoint_Control_R.c **** 		if (USB_DeviceState_LCL == DEVICE_STATE_Unattached)
  70:./tmk_core/protocol/lufa/LUFA-git/LUFA/Drivers/USB/Core/AVR8/Template/Template_Endpoint_Control_R.c **** 		  return ENDPOINT_RWCSTREAM_DeviceDisconnected;
  71:./tmk_core/protocol/lufa/LUFA-git/LUFA/Drivers/USB/Core/AVR8/Template/Template_Endpoint_Control_R.c **** 		else if (USB_DeviceState_LCL == DEVICE_STATE_Suspended)
  72:./tmk_core/protocol/lufa/LUFA-git/LUFA/Drivers/USB/Core/AVR8/Template/Template_Endpoint_Control_R.c **** 		  return ENDPOINT_RWCSTREAM_BusSuspended;
  73:./tmk_core/protocol/lufa/LUFA-git/LUFA/Drivers/USB/Core/AVR8/Template/Template_Endpoint_Control_R.c **** 	}
  74:./tmk_core/protocol/lufa/LUFA-git/LUFA/Drivers/USB/Core/AVR8/Template/Template_Endpoint_Control_R.c **** 
  75:./tmk_core/protocol/lufa/LUFA-git/LUFA/Drivers/USB/Core/AVR8/Template/Template_Endpoint_Control_R.c **** 	return ENDPOINT_RWCSTREAM_NoError;
 3066               		.loc 5 75 9 view .LVU806
 3067 001e 80E0      		ldi r24,0
 3068 0020 0895      		ret
 3069               	.LVL256:
 3070               	.L208:
 3071               	.LBB401:
  43:./tmk_core/protocol/lufa/LUFA-git/LUFA/Drivers/USB/Core/AVR8/Template/Template_Endpoint_Control_R.c **** 
 3072               		.loc 5 43 3 is_stmt 1 view .LVU807
  43:./tmk_core/protocol/lufa/LUFA-git/LUFA/Drivers/USB/Core/AVR8/Template/Template_Endpoint_Control_R.c **** 
 3073               		.loc 5 43 11 is_stmt 0 view .LVU808
 3074 0022 2091 0000 		lds r18,USB_DeviceState
 3075               	.LVL257:
  45:./tmk_core/protocol/lufa/LUFA-git/LUFA/Drivers/USB/Core/AVR8/Template/Template_Endpoint_Control_R.c **** 		  return ENDPOINT_RWCSTREAM_DeviceDisconnected;
 3076               		.loc 5 45 3 is_stmt 1 view .LVU809
  45:./tmk_core/protocol/lufa/LUFA-git/LUFA/Drivers/USB/Core/AVR8/Template/Template_Endpoint_Control_R.c **** 		  return ENDPOINT_RWCSTREAM_DeviceDisconnected;
 3077               		.loc 5 45 6 is_stmt 0 view .LVU810
 3078 0026 2223      		tst r18
 3079 0028 01F0      		breq .L216
  47:./tmk_core/protocol/lufa/LUFA-git/LUFA/Drivers/USB/Core/AVR8/Template/Template_Endpoint_Control_R.c **** 		  return ENDPOINT_RWCSTREAM_BusSuspended;
 3080               		.loc 5 47 8 is_stmt 1 view .LVU811
  47:./tmk_core/protocol/lufa/LUFA-git/LUFA/Drivers/USB/Core/AVR8/Template/Template_Endpoint_Control_R.c **** 		  return ENDPOINT_RWCSTREAM_BusSuspended;
 3081               		.loc 5 47 11 is_stmt 0 view .LVU812
 3082 002a 2530      		cpi r18,lo8(5)
 3083 002c 01F0      		breq .L217
  49:./tmk_core/protocol/lufa/LUFA-git/LUFA/Drivers/USB/Core/AVR8/Template/Template_Endpoint_Control_R.c **** 		  return ENDPOINT_RWCSTREAM_HostAborted;
 3084               		.loc 5 49 8 is_stmt 1 view .LVU813
 3085               	.LBB391:
 3086               	.LBI391:
 429:./tmk_core/protocol/lufa/LUFA-git/LUFA/Drivers/USB/Core/AVR8/../AVR8/../AVR8/Endpoint_AVR8.h **** 			{
 3087               		.loc 2 429 23 view .LVU814
 3088               	.LBB392:
 431:./tmk_core/protocol/lufa/LUFA-git/LUFA/Drivers/USB/Core/AVR8/../AVR8/../AVR8/Endpoint_AVR8.h **** 			}
 3089               		.loc 2 431 5 view .LVU815
 431:./tmk_core/protocol/lufa/LUFA-git/LUFA/Drivers/USB/Core/AVR8/../AVR8/../AVR8/Endpoint_AVR8.h **** 			}
 3090               		.loc 2 431 14 is_stmt 0 view .LVU816
 3091 002e 2091 E800 		lds r18,232
 3092               	.LVL258:
 431:./tmk_core/protocol/lufa/LUFA-git/LUFA/Drivers/USB/Core/AVR8/../AVR8/../AVR8/Endpoint_AVR8.h **** 			}
 3093               		.loc 2 431 14 view .LVU817
 3094               	.LBE392:
 3095               	.LBE391:
  49:./tmk_core/protocol/lufa/LUFA-git/LUFA/Drivers/USB/Core/AVR8/Template/Template_Endpoint_Control_R.c **** 		  return ENDPOINT_RWCSTREAM_HostAborted;
 3096               		.loc 5 49 11 view .LVU818
 3097 0032 23FD      		sbrc r18,3
 3098 0034 00C0      		rjmp .L215
  52:./tmk_core/protocol/lufa/LUFA-git/LUFA/Drivers/USB/Core/AVR8/Template/Template_Endpoint_Control_R.c **** 		{
 3099               		.loc 5 52 3 is_stmt 1 view .LVU819
 3100               	.LBB393:
 3101               	.LBI393:
 417:./tmk_core/protocol/lufa/LUFA-git/LUFA/Drivers/USB/Core/AVR8/../AVR8/../AVR8/Endpoint_AVR8.h **** 			{
 3102               		.loc 2 417 23 view .LVU820
 3103               	.LBB394:
 419:./tmk_core/protocol/lufa/LUFA-git/LUFA/Drivers/USB/Core/AVR8/../AVR8/../AVR8/Endpoint_AVR8.h **** 			}
 3104               		.loc 2 419 5 view .LVU821
 419:./tmk_core/protocol/lufa/LUFA-git/LUFA/Drivers/USB/Core/AVR8/../AVR8/../AVR8/Endpoint_AVR8.h **** 			}
 3105               		.loc 2 419 14 is_stmt 0 view .LVU822
 3106 0036 2091 E800 		lds r18,232
 3107               	.LBE394:
 3108               	.LBE393:
  52:./tmk_core/protocol/lufa/LUFA-git/LUFA/Drivers/USB/Core/AVR8/Template/Template_Endpoint_Control_R.c **** 		{
 3109               		.loc 5 52 6 view .LVU823
 3110 003a 22FF      		sbrs r18,2
 3111 003c 00C0      		rjmp .L208
 3112               	.L207:
 3113               	.LVL259:
 3114               	.LBB395:
 3115               	.LBI395:
 222:./tmk_core/protocol/lufa/LUFA-git/LUFA/Drivers/USB/Core/AVR8/../AVR8/../AVR8/Endpoint_AVR8.h **** 			{
 3116               		.loc 2 222 27 is_stmt 1 view .LVU824
 3117               	.LBB396:
 225:./tmk_core/protocol/lufa/LUFA-git/LUFA/Drivers/USB/Core/AVR8/../AVR8/../AVR8/Endpoint_AVR8.h **** 				#elif defined(USB_SERIES_4_AVR)
 3118               		.loc 2 225 6 view .LVU825
 225:./tmk_core/protocol/lufa/LUFA-git/LUFA/Drivers/USB/Core/AVR8/../AVR8/../AVR8/Endpoint_AVR8.h **** 				#elif defined(USB_SERIES_4_AVR)
 3119               		.loc 2 225 13 is_stmt 0 view .LVU826
 3120 003e 2091 F200 		lds r18,242
 3121 0042 3091 F300 		lds r19,242+1
 3122               	.LBE396:
 3123               	.LBE395:
  54:./tmk_core/protocol/lufa/LUFA-git/LUFA/Drivers/USB/Core/AVR8/Template/Template_Endpoint_Control_R.c **** 			{
 3124               		.loc 5 54 18 view .LVU827
 3125 0046 232B      		or r18,r19
 3126 0048 01F0      		breq .L209
  56:./tmk_core/protocol/lufa/LUFA-git/LUFA/Drivers/USB/Core/AVR8/Template/Template_Endpoint_Control_R.c **** 				TEMPLATE_BUFFER_MOVE(DataStream, 1);
 3127               		.loc 5 56 5 is_stmt 1 view .LVU828
 3128               	.LBB397:
 3129               	.LBI397:
 540:./tmk_core/protocol/lufa/LUFA-git/LUFA/Drivers/USB/Core/AVR8/../AVR8/../AVR8/Endpoint_AVR8.h **** 			{
 3130               		.loc 2 540 26 view .LVU829
 3131               	.LBB398:
 542:./tmk_core/protocol/lufa/LUFA-git/LUFA/Drivers/USB/Core/AVR8/../AVR8/../AVR8/Endpoint_AVR8.h **** 			}
 3132               		.loc 2 542 5 view .LVU830
 542:./tmk_core/protocol/lufa/LUFA-git/LUFA/Drivers/USB/Core/AVR8/../AVR8/../AVR8/Endpoint_AVR8.h **** 			}
 3133               		.loc 2 542 12 is_stmt 0 view .LVU831
 3134 004a 2091 F100 		lds r18,241
 3135               	.LBE398:
 3136               	.LBE397:
  56:./tmk_core/protocol/lufa/LUFA-git/LUFA/Drivers/USB/Core/AVR8/Template/Template_Endpoint_Control_R.c **** 				TEMPLATE_BUFFER_MOVE(DataStream, 1);
 3137               		.loc 5 56 5 view .LVU832
 3138 004e 2193      		st Z+,r18
 3139               	.LVL260:
  57:./tmk_core/protocol/lufa/LUFA-git/LUFA/Drivers/USB/Core/AVR8/Template/Template_Endpoint_Control_R.c **** 				Length--;
 3140               		.loc 5 57 5 is_stmt 1 view .LVU833
  58:./tmk_core/protocol/lufa/LUFA-git/LUFA/Drivers/USB/Core/AVR8/Template/Template_Endpoint_Control_R.c **** 			}
 3141               		.loc 5 58 5 view .LVU834
  58:./tmk_core/protocol/lufa/LUFA-git/LUFA/Drivers/USB/Core/AVR8/Template/Template_Endpoint_Control_R.c **** 			}
 3142               		.loc 5 58 11 is_stmt 0 view .LVU835
 3143 0050 0197      		sbiw r24,1
 3144               	.LVL261:
  54:./tmk_core/protocol/lufa/LUFA-git/LUFA/Drivers/USB/Core/AVR8/Template/Template_Endpoint_Control_R.c **** 			{
 3145               		.loc 5 54 18 is_stmt 1 view .LVU836
 3146 0052 0097      		sbiw r24,0
 3147 0054 01F4      		brne .L207
 3148 0056 00C0      		rjmp .L209
 3149               	.LVL262:
 3150               	.L212:
  54:./tmk_core/protocol/lufa/LUFA-git/LUFA/Drivers/USB/Core/AVR8/Template/Template_Endpoint_Control_R.c **** 			{
 3151               		.loc 5 54 18 is_stmt 0 view .LVU837
 3152               	.LBE401:
 3153               	.LBB402:
  67:./tmk_core/protocol/lufa/LUFA-git/LUFA/Drivers/USB/Core/AVR8/Template/Template_Endpoint_Control_R.c **** 
 3154               		.loc 5 67 3 is_stmt 1 view .LVU838
  67:./tmk_core/protocol/lufa/LUFA-git/LUFA/Drivers/USB/Core/AVR8/Template/Template_Endpoint_Control_R.c **** 
 3155               		.loc 5 67 11 is_stmt 0 view .LVU839
 3156 0058 8091 0000 		lds r24,USB_DeviceState
 3157               	.LVL263:
  69:./tmk_core/protocol/lufa/LUFA-git/LUFA/Drivers/USB/Core/AVR8/Template/Template_Endpoint_Control_R.c **** 		  return ENDPOINT_RWCSTREAM_DeviceDisconnected;
 3158               		.loc 5 69 3 is_stmt 1 view .LVU840
  69:./tmk_core/protocol/lufa/LUFA-git/LUFA/Drivers/USB/Core/AVR8/Template/Template_Endpoint_Control_R.c **** 		  return ENDPOINT_RWCSTREAM_DeviceDisconnected;
 3159               		.loc 5 69 6 is_stmt 0 view .LVU841
 3160 005c 8823      		tst r24
 3161 005e 01F0      		breq .L216
  71:./tmk_core/protocol/lufa/LUFA-git/LUFA/Drivers/USB/Core/AVR8/Template/Template_Endpoint_Control_R.c **** 		  return ENDPOINT_RWCSTREAM_BusSuspended;
 3162               		.loc 5 71 8 is_stmt 1 view .LVU842
  71:./tmk_core/protocol/lufa/LUFA-git/LUFA/Drivers/USB/Core/AVR8/Template/Template_Endpoint_Control_R.c **** 		  return ENDPOINT_RWCSTREAM_BusSuspended;
 3163               		.loc 5 71 11 is_stmt 0 view .LVU843
 3164 0060 8530      		cpi r24,lo8(5)
 3165 0062 01F4      		brne .L211
 3166               	.LVL264:
 3167               	.L217:
  71:./tmk_core/protocol/lufa/LUFA-git/LUFA/Drivers/USB/Core/AVR8/Template/Template_Endpoint_Control_R.c **** 		  return ENDPOINT_RWCSTREAM_BusSuspended;
 3168               		.loc 5 71 11 view .LVU844
 3169               	.LBE402:
 3170               	.LBB403:
  48:./tmk_core/protocol/lufa/LUFA-git/LUFA/Drivers/USB/Core/AVR8/Template/Template_Endpoint_Control_R.c **** 		else if (Endpoint_IsSETUPReceived())
 3171               		.loc 5 48 12 view .LVU845
 3172 0064 83E0      		ldi r24,lo8(3)
 3173               	/* epilogue start */
 3174               	.LBE403:
  76:./tmk_core/protocol/lufa/LUFA-git/LUFA/Drivers/USB/Core/AVR8/Template/Template_Endpoint_Control_R.c **** }
 3175               		.loc 5 76 1 view .LVU846
 3176 0066 0895      		ret
 3177               	.LVL265:
 3178               	.L215:
 3179               	.LBB404:
  50:./tmk_core/protocol/lufa/LUFA-git/LUFA/Drivers/USB/Core/AVR8/Template/Template_Endpoint_Control_R.c **** 
 3180               		.loc 5 50 12 view .LVU847
 3181 0068 81E0      		ldi r24,lo8(1)
 3182 006a 0895      		ret
 3183               	.LVL266:
 3184               	.L216:
  46:./tmk_core/protocol/lufa/LUFA-git/LUFA/Drivers/USB/Core/AVR8/Template/Template_Endpoint_Control_R.c **** 		else if (USB_DeviceState_LCL == DEVICE_STATE_Suspended)
 3185               		.loc 5 46 12 view .LVU848
 3186 006c 82E0      		ldi r24,lo8(2)
 3187 006e 0895      		ret
 3188               	.LBE404:
 3189               		.cfi_endproc
 3190               	.LFE103:
 3192               		.section	.text.Endpoint_Read_Control_Stream_BE,"ax",@progbits
 3193               	.global	Endpoint_Read_Control_Stream_BE
 3195               	Endpoint_Read_Control_Stream_BE:
 3196               	.LVL267:
 3197               	.LFB104:
  35:./tmk_core/protocol/lufa/LUFA-git/LUFA/Drivers/USB/Core/AVR8/Template/Template_Endpoint_Control_R.c **** 	uint8_t* DataStream = ((uint8_t*)Buffer + TEMPLATE_BUFFER_OFFSET(Length));
 3198               		.loc 5 35 1 is_stmt 1 view -0
 3199               		.cfi_startproc
 3200               	/* prologue: function */
 3201               	/* frame size = 0 */
 3202               	/* stack size = 0 */
 3203               	.L__stack_usage = 0
  35:./tmk_core/protocol/lufa/LUFA-git/LUFA/Drivers/USB/Core/AVR8/Template/Template_Endpoint_Control_R.c **** 	uint8_t* DataStream = ((uint8_t*)Buffer + TEMPLATE_BUFFER_OFFSET(Length));
 3204               		.loc 5 35 1 is_stmt 0 view .LVU850
 3205 0000 9B01      		movw r18,r22
  36:./tmk_core/protocol/lufa/LUFA-git/LUFA/Drivers/USB/Core/AVR8/Template/Template_Endpoint_Control_R.c **** 
 3206               		.loc 5 36 2 is_stmt 1 view .LVU851
  36:./tmk_core/protocol/lufa/LUFA-git/LUFA/Drivers/USB/Core/AVR8/Template/Template_Endpoint_Control_R.c **** 
 3207               		.loc 5 36 42 is_stmt 0 view .LVU852
 3208 0002 FB01      		movw r30,r22
 3209 0004 3197      		sbiw r30,1
  36:./tmk_core/protocol/lufa/LUFA-git/LUFA/Drivers/USB/Core/AVR8/Template/Template_Endpoint_Control_R.c **** 
 3210               		.loc 5 36 11 view .LVU853
 3211 0006 E80F      		add r30,r24
 3212 0008 F91F      		adc r31,r25
 3213               	.LVL268:
  38:./tmk_core/protocol/lufa/LUFA-git/LUFA/Drivers/USB/Core/AVR8/Template/Template_Endpoint_Control_R.c **** 	  Endpoint_ClearOUT();
 3214               		.loc 5 38 2 is_stmt 1 view .LVU854
  38:./tmk_core/protocol/lufa/LUFA-git/LUFA/Drivers/USB/Core/AVR8/Template/Template_Endpoint_Control_R.c **** 	  Endpoint_ClearOUT();
 3215               		.loc 5 38 5 is_stmt 0 view .LVU855
 3216 000a 672B      		or r22,r23
 3217 000c 01F4      		brne .L228
 3218               	.LVL269:
 3219               	.L229:
 3220               	.LBB405:
  61:./tmk_core/protocol/lufa/LUFA-git/LUFA/Drivers/USB/Core/AVR8/Template/Template_Endpoint_Control_R.c **** 		}
 3221               		.loc 5 61 4 is_stmt 1 view .LVU856
 3222               	.LBB406:
 3223               	.LBI406:
 468:./tmk_core/protocol/lufa/LUFA-git/LUFA/Drivers/USB/Core/AVR8/../AVR8/../AVR8/Endpoint_AVR8.h **** 			{
 3224               		.loc 2 468 23 view .LVU857
 3225               	.LBB407:
 471:./tmk_core/protocol/lufa/LUFA-git/LUFA/Drivers/USB/Core/AVR8/../AVR8/../AVR8/Endpoint_AVR8.h **** 				#else
 3226               		.loc 2 471 6 view .LVU858
 471:./tmk_core/protocol/lufa/LUFA-git/LUFA/Drivers/USB/Core/AVR8/../AVR8/../AVR8/Endpoint_AVR8.h **** 				#else
 3227               		.loc 2 471 13 is_stmt 0 view .LVU859
 3228 000e 8091 E800 		lds r24,232
 3229 0012 8B77      		andi r24,lo8(123)
 3230 0014 8093 E800 		sts 232,r24
 471:./tmk_core/protocol/lufa/LUFA-git/LUFA/Drivers/USB/Core/AVR8/../AVR8/../AVR8/Endpoint_AVR8.h **** 				#else
 3231               		.loc 2 471 13 view .LVU860
 3232               	.LBE407:
 3233               	.LBE406:
 3234               	.LBE405:
  41:./tmk_core/protocol/lufa/LUFA-git/LUFA/Drivers/USB/Core/AVR8/Template/Template_Endpoint_Control_R.c **** 	{
 3235               		.loc 5 41 9 is_stmt 1 view .LVU861
 3236 0018 2115      		cp r18,__zero_reg__
 3237 001a 3105      		cpc r19,__zero_reg__
 3238 001c 01F4      		brne .L228
 3239               	.L231:
  65:./tmk_core/protocol/lufa/LUFA-git/LUFA/Drivers/USB/Core/AVR8/Template/Template_Endpoint_Control_R.c **** 	{
 3240               		.loc 5 65 9 view .LVU862
 3241               	.LBB416:
 3242               	.LBI416:
 405:./tmk_core/protocol/lufa/LUFA-git/LUFA/Drivers/USB/Core/AVR8/../AVR8/../AVR8/Endpoint_AVR8.h **** 			{
 3243               		.loc 2 405 23 view .LVU863
 3244               	.LBB417:
 407:./tmk_core/protocol/lufa/LUFA-git/LUFA/Drivers/USB/Core/AVR8/../AVR8/../AVR8/Endpoint_AVR8.h **** 			}
 3245               		.loc 2 407 5 view .LVU864
 407:./tmk_core/protocol/lufa/LUFA-git/LUFA/Drivers/USB/Core/AVR8/../AVR8/../AVR8/Endpoint_AVR8.h **** 			}
 3246               		.loc 2 407 14 is_stmt 0 view .LVU865
 3247 001e 8091 E800 		lds r24,232
 3248               	.LBE417:
 3249               	.LBE416:
  65:./tmk_core/protocol/lufa/LUFA-git/LUFA/Drivers/USB/Core/AVR8/Template/Template_Endpoint_Control_R.c **** 	{
 3250               		.loc 5 65 9 view .LVU866
 3251 0022 80FF      		sbrs r24,0
 3252 0024 00C0      		rjmp .L232
  75:./tmk_core/protocol/lufa/LUFA-git/LUFA/Drivers/USB/Core/AVR8/Template/Template_Endpoint_Control_R.c **** }
 3253               		.loc 5 75 9 view .LVU867
 3254 0026 80E0      		ldi r24,0
 3255 0028 0895      		ret
 3256               	.LVL270:
 3257               	.L228:
 3258               	.LBB418:
  43:./tmk_core/protocol/lufa/LUFA-git/LUFA/Drivers/USB/Core/AVR8/Template/Template_Endpoint_Control_R.c **** 
 3259               		.loc 5 43 3 is_stmt 1 view .LVU868
  43:./tmk_core/protocol/lufa/LUFA-git/LUFA/Drivers/USB/Core/AVR8/Template/Template_Endpoint_Control_R.c **** 
 3260               		.loc 5 43 11 is_stmt 0 view .LVU869
 3261 002a 8091 0000 		lds r24,USB_DeviceState
 3262               	.LVL271:
  45:./tmk_core/protocol/lufa/LUFA-git/LUFA/Drivers/USB/Core/AVR8/Template/Template_Endpoint_Control_R.c **** 		  return ENDPOINT_RWCSTREAM_DeviceDisconnected;
 3263               		.loc 5 45 3 is_stmt 1 view .LVU870
  45:./tmk_core/protocol/lufa/LUFA-git/LUFA/Drivers/USB/Core/AVR8/Template/Template_Endpoint_Control_R.c **** 		  return ENDPOINT_RWCSTREAM_DeviceDisconnected;
 3264               		.loc 5 45 6 is_stmt 0 view .LVU871
 3265 002e 8823      		tst r24
 3266 0030 01F0      		breq .L236
  47:./tmk_core/protocol/lufa/LUFA-git/LUFA/Drivers/USB/Core/AVR8/Template/Template_Endpoint_Control_R.c **** 		  return ENDPOINT_RWCSTREAM_BusSuspended;
 3267               		.loc 5 47 8 is_stmt 1 view .LVU872
  47:./tmk_core/protocol/lufa/LUFA-git/LUFA/Drivers/USB/Core/AVR8/Template/Template_Endpoint_Control_R.c **** 		  return ENDPOINT_RWCSTREAM_BusSuspended;
 3268               		.loc 5 47 11 is_stmt 0 view .LVU873
 3269 0032 8530      		cpi r24,lo8(5)
 3270 0034 01F0      		breq .L237
  49:./tmk_core/protocol/lufa/LUFA-git/LUFA/Drivers/USB/Core/AVR8/Template/Template_Endpoint_Control_R.c **** 		  return ENDPOINT_RWCSTREAM_HostAborted;
 3271               		.loc 5 49 8 is_stmt 1 view .LVU874
 3272               	.LBB408:
 3273               	.LBI408:
 429:./tmk_core/protocol/lufa/LUFA-git/LUFA/Drivers/USB/Core/AVR8/../AVR8/../AVR8/Endpoint_AVR8.h **** 			{
 3274               		.loc 2 429 23 view .LVU875
 3275               	.LBB409:
 431:./tmk_core/protocol/lufa/LUFA-git/LUFA/Drivers/USB/Core/AVR8/../AVR8/../AVR8/Endpoint_AVR8.h **** 			}
 3276               		.loc 2 431 5 view .LVU876
 431:./tmk_core/protocol/lufa/LUFA-git/LUFA/Drivers/USB/Core/AVR8/../AVR8/../AVR8/Endpoint_AVR8.h **** 			}
 3277               		.loc 2 431 14 is_stmt 0 view .LVU877
 3278 0036 8091 E800 		lds r24,232
 3279               	.LVL272:
 431:./tmk_core/protocol/lufa/LUFA-git/LUFA/Drivers/USB/Core/AVR8/../AVR8/../AVR8/Endpoint_AVR8.h **** 			}
 3280               		.loc 2 431 14 view .LVU878
 3281               	.LBE409:
 3282               	.LBE408:
  49:./tmk_core/protocol/lufa/LUFA-git/LUFA/Drivers/USB/Core/AVR8/Template/Template_Endpoint_Control_R.c **** 		  return ENDPOINT_RWCSTREAM_HostAborted;
 3283               		.loc 5 49 11 view .LVU879
 3284 003a 83FD      		sbrc r24,3
 3285 003c 00C0      		rjmp .L235
  52:./tmk_core/protocol/lufa/LUFA-git/LUFA/Drivers/USB/Core/AVR8/Template/Template_Endpoint_Control_R.c **** 		{
 3286               		.loc 5 52 3 is_stmt 1 view .LVU880
 3287               	.LBB410:
 3288               	.LBI410:
 417:./tmk_core/protocol/lufa/LUFA-git/LUFA/Drivers/USB/Core/AVR8/../AVR8/../AVR8/Endpoint_AVR8.h **** 			{
 3289               		.loc 2 417 23 view .LVU881
 3290               	.LBB411:
 419:./tmk_core/protocol/lufa/LUFA-git/LUFA/Drivers/USB/Core/AVR8/../AVR8/../AVR8/Endpoint_AVR8.h **** 			}
 3291               		.loc 2 419 5 view .LVU882
 419:./tmk_core/protocol/lufa/LUFA-git/LUFA/Drivers/USB/Core/AVR8/../AVR8/../AVR8/Endpoint_AVR8.h **** 			}
 3292               		.loc 2 419 14 is_stmt 0 view .LVU883
 3293 003e 8091 E800 		lds r24,232
 3294               	.LBE411:
 3295               	.LBE410:
  52:./tmk_core/protocol/lufa/LUFA-git/LUFA/Drivers/USB/Core/AVR8/Template/Template_Endpoint_Control_R.c **** 		{
 3296               		.loc 5 52 6 view .LVU884
 3297 0042 82FF      		sbrs r24,2
 3298 0044 00C0      		rjmp .L228
 3299               	.L227:
 3300               	.LVL273:
 3301               	.LBB412:
 3302               	.LBI412:
 222:./tmk_core/protocol/lufa/LUFA-git/LUFA/Drivers/USB/Core/AVR8/../AVR8/../AVR8/Endpoint_AVR8.h **** 			{
 3303               		.loc 2 222 27 is_stmt 1 view .LVU885
 3304               	.LBB413:
 225:./tmk_core/protocol/lufa/LUFA-git/LUFA/Drivers/USB/Core/AVR8/../AVR8/../AVR8/Endpoint_AVR8.h **** 				#elif defined(USB_SERIES_4_AVR)
 3305               		.loc 2 225 6 view .LVU886
 225:./tmk_core/protocol/lufa/LUFA-git/LUFA/Drivers/USB/Core/AVR8/../AVR8/../AVR8/Endpoint_AVR8.h **** 				#elif defined(USB_SERIES_4_AVR)
 3306               		.loc 2 225 13 is_stmt 0 view .LVU887
 3307 0046 8091 F200 		lds r24,242
 3308 004a 9091 F300 		lds r25,242+1
 3309               	.LBE413:
 3310               	.LBE412:
  54:./tmk_core/protocol/lufa/LUFA-git/LUFA/Drivers/USB/Core/AVR8/Template/Template_Endpoint_Control_R.c **** 			{
 3311               		.loc 5 54 18 view .LVU888
 3312 004e 892B      		or r24,r25
 3313 0050 01F0      		breq .L229
  56:./tmk_core/protocol/lufa/LUFA-git/LUFA/Drivers/USB/Core/AVR8/Template/Template_Endpoint_Control_R.c **** 				TEMPLATE_BUFFER_MOVE(DataStream, 1);
 3314               		.loc 5 56 5 is_stmt 1 view .LVU889
 3315               	.LBB414:
 3316               	.LBI414:
 540:./tmk_core/protocol/lufa/LUFA-git/LUFA/Drivers/USB/Core/AVR8/../AVR8/../AVR8/Endpoint_AVR8.h **** 			{
 3317               		.loc 2 540 26 view .LVU890
 3318               	.LBB415:
 542:./tmk_core/protocol/lufa/LUFA-git/LUFA/Drivers/USB/Core/AVR8/../AVR8/../AVR8/Endpoint_AVR8.h **** 			}
 3319               		.loc 2 542 5 view .LVU891
 542:./tmk_core/protocol/lufa/LUFA-git/LUFA/Drivers/USB/Core/AVR8/../AVR8/../AVR8/Endpoint_AVR8.h **** 			}
 3320               		.loc 2 542 12 is_stmt 0 view .LVU892
 3321 0052 8091 F100 		lds r24,241
 3322               	.LBE415:
 3323               	.LBE414:
  56:./tmk_core/protocol/lufa/LUFA-git/LUFA/Drivers/USB/Core/AVR8/Template/Template_Endpoint_Control_R.c **** 				TEMPLATE_BUFFER_MOVE(DataStream, 1);
 3324               		.loc 5 56 5 view .LVU893
 3325 0056 8083      		st Z,r24
  57:./tmk_core/protocol/lufa/LUFA-git/LUFA/Drivers/USB/Core/AVR8/Template/Template_Endpoint_Control_R.c **** 				Length--;
 3326               		.loc 5 57 5 is_stmt 1 view .LVU894
 3327 0058 3197      		sbiw r30,1
 3328               	.LVL274:
  58:./tmk_core/protocol/lufa/LUFA-git/LUFA/Drivers/USB/Core/AVR8/Template/Template_Endpoint_Control_R.c **** 			}
 3329               		.loc 5 58 5 view .LVU895
  58:./tmk_core/protocol/lufa/LUFA-git/LUFA/Drivers/USB/Core/AVR8/Template/Template_Endpoint_Control_R.c **** 			}
 3330               		.loc 5 58 11 is_stmt 0 view .LVU896
 3331 005a 2150      		subi r18,1
 3332 005c 3109      		sbc r19,__zero_reg__
 3333               	.LVL275:
  54:./tmk_core/protocol/lufa/LUFA-git/LUFA/Drivers/USB/Core/AVR8/Template/Template_Endpoint_Control_R.c **** 			{
 3334               		.loc 5 54 18 is_stmt 1 view .LVU897
 3335 005e 2115      		cp r18,__zero_reg__
 3336 0060 3105      		cpc r19,__zero_reg__
 3337 0062 01F4      		brne .L227
 3338 0064 00C0      		rjmp .L229
 3339               	.LVL276:
 3340               	.L232:
  54:./tmk_core/protocol/lufa/LUFA-git/LUFA/Drivers/USB/Core/AVR8/Template/Template_Endpoint_Control_R.c **** 			{
 3341               		.loc 5 54 18 is_stmt 0 view .LVU898
 3342               	.LBE418:
 3343               	.LBB419:
  67:./tmk_core/protocol/lufa/LUFA-git/LUFA/Drivers/USB/Core/AVR8/Template/Template_Endpoint_Control_R.c **** 
 3344               		.loc 5 67 3 is_stmt 1 view .LVU899
  67:./tmk_core/protocol/lufa/LUFA-git/LUFA/Drivers/USB/Core/AVR8/Template/Template_Endpoint_Control_R.c **** 
 3345               		.loc 5 67 11 is_stmt 0 view .LVU900
 3346 0066 8091 0000 		lds r24,USB_DeviceState
 3347               	.LVL277:
  69:./tmk_core/protocol/lufa/LUFA-git/LUFA/Drivers/USB/Core/AVR8/Template/Template_Endpoint_Control_R.c **** 		  return ENDPOINT_RWCSTREAM_DeviceDisconnected;
 3348               		.loc 5 69 3 is_stmt 1 view .LVU901
  69:./tmk_core/protocol/lufa/LUFA-git/LUFA/Drivers/USB/Core/AVR8/Template/Template_Endpoint_Control_R.c **** 		  return ENDPOINT_RWCSTREAM_DeviceDisconnected;
 3349               		.loc 5 69 6 is_stmt 0 view .LVU902
 3350 006a 8823      		tst r24
 3351 006c 01F0      		breq .L236
  71:./tmk_core/protocol/lufa/LUFA-git/LUFA/Drivers/USB/Core/AVR8/Template/Template_Endpoint_Control_R.c **** 		  return ENDPOINT_RWCSTREAM_BusSuspended;
 3352               		.loc 5 71 8 is_stmt 1 view .LVU903
  71:./tmk_core/protocol/lufa/LUFA-git/LUFA/Drivers/USB/Core/AVR8/Template/Template_Endpoint_Control_R.c **** 		  return ENDPOINT_RWCSTREAM_BusSuspended;
 3353               		.loc 5 71 11 is_stmt 0 view .LVU904
 3354 006e 8530      		cpi r24,lo8(5)
 3355 0070 01F4      		brne .L231
 3356               	.LVL278:
 3357               	.L237:
  71:./tmk_core/protocol/lufa/LUFA-git/LUFA/Drivers/USB/Core/AVR8/Template/Template_Endpoint_Control_R.c **** 		  return ENDPOINT_RWCSTREAM_BusSuspended;
 3358               		.loc 5 71 11 view .LVU905
 3359               	.LBE419:
 3360               	.LBB420:
  48:./tmk_core/protocol/lufa/LUFA-git/LUFA/Drivers/USB/Core/AVR8/Template/Template_Endpoint_Control_R.c **** 		else if (Endpoint_IsSETUPReceived())
 3361               		.loc 5 48 12 view .LVU906
 3362 0072 83E0      		ldi r24,lo8(3)
 3363               	/* epilogue start */
 3364               	.LBE420:
 3365               		.loc 5 76 1 view .LVU907
 3366 0074 0895      		ret
 3367               	.LVL279:
 3368               	.L235:
 3369               	.LBB421:
  50:./tmk_core/protocol/lufa/LUFA-git/LUFA/Drivers/USB/Core/AVR8/Template/Template_Endpoint_Control_R.c **** 
 3370               		.loc 5 50 12 view .LVU908
 3371 0076 81E0      		ldi r24,lo8(1)
 3372 0078 0895      		ret
 3373               	.LVL280:
 3374               	.L236:
  46:./tmk_core/protocol/lufa/LUFA-git/LUFA/Drivers/USB/Core/AVR8/Template/Template_Endpoint_Control_R.c **** 		else if (USB_DeviceState_LCL == DEVICE_STATE_Suspended)
 3375               		.loc 5 46 12 view .LVU909
 3376 007a 82E0      		ldi r24,lo8(2)
 3377 007c 0895      		ret
 3378               	.LBE421:
 3379               		.cfi_endproc
 3380               	.LFE104:
 3382               		.section	.text.Endpoint_Write_Control_PStream_LE,"ax",@progbits
 3383               	.global	Endpoint_Write_Control_PStream_LE
 3385               	Endpoint_Write_Control_PStream_LE:
 3386               	.LVL281:
 3387               	.LFB105:
  35:./tmk_core/protocol/lufa/LUFA-git/LUFA/Drivers/USB/Core/AVR8/Template/Template_Endpoint_Control_W.c **** 	uint8_t* DataStream     = ((uint8_t*)Buffer + TEMPLATE_BUFFER_OFFSET(Length));
 3388               		.loc 4 35 1 is_stmt 1 view -0
 3389               		.cfi_startproc
 3390               	/* prologue: function */
 3391               	/* frame size = 0 */
 3392               	/* stack size = 0 */
 3393               	.L__stack_usage = 0
  35:./tmk_core/protocol/lufa/LUFA-git/LUFA/Drivers/USB/Core/AVR8/Template/Template_Endpoint_Control_W.c **** 	uint8_t* DataStream     = ((uint8_t*)Buffer + TEMPLATE_BUFFER_OFFSET(Length));
 3394               		.loc 4 35 1 is_stmt 0 view .LVU911
 3395 0000 FC01      		movw r30,r24
 3396 0002 9B01      		movw r18,r22
  36:./tmk_core/protocol/lufa/LUFA-git/LUFA/Drivers/USB/Core/AVR8/Template/Template_Endpoint_Control_W.c **** 	bool     LastPacketFull = false;
 3397               		.loc 4 36 2 is_stmt 1 view .LVU912
 3398               	.LVL282:
  37:./tmk_core/protocol/lufa/LUFA-git/LUFA/Drivers/USB/Core/AVR8/Template/Template_Endpoint_Control_W.c **** 
 3399               		.loc 4 37 2 view .LVU913
  39:./tmk_core/protocol/lufa/LUFA-git/LUFA/Drivers/USB/Core/AVR8/Template/Template_Endpoint_Control_W.c **** 	  Length = USB_ControlRequest.wLength;
 3400               		.loc 4 39 2 view .LVU914
  39:./tmk_core/protocol/lufa/LUFA-git/LUFA/Drivers/USB/Core/AVR8/Template/Template_Endpoint_Control_W.c **** 	  Length = USB_ControlRequest.wLength;
 3401               		.loc 4 39 33 is_stmt 0 view .LVU915
 3402 0004 8091 0000 		lds r24,USB_ControlRequest+6
 3403 0008 9091 0000 		lds r25,USB_ControlRequest+6+1
 3404               	.LVL283:
  39:./tmk_core/protocol/lufa/LUFA-git/LUFA/Drivers/USB/Core/AVR8/Template/Template_Endpoint_Control_W.c **** 	  Length = USB_ControlRequest.wLength;
 3405               		.loc 4 39 5 view .LVU916
 3406 000c 8617      		cp r24,r22
 3407 000e 9707      		cpc r25,r23
 3408 0010 00F0      		brlo .L244
  41:./tmk_core/protocol/lufa/LUFA-git/LUFA/Drivers/USB/Core/AVR8/Template/Template_Endpoint_Control_W.c **** 	  Endpoint_ClearIN();
 3409               		.loc 4 41 7 is_stmt 1 view .LVU917
  41:./tmk_core/protocol/lufa/LUFA-git/LUFA/Drivers/USB/Core/AVR8/Template/Template_Endpoint_Control_W.c **** 	  Endpoint_ClearIN();
 3410               		.loc 4 41 10 is_stmt 0 view .LVU918
 3411 0012 672B      		or r22,r23
 3412 0014 01F0      		breq .L245
 3413               	.L246:
  35:./tmk_core/protocol/lufa/LUFA-git/LUFA/Drivers/USB/Core/AVR8/Template/Template_Endpoint_Control_W.c **** 	uint8_t* DataStream     = ((uint8_t*)Buffer + TEMPLATE_BUFFER_OFFSET(Length));
 3414               		.loc 4 35 1 view .LVU919
 3415 0016 C901      		movw r24,r18
 3416               	.LVL284:
 3417               	.L244:
  35:./tmk_core/protocol/lufa/LUFA-git/LUFA/Drivers/USB/Core/AVR8/Template/Template_Endpoint_Control_W.c **** 	uint8_t* DataStream     = ((uint8_t*)Buffer + TEMPLATE_BUFFER_OFFSET(Length));
 3418               		.loc 4 35 1 view .LVU920
 3419 0018 40E0      		ldi r20,0
 3420               	.LVL285:
 3421               	.L250:
  44:./tmk_core/protocol/lufa/LUFA-git/LUFA/Drivers/USB/Core/AVR8/Template/Template_Endpoint_Control_W.c **** 	{
 3422               		.loc 4 44 16 is_stmt 1 view .LVU921
 3423 001a 0097      		sbiw r24,0
 3424 001c 01F4      		brne .L255
  44:./tmk_core/protocol/lufa/LUFA-git/LUFA/Drivers/USB/Core/AVR8/Template/Template_Endpoint_Control_W.c **** 	{
 3425               		.loc 4 44 16 is_stmt 0 discriminator 1 view .LVU922
 3426 001e 4111      		cpse r20,__zero_reg__
 3427 0020 00C0      		rjmp .L255
 3428               	.LVL286:
 3429               	.L268:
  74:./tmk_core/protocol/lufa/LUFA-git/LUFA/Drivers/USB/Core/AVR8/Template/Template_Endpoint_Control_W.c **** 	{
 3430               		.loc 4 74 9 is_stmt 1 view .LVU923
 3431               	.LBB422:
 3432               	.LBI422:
 417:./tmk_core/protocol/lufa/LUFA-git/LUFA/Drivers/USB/Core/AVR8/../AVR8/../AVR8/Endpoint_AVR8.h **** 			{
 3433               		.loc 2 417 23 view .LVU924
 3434               	.LBB423:
 419:./tmk_core/protocol/lufa/LUFA-git/LUFA/Drivers/USB/Core/AVR8/../AVR8/../AVR8/Endpoint_AVR8.h **** 			}
 3435               		.loc 2 419 5 view .LVU925
 419:./tmk_core/protocol/lufa/LUFA-git/LUFA/Drivers/USB/Core/AVR8/../AVR8/../AVR8/Endpoint_AVR8.h **** 			}
 3436               		.loc 2 419 14 is_stmt 0 view .LVU926
 3437 0022 8091 E800 		lds r24,232
 3438               	.LBE423:
 3439               	.LBE422:
  74:./tmk_core/protocol/lufa/LUFA-git/LUFA/Drivers/USB/Core/AVR8/Template/Template_Endpoint_Control_W.c **** 	{
 3440               		.loc 4 74 9 view .LVU927
 3441 0026 82FF      		sbrs r24,2
 3442 0028 00C0      		rjmp .L256
  86:./tmk_core/protocol/lufa/LUFA-git/LUFA/Drivers/USB/Core/AVR8/Template/Template_Endpoint_Control_W.c **** }
 3443               		.loc 4 86 9 view .LVU928
 3444 002a 80E0      		ldi r24,0
 3445 002c 0895      		ret
 3446               	.LVL287:
 3447               	.L245:
  42:./tmk_core/protocol/lufa/LUFA-git/LUFA/Drivers/USB/Core/AVR8/Template/Template_Endpoint_Control_W.c **** 
 3448               		.loc 4 42 4 is_stmt 1 view .LVU929
 3449               	.LBB424:
 3450               	.LBI424:
 453:./tmk_core/protocol/lufa/LUFA-git/LUFA/Drivers/USB/Core/AVR8/../AVR8/../AVR8/Endpoint_AVR8.h **** 			{
 3451               		.loc 2 453 23 view .LVU930
 3452               	.LBB425:
 456:./tmk_core/protocol/lufa/LUFA-git/LUFA/Drivers/USB/Core/AVR8/../AVR8/../AVR8/Endpoint_AVR8.h **** 				#else
 3453               		.loc 2 456 6 view .LVU931
 456:./tmk_core/protocol/lufa/LUFA-git/LUFA/Drivers/USB/Core/AVR8/../AVR8/../AVR8/Endpoint_AVR8.h **** 				#else
 3454               		.loc 2 456 13 is_stmt 0 view .LVU932
 3455 002e 8091 E800 		lds r24,232
 3456 0032 8E77      		andi r24,lo8(126)
 3457 0034 8093 E800 		sts 232,r24
 460:./tmk_core/protocol/lufa/LUFA-git/LUFA/Drivers/USB/Core/AVR8/../AVR8/../AVR8/Endpoint_AVR8.h **** 
 3458               		.loc 2 460 4 view .LVU933
 3459 0038 00C0      		rjmp .L246
 3460               	.LVL288:
 3461               	.L255:
 460:./tmk_core/protocol/lufa/LUFA-git/LUFA/Drivers/USB/Core/AVR8/../AVR8/../AVR8/Endpoint_AVR8.h **** 
 3462               		.loc 2 460 4 view .LVU934
 3463               	.LBE425:
 3464               	.LBE424:
 3465               	.LBB426:
  46:./tmk_core/protocol/lufa/LUFA-git/LUFA/Drivers/USB/Core/AVR8/Template/Template_Endpoint_Control_W.c **** 
 3466               		.loc 4 46 3 is_stmt 1 view .LVU935
  46:./tmk_core/protocol/lufa/LUFA-git/LUFA/Drivers/USB/Core/AVR8/Template/Template_Endpoint_Control_W.c **** 
 3467               		.loc 4 46 11 is_stmt 0 view .LVU936
 3468 003a 2091 0000 		lds r18,USB_DeviceState
 3469               	.LVL289:
  48:./tmk_core/protocol/lufa/LUFA-git/LUFA/Drivers/USB/Core/AVR8/Template/Template_Endpoint_Control_W.c **** 		  return ENDPOINT_RWCSTREAM_DeviceDisconnected;
 3470               		.loc 4 48 3 is_stmt 1 view .LVU937
  48:./tmk_core/protocol/lufa/LUFA-git/LUFA/Drivers/USB/Core/AVR8/Template/Template_Endpoint_Control_W.c **** 		  return ENDPOINT_RWCSTREAM_DeviceDisconnected;
 3471               		.loc 4 48 6 is_stmt 0 view .LVU938
 3472 003e 2223      		tst r18
 3473 0040 01F0      		breq .L260
  50:./tmk_core/protocol/lufa/LUFA-git/LUFA/Drivers/USB/Core/AVR8/Template/Template_Endpoint_Control_W.c **** 		  return ENDPOINT_RWCSTREAM_BusSuspended;
 3474               		.loc 4 50 8 is_stmt 1 view .LVU939
  50:./tmk_core/protocol/lufa/LUFA-git/LUFA/Drivers/USB/Core/AVR8/Template/Template_Endpoint_Control_W.c **** 		  return ENDPOINT_RWCSTREAM_BusSuspended;
 3475               		.loc 4 50 11 is_stmt 0 view .LVU940
 3476 0042 2530      		cpi r18,lo8(5)
 3477 0044 01F0      		breq .L261
  52:./tmk_core/protocol/lufa/LUFA-git/LUFA/Drivers/USB/Core/AVR8/Template/Template_Endpoint_Control_W.c **** 		  return ENDPOINT_RWCSTREAM_HostAborted;
 3478               		.loc 4 52 8 is_stmt 1 view .LVU941
 3479               	.LBB427:
 3480               	.LBI427:
 429:./tmk_core/protocol/lufa/LUFA-git/LUFA/Drivers/USB/Core/AVR8/../AVR8/../AVR8/Endpoint_AVR8.h **** 			{
 3481               		.loc 2 429 23 view .LVU942
 3482               	.LBB428:
 431:./tmk_core/protocol/lufa/LUFA-git/LUFA/Drivers/USB/Core/AVR8/../AVR8/../AVR8/Endpoint_AVR8.h **** 			}
 3483               		.loc 2 431 5 view .LVU943
 431:./tmk_core/protocol/lufa/LUFA-git/LUFA/Drivers/USB/Core/AVR8/../AVR8/../AVR8/Endpoint_AVR8.h **** 			}
 3484               		.loc 2 431 14 is_stmt 0 view .LVU944
 3485 0046 2091 E800 		lds r18,232
 3486               	.LVL290:
 431:./tmk_core/protocol/lufa/LUFA-git/LUFA/Drivers/USB/Core/AVR8/../AVR8/../AVR8/Endpoint_AVR8.h **** 			}
 3487               		.loc 2 431 14 view .LVU945
 3488               	.LBE428:
 3489               	.LBE427:
  52:./tmk_core/protocol/lufa/LUFA-git/LUFA/Drivers/USB/Core/AVR8/Template/Template_Endpoint_Control_W.c **** 		  return ENDPOINT_RWCSTREAM_HostAborted;
 3490               		.loc 4 52 11 view .LVU946
 3491 004a 23FD      		sbrc r18,3
 3492 004c 00C0      		rjmp .L262
  54:./tmk_core/protocol/lufa/LUFA-git/LUFA/Drivers/USB/Core/AVR8/Template/Template_Endpoint_Control_W.c **** 		  break;
 3493               		.loc 4 54 8 is_stmt 1 view .LVU947
 3494               	.LBB429:
 3495               	.LBI429:
 417:./tmk_core/protocol/lufa/LUFA-git/LUFA/Drivers/USB/Core/AVR8/../AVR8/../AVR8/Endpoint_AVR8.h **** 			{
 3496               		.loc 2 417 23 view .LVU948
 3497               	.LBB430:
 419:./tmk_core/protocol/lufa/LUFA-git/LUFA/Drivers/USB/Core/AVR8/../AVR8/../AVR8/Endpoint_AVR8.h **** 			}
 3498               		.loc 2 419 5 view .LVU949
 419:./tmk_core/protocol/lufa/LUFA-git/LUFA/Drivers/USB/Core/AVR8/../AVR8/../AVR8/Endpoint_AVR8.h **** 			}
 3499               		.loc 2 419 14 is_stmt 0 view .LVU950
 3500 004e 2091 E800 		lds r18,232
 3501               	.LBE430:
 3502               	.LBE429:
  54:./tmk_core/protocol/lufa/LUFA-git/LUFA/Drivers/USB/Core/AVR8/Template/Template_Endpoint_Control_W.c **** 		  break;
 3503               		.loc 4 54 11 view .LVU951
 3504 0052 22FD      		sbrc r18,2
 3505 0054 00C0      		rjmp .L268
  57:./tmk_core/protocol/lufa/LUFA-git/LUFA/Drivers/USB/Core/AVR8/Template/Template_Endpoint_Control_W.c **** 		{
 3506               		.loc 4 57 3 is_stmt 1 view .LVU952
 3507               	.LBB431:
 3508               	.LBI431:
 405:./tmk_core/protocol/lufa/LUFA-git/LUFA/Drivers/USB/Core/AVR8/../AVR8/../AVR8/Endpoint_AVR8.h **** 			{
 3509               		.loc 2 405 23 view .LVU953
 3510               	.LBB432:
 407:./tmk_core/protocol/lufa/LUFA-git/LUFA/Drivers/USB/Core/AVR8/../AVR8/../AVR8/Endpoint_AVR8.h **** 			}
 3511               		.loc 2 407 5 view .LVU954
 407:./tmk_core/protocol/lufa/LUFA-git/LUFA/Drivers/USB/Core/AVR8/../AVR8/../AVR8/Endpoint_AVR8.h **** 			}
 3512               		.loc 2 407 14 is_stmt 0 view .LVU955
 3513 0056 2091 E800 		lds r18,232
 3514               	.LBE432:
 3515               	.LBE431:
  57:./tmk_core/protocol/lufa/LUFA-git/LUFA/Drivers/USB/Core/AVR8/Template/Template_Endpoint_Control_W.c **** 		{
 3516               		.loc 4 57 6 view .LVU956
 3517 005a 20FF      		sbrs r18,0
 3518 005c 00C0      		rjmp .L250
 3519               	.LBB433:
  59:./tmk_core/protocol/lufa/LUFA-git/LUFA/Drivers/USB/Core/AVR8/Template/Template_Endpoint_Control_W.c **** 
 3520               		.loc 4 59 4 is_stmt 1 view .LVU957
 3521               	.LBB434:
 3522               	.LBI434:
 222:./tmk_core/protocol/lufa/LUFA-git/LUFA/Drivers/USB/Core/AVR8/../AVR8/../AVR8/Endpoint_AVR8.h **** 			{
 3523               		.loc 2 222 27 view .LVU958
 3524               	.LBB435:
 225:./tmk_core/protocol/lufa/LUFA-git/LUFA/Drivers/USB/Core/AVR8/../AVR8/../AVR8/Endpoint_AVR8.h **** 				#elif defined(USB_SERIES_4_AVR)
 3525               		.loc 2 225 6 view .LVU959
 225:./tmk_core/protocol/lufa/LUFA-git/LUFA/Drivers/USB/Core/AVR8/../AVR8/../AVR8/Endpoint_AVR8.h **** 				#elif defined(USB_SERIES_4_AVR)
 3526               		.loc 2 225 13 is_stmt 0 view .LVU960
 3527 005e 2091 F200 		lds r18,242
 3528 0062 3091 F300 		lds r19,242+1
 3529               	.LVL291:
 225:./tmk_core/protocol/lufa/LUFA-git/LUFA/Drivers/USB/Core/AVR8/../AVR8/../AVR8/Endpoint_AVR8.h **** 				#elif defined(USB_SERIES_4_AVR)
 3530               		.loc 2 225 13 view .LVU961
 3531               	.LBE435:
 3532               	.LBE434:
  61:./tmk_core/protocol/lufa/LUFA-git/LUFA/Drivers/USB/Core/AVR8/Template/Template_Endpoint_Control_W.c **** 			{
 3533               		.loc 4 61 4 is_stmt 1 view .LVU962
 3534               	.L251:
  61:./tmk_core/protocol/lufa/LUFA-git/LUFA/Drivers/USB/Core/AVR8/Template/Template_Endpoint_Control_W.c **** 			{
 3535               		.loc 4 61 18 view .LVU963
 3536 0066 0097      		sbiw r24,0
 3537 0068 01F0      		breq .L252
  61:./tmk_core/protocol/lufa/LUFA-git/LUFA/Drivers/USB/Core/AVR8/Template/Template_Endpoint_Control_W.c **** 			{
 3538               		.loc 4 61 18 is_stmt 0 discriminator 1 view .LVU964
 3539 006a 2830      		cpi r18,8
 3540 006c 3105      		cpc r19,__zero_reg__
 3541 006e 00F0      		brlo .L253
 3542               	.L252:
  69:./tmk_core/protocol/lufa/LUFA-git/LUFA/Drivers/USB/Core/AVR8/Template/Template_Endpoint_Control_W.c **** 			Endpoint_ClearIN();
 3543               		.loc 4 69 4 is_stmt 1 view .LVU965
  69:./tmk_core/protocol/lufa/LUFA-git/LUFA/Drivers/USB/Core/AVR8/Template/Template_Endpoint_Control_W.c **** 			Endpoint_ClearIN();
 3544               		.loc 4 69 19 is_stmt 0 view .LVU966
 3545 0070 41E0      		ldi r20,lo8(1)
 3546 0072 2830      		cpi r18,8
 3547 0074 3105      		cpc r19,__zero_reg__
 3548 0076 01F0      		breq .L254
 3549 0078 40E0      		ldi r20,0
 3550               	.L254:
 3551               	.LVL292:
  70:./tmk_core/protocol/lufa/LUFA-git/LUFA/Drivers/USB/Core/AVR8/Template/Template_Endpoint_Control_W.c **** 		}
 3552               		.loc 4 70 4 is_stmt 1 view .LVU967
 3553               	.LBB436:
 3554               	.LBI436:
 453:./tmk_core/protocol/lufa/LUFA-git/LUFA/Drivers/USB/Core/AVR8/../AVR8/../AVR8/Endpoint_AVR8.h **** 			{
 3555               		.loc 2 453 23 view .LVU968
 3556               	.LBB437:
 456:./tmk_core/protocol/lufa/LUFA-git/LUFA/Drivers/USB/Core/AVR8/../AVR8/../AVR8/Endpoint_AVR8.h **** 				#else
 3557               		.loc 2 456 6 view .LVU969
 456:./tmk_core/protocol/lufa/LUFA-git/LUFA/Drivers/USB/Core/AVR8/../AVR8/../AVR8/Endpoint_AVR8.h **** 				#else
 3558               		.loc 2 456 13 is_stmt 0 view .LVU970
 3559 007a 2091 E800 		lds r18,232
 3560               	.LVL293:
 456:./tmk_core/protocol/lufa/LUFA-git/LUFA/Drivers/USB/Core/AVR8/../AVR8/../AVR8/Endpoint_AVR8.h **** 				#else
 3561               		.loc 2 456 13 view .LVU971
 3562 007e 2E77      		andi r18,lo8(126)
 3563 0080 2093 E800 		sts 232,r18
 3564               	.LVL294:
 460:./tmk_core/protocol/lufa/LUFA-git/LUFA/Drivers/USB/Core/AVR8/../AVR8/../AVR8/Endpoint_AVR8.h **** 
 3565               		.loc 2 460 4 view .LVU972
 3566 0084 00C0      		rjmp .L250
 3567               	.LVL295:
 3568               	.L253:
 460:./tmk_core/protocol/lufa/LUFA-git/LUFA/Drivers/USB/Core/AVR8/../AVR8/../AVR8/Endpoint_AVR8.h **** 
 3569               		.loc 2 460 4 view .LVU973
 3570               	.LBE437:
 3571               	.LBE436:
  63:./tmk_core/protocol/lufa/LUFA-git/LUFA/Drivers/USB/Core/AVR8/Template/Template_Endpoint_Control_W.c **** 				TEMPLATE_BUFFER_MOVE(DataStream, 1);
 3572               		.loc 4 63 5 is_stmt 1 view .LVU974
 3573               	.LBB438:
  63:./tmk_core/protocol/lufa/LUFA-git/LUFA/Drivers/USB/Core/AVR8/Template/Template_Endpoint_Control_W.c **** 				TEMPLATE_BUFFER_MOVE(DataStream, 1);
 3574               		.loc 4 63 5 view .LVU975
  63:./tmk_core/protocol/lufa/LUFA-git/LUFA/Drivers/USB/Core/AVR8/Template/Template_Endpoint_Control_W.c **** 				TEMPLATE_BUFFER_MOVE(DataStream, 1);
 3575               		.loc 4 63 5 view .LVU976
  63:./tmk_core/protocol/lufa/LUFA-git/LUFA/Drivers/USB/Core/AVR8/Template/Template_Endpoint_Control_W.c **** 				TEMPLATE_BUFFER_MOVE(DataStream, 1);
 3576               		.loc 4 63 5 view .LVU977
 3577               	/* #APP */
 3578               	 ;  63 "./tmk_core/protocol/lufa/LUFA-git/LUFA/Drivers/USB/Core/AVR8/Template/Template_Endpoint_Con
 3579 0086 4491      		lpm r20, Z
 3580               		
 3581               	 ;  0 "" 2
 3582               	.LVL296:
  63:./tmk_core/protocol/lufa/LUFA-git/LUFA/Drivers/USB/Core/AVR8/Template/Template_Endpoint_Control_W.c **** 				TEMPLATE_BUFFER_MOVE(DataStream, 1);
 3583               		.loc 4 63 5 view .LVU978
  63:./tmk_core/protocol/lufa/LUFA-git/LUFA/Drivers/USB/Core/AVR8/Template/Template_Endpoint_Control_W.c **** 				TEMPLATE_BUFFER_MOVE(DataStream, 1);
 3584               		.loc 4 63 5 is_stmt 0 view .LVU979
 3585               	/* #NOAPP */
 3586               	.LBE438:
 3587               	.LBB439:
 3588               	.LBI439:
 552:./tmk_core/protocol/lufa/LUFA-git/LUFA/Drivers/USB/Core/AVR8/../AVR8/../AVR8/Endpoint_AVR8.h **** 			{
 3589               		.loc 2 552 23 is_stmt 1 view .LVU980
 3590               	.LBB440:
 554:./tmk_core/protocol/lufa/LUFA-git/LUFA/Drivers/USB/Core/AVR8/../AVR8/../AVR8/Endpoint_AVR8.h **** 			}
 3591               		.loc 2 554 5 view .LVU981
 554:./tmk_core/protocol/lufa/LUFA-git/LUFA/Drivers/USB/Core/AVR8/../AVR8/../AVR8/Endpoint_AVR8.h **** 			}
 3592               		.loc 2 554 12 is_stmt 0 view .LVU982
 3593 0088 4093 F100 		sts 241,r20
 3594               	.LVL297:
 554:./tmk_core/protocol/lufa/LUFA-git/LUFA/Drivers/USB/Core/AVR8/../AVR8/../AVR8/Endpoint_AVR8.h **** 			}
 3595               		.loc 2 554 12 view .LVU983
 3596               	.LBE440:
 3597               	.LBE439:
  64:./tmk_core/protocol/lufa/LUFA-git/LUFA/Drivers/USB/Core/AVR8/Template/Template_Endpoint_Control_W.c **** 				Length--;
 3598               		.loc 4 64 5 is_stmt 1 view .LVU984
 3599 008c 3196      		adiw r30,1
 3600               	.LVL298:
  65:./tmk_core/protocol/lufa/LUFA-git/LUFA/Drivers/USB/Core/AVR8/Template/Template_Endpoint_Control_W.c **** 				BytesInEndpoint++;
 3601               		.loc 4 65 5 view .LVU985
  65:./tmk_core/protocol/lufa/LUFA-git/LUFA/Drivers/USB/Core/AVR8/Template/Template_Endpoint_Control_W.c **** 				BytesInEndpoint++;
 3602               		.loc 4 65 11 is_stmt 0 view .LVU986
 3603 008e 0197      		sbiw r24,1
 3604               	.LVL299:
  66:./tmk_core/protocol/lufa/LUFA-git/LUFA/Drivers/USB/Core/AVR8/Template/Template_Endpoint_Control_W.c **** 			}
 3605               		.loc 4 66 5 is_stmt 1 view .LVU987
  66:./tmk_core/protocol/lufa/LUFA-git/LUFA/Drivers/USB/Core/AVR8/Template/Template_Endpoint_Control_W.c **** 			}
 3606               		.loc 4 66 20 is_stmt 0 view .LVU988
 3607 0090 2F5F      		subi r18,-1
 3608 0092 3F4F      		sbci r19,-1
 3609               	.LVL300:
  66:./tmk_core/protocol/lufa/LUFA-git/LUFA/Drivers/USB/Core/AVR8/Template/Template_Endpoint_Control_W.c **** 			}
 3610               		.loc 4 66 20 view .LVU989
 3611 0094 00C0      		rjmp .L251
 3612               	.LVL301:
 3613               	.L256:
  66:./tmk_core/protocol/lufa/LUFA-git/LUFA/Drivers/USB/Core/AVR8/Template/Template_Endpoint_Control_W.c **** 			}
 3614               		.loc 4 66 20 view .LVU990
 3615               	.LBE433:
 3616               	.LBE426:
 3617               	.LBB441:
  76:./tmk_core/protocol/lufa/LUFA-git/LUFA/Drivers/USB/Core/AVR8/Template/Template_Endpoint_Control_W.c **** 
 3618               		.loc 4 76 3 is_stmt 1 view .LVU991
  76:./tmk_core/protocol/lufa/LUFA-git/LUFA/Drivers/USB/Core/AVR8/Template/Template_Endpoint_Control_W.c **** 
 3619               		.loc 4 76 11 is_stmt 0 view .LVU992
 3620 0096 8091 0000 		lds r24,USB_DeviceState
 3621               	.LVL302:
  78:./tmk_core/protocol/lufa/LUFA-git/LUFA/Drivers/USB/Core/AVR8/Template/Template_Endpoint_Control_W.c **** 		  return ENDPOINT_RWCSTREAM_DeviceDisconnected;
 3622               		.loc 4 78 3 is_stmt 1 view .LVU993
  78:./tmk_core/protocol/lufa/LUFA-git/LUFA/Drivers/USB/Core/AVR8/Template/Template_Endpoint_Control_W.c **** 		  return ENDPOINT_RWCSTREAM_DeviceDisconnected;
 3623               		.loc 4 78 6 is_stmt 0 view .LVU994
 3624 009a 8823      		tst r24
 3625 009c 01F0      		breq .L260
  80:./tmk_core/protocol/lufa/LUFA-git/LUFA/Drivers/USB/Core/AVR8/Template/Template_Endpoint_Control_W.c **** 		  return ENDPOINT_RWCSTREAM_BusSuspended;
 3626               		.loc 4 80 8 is_stmt 1 view .LVU995
  80:./tmk_core/protocol/lufa/LUFA-git/LUFA/Drivers/USB/Core/AVR8/Template/Template_Endpoint_Control_W.c **** 		  return ENDPOINT_RWCSTREAM_BusSuspended;
 3627               		.loc 4 80 11 is_stmt 0 view .LVU996
 3628 009e 8530      		cpi r24,lo8(5)
 3629 00a0 01F0      		breq .L261
  82:./tmk_core/protocol/lufa/LUFA-git/LUFA/Drivers/USB/Core/AVR8/Template/Template_Endpoint_Control_W.c **** 		  return ENDPOINT_RWCSTREAM_HostAborted;
 3630               		.loc 4 82 8 is_stmt 1 view .LVU997
 3631               	.LBB442:
 3632               	.LBI442:
 429:./tmk_core/protocol/lufa/LUFA-git/LUFA/Drivers/USB/Core/AVR8/../AVR8/../AVR8/Endpoint_AVR8.h **** 			{
 3633               		.loc 2 429 23 view .LVU998
 3634               	.LBB443:
 431:./tmk_core/protocol/lufa/LUFA-git/LUFA/Drivers/USB/Core/AVR8/../AVR8/../AVR8/Endpoint_AVR8.h **** 			}
 3635               		.loc 2 431 5 view .LVU999
 431:./tmk_core/protocol/lufa/LUFA-git/LUFA/Drivers/USB/Core/AVR8/../AVR8/../AVR8/Endpoint_AVR8.h **** 			}
 3636               		.loc 2 431 14 is_stmt 0 view .LVU1000
 3637 00a2 8091 E800 		lds r24,232
 3638               	.LVL303:
 431:./tmk_core/protocol/lufa/LUFA-git/LUFA/Drivers/USB/Core/AVR8/../AVR8/../AVR8/Endpoint_AVR8.h **** 			}
 3639               		.loc 2 431 14 view .LVU1001
 3640               	.LBE443:
 3641               	.LBE442:
  82:./tmk_core/protocol/lufa/LUFA-git/LUFA/Drivers/USB/Core/AVR8/Template/Template_Endpoint_Control_W.c **** 		  return ENDPOINT_RWCSTREAM_HostAborted;
 3642               		.loc 4 82 11 view .LVU1002
 3643 00a6 83FF      		sbrs r24,3
 3644 00a8 00C0      		rjmp .L268
 3645               	.LVL304:
 3646               	.L262:
  82:./tmk_core/protocol/lufa/LUFA-git/LUFA/Drivers/USB/Core/AVR8/Template/Template_Endpoint_Control_W.c **** 		  return ENDPOINT_RWCSTREAM_HostAborted;
 3647               		.loc 4 82 11 view .LVU1003
 3648               	.LBE441:
 3649               	.LBB444:
  53:./tmk_core/protocol/lufa/LUFA-git/LUFA/Drivers/USB/Core/AVR8/Template/Template_Endpoint_Control_W.c **** 		else if (Endpoint_IsOUTReceived())
 3650               		.loc 4 53 12 view .LVU1004
 3651 00aa 81E0      		ldi r24,lo8(1)
 3652               	/* epilogue start */
 3653               	.LBE444:
 3654               		.loc 4 87 1 view .LVU1005
 3655 00ac 0895      		ret
 3656               	.L260:
 3657               	.LBB445:
  49:./tmk_core/protocol/lufa/LUFA-git/LUFA/Drivers/USB/Core/AVR8/Template/Template_Endpoint_Control_W.c **** 		else if (USB_DeviceState_LCL == DEVICE_STATE_Suspended)
 3658               		.loc 4 49 12 view .LVU1006
 3659 00ae 82E0      		ldi r24,lo8(2)
 3660 00b0 0895      		ret
 3661               	.L261:
  51:./tmk_core/protocol/lufa/LUFA-git/LUFA/Drivers/USB/Core/AVR8/Template/Template_Endpoint_Control_W.c **** 		else if (Endpoint_IsSETUPReceived())
 3662               		.loc 4 51 12 view .LVU1007
 3663 00b2 83E0      		ldi r24,lo8(3)
 3664 00b4 0895      		ret
 3665               	.LBE445:
 3666               		.cfi_endproc
 3667               	.LFE105:
 3669               		.section	.text.Endpoint_Write_Control_PStream_BE,"ax",@progbits
 3670               	.global	Endpoint_Write_Control_PStream_BE
 3672               	Endpoint_Write_Control_PStream_BE:
 3673               	.LVL305:
 3674               	.LFB106:
  35:./tmk_core/protocol/lufa/LUFA-git/LUFA/Drivers/USB/Core/AVR8/Template/Template_Endpoint_Control_W.c **** 	uint8_t* DataStream     = ((uint8_t*)Buffer + TEMPLATE_BUFFER_OFFSET(Length));
 3675               		.loc 4 35 1 is_stmt 1 view -0
 3676               		.cfi_startproc
 3677               	/* prologue: function */
 3678               	/* frame size = 0 */
 3679               	/* stack size = 0 */
 3680               	.L__stack_usage = 0
  35:./tmk_core/protocol/lufa/LUFA-git/LUFA/Drivers/USB/Core/AVR8/Template/Template_Endpoint_Control_W.c **** 	uint8_t* DataStream     = ((uint8_t*)Buffer + TEMPLATE_BUFFER_OFFSET(Length));
 3681               		.loc 4 35 1 is_stmt 0 view .LVU1009
 3682 0000 AB01      		movw r20,r22
  36:./tmk_core/protocol/lufa/LUFA-git/LUFA/Drivers/USB/Core/AVR8/Template/Template_Endpoint_Control_W.c **** 	bool     LastPacketFull = false;
 3683               		.loc 4 36 2 is_stmt 1 view .LVU1010
  36:./tmk_core/protocol/lufa/LUFA-git/LUFA/Drivers/USB/Core/AVR8/Template/Template_Endpoint_Control_W.c **** 	bool     LastPacketFull = false;
 3684               		.loc 4 36 46 is_stmt 0 view .LVU1011
 3685 0002 FB01      		movw r30,r22
 3686 0004 3197      		sbiw r30,1
  36:./tmk_core/protocol/lufa/LUFA-git/LUFA/Drivers/USB/Core/AVR8/Template/Template_Endpoint_Control_W.c **** 	bool     LastPacketFull = false;
 3687               		.loc 4 36 11 view .LVU1012
 3688 0006 E80F      		add r30,r24
 3689 0008 F91F      		adc r31,r25
 3690               	.LVL306:
  37:./tmk_core/protocol/lufa/LUFA-git/LUFA/Drivers/USB/Core/AVR8/Template/Template_Endpoint_Control_W.c **** 
 3691               		.loc 4 37 2 is_stmt 1 view .LVU1013
  39:./tmk_core/protocol/lufa/LUFA-git/LUFA/Drivers/USB/Core/AVR8/Template/Template_Endpoint_Control_W.c **** 	  Length = USB_ControlRequest.wLength;
 3692               		.loc 4 39 2 view .LVU1014
  39:./tmk_core/protocol/lufa/LUFA-git/LUFA/Drivers/USB/Core/AVR8/Template/Template_Endpoint_Control_W.c **** 	  Length = USB_ControlRequest.wLength;
 3693               		.loc 4 39 33 is_stmt 0 view .LVU1015
 3694 000a 2091 0000 		lds r18,USB_ControlRequest+6
 3695 000e 3091 0000 		lds r19,USB_ControlRequest+6+1
  39:./tmk_core/protocol/lufa/LUFA-git/LUFA/Drivers/USB/Core/AVR8/Template/Template_Endpoint_Control_W.c **** 	  Length = USB_ControlRequest.wLength;
 3696               		.loc 4 39 5 view .LVU1016
 3697 0012 2617      		cp r18,r22
 3698 0014 3707      		cpc r19,r23
 3699 0016 00F0      		brlo .L273
  41:./tmk_core/protocol/lufa/LUFA-git/LUFA/Drivers/USB/Core/AVR8/Template/Template_Endpoint_Control_W.c **** 	  Endpoint_ClearIN();
 3700               		.loc 4 41 7 is_stmt 1 view .LVU1017
  41:./tmk_core/protocol/lufa/LUFA-git/LUFA/Drivers/USB/Core/AVR8/Template/Template_Endpoint_Control_W.c **** 	  Endpoint_ClearIN();
 3701               		.loc 4 41 10 is_stmt 0 view .LVU1018
 3702 0018 672B      		or r22,r23
 3703 001a 01F0      		breq .L274
 3704               	.LVL307:
 3705               	.L275:
  35:./tmk_core/protocol/lufa/LUFA-git/LUFA/Drivers/USB/Core/AVR8/Template/Template_Endpoint_Control_W.c **** 	uint8_t* DataStream     = ((uint8_t*)Buffer + TEMPLATE_BUFFER_OFFSET(Length));
 3706               		.loc 4 35 1 view .LVU1019
 3707 001c 9A01      		movw r18,r20
 3708               	.LVL308:
 3709               	.L273:
  35:./tmk_core/protocol/lufa/LUFA-git/LUFA/Drivers/USB/Core/AVR8/Template/Template_Endpoint_Control_W.c **** 	uint8_t* DataStream     = ((uint8_t*)Buffer + TEMPLATE_BUFFER_OFFSET(Length));
 3710               		.loc 4 35 1 view .LVU1020
 3711 001e 40E0      		ldi r20,0
 3712               	.LVL309:
 3713               	.L279:
  44:./tmk_core/protocol/lufa/LUFA-git/LUFA/Drivers/USB/Core/AVR8/Template/Template_Endpoint_Control_W.c **** 	{
 3714               		.loc 4 44 16 is_stmt 1 view .LVU1021
 3715 0020 2115      		cp r18,__zero_reg__
 3716 0022 3105      		cpc r19,__zero_reg__
 3717 0024 01F4      		brne .L284
  44:./tmk_core/protocol/lufa/LUFA-git/LUFA/Drivers/USB/Core/AVR8/Template/Template_Endpoint_Control_W.c **** 	{
 3718               		.loc 4 44 16 is_stmt 0 discriminator 1 view .LVU1022
 3719 0026 4111      		cpse r20,__zero_reg__
 3720 0028 00C0      		rjmp .L284
 3721               	.L297:
  74:./tmk_core/protocol/lufa/LUFA-git/LUFA/Drivers/USB/Core/AVR8/Template/Template_Endpoint_Control_W.c **** 	{
 3722               		.loc 4 74 9 is_stmt 1 view .LVU1023
 3723               	.LBB446:
 3724               	.LBI446:
 417:./tmk_core/protocol/lufa/LUFA-git/LUFA/Drivers/USB/Core/AVR8/../AVR8/../AVR8/Endpoint_AVR8.h **** 			{
 3725               		.loc 2 417 23 view .LVU1024
 3726               	.LBB447:
 419:./tmk_core/protocol/lufa/LUFA-git/LUFA/Drivers/USB/Core/AVR8/../AVR8/../AVR8/Endpoint_AVR8.h **** 			}
 3727               		.loc 2 419 5 view .LVU1025
 419:./tmk_core/protocol/lufa/LUFA-git/LUFA/Drivers/USB/Core/AVR8/../AVR8/../AVR8/Endpoint_AVR8.h **** 			}
 3728               		.loc 2 419 14 is_stmt 0 view .LVU1026
 3729 002a 8091 E800 		lds r24,232
 3730               	.LBE447:
 3731               	.LBE446:
  74:./tmk_core/protocol/lufa/LUFA-git/LUFA/Drivers/USB/Core/AVR8/Template/Template_Endpoint_Control_W.c **** 	{
 3732               		.loc 4 74 9 view .LVU1027
 3733 002e 82FF      		sbrs r24,2
 3734 0030 00C0      		rjmp .L285
  86:./tmk_core/protocol/lufa/LUFA-git/LUFA/Drivers/USB/Core/AVR8/Template/Template_Endpoint_Control_W.c **** }
 3735               		.loc 4 86 9 view .LVU1028
 3736 0032 80E0      		ldi r24,0
 3737 0034 0895      		ret
 3738               	.LVL310:
 3739               	.L274:
  42:./tmk_core/protocol/lufa/LUFA-git/LUFA/Drivers/USB/Core/AVR8/Template/Template_Endpoint_Control_W.c **** 
 3740               		.loc 4 42 4 is_stmt 1 view .LVU1029
 3741               	.LBB448:
 3742               	.LBI448:
 453:./tmk_core/protocol/lufa/LUFA-git/LUFA/Drivers/USB/Core/AVR8/../AVR8/../AVR8/Endpoint_AVR8.h **** 			{
 3743               		.loc 2 453 23 view .LVU1030
 3744               	.LBB449:
 456:./tmk_core/protocol/lufa/LUFA-git/LUFA/Drivers/USB/Core/AVR8/../AVR8/../AVR8/Endpoint_AVR8.h **** 				#else
 3745               		.loc 2 456 6 view .LVU1031
 456:./tmk_core/protocol/lufa/LUFA-git/LUFA/Drivers/USB/Core/AVR8/../AVR8/../AVR8/Endpoint_AVR8.h **** 				#else
 3746               		.loc 2 456 13 is_stmt 0 view .LVU1032
 3747 0036 8091 E800 		lds r24,232
 3748               	.LVL311:
 456:./tmk_core/protocol/lufa/LUFA-git/LUFA/Drivers/USB/Core/AVR8/../AVR8/../AVR8/Endpoint_AVR8.h **** 				#else
 3749               		.loc 2 456 13 view .LVU1033
 3750 003a 8E77      		andi r24,lo8(126)
 3751 003c 8093 E800 		sts 232,r24
 460:./tmk_core/protocol/lufa/LUFA-git/LUFA/Drivers/USB/Core/AVR8/../AVR8/../AVR8/Endpoint_AVR8.h **** 
 3752               		.loc 2 460 4 view .LVU1034
 3753 0040 00C0      		rjmp .L275
 3754               	.LVL312:
 3755               	.L284:
 460:./tmk_core/protocol/lufa/LUFA-git/LUFA/Drivers/USB/Core/AVR8/../AVR8/../AVR8/Endpoint_AVR8.h **** 
 3756               		.loc 2 460 4 view .LVU1035
 3757               	.LBE449:
 3758               	.LBE448:
 3759               	.LBB450:
  46:./tmk_core/protocol/lufa/LUFA-git/LUFA/Drivers/USB/Core/AVR8/Template/Template_Endpoint_Control_W.c **** 
 3760               		.loc 4 46 3 is_stmt 1 view .LVU1036
  46:./tmk_core/protocol/lufa/LUFA-git/LUFA/Drivers/USB/Core/AVR8/Template/Template_Endpoint_Control_W.c **** 
 3761               		.loc 4 46 11 is_stmt 0 view .LVU1037
 3762 0042 8091 0000 		lds r24,USB_DeviceState
 3763               	.LVL313:
  48:./tmk_core/protocol/lufa/LUFA-git/LUFA/Drivers/USB/Core/AVR8/Template/Template_Endpoint_Control_W.c **** 		  return ENDPOINT_RWCSTREAM_DeviceDisconnected;
 3764               		.loc 4 48 3 is_stmt 1 view .LVU1038
  48:./tmk_core/protocol/lufa/LUFA-git/LUFA/Drivers/USB/Core/AVR8/Template/Template_Endpoint_Control_W.c **** 		  return ENDPOINT_RWCSTREAM_DeviceDisconnected;
 3765               		.loc 4 48 6 is_stmt 0 view .LVU1039
 3766 0046 8823      		tst r24
 3767 0048 01F0      		breq .L289
  50:./tmk_core/protocol/lufa/LUFA-git/LUFA/Drivers/USB/Core/AVR8/Template/Template_Endpoint_Control_W.c **** 		  return ENDPOINT_RWCSTREAM_BusSuspended;
 3768               		.loc 4 50 8 is_stmt 1 view .LVU1040
  50:./tmk_core/protocol/lufa/LUFA-git/LUFA/Drivers/USB/Core/AVR8/Template/Template_Endpoint_Control_W.c **** 		  return ENDPOINT_RWCSTREAM_BusSuspended;
 3769               		.loc 4 50 11 is_stmt 0 view .LVU1041
 3770 004a 8530      		cpi r24,lo8(5)
 3771 004c 01F0      		breq .L290
  52:./tmk_core/protocol/lufa/LUFA-git/LUFA/Drivers/USB/Core/AVR8/Template/Template_Endpoint_Control_W.c **** 		  return ENDPOINT_RWCSTREAM_HostAborted;
 3772               		.loc 4 52 8 is_stmt 1 view .LVU1042
 3773               	.LBB451:
 3774               	.LBI451:
 429:./tmk_core/protocol/lufa/LUFA-git/LUFA/Drivers/USB/Core/AVR8/../AVR8/../AVR8/Endpoint_AVR8.h **** 			{
 3775               		.loc 2 429 23 view .LVU1043
 3776               	.LBB452:
 431:./tmk_core/protocol/lufa/LUFA-git/LUFA/Drivers/USB/Core/AVR8/../AVR8/../AVR8/Endpoint_AVR8.h **** 			}
 3777               		.loc 2 431 5 view .LVU1044
 431:./tmk_core/protocol/lufa/LUFA-git/LUFA/Drivers/USB/Core/AVR8/../AVR8/../AVR8/Endpoint_AVR8.h **** 			}
 3778               		.loc 2 431 14 is_stmt 0 view .LVU1045
 3779 004e 8091 E800 		lds r24,232
 3780               	.LVL314:
 431:./tmk_core/protocol/lufa/LUFA-git/LUFA/Drivers/USB/Core/AVR8/../AVR8/../AVR8/Endpoint_AVR8.h **** 			}
 3781               		.loc 2 431 14 view .LVU1046
 3782               	.LBE452:
 3783               	.LBE451:
  52:./tmk_core/protocol/lufa/LUFA-git/LUFA/Drivers/USB/Core/AVR8/Template/Template_Endpoint_Control_W.c **** 		  return ENDPOINT_RWCSTREAM_HostAborted;
 3784               		.loc 4 52 11 view .LVU1047
 3785 0052 83FD      		sbrc r24,3
 3786 0054 00C0      		rjmp .L291
  54:./tmk_core/protocol/lufa/LUFA-git/LUFA/Drivers/USB/Core/AVR8/Template/Template_Endpoint_Control_W.c **** 		  break;
 3787               		.loc 4 54 8 is_stmt 1 view .LVU1048
 3788               	.LBB453:
 3789               	.LBI453:
 417:./tmk_core/protocol/lufa/LUFA-git/LUFA/Drivers/USB/Core/AVR8/../AVR8/../AVR8/Endpoint_AVR8.h **** 			{
 3790               		.loc 2 417 23 view .LVU1049
 3791               	.LBB454:
 419:./tmk_core/protocol/lufa/LUFA-git/LUFA/Drivers/USB/Core/AVR8/../AVR8/../AVR8/Endpoint_AVR8.h **** 			}
 3792               		.loc 2 419 5 view .LVU1050
 419:./tmk_core/protocol/lufa/LUFA-git/LUFA/Drivers/USB/Core/AVR8/../AVR8/../AVR8/Endpoint_AVR8.h **** 			}
 3793               		.loc 2 419 14 is_stmt 0 view .LVU1051
 3794 0056 8091 E800 		lds r24,232
 3795               	.LBE454:
 3796               	.LBE453:
  54:./tmk_core/protocol/lufa/LUFA-git/LUFA/Drivers/USB/Core/AVR8/Template/Template_Endpoint_Control_W.c **** 		  break;
 3797               		.loc 4 54 11 view .LVU1052
 3798 005a 82FD      		sbrc r24,2
 3799 005c 00C0      		rjmp .L297
  57:./tmk_core/protocol/lufa/LUFA-git/LUFA/Drivers/USB/Core/AVR8/Template/Template_Endpoint_Control_W.c **** 		{
 3800               		.loc 4 57 3 is_stmt 1 view .LVU1053
 3801               	.LBB455:
 3802               	.LBI455:
 405:./tmk_core/protocol/lufa/LUFA-git/LUFA/Drivers/USB/Core/AVR8/../AVR8/../AVR8/Endpoint_AVR8.h **** 			{
 3803               		.loc 2 405 23 view .LVU1054
 3804               	.LBB456:
 407:./tmk_core/protocol/lufa/LUFA-git/LUFA/Drivers/USB/Core/AVR8/../AVR8/../AVR8/Endpoint_AVR8.h **** 			}
 3805               		.loc 2 407 5 view .LVU1055
 407:./tmk_core/protocol/lufa/LUFA-git/LUFA/Drivers/USB/Core/AVR8/../AVR8/../AVR8/Endpoint_AVR8.h **** 			}
 3806               		.loc 2 407 14 is_stmt 0 view .LVU1056
 3807 005e 8091 E800 		lds r24,232
 3808               	.LBE456:
 3809               	.LBE455:
  57:./tmk_core/protocol/lufa/LUFA-git/LUFA/Drivers/USB/Core/AVR8/Template/Template_Endpoint_Control_W.c **** 		{
 3810               		.loc 4 57 6 view .LVU1057
 3811 0062 80FF      		sbrs r24,0
 3812 0064 00C0      		rjmp .L279
 3813               	.LBB457:
  59:./tmk_core/protocol/lufa/LUFA-git/LUFA/Drivers/USB/Core/AVR8/Template/Template_Endpoint_Control_W.c **** 
 3814               		.loc 4 59 4 is_stmt 1 view .LVU1058
 3815               	.LBB458:
 3816               	.LBI458:
 222:./tmk_core/protocol/lufa/LUFA-git/LUFA/Drivers/USB/Core/AVR8/../AVR8/../AVR8/Endpoint_AVR8.h **** 			{
 3817               		.loc 2 222 27 view .LVU1059
 3818               	.LBB459:
 225:./tmk_core/protocol/lufa/LUFA-git/LUFA/Drivers/USB/Core/AVR8/../AVR8/../AVR8/Endpoint_AVR8.h **** 				#elif defined(USB_SERIES_4_AVR)
 3819               		.loc 2 225 6 view .LVU1060
 225:./tmk_core/protocol/lufa/LUFA-git/LUFA/Drivers/USB/Core/AVR8/../AVR8/../AVR8/Endpoint_AVR8.h **** 				#elif defined(USB_SERIES_4_AVR)
 3820               		.loc 2 225 13 is_stmt 0 view .LVU1061
 3821 0066 8091 F200 		lds r24,242
 3822 006a 9091 F300 		lds r25,242+1
 3823               	.LVL315:
 225:./tmk_core/protocol/lufa/LUFA-git/LUFA/Drivers/USB/Core/AVR8/../AVR8/../AVR8/Endpoint_AVR8.h **** 				#elif defined(USB_SERIES_4_AVR)
 3824               		.loc 2 225 13 view .LVU1062
 3825               	.LBE459:
 3826               	.LBE458:
  61:./tmk_core/protocol/lufa/LUFA-git/LUFA/Drivers/USB/Core/AVR8/Template/Template_Endpoint_Control_W.c **** 			{
 3827               		.loc 4 61 4 is_stmt 1 view .LVU1063
 3828               	.L280:
  61:./tmk_core/protocol/lufa/LUFA-git/LUFA/Drivers/USB/Core/AVR8/Template/Template_Endpoint_Control_W.c **** 			{
 3829               		.loc 4 61 18 view .LVU1064
 3830 006e 2115      		cp r18,__zero_reg__
 3831 0070 3105      		cpc r19,__zero_reg__
 3832 0072 01F0      		breq .L281
  61:./tmk_core/protocol/lufa/LUFA-git/LUFA/Drivers/USB/Core/AVR8/Template/Template_Endpoint_Control_W.c **** 			{
 3833               		.loc 4 61 18 is_stmt 0 discriminator 1 view .LVU1065
 3834 0074 8830      		cpi r24,8
 3835 0076 9105      		cpc r25,__zero_reg__
 3836 0078 00F0      		brlo .L282
 3837               	.L281:
  69:./tmk_core/protocol/lufa/LUFA-git/LUFA/Drivers/USB/Core/AVR8/Template/Template_Endpoint_Control_W.c **** 			Endpoint_ClearIN();
 3838               		.loc 4 69 4 is_stmt 1 view .LVU1066
  69:./tmk_core/protocol/lufa/LUFA-git/LUFA/Drivers/USB/Core/AVR8/Template/Template_Endpoint_Control_W.c **** 			Endpoint_ClearIN();
 3839               		.loc 4 69 19 is_stmt 0 view .LVU1067
 3840 007a 41E0      		ldi r20,lo8(1)
 3841 007c 0897      		sbiw r24,8
 3842 007e 01F0      		breq .L283
 3843 0080 40E0      		ldi r20,0
 3844               	.L283:
 3845               	.LVL316:
  70:./tmk_core/protocol/lufa/LUFA-git/LUFA/Drivers/USB/Core/AVR8/Template/Template_Endpoint_Control_W.c **** 		}
 3846               		.loc 4 70 4 is_stmt 1 view .LVU1068
 3847               	.LBB460:
 3848               	.LBI460:
 453:./tmk_core/protocol/lufa/LUFA-git/LUFA/Drivers/USB/Core/AVR8/../AVR8/../AVR8/Endpoint_AVR8.h **** 			{
 3849               		.loc 2 453 23 view .LVU1069
 3850               	.LBB461:
 456:./tmk_core/protocol/lufa/LUFA-git/LUFA/Drivers/USB/Core/AVR8/../AVR8/../AVR8/Endpoint_AVR8.h **** 				#else
 3851               		.loc 2 456 6 view .LVU1070
 456:./tmk_core/protocol/lufa/LUFA-git/LUFA/Drivers/USB/Core/AVR8/../AVR8/../AVR8/Endpoint_AVR8.h **** 				#else
 3852               		.loc 2 456 13 is_stmt 0 view .LVU1071
 3853 0082 8091 E800 		lds r24,232
 3854               	.LVL317:
 456:./tmk_core/protocol/lufa/LUFA-git/LUFA/Drivers/USB/Core/AVR8/../AVR8/../AVR8/Endpoint_AVR8.h **** 				#else
 3855               		.loc 2 456 13 view .LVU1072
 3856 0086 8E77      		andi r24,lo8(126)
 3857 0088 8093 E800 		sts 232,r24
 3858               	.LVL318:
 460:./tmk_core/protocol/lufa/LUFA-git/LUFA/Drivers/USB/Core/AVR8/../AVR8/../AVR8/Endpoint_AVR8.h **** 
 3859               		.loc 2 460 4 view .LVU1073
 3860 008c 00C0      		rjmp .L279
 3861               	.LVL319:
 3862               	.L282:
 460:./tmk_core/protocol/lufa/LUFA-git/LUFA/Drivers/USB/Core/AVR8/../AVR8/../AVR8/Endpoint_AVR8.h **** 
 3863               		.loc 2 460 4 view .LVU1074
 3864               	.LBE461:
 3865               	.LBE460:
  63:./tmk_core/protocol/lufa/LUFA-git/LUFA/Drivers/USB/Core/AVR8/Template/Template_Endpoint_Control_W.c **** 				TEMPLATE_BUFFER_MOVE(DataStream, 1);
 3866               		.loc 4 63 5 is_stmt 1 view .LVU1075
 3867               	.LBB462:
  63:./tmk_core/protocol/lufa/LUFA-git/LUFA/Drivers/USB/Core/AVR8/Template/Template_Endpoint_Control_W.c **** 				TEMPLATE_BUFFER_MOVE(DataStream, 1);
 3868               		.loc 4 63 5 view .LVU1076
  63:./tmk_core/protocol/lufa/LUFA-git/LUFA/Drivers/USB/Core/AVR8/Template/Template_Endpoint_Control_W.c **** 				TEMPLATE_BUFFER_MOVE(DataStream, 1);
 3869               		.loc 4 63 5 view .LVU1077
  63:./tmk_core/protocol/lufa/LUFA-git/LUFA/Drivers/USB/Core/AVR8/Template/Template_Endpoint_Control_W.c **** 				TEMPLATE_BUFFER_MOVE(DataStream, 1);
 3870               		.loc 4 63 5 view .LVU1078
 3871               	/* #APP */
 3872               	 ;  63 "./tmk_core/protocol/lufa/LUFA-git/LUFA/Drivers/USB/Core/AVR8/Template/Template_Endpoint_Con
 3873 008e 4491      		lpm r20, Z
 3874               		
 3875               	 ;  0 "" 2
 3876               	.LVL320:
  63:./tmk_core/protocol/lufa/LUFA-git/LUFA/Drivers/USB/Core/AVR8/Template/Template_Endpoint_Control_W.c **** 				TEMPLATE_BUFFER_MOVE(DataStream, 1);
 3877               		.loc 4 63 5 view .LVU1079
  63:./tmk_core/protocol/lufa/LUFA-git/LUFA/Drivers/USB/Core/AVR8/Template/Template_Endpoint_Control_W.c **** 				TEMPLATE_BUFFER_MOVE(DataStream, 1);
 3878               		.loc 4 63 5 is_stmt 0 view .LVU1080
 3879               	/* #NOAPP */
 3880               	.LBE462:
 3881               	.LBB463:
 3882               	.LBI463:
 552:./tmk_core/protocol/lufa/LUFA-git/LUFA/Drivers/USB/Core/AVR8/../AVR8/../AVR8/Endpoint_AVR8.h **** 			{
 3883               		.loc 2 552 23 is_stmt 1 view .LVU1081
 3884               	.LBB464:
 554:./tmk_core/protocol/lufa/LUFA-git/LUFA/Drivers/USB/Core/AVR8/../AVR8/../AVR8/Endpoint_AVR8.h **** 			}
 3885               		.loc 2 554 5 view .LVU1082
 554:./tmk_core/protocol/lufa/LUFA-git/LUFA/Drivers/USB/Core/AVR8/../AVR8/../AVR8/Endpoint_AVR8.h **** 			}
 3886               		.loc 2 554 12 is_stmt 0 view .LVU1083
 3887 0090 4093 F100 		sts 241,r20
 3888               	.LVL321:
 554:./tmk_core/protocol/lufa/LUFA-git/LUFA/Drivers/USB/Core/AVR8/../AVR8/../AVR8/Endpoint_AVR8.h **** 			}
 3889               		.loc 2 554 12 view .LVU1084
 3890               	.LBE464:
 3891               	.LBE463:
  64:./tmk_core/protocol/lufa/LUFA-git/LUFA/Drivers/USB/Core/AVR8/Template/Template_Endpoint_Control_W.c **** 				Length--;
 3892               		.loc 4 64 5 is_stmt 1 view .LVU1085
 3893 0094 3197      		sbiw r30,1
 3894               	.LVL322:
  65:./tmk_core/protocol/lufa/LUFA-git/LUFA/Drivers/USB/Core/AVR8/Template/Template_Endpoint_Control_W.c **** 				BytesInEndpoint++;
 3895               		.loc 4 65 5 view .LVU1086
  65:./tmk_core/protocol/lufa/LUFA-git/LUFA/Drivers/USB/Core/AVR8/Template/Template_Endpoint_Control_W.c **** 				BytesInEndpoint++;
 3896               		.loc 4 65 11 is_stmt 0 view .LVU1087
 3897 0096 2150      		subi r18,1
 3898 0098 3109      		sbc r19,__zero_reg__
 3899               	.LVL323:
  66:./tmk_core/protocol/lufa/LUFA-git/LUFA/Drivers/USB/Core/AVR8/Template/Template_Endpoint_Control_W.c **** 			}
 3900               		.loc 4 66 5 is_stmt 1 view .LVU1088
  66:./tmk_core/protocol/lufa/LUFA-git/LUFA/Drivers/USB/Core/AVR8/Template/Template_Endpoint_Control_W.c **** 			}
 3901               		.loc 4 66 20 is_stmt 0 view .LVU1089
 3902 009a 0196      		adiw r24,1
 3903               	.LVL324:
  66:./tmk_core/protocol/lufa/LUFA-git/LUFA/Drivers/USB/Core/AVR8/Template/Template_Endpoint_Control_W.c **** 			}
 3904               		.loc 4 66 20 view .LVU1090
 3905 009c 00C0      		rjmp .L280
 3906               	.LVL325:
 3907               	.L285:
  66:./tmk_core/protocol/lufa/LUFA-git/LUFA/Drivers/USB/Core/AVR8/Template/Template_Endpoint_Control_W.c **** 			}
 3908               		.loc 4 66 20 view .LVU1091
 3909               	.LBE457:
 3910               	.LBE450:
 3911               	.LBB465:
  76:./tmk_core/protocol/lufa/LUFA-git/LUFA/Drivers/USB/Core/AVR8/Template/Template_Endpoint_Control_W.c **** 
 3912               		.loc 4 76 3 is_stmt 1 view .LVU1092
  76:./tmk_core/protocol/lufa/LUFA-git/LUFA/Drivers/USB/Core/AVR8/Template/Template_Endpoint_Control_W.c **** 
 3913               		.loc 4 76 11 is_stmt 0 view .LVU1093
 3914 009e 8091 0000 		lds r24,USB_DeviceState
 3915               	.LVL326:
  78:./tmk_core/protocol/lufa/LUFA-git/LUFA/Drivers/USB/Core/AVR8/Template/Template_Endpoint_Control_W.c **** 		  return ENDPOINT_RWCSTREAM_DeviceDisconnected;
 3916               		.loc 4 78 3 is_stmt 1 view .LVU1094
  78:./tmk_core/protocol/lufa/LUFA-git/LUFA/Drivers/USB/Core/AVR8/Template/Template_Endpoint_Control_W.c **** 		  return ENDPOINT_RWCSTREAM_DeviceDisconnected;
 3917               		.loc 4 78 6 is_stmt 0 view .LVU1095
 3918 00a2 8823      		tst r24
 3919 00a4 01F0      		breq .L289
  80:./tmk_core/protocol/lufa/LUFA-git/LUFA/Drivers/USB/Core/AVR8/Template/Template_Endpoint_Control_W.c **** 		  return ENDPOINT_RWCSTREAM_BusSuspended;
 3920               		.loc 4 80 8 is_stmt 1 view .LVU1096
  80:./tmk_core/protocol/lufa/LUFA-git/LUFA/Drivers/USB/Core/AVR8/Template/Template_Endpoint_Control_W.c **** 		  return ENDPOINT_RWCSTREAM_BusSuspended;
 3921               		.loc 4 80 11 is_stmt 0 view .LVU1097
 3922 00a6 8530      		cpi r24,lo8(5)
 3923 00a8 01F0      		breq .L290
  82:./tmk_core/protocol/lufa/LUFA-git/LUFA/Drivers/USB/Core/AVR8/Template/Template_Endpoint_Control_W.c **** 		  return ENDPOINT_RWCSTREAM_HostAborted;
 3924               		.loc 4 82 8 is_stmt 1 view .LVU1098
 3925               	.LBB466:
 3926               	.LBI466:
 429:./tmk_core/protocol/lufa/LUFA-git/LUFA/Drivers/USB/Core/AVR8/../AVR8/../AVR8/Endpoint_AVR8.h **** 			{
 3927               		.loc 2 429 23 view .LVU1099
 3928               	.LBB467:
 431:./tmk_core/protocol/lufa/LUFA-git/LUFA/Drivers/USB/Core/AVR8/../AVR8/../AVR8/Endpoint_AVR8.h **** 			}
 3929               		.loc 2 431 5 view .LVU1100
 431:./tmk_core/protocol/lufa/LUFA-git/LUFA/Drivers/USB/Core/AVR8/../AVR8/../AVR8/Endpoint_AVR8.h **** 			}
 3930               		.loc 2 431 14 is_stmt 0 view .LVU1101
 3931 00aa 8091 E800 		lds r24,232
 3932               	.LVL327:
 431:./tmk_core/protocol/lufa/LUFA-git/LUFA/Drivers/USB/Core/AVR8/../AVR8/../AVR8/Endpoint_AVR8.h **** 			}
 3933               		.loc 2 431 14 view .LVU1102
 3934               	.LBE467:
 3935               	.LBE466:
  82:./tmk_core/protocol/lufa/LUFA-git/LUFA/Drivers/USB/Core/AVR8/Template/Template_Endpoint_Control_W.c **** 		  return ENDPOINT_RWCSTREAM_HostAborted;
 3936               		.loc 4 82 11 view .LVU1103
 3937 00ae 83FF      		sbrs r24,3
 3938 00b0 00C0      		rjmp .L297
 3939               	.LVL328:
 3940               	.L291:
  82:./tmk_core/protocol/lufa/LUFA-git/LUFA/Drivers/USB/Core/AVR8/Template/Template_Endpoint_Control_W.c **** 		  return ENDPOINT_RWCSTREAM_HostAborted;
 3941               		.loc 4 82 11 view .LVU1104
 3942               	.LBE465:
 3943               	.LBB468:
  53:./tmk_core/protocol/lufa/LUFA-git/LUFA/Drivers/USB/Core/AVR8/Template/Template_Endpoint_Control_W.c **** 		else if (Endpoint_IsOUTReceived())
 3944               		.loc 4 53 12 view .LVU1105
 3945 00b2 81E0      		ldi r24,lo8(1)
 3946               	/* epilogue start */
 3947               	.LBE468:
 3948               		.loc 4 87 1 view .LVU1106
 3949 00b4 0895      		ret
 3950               	.L289:
 3951               	.LBB469:
  49:./tmk_core/protocol/lufa/LUFA-git/LUFA/Drivers/USB/Core/AVR8/Template/Template_Endpoint_Control_W.c **** 		else if (USB_DeviceState_LCL == DEVICE_STATE_Suspended)
 3952               		.loc 4 49 12 view .LVU1107
 3953 00b6 82E0      		ldi r24,lo8(2)
 3954 00b8 0895      		ret
 3955               	.L290:
  51:./tmk_core/protocol/lufa/LUFA-git/LUFA/Drivers/USB/Core/AVR8/Template/Template_Endpoint_Control_W.c **** 		else if (Endpoint_IsSETUPReceived())
 3956               		.loc 4 51 12 view .LVU1108
 3957 00ba 83E0      		ldi r24,lo8(3)
 3958 00bc 0895      		ret
 3959               	.LBE469:
 3960               		.cfi_endproc
 3961               	.LFE106:
 3963               		.section	.text.Endpoint_Write_Control_EStream_LE,"ax",@progbits
 3964               	.global	Endpoint_Write_Control_EStream_LE
 3966               	Endpoint_Write_Control_EStream_LE:
 3967               	.LVL329:
 3968               	.LFB107:
  35:./tmk_core/protocol/lufa/LUFA-git/LUFA/Drivers/USB/Core/AVR8/Template/Template_Endpoint_Control_W.c **** 	uint8_t* DataStream     = ((uint8_t*)Buffer + TEMPLATE_BUFFER_OFFSET(Length));
 3969               		.loc 4 35 1 is_stmt 1 view -0
 3970               		.cfi_startproc
  35:./tmk_core/protocol/lufa/LUFA-git/LUFA/Drivers/USB/Core/AVR8/Template/Template_Endpoint_Control_W.c **** 	uint8_t* DataStream     = ((uint8_t*)Buffer + TEMPLATE_BUFFER_OFFSET(Length));
 3971               		.loc 4 35 1 is_stmt 0 view .LVU1110
 3972 0000 EF92      		push r14
 3973               	.LCFI104:
 3974               		.cfi_def_cfa_offset 3
 3975               		.cfi_offset 14, -2
 3976 0002 FF92      		push r15
 3977               	.LCFI105:
 3978               		.cfi_def_cfa_offset 4
 3979               		.cfi_offset 15, -3
 3980 0004 0F93      		push r16
 3981               	.LCFI106:
 3982               		.cfi_def_cfa_offset 5
 3983               		.cfi_offset 16, -4
 3984 0006 1F93      		push r17
 3985               	.LCFI107:
 3986               		.cfi_def_cfa_offset 6
 3987               		.cfi_offset 17, -5
 3988 0008 CF93      		push r28
 3989               	.LCFI108:
 3990               		.cfi_def_cfa_offset 7
 3991               		.cfi_offset 28, -6
 3992 000a DF93      		push r29
 3993               	.LCFI109:
 3994               		.cfi_def_cfa_offset 8
 3995               		.cfi_offset 29, -7
 3996               	/* prologue: function */
 3997               	/* frame size = 0 */
 3998               	/* stack size = 6 */
 3999               	.L__stack_usage = 6
 4000 000c 8C01      		movw r16,r24
 4001 000e CB01      		movw r24,r22
 4002               	.LVL330:
  36:./tmk_core/protocol/lufa/LUFA-git/LUFA/Drivers/USB/Core/AVR8/Template/Template_Endpoint_Control_W.c **** 	bool     LastPacketFull = false;
 4003               		.loc 4 36 2 is_stmt 1 view .LVU1111
  37:./tmk_core/protocol/lufa/LUFA-git/LUFA/Drivers/USB/Core/AVR8/Template/Template_Endpoint_Control_W.c **** 
 4004               		.loc 4 37 2 view .LVU1112
  39:./tmk_core/protocol/lufa/LUFA-git/LUFA/Drivers/USB/Core/AVR8/Template/Template_Endpoint_Control_W.c **** 	  Length = USB_ControlRequest.wLength;
 4005               		.loc 4 39 2 view .LVU1113
  39:./tmk_core/protocol/lufa/LUFA-git/LUFA/Drivers/USB/Core/AVR8/Template/Template_Endpoint_Control_W.c **** 	  Length = USB_ControlRequest.wLength;
 4006               		.loc 4 39 33 is_stmt 0 view .LVU1114
 4007 0010 C091 0000 		lds r28,USB_ControlRequest+6
 4008 0014 D091 0000 		lds r29,USB_ControlRequest+6+1
  39:./tmk_core/protocol/lufa/LUFA-git/LUFA/Drivers/USB/Core/AVR8/Template/Template_Endpoint_Control_W.c **** 	  Length = USB_ControlRequest.wLength;
 4009               		.loc 4 39 5 view .LVU1115
 4010 0018 C617      		cp r28,r22
 4011 001a D707      		cpc r29,r23
 4012 001c 00F0      		brlo .L302
  41:./tmk_core/protocol/lufa/LUFA-git/LUFA/Drivers/USB/Core/AVR8/Template/Template_Endpoint_Control_W.c **** 	  Endpoint_ClearIN();
 4013               		.loc 4 41 7 is_stmt 1 view .LVU1116
  41:./tmk_core/protocol/lufa/LUFA-git/LUFA/Drivers/USB/Core/AVR8/Template/Template_Endpoint_Control_W.c **** 	  Endpoint_ClearIN();
 4014               		.loc 4 41 10 is_stmt 0 view .LVU1117
 4015 001e 0097      		sbiw r24,0
 4016 0020 01F0      		breq .L303
 4017               	.L304:
  35:./tmk_core/protocol/lufa/LUFA-git/LUFA/Drivers/USB/Core/AVR8/Template/Template_Endpoint_Control_W.c **** 	uint8_t* DataStream     = ((uint8_t*)Buffer + TEMPLATE_BUFFER_OFFSET(Length));
 4018               		.loc 4 35 1 view .LVU1118
 4019 0022 EC01      		movw r28,r24
 4020               	.L302:
  35:./tmk_core/protocol/lufa/LUFA-git/LUFA/Drivers/USB/Core/AVR8/Template/Template_Endpoint_Control_W.c **** 	uint8_t* DataStream     = ((uint8_t*)Buffer + TEMPLATE_BUFFER_OFFSET(Length));
 4021               		.loc 4 35 1 view .LVU1119
 4022 0024 80E0      		ldi r24,0
 4023               	.LVL331:
 4024               	.L308:
  44:./tmk_core/protocol/lufa/LUFA-git/LUFA/Drivers/USB/Core/AVR8/Template/Template_Endpoint_Control_W.c **** 	{
 4025               		.loc 4 44 16 is_stmt 1 view .LVU1120
 4026 0026 2097      		sbiw r28,0
 4027 0028 01F4      		brne .L313
  44:./tmk_core/protocol/lufa/LUFA-git/LUFA/Drivers/USB/Core/AVR8/Template/Template_Endpoint_Control_W.c **** 	{
 4028               		.loc 4 44 16 is_stmt 0 discriminator 1 view .LVU1121
 4029 002a 8111      		cpse r24,__zero_reg__
 4030 002c 00C0      		rjmp .L313
 4031               	.LVL332:
 4032               	.L326:
  74:./tmk_core/protocol/lufa/LUFA-git/LUFA/Drivers/USB/Core/AVR8/Template/Template_Endpoint_Control_W.c **** 	{
 4033               		.loc 4 74 9 is_stmt 1 view .LVU1122
 4034               	.LBB470:
 4035               	.LBI470:
 417:./tmk_core/protocol/lufa/LUFA-git/LUFA/Drivers/USB/Core/AVR8/../AVR8/../AVR8/Endpoint_AVR8.h **** 			{
 4036               		.loc 2 417 23 view .LVU1123
 4037               	.LBB471:
 419:./tmk_core/protocol/lufa/LUFA-git/LUFA/Drivers/USB/Core/AVR8/../AVR8/../AVR8/Endpoint_AVR8.h **** 			}
 4038               		.loc 2 419 5 view .LVU1124
 419:./tmk_core/protocol/lufa/LUFA-git/LUFA/Drivers/USB/Core/AVR8/../AVR8/../AVR8/Endpoint_AVR8.h **** 			}
 4039               		.loc 2 419 14 is_stmt 0 view .LVU1125
 4040 002e 8091 E800 		lds r24,232
 4041               	.LBE471:
 4042               	.LBE470:
  74:./tmk_core/protocol/lufa/LUFA-git/LUFA/Drivers/USB/Core/AVR8/Template/Template_Endpoint_Control_W.c **** 	{
 4043               		.loc 4 74 9 view .LVU1126
 4044 0032 82FF      		sbrs r24,2
 4045 0034 00C0      		rjmp .L314
  86:./tmk_core/protocol/lufa/LUFA-git/LUFA/Drivers/USB/Core/AVR8/Template/Template_Endpoint_Control_W.c **** }
 4046               		.loc 4 86 9 view .LVU1127
 4047 0036 80E0      		ldi r24,0
 4048               	.L301:
 4049               	/* epilogue start */
 4050               		.loc 4 87 1 view .LVU1128
 4051 0038 DF91      		pop r29
 4052 003a CF91      		pop r28
 4053               	.LVL333:
 4054               		.loc 4 87 1 view .LVU1129
 4055 003c 1F91      		pop r17
 4056 003e 0F91      		pop r16
 4057               	.LVL334:
 4058               		.loc 4 87 1 view .LVU1130
 4059 0040 FF90      		pop r15
 4060 0042 EF90      		pop r14
 4061 0044 0895      		ret
 4062               	.LVL335:
 4063               	.L303:
  42:./tmk_core/protocol/lufa/LUFA-git/LUFA/Drivers/USB/Core/AVR8/Template/Template_Endpoint_Control_W.c **** 
 4064               		.loc 4 42 4 is_stmt 1 view .LVU1131
 4065               	.LBB472:
 4066               	.LBI472:
 453:./tmk_core/protocol/lufa/LUFA-git/LUFA/Drivers/USB/Core/AVR8/../AVR8/../AVR8/Endpoint_AVR8.h **** 			{
 4067               		.loc 2 453 23 view .LVU1132
 4068               	.LBB473:
 456:./tmk_core/protocol/lufa/LUFA-git/LUFA/Drivers/USB/Core/AVR8/../AVR8/../AVR8/Endpoint_AVR8.h **** 				#else
 4069               		.loc 2 456 6 view .LVU1133
 456:./tmk_core/protocol/lufa/LUFA-git/LUFA/Drivers/USB/Core/AVR8/../AVR8/../AVR8/Endpoint_AVR8.h **** 				#else
 4070               		.loc 2 456 13 is_stmt 0 view .LVU1134
 4071 0046 2091 E800 		lds r18,232
 4072 004a 2E77      		andi r18,lo8(126)
 4073 004c 2093 E800 		sts 232,r18
 460:./tmk_core/protocol/lufa/LUFA-git/LUFA/Drivers/USB/Core/AVR8/../AVR8/../AVR8/Endpoint_AVR8.h **** 
 4074               		.loc 2 460 4 view .LVU1135
 4075 0050 00C0      		rjmp .L304
 4076               	.LVL336:
 4077               	.L313:
 460:./tmk_core/protocol/lufa/LUFA-git/LUFA/Drivers/USB/Core/AVR8/../AVR8/../AVR8/Endpoint_AVR8.h **** 
 4078               		.loc 2 460 4 view .LVU1136
 4079               	.LBE473:
 4080               	.LBE472:
 4081               	.LBB474:
  46:./tmk_core/protocol/lufa/LUFA-git/LUFA/Drivers/USB/Core/AVR8/Template/Template_Endpoint_Control_W.c **** 
 4082               		.loc 4 46 3 is_stmt 1 view .LVU1137
  46:./tmk_core/protocol/lufa/LUFA-git/LUFA/Drivers/USB/Core/AVR8/Template/Template_Endpoint_Control_W.c **** 
 4083               		.loc 4 46 11 is_stmt 0 view .LVU1138
 4084 0052 9091 0000 		lds r25,USB_DeviceState
 4085               	.LVL337:
  48:./tmk_core/protocol/lufa/LUFA-git/LUFA/Drivers/USB/Core/AVR8/Template/Template_Endpoint_Control_W.c **** 		  return ENDPOINT_RWCSTREAM_DeviceDisconnected;
 4086               		.loc 4 48 3 is_stmt 1 view .LVU1139
  48:./tmk_core/protocol/lufa/LUFA-git/LUFA/Drivers/USB/Core/AVR8/Template/Template_Endpoint_Control_W.c **** 		  return ENDPOINT_RWCSTREAM_DeviceDisconnected;
 4087               		.loc 4 48 6 is_stmt 0 view .LVU1140
 4088 0056 9923      		tst r25
 4089 0058 01F0      		breq .L318
  50:./tmk_core/protocol/lufa/LUFA-git/LUFA/Drivers/USB/Core/AVR8/Template/Template_Endpoint_Control_W.c **** 		  return ENDPOINT_RWCSTREAM_BusSuspended;
 4090               		.loc 4 50 8 is_stmt 1 view .LVU1141
  50:./tmk_core/protocol/lufa/LUFA-git/LUFA/Drivers/USB/Core/AVR8/Template/Template_Endpoint_Control_W.c **** 		  return ENDPOINT_RWCSTREAM_BusSuspended;
 4091               		.loc 4 50 11 is_stmt 0 view .LVU1142
 4092 005a 9530      		cpi r25,lo8(5)
 4093 005c 01F0      		breq .L319
  52:./tmk_core/protocol/lufa/LUFA-git/LUFA/Drivers/USB/Core/AVR8/Template/Template_Endpoint_Control_W.c **** 		  return ENDPOINT_RWCSTREAM_HostAborted;
 4094               		.loc 4 52 8 is_stmt 1 view .LVU1143
 4095               	.LBB475:
 4096               	.LBI475:
 429:./tmk_core/protocol/lufa/LUFA-git/LUFA/Drivers/USB/Core/AVR8/../AVR8/../AVR8/Endpoint_AVR8.h **** 			{
 4097               		.loc 2 429 23 view .LVU1144
 4098               	.LBB476:
 431:./tmk_core/protocol/lufa/LUFA-git/LUFA/Drivers/USB/Core/AVR8/../AVR8/../AVR8/Endpoint_AVR8.h **** 			}
 4099               		.loc 2 431 5 view .LVU1145
 431:./tmk_core/protocol/lufa/LUFA-git/LUFA/Drivers/USB/Core/AVR8/../AVR8/../AVR8/Endpoint_AVR8.h **** 			}
 4100               		.loc 2 431 14 is_stmt 0 view .LVU1146
 4101 005e 9091 E800 		lds r25,232
 4102               	.LVL338:
 431:./tmk_core/protocol/lufa/LUFA-git/LUFA/Drivers/USB/Core/AVR8/../AVR8/../AVR8/Endpoint_AVR8.h **** 			}
 4103               		.loc 2 431 14 view .LVU1147
 4104               	.LBE476:
 4105               	.LBE475:
  52:./tmk_core/protocol/lufa/LUFA-git/LUFA/Drivers/USB/Core/AVR8/Template/Template_Endpoint_Control_W.c **** 		  return ENDPOINT_RWCSTREAM_HostAborted;
 4106               		.loc 4 52 11 view .LVU1148
 4107 0062 93FD      		sbrc r25,3
 4108 0064 00C0      		rjmp .L320
  54:./tmk_core/protocol/lufa/LUFA-git/LUFA/Drivers/USB/Core/AVR8/Template/Template_Endpoint_Control_W.c **** 		  break;
 4109               		.loc 4 54 8 is_stmt 1 view .LVU1149
 4110               	.LBB477:
 4111               	.LBI477:
 417:./tmk_core/protocol/lufa/LUFA-git/LUFA/Drivers/USB/Core/AVR8/../AVR8/../AVR8/Endpoint_AVR8.h **** 			{
 4112               		.loc 2 417 23 view .LVU1150
 4113               	.LBB478:
 419:./tmk_core/protocol/lufa/LUFA-git/LUFA/Drivers/USB/Core/AVR8/../AVR8/../AVR8/Endpoint_AVR8.h **** 			}
 4114               		.loc 2 419 5 view .LVU1151
 419:./tmk_core/protocol/lufa/LUFA-git/LUFA/Drivers/USB/Core/AVR8/../AVR8/../AVR8/Endpoint_AVR8.h **** 			}
 4115               		.loc 2 419 14 is_stmt 0 view .LVU1152
 4116 0066 9091 E800 		lds r25,232
 4117               	.LBE478:
 4118               	.LBE477:
  54:./tmk_core/protocol/lufa/LUFA-git/LUFA/Drivers/USB/Core/AVR8/Template/Template_Endpoint_Control_W.c **** 		  break;
 4119               		.loc 4 54 11 view .LVU1153
 4120 006a 92FD      		sbrc r25,2
 4121 006c 00C0      		rjmp .L326
  57:./tmk_core/protocol/lufa/LUFA-git/LUFA/Drivers/USB/Core/AVR8/Template/Template_Endpoint_Control_W.c **** 		{
 4122               		.loc 4 57 3 is_stmt 1 view .LVU1154
 4123               	.LBB479:
 4124               	.LBI479:
 405:./tmk_core/protocol/lufa/LUFA-git/LUFA/Drivers/USB/Core/AVR8/../AVR8/../AVR8/Endpoint_AVR8.h **** 			{
 4125               		.loc 2 405 23 view .LVU1155
 4126               	.LBB480:
 407:./tmk_core/protocol/lufa/LUFA-git/LUFA/Drivers/USB/Core/AVR8/../AVR8/../AVR8/Endpoint_AVR8.h **** 			}
 4127               		.loc 2 407 5 view .LVU1156
 407:./tmk_core/protocol/lufa/LUFA-git/LUFA/Drivers/USB/Core/AVR8/../AVR8/../AVR8/Endpoint_AVR8.h **** 			}
 4128               		.loc 2 407 14 is_stmt 0 view .LVU1157
 4129 006e 9091 E800 		lds r25,232
 4130               	.LBE480:
 4131               	.LBE479:
  57:./tmk_core/protocol/lufa/LUFA-git/LUFA/Drivers/USB/Core/AVR8/Template/Template_Endpoint_Control_W.c **** 		{
 4132               		.loc 4 57 6 view .LVU1158
 4133 0072 90FF      		sbrs r25,0
 4134 0074 00C0      		rjmp .L308
 4135               	.LBB481:
  59:./tmk_core/protocol/lufa/LUFA-git/LUFA/Drivers/USB/Core/AVR8/Template/Template_Endpoint_Control_W.c **** 
 4136               		.loc 4 59 4 is_stmt 1 view .LVU1159
 4137               	.LBB482:
 4138               	.LBI482:
 222:./tmk_core/protocol/lufa/LUFA-git/LUFA/Drivers/USB/Core/AVR8/../AVR8/../AVR8/Endpoint_AVR8.h **** 			{
 4139               		.loc 2 222 27 view .LVU1160
 4140               	.LBB483:
 225:./tmk_core/protocol/lufa/LUFA-git/LUFA/Drivers/USB/Core/AVR8/../AVR8/../AVR8/Endpoint_AVR8.h **** 				#elif defined(USB_SERIES_4_AVR)
 4141               		.loc 2 225 6 view .LVU1161
 225:./tmk_core/protocol/lufa/LUFA-git/LUFA/Drivers/USB/Core/AVR8/../AVR8/../AVR8/Endpoint_AVR8.h **** 				#elif defined(USB_SERIES_4_AVR)
 4142               		.loc 2 225 13 is_stmt 0 view .LVU1162
 4143 0076 E090 F200 		lds r14,242
 4144 007a F090 F300 		lds r15,242+1
 4145               	.LVL339:
 225:./tmk_core/protocol/lufa/LUFA-git/LUFA/Drivers/USB/Core/AVR8/../AVR8/../AVR8/Endpoint_AVR8.h **** 				#elif defined(USB_SERIES_4_AVR)
 4146               		.loc 2 225 13 view .LVU1163
 4147               	.LBE483:
 4148               	.LBE482:
  61:./tmk_core/protocol/lufa/LUFA-git/LUFA/Drivers/USB/Core/AVR8/Template/Template_Endpoint_Control_W.c **** 			{
 4149               		.loc 4 61 4 is_stmt 1 view .LVU1164
 4150               	.L309:
  61:./tmk_core/protocol/lufa/LUFA-git/LUFA/Drivers/USB/Core/AVR8/Template/Template_Endpoint_Control_W.c **** 			{
 4151               		.loc 4 61 18 view .LVU1165
 4152 007e 2097      		sbiw r28,0
 4153 0080 01F0      		breq .L310
  61:./tmk_core/protocol/lufa/LUFA-git/LUFA/Drivers/USB/Core/AVR8/Template/Template_Endpoint_Control_W.c **** 			{
 4154               		.loc 4 61 18 is_stmt 0 discriminator 1 view .LVU1166
 4155 0082 98E0      		ldi r25,8
 4156 0084 E916      		cp r14,r25
 4157 0086 F104      		cpc r15,__zero_reg__
 4158 0088 00F0      		brlo .L311
 4159               	.L310:
  69:./tmk_core/protocol/lufa/LUFA-git/LUFA/Drivers/USB/Core/AVR8/Template/Template_Endpoint_Control_W.c **** 			Endpoint_ClearIN();
 4160               		.loc 4 69 4 is_stmt 1 view .LVU1167
  69:./tmk_core/protocol/lufa/LUFA-git/LUFA/Drivers/USB/Core/AVR8/Template/Template_Endpoint_Control_W.c **** 			Endpoint_ClearIN();
 4161               		.loc 4 69 19 is_stmt 0 view .LVU1168
 4162 008a 81E0      		ldi r24,lo8(1)
 4163 008c 98E0      		ldi r25,8
 4164 008e E916      		cp r14,r25
 4165 0090 F104      		cpc r15,__zero_reg__
 4166 0092 01F0      		breq .L312
 4167 0094 80E0      		ldi r24,0
 4168               	.L312:
 4169               	.LVL340:
  70:./tmk_core/protocol/lufa/LUFA-git/LUFA/Drivers/USB/Core/AVR8/Template/Template_Endpoint_Control_W.c **** 		}
 4170               		.loc 4 70 4 is_stmt 1 view .LVU1169
 4171               	.LBB484:
 4172               	.LBI484:
 453:./tmk_core/protocol/lufa/LUFA-git/LUFA/Drivers/USB/Core/AVR8/../AVR8/../AVR8/Endpoint_AVR8.h **** 			{
 4173               		.loc 2 453 23 view .LVU1170
 4174               	.LBB485:
 456:./tmk_core/protocol/lufa/LUFA-git/LUFA/Drivers/USB/Core/AVR8/../AVR8/../AVR8/Endpoint_AVR8.h **** 				#else
 4175               		.loc 2 456 6 view .LVU1171
 456:./tmk_core/protocol/lufa/LUFA-git/LUFA/Drivers/USB/Core/AVR8/../AVR8/../AVR8/Endpoint_AVR8.h **** 				#else
 4176               		.loc 2 456 13 is_stmt 0 view .LVU1172
 4177 0096 9091 E800 		lds r25,232
 4178 009a 9E77      		andi r25,lo8(126)
 4179 009c 9093 E800 		sts 232,r25
 4180               	.LVL341:
 460:./tmk_core/protocol/lufa/LUFA-git/LUFA/Drivers/USB/Core/AVR8/../AVR8/../AVR8/Endpoint_AVR8.h **** 
 4181               		.loc 2 460 4 view .LVU1173
 4182 00a0 00C0      		rjmp .L308
 4183               	.LVL342:
 4184               	.L311:
 460:./tmk_core/protocol/lufa/LUFA-git/LUFA/Drivers/USB/Core/AVR8/../AVR8/../AVR8/Endpoint_AVR8.h **** 
 4185               		.loc 2 460 4 view .LVU1174
 4186               	.LBE485:
 4187               	.LBE484:
  63:./tmk_core/protocol/lufa/LUFA-git/LUFA/Drivers/USB/Core/AVR8/Template/Template_Endpoint_Control_W.c **** 				TEMPLATE_BUFFER_MOVE(DataStream, 1);
 4188               		.loc 4 63 5 is_stmt 1 view .LVU1175
 4189 00a2 C801      		movw r24,r16
 4190 00a4 0E94 0000 		call eeprom_read_byte
 4191               	.LVL343:
 4192               	.LBB486:
 4193               	.LBI486:
 552:./tmk_core/protocol/lufa/LUFA-git/LUFA/Drivers/USB/Core/AVR8/../AVR8/../AVR8/Endpoint_AVR8.h **** 			{
 4194               		.loc 2 552 23 view .LVU1176
 4195               	.LBB487:
 554:./tmk_core/protocol/lufa/LUFA-git/LUFA/Drivers/USB/Core/AVR8/../AVR8/../AVR8/Endpoint_AVR8.h **** 			}
 4196               		.loc 2 554 5 view .LVU1177
 554:./tmk_core/protocol/lufa/LUFA-git/LUFA/Drivers/USB/Core/AVR8/../AVR8/../AVR8/Endpoint_AVR8.h **** 			}
 4197               		.loc 2 554 12 is_stmt 0 view .LVU1178
 4198 00a8 8093 F100 		sts 241,r24
 4199               	.LVL344:
 554:./tmk_core/protocol/lufa/LUFA-git/LUFA/Drivers/USB/Core/AVR8/../AVR8/../AVR8/Endpoint_AVR8.h **** 			}
 4200               		.loc 2 554 12 view .LVU1179
 4201               	.LBE487:
 4202               	.LBE486:
  64:./tmk_core/protocol/lufa/LUFA-git/LUFA/Drivers/USB/Core/AVR8/Template/Template_Endpoint_Control_W.c **** 				Length--;
 4203               		.loc 4 64 5 is_stmt 1 view .LVU1180
 4204 00ac 0F5F      		subi r16,-1
 4205 00ae 1F4F      		sbci r17,-1
 4206               	.LVL345:
  65:./tmk_core/protocol/lufa/LUFA-git/LUFA/Drivers/USB/Core/AVR8/Template/Template_Endpoint_Control_W.c **** 				BytesInEndpoint++;
 4207               		.loc 4 65 5 view .LVU1181
  65:./tmk_core/protocol/lufa/LUFA-git/LUFA/Drivers/USB/Core/AVR8/Template/Template_Endpoint_Control_W.c **** 				BytesInEndpoint++;
 4208               		.loc 4 65 11 is_stmt 0 view .LVU1182
 4209 00b0 2197      		sbiw r28,1
 4210               	.LVL346:
  66:./tmk_core/protocol/lufa/LUFA-git/LUFA/Drivers/USB/Core/AVR8/Template/Template_Endpoint_Control_W.c **** 			}
 4211               		.loc 4 66 5 is_stmt 1 view .LVU1183
  66:./tmk_core/protocol/lufa/LUFA-git/LUFA/Drivers/USB/Core/AVR8/Template/Template_Endpoint_Control_W.c **** 			}
 4212               		.loc 4 66 20 is_stmt 0 view .LVU1184
 4213 00b2 8FEF      		ldi r24,-1
 4214 00b4 E81A      		sub r14,r24
 4215 00b6 F80A      		sbc r15,r24
 4216               	.LVL347:
  66:./tmk_core/protocol/lufa/LUFA-git/LUFA/Drivers/USB/Core/AVR8/Template/Template_Endpoint_Control_W.c **** 			}
 4217               		.loc 4 66 20 view .LVU1185
 4218 00b8 00C0      		rjmp .L309
 4219               	.LVL348:
 4220               	.L314:
  66:./tmk_core/protocol/lufa/LUFA-git/LUFA/Drivers/USB/Core/AVR8/Template/Template_Endpoint_Control_W.c **** 			}
 4221               		.loc 4 66 20 view .LVU1186
 4222               	.LBE481:
 4223               	.LBE474:
 4224               	.LBB488:
  76:./tmk_core/protocol/lufa/LUFA-git/LUFA/Drivers/USB/Core/AVR8/Template/Template_Endpoint_Control_W.c **** 
 4225               		.loc 4 76 3 is_stmt 1 view .LVU1187
  76:./tmk_core/protocol/lufa/LUFA-git/LUFA/Drivers/USB/Core/AVR8/Template/Template_Endpoint_Control_W.c **** 
 4226               		.loc 4 76 11 is_stmt 0 view .LVU1188
 4227 00ba 8091 0000 		lds r24,USB_DeviceState
 4228               	.LVL349:
  78:./tmk_core/protocol/lufa/LUFA-git/LUFA/Drivers/USB/Core/AVR8/Template/Template_Endpoint_Control_W.c **** 		  return ENDPOINT_RWCSTREAM_DeviceDisconnected;
 4229               		.loc 4 78 3 is_stmt 1 view .LVU1189
  78:./tmk_core/protocol/lufa/LUFA-git/LUFA/Drivers/USB/Core/AVR8/Template/Template_Endpoint_Control_W.c **** 		  return ENDPOINT_RWCSTREAM_DeviceDisconnected;
 4230               		.loc 4 78 6 is_stmt 0 view .LVU1190
 4231 00be 8823      		tst r24
 4232 00c0 01F0      		breq .L318
  80:./tmk_core/protocol/lufa/LUFA-git/LUFA/Drivers/USB/Core/AVR8/Template/Template_Endpoint_Control_W.c **** 		  return ENDPOINT_RWCSTREAM_BusSuspended;
 4233               		.loc 4 80 8 is_stmt 1 view .LVU1191
  80:./tmk_core/protocol/lufa/LUFA-git/LUFA/Drivers/USB/Core/AVR8/Template/Template_Endpoint_Control_W.c **** 		  return ENDPOINT_RWCSTREAM_BusSuspended;
 4234               		.loc 4 80 11 is_stmt 0 view .LVU1192
 4235 00c2 8530      		cpi r24,lo8(5)
 4236 00c4 01F0      		breq .L319
  82:./tmk_core/protocol/lufa/LUFA-git/LUFA/Drivers/USB/Core/AVR8/Template/Template_Endpoint_Control_W.c **** 		  return ENDPOINT_RWCSTREAM_HostAborted;
 4237               		.loc 4 82 8 is_stmt 1 view .LVU1193
 4238               	.LBB489:
 4239               	.LBI489:
 429:./tmk_core/protocol/lufa/LUFA-git/LUFA/Drivers/USB/Core/AVR8/../AVR8/../AVR8/Endpoint_AVR8.h **** 			{
 4240               		.loc 2 429 23 view .LVU1194
 4241               	.LBB490:
 431:./tmk_core/protocol/lufa/LUFA-git/LUFA/Drivers/USB/Core/AVR8/../AVR8/../AVR8/Endpoint_AVR8.h **** 			}
 4242               		.loc 2 431 5 view .LVU1195
 431:./tmk_core/protocol/lufa/LUFA-git/LUFA/Drivers/USB/Core/AVR8/../AVR8/../AVR8/Endpoint_AVR8.h **** 			}
 4243               		.loc 2 431 14 is_stmt 0 view .LVU1196
 4244 00c6 8091 E800 		lds r24,232
 4245               	.LVL350:
 431:./tmk_core/protocol/lufa/LUFA-git/LUFA/Drivers/USB/Core/AVR8/../AVR8/../AVR8/Endpoint_AVR8.h **** 			}
 4246               		.loc 2 431 14 view .LVU1197
 4247               	.LBE490:
 4248               	.LBE489:
  82:./tmk_core/protocol/lufa/LUFA-git/LUFA/Drivers/USB/Core/AVR8/Template/Template_Endpoint_Control_W.c **** 		  return ENDPOINT_RWCSTREAM_HostAborted;
 4249               		.loc 4 82 11 view .LVU1198
 4250 00ca 83FF      		sbrs r24,3
 4251 00cc 00C0      		rjmp .L326
 4252               	.LVL351:
 4253               	.L320:
  82:./tmk_core/protocol/lufa/LUFA-git/LUFA/Drivers/USB/Core/AVR8/Template/Template_Endpoint_Control_W.c **** 		  return ENDPOINT_RWCSTREAM_HostAborted;
 4254               		.loc 4 82 11 view .LVU1199
 4255               	.LBE488:
 4256               	.LBB491:
  53:./tmk_core/protocol/lufa/LUFA-git/LUFA/Drivers/USB/Core/AVR8/Template/Template_Endpoint_Control_W.c **** 		else if (Endpoint_IsOUTReceived())
 4257               		.loc 4 53 12 view .LVU1200
 4258 00ce 81E0      		ldi r24,lo8(1)
 4259 00d0 00C0      		rjmp .L301
 4260               	.L318:
  49:./tmk_core/protocol/lufa/LUFA-git/LUFA/Drivers/USB/Core/AVR8/Template/Template_Endpoint_Control_W.c **** 		else if (USB_DeviceState_LCL == DEVICE_STATE_Suspended)
 4261               		.loc 4 49 12 view .LVU1201
 4262 00d2 82E0      		ldi r24,lo8(2)
 4263 00d4 00C0      		rjmp .L301
 4264               	.L319:
  51:./tmk_core/protocol/lufa/LUFA-git/LUFA/Drivers/USB/Core/AVR8/Template/Template_Endpoint_Control_W.c **** 		else if (Endpoint_IsSETUPReceived())
 4265               		.loc 4 51 12 view .LVU1202
 4266 00d6 83E0      		ldi r24,lo8(3)
 4267 00d8 00C0      		rjmp .L301
 4268               	.LBE491:
 4269               		.cfi_endproc
 4270               	.LFE107:
 4272               		.section	.text.Endpoint_Write_Control_EStream_BE,"ax",@progbits
 4273               	.global	Endpoint_Write_Control_EStream_BE
 4275               	Endpoint_Write_Control_EStream_BE:
 4276               	.LVL352:
 4277               	.LFB108:
  35:./tmk_core/protocol/lufa/LUFA-git/LUFA/Drivers/USB/Core/AVR8/Template/Template_Endpoint_Control_W.c **** 	uint8_t* DataStream     = ((uint8_t*)Buffer + TEMPLATE_BUFFER_OFFSET(Length));
 4278               		.loc 4 35 1 is_stmt 1 view -0
 4279               		.cfi_startproc
  35:./tmk_core/protocol/lufa/LUFA-git/LUFA/Drivers/USB/Core/AVR8/Template/Template_Endpoint_Control_W.c **** 	uint8_t* DataStream     = ((uint8_t*)Buffer + TEMPLATE_BUFFER_OFFSET(Length));
 4280               		.loc 4 35 1 is_stmt 0 view .LVU1204
 4281 0000 EF92      		push r14
 4282               	.LCFI110:
 4283               		.cfi_def_cfa_offset 3
 4284               		.cfi_offset 14, -2
 4285 0002 FF92      		push r15
 4286               	.LCFI111:
 4287               		.cfi_def_cfa_offset 4
 4288               		.cfi_offset 15, -3
 4289 0004 0F93      		push r16
 4290               	.LCFI112:
 4291               		.cfi_def_cfa_offset 5
 4292               		.cfi_offset 16, -4
 4293 0006 1F93      		push r17
 4294               	.LCFI113:
 4295               		.cfi_def_cfa_offset 6
 4296               		.cfi_offset 17, -5
 4297 0008 CF93      		push r28
 4298               	.LCFI114:
 4299               		.cfi_def_cfa_offset 7
 4300               		.cfi_offset 28, -6
 4301 000a DF93      		push r29
 4302               	.LCFI115:
 4303               		.cfi_def_cfa_offset 8
 4304               		.cfi_offset 29, -7
 4305               	/* prologue: function */
 4306               	/* frame size = 0 */
 4307               	/* stack size = 6 */
 4308               	.L__stack_usage = 6
 4309 000c 9B01      		movw r18,r22
  36:./tmk_core/protocol/lufa/LUFA-git/LUFA/Drivers/USB/Core/AVR8/Template/Template_Endpoint_Control_W.c **** 	bool     LastPacketFull = false;
 4310               		.loc 4 36 2 is_stmt 1 view .LVU1205
  36:./tmk_core/protocol/lufa/LUFA-git/LUFA/Drivers/USB/Core/AVR8/Template/Template_Endpoint_Control_W.c **** 	bool     LastPacketFull = false;
 4311               		.loc 4 36 46 is_stmt 0 view .LVU1206
 4312 000e 8B01      		movw r16,r22
 4313 0010 0150      		subi r16,1
 4314 0012 1109      		sbc r17,__zero_reg__
  36:./tmk_core/protocol/lufa/LUFA-git/LUFA/Drivers/USB/Core/AVR8/Template/Template_Endpoint_Control_W.c **** 	bool     LastPacketFull = false;
 4315               		.loc 4 36 11 view .LVU1207
 4316 0014 080F      		add r16,r24
 4317 0016 191F      		adc r17,r25
 4318               	.LVL353:
  37:./tmk_core/protocol/lufa/LUFA-git/LUFA/Drivers/USB/Core/AVR8/Template/Template_Endpoint_Control_W.c **** 
 4319               		.loc 4 37 2 is_stmt 1 view .LVU1208
  39:./tmk_core/protocol/lufa/LUFA-git/LUFA/Drivers/USB/Core/AVR8/Template/Template_Endpoint_Control_W.c **** 	  Length = USB_ControlRequest.wLength;
 4320               		.loc 4 39 2 view .LVU1209
  39:./tmk_core/protocol/lufa/LUFA-git/LUFA/Drivers/USB/Core/AVR8/Template/Template_Endpoint_Control_W.c **** 	  Length = USB_ControlRequest.wLength;
 4321               		.loc 4 39 33 is_stmt 0 view .LVU1210
 4322 0018 C091 0000 		lds r28,USB_ControlRequest+6
 4323 001c D091 0000 		lds r29,USB_ControlRequest+6+1
  39:./tmk_core/protocol/lufa/LUFA-git/LUFA/Drivers/USB/Core/AVR8/Template/Template_Endpoint_Control_W.c **** 	  Length = USB_ControlRequest.wLength;
 4324               		.loc 4 39 5 view .LVU1211
 4325 0020 C617      		cp r28,r22
 4326 0022 D707      		cpc r29,r23
 4327 0024 00F0      		brlo .L331
  41:./tmk_core/protocol/lufa/LUFA-git/LUFA/Drivers/USB/Core/AVR8/Template/Template_Endpoint_Control_W.c **** 	  Endpoint_ClearIN();
 4328               		.loc 4 41 7 is_stmt 1 view .LVU1212
  41:./tmk_core/protocol/lufa/LUFA-git/LUFA/Drivers/USB/Core/AVR8/Template/Template_Endpoint_Control_W.c **** 	  Endpoint_ClearIN();
 4329               		.loc 4 41 10 is_stmt 0 view .LVU1213
 4330 0026 672B      		or r22,r23
 4331 0028 01F0      		breq .L332
 4332               	.LVL354:
 4333               	.L333:
  35:./tmk_core/protocol/lufa/LUFA-git/LUFA/Drivers/USB/Core/AVR8/Template/Template_Endpoint_Control_W.c **** 	uint8_t* DataStream     = ((uint8_t*)Buffer + TEMPLATE_BUFFER_OFFSET(Length));
 4334               		.loc 4 35 1 view .LVU1214
 4335 002a E901      		movw r28,r18
 4336               	.LVL355:
 4337               	.L331:
  35:./tmk_core/protocol/lufa/LUFA-git/LUFA/Drivers/USB/Core/AVR8/Template/Template_Endpoint_Control_W.c **** 	uint8_t* DataStream     = ((uint8_t*)Buffer + TEMPLATE_BUFFER_OFFSET(Length));
 4338               		.loc 4 35 1 view .LVU1215
 4339 002c 80E0      		ldi r24,0
 4340               	.LVL356:
 4341               	.L337:
  44:./tmk_core/protocol/lufa/LUFA-git/LUFA/Drivers/USB/Core/AVR8/Template/Template_Endpoint_Control_W.c **** 	{
 4342               		.loc 4 44 16 is_stmt 1 view .LVU1216
 4343 002e 2097      		sbiw r28,0
 4344 0030 01F4      		brne .L342
  44:./tmk_core/protocol/lufa/LUFA-git/LUFA/Drivers/USB/Core/AVR8/Template/Template_Endpoint_Control_W.c **** 	{
 4345               		.loc 4 44 16 is_stmt 0 discriminator 1 view .LVU1217
 4346 0032 8111      		cpse r24,__zero_reg__
 4347 0034 00C0      		rjmp .L342
 4348               	.LVL357:
 4349               	.L355:
  74:./tmk_core/protocol/lufa/LUFA-git/LUFA/Drivers/USB/Core/AVR8/Template/Template_Endpoint_Control_W.c **** 	{
 4350               		.loc 4 74 9 is_stmt 1 view .LVU1218
 4351               	.LBB492:
 4352               	.LBI492:
 417:./tmk_core/protocol/lufa/LUFA-git/LUFA/Drivers/USB/Core/AVR8/../AVR8/../AVR8/Endpoint_AVR8.h **** 			{
 4353               		.loc 2 417 23 view .LVU1219
 4354               	.LBB493:
 419:./tmk_core/protocol/lufa/LUFA-git/LUFA/Drivers/USB/Core/AVR8/../AVR8/../AVR8/Endpoint_AVR8.h **** 			}
 4355               		.loc 2 419 5 view .LVU1220
 419:./tmk_core/protocol/lufa/LUFA-git/LUFA/Drivers/USB/Core/AVR8/../AVR8/../AVR8/Endpoint_AVR8.h **** 			}
 4356               		.loc 2 419 14 is_stmt 0 view .LVU1221
 4357 0036 8091 E800 		lds r24,232
 4358               	.LBE493:
 4359               	.LBE492:
  74:./tmk_core/protocol/lufa/LUFA-git/LUFA/Drivers/USB/Core/AVR8/Template/Template_Endpoint_Control_W.c **** 	{
 4360               		.loc 4 74 9 view .LVU1222
 4361 003a 82FF      		sbrs r24,2
 4362 003c 00C0      		rjmp .L343
  86:./tmk_core/protocol/lufa/LUFA-git/LUFA/Drivers/USB/Core/AVR8/Template/Template_Endpoint_Control_W.c **** }
 4363               		.loc 4 86 9 view .LVU1223
 4364 003e 80E0      		ldi r24,0
 4365               	.L330:
 4366               	/* epilogue start */
 4367               		.loc 4 87 1 view .LVU1224
 4368 0040 DF91      		pop r29
 4369 0042 CF91      		pop r28
 4370               	.LVL358:
 4371               		.loc 4 87 1 view .LVU1225
 4372 0044 1F91      		pop r17
 4373 0046 0F91      		pop r16
 4374               	.LVL359:
 4375               		.loc 4 87 1 view .LVU1226
 4376 0048 FF90      		pop r15
 4377 004a EF90      		pop r14
 4378 004c 0895      		ret
 4379               	.LVL360:
 4380               	.L332:
  42:./tmk_core/protocol/lufa/LUFA-git/LUFA/Drivers/USB/Core/AVR8/Template/Template_Endpoint_Control_W.c **** 
 4381               		.loc 4 42 4 is_stmt 1 view .LVU1227
 4382               	.LBB494:
 4383               	.LBI494:
 453:./tmk_core/protocol/lufa/LUFA-git/LUFA/Drivers/USB/Core/AVR8/../AVR8/../AVR8/Endpoint_AVR8.h **** 			{
 4384               		.loc 2 453 23 view .LVU1228
 4385               	.LBB495:
 456:./tmk_core/protocol/lufa/LUFA-git/LUFA/Drivers/USB/Core/AVR8/../AVR8/../AVR8/Endpoint_AVR8.h **** 				#else
 4386               		.loc 2 456 6 view .LVU1229
 456:./tmk_core/protocol/lufa/LUFA-git/LUFA/Drivers/USB/Core/AVR8/../AVR8/../AVR8/Endpoint_AVR8.h **** 				#else
 4387               		.loc 2 456 13 is_stmt 0 view .LVU1230
 4388 004e 8091 E800 		lds r24,232
 4389               	.LVL361:
 456:./tmk_core/protocol/lufa/LUFA-git/LUFA/Drivers/USB/Core/AVR8/../AVR8/../AVR8/Endpoint_AVR8.h **** 				#else
 4390               		.loc 2 456 13 view .LVU1231
 4391 0052 8E77      		andi r24,lo8(126)
 4392 0054 8093 E800 		sts 232,r24
 460:./tmk_core/protocol/lufa/LUFA-git/LUFA/Drivers/USB/Core/AVR8/../AVR8/../AVR8/Endpoint_AVR8.h **** 
 4393               		.loc 2 460 4 view .LVU1232
 4394 0058 00C0      		rjmp .L333
 4395               	.LVL362:
 4396               	.L342:
 460:./tmk_core/protocol/lufa/LUFA-git/LUFA/Drivers/USB/Core/AVR8/../AVR8/../AVR8/Endpoint_AVR8.h **** 
 4397               		.loc 2 460 4 view .LVU1233
 4398               	.LBE495:
 4399               	.LBE494:
 4400               	.LBB496:
  46:./tmk_core/protocol/lufa/LUFA-git/LUFA/Drivers/USB/Core/AVR8/Template/Template_Endpoint_Control_W.c **** 
 4401               		.loc 4 46 3 is_stmt 1 view .LVU1234
  46:./tmk_core/protocol/lufa/LUFA-git/LUFA/Drivers/USB/Core/AVR8/Template/Template_Endpoint_Control_W.c **** 
 4402               		.loc 4 46 11 is_stmt 0 view .LVU1235
 4403 005a 9091 0000 		lds r25,USB_DeviceState
 4404               	.LVL363:
  48:./tmk_core/protocol/lufa/LUFA-git/LUFA/Drivers/USB/Core/AVR8/Template/Template_Endpoint_Control_W.c **** 		  return ENDPOINT_RWCSTREAM_DeviceDisconnected;
 4405               		.loc 4 48 3 is_stmt 1 view .LVU1236
  48:./tmk_core/protocol/lufa/LUFA-git/LUFA/Drivers/USB/Core/AVR8/Template/Template_Endpoint_Control_W.c **** 		  return ENDPOINT_RWCSTREAM_DeviceDisconnected;
 4406               		.loc 4 48 6 is_stmt 0 view .LVU1237
 4407 005e 9923      		tst r25
 4408 0060 01F0      		breq .L347
  50:./tmk_core/protocol/lufa/LUFA-git/LUFA/Drivers/USB/Core/AVR8/Template/Template_Endpoint_Control_W.c **** 		  return ENDPOINT_RWCSTREAM_BusSuspended;
 4409               		.loc 4 50 8 is_stmt 1 view .LVU1238
  50:./tmk_core/protocol/lufa/LUFA-git/LUFA/Drivers/USB/Core/AVR8/Template/Template_Endpoint_Control_W.c **** 		  return ENDPOINT_RWCSTREAM_BusSuspended;
 4410               		.loc 4 50 11 is_stmt 0 view .LVU1239
 4411 0062 9530      		cpi r25,lo8(5)
 4412 0064 01F0      		breq .L348
  52:./tmk_core/protocol/lufa/LUFA-git/LUFA/Drivers/USB/Core/AVR8/Template/Template_Endpoint_Control_W.c **** 		  return ENDPOINT_RWCSTREAM_HostAborted;
 4413               		.loc 4 52 8 is_stmt 1 view .LVU1240
 4414               	.LBB497:
 4415               	.LBI497:
 429:./tmk_core/protocol/lufa/LUFA-git/LUFA/Drivers/USB/Core/AVR8/../AVR8/../AVR8/Endpoint_AVR8.h **** 			{
 4416               		.loc 2 429 23 view .LVU1241
 4417               	.LBB498:
 431:./tmk_core/protocol/lufa/LUFA-git/LUFA/Drivers/USB/Core/AVR8/../AVR8/../AVR8/Endpoint_AVR8.h **** 			}
 4418               		.loc 2 431 5 view .LVU1242
 431:./tmk_core/protocol/lufa/LUFA-git/LUFA/Drivers/USB/Core/AVR8/../AVR8/../AVR8/Endpoint_AVR8.h **** 			}
 4419               		.loc 2 431 14 is_stmt 0 view .LVU1243
 4420 0066 9091 E800 		lds r25,232
 4421               	.LVL364:
 431:./tmk_core/protocol/lufa/LUFA-git/LUFA/Drivers/USB/Core/AVR8/../AVR8/../AVR8/Endpoint_AVR8.h **** 			}
 4422               		.loc 2 431 14 view .LVU1244
 4423               	.LBE498:
 4424               	.LBE497:
  52:./tmk_core/protocol/lufa/LUFA-git/LUFA/Drivers/USB/Core/AVR8/Template/Template_Endpoint_Control_W.c **** 		  return ENDPOINT_RWCSTREAM_HostAborted;
 4425               		.loc 4 52 11 view .LVU1245
 4426 006a 93FD      		sbrc r25,3
 4427 006c 00C0      		rjmp .L349
  54:./tmk_core/protocol/lufa/LUFA-git/LUFA/Drivers/USB/Core/AVR8/Template/Template_Endpoint_Control_W.c **** 		  break;
 4428               		.loc 4 54 8 is_stmt 1 view .LVU1246
 4429               	.LBB499:
 4430               	.LBI499:
 417:./tmk_core/protocol/lufa/LUFA-git/LUFA/Drivers/USB/Core/AVR8/../AVR8/../AVR8/Endpoint_AVR8.h **** 			{
 4431               		.loc 2 417 23 view .LVU1247
 4432               	.LBB500:
 419:./tmk_core/protocol/lufa/LUFA-git/LUFA/Drivers/USB/Core/AVR8/../AVR8/../AVR8/Endpoint_AVR8.h **** 			}
 4433               		.loc 2 419 5 view .LVU1248
 419:./tmk_core/protocol/lufa/LUFA-git/LUFA/Drivers/USB/Core/AVR8/../AVR8/../AVR8/Endpoint_AVR8.h **** 			}
 4434               		.loc 2 419 14 is_stmt 0 view .LVU1249
 4435 006e 9091 E800 		lds r25,232
 4436               	.LBE500:
 4437               	.LBE499:
  54:./tmk_core/protocol/lufa/LUFA-git/LUFA/Drivers/USB/Core/AVR8/Template/Template_Endpoint_Control_W.c **** 		  break;
 4438               		.loc 4 54 11 view .LVU1250
 4439 0072 92FD      		sbrc r25,2
 4440 0074 00C0      		rjmp .L355
  57:./tmk_core/protocol/lufa/LUFA-git/LUFA/Drivers/USB/Core/AVR8/Template/Template_Endpoint_Control_W.c **** 		{
 4441               		.loc 4 57 3 is_stmt 1 view .LVU1251
 4442               	.LBB501:
 4443               	.LBI501:
 405:./tmk_core/protocol/lufa/LUFA-git/LUFA/Drivers/USB/Core/AVR8/../AVR8/../AVR8/Endpoint_AVR8.h **** 			{
 4444               		.loc 2 405 23 view .LVU1252
 4445               	.LBB502:
 407:./tmk_core/protocol/lufa/LUFA-git/LUFA/Drivers/USB/Core/AVR8/../AVR8/../AVR8/Endpoint_AVR8.h **** 			}
 4446               		.loc 2 407 5 view .LVU1253
 407:./tmk_core/protocol/lufa/LUFA-git/LUFA/Drivers/USB/Core/AVR8/../AVR8/../AVR8/Endpoint_AVR8.h **** 			}
 4447               		.loc 2 407 14 is_stmt 0 view .LVU1254
 4448 0076 9091 E800 		lds r25,232
 4449               	.LBE502:
 4450               	.LBE501:
  57:./tmk_core/protocol/lufa/LUFA-git/LUFA/Drivers/USB/Core/AVR8/Template/Template_Endpoint_Control_W.c **** 		{
 4451               		.loc 4 57 6 view .LVU1255
 4452 007a 90FF      		sbrs r25,0
 4453 007c 00C0      		rjmp .L337
 4454               	.LBB503:
  59:./tmk_core/protocol/lufa/LUFA-git/LUFA/Drivers/USB/Core/AVR8/Template/Template_Endpoint_Control_W.c **** 
 4455               		.loc 4 59 4 is_stmt 1 view .LVU1256
 4456               	.LBB504:
 4457               	.LBI504:
 222:./tmk_core/protocol/lufa/LUFA-git/LUFA/Drivers/USB/Core/AVR8/../AVR8/../AVR8/Endpoint_AVR8.h **** 			{
 4458               		.loc 2 222 27 view .LVU1257
 4459               	.LBB505:
 225:./tmk_core/protocol/lufa/LUFA-git/LUFA/Drivers/USB/Core/AVR8/../AVR8/../AVR8/Endpoint_AVR8.h **** 				#elif defined(USB_SERIES_4_AVR)
 4460               		.loc 2 225 6 view .LVU1258
 225:./tmk_core/protocol/lufa/LUFA-git/LUFA/Drivers/USB/Core/AVR8/../AVR8/../AVR8/Endpoint_AVR8.h **** 				#elif defined(USB_SERIES_4_AVR)
 4461               		.loc 2 225 13 is_stmt 0 view .LVU1259
 4462 007e E090 F200 		lds r14,242
 4463 0082 F090 F300 		lds r15,242+1
 4464               	.LVL365:
 225:./tmk_core/protocol/lufa/LUFA-git/LUFA/Drivers/USB/Core/AVR8/../AVR8/../AVR8/Endpoint_AVR8.h **** 				#elif defined(USB_SERIES_4_AVR)
 4465               		.loc 2 225 13 view .LVU1260
 4466               	.LBE505:
 4467               	.LBE504:
  61:./tmk_core/protocol/lufa/LUFA-git/LUFA/Drivers/USB/Core/AVR8/Template/Template_Endpoint_Control_W.c **** 			{
 4468               		.loc 4 61 4 is_stmt 1 view .LVU1261
 4469               	.L338:
  61:./tmk_core/protocol/lufa/LUFA-git/LUFA/Drivers/USB/Core/AVR8/Template/Template_Endpoint_Control_W.c **** 			{
 4470               		.loc 4 61 18 view .LVU1262
 4471 0086 2097      		sbiw r28,0
 4472 0088 01F0      		breq .L339
  61:./tmk_core/protocol/lufa/LUFA-git/LUFA/Drivers/USB/Core/AVR8/Template/Template_Endpoint_Control_W.c **** 			{
 4473               		.loc 4 61 18 is_stmt 0 discriminator 1 view .LVU1263
 4474 008a 98E0      		ldi r25,8
 4475 008c E916      		cp r14,r25
 4476 008e F104      		cpc r15,__zero_reg__
 4477 0090 00F0      		brlo .L340
 4478               	.L339:
  69:./tmk_core/protocol/lufa/LUFA-git/LUFA/Drivers/USB/Core/AVR8/Template/Template_Endpoint_Control_W.c **** 			Endpoint_ClearIN();
 4479               		.loc 4 69 4 is_stmt 1 view .LVU1264
  69:./tmk_core/protocol/lufa/LUFA-git/LUFA/Drivers/USB/Core/AVR8/Template/Template_Endpoint_Control_W.c **** 			Endpoint_ClearIN();
 4480               		.loc 4 69 19 is_stmt 0 view .LVU1265
 4481 0092 81E0      		ldi r24,lo8(1)
 4482 0094 98E0      		ldi r25,8
 4483 0096 E916      		cp r14,r25
 4484 0098 F104      		cpc r15,__zero_reg__
 4485 009a 01F0      		breq .L341
 4486 009c 80E0      		ldi r24,0
 4487               	.L341:
 4488               	.LVL366:
  70:./tmk_core/protocol/lufa/LUFA-git/LUFA/Drivers/USB/Core/AVR8/Template/Template_Endpoint_Control_W.c **** 		}
 4489               		.loc 4 70 4 is_stmt 1 view .LVU1266
 4490               	.LBB506:
 4491               	.LBI506:
 453:./tmk_core/protocol/lufa/LUFA-git/LUFA/Drivers/USB/Core/AVR8/../AVR8/../AVR8/Endpoint_AVR8.h **** 			{
 4492               		.loc 2 453 23 view .LVU1267
 4493               	.LBB507:
 456:./tmk_core/protocol/lufa/LUFA-git/LUFA/Drivers/USB/Core/AVR8/../AVR8/../AVR8/Endpoint_AVR8.h **** 				#else
 4494               		.loc 2 456 6 view .LVU1268
 456:./tmk_core/protocol/lufa/LUFA-git/LUFA/Drivers/USB/Core/AVR8/../AVR8/../AVR8/Endpoint_AVR8.h **** 				#else
 4495               		.loc 2 456 13 is_stmt 0 view .LVU1269
 4496 009e 9091 E800 		lds r25,232
 4497 00a2 9E77      		andi r25,lo8(126)
 4498 00a4 9093 E800 		sts 232,r25
 4499               	.LVL367:
 460:./tmk_core/protocol/lufa/LUFA-git/LUFA/Drivers/USB/Core/AVR8/../AVR8/../AVR8/Endpoint_AVR8.h **** 
 4500               		.loc 2 460 4 view .LVU1270
 4501 00a8 00C0      		rjmp .L337
 4502               	.LVL368:
 4503               	.L340:
 460:./tmk_core/protocol/lufa/LUFA-git/LUFA/Drivers/USB/Core/AVR8/../AVR8/../AVR8/Endpoint_AVR8.h **** 
 4504               		.loc 2 460 4 view .LVU1271
 4505               	.LBE507:
 4506               	.LBE506:
  63:./tmk_core/protocol/lufa/LUFA-git/LUFA/Drivers/USB/Core/AVR8/Template/Template_Endpoint_Control_W.c **** 				TEMPLATE_BUFFER_MOVE(DataStream, 1);
 4507               		.loc 4 63 5 is_stmt 1 view .LVU1272
 4508 00aa C801      		movw r24,r16
 4509 00ac 0E94 0000 		call eeprom_read_byte
 4510               	.LVL369:
 4511               	.LBB508:
 4512               	.LBI508:
 552:./tmk_core/protocol/lufa/LUFA-git/LUFA/Drivers/USB/Core/AVR8/../AVR8/../AVR8/Endpoint_AVR8.h **** 			{
 4513               		.loc 2 552 23 view .LVU1273
 4514               	.LBB509:
 554:./tmk_core/protocol/lufa/LUFA-git/LUFA/Drivers/USB/Core/AVR8/../AVR8/../AVR8/Endpoint_AVR8.h **** 			}
 4515               		.loc 2 554 5 view .LVU1274
 554:./tmk_core/protocol/lufa/LUFA-git/LUFA/Drivers/USB/Core/AVR8/../AVR8/../AVR8/Endpoint_AVR8.h **** 			}
 4516               		.loc 2 554 12 is_stmt 0 view .LVU1275
 4517 00b0 8093 F100 		sts 241,r24
 4518               	.LVL370:
 554:./tmk_core/protocol/lufa/LUFA-git/LUFA/Drivers/USB/Core/AVR8/../AVR8/../AVR8/Endpoint_AVR8.h **** 			}
 4519               		.loc 2 554 12 view .LVU1276
 4520               	.LBE509:
 4521               	.LBE508:
  64:./tmk_core/protocol/lufa/LUFA-git/LUFA/Drivers/USB/Core/AVR8/Template/Template_Endpoint_Control_W.c **** 				Length--;
 4522               		.loc 4 64 5 is_stmt 1 view .LVU1277
 4523 00b4 0150      		subi r16,1
 4524 00b6 1109      		sbc r17,__zero_reg__
 4525               	.LVL371:
  65:./tmk_core/protocol/lufa/LUFA-git/LUFA/Drivers/USB/Core/AVR8/Template/Template_Endpoint_Control_W.c **** 				BytesInEndpoint++;
 4526               		.loc 4 65 5 view .LVU1278
  65:./tmk_core/protocol/lufa/LUFA-git/LUFA/Drivers/USB/Core/AVR8/Template/Template_Endpoint_Control_W.c **** 				BytesInEndpoint++;
 4527               		.loc 4 65 11 is_stmt 0 view .LVU1279
 4528 00b8 2197      		sbiw r28,1
 4529               	.LVL372:
  66:./tmk_core/protocol/lufa/LUFA-git/LUFA/Drivers/USB/Core/AVR8/Template/Template_Endpoint_Control_W.c **** 			}
 4530               		.loc 4 66 5 is_stmt 1 view .LVU1280
  66:./tmk_core/protocol/lufa/LUFA-git/LUFA/Drivers/USB/Core/AVR8/Template/Template_Endpoint_Control_W.c **** 			}
 4531               		.loc 4 66 20 is_stmt 0 view .LVU1281
 4532 00ba 8FEF      		ldi r24,-1
 4533 00bc E81A      		sub r14,r24
 4534 00be F80A      		sbc r15,r24
 4535               	.LVL373:
  66:./tmk_core/protocol/lufa/LUFA-git/LUFA/Drivers/USB/Core/AVR8/Template/Template_Endpoint_Control_W.c **** 			}
 4536               		.loc 4 66 20 view .LVU1282
 4537 00c0 00C0      		rjmp .L338
 4538               	.LVL374:
 4539               	.L343:
  66:./tmk_core/protocol/lufa/LUFA-git/LUFA/Drivers/USB/Core/AVR8/Template/Template_Endpoint_Control_W.c **** 			}
 4540               		.loc 4 66 20 view .LVU1283
 4541               	.LBE503:
 4542               	.LBE496:
 4543               	.LBB510:
  76:./tmk_core/protocol/lufa/LUFA-git/LUFA/Drivers/USB/Core/AVR8/Template/Template_Endpoint_Control_W.c **** 
 4544               		.loc 4 76 3 is_stmt 1 view .LVU1284
  76:./tmk_core/protocol/lufa/LUFA-git/LUFA/Drivers/USB/Core/AVR8/Template/Template_Endpoint_Control_W.c **** 
 4545               		.loc 4 76 11 is_stmt 0 view .LVU1285
 4546 00c2 8091 0000 		lds r24,USB_DeviceState
 4547               	.LVL375:
  78:./tmk_core/protocol/lufa/LUFA-git/LUFA/Drivers/USB/Core/AVR8/Template/Template_Endpoint_Control_W.c **** 		  return ENDPOINT_RWCSTREAM_DeviceDisconnected;
 4548               		.loc 4 78 3 is_stmt 1 view .LVU1286
  78:./tmk_core/protocol/lufa/LUFA-git/LUFA/Drivers/USB/Core/AVR8/Template/Template_Endpoint_Control_W.c **** 		  return ENDPOINT_RWCSTREAM_DeviceDisconnected;
 4549               		.loc 4 78 6 is_stmt 0 view .LVU1287
 4550 00c6 8823      		tst r24
 4551 00c8 01F0      		breq .L347
  80:./tmk_core/protocol/lufa/LUFA-git/LUFA/Drivers/USB/Core/AVR8/Template/Template_Endpoint_Control_W.c **** 		  return ENDPOINT_RWCSTREAM_BusSuspended;
 4552               		.loc 4 80 8 is_stmt 1 view .LVU1288
  80:./tmk_core/protocol/lufa/LUFA-git/LUFA/Drivers/USB/Core/AVR8/Template/Template_Endpoint_Control_W.c **** 		  return ENDPOINT_RWCSTREAM_BusSuspended;
 4553               		.loc 4 80 11 is_stmt 0 view .LVU1289
 4554 00ca 8530      		cpi r24,lo8(5)
 4555 00cc 01F0      		breq .L348
  82:./tmk_core/protocol/lufa/LUFA-git/LUFA/Drivers/USB/Core/AVR8/Template/Template_Endpoint_Control_W.c **** 		  return ENDPOINT_RWCSTREAM_HostAborted;
 4556               		.loc 4 82 8 is_stmt 1 view .LVU1290
 4557               	.LBB511:
 4558               	.LBI511:
 429:./tmk_core/protocol/lufa/LUFA-git/LUFA/Drivers/USB/Core/AVR8/../AVR8/../AVR8/Endpoint_AVR8.h **** 			{
 4559               		.loc 2 429 23 view .LVU1291
 4560               	.LBB512:
 431:./tmk_core/protocol/lufa/LUFA-git/LUFA/Drivers/USB/Core/AVR8/../AVR8/../AVR8/Endpoint_AVR8.h **** 			}
 4561               		.loc 2 431 5 view .LVU1292
 431:./tmk_core/protocol/lufa/LUFA-git/LUFA/Drivers/USB/Core/AVR8/../AVR8/../AVR8/Endpoint_AVR8.h **** 			}
 4562               		.loc 2 431 14 is_stmt 0 view .LVU1293
 4563 00ce 8091 E800 		lds r24,232
 4564               	.LVL376:
 431:./tmk_core/protocol/lufa/LUFA-git/LUFA/Drivers/USB/Core/AVR8/../AVR8/../AVR8/Endpoint_AVR8.h **** 			}
 4565               		.loc 2 431 14 view .LVU1294
 4566               	.LBE512:
 4567               	.LBE511:
  82:./tmk_core/protocol/lufa/LUFA-git/LUFA/Drivers/USB/Core/AVR8/Template/Template_Endpoint_Control_W.c **** 		  return ENDPOINT_RWCSTREAM_HostAborted;
 4568               		.loc 4 82 11 view .LVU1295
 4569 00d2 83FF      		sbrs r24,3
 4570 00d4 00C0      		rjmp .L355
 4571               	.LVL377:
 4572               	.L349:
  82:./tmk_core/protocol/lufa/LUFA-git/LUFA/Drivers/USB/Core/AVR8/Template/Template_Endpoint_Control_W.c **** 		  return ENDPOINT_RWCSTREAM_HostAborted;
 4573               		.loc 4 82 11 view .LVU1296
 4574               	.LBE510:
 4575               	.LBB513:
  53:./tmk_core/protocol/lufa/LUFA-git/LUFA/Drivers/USB/Core/AVR8/Template/Template_Endpoint_Control_W.c **** 		else if (Endpoint_IsOUTReceived())
 4576               		.loc 4 53 12 view .LVU1297
 4577 00d6 81E0      		ldi r24,lo8(1)
 4578 00d8 00C0      		rjmp .L330
 4579               	.L347:
  49:./tmk_core/protocol/lufa/LUFA-git/LUFA/Drivers/USB/Core/AVR8/Template/Template_Endpoint_Control_W.c **** 		else if (USB_DeviceState_LCL == DEVICE_STATE_Suspended)
 4580               		.loc 4 49 12 view .LVU1298
 4581 00da 82E0      		ldi r24,lo8(2)
 4582 00dc 00C0      		rjmp .L330
 4583               	.L348:
  51:./tmk_core/protocol/lufa/LUFA-git/LUFA/Drivers/USB/Core/AVR8/Template/Template_Endpoint_Control_W.c **** 		else if (Endpoint_IsSETUPReceived())
 4584               		.loc 4 51 12 view .LVU1299
 4585 00de 83E0      		ldi r24,lo8(3)
 4586 00e0 00C0      		rjmp .L330
 4587               	.LBE513:
 4588               		.cfi_endproc
 4589               	.LFE108:
 4591               		.section	.text.Endpoint_Read_Control_EStream_LE,"ax",@progbits
 4592               	.global	Endpoint_Read_Control_EStream_LE
 4594               	Endpoint_Read_Control_EStream_LE:
 4595               	.LVL378:
 4596               	.LFB109:
  35:./tmk_core/protocol/lufa/LUFA-git/LUFA/Drivers/USB/Core/AVR8/Template/Template_Endpoint_Control_R.c **** 	uint8_t* DataStream = ((uint8_t*)Buffer + TEMPLATE_BUFFER_OFFSET(Length));
 4597               		.loc 5 35 1 is_stmt 1 view -0
 4598               		.cfi_startproc
  35:./tmk_core/protocol/lufa/LUFA-git/LUFA/Drivers/USB/Core/AVR8/Template/Template_Endpoint_Control_R.c **** 	uint8_t* DataStream = ((uint8_t*)Buffer + TEMPLATE_BUFFER_OFFSET(Length));
 4599               		.loc 5 35 1 is_stmt 0 view .LVU1301
 4600 0000 0F93      		push r16
 4601               	.LCFI116:
 4602               		.cfi_def_cfa_offset 3
 4603               		.cfi_offset 16, -2
 4604 0002 1F93      		push r17
 4605               	.LCFI117:
 4606               		.cfi_def_cfa_offset 4
 4607               		.cfi_offset 17, -3
 4608 0004 CF93      		push r28
 4609               	.LCFI118:
 4610               		.cfi_def_cfa_offset 5
 4611               		.cfi_offset 28, -4
 4612 0006 DF93      		push r29
 4613               	.LCFI119:
 4614               		.cfi_def_cfa_offset 6
 4615               		.cfi_offset 29, -5
 4616               	/* prologue: function */
 4617               	/* frame size = 0 */
 4618               	/* stack size = 4 */
 4619               	.L__stack_usage = 4
 4620 0008 8C01      		movw r16,r24
 4621 000a EB01      		movw r28,r22
  36:./tmk_core/protocol/lufa/LUFA-git/LUFA/Drivers/USB/Core/AVR8/Template/Template_Endpoint_Control_R.c **** 
 4622               		.loc 5 36 2 is_stmt 1 view .LVU1302
 4623               	.LVL379:
  38:./tmk_core/protocol/lufa/LUFA-git/LUFA/Drivers/USB/Core/AVR8/Template/Template_Endpoint_Control_R.c **** 	  Endpoint_ClearOUT();
 4624               		.loc 5 38 2 view .LVU1303
  38:./tmk_core/protocol/lufa/LUFA-git/LUFA/Drivers/USB/Core/AVR8/Template/Template_Endpoint_Control_R.c **** 	  Endpoint_ClearOUT();
 4625               		.loc 5 38 5 is_stmt 0 view .LVU1304
 4626 000c 2097      		sbiw r28,0
 4627 000e 01F4      		brne .L364
 4628               	.LVL380:
 4629               	.L365:
 4630               	.LBB514:
  61:./tmk_core/protocol/lufa/LUFA-git/LUFA/Drivers/USB/Core/AVR8/Template/Template_Endpoint_Control_R.c **** 		}
 4631               		.loc 5 61 4 is_stmt 1 view .LVU1305
 4632               	.LBB515:
 4633               	.LBI515:
 468:./tmk_core/protocol/lufa/LUFA-git/LUFA/Drivers/USB/Core/AVR8/../AVR8/../AVR8/Endpoint_AVR8.h **** 			{
 4634               		.loc 2 468 23 view .LVU1306
 4635               	.LBB516:
 471:./tmk_core/protocol/lufa/LUFA-git/LUFA/Drivers/USB/Core/AVR8/../AVR8/../AVR8/Endpoint_AVR8.h **** 				#else
 4636               		.loc 2 471 6 view .LVU1307
 471:./tmk_core/protocol/lufa/LUFA-git/LUFA/Drivers/USB/Core/AVR8/../AVR8/../AVR8/Endpoint_AVR8.h **** 				#else
 4637               		.loc 2 471 13 is_stmt 0 view .LVU1308
 4638 0010 8091 E800 		lds r24,232
 4639 0014 8B77      		andi r24,lo8(123)
 4640 0016 8093 E800 		sts 232,r24
 471:./tmk_core/protocol/lufa/LUFA-git/LUFA/Drivers/USB/Core/AVR8/../AVR8/../AVR8/Endpoint_AVR8.h **** 				#else
 4641               		.loc 2 471 13 view .LVU1309
 4642               	.LBE516:
 4643               	.LBE515:
 4644               	.LBE514:
  41:./tmk_core/protocol/lufa/LUFA-git/LUFA/Drivers/USB/Core/AVR8/Template/Template_Endpoint_Control_R.c **** 	{
 4645               		.loc 5 41 9 is_stmt 1 view .LVU1310
 4646 001a 2097      		sbiw r28,0
 4647 001c 01F4      		brne .L364
 4648               	.L367:
  65:./tmk_core/protocol/lufa/LUFA-git/LUFA/Drivers/USB/Core/AVR8/Template/Template_Endpoint_Control_R.c **** 	{
 4649               		.loc 5 65 9 view .LVU1311
 4650               	.LBB525:
 4651               	.LBI525:
 405:./tmk_core/protocol/lufa/LUFA-git/LUFA/Drivers/USB/Core/AVR8/../AVR8/../AVR8/Endpoint_AVR8.h **** 			{
 4652               		.loc 2 405 23 view .LVU1312
 4653               	.LBB526:
 407:./tmk_core/protocol/lufa/LUFA-git/LUFA/Drivers/USB/Core/AVR8/../AVR8/../AVR8/Endpoint_AVR8.h **** 			}
 4654               		.loc 2 407 5 view .LVU1313
 407:./tmk_core/protocol/lufa/LUFA-git/LUFA/Drivers/USB/Core/AVR8/../AVR8/../AVR8/Endpoint_AVR8.h **** 			}
 4655               		.loc 2 407 14 is_stmt 0 view .LVU1314
 4656 001e 8091 E800 		lds r24,232
 4657               	.LBE526:
 4658               	.LBE525:
  65:./tmk_core/protocol/lufa/LUFA-git/LUFA/Drivers/USB/Core/AVR8/Template/Template_Endpoint_Control_R.c **** 	{
 4659               		.loc 5 65 9 view .LVU1315
 4660 0022 80FF      		sbrs r24,0
 4661 0024 00C0      		rjmp .L368
  75:./tmk_core/protocol/lufa/LUFA-git/LUFA/Drivers/USB/Core/AVR8/Template/Template_Endpoint_Control_R.c **** }
 4662               		.loc 5 75 9 view .LVU1316
 4663 0026 80E0      		ldi r24,0
 4664               	.LVL381:
 4665               	.L359:
 4666               	/* epilogue start */
 4667               		.loc 5 76 1 view .LVU1317
 4668 0028 DF91      		pop r29
 4669 002a CF91      		pop r28
 4670 002c 1F91      		pop r17
 4671 002e 0F91      		pop r16
 4672 0030 0895      		ret
 4673               	.L364:
 4674               	.LBB527:
  43:./tmk_core/protocol/lufa/LUFA-git/LUFA/Drivers/USB/Core/AVR8/Template/Template_Endpoint_Control_R.c **** 
 4675               		.loc 5 43 3 is_stmt 1 view .LVU1318
  43:./tmk_core/protocol/lufa/LUFA-git/LUFA/Drivers/USB/Core/AVR8/Template/Template_Endpoint_Control_R.c **** 
 4676               		.loc 5 43 11 is_stmt 0 view .LVU1319
 4677 0032 8091 0000 		lds r24,USB_DeviceState
 4678               	.LVL382:
  45:./tmk_core/protocol/lufa/LUFA-git/LUFA/Drivers/USB/Core/AVR8/Template/Template_Endpoint_Control_R.c **** 		  return ENDPOINT_RWCSTREAM_DeviceDisconnected;
 4679               		.loc 5 45 3 is_stmt 1 view .LVU1320
  45:./tmk_core/protocol/lufa/LUFA-git/LUFA/Drivers/USB/Core/AVR8/Template/Template_Endpoint_Control_R.c **** 		  return ENDPOINT_RWCSTREAM_DeviceDisconnected;
 4680               		.loc 5 45 6 is_stmt 0 view .LVU1321
 4681 0036 8823      		tst r24
 4682 0038 01F0      		breq .L372
  47:./tmk_core/protocol/lufa/LUFA-git/LUFA/Drivers/USB/Core/AVR8/Template/Template_Endpoint_Control_R.c **** 		  return ENDPOINT_RWCSTREAM_BusSuspended;
 4683               		.loc 5 47 8 is_stmt 1 view .LVU1322
  47:./tmk_core/protocol/lufa/LUFA-git/LUFA/Drivers/USB/Core/AVR8/Template/Template_Endpoint_Control_R.c **** 		  return ENDPOINT_RWCSTREAM_BusSuspended;
 4684               		.loc 5 47 11 is_stmt 0 view .LVU1323
 4685 003a 8530      		cpi r24,lo8(5)
 4686 003c 01F0      		breq .L373
  49:./tmk_core/protocol/lufa/LUFA-git/LUFA/Drivers/USB/Core/AVR8/Template/Template_Endpoint_Control_R.c **** 		  return ENDPOINT_RWCSTREAM_HostAborted;
 4687               		.loc 5 49 8 is_stmt 1 view .LVU1324
 4688               	.LBB517:
 4689               	.LBI517:
 429:./tmk_core/protocol/lufa/LUFA-git/LUFA/Drivers/USB/Core/AVR8/../AVR8/../AVR8/Endpoint_AVR8.h **** 			{
 4690               		.loc 2 429 23 view .LVU1325
 4691               	.LBB518:
 431:./tmk_core/protocol/lufa/LUFA-git/LUFA/Drivers/USB/Core/AVR8/../AVR8/../AVR8/Endpoint_AVR8.h **** 			}
 4692               		.loc 2 431 5 view .LVU1326
 431:./tmk_core/protocol/lufa/LUFA-git/LUFA/Drivers/USB/Core/AVR8/../AVR8/../AVR8/Endpoint_AVR8.h **** 			}
 4693               		.loc 2 431 14 is_stmt 0 view .LVU1327
 4694 003e 8091 E800 		lds r24,232
 4695               	.LVL383:
 431:./tmk_core/protocol/lufa/LUFA-git/LUFA/Drivers/USB/Core/AVR8/../AVR8/../AVR8/Endpoint_AVR8.h **** 			}
 4696               		.loc 2 431 14 view .LVU1328
 4697               	.LBE518:
 4698               	.LBE517:
  49:./tmk_core/protocol/lufa/LUFA-git/LUFA/Drivers/USB/Core/AVR8/Template/Template_Endpoint_Control_R.c **** 		  return ENDPOINT_RWCSTREAM_HostAborted;
 4699               		.loc 5 49 11 view .LVU1329
 4700 0042 83FD      		sbrc r24,3
 4701 0044 00C0      		rjmp .L371
  52:./tmk_core/protocol/lufa/LUFA-git/LUFA/Drivers/USB/Core/AVR8/Template/Template_Endpoint_Control_R.c **** 		{
 4702               		.loc 5 52 3 is_stmt 1 view .LVU1330
 4703               	.LBB519:
 4704               	.LBI519:
 417:./tmk_core/protocol/lufa/LUFA-git/LUFA/Drivers/USB/Core/AVR8/../AVR8/../AVR8/Endpoint_AVR8.h **** 			{
 4705               		.loc 2 417 23 view .LVU1331
 4706               	.LBB520:
 419:./tmk_core/protocol/lufa/LUFA-git/LUFA/Drivers/USB/Core/AVR8/../AVR8/../AVR8/Endpoint_AVR8.h **** 			}
 4707               		.loc 2 419 5 view .LVU1332
 419:./tmk_core/protocol/lufa/LUFA-git/LUFA/Drivers/USB/Core/AVR8/../AVR8/../AVR8/Endpoint_AVR8.h **** 			}
 4708               		.loc 2 419 14 is_stmt 0 view .LVU1333
 4709 0046 8091 E800 		lds r24,232
 4710               	.LBE520:
 4711               	.LBE519:
  52:./tmk_core/protocol/lufa/LUFA-git/LUFA/Drivers/USB/Core/AVR8/Template/Template_Endpoint_Control_R.c **** 		{
 4712               		.loc 5 52 6 view .LVU1334
 4713 004a 82FF      		sbrs r24,2
 4714 004c 00C0      		rjmp .L364
 4715               	.L363:
 4716               	.LVL384:
 4717               	.LBB521:
 4718               	.LBI521:
 222:./tmk_core/protocol/lufa/LUFA-git/LUFA/Drivers/USB/Core/AVR8/../AVR8/../AVR8/Endpoint_AVR8.h **** 			{
 4719               		.loc 2 222 27 is_stmt 1 view .LVU1335
 4720               	.LBB522:
 225:./tmk_core/protocol/lufa/LUFA-git/LUFA/Drivers/USB/Core/AVR8/../AVR8/../AVR8/Endpoint_AVR8.h **** 				#elif defined(USB_SERIES_4_AVR)
 4721               		.loc 2 225 6 view .LVU1336
 225:./tmk_core/protocol/lufa/LUFA-git/LUFA/Drivers/USB/Core/AVR8/../AVR8/../AVR8/Endpoint_AVR8.h **** 				#elif defined(USB_SERIES_4_AVR)
 4722               		.loc 2 225 13 is_stmt 0 view .LVU1337
 4723 004e 8091 F200 		lds r24,242
 4724 0052 9091 F300 		lds r25,242+1
 4725               	.LBE522:
 4726               	.LBE521:
  54:./tmk_core/protocol/lufa/LUFA-git/LUFA/Drivers/USB/Core/AVR8/Template/Template_Endpoint_Control_R.c **** 			{
 4727               		.loc 5 54 18 view .LVU1338
 4728 0056 892B      		or r24,r25
 4729 0058 01F0      		breq .L365
  56:./tmk_core/protocol/lufa/LUFA-git/LUFA/Drivers/USB/Core/AVR8/Template/Template_Endpoint_Control_R.c **** 				TEMPLATE_BUFFER_MOVE(DataStream, 1);
 4730               		.loc 5 56 5 is_stmt 1 view .LVU1339
 4731               	.LBB523:
 4732               	.LBI523:
 540:./tmk_core/protocol/lufa/LUFA-git/LUFA/Drivers/USB/Core/AVR8/../AVR8/../AVR8/Endpoint_AVR8.h **** 			{
 4733               		.loc 2 540 26 view .LVU1340
 4734               	.LBB524:
 542:./tmk_core/protocol/lufa/LUFA-git/LUFA/Drivers/USB/Core/AVR8/../AVR8/../AVR8/Endpoint_AVR8.h **** 			}
 4735               		.loc 2 542 5 view .LVU1341
 542:./tmk_core/protocol/lufa/LUFA-git/LUFA/Drivers/USB/Core/AVR8/../AVR8/../AVR8/Endpoint_AVR8.h **** 			}
 4736               		.loc 2 542 12 is_stmt 0 view .LVU1342
 4737 005a 6091 F100 		lds r22,241
 4738               	.LBE524:
 4739               	.LBE523:
  56:./tmk_core/protocol/lufa/LUFA-git/LUFA/Drivers/USB/Core/AVR8/Template/Template_Endpoint_Control_R.c **** 				TEMPLATE_BUFFER_MOVE(DataStream, 1);
 4740               		.loc 5 56 5 view .LVU1343
 4741 005e C801      		movw r24,r16
 4742 0060 0E94 0000 		call eeprom_update_byte
 4743               	.LVL385:
  57:./tmk_core/protocol/lufa/LUFA-git/LUFA/Drivers/USB/Core/AVR8/Template/Template_Endpoint_Control_R.c **** 				Length--;
 4744               		.loc 5 57 5 is_stmt 1 view .LVU1344
 4745 0064 0F5F      		subi r16,-1
 4746 0066 1F4F      		sbci r17,-1
 4747               	.LVL386:
  58:./tmk_core/protocol/lufa/LUFA-git/LUFA/Drivers/USB/Core/AVR8/Template/Template_Endpoint_Control_R.c **** 			}
 4748               		.loc 5 58 5 view .LVU1345
  58:./tmk_core/protocol/lufa/LUFA-git/LUFA/Drivers/USB/Core/AVR8/Template/Template_Endpoint_Control_R.c **** 			}
 4749               		.loc 5 58 11 is_stmt 0 view .LVU1346
 4750 0068 2197      		sbiw r28,1
 4751               	.LVL387:
  54:./tmk_core/protocol/lufa/LUFA-git/LUFA/Drivers/USB/Core/AVR8/Template/Template_Endpoint_Control_R.c **** 			{
 4752               		.loc 5 54 18 is_stmt 1 view .LVU1347
 4753 006a 2097      		sbiw r28,0
 4754 006c 01F4      		brne .L363
 4755 006e 00C0      		rjmp .L365
 4756               	.LVL388:
 4757               	.L368:
  54:./tmk_core/protocol/lufa/LUFA-git/LUFA/Drivers/USB/Core/AVR8/Template/Template_Endpoint_Control_R.c **** 			{
 4758               		.loc 5 54 18 is_stmt 0 view .LVU1348
 4759               	.LBE527:
 4760               	.LBB528:
  67:./tmk_core/protocol/lufa/LUFA-git/LUFA/Drivers/USB/Core/AVR8/Template/Template_Endpoint_Control_R.c **** 
 4761               		.loc 5 67 3 is_stmt 1 view .LVU1349
  67:./tmk_core/protocol/lufa/LUFA-git/LUFA/Drivers/USB/Core/AVR8/Template/Template_Endpoint_Control_R.c **** 
 4762               		.loc 5 67 11 is_stmt 0 view .LVU1350
 4763 0070 8091 0000 		lds r24,USB_DeviceState
 4764               	.LVL389:
  69:./tmk_core/protocol/lufa/LUFA-git/LUFA/Drivers/USB/Core/AVR8/Template/Template_Endpoint_Control_R.c **** 		  return ENDPOINT_RWCSTREAM_DeviceDisconnected;
 4765               		.loc 5 69 3 is_stmt 1 view .LVU1351
  69:./tmk_core/protocol/lufa/LUFA-git/LUFA/Drivers/USB/Core/AVR8/Template/Template_Endpoint_Control_R.c **** 		  return ENDPOINT_RWCSTREAM_DeviceDisconnected;
 4766               		.loc 5 69 6 is_stmt 0 view .LVU1352
 4767 0074 8823      		tst r24
 4768 0076 01F0      		breq .L372
  71:./tmk_core/protocol/lufa/LUFA-git/LUFA/Drivers/USB/Core/AVR8/Template/Template_Endpoint_Control_R.c **** 		  return ENDPOINT_RWCSTREAM_BusSuspended;
 4769               		.loc 5 71 8 is_stmt 1 view .LVU1353
  71:./tmk_core/protocol/lufa/LUFA-git/LUFA/Drivers/USB/Core/AVR8/Template/Template_Endpoint_Control_R.c **** 		  return ENDPOINT_RWCSTREAM_BusSuspended;
 4770               		.loc 5 71 11 is_stmt 0 view .LVU1354
 4771 0078 8530      		cpi r24,lo8(5)
 4772 007a 01F4      		brne .L367
 4773               	.LVL390:
 4774               	.L373:
  71:./tmk_core/protocol/lufa/LUFA-git/LUFA/Drivers/USB/Core/AVR8/Template/Template_Endpoint_Control_R.c **** 		  return ENDPOINT_RWCSTREAM_BusSuspended;
 4775               		.loc 5 71 11 view .LVU1355
 4776               	.LBE528:
 4777               	.LBB529:
  48:./tmk_core/protocol/lufa/LUFA-git/LUFA/Drivers/USB/Core/AVR8/Template/Template_Endpoint_Control_R.c **** 		else if (Endpoint_IsSETUPReceived())
 4778               		.loc 5 48 12 view .LVU1356
 4779 007c 83E0      		ldi r24,lo8(3)
 4780 007e 00C0      		rjmp .L359
 4781               	.LVL391:
 4782               	.L371:
  50:./tmk_core/protocol/lufa/LUFA-git/LUFA/Drivers/USB/Core/AVR8/Template/Template_Endpoint_Control_R.c **** 
 4783               		.loc 5 50 12 view .LVU1357
 4784 0080 81E0      		ldi r24,lo8(1)
 4785 0082 00C0      		rjmp .L359
 4786               	.LVL392:
 4787               	.L372:
  46:./tmk_core/protocol/lufa/LUFA-git/LUFA/Drivers/USB/Core/AVR8/Template/Template_Endpoint_Control_R.c **** 		else if (USB_DeviceState_LCL == DEVICE_STATE_Suspended)
 4788               		.loc 5 46 12 view .LVU1358
 4789 0084 82E0      		ldi r24,lo8(2)
 4790 0086 00C0      		rjmp .L359
 4791               	.LBE529:
 4792               		.cfi_endproc
 4793               	.LFE109:
 4795               		.section	.text.Endpoint_Read_Control_EStream_BE,"ax",@progbits
 4796               	.global	Endpoint_Read_Control_EStream_BE
 4798               	Endpoint_Read_Control_EStream_BE:
 4799               	.LVL393:
 4800               	.LFB110:
  35:./tmk_core/protocol/lufa/LUFA-git/LUFA/Drivers/USB/Core/AVR8/Template/Template_Endpoint_Control_R.c **** 	uint8_t* DataStream = ((uint8_t*)Buffer + TEMPLATE_BUFFER_OFFSET(Length));
 4801               		.loc 5 35 1 is_stmt 1 view -0
 4802               		.cfi_startproc
  35:./tmk_core/protocol/lufa/LUFA-git/LUFA/Drivers/USB/Core/AVR8/Template/Template_Endpoint_Control_R.c **** 	uint8_t* DataStream = ((uint8_t*)Buffer + TEMPLATE_BUFFER_OFFSET(Length));
 4803               		.loc 5 35 1 is_stmt 0 view .LVU1360
 4804 0000 0F93      		push r16
 4805               	.LCFI120:
 4806               		.cfi_def_cfa_offset 3
 4807               		.cfi_offset 16, -2
 4808 0002 1F93      		push r17
 4809               	.LCFI121:
 4810               		.cfi_def_cfa_offset 4
 4811               		.cfi_offset 17, -3
 4812 0004 CF93      		push r28
 4813               	.LCFI122:
 4814               		.cfi_def_cfa_offset 5
 4815               		.cfi_offset 28, -4
 4816 0006 DF93      		push r29
 4817               	.LCFI123:
 4818               		.cfi_def_cfa_offset 6
 4819               		.cfi_offset 29, -5
 4820               	/* prologue: function */
 4821               	/* frame size = 0 */
 4822               	/* stack size = 4 */
 4823               	.L__stack_usage = 4
 4824 0008 EB01      		movw r28,r22
  36:./tmk_core/protocol/lufa/LUFA-git/LUFA/Drivers/USB/Core/AVR8/Template/Template_Endpoint_Control_R.c **** 
 4825               		.loc 5 36 2 is_stmt 1 view .LVU1361
  36:./tmk_core/protocol/lufa/LUFA-git/LUFA/Drivers/USB/Core/AVR8/Template/Template_Endpoint_Control_R.c **** 
 4826               		.loc 5 36 42 is_stmt 0 view .LVU1362
 4827 000a 8B01      		movw r16,r22
 4828 000c 0150      		subi r16,1
 4829 000e 1109      		sbc r17,__zero_reg__
  36:./tmk_core/protocol/lufa/LUFA-git/LUFA/Drivers/USB/Core/AVR8/Template/Template_Endpoint_Control_R.c **** 
 4830               		.loc 5 36 11 view .LVU1363
 4831 0010 080F      		add r16,r24
 4832 0012 191F      		adc r17,r25
 4833               	.LVL394:
  38:./tmk_core/protocol/lufa/LUFA-git/LUFA/Drivers/USB/Core/AVR8/Template/Template_Endpoint_Control_R.c **** 	  Endpoint_ClearOUT();
 4834               		.loc 5 38 2 is_stmt 1 view .LVU1364
  38:./tmk_core/protocol/lufa/LUFA-git/LUFA/Drivers/USB/Core/AVR8/Template/Template_Endpoint_Control_R.c **** 	  Endpoint_ClearOUT();
 4835               		.loc 5 38 5 is_stmt 0 view .LVU1365
 4836 0014 2097      		sbiw r28,0
 4837 0016 01F4      		brne .L384
 4838               	.LVL395:
 4839               	.L385:
 4840               	.LBB530:
  61:./tmk_core/protocol/lufa/LUFA-git/LUFA/Drivers/USB/Core/AVR8/Template/Template_Endpoint_Control_R.c **** 		}
 4841               		.loc 5 61 4 is_stmt 1 view .LVU1366
 4842               	.LBB531:
 4843               	.LBI531:
 468:./tmk_core/protocol/lufa/LUFA-git/LUFA/Drivers/USB/Core/AVR8/../AVR8/../AVR8/Endpoint_AVR8.h **** 			{
 4844               		.loc 2 468 23 view .LVU1367
 4845               	.LBB532:
 471:./tmk_core/protocol/lufa/LUFA-git/LUFA/Drivers/USB/Core/AVR8/../AVR8/../AVR8/Endpoint_AVR8.h **** 				#else
 4846               		.loc 2 471 6 view .LVU1368
 471:./tmk_core/protocol/lufa/LUFA-git/LUFA/Drivers/USB/Core/AVR8/../AVR8/../AVR8/Endpoint_AVR8.h **** 				#else
 4847               		.loc 2 471 13 is_stmt 0 view .LVU1369
 4848 0018 8091 E800 		lds r24,232
 4849 001c 8B77      		andi r24,lo8(123)
 4850 001e 8093 E800 		sts 232,r24
 471:./tmk_core/protocol/lufa/LUFA-git/LUFA/Drivers/USB/Core/AVR8/../AVR8/../AVR8/Endpoint_AVR8.h **** 				#else
 4851               		.loc 2 471 13 view .LVU1370
 4852               	.LBE532:
 4853               	.LBE531:
 4854               	.LBE530:
  41:./tmk_core/protocol/lufa/LUFA-git/LUFA/Drivers/USB/Core/AVR8/Template/Template_Endpoint_Control_R.c **** 	{
 4855               		.loc 5 41 9 is_stmt 1 view .LVU1371
 4856 0022 2097      		sbiw r28,0
 4857 0024 01F4      		brne .L384
 4858               	.L387:
  65:./tmk_core/protocol/lufa/LUFA-git/LUFA/Drivers/USB/Core/AVR8/Template/Template_Endpoint_Control_R.c **** 	{
 4859               		.loc 5 65 9 view .LVU1372
 4860               	.LBB541:
 4861               	.LBI541:
 405:./tmk_core/protocol/lufa/LUFA-git/LUFA/Drivers/USB/Core/AVR8/../AVR8/../AVR8/Endpoint_AVR8.h **** 			{
 4862               		.loc 2 405 23 view .LVU1373
 4863               	.LBB542:
 407:./tmk_core/protocol/lufa/LUFA-git/LUFA/Drivers/USB/Core/AVR8/../AVR8/../AVR8/Endpoint_AVR8.h **** 			}
 4864               		.loc 2 407 5 view .LVU1374
 407:./tmk_core/protocol/lufa/LUFA-git/LUFA/Drivers/USB/Core/AVR8/../AVR8/../AVR8/Endpoint_AVR8.h **** 			}
 4865               		.loc 2 407 14 is_stmt 0 view .LVU1375
 4866 0026 8091 E800 		lds r24,232
 4867               	.LBE542:
 4868               	.LBE541:
  65:./tmk_core/protocol/lufa/LUFA-git/LUFA/Drivers/USB/Core/AVR8/Template/Template_Endpoint_Control_R.c **** 	{
 4869               		.loc 5 65 9 view .LVU1376
 4870 002a 80FF      		sbrs r24,0
 4871 002c 00C0      		rjmp .L388
  75:./tmk_core/protocol/lufa/LUFA-git/LUFA/Drivers/USB/Core/AVR8/Template/Template_Endpoint_Control_R.c **** }
 4872               		.loc 5 75 9 view .LVU1377
 4873 002e 80E0      		ldi r24,0
 4874               	.LVL396:
 4875               	.L379:
 4876               	/* epilogue start */
 4877               		.loc 5 76 1 view .LVU1378
 4878 0030 DF91      		pop r29
 4879 0032 CF91      		pop r28
 4880 0034 1F91      		pop r17
 4881 0036 0F91      		pop r16
 4882 0038 0895      		ret
 4883               	.L384:
 4884               	.LBB543:
  43:./tmk_core/protocol/lufa/LUFA-git/LUFA/Drivers/USB/Core/AVR8/Template/Template_Endpoint_Control_R.c **** 
 4885               		.loc 5 43 3 is_stmt 1 view .LVU1379
  43:./tmk_core/protocol/lufa/LUFA-git/LUFA/Drivers/USB/Core/AVR8/Template/Template_Endpoint_Control_R.c **** 
 4886               		.loc 5 43 11 is_stmt 0 view .LVU1380
 4887 003a 8091 0000 		lds r24,USB_DeviceState
 4888               	.LVL397:
  45:./tmk_core/protocol/lufa/LUFA-git/LUFA/Drivers/USB/Core/AVR8/Template/Template_Endpoint_Control_R.c **** 		  return ENDPOINT_RWCSTREAM_DeviceDisconnected;
 4889               		.loc 5 45 3 is_stmt 1 view .LVU1381
  45:./tmk_core/protocol/lufa/LUFA-git/LUFA/Drivers/USB/Core/AVR8/Template/Template_Endpoint_Control_R.c **** 		  return ENDPOINT_RWCSTREAM_DeviceDisconnected;
 4890               		.loc 5 45 6 is_stmt 0 view .LVU1382
 4891 003e 8823      		tst r24
 4892 0040 01F0      		breq .L392
  47:./tmk_core/protocol/lufa/LUFA-git/LUFA/Drivers/USB/Core/AVR8/Template/Template_Endpoint_Control_R.c **** 		  return ENDPOINT_RWCSTREAM_BusSuspended;
 4893               		.loc 5 47 8 is_stmt 1 view .LVU1383
  47:./tmk_core/protocol/lufa/LUFA-git/LUFA/Drivers/USB/Core/AVR8/Template/Template_Endpoint_Control_R.c **** 		  return ENDPOINT_RWCSTREAM_BusSuspended;
 4894               		.loc 5 47 11 is_stmt 0 view .LVU1384
 4895 0042 8530      		cpi r24,lo8(5)
 4896 0044 01F0      		breq .L393
  49:./tmk_core/protocol/lufa/LUFA-git/LUFA/Drivers/USB/Core/AVR8/Template/Template_Endpoint_Control_R.c **** 		  return ENDPOINT_RWCSTREAM_HostAborted;
 4897               		.loc 5 49 8 is_stmt 1 view .LVU1385
 4898               	.LBB533:
 4899               	.LBI533:
 429:./tmk_core/protocol/lufa/LUFA-git/LUFA/Drivers/USB/Core/AVR8/../AVR8/../AVR8/Endpoint_AVR8.h **** 			{
 4900               		.loc 2 429 23 view .LVU1386
 4901               	.LBB534:
 431:./tmk_core/protocol/lufa/LUFA-git/LUFA/Drivers/USB/Core/AVR8/../AVR8/../AVR8/Endpoint_AVR8.h **** 			}
 4902               		.loc 2 431 5 view .LVU1387
 431:./tmk_core/protocol/lufa/LUFA-git/LUFA/Drivers/USB/Core/AVR8/../AVR8/../AVR8/Endpoint_AVR8.h **** 			}
 4903               		.loc 2 431 14 is_stmt 0 view .LVU1388
 4904 0046 8091 E800 		lds r24,232
 4905               	.LVL398:
 431:./tmk_core/protocol/lufa/LUFA-git/LUFA/Drivers/USB/Core/AVR8/../AVR8/../AVR8/Endpoint_AVR8.h **** 			}
 4906               		.loc 2 431 14 view .LVU1389
 4907               	.LBE534:
 4908               	.LBE533:
  49:./tmk_core/protocol/lufa/LUFA-git/LUFA/Drivers/USB/Core/AVR8/Template/Template_Endpoint_Control_R.c **** 		  return ENDPOINT_RWCSTREAM_HostAborted;
 4909               		.loc 5 49 11 view .LVU1390
 4910 004a 83FD      		sbrc r24,3
 4911 004c 00C0      		rjmp .L391
  52:./tmk_core/protocol/lufa/LUFA-git/LUFA/Drivers/USB/Core/AVR8/Template/Template_Endpoint_Control_R.c **** 		{
 4912               		.loc 5 52 3 is_stmt 1 view .LVU1391
 4913               	.LBB535:
 4914               	.LBI535:
 417:./tmk_core/protocol/lufa/LUFA-git/LUFA/Drivers/USB/Core/AVR8/../AVR8/../AVR8/Endpoint_AVR8.h **** 			{
 4915               		.loc 2 417 23 view .LVU1392
 4916               	.LBB536:
 419:./tmk_core/protocol/lufa/LUFA-git/LUFA/Drivers/USB/Core/AVR8/../AVR8/../AVR8/Endpoint_AVR8.h **** 			}
 4917               		.loc 2 419 5 view .LVU1393
 419:./tmk_core/protocol/lufa/LUFA-git/LUFA/Drivers/USB/Core/AVR8/../AVR8/../AVR8/Endpoint_AVR8.h **** 			}
 4918               		.loc 2 419 14 is_stmt 0 view .LVU1394
 4919 004e 8091 E800 		lds r24,232
 4920               	.LBE536:
 4921               	.LBE535:
  52:./tmk_core/protocol/lufa/LUFA-git/LUFA/Drivers/USB/Core/AVR8/Template/Template_Endpoint_Control_R.c **** 		{
 4922               		.loc 5 52 6 view .LVU1395
 4923 0052 82FF      		sbrs r24,2
 4924 0054 00C0      		rjmp .L384
 4925               	.L383:
 4926               	.LVL399:
 4927               	.LBB537:
 4928               	.LBI537:
 222:./tmk_core/protocol/lufa/LUFA-git/LUFA/Drivers/USB/Core/AVR8/../AVR8/../AVR8/Endpoint_AVR8.h **** 			{
 4929               		.loc 2 222 27 is_stmt 1 view .LVU1396
 4930               	.LBB538:
 225:./tmk_core/protocol/lufa/LUFA-git/LUFA/Drivers/USB/Core/AVR8/../AVR8/../AVR8/Endpoint_AVR8.h **** 				#elif defined(USB_SERIES_4_AVR)
 4931               		.loc 2 225 6 view .LVU1397
 225:./tmk_core/protocol/lufa/LUFA-git/LUFA/Drivers/USB/Core/AVR8/../AVR8/../AVR8/Endpoint_AVR8.h **** 				#elif defined(USB_SERIES_4_AVR)
 4932               		.loc 2 225 13 is_stmt 0 view .LVU1398
 4933 0056 8091 F200 		lds r24,242
 4934 005a 9091 F300 		lds r25,242+1
 4935               	.LBE538:
 4936               	.LBE537:
  54:./tmk_core/protocol/lufa/LUFA-git/LUFA/Drivers/USB/Core/AVR8/Template/Template_Endpoint_Control_R.c **** 			{
 4937               		.loc 5 54 18 view .LVU1399
 4938 005e 892B      		or r24,r25
 4939 0060 01F0      		breq .L385
  56:./tmk_core/protocol/lufa/LUFA-git/LUFA/Drivers/USB/Core/AVR8/Template/Template_Endpoint_Control_R.c **** 				TEMPLATE_BUFFER_MOVE(DataStream, 1);
 4940               		.loc 5 56 5 is_stmt 1 view .LVU1400
 4941               	.LBB539:
 4942               	.LBI539:
 540:./tmk_core/protocol/lufa/LUFA-git/LUFA/Drivers/USB/Core/AVR8/../AVR8/../AVR8/Endpoint_AVR8.h **** 			{
 4943               		.loc 2 540 26 view .LVU1401
 4944               	.LBB540:
 542:./tmk_core/protocol/lufa/LUFA-git/LUFA/Drivers/USB/Core/AVR8/../AVR8/../AVR8/Endpoint_AVR8.h **** 			}
 4945               		.loc 2 542 5 view .LVU1402
 542:./tmk_core/protocol/lufa/LUFA-git/LUFA/Drivers/USB/Core/AVR8/../AVR8/../AVR8/Endpoint_AVR8.h **** 			}
 4946               		.loc 2 542 12 is_stmt 0 view .LVU1403
 4947 0062 6091 F100 		lds r22,241
 4948               	.LBE540:
 4949               	.LBE539:
  56:./tmk_core/protocol/lufa/LUFA-git/LUFA/Drivers/USB/Core/AVR8/Template/Template_Endpoint_Control_R.c **** 				TEMPLATE_BUFFER_MOVE(DataStream, 1);
 4950               		.loc 5 56 5 view .LVU1404
 4951 0066 C801      		movw r24,r16
 4952 0068 0E94 0000 		call eeprom_update_byte
 4953               	.LVL400:
  57:./tmk_core/protocol/lufa/LUFA-git/LUFA/Drivers/USB/Core/AVR8/Template/Template_Endpoint_Control_R.c **** 				Length--;
 4954               		.loc 5 57 5 is_stmt 1 view .LVU1405
 4955 006c 0150      		subi r16,1
 4956 006e 1109      		sbc r17,__zero_reg__
 4957               	.LVL401:
  58:./tmk_core/protocol/lufa/LUFA-git/LUFA/Drivers/USB/Core/AVR8/Template/Template_Endpoint_Control_R.c **** 			}
 4958               		.loc 5 58 5 view .LVU1406
  58:./tmk_core/protocol/lufa/LUFA-git/LUFA/Drivers/USB/Core/AVR8/Template/Template_Endpoint_Control_R.c **** 			}
 4959               		.loc 5 58 11 is_stmt 0 view .LVU1407
 4960 0070 2197      		sbiw r28,1
 4961               	.LVL402:
  54:./tmk_core/protocol/lufa/LUFA-git/LUFA/Drivers/USB/Core/AVR8/Template/Template_Endpoint_Control_R.c **** 			{
 4962               		.loc 5 54 18 is_stmt 1 view .LVU1408
 4963 0072 2097      		sbiw r28,0
 4964 0074 01F4      		brne .L383
 4965 0076 00C0      		rjmp .L385
 4966               	.LVL403:
 4967               	.L388:
  54:./tmk_core/protocol/lufa/LUFA-git/LUFA/Drivers/USB/Core/AVR8/Template/Template_Endpoint_Control_R.c **** 			{
 4968               		.loc 5 54 18 is_stmt 0 view .LVU1409
 4969               	.LBE543:
 4970               	.LBB544:
  67:./tmk_core/protocol/lufa/LUFA-git/LUFA/Drivers/USB/Core/AVR8/Template/Template_Endpoint_Control_R.c **** 
 4971               		.loc 5 67 3 is_stmt 1 view .LVU1410
  67:./tmk_core/protocol/lufa/LUFA-git/LUFA/Drivers/USB/Core/AVR8/Template/Template_Endpoint_Control_R.c **** 
 4972               		.loc 5 67 11 is_stmt 0 view .LVU1411
 4973 0078 8091 0000 		lds r24,USB_DeviceState
 4974               	.LVL404:
  69:./tmk_core/protocol/lufa/LUFA-git/LUFA/Drivers/USB/Core/AVR8/Template/Template_Endpoint_Control_R.c **** 		  return ENDPOINT_RWCSTREAM_DeviceDisconnected;
 4975               		.loc 5 69 3 is_stmt 1 view .LVU1412
  69:./tmk_core/protocol/lufa/LUFA-git/LUFA/Drivers/USB/Core/AVR8/Template/Template_Endpoint_Control_R.c **** 		  return ENDPOINT_RWCSTREAM_DeviceDisconnected;
 4976               		.loc 5 69 6 is_stmt 0 view .LVU1413
 4977 007c 8823      		tst r24
 4978 007e 01F0      		breq .L392
  71:./tmk_core/protocol/lufa/LUFA-git/LUFA/Drivers/USB/Core/AVR8/Template/Template_Endpoint_Control_R.c **** 		  return ENDPOINT_RWCSTREAM_BusSuspended;
 4979               		.loc 5 71 8 is_stmt 1 view .LVU1414
  71:./tmk_core/protocol/lufa/LUFA-git/LUFA/Drivers/USB/Core/AVR8/Template/Template_Endpoint_Control_R.c **** 		  return ENDPOINT_RWCSTREAM_BusSuspended;
 4980               		.loc 5 71 11 is_stmt 0 view .LVU1415
 4981 0080 8530      		cpi r24,lo8(5)
 4982 0082 01F4      		brne .L387
 4983               	.LVL405:
 4984               	.L393:
  71:./tmk_core/protocol/lufa/LUFA-git/LUFA/Drivers/USB/Core/AVR8/Template/Template_Endpoint_Control_R.c **** 		  return ENDPOINT_RWCSTREAM_BusSuspended;
 4985               		.loc 5 71 11 view .LVU1416
 4986               	.LBE544:
 4987               	.LBB545:
  48:./tmk_core/protocol/lufa/LUFA-git/LUFA/Drivers/USB/Core/AVR8/Template/Template_Endpoint_Control_R.c **** 		else if (Endpoint_IsSETUPReceived())
 4988               		.loc 5 48 12 view .LVU1417
 4989 0084 83E0      		ldi r24,lo8(3)
 4990 0086 00C0      		rjmp .L379
 4991               	.LVL406:
 4992               	.L391:
  50:./tmk_core/protocol/lufa/LUFA-git/LUFA/Drivers/USB/Core/AVR8/Template/Template_Endpoint_Control_R.c **** 
 4993               		.loc 5 50 12 view .LVU1418
 4994 0088 81E0      		ldi r24,lo8(1)
 4995 008a 00C0      		rjmp .L379
 4996               	.LVL407:
 4997               	.L392:
  46:./tmk_core/protocol/lufa/LUFA-git/LUFA/Drivers/USB/Core/AVR8/Template/Template_Endpoint_Control_R.c **** 		else if (USB_DeviceState_LCL == DEVICE_STATE_Suspended)
 4998               		.loc 5 46 12 view .LVU1419
 4999 008c 82E0      		ldi r24,lo8(2)
 5000 008e 00C0      		rjmp .L379
 5001               	.LBE545:
 5002               		.cfi_endproc
 5003               	.LFE110:
 5005               		.text
 5006               	.Letext0:
 5007               		.file 6 "/usr/avr/include/stdint.h"
 5008               		.file 7 "./tmk_core/protocol/lufa/LUFA-git/LUFA/Drivers/USB/Core/AVR8/../AVR8/../StdRequestType.h"
 5009               		.file 8 "./tmk_core/protocol/lufa/LUFA-git/LUFA/Drivers/USB/Core/AVR8/../AVR8/../Device.h"
 5010               		.file 9 "./tmk_core/protocol/lufa/LUFA-git/LUFA/Drivers/USB/Core/AVR8/../AVR8/../EndpointStream.h"
 5011               		.file 10 "./tmk_core/protocol/lufa/LUFA-git/LUFA/Drivers/USB/Core/AVR8/../USBTask.h"
 5012               		.file 11 "/usr/avr/include/avr/eeprom.h"
DEFINED SYMBOLS
                            *ABS*:0000000000000000 EndpointStream_AVR8.c
     /tmp/ccKmBXiy.s:2      *ABS*:000000000000003e __SP_H__
     /tmp/ccKmBXiy.s:3      *ABS*:000000000000003d __SP_L__
     /tmp/ccKmBXiy.s:4      *ABS*:000000000000003f __SREG__
     /tmp/ccKmBXiy.s:5      *ABS*:000000000000003b __RAMPZ__
     /tmp/ccKmBXiy.s:6      *ABS*:0000000000000000 __tmp_reg__
     /tmp/ccKmBXiy.s:7      *ABS*:0000000000000001 __zero_reg__
     /tmp/ccKmBXiy.s:15     .text.Endpoint_Discard_Stream:0000000000000000 Endpoint_Discard_Stream
     /tmp/ccKmBXiy.s:18     .text.Endpoint_Discard_Stream:0000000000000000 .Loc.0
     /tmp/ccKmBXiy.s:19     .text.Endpoint_Discard_Stream:0000000000000000 L0
     /tmp/ccKmBXiy.s:20     .text.Endpoint_Discard_Stream:0000000000000000 .Loc.1
     /tmp/ccKmBXiy.s:55     .text.Endpoint_Discard_Stream:0000000000000012 .Loc.2
     /tmp/ccKmBXiy.s:56     .text.Endpoint_Discard_Stream:0000000000000012 .Loc.3
     /tmp/ccKmBXiy.s:58     .text.Endpoint_Discard_Stream:0000000000000012 .Loc.4
     /tmp/ccKmBXiy.s:59     .text.Endpoint_Discard_Stream:0000000000000012 .Loc.5
     /tmp/ccKmBXiy.s:62     .text.Endpoint_Discard_Stream:0000000000000016 .Loc.6
     /tmp/ccKmBXiy.s:65     .text.Endpoint_Discard_Stream:0000000000000018 .Loc.7
     /tmp/ccKmBXiy.s:68     .text.Endpoint_Discard_Stream:000000000000001c .Loc.8
     /tmp/ccKmBXiy.s:69     .text.Endpoint_Discard_Stream:000000000000001c .Loc.9
     /tmp/ccKmBXiy.s:73     .text.Endpoint_Discard_Stream:0000000000000022 .Loc.10
     /tmp/ccKmBXiy.s:74     .text.Endpoint_Discard_Stream:0000000000000022 .Loc.11
     /tmp/ccKmBXiy.s:82     .text.Endpoint_Discard_Stream:000000000000002c .Loc.12
     /tmp/ccKmBXiy.s:87     .text.Endpoint_Discard_Stream:0000000000000030 .Loc.13
     /tmp/ccKmBXiy.s:92     .text.Endpoint_Discard_Stream:0000000000000034 .Loc.14
     /tmp/ccKmBXiy.s:96     .text.Endpoint_Discard_Stream:0000000000000034 .Loc.15
     /tmp/ccKmBXiy.s:98     .text.Endpoint_Discard_Stream:0000000000000034 .Loc.16
     /tmp/ccKmBXiy.s:99     .text.Endpoint_Discard_Stream:0000000000000034 .Loc.17
     /tmp/ccKmBXiy.s:103    .text.Endpoint_Discard_Stream:0000000000000038 .Loc.18
     /tmp/ccKmBXiy.s:106    .text.Endpoint_Discard_Stream:000000000000003c .Loc.19
     /tmp/ccKmBXiy.s:109    .text.Endpoint_Discard_Stream:000000000000003c .Loc.20
     /tmp/ccKmBXiy.s:111    .text.Endpoint_Discard_Stream:000000000000003c .Loc.21
     /tmp/ccKmBXiy.s:112    .text.Endpoint_Discard_Stream:000000000000003c .Loc.22
     /tmp/ccKmBXiy.s:118    .text.Endpoint_Discard_Stream:0000000000000046 .Loc.23
     /tmp/ccKmBXiy.s:119    .text.Endpoint_Discard_Stream:0000000000000046 .Loc.24
     /tmp/ccKmBXiy.s:123    .text.Endpoint_Discard_Stream:000000000000004c .Loc.25
     /tmp/ccKmBXiy.s:124    .text.Endpoint_Discard_Stream:000000000000004c .Loc.26
     /tmp/ccKmBXiy.s:132    .text.Endpoint_Discard_Stream:000000000000005a .Loc.27
     /tmp/ccKmBXiy.s:133    .text.Endpoint_Discard_Stream:000000000000005a .Loc.28
     /tmp/ccKmBXiy.s:137    .text.Endpoint_Discard_Stream:000000000000005e .Loc.29
     /tmp/ccKmBXiy.s:145    .text.Endpoint_Discard_Stream:0000000000000068 .Loc.30
     /tmp/ccKmBXiy.s:152    .text.Endpoint_Discard_Stream:0000000000000070 .Loc.31
     /tmp/ccKmBXiy.s:153    .text.Endpoint_Discard_Stream:0000000000000070 .Loc.32
     /tmp/ccKmBXiy.s:156    .text.Endpoint_Discard_Stream:0000000000000074 .Loc.33
     /tmp/ccKmBXiy.s:159    .text.Endpoint_Discard_Stream:0000000000000078 .Loc.34
     /tmp/ccKmBXiy.s:164    .text.Endpoint_Discard_Stream:000000000000007c .Loc.35
     /tmp/ccKmBXiy.s:167    .text.Endpoint_Discard_Stream:000000000000007c .Loc.36
     /tmp/ccKmBXiy.s:169    .text.Endpoint_Discard_Stream:000000000000007c .Loc.37
     /tmp/ccKmBXiy.s:170    .text.Endpoint_Discard_Stream:000000000000007c .Loc.38
     /tmp/ccKmBXiy.s:171    .text.Endpoint_Discard_Stream:000000000000007c .Loc.39
     /tmp/ccKmBXiy.s:173    .text.Endpoint_Discard_Stream:0000000000000080 .Loc.40
     /tmp/ccKmBXiy.s:176    .text.Endpoint_Discard_Stream:0000000000000080 .Loc.41
     /tmp/ccKmBXiy.s:177    .text.Endpoint_Discard_Stream:0000000000000080 .Loc.42
     /tmp/ccKmBXiy.s:180    .text.Endpoint_Discard_Stream:0000000000000082 .Loc.43
     /tmp/ccKmBXiy.s:181    .text.Endpoint_Discard_Stream:0000000000000082 .Loc.44
     /tmp/ccKmBXiy.s:186    .text.Endpoint_Discard_Stream:0000000000000088 .Loc.45
     /tmp/ccKmBXiy.s:188    .text.Endpoint_Discard_Stream:000000000000008a L0
     /tmp/ccKmBXiy.s:194    .text.Endpoint_Null_Stream:0000000000000000 Endpoint_Null_Stream
     /tmp/ccKmBXiy.s:197    .text.Endpoint_Null_Stream:0000000000000000 .Loc.46
     /tmp/ccKmBXiy.s:198    .text.Endpoint_Null_Stream:0000000000000000 L0
     /tmp/ccKmBXiy.s:199    .text.Endpoint_Null_Stream:0000000000000000 .Loc.47
     /tmp/ccKmBXiy.s:234    .text.Endpoint_Null_Stream:0000000000000012 .Loc.48
     /tmp/ccKmBXiy.s:235    .text.Endpoint_Null_Stream:0000000000000012 .Loc.49
     /tmp/ccKmBXiy.s:237    .text.Endpoint_Null_Stream:0000000000000012 .Loc.50
     /tmp/ccKmBXiy.s:238    .text.Endpoint_Null_Stream:0000000000000012 .Loc.51
     /tmp/ccKmBXiy.s:241    .text.Endpoint_Null_Stream:0000000000000016 .Loc.52
     /tmp/ccKmBXiy.s:244    .text.Endpoint_Null_Stream:0000000000000018 .Loc.53
     /tmp/ccKmBXiy.s:247    .text.Endpoint_Null_Stream:000000000000001c .Loc.54
     /tmp/ccKmBXiy.s:248    .text.Endpoint_Null_Stream:000000000000001c .Loc.55
     /tmp/ccKmBXiy.s:252    .text.Endpoint_Null_Stream:0000000000000022 .Loc.56
     /tmp/ccKmBXiy.s:253    .text.Endpoint_Null_Stream:0000000000000022 .Loc.57
     /tmp/ccKmBXiy.s:261    .text.Endpoint_Null_Stream:000000000000002c .Loc.58
     /tmp/ccKmBXiy.s:266    .text.Endpoint_Null_Stream:0000000000000030 .Loc.59
     /tmp/ccKmBXiy.s:271    .text.Endpoint_Null_Stream:0000000000000034 .Loc.60
     /tmp/ccKmBXiy.s:274    .text.Endpoint_Null_Stream:0000000000000034 .Loc.61
     /tmp/ccKmBXiy.s:276    .text.Endpoint_Null_Stream:0000000000000034 .Loc.62
     /tmp/ccKmBXiy.s:277    .text.Endpoint_Null_Stream:0000000000000034 .Loc.63
     /tmp/ccKmBXiy.s:281    .text.Endpoint_Null_Stream:0000000000000038 .Loc.64
     /tmp/ccKmBXiy.s:284    .text.Endpoint_Null_Stream:000000000000003c .Loc.65
     /tmp/ccKmBXiy.s:287    .text.Endpoint_Null_Stream:000000000000003c .Loc.66
     /tmp/ccKmBXiy.s:289    .text.Endpoint_Null_Stream:000000000000003c .Loc.67
     /tmp/ccKmBXiy.s:290    .text.Endpoint_Null_Stream:000000000000003c .Loc.68
     /tmp/ccKmBXiy.s:296    .text.Endpoint_Null_Stream:0000000000000046 .Loc.69
     /tmp/ccKmBXiy.s:297    .text.Endpoint_Null_Stream:0000000000000046 .Loc.70
     /tmp/ccKmBXiy.s:301    .text.Endpoint_Null_Stream:000000000000004c .Loc.71
     /tmp/ccKmBXiy.s:302    .text.Endpoint_Null_Stream:000000000000004c .Loc.72
     /tmp/ccKmBXiy.s:310    .text.Endpoint_Null_Stream:000000000000005a .Loc.73
     /tmp/ccKmBXiy.s:311    .text.Endpoint_Null_Stream:000000000000005a .Loc.74
     /tmp/ccKmBXiy.s:315    .text.Endpoint_Null_Stream:000000000000005e .Loc.75
     /tmp/ccKmBXiy.s:323    .text.Endpoint_Null_Stream:0000000000000068 .Loc.76
     /tmp/ccKmBXiy.s:330    .text.Endpoint_Null_Stream:0000000000000070 .Loc.77
     /tmp/ccKmBXiy.s:331    .text.Endpoint_Null_Stream:0000000000000070 .Loc.78
     /tmp/ccKmBXiy.s:334    .text.Endpoint_Null_Stream:0000000000000074 .Loc.79
     /tmp/ccKmBXiy.s:337    .text.Endpoint_Null_Stream:0000000000000078 .Loc.80
     /tmp/ccKmBXiy.s:342    .text.Endpoint_Null_Stream:000000000000007c .Loc.81
     /tmp/ccKmBXiy.s:345    .text.Endpoint_Null_Stream:000000000000007c .Loc.82
     /tmp/ccKmBXiy.s:347    .text.Endpoint_Null_Stream:000000000000007c .Loc.83
     /tmp/ccKmBXiy.s:348    .text.Endpoint_Null_Stream:000000000000007c .Loc.84
     /tmp/ccKmBXiy.s:351    .text.Endpoint_Null_Stream:0000000000000080 .Loc.85
     /tmp/ccKmBXiy.s:354    .text.Endpoint_Null_Stream:0000000000000080 .Loc.86
     /tmp/ccKmBXiy.s:355    .text.Endpoint_Null_Stream:0000000000000080 .Loc.87
     /tmp/ccKmBXiy.s:358    .text.Endpoint_Null_Stream:0000000000000082 .Loc.88
     /tmp/ccKmBXiy.s:359    .text.Endpoint_Null_Stream:0000000000000082 .Loc.89
     /tmp/ccKmBXiy.s:364    .text.Endpoint_Null_Stream:0000000000000088 .Loc.90
     /tmp/ccKmBXiy.s:366    .text.Endpoint_Null_Stream:000000000000008a L0
     /tmp/ccKmBXiy.s:372    .text.Endpoint_Write_Stream_LE:0000000000000000 Endpoint_Write_Stream_LE
     /tmp/ccKmBXiy.s:376    .text.Endpoint_Write_Stream_LE:0000000000000000 .Loc.91
     /tmp/ccKmBXiy.s:377    .text.Endpoint_Write_Stream_LE:0000000000000000 L0
     /tmp/ccKmBXiy.s:378    .text.Endpoint_Write_Stream_LE:0000000000000000 .Loc.92
     /tmp/ccKmBXiy.s:422    .text.Endpoint_Write_Stream_LE:0000000000000018 .Loc.93
     /tmp/ccKmBXiy.s:424    .text.Endpoint_Write_Stream_LE:0000000000000018 .Loc.94
     /tmp/ccKmBXiy.s:425    .text.Endpoint_Write_Stream_LE:0000000000000018 .Loc.95
     /tmp/ccKmBXiy.s:426    .text.Endpoint_Write_Stream_LE:0000000000000018 .Loc.96
     /tmp/ccKmBXiy.s:427    .text.Endpoint_Write_Stream_LE:0000000000000018 .Loc.97
     /tmp/ccKmBXiy.s:430    .text.Endpoint_Write_Stream_LE:000000000000001c .Loc.98
     /tmp/ccKmBXiy.s:433    .text.Endpoint_Write_Stream_LE:000000000000001e .Loc.99
     /tmp/ccKmBXiy.s:436    .text.Endpoint_Write_Stream_LE:0000000000000022 .Loc.100
     /tmp/ccKmBXiy.s:437    .text.Endpoint_Write_Stream_LE:0000000000000022 .Loc.101
     /tmp/ccKmBXiy.s:441    .text.Endpoint_Write_Stream_LE:0000000000000028 .Loc.102
     /tmp/ccKmBXiy.s:442    .text.Endpoint_Write_Stream_LE:0000000000000028 .Loc.103
     /tmp/ccKmBXiy.s:446    .text.Endpoint_Write_Stream_LE:000000000000002e .Loc.104
     /tmp/ccKmBXiy.s:450    .text.Endpoint_Write_Stream_LE:0000000000000032 .Loc.105
     /tmp/ccKmBXiy.s:455    .text.Endpoint_Write_Stream_LE:0000000000000036 .Loc.106
     /tmp/ccKmBXiy.s:460    .text.Endpoint_Write_Stream_LE:000000000000003a .Loc.107
     /tmp/ccKmBXiy.s:465    .text.Endpoint_Write_Stream_LE:000000000000003e .Loc.108
     /tmp/ccKmBXiy.s:468    .text.Endpoint_Write_Stream_LE:000000000000003e .Loc.109
     /tmp/ccKmBXiy.s:470    .text.Endpoint_Write_Stream_LE:000000000000003e .Loc.110
     /tmp/ccKmBXiy.s:471    .text.Endpoint_Write_Stream_LE:000000000000003e .Loc.111
     /tmp/ccKmBXiy.s:475    .text.Endpoint_Write_Stream_LE:0000000000000042 .Loc.112
     /tmp/ccKmBXiy.s:478    .text.Endpoint_Write_Stream_LE:0000000000000046 .Loc.113
     /tmp/ccKmBXiy.s:481    .text.Endpoint_Write_Stream_LE:0000000000000046 .Loc.114
     /tmp/ccKmBXiy.s:483    .text.Endpoint_Write_Stream_LE:0000000000000046 .Loc.115
     /tmp/ccKmBXiy.s:484    .text.Endpoint_Write_Stream_LE:0000000000000046 .Loc.116
     /tmp/ccKmBXiy.s:490    .text.Endpoint_Write_Stream_LE:0000000000000050 .Loc.117
     /tmp/ccKmBXiy.s:491    .text.Endpoint_Write_Stream_LE:0000000000000050 .Loc.118
     /tmp/ccKmBXiy.s:495    .text.Endpoint_Write_Stream_LE:0000000000000056 .Loc.119
     /tmp/ccKmBXiy.s:496    .text.Endpoint_Write_Stream_LE:0000000000000056 .Loc.120
     /tmp/ccKmBXiy.s:504    .text.Endpoint_Write_Stream_LE:0000000000000064 .Loc.121
     /tmp/ccKmBXiy.s:505    .text.Endpoint_Write_Stream_LE:0000000000000064 .Loc.122
     /tmp/ccKmBXiy.s:509    .text.Endpoint_Write_Stream_LE:0000000000000068 .Loc.123
     /tmp/ccKmBXiy.s:517    .text.Endpoint_Write_Stream_LE:0000000000000072 .Loc.124
     /tmp/ccKmBXiy.s:526    .text.Endpoint_Write_Stream_LE:000000000000007e .Loc.125
     /tmp/ccKmBXiy.s:527    .text.Endpoint_Write_Stream_LE:000000000000007e .Loc.126
     /tmp/ccKmBXiy.s:530    .text.Endpoint_Write_Stream_LE:0000000000000082 .Loc.127
     /tmp/ccKmBXiy.s:533    .text.Endpoint_Write_Stream_LE:0000000000000086 .Loc.128
     /tmp/ccKmBXiy.s:538    .text.Endpoint_Write_Stream_LE:000000000000008a .Loc.129
     /tmp/ccKmBXiy.s:545    .text.Endpoint_Write_Stream_LE:0000000000000090 .Loc.130
     /tmp/ccKmBXiy.s:547    .text.Endpoint_Write_Stream_LE:0000000000000090 .Loc.131
     /tmp/ccKmBXiy.s:548    .text.Endpoint_Write_Stream_LE:0000000000000090 .Loc.132
     /tmp/ccKmBXiy.s:551    .text.Endpoint_Write_Stream_LE:0000000000000094 .Loc.133
     /tmp/ccKmBXiy.s:554    .text.Endpoint_Write_Stream_LE:0000000000000094 .Loc.134
     /tmp/ccKmBXiy.s:555    .text.Endpoint_Write_Stream_LE:0000000000000094 .Loc.135
     /tmp/ccKmBXiy.s:556    .text.Endpoint_Write_Stream_LE:0000000000000094 .Loc.136
     /tmp/ccKmBXiy.s:559    .text.Endpoint_Write_Stream_LE:0000000000000096 .Loc.137
     /tmp/ccKmBXiy.s:560    .text.Endpoint_Write_Stream_LE:0000000000000096 .Loc.138
     /tmp/ccKmBXiy.s:565    .text.Endpoint_Write_Stream_LE:000000000000009c .Loc.139
     /tmp/ccKmBXiy.s:567    .text.Endpoint_Write_Stream_LE:000000000000009e L0
     /tmp/ccKmBXiy.s:573    .text.Endpoint_Write_Stream_BE:0000000000000000 Endpoint_Write_Stream_BE
     /tmp/ccKmBXiy.s:576    .text.Endpoint_Write_Stream_BE:0000000000000000 .Loc.140
     /tmp/ccKmBXiy.s:577    .text.Endpoint_Write_Stream_BE:0000000000000000 L0
     /tmp/ccKmBXiy.s:578    .text.Endpoint_Write_Stream_BE:0000000000000000 .Loc.141
     /tmp/ccKmBXiy.s:622    .text.Endpoint_Write_Stream_BE:0000000000000018 .Loc.142
     /tmp/ccKmBXiy.s:624    .text.Endpoint_Write_Stream_BE:0000000000000018 .Loc.143
     /tmp/ccKmBXiy.s:625    .text.Endpoint_Write_Stream_BE:0000000000000018 .Loc.144
     /tmp/ccKmBXiy.s:626    .text.Endpoint_Write_Stream_BE:0000000000000018 .Loc.145
     /tmp/ccKmBXiy.s:627    .text.Endpoint_Write_Stream_BE:0000000000000018 .Loc.146
     /tmp/ccKmBXiy.s:630    .text.Endpoint_Write_Stream_BE:000000000000001c .Loc.147
     /tmp/ccKmBXiy.s:633    .text.Endpoint_Write_Stream_BE:000000000000001e .Loc.148
     /tmp/ccKmBXiy.s:636    .text.Endpoint_Write_Stream_BE:0000000000000022 .Loc.149
     /tmp/ccKmBXiy.s:640    .text.Endpoint_Write_Stream_BE:0000000000000026 .Loc.150
     /tmp/ccKmBXiy.s:644    .text.Endpoint_Write_Stream_BE:000000000000002a .Loc.151
     /tmp/ccKmBXiy.s:645    .text.Endpoint_Write_Stream_BE:000000000000002a .Loc.152
     /tmp/ccKmBXiy.s:649    .text.Endpoint_Write_Stream_BE:0000000000000030 .Loc.153
     /tmp/ccKmBXiy.s:650    .text.Endpoint_Write_Stream_BE:0000000000000030 .Loc.154
     /tmp/ccKmBXiy.s:655    .text.Endpoint_Write_Stream_BE:0000000000000036 .Loc.155
     /tmp/ccKmBXiy.s:659    .text.Endpoint_Write_Stream_BE:000000000000003a .Loc.156
     /tmp/ccKmBXiy.s:664    .text.Endpoint_Write_Stream_BE:000000000000003e .Loc.157
     /tmp/ccKmBXiy.s:669    .text.Endpoint_Write_Stream_BE:0000000000000042 .Loc.158
     /tmp/ccKmBXiy.s:675    .text.Endpoint_Write_Stream_BE:0000000000000048 .Loc.159
     /tmp/ccKmBXiy.s:678    .text.Endpoint_Write_Stream_BE:0000000000000048 .Loc.160
     /tmp/ccKmBXiy.s:680    .text.Endpoint_Write_Stream_BE:0000000000000048 .Loc.161
     /tmp/ccKmBXiy.s:681    .text.Endpoint_Write_Stream_BE:0000000000000048 .Loc.162
     /tmp/ccKmBXiy.s:685    .text.Endpoint_Write_Stream_BE:000000000000004c .Loc.163
     /tmp/ccKmBXiy.s:688    .text.Endpoint_Write_Stream_BE:0000000000000050 .Loc.164
     /tmp/ccKmBXiy.s:691    .text.Endpoint_Write_Stream_BE:0000000000000050 .Loc.165
     /tmp/ccKmBXiy.s:693    .text.Endpoint_Write_Stream_BE:0000000000000050 .Loc.166
     /tmp/ccKmBXiy.s:694    .text.Endpoint_Write_Stream_BE:0000000000000050 .Loc.167
     /tmp/ccKmBXiy.s:700    .text.Endpoint_Write_Stream_BE:000000000000005a .Loc.168
     /tmp/ccKmBXiy.s:701    .text.Endpoint_Write_Stream_BE:000000000000005a .Loc.169
     /tmp/ccKmBXiy.s:705    .text.Endpoint_Write_Stream_BE:0000000000000060 .Loc.170
     /tmp/ccKmBXiy.s:706    .text.Endpoint_Write_Stream_BE:0000000000000060 .Loc.171
     /tmp/ccKmBXiy.s:714    .text.Endpoint_Write_Stream_BE:000000000000006e .Loc.172
     /tmp/ccKmBXiy.s:715    .text.Endpoint_Write_Stream_BE:000000000000006e .Loc.173
     /tmp/ccKmBXiy.s:719    .text.Endpoint_Write_Stream_BE:0000000000000072 .Loc.174
     /tmp/ccKmBXiy.s:729    .text.Endpoint_Write_Stream_BE:0000000000000080 .Loc.175
     /tmp/ccKmBXiy.s:736    .text.Endpoint_Write_Stream_BE:0000000000000088 .Loc.176
     /tmp/ccKmBXiy.s:737    .text.Endpoint_Write_Stream_BE:0000000000000088 .Loc.177
     /tmp/ccKmBXiy.s:740    .text.Endpoint_Write_Stream_BE:000000000000008c .Loc.178
     /tmp/ccKmBXiy.s:743    .text.Endpoint_Write_Stream_BE:0000000000000090 .Loc.179
     /tmp/ccKmBXiy.s:748    .text.Endpoint_Write_Stream_BE:0000000000000094 .Loc.180
     /tmp/ccKmBXiy.s:753    .text.Endpoint_Write_Stream_BE:0000000000000096 .Loc.181
     /tmp/ccKmBXiy.s:755    .text.Endpoint_Write_Stream_BE:0000000000000096 .Loc.182
     /tmp/ccKmBXiy.s:756    .text.Endpoint_Write_Stream_BE:0000000000000096 .Loc.183
     /tmp/ccKmBXiy.s:759    .text.Endpoint_Write_Stream_BE:000000000000009a .Loc.184
     /tmp/ccKmBXiy.s:762    .text.Endpoint_Write_Stream_BE:000000000000009a .Loc.185
     /tmp/ccKmBXiy.s:765    .text.Endpoint_Write_Stream_BE:000000000000009c .Loc.186
     /tmp/ccKmBXiy.s:766    .text.Endpoint_Write_Stream_BE:000000000000009c .Loc.187
     /tmp/ccKmBXiy.s:770    .text.Endpoint_Write_Stream_BE:00000000000000a0 .Loc.188
     /tmp/ccKmBXiy.s:771    .text.Endpoint_Write_Stream_BE:00000000000000a0 .Loc.189
     /tmp/ccKmBXiy.s:776    .text.Endpoint_Write_Stream_BE:00000000000000a6 .Loc.190
     /tmp/ccKmBXiy.s:778    .text.Endpoint_Write_Stream_BE:00000000000000a8 L0
     /tmp/ccKmBXiy.s:784    .text.Endpoint_Read_Stream_LE:0000000000000000 Endpoint_Read_Stream_LE
     /tmp/ccKmBXiy.s:787    .text.Endpoint_Read_Stream_LE:0000000000000000 .Loc.191
     /tmp/ccKmBXiy.s:788    .text.Endpoint_Read_Stream_LE:0000000000000000 L0
     /tmp/ccKmBXiy.s:789    .text.Endpoint_Read_Stream_LE:0000000000000000 .Loc.192
     /tmp/ccKmBXiy.s:833    .text.Endpoint_Read_Stream_LE:0000000000000018 .Loc.193
     /tmp/ccKmBXiy.s:835    .text.Endpoint_Read_Stream_LE:0000000000000018 .Loc.194
     /tmp/ccKmBXiy.s:836    .text.Endpoint_Read_Stream_LE:0000000000000018 .Loc.195
     /tmp/ccKmBXiy.s:837    .text.Endpoint_Read_Stream_LE:0000000000000018 .Loc.196
     /tmp/ccKmBXiy.s:838    .text.Endpoint_Read_Stream_LE:0000000000000018 .Loc.197
     /tmp/ccKmBXiy.s:841    .text.Endpoint_Read_Stream_LE:000000000000001c .Loc.198
     /tmp/ccKmBXiy.s:844    .text.Endpoint_Read_Stream_LE:000000000000001e .Loc.199
     /tmp/ccKmBXiy.s:847    .text.Endpoint_Read_Stream_LE:0000000000000022 .Loc.200
     /tmp/ccKmBXiy.s:848    .text.Endpoint_Read_Stream_LE:0000000000000022 .Loc.201
     /tmp/ccKmBXiy.s:852    .text.Endpoint_Read_Stream_LE:0000000000000028 .Loc.202
     /tmp/ccKmBXiy.s:853    .text.Endpoint_Read_Stream_LE:0000000000000028 .Loc.203
     /tmp/ccKmBXiy.s:857    .text.Endpoint_Read_Stream_LE:000000000000002e .Loc.204
     /tmp/ccKmBXiy.s:861    .text.Endpoint_Read_Stream_LE:0000000000000032 .Loc.205
     /tmp/ccKmBXiy.s:866    .text.Endpoint_Read_Stream_LE:0000000000000036 .Loc.206
     /tmp/ccKmBXiy.s:871    .text.Endpoint_Read_Stream_LE:000000000000003a .Loc.207
     /tmp/ccKmBXiy.s:876    .text.Endpoint_Read_Stream_LE:000000000000003e .Loc.208
     /tmp/ccKmBXiy.s:879    .text.Endpoint_Read_Stream_LE:000000000000003e .Loc.209
     /tmp/ccKmBXiy.s:881    .text.Endpoint_Read_Stream_LE:000000000000003e .Loc.210
     /tmp/ccKmBXiy.s:882    .text.Endpoint_Read_Stream_LE:000000000000003e .Loc.211
     /tmp/ccKmBXiy.s:886    .text.Endpoint_Read_Stream_LE:0000000000000042 .Loc.212
     /tmp/ccKmBXiy.s:889    .text.Endpoint_Read_Stream_LE:0000000000000046 .Loc.213
     /tmp/ccKmBXiy.s:892    .text.Endpoint_Read_Stream_LE:0000000000000046 .Loc.214
     /tmp/ccKmBXiy.s:894    .text.Endpoint_Read_Stream_LE:0000000000000046 .Loc.215
     /tmp/ccKmBXiy.s:895    .text.Endpoint_Read_Stream_LE:0000000000000046 .Loc.216
     /tmp/ccKmBXiy.s:901    .text.Endpoint_Read_Stream_LE:0000000000000050 .Loc.217
     /tmp/ccKmBXiy.s:902    .text.Endpoint_Read_Stream_LE:0000000000000050 .Loc.218
     /tmp/ccKmBXiy.s:906    .text.Endpoint_Read_Stream_LE:0000000000000056 .Loc.219
     /tmp/ccKmBXiy.s:907    .text.Endpoint_Read_Stream_LE:0000000000000056 .Loc.220
     /tmp/ccKmBXiy.s:915    .text.Endpoint_Read_Stream_LE:0000000000000064 .Loc.221
     /tmp/ccKmBXiy.s:916    .text.Endpoint_Read_Stream_LE:0000000000000064 .Loc.222
     /tmp/ccKmBXiy.s:920    .text.Endpoint_Read_Stream_LE:0000000000000068 .Loc.223
     /tmp/ccKmBXiy.s:928    .text.Endpoint_Read_Stream_LE:0000000000000072 .Loc.224
     /tmp/ccKmBXiy.s:937    .text.Endpoint_Read_Stream_LE:000000000000007e .Loc.225
     /tmp/ccKmBXiy.s:938    .text.Endpoint_Read_Stream_LE:000000000000007e .Loc.226
     /tmp/ccKmBXiy.s:941    .text.Endpoint_Read_Stream_LE:0000000000000082 .Loc.227
     /tmp/ccKmBXiy.s:944    .text.Endpoint_Read_Stream_LE:0000000000000086 .Loc.228
     /tmp/ccKmBXiy.s:949    .text.Endpoint_Read_Stream_LE:000000000000008a .Loc.229
     /tmp/ccKmBXiy.s:952    .text.Endpoint_Read_Stream_LE:000000000000008a .Loc.230
     /tmp/ccKmBXiy.s:954    .text.Endpoint_Read_Stream_LE:000000000000008a .Loc.231
     /tmp/ccKmBXiy.s:955    .text.Endpoint_Read_Stream_LE:000000000000008a .Loc.232
     /tmp/ccKmBXiy.s:959    .text.Endpoint_Read_Stream_LE:000000000000008e .Loc.233
     /tmp/ccKmBXiy.s:963    .text.Endpoint_Read_Stream_LE:0000000000000094 .Loc.234
     /tmp/ccKmBXiy.s:965    .text.Endpoint_Read_Stream_LE:0000000000000094 .Loc.235
     /tmp/ccKmBXiy.s:966    .text.Endpoint_Read_Stream_LE:0000000000000094 .Loc.236
     /tmp/ccKmBXiy.s:969    .text.Endpoint_Read_Stream_LE:0000000000000096 .Loc.237
     /tmp/ccKmBXiy.s:970    .text.Endpoint_Read_Stream_LE:0000000000000096 .Loc.238
     /tmp/ccKmBXiy.s:975    .text.Endpoint_Read_Stream_LE:000000000000009c .Loc.239
     /tmp/ccKmBXiy.s:977    .text.Endpoint_Read_Stream_LE:000000000000009e L0
     /tmp/ccKmBXiy.s:983    .text.Endpoint_Read_Stream_BE:0000000000000000 Endpoint_Read_Stream_BE
     /tmp/ccKmBXiy.s:986    .text.Endpoint_Read_Stream_BE:0000000000000000 .Loc.240
     /tmp/ccKmBXiy.s:987    .text.Endpoint_Read_Stream_BE:0000000000000000 L0
     /tmp/ccKmBXiy.s:988    .text.Endpoint_Read_Stream_BE:0000000000000000 .Loc.241
     /tmp/ccKmBXiy.s:1032   .text.Endpoint_Read_Stream_BE:0000000000000018 .Loc.242
     /tmp/ccKmBXiy.s:1034   .text.Endpoint_Read_Stream_BE:0000000000000018 .Loc.243
     /tmp/ccKmBXiy.s:1035   .text.Endpoint_Read_Stream_BE:0000000000000018 .Loc.244
     /tmp/ccKmBXiy.s:1036   .text.Endpoint_Read_Stream_BE:0000000000000018 .Loc.245
     /tmp/ccKmBXiy.s:1037   .text.Endpoint_Read_Stream_BE:0000000000000018 .Loc.246
     /tmp/ccKmBXiy.s:1040   .text.Endpoint_Read_Stream_BE:000000000000001c .Loc.247
     /tmp/ccKmBXiy.s:1043   .text.Endpoint_Read_Stream_BE:000000000000001e .Loc.248
     /tmp/ccKmBXiy.s:1046   .text.Endpoint_Read_Stream_BE:0000000000000022 .Loc.249
     /tmp/ccKmBXiy.s:1050   .text.Endpoint_Read_Stream_BE:0000000000000026 .Loc.250
     /tmp/ccKmBXiy.s:1054   .text.Endpoint_Read_Stream_BE:000000000000002a .Loc.251
     /tmp/ccKmBXiy.s:1055   .text.Endpoint_Read_Stream_BE:000000000000002a .Loc.252
     /tmp/ccKmBXiy.s:1059   .text.Endpoint_Read_Stream_BE:0000000000000030 .Loc.253
     /tmp/ccKmBXiy.s:1060   .text.Endpoint_Read_Stream_BE:0000000000000030 .Loc.254
     /tmp/ccKmBXiy.s:1065   .text.Endpoint_Read_Stream_BE:0000000000000036 .Loc.255
     /tmp/ccKmBXiy.s:1069   .text.Endpoint_Read_Stream_BE:000000000000003a .Loc.256
     /tmp/ccKmBXiy.s:1074   .text.Endpoint_Read_Stream_BE:000000000000003e .Loc.257
     /tmp/ccKmBXiy.s:1079   .text.Endpoint_Read_Stream_BE:0000000000000042 .Loc.258
     /tmp/ccKmBXiy.s:1085   .text.Endpoint_Read_Stream_BE:0000000000000048 .Loc.259
     /tmp/ccKmBXiy.s:1088   .text.Endpoint_Read_Stream_BE:0000000000000048 .Loc.260
     /tmp/ccKmBXiy.s:1090   .text.Endpoint_Read_Stream_BE:0000000000000048 .Loc.261
     /tmp/ccKmBXiy.s:1091   .text.Endpoint_Read_Stream_BE:0000000000000048 .Loc.262
     /tmp/ccKmBXiy.s:1095   .text.Endpoint_Read_Stream_BE:000000000000004c .Loc.263
     /tmp/ccKmBXiy.s:1098   .text.Endpoint_Read_Stream_BE:0000000000000050 .Loc.264
     /tmp/ccKmBXiy.s:1101   .text.Endpoint_Read_Stream_BE:0000000000000050 .Loc.265
     /tmp/ccKmBXiy.s:1103   .text.Endpoint_Read_Stream_BE:0000000000000050 .Loc.266
     /tmp/ccKmBXiy.s:1104   .text.Endpoint_Read_Stream_BE:0000000000000050 .Loc.267
     /tmp/ccKmBXiy.s:1110   .text.Endpoint_Read_Stream_BE:000000000000005a .Loc.268
     /tmp/ccKmBXiy.s:1111   .text.Endpoint_Read_Stream_BE:000000000000005a .Loc.269
     /tmp/ccKmBXiy.s:1115   .text.Endpoint_Read_Stream_BE:0000000000000060 .Loc.270
     /tmp/ccKmBXiy.s:1116   .text.Endpoint_Read_Stream_BE:0000000000000060 .Loc.271
     /tmp/ccKmBXiy.s:1124   .text.Endpoint_Read_Stream_BE:000000000000006e .Loc.272
     /tmp/ccKmBXiy.s:1125   .text.Endpoint_Read_Stream_BE:000000000000006e .Loc.273
     /tmp/ccKmBXiy.s:1129   .text.Endpoint_Read_Stream_BE:0000000000000072 .Loc.274
     /tmp/ccKmBXiy.s:1139   .text.Endpoint_Read_Stream_BE:0000000000000080 .Loc.275
     /tmp/ccKmBXiy.s:1146   .text.Endpoint_Read_Stream_BE:0000000000000088 .Loc.276
     /tmp/ccKmBXiy.s:1147   .text.Endpoint_Read_Stream_BE:0000000000000088 .Loc.277
     /tmp/ccKmBXiy.s:1150   .text.Endpoint_Read_Stream_BE:000000000000008c .Loc.278
     /tmp/ccKmBXiy.s:1153   .text.Endpoint_Read_Stream_BE:0000000000000090 .Loc.279
     /tmp/ccKmBXiy.s:1158   .text.Endpoint_Read_Stream_BE:0000000000000094 .Loc.280
     /tmp/ccKmBXiy.s:1161   .text.Endpoint_Read_Stream_BE:0000000000000094 .Loc.281
     /tmp/ccKmBXiy.s:1163   .text.Endpoint_Read_Stream_BE:0000000000000094 .Loc.282
     /tmp/ccKmBXiy.s:1164   .text.Endpoint_Read_Stream_BE:0000000000000094 .Loc.283
     /tmp/ccKmBXiy.s:1168   .text.Endpoint_Read_Stream_BE:0000000000000098 .Loc.284
     /tmp/ccKmBXiy.s:1170   .text.Endpoint_Read_Stream_BE:000000000000009a .Loc.285
     /tmp/ccKmBXiy.s:1173   .text.Endpoint_Read_Stream_BE:000000000000009c .Loc.286
     /tmp/ccKmBXiy.s:1174   .text.Endpoint_Read_Stream_BE:000000000000009c .Loc.287
     /tmp/ccKmBXiy.s:1178   .text.Endpoint_Read_Stream_BE:00000000000000a0 .Loc.288
     /tmp/ccKmBXiy.s:1179   .text.Endpoint_Read_Stream_BE:00000000000000a0 .Loc.289
     /tmp/ccKmBXiy.s:1184   .text.Endpoint_Read_Stream_BE:00000000000000a6 .Loc.290
     /tmp/ccKmBXiy.s:1186   .text.Endpoint_Read_Stream_BE:00000000000000a8 L0
     /tmp/ccKmBXiy.s:1192   .text.Endpoint_Write_PStream_LE:0000000000000000 Endpoint_Write_PStream_LE
     /tmp/ccKmBXiy.s:1195   .text.Endpoint_Write_PStream_LE:0000000000000000 .Loc.291
     /tmp/ccKmBXiy.s:1196   .text.Endpoint_Write_PStream_LE:0000000000000000 L0
     /tmp/ccKmBXiy.s:1197   .text.Endpoint_Write_PStream_LE:0000000000000000 .Loc.292
     /tmp/ccKmBXiy.s:1241   .text.Endpoint_Write_PStream_LE:0000000000000018 .Loc.293
     /tmp/ccKmBXiy.s:1243   .text.Endpoint_Write_PStream_LE:0000000000000018 .Loc.294
     /tmp/ccKmBXiy.s:1244   .text.Endpoint_Write_PStream_LE:0000000000000018 .Loc.295
     /tmp/ccKmBXiy.s:1245   .text.Endpoint_Write_PStream_LE:0000000000000018 .Loc.296
     /tmp/ccKmBXiy.s:1246   .text.Endpoint_Write_PStream_LE:0000000000000018 .Loc.297
     /tmp/ccKmBXiy.s:1249   .text.Endpoint_Write_PStream_LE:000000000000001c .Loc.298
     /tmp/ccKmBXiy.s:1252   .text.Endpoint_Write_PStream_LE:000000000000001e .Loc.299
     /tmp/ccKmBXiy.s:1255   .text.Endpoint_Write_PStream_LE:0000000000000022 .Loc.300
     /tmp/ccKmBXiy.s:1256   .text.Endpoint_Write_PStream_LE:0000000000000022 .Loc.301
     /tmp/ccKmBXiy.s:1260   .text.Endpoint_Write_PStream_LE:0000000000000028 .Loc.302
     /tmp/ccKmBXiy.s:1261   .text.Endpoint_Write_PStream_LE:0000000000000028 .Loc.303
     /tmp/ccKmBXiy.s:1265   .text.Endpoint_Write_PStream_LE:000000000000002e .Loc.304
     /tmp/ccKmBXiy.s:1269   .text.Endpoint_Write_PStream_LE:0000000000000032 .Loc.305
     /tmp/ccKmBXiy.s:1274   .text.Endpoint_Write_PStream_LE:0000000000000036 .Loc.306
     /tmp/ccKmBXiy.s:1279   .text.Endpoint_Write_PStream_LE:000000000000003a .Loc.307
     /tmp/ccKmBXiy.s:1284   .text.Endpoint_Write_PStream_LE:000000000000003e .Loc.308
     /tmp/ccKmBXiy.s:1287   .text.Endpoint_Write_PStream_LE:000000000000003e .Loc.309
     /tmp/ccKmBXiy.s:1289   .text.Endpoint_Write_PStream_LE:000000000000003e .Loc.310
     /tmp/ccKmBXiy.s:1290   .text.Endpoint_Write_PStream_LE:000000000000003e .Loc.311
     /tmp/ccKmBXiy.s:1294   .text.Endpoint_Write_PStream_LE:0000000000000042 .Loc.312
     /tmp/ccKmBXiy.s:1297   .text.Endpoint_Write_PStream_LE:0000000000000046 .Loc.313
     /tmp/ccKmBXiy.s:1300   .text.Endpoint_Write_PStream_LE:0000000000000046 .Loc.314
     /tmp/ccKmBXiy.s:1302   .text.Endpoint_Write_PStream_LE:0000000000000046 .Loc.315
     /tmp/ccKmBXiy.s:1303   .text.Endpoint_Write_PStream_LE:0000000000000046 .Loc.316
     /tmp/ccKmBXiy.s:1309   .text.Endpoint_Write_PStream_LE:0000000000000050 .Loc.317
     /tmp/ccKmBXiy.s:1310   .text.Endpoint_Write_PStream_LE:0000000000000050 .Loc.318
     /tmp/ccKmBXiy.s:1314   .text.Endpoint_Write_PStream_LE:0000000000000056 .Loc.319
     /tmp/ccKmBXiy.s:1315   .text.Endpoint_Write_PStream_LE:0000000000000056 .Loc.320
     /tmp/ccKmBXiy.s:1323   .text.Endpoint_Write_PStream_LE:0000000000000064 .Loc.321
     /tmp/ccKmBXiy.s:1324   .text.Endpoint_Write_PStream_LE:0000000000000064 .Loc.322
     /tmp/ccKmBXiy.s:1328   .text.Endpoint_Write_PStream_LE:0000000000000068 .Loc.323
     /tmp/ccKmBXiy.s:1338   .text.Endpoint_Write_PStream_LE:0000000000000076 .Loc.324
     /tmp/ccKmBXiy.s:1345   .text.Endpoint_Write_PStream_LE:000000000000007e .Loc.325
     /tmp/ccKmBXiy.s:1346   .text.Endpoint_Write_PStream_LE:000000000000007e .Loc.326
     /tmp/ccKmBXiy.s:1349   .text.Endpoint_Write_PStream_LE:0000000000000082 .Loc.327
     /tmp/ccKmBXiy.s:1352   .text.Endpoint_Write_PStream_LE:0000000000000086 .Loc.328
     /tmp/ccKmBXiy.s:1357   .text.Endpoint_Write_PStream_LE:000000000000008a .Loc.329
     /tmp/ccKmBXiy.s:1359   .text.Endpoint_Write_PStream_LE:000000000000008a .Loc.330
     /tmp/ccKmBXiy.s:1360   .text.Endpoint_Write_PStream_LE:000000000000008a .Loc.331
     /tmp/ccKmBXiy.s:1361   .text.Endpoint_Write_PStream_LE:000000000000008a .Loc.332
     /tmp/ccKmBXiy.s:1369   .text.Endpoint_Write_PStream_LE:000000000000008e .Loc.333
     /tmp/ccKmBXiy.s:1370   .text.Endpoint_Write_PStream_LE:000000000000008e .Loc.334
     /tmp/ccKmBXiy.s:1375   .text.Endpoint_Write_PStream_LE:000000000000008e .Loc.335
     /tmp/ccKmBXiy.s:1377   .text.Endpoint_Write_PStream_LE:000000000000008e .Loc.336
     /tmp/ccKmBXiy.s:1378   .text.Endpoint_Write_PStream_LE:000000000000008e .Loc.337
     /tmp/ccKmBXiy.s:1381   .text.Endpoint_Write_PStream_LE:0000000000000092 .Loc.338
     /tmp/ccKmBXiy.s:1384   .text.Endpoint_Write_PStream_LE:0000000000000092 .Loc.339
     /tmp/ccKmBXiy.s:1388   .text.Endpoint_Write_PStream_LE:0000000000000096 .Loc.340
     /tmp/ccKmBXiy.s:1389   .text.Endpoint_Write_PStream_LE:0000000000000096 .Loc.341
     /tmp/ccKmBXiy.s:1392   .text.Endpoint_Write_PStream_LE:0000000000000098 .Loc.342
     /tmp/ccKmBXiy.s:1393   .text.Endpoint_Write_PStream_LE:0000000000000098 .Loc.343
     /tmp/ccKmBXiy.s:1398   .text.Endpoint_Write_PStream_LE:000000000000009e .Loc.344
     /tmp/ccKmBXiy.s:1400   .text.Endpoint_Write_PStream_LE:00000000000000a0 L0
     /tmp/ccKmBXiy.s:1406   .text.Endpoint_Write_PStream_BE:0000000000000000 Endpoint_Write_PStream_BE
     /tmp/ccKmBXiy.s:1409   .text.Endpoint_Write_PStream_BE:0000000000000000 .Loc.345
     /tmp/ccKmBXiy.s:1410   .text.Endpoint_Write_PStream_BE:0000000000000000 L0
     /tmp/ccKmBXiy.s:1411   .text.Endpoint_Write_PStream_BE:0000000000000000 .Loc.346
     /tmp/ccKmBXiy.s:1455   .text.Endpoint_Write_PStream_BE:0000000000000018 .Loc.347
     /tmp/ccKmBXiy.s:1457   .text.Endpoint_Write_PStream_BE:0000000000000018 .Loc.348
     /tmp/ccKmBXiy.s:1458   .text.Endpoint_Write_PStream_BE:0000000000000018 .Loc.349
     /tmp/ccKmBXiy.s:1459   .text.Endpoint_Write_PStream_BE:0000000000000018 .Loc.350
     /tmp/ccKmBXiy.s:1460   .text.Endpoint_Write_PStream_BE:0000000000000018 .Loc.351
     /tmp/ccKmBXiy.s:1463   .text.Endpoint_Write_PStream_BE:000000000000001c .Loc.352
     /tmp/ccKmBXiy.s:1466   .text.Endpoint_Write_PStream_BE:000000000000001e .Loc.353
     /tmp/ccKmBXiy.s:1469   .text.Endpoint_Write_PStream_BE:0000000000000022 .Loc.354
     /tmp/ccKmBXiy.s:1473   .text.Endpoint_Write_PStream_BE:0000000000000026 .Loc.355
     /tmp/ccKmBXiy.s:1477   .text.Endpoint_Write_PStream_BE:000000000000002a .Loc.356
     /tmp/ccKmBXiy.s:1478   .text.Endpoint_Write_PStream_BE:000000000000002a .Loc.357
     /tmp/ccKmBXiy.s:1482   .text.Endpoint_Write_PStream_BE:0000000000000030 .Loc.358
     /tmp/ccKmBXiy.s:1483   .text.Endpoint_Write_PStream_BE:0000000000000030 .Loc.359
     /tmp/ccKmBXiy.s:1488   .text.Endpoint_Write_PStream_BE:0000000000000036 .Loc.360
     /tmp/ccKmBXiy.s:1492   .text.Endpoint_Write_PStream_BE:000000000000003a .Loc.361
     /tmp/ccKmBXiy.s:1497   .text.Endpoint_Write_PStream_BE:000000000000003e .Loc.362
     /tmp/ccKmBXiy.s:1502   .text.Endpoint_Write_PStream_BE:0000000000000042 .Loc.363
     /tmp/ccKmBXiy.s:1508   .text.Endpoint_Write_PStream_BE:0000000000000048 .Loc.364
     /tmp/ccKmBXiy.s:1511   .text.Endpoint_Write_PStream_BE:0000000000000048 .Loc.365
     /tmp/ccKmBXiy.s:1513   .text.Endpoint_Write_PStream_BE:0000000000000048 .Loc.366
     /tmp/ccKmBXiy.s:1514   .text.Endpoint_Write_PStream_BE:0000000000000048 .Loc.367
     /tmp/ccKmBXiy.s:1518   .text.Endpoint_Write_PStream_BE:000000000000004c .Loc.368
     /tmp/ccKmBXiy.s:1521   .text.Endpoint_Write_PStream_BE:0000000000000050 .Loc.369
     /tmp/ccKmBXiy.s:1524   .text.Endpoint_Write_PStream_BE:0000000000000050 .Loc.370
     /tmp/ccKmBXiy.s:1526   .text.Endpoint_Write_PStream_BE:0000000000000050 .Loc.371
     /tmp/ccKmBXiy.s:1527   .text.Endpoint_Write_PStream_BE:0000000000000050 .Loc.372
     /tmp/ccKmBXiy.s:1533   .text.Endpoint_Write_PStream_BE:000000000000005a .Loc.373
     /tmp/ccKmBXiy.s:1534   .text.Endpoint_Write_PStream_BE:000000000000005a .Loc.374
     /tmp/ccKmBXiy.s:1538   .text.Endpoint_Write_PStream_BE:0000000000000060 .Loc.375
     /tmp/ccKmBXiy.s:1539   .text.Endpoint_Write_PStream_BE:0000000000000060 .Loc.376
     /tmp/ccKmBXiy.s:1547   .text.Endpoint_Write_PStream_BE:000000000000006e .Loc.377
     /tmp/ccKmBXiy.s:1548   .text.Endpoint_Write_PStream_BE:000000000000006e .Loc.378
     /tmp/ccKmBXiy.s:1552   .text.Endpoint_Write_PStream_BE:0000000000000072 .Loc.379
     /tmp/ccKmBXiy.s:1562   .text.Endpoint_Write_PStream_BE:0000000000000080 .Loc.380
     /tmp/ccKmBXiy.s:1569   .text.Endpoint_Write_PStream_BE:0000000000000088 .Loc.381
     /tmp/ccKmBXiy.s:1570   .text.Endpoint_Write_PStream_BE:0000000000000088 .Loc.382
     /tmp/ccKmBXiy.s:1573   .text.Endpoint_Write_PStream_BE:000000000000008c .Loc.383
     /tmp/ccKmBXiy.s:1576   .text.Endpoint_Write_PStream_BE:0000000000000090 .Loc.384
     /tmp/ccKmBXiy.s:1581   .text.Endpoint_Write_PStream_BE:0000000000000094 .Loc.385
     /tmp/ccKmBXiy.s:1583   .text.Endpoint_Write_PStream_BE:0000000000000094 .Loc.386
     /tmp/ccKmBXiy.s:1584   .text.Endpoint_Write_PStream_BE:0000000000000094 .Loc.387
     /tmp/ccKmBXiy.s:1585   .text.Endpoint_Write_PStream_BE:0000000000000094 .Loc.388
     /tmp/ccKmBXiy.s:1593   .text.Endpoint_Write_PStream_BE:0000000000000098 .Loc.389
     /tmp/ccKmBXiy.s:1594   .text.Endpoint_Write_PStream_BE:0000000000000098 .Loc.390
     /tmp/ccKmBXiy.s:1599   .text.Endpoint_Write_PStream_BE:0000000000000098 .Loc.391
     /tmp/ccKmBXiy.s:1601   .text.Endpoint_Write_PStream_BE:0000000000000098 .Loc.392
     /tmp/ccKmBXiy.s:1602   .text.Endpoint_Write_PStream_BE:0000000000000098 .Loc.393
     /tmp/ccKmBXiy.s:1605   .text.Endpoint_Write_PStream_BE:000000000000009c .Loc.394
     /tmp/ccKmBXiy.s:1608   .text.Endpoint_Write_PStream_BE:000000000000009c .Loc.395
     /tmp/ccKmBXiy.s:1611   .text.Endpoint_Write_PStream_BE:000000000000009e .Loc.396
     /tmp/ccKmBXiy.s:1612   .text.Endpoint_Write_PStream_BE:000000000000009e .Loc.397
     /tmp/ccKmBXiy.s:1616   .text.Endpoint_Write_PStream_BE:00000000000000a2 .Loc.398
     /tmp/ccKmBXiy.s:1617   .text.Endpoint_Write_PStream_BE:00000000000000a2 .Loc.399
     /tmp/ccKmBXiy.s:1622   .text.Endpoint_Write_PStream_BE:00000000000000a8 .Loc.400
     /tmp/ccKmBXiy.s:1624   .text.Endpoint_Write_PStream_BE:00000000000000aa L0
     /tmp/ccKmBXiy.s:1630   .text.Endpoint_Write_EStream_LE:0000000000000000 Endpoint_Write_EStream_LE
     /tmp/ccKmBXiy.s:1633   .text.Endpoint_Write_EStream_LE:0000000000000000 .Loc.401
     /tmp/ccKmBXiy.s:1634   .text.Endpoint_Write_EStream_LE:0000000000000000 L0
     /tmp/ccKmBXiy.s:1635   .text.Endpoint_Write_EStream_LE:0000000000000000 .Loc.402
     /tmp/ccKmBXiy.s:1679   .text.Endpoint_Write_EStream_LE:0000000000000018 .Loc.403
     /tmp/ccKmBXiy.s:1681   .text.Endpoint_Write_EStream_LE:0000000000000018 .Loc.404
     /tmp/ccKmBXiy.s:1682   .text.Endpoint_Write_EStream_LE:0000000000000018 .Loc.405
     /tmp/ccKmBXiy.s:1683   .text.Endpoint_Write_EStream_LE:0000000000000018 .Loc.406
     /tmp/ccKmBXiy.s:1684   .text.Endpoint_Write_EStream_LE:0000000000000018 .Loc.407
     /tmp/ccKmBXiy.s:1687   .text.Endpoint_Write_EStream_LE:000000000000001c .Loc.408
     /tmp/ccKmBXiy.s:1690   .text.Endpoint_Write_EStream_LE:000000000000001e .Loc.409
     /tmp/ccKmBXiy.s:1693   .text.Endpoint_Write_EStream_LE:0000000000000022 .Loc.410
     /tmp/ccKmBXiy.s:1694   .text.Endpoint_Write_EStream_LE:0000000000000022 .Loc.411
     /tmp/ccKmBXiy.s:1698   .text.Endpoint_Write_EStream_LE:0000000000000028 .Loc.412
     /tmp/ccKmBXiy.s:1699   .text.Endpoint_Write_EStream_LE:0000000000000028 .Loc.413
     /tmp/ccKmBXiy.s:1703   .text.Endpoint_Write_EStream_LE:000000000000002e .Loc.414
     /tmp/ccKmBXiy.s:1707   .text.Endpoint_Write_EStream_LE:0000000000000032 .Loc.415
     /tmp/ccKmBXiy.s:1712   .text.Endpoint_Write_EStream_LE:0000000000000036 .Loc.416
     /tmp/ccKmBXiy.s:1717   .text.Endpoint_Write_EStream_LE:000000000000003a .Loc.417
     /tmp/ccKmBXiy.s:1722   .text.Endpoint_Write_EStream_LE:000000000000003e .Loc.418
     /tmp/ccKmBXiy.s:1725   .text.Endpoint_Write_EStream_LE:000000000000003e .Loc.419
     /tmp/ccKmBXiy.s:1727   .text.Endpoint_Write_EStream_LE:000000000000003e .Loc.420
     /tmp/ccKmBXiy.s:1728   .text.Endpoint_Write_EStream_LE:000000000000003e .Loc.421
     /tmp/ccKmBXiy.s:1732   .text.Endpoint_Write_EStream_LE:0000000000000042 .Loc.422
     /tmp/ccKmBXiy.s:1735   .text.Endpoint_Write_EStream_LE:0000000000000046 .Loc.423
     /tmp/ccKmBXiy.s:1738   .text.Endpoint_Write_EStream_LE:0000000000000046 .Loc.424
     /tmp/ccKmBXiy.s:1740   .text.Endpoint_Write_EStream_LE:0000000000000046 .Loc.425
     /tmp/ccKmBXiy.s:1741   .text.Endpoint_Write_EStream_LE:0000000000000046 .Loc.426
     /tmp/ccKmBXiy.s:1747   .text.Endpoint_Write_EStream_LE:0000000000000050 .Loc.427
     /tmp/ccKmBXiy.s:1748   .text.Endpoint_Write_EStream_LE:0000000000000050 .Loc.428
     /tmp/ccKmBXiy.s:1752   .text.Endpoint_Write_EStream_LE:0000000000000056 .Loc.429
     /tmp/ccKmBXiy.s:1753   .text.Endpoint_Write_EStream_LE:0000000000000056 .Loc.430
     /tmp/ccKmBXiy.s:1761   .text.Endpoint_Write_EStream_LE:0000000000000064 .Loc.431
     /tmp/ccKmBXiy.s:1762   .text.Endpoint_Write_EStream_LE:0000000000000064 .Loc.432
     /tmp/ccKmBXiy.s:1766   .text.Endpoint_Write_EStream_LE:0000000000000068 .Loc.433
     /tmp/ccKmBXiy.s:1776   .text.Endpoint_Write_EStream_LE:0000000000000076 .Loc.434
     /tmp/ccKmBXiy.s:1783   .text.Endpoint_Write_EStream_LE:000000000000007e .Loc.435
     /tmp/ccKmBXiy.s:1784   .text.Endpoint_Write_EStream_LE:000000000000007e .Loc.436
     /tmp/ccKmBXiy.s:1787   .text.Endpoint_Write_EStream_LE:0000000000000082 .Loc.437
     /tmp/ccKmBXiy.s:1790   .text.Endpoint_Write_EStream_LE:0000000000000086 .Loc.438
     /tmp/ccKmBXiy.s:1795   .text.Endpoint_Write_EStream_LE:000000000000008a .Loc.439
     /tmp/ccKmBXiy.s:1801   .text.Endpoint_Write_EStream_LE:0000000000000090 .Loc.440
     /tmp/ccKmBXiy.s:1803   .text.Endpoint_Write_EStream_LE:0000000000000090 .Loc.441
     /tmp/ccKmBXiy.s:1804   .text.Endpoint_Write_EStream_LE:0000000000000090 .Loc.442
     /tmp/ccKmBXiy.s:1807   .text.Endpoint_Write_EStream_LE:0000000000000094 .Loc.443
     /tmp/ccKmBXiy.s:1810   .text.Endpoint_Write_EStream_LE:0000000000000094 .Loc.444
     /tmp/ccKmBXiy.s:1814   .text.Endpoint_Write_EStream_LE:0000000000000098 .Loc.445
     /tmp/ccKmBXiy.s:1815   .text.Endpoint_Write_EStream_LE:0000000000000098 .Loc.446
     /tmp/ccKmBXiy.s:1818   .text.Endpoint_Write_EStream_LE:000000000000009a .Loc.447
     /tmp/ccKmBXiy.s:1819   .text.Endpoint_Write_EStream_LE:000000000000009a .Loc.448
     /tmp/ccKmBXiy.s:1824   .text.Endpoint_Write_EStream_LE:00000000000000a0 .Loc.449
     /tmp/ccKmBXiy.s:1826   .text.Endpoint_Write_EStream_LE:00000000000000a2 L0
     /tmp/ccKmBXiy.s:1832   .text.Endpoint_Write_EStream_BE:0000000000000000 Endpoint_Write_EStream_BE
     /tmp/ccKmBXiy.s:1835   .text.Endpoint_Write_EStream_BE:0000000000000000 .Loc.450
     /tmp/ccKmBXiy.s:1836   .text.Endpoint_Write_EStream_BE:0000000000000000 L0
     /tmp/ccKmBXiy.s:1837   .text.Endpoint_Write_EStream_BE:0000000000000000 .Loc.451
     /tmp/ccKmBXiy.s:1881   .text.Endpoint_Write_EStream_BE:0000000000000018 .Loc.452
     /tmp/ccKmBXiy.s:1883   .text.Endpoint_Write_EStream_BE:0000000000000018 .Loc.453
     /tmp/ccKmBXiy.s:1884   .text.Endpoint_Write_EStream_BE:0000000000000018 .Loc.454
     /tmp/ccKmBXiy.s:1885   .text.Endpoint_Write_EStream_BE:0000000000000018 .Loc.455
     /tmp/ccKmBXiy.s:1886   .text.Endpoint_Write_EStream_BE:0000000000000018 .Loc.456
     /tmp/ccKmBXiy.s:1889   .text.Endpoint_Write_EStream_BE:000000000000001c .Loc.457
     /tmp/ccKmBXiy.s:1892   .text.Endpoint_Write_EStream_BE:000000000000001e .Loc.458
     /tmp/ccKmBXiy.s:1895   .text.Endpoint_Write_EStream_BE:0000000000000022 .Loc.459
     /tmp/ccKmBXiy.s:1899   .text.Endpoint_Write_EStream_BE:0000000000000026 .Loc.460
     /tmp/ccKmBXiy.s:1903   .text.Endpoint_Write_EStream_BE:000000000000002a .Loc.461
     /tmp/ccKmBXiy.s:1904   .text.Endpoint_Write_EStream_BE:000000000000002a .Loc.462
     /tmp/ccKmBXiy.s:1908   .text.Endpoint_Write_EStream_BE:0000000000000030 .Loc.463
     /tmp/ccKmBXiy.s:1909   .text.Endpoint_Write_EStream_BE:0000000000000030 .Loc.464
     /tmp/ccKmBXiy.s:1914   .text.Endpoint_Write_EStream_BE:0000000000000036 .Loc.465
     /tmp/ccKmBXiy.s:1918   .text.Endpoint_Write_EStream_BE:000000000000003a .Loc.466
     /tmp/ccKmBXiy.s:1923   .text.Endpoint_Write_EStream_BE:000000000000003e .Loc.467
     /tmp/ccKmBXiy.s:1928   .text.Endpoint_Write_EStream_BE:0000000000000042 .Loc.468
     /tmp/ccKmBXiy.s:1934   .text.Endpoint_Write_EStream_BE:0000000000000048 .Loc.469
     /tmp/ccKmBXiy.s:1937   .text.Endpoint_Write_EStream_BE:0000000000000048 .Loc.470
     /tmp/ccKmBXiy.s:1939   .text.Endpoint_Write_EStream_BE:0000000000000048 .Loc.471
     /tmp/ccKmBXiy.s:1940   .text.Endpoint_Write_EStream_BE:0000000000000048 .Loc.472
     /tmp/ccKmBXiy.s:1944   .text.Endpoint_Write_EStream_BE:000000000000004c .Loc.473
     /tmp/ccKmBXiy.s:1947   .text.Endpoint_Write_EStream_BE:0000000000000050 .Loc.474
     /tmp/ccKmBXiy.s:1950   .text.Endpoint_Write_EStream_BE:0000000000000050 .Loc.475
     /tmp/ccKmBXiy.s:1952   .text.Endpoint_Write_EStream_BE:0000000000000050 .Loc.476
     /tmp/ccKmBXiy.s:1953   .text.Endpoint_Write_EStream_BE:0000000000000050 .Loc.477
     /tmp/ccKmBXiy.s:1959   .text.Endpoint_Write_EStream_BE:000000000000005a .Loc.478
     /tmp/ccKmBXiy.s:1960   .text.Endpoint_Write_EStream_BE:000000000000005a .Loc.479
     /tmp/ccKmBXiy.s:1964   .text.Endpoint_Write_EStream_BE:0000000000000060 .Loc.480
     /tmp/ccKmBXiy.s:1965   .text.Endpoint_Write_EStream_BE:0000000000000060 .Loc.481
     /tmp/ccKmBXiy.s:1973   .text.Endpoint_Write_EStream_BE:000000000000006e .Loc.482
     /tmp/ccKmBXiy.s:1974   .text.Endpoint_Write_EStream_BE:000000000000006e .Loc.483
     /tmp/ccKmBXiy.s:1978   .text.Endpoint_Write_EStream_BE:0000000000000072 .Loc.484
     /tmp/ccKmBXiy.s:1988   .text.Endpoint_Write_EStream_BE:0000000000000080 .Loc.485
     /tmp/ccKmBXiy.s:1995   .text.Endpoint_Write_EStream_BE:0000000000000088 .Loc.486
     /tmp/ccKmBXiy.s:1996   .text.Endpoint_Write_EStream_BE:0000000000000088 .Loc.487
     /tmp/ccKmBXiy.s:1999   .text.Endpoint_Write_EStream_BE:000000000000008c .Loc.488
     /tmp/ccKmBXiy.s:2002   .text.Endpoint_Write_EStream_BE:0000000000000090 .Loc.489
     /tmp/ccKmBXiy.s:2007   .text.Endpoint_Write_EStream_BE:0000000000000094 .Loc.490
     /tmp/ccKmBXiy.s:2013   .text.Endpoint_Write_EStream_BE:000000000000009a .Loc.491
     /tmp/ccKmBXiy.s:2015   .text.Endpoint_Write_EStream_BE:000000000000009a .Loc.492
     /tmp/ccKmBXiy.s:2016   .text.Endpoint_Write_EStream_BE:000000000000009a .Loc.493
     /tmp/ccKmBXiy.s:2019   .text.Endpoint_Write_EStream_BE:000000000000009e .Loc.494
     /tmp/ccKmBXiy.s:2022   .text.Endpoint_Write_EStream_BE:000000000000009e .Loc.495
     /tmp/ccKmBXiy.s:2025   .text.Endpoint_Write_EStream_BE:00000000000000a0 .Loc.496
     /tmp/ccKmBXiy.s:2026   .text.Endpoint_Write_EStream_BE:00000000000000a0 .Loc.497
     /tmp/ccKmBXiy.s:2030   .text.Endpoint_Write_EStream_BE:00000000000000a4 .Loc.498
     /tmp/ccKmBXiy.s:2031   .text.Endpoint_Write_EStream_BE:00000000000000a4 .Loc.499
     /tmp/ccKmBXiy.s:2036   .text.Endpoint_Write_EStream_BE:00000000000000aa .Loc.500
     /tmp/ccKmBXiy.s:2038   .text.Endpoint_Write_EStream_BE:00000000000000ac L0
     /tmp/ccKmBXiy.s:2044   .text.Endpoint_Read_EStream_LE:0000000000000000 Endpoint_Read_EStream_LE
     /tmp/ccKmBXiy.s:2047   .text.Endpoint_Read_EStream_LE:0000000000000000 .Loc.501
     /tmp/ccKmBXiy.s:2048   .text.Endpoint_Read_EStream_LE:0000000000000000 L0
     /tmp/ccKmBXiy.s:2049   .text.Endpoint_Read_EStream_LE:0000000000000000 .Loc.502
     /tmp/ccKmBXiy.s:2093   .text.Endpoint_Read_EStream_LE:0000000000000018 .Loc.503
     /tmp/ccKmBXiy.s:2095   .text.Endpoint_Read_EStream_LE:0000000000000018 .Loc.504
     /tmp/ccKmBXiy.s:2096   .text.Endpoint_Read_EStream_LE:0000000000000018 .Loc.505
     /tmp/ccKmBXiy.s:2097   .text.Endpoint_Read_EStream_LE:0000000000000018 .Loc.506
     /tmp/ccKmBXiy.s:2098   .text.Endpoint_Read_EStream_LE:0000000000000018 .Loc.507
     /tmp/ccKmBXiy.s:2101   .text.Endpoint_Read_EStream_LE:000000000000001c .Loc.508
     /tmp/ccKmBXiy.s:2104   .text.Endpoint_Read_EStream_LE:000000000000001e .Loc.509
     /tmp/ccKmBXiy.s:2107   .text.Endpoint_Read_EStream_LE:0000000000000022 .Loc.510
     /tmp/ccKmBXiy.s:2108   .text.Endpoint_Read_EStream_LE:0000000000000022 .Loc.511
     /tmp/ccKmBXiy.s:2112   .text.Endpoint_Read_EStream_LE:0000000000000028 .Loc.512
     /tmp/ccKmBXiy.s:2113   .text.Endpoint_Read_EStream_LE:0000000000000028 .Loc.513
     /tmp/ccKmBXiy.s:2117   .text.Endpoint_Read_EStream_LE:000000000000002e .Loc.514
     /tmp/ccKmBXiy.s:2121   .text.Endpoint_Read_EStream_LE:0000000000000032 .Loc.515
     /tmp/ccKmBXiy.s:2126   .text.Endpoint_Read_EStream_LE:0000000000000036 .Loc.516
     /tmp/ccKmBXiy.s:2131   .text.Endpoint_Read_EStream_LE:000000000000003a .Loc.517
     /tmp/ccKmBXiy.s:2136   .text.Endpoint_Read_EStream_LE:000000000000003e .Loc.518
     /tmp/ccKmBXiy.s:2139   .text.Endpoint_Read_EStream_LE:000000000000003e .Loc.519
     /tmp/ccKmBXiy.s:2141   .text.Endpoint_Read_EStream_LE:000000000000003e .Loc.520
     /tmp/ccKmBXiy.s:2142   .text.Endpoint_Read_EStream_LE:000000000000003e .Loc.521
     /tmp/ccKmBXiy.s:2146   .text.Endpoint_Read_EStream_LE:0000000000000042 .Loc.522
     /tmp/ccKmBXiy.s:2149   .text.Endpoint_Read_EStream_LE:0000000000000046 .Loc.523
     /tmp/ccKmBXiy.s:2152   .text.Endpoint_Read_EStream_LE:0000000000000046 .Loc.524
     /tmp/ccKmBXiy.s:2154   .text.Endpoint_Read_EStream_LE:0000000000000046 .Loc.525
     /tmp/ccKmBXiy.s:2155   .text.Endpoint_Read_EStream_LE:0000000000000046 .Loc.526
     /tmp/ccKmBXiy.s:2161   .text.Endpoint_Read_EStream_LE:0000000000000050 .Loc.527
     /tmp/ccKmBXiy.s:2162   .text.Endpoint_Read_EStream_LE:0000000000000050 .Loc.528
     /tmp/ccKmBXiy.s:2166   .text.Endpoint_Read_EStream_LE:0000000000000056 .Loc.529
     /tmp/ccKmBXiy.s:2167   .text.Endpoint_Read_EStream_LE:0000000000000056 .Loc.530
     /tmp/ccKmBXiy.s:2175   .text.Endpoint_Read_EStream_LE:0000000000000064 .Loc.531
     /tmp/ccKmBXiy.s:2176   .text.Endpoint_Read_EStream_LE:0000000000000064 .Loc.532
     /tmp/ccKmBXiy.s:2180   .text.Endpoint_Read_EStream_LE:0000000000000068 .Loc.533
     /tmp/ccKmBXiy.s:2190   .text.Endpoint_Read_EStream_LE:0000000000000076 .Loc.534
     /tmp/ccKmBXiy.s:2197   .text.Endpoint_Read_EStream_LE:000000000000007e .Loc.535
     /tmp/ccKmBXiy.s:2198   .text.Endpoint_Read_EStream_LE:000000000000007e .Loc.536
     /tmp/ccKmBXiy.s:2201   .text.Endpoint_Read_EStream_LE:0000000000000082 .Loc.537
     /tmp/ccKmBXiy.s:2204   .text.Endpoint_Read_EStream_LE:0000000000000086 .Loc.538
     /tmp/ccKmBXiy.s:2209   .text.Endpoint_Read_EStream_LE:000000000000008a .Loc.539
     /tmp/ccKmBXiy.s:2212   .text.Endpoint_Read_EStream_LE:000000000000008a .Loc.540
     /tmp/ccKmBXiy.s:2214   .text.Endpoint_Read_EStream_LE:000000000000008a .Loc.541
     /tmp/ccKmBXiy.s:2215   .text.Endpoint_Read_EStream_LE:000000000000008a .Loc.542
     /tmp/ccKmBXiy.s:2219   .text.Endpoint_Read_EStream_LE:000000000000008e .Loc.543
     /tmp/ccKmBXiy.s:2223   .text.Endpoint_Read_EStream_LE:0000000000000094 .Loc.544
     /tmp/ccKmBXiy.s:2227   .text.Endpoint_Read_EStream_LE:0000000000000098 .Loc.545
     /tmp/ccKmBXiy.s:2228   .text.Endpoint_Read_EStream_LE:0000000000000098 .Loc.546
     /tmp/ccKmBXiy.s:2231   .text.Endpoint_Read_EStream_LE:000000000000009a .Loc.547
     /tmp/ccKmBXiy.s:2232   .text.Endpoint_Read_EStream_LE:000000000000009a .Loc.548
     /tmp/ccKmBXiy.s:2237   .text.Endpoint_Read_EStream_LE:00000000000000a0 .Loc.549
     /tmp/ccKmBXiy.s:2239   .text.Endpoint_Read_EStream_LE:00000000000000a2 L0
     /tmp/ccKmBXiy.s:2245   .text.Endpoint_Read_EStream_BE:0000000000000000 Endpoint_Read_EStream_BE
     /tmp/ccKmBXiy.s:2248   .text.Endpoint_Read_EStream_BE:0000000000000000 .Loc.550
     /tmp/ccKmBXiy.s:2249   .text.Endpoint_Read_EStream_BE:0000000000000000 L0
     /tmp/ccKmBXiy.s:2250   .text.Endpoint_Read_EStream_BE:0000000000000000 .Loc.551
     /tmp/ccKmBXiy.s:2294   .text.Endpoint_Read_EStream_BE:0000000000000018 .Loc.552
     /tmp/ccKmBXiy.s:2296   .text.Endpoint_Read_EStream_BE:0000000000000018 .Loc.553
     /tmp/ccKmBXiy.s:2297   .text.Endpoint_Read_EStream_BE:0000000000000018 .Loc.554
     /tmp/ccKmBXiy.s:2298   .text.Endpoint_Read_EStream_BE:0000000000000018 .Loc.555
     /tmp/ccKmBXiy.s:2299   .text.Endpoint_Read_EStream_BE:0000000000000018 .Loc.556
     /tmp/ccKmBXiy.s:2302   .text.Endpoint_Read_EStream_BE:000000000000001c .Loc.557
     /tmp/ccKmBXiy.s:2305   .text.Endpoint_Read_EStream_BE:000000000000001e .Loc.558
     /tmp/ccKmBXiy.s:2308   .text.Endpoint_Read_EStream_BE:0000000000000022 .Loc.559
     /tmp/ccKmBXiy.s:2312   .text.Endpoint_Read_EStream_BE:0000000000000026 .Loc.560
     /tmp/ccKmBXiy.s:2316   .text.Endpoint_Read_EStream_BE:000000000000002a .Loc.561
     /tmp/ccKmBXiy.s:2317   .text.Endpoint_Read_EStream_BE:000000000000002a .Loc.562
     /tmp/ccKmBXiy.s:2321   .text.Endpoint_Read_EStream_BE:0000000000000030 .Loc.563
     /tmp/ccKmBXiy.s:2322   .text.Endpoint_Read_EStream_BE:0000000000000030 .Loc.564
     /tmp/ccKmBXiy.s:2327   .text.Endpoint_Read_EStream_BE:0000000000000036 .Loc.565
     /tmp/ccKmBXiy.s:2331   .text.Endpoint_Read_EStream_BE:000000000000003a .Loc.566
     /tmp/ccKmBXiy.s:2336   .text.Endpoint_Read_EStream_BE:000000000000003e .Loc.567
     /tmp/ccKmBXiy.s:2341   .text.Endpoint_Read_EStream_BE:0000000000000042 .Loc.568
     /tmp/ccKmBXiy.s:2347   .text.Endpoint_Read_EStream_BE:0000000000000048 .Loc.569
     /tmp/ccKmBXiy.s:2350   .text.Endpoint_Read_EStream_BE:0000000000000048 .Loc.570
     /tmp/ccKmBXiy.s:2352   .text.Endpoint_Read_EStream_BE:0000000000000048 .Loc.571
     /tmp/ccKmBXiy.s:2353   .text.Endpoint_Read_EStream_BE:0000000000000048 .Loc.572
     /tmp/ccKmBXiy.s:2357   .text.Endpoint_Read_EStream_BE:000000000000004c .Loc.573
     /tmp/ccKmBXiy.s:2360   .text.Endpoint_Read_EStream_BE:0000000000000050 .Loc.574
     /tmp/ccKmBXiy.s:2363   .text.Endpoint_Read_EStream_BE:0000000000000050 .Loc.575
     /tmp/ccKmBXiy.s:2365   .text.Endpoint_Read_EStream_BE:0000000000000050 .Loc.576
     /tmp/ccKmBXiy.s:2366   .text.Endpoint_Read_EStream_BE:0000000000000050 .Loc.577
     /tmp/ccKmBXiy.s:2372   .text.Endpoint_Read_EStream_BE:000000000000005a .Loc.578
     /tmp/ccKmBXiy.s:2373   .text.Endpoint_Read_EStream_BE:000000000000005a .Loc.579
     /tmp/ccKmBXiy.s:2377   .text.Endpoint_Read_EStream_BE:0000000000000060 .Loc.580
     /tmp/ccKmBXiy.s:2378   .text.Endpoint_Read_EStream_BE:0000000000000060 .Loc.581
     /tmp/ccKmBXiy.s:2386   .text.Endpoint_Read_EStream_BE:000000000000006e .Loc.582
     /tmp/ccKmBXiy.s:2387   .text.Endpoint_Read_EStream_BE:000000000000006e .Loc.583
     /tmp/ccKmBXiy.s:2391   .text.Endpoint_Read_EStream_BE:0000000000000072 .Loc.584
     /tmp/ccKmBXiy.s:2401   .text.Endpoint_Read_EStream_BE:0000000000000080 .Loc.585
     /tmp/ccKmBXiy.s:2408   .text.Endpoint_Read_EStream_BE:0000000000000088 .Loc.586
     /tmp/ccKmBXiy.s:2409   .text.Endpoint_Read_EStream_BE:0000000000000088 .Loc.587
     /tmp/ccKmBXiy.s:2412   .text.Endpoint_Read_EStream_BE:000000000000008c .Loc.588
     /tmp/ccKmBXiy.s:2415   .text.Endpoint_Read_EStream_BE:0000000000000090 .Loc.589
     /tmp/ccKmBXiy.s:2420   .text.Endpoint_Read_EStream_BE:0000000000000094 .Loc.590
     /tmp/ccKmBXiy.s:2423   .text.Endpoint_Read_EStream_BE:0000000000000094 .Loc.591
     /tmp/ccKmBXiy.s:2425   .text.Endpoint_Read_EStream_BE:0000000000000094 .Loc.592
     /tmp/ccKmBXiy.s:2426   .text.Endpoint_Read_EStream_BE:0000000000000094 .Loc.593
     /tmp/ccKmBXiy.s:2430   .text.Endpoint_Read_EStream_BE:0000000000000098 .Loc.594
     /tmp/ccKmBXiy.s:2434   .text.Endpoint_Read_EStream_BE:000000000000009e .Loc.595
     /tmp/ccKmBXiy.s:2437   .text.Endpoint_Read_EStream_BE:00000000000000a0 .Loc.596
     /tmp/ccKmBXiy.s:2438   .text.Endpoint_Read_EStream_BE:00000000000000a0 .Loc.597
     /tmp/ccKmBXiy.s:2442   .text.Endpoint_Read_EStream_BE:00000000000000a4 .Loc.598
     /tmp/ccKmBXiy.s:2443   .text.Endpoint_Read_EStream_BE:00000000000000a4 .Loc.599
     /tmp/ccKmBXiy.s:2448   .text.Endpoint_Read_EStream_BE:00000000000000aa .Loc.600
     /tmp/ccKmBXiy.s:2450   .text.Endpoint_Read_EStream_BE:00000000000000ac L0
     /tmp/ccKmBXiy.s:2456   .text.Endpoint_Write_Control_Stream_LE:0000000000000000 Endpoint_Write_Control_Stream_LE
     /tmp/ccKmBXiy.s:2460   .text.Endpoint_Write_Control_Stream_LE:0000000000000000 .Loc.601
     /tmp/ccKmBXiy.s:2461   .text.Endpoint_Write_Control_Stream_LE:0000000000000000 L0
     /tmp/ccKmBXiy.s:2466   .text.Endpoint_Write_Control_Stream_LE:0000000000000000 .Loc.602
     /tmp/ccKmBXiy.s:2469   .text.Endpoint_Write_Control_Stream_LE:0000000000000004 .Loc.603
     /tmp/ccKmBXiy.s:2471   .text.Endpoint_Write_Control_Stream_LE:0000000000000004 .Loc.604
     /tmp/ccKmBXiy.s:2472   .text.Endpoint_Write_Control_Stream_LE:0000000000000004 .Loc.605
     /tmp/ccKmBXiy.s:2473   .text.Endpoint_Write_Control_Stream_LE:0000000000000004 .Loc.606
     /tmp/ccKmBXiy.s:2477   .text.Endpoint_Write_Control_Stream_LE:000000000000000c .Loc.607
     /tmp/ccKmBXiy.s:2481   .text.Endpoint_Write_Control_Stream_LE:0000000000000012 .Loc.608
     /tmp/ccKmBXiy.s:2482   .text.Endpoint_Write_Control_Stream_LE:0000000000000012 .Loc.609
     /tmp/ccKmBXiy.s:2486   .text.Endpoint_Write_Control_Stream_LE:0000000000000016 .Loc.610
     /tmp/ccKmBXiy.s:2490   .text.Endpoint_Write_Control_Stream_LE:0000000000000018 .Loc.611
     /tmp/ccKmBXiy.s:2494   .text.Endpoint_Write_Control_Stream_LE:000000000000001a .Loc.612
     /tmp/ccKmBXiy.s:2497   .text.Endpoint_Write_Control_Stream_LE:000000000000001e .Loc.613
     /tmp/ccKmBXiy.s:2502   .text.Endpoint_Write_Control_Stream_LE:0000000000000022 .Loc.614
     /tmp/ccKmBXiy.s:2505   .text.Endpoint_Write_Control_Stream_LE:0000000000000022 .Loc.615
     /tmp/ccKmBXiy.s:2507   .text.Endpoint_Write_Control_Stream_LE:0000000000000022 .Loc.616
     /tmp/ccKmBXiy.s:2508   .text.Endpoint_Write_Control_Stream_LE:0000000000000022 .Loc.617
     /tmp/ccKmBXiy.s:2512   .text.Endpoint_Write_Control_Stream_LE:0000000000000026 .Loc.618
     /tmp/ccKmBXiy.s:2515   .text.Endpoint_Write_Control_Stream_LE:000000000000002a .Loc.619
     /tmp/ccKmBXiy.s:2520   .text.Endpoint_Write_Control_Stream_LE:000000000000002e .Loc.620
     /tmp/ccKmBXiy.s:2523   .text.Endpoint_Write_Control_Stream_LE:000000000000002e .Loc.621
     /tmp/ccKmBXiy.s:2525   .text.Endpoint_Write_Control_Stream_LE:000000000000002e .Loc.622
     /tmp/ccKmBXiy.s:2526   .text.Endpoint_Write_Control_Stream_LE:000000000000002e .Loc.623
     /tmp/ccKmBXiy.s:2530   .text.Endpoint_Write_Control_Stream_LE:0000000000000038 .Loc.624
     /tmp/ccKmBXiy.s:2534   .text.Endpoint_Write_Control_Stream_LE:000000000000003a .Loc.625
     /tmp/ccKmBXiy.s:2538   .text.Endpoint_Write_Control_Stream_LE:000000000000003a .Loc.626
     /tmp/ccKmBXiy.s:2539   .text.Endpoint_Write_Control_Stream_LE:000000000000003a .Loc.627
     /tmp/ccKmBXiy.s:2542   .text.Endpoint_Write_Control_Stream_LE:000000000000003e .Loc.628
     /tmp/ccKmBXiy.s:2543   .text.Endpoint_Write_Control_Stream_LE:000000000000003e .Loc.629
     /tmp/ccKmBXiy.s:2546   .text.Endpoint_Write_Control_Stream_LE:0000000000000042 .Loc.630
     /tmp/ccKmBXiy.s:2547   .text.Endpoint_Write_Control_Stream_LE:0000000000000042 .Loc.631
     /tmp/ccKmBXiy.s:2550   .text.Endpoint_Write_Control_Stream_LE:0000000000000046 .Loc.632
     /tmp/ccKmBXiy.s:2553   .text.Endpoint_Write_Control_Stream_LE:0000000000000046 .Loc.633
     /tmp/ccKmBXiy.s:2555   .text.Endpoint_Write_Control_Stream_LE:0000000000000046 .Loc.634
     /tmp/ccKmBXiy.s:2556   .text.Endpoint_Write_Control_Stream_LE:0000000000000046 .Loc.635
     /tmp/ccKmBXiy.s:2559   .text.Endpoint_Write_Control_Stream_LE:000000000000004a .Loc.636
     /tmp/ccKmBXiy.s:2562   .text.Endpoint_Write_Control_Stream_LE:000000000000004a .Loc.637
     /tmp/ccKmBXiy.s:2565   .text.Endpoint_Write_Control_Stream_LE:000000000000004e .Loc.638
     /tmp/ccKmBXiy.s:2568   .text.Endpoint_Write_Control_Stream_LE:000000000000004e .Loc.639
     /tmp/ccKmBXiy.s:2570   .text.Endpoint_Write_Control_Stream_LE:000000000000004e .Loc.640
     /tmp/ccKmBXiy.s:2571   .text.Endpoint_Write_Control_Stream_LE:000000000000004e .Loc.641
     /tmp/ccKmBXiy.s:2575   .text.Endpoint_Write_Control_Stream_LE:0000000000000052 .Loc.642
     /tmp/ccKmBXiy.s:2578   .text.Endpoint_Write_Control_Stream_LE:0000000000000056 .Loc.643
     /tmp/ccKmBXiy.s:2581   .text.Endpoint_Write_Control_Stream_LE:0000000000000056 .Loc.644
     /tmp/ccKmBXiy.s:2583   .text.Endpoint_Write_Control_Stream_LE:0000000000000056 .Loc.645
     /tmp/ccKmBXiy.s:2584   .text.Endpoint_Write_Control_Stream_LE:0000000000000056 .Loc.646
     /tmp/ccKmBXiy.s:2588   .text.Endpoint_Write_Control_Stream_LE:000000000000005a .Loc.647
     /tmp/ccKmBXiy.s:2592   .text.Endpoint_Write_Control_Stream_LE:000000000000005e .Loc.648
     /tmp/ccKmBXiy.s:2595   .text.Endpoint_Write_Control_Stream_LE:000000000000005e .Loc.649
     /tmp/ccKmBXiy.s:2597   .text.Endpoint_Write_Control_Stream_LE:000000000000005e .Loc.650
     /tmp/ccKmBXiy.s:2598   .text.Endpoint_Write_Control_Stream_LE:000000000000005e .Loc.651
     /tmp/ccKmBXiy.s:2602   .text.Endpoint_Write_Control_Stream_LE:0000000000000066 .Loc.652
     /tmp/ccKmBXiy.s:2605   .text.Endpoint_Write_Control_Stream_LE:0000000000000066 .Loc.653
     /tmp/ccKmBXiy.s:2607   .text.Endpoint_Write_Control_Stream_LE:0000000000000066 .Loc.654
     /tmp/ccKmBXiy.s:2610   .text.Endpoint_Write_Control_Stream_LE:000000000000006a .Loc.655
     /tmp/ccKmBXiy.s:2615   .text.Endpoint_Write_Control_Stream_LE:0000000000000070 .Loc.656
     /tmp/ccKmBXiy.s:2616   .text.Endpoint_Write_Control_Stream_LE:0000000000000070 .Loc.657
     /tmp/ccKmBXiy.s:2624   .text.Endpoint_Write_Control_Stream_LE:000000000000007a .Loc.658
     /tmp/ccKmBXiy.s:2627   .text.Endpoint_Write_Control_Stream_LE:000000000000007a .Loc.659
     /tmp/ccKmBXiy.s:2629   .text.Endpoint_Write_Control_Stream_LE:000000000000007a .Loc.660
     /tmp/ccKmBXiy.s:2630   .text.Endpoint_Write_Control_Stream_LE:000000000000007a .Loc.661
     /tmp/ccKmBXiy.s:2633   .text.Endpoint_Write_Control_Stream_LE:000000000000007e .Loc.662
     /tmp/ccKmBXiy.s:2637   .text.Endpoint_Write_Control_Stream_LE:0000000000000084 .Loc.663
     /tmp/ccKmBXiy.s:2641   .text.Endpoint_Write_Control_Stream_LE:0000000000000086 .Loc.664
     /tmp/ccKmBXiy.s:2644   .text.Endpoint_Write_Control_Stream_LE:0000000000000086 .Loc.665
     /tmp/ccKmBXiy.s:2649   .text.Endpoint_Write_Control_Stream_LE:0000000000000088 .Loc.666
     /tmp/ccKmBXiy.s:2651   .text.Endpoint_Write_Control_Stream_LE:0000000000000088 .Loc.667
     /tmp/ccKmBXiy.s:2652   .text.Endpoint_Write_Control_Stream_LE:0000000000000088 .Loc.668
     /tmp/ccKmBXiy.s:2655   .text.Endpoint_Write_Control_Stream_LE:000000000000008c .Loc.669
     /tmp/ccKmBXiy.s:2658   .text.Endpoint_Write_Control_Stream_LE:000000000000008c .Loc.670
     /tmp/ccKmBXiy.s:2659   .text.Endpoint_Write_Control_Stream_LE:000000000000008c .Loc.671
     /tmp/ccKmBXiy.s:2660   .text.Endpoint_Write_Control_Stream_LE:000000000000008c .Loc.672
     /tmp/ccKmBXiy.s:2663   .text.Endpoint_Write_Control_Stream_LE:000000000000008e .Loc.673
     /tmp/ccKmBXiy.s:2664   .text.Endpoint_Write_Control_Stream_LE:000000000000008e .Loc.674
     /tmp/ccKmBXiy.s:2668   .text.Endpoint_Write_Control_Stream_LE:0000000000000092 .Loc.675
     /tmp/ccKmBXiy.s:2672   .text.Endpoint_Write_Control_Stream_LE:0000000000000094 .Loc.676
     /tmp/ccKmBXiy.s:2676   .text.Endpoint_Write_Control_Stream_LE:0000000000000094 .Loc.677
     /tmp/ccKmBXiy.s:2677   .text.Endpoint_Write_Control_Stream_LE:0000000000000094 .Loc.678
     /tmp/ccKmBXiy.s:2680   .text.Endpoint_Write_Control_Stream_LE:0000000000000098 .Loc.679
     /tmp/ccKmBXiy.s:2681   .text.Endpoint_Write_Control_Stream_LE:0000000000000098 .Loc.680
     /tmp/ccKmBXiy.s:2684   .text.Endpoint_Write_Control_Stream_LE:000000000000009c .Loc.681
     /tmp/ccKmBXiy.s:2685   .text.Endpoint_Write_Control_Stream_LE:000000000000009c .Loc.682
     /tmp/ccKmBXiy.s:2688   .text.Endpoint_Write_Control_Stream_LE:00000000000000a0 .Loc.683
     /tmp/ccKmBXiy.s:2691   .text.Endpoint_Write_Control_Stream_LE:00000000000000a0 .Loc.684
     /tmp/ccKmBXiy.s:2693   .text.Endpoint_Write_Control_Stream_LE:00000000000000a0 .Loc.685
     /tmp/ccKmBXiy.s:2694   .text.Endpoint_Write_Control_Stream_LE:00000000000000a0 .Loc.686
     /tmp/ccKmBXiy.s:2697   .text.Endpoint_Write_Control_Stream_LE:00000000000000a4 .Loc.687
     /tmp/ccKmBXiy.s:2700   .text.Endpoint_Write_Control_Stream_LE:00000000000000a4 .Loc.688
     /tmp/ccKmBXiy.s:2705   .text.Endpoint_Write_Control_Stream_LE:00000000000000a8 .Loc.689
     /tmp/ccKmBXiy.s:2708   .text.Endpoint_Write_Control_Stream_LE:00000000000000a8 .Loc.690
     /tmp/ccKmBXiy.s:2712   .text.Endpoint_Write_Control_Stream_LE:00000000000000aa .Loc.691
     /tmp/ccKmBXiy.s:2716   .text.Endpoint_Write_Control_Stream_LE:00000000000000ac .Loc.692
     /tmp/ccKmBXiy.s:2720   .text.Endpoint_Write_Control_Stream_LE:00000000000000b0 .Loc.693
     /tmp/ccKmBXiy.s:2724   .text.Endpoint_Write_Control_Stream_LE:00000000000000b4 L0
     /tmp/ccKmBXiy.s:2730   .text.Endpoint_Write_Control_Stream_BE:0000000000000000 Endpoint_Write_Control_Stream_BE
     /tmp/ccKmBXiy.s:2733   .text.Endpoint_Write_Control_Stream_BE:0000000000000000 .Loc.694
     /tmp/ccKmBXiy.s:2734   .text.Endpoint_Write_Control_Stream_BE:0000000000000000 L0
     /tmp/ccKmBXiy.s:2739   .text.Endpoint_Write_Control_Stream_BE:0000000000000000 .Loc.695
     /tmp/ccKmBXiy.s:2741   .text.Endpoint_Write_Control_Stream_BE:0000000000000002 .Loc.696
     /tmp/ccKmBXiy.s:2742   .text.Endpoint_Write_Control_Stream_BE:0000000000000002 .Loc.697
     /tmp/ccKmBXiy.s:2745   .text.Endpoint_Write_Control_Stream_BE:0000000000000006 .Loc.698
     /tmp/ccKmBXiy.s:2749   .text.Endpoint_Write_Control_Stream_BE:000000000000000a .Loc.699
     /tmp/ccKmBXiy.s:2750   .text.Endpoint_Write_Control_Stream_BE:000000000000000a .Loc.700
     /tmp/ccKmBXiy.s:2751   .text.Endpoint_Write_Control_Stream_BE:000000000000000a .Loc.701
     /tmp/ccKmBXiy.s:2754   .text.Endpoint_Write_Control_Stream_BE:0000000000000012 .Loc.702
     /tmp/ccKmBXiy.s:2758   .text.Endpoint_Write_Control_Stream_BE:0000000000000018 .Loc.703
     /tmp/ccKmBXiy.s:2759   .text.Endpoint_Write_Control_Stream_BE:0000000000000018 .Loc.704
     /tmp/ccKmBXiy.s:2764   .text.Endpoint_Write_Control_Stream_BE:000000000000001c .Loc.705
     /tmp/ccKmBXiy.s:2768   .text.Endpoint_Write_Control_Stream_BE:000000000000001e .Loc.706
     /tmp/ccKmBXiy.s:2772   .text.Endpoint_Write_Control_Stream_BE:0000000000000020 .Loc.707
     /tmp/ccKmBXiy.s:2776   .text.Endpoint_Write_Control_Stream_BE:0000000000000026 .Loc.708
     /tmp/ccKmBXiy.s:2780   .text.Endpoint_Write_Control_Stream_BE:000000000000002a .Loc.709
     /tmp/ccKmBXiy.s:2783   .text.Endpoint_Write_Control_Stream_BE:000000000000002a .Loc.710
     /tmp/ccKmBXiy.s:2785   .text.Endpoint_Write_Control_Stream_BE:000000000000002a .Loc.711
     /tmp/ccKmBXiy.s:2786   .text.Endpoint_Write_Control_Stream_BE:000000000000002a .Loc.712
     /tmp/ccKmBXiy.s:2790   .text.Endpoint_Write_Control_Stream_BE:000000000000002e .Loc.713
     /tmp/ccKmBXiy.s:2793   .text.Endpoint_Write_Control_Stream_BE:0000000000000032 .Loc.714
     /tmp/ccKmBXiy.s:2798   .text.Endpoint_Write_Control_Stream_BE:0000000000000036 .Loc.715
     /tmp/ccKmBXiy.s:2801   .text.Endpoint_Write_Control_Stream_BE:0000000000000036 .Loc.716
     /tmp/ccKmBXiy.s:2803   .text.Endpoint_Write_Control_Stream_BE:0000000000000036 .Loc.717
     /tmp/ccKmBXiy.s:2804   .text.Endpoint_Write_Control_Stream_BE:0000000000000036 .Loc.718
     /tmp/ccKmBXiy.s:2807   .text.Endpoint_Write_Control_Stream_BE:000000000000003a .Loc.719
     /tmp/ccKmBXiy.s:2810   .text.Endpoint_Write_Control_Stream_BE:0000000000000040 .Loc.720
     /tmp/ccKmBXiy.s:2814   .text.Endpoint_Write_Control_Stream_BE:0000000000000042 .Loc.721
     /tmp/ccKmBXiy.s:2818   .text.Endpoint_Write_Control_Stream_BE:0000000000000042 .Loc.722
     /tmp/ccKmBXiy.s:2819   .text.Endpoint_Write_Control_Stream_BE:0000000000000042 .Loc.723
     /tmp/ccKmBXiy.s:2822   .text.Endpoint_Write_Control_Stream_BE:0000000000000046 .Loc.724
     /tmp/ccKmBXiy.s:2823   .text.Endpoint_Write_Control_Stream_BE:0000000000000046 .Loc.725
     /tmp/ccKmBXiy.s:2826   .text.Endpoint_Write_Control_Stream_BE:000000000000004a .Loc.726
     /tmp/ccKmBXiy.s:2827   .text.Endpoint_Write_Control_Stream_BE:000000000000004a .Loc.727
     /tmp/ccKmBXiy.s:2830   .text.Endpoint_Write_Control_Stream_BE:000000000000004e .Loc.728
     /tmp/ccKmBXiy.s:2833   .text.Endpoint_Write_Control_Stream_BE:000000000000004e .Loc.729
     /tmp/ccKmBXiy.s:2835   .text.Endpoint_Write_Control_Stream_BE:000000000000004e .Loc.730
     /tmp/ccKmBXiy.s:2836   .text.Endpoint_Write_Control_Stream_BE:000000000000004e .Loc.731
     /tmp/ccKmBXiy.s:2839   .text.Endpoint_Write_Control_Stream_BE:0000000000000052 .Loc.732
     /tmp/ccKmBXiy.s:2842   .text.Endpoint_Write_Control_Stream_BE:0000000000000052 .Loc.733
     /tmp/ccKmBXiy.s:2845   .text.Endpoint_Write_Control_Stream_BE:0000000000000056 .Loc.734
     /tmp/ccKmBXiy.s:2848   .text.Endpoint_Write_Control_Stream_BE:0000000000000056 .Loc.735
     /tmp/ccKmBXiy.s:2850   .text.Endpoint_Write_Control_Stream_BE:0000000000000056 .Loc.736
     /tmp/ccKmBXiy.s:2851   .text.Endpoint_Write_Control_Stream_BE:0000000000000056 .Loc.737
     /tmp/ccKmBXiy.s:2855   .text.Endpoint_Write_Control_Stream_BE:000000000000005a .Loc.738
     /tmp/ccKmBXiy.s:2858   .text.Endpoint_Write_Control_Stream_BE:000000000000005e .Loc.739
     /tmp/ccKmBXiy.s:2861   .text.Endpoint_Write_Control_Stream_BE:000000000000005e .Loc.740
     /tmp/ccKmBXiy.s:2863   .text.Endpoint_Write_Control_Stream_BE:000000000000005e .Loc.741
     /tmp/ccKmBXiy.s:2864   .text.Endpoint_Write_Control_Stream_BE:000000000000005e .Loc.742
     /tmp/ccKmBXiy.s:2868   .text.Endpoint_Write_Control_Stream_BE:0000000000000062 .Loc.743
     /tmp/ccKmBXiy.s:2872   .text.Endpoint_Write_Control_Stream_BE:0000000000000066 .Loc.744
     /tmp/ccKmBXiy.s:2875   .text.Endpoint_Write_Control_Stream_BE:0000000000000066 .Loc.745
     /tmp/ccKmBXiy.s:2877   .text.Endpoint_Write_Control_Stream_BE:0000000000000066 .Loc.746
     /tmp/ccKmBXiy.s:2878   .text.Endpoint_Write_Control_Stream_BE:0000000000000066 .Loc.747
     /tmp/ccKmBXiy.s:2882   .text.Endpoint_Write_Control_Stream_BE:000000000000006e .Loc.748
     /tmp/ccKmBXiy.s:2885   .text.Endpoint_Write_Control_Stream_BE:000000000000006e .Loc.749
     /tmp/ccKmBXiy.s:2887   .text.Endpoint_Write_Control_Stream_BE:000000000000006e .Loc.750
     /tmp/ccKmBXiy.s:2891   .text.Endpoint_Write_Control_Stream_BE:0000000000000074 .Loc.751
     /tmp/ccKmBXiy.s:2896   .text.Endpoint_Write_Control_Stream_BE:000000000000007a .Loc.752
     /tmp/ccKmBXiy.s:2897   .text.Endpoint_Write_Control_Stream_BE:000000000000007a .Loc.753
     /tmp/ccKmBXiy.s:2904   .text.Endpoint_Write_Control_Stream_BE:0000000000000082 .Loc.754
     /tmp/ccKmBXiy.s:2907   .text.Endpoint_Write_Control_Stream_BE:0000000000000082 .Loc.755
     /tmp/ccKmBXiy.s:2909   .text.Endpoint_Write_Control_Stream_BE:0000000000000082 .Loc.756
     /tmp/ccKmBXiy.s:2910   .text.Endpoint_Write_Control_Stream_BE:0000000000000082 .Loc.757
     /tmp/ccKmBXiy.s:2913   .text.Endpoint_Write_Control_Stream_BE:0000000000000086 .Loc.758
     /tmp/ccKmBXiy.s:2917   .text.Endpoint_Write_Control_Stream_BE:000000000000008c .Loc.759
     /tmp/ccKmBXiy.s:2921   .text.Endpoint_Write_Control_Stream_BE:000000000000008e .Loc.760
     /tmp/ccKmBXiy.s:2924   .text.Endpoint_Write_Control_Stream_BE:000000000000008e .Loc.761
     /tmp/ccKmBXiy.s:2929   .text.Endpoint_Write_Control_Stream_BE:0000000000000090 .Loc.762
     /tmp/ccKmBXiy.s:2931   .text.Endpoint_Write_Control_Stream_BE:0000000000000090 .Loc.763
     /tmp/ccKmBXiy.s:2932   .text.Endpoint_Write_Control_Stream_BE:0000000000000090 .Loc.764
     /tmp/ccKmBXiy.s:2935   .text.Endpoint_Write_Control_Stream_BE:0000000000000094 .Loc.765
     /tmp/ccKmBXiy.s:2938   .text.Endpoint_Write_Control_Stream_BE:0000000000000094 .Loc.766
     /tmp/ccKmBXiy.s:2941   .text.Endpoint_Write_Control_Stream_BE:0000000000000096 .Loc.767
     /tmp/ccKmBXiy.s:2942   .text.Endpoint_Write_Control_Stream_BE:0000000000000096 .Loc.768
     /tmp/ccKmBXiy.s:2946   .text.Endpoint_Write_Control_Stream_BE:000000000000009a .Loc.769
     /tmp/ccKmBXiy.s:2947   .text.Endpoint_Write_Control_Stream_BE:000000000000009a .Loc.770
     /tmp/ccKmBXiy.s:2950   .text.Endpoint_Write_Control_Stream_BE:000000000000009c .Loc.771
     /tmp/ccKmBXiy.s:2954   .text.Endpoint_Write_Control_Stream_BE:000000000000009e .Loc.772
     /tmp/ccKmBXiy.s:2958   .text.Endpoint_Write_Control_Stream_BE:000000000000009e .Loc.773
     /tmp/ccKmBXiy.s:2959   .text.Endpoint_Write_Control_Stream_BE:000000000000009e .Loc.774
     /tmp/ccKmBXiy.s:2962   .text.Endpoint_Write_Control_Stream_BE:00000000000000a2 .Loc.775
     /tmp/ccKmBXiy.s:2963   .text.Endpoint_Write_Control_Stream_BE:00000000000000a2 .Loc.776
     /tmp/ccKmBXiy.s:2966   .text.Endpoint_Write_Control_Stream_BE:00000000000000a6 .Loc.777
     /tmp/ccKmBXiy.s:2967   .text.Endpoint_Write_Control_Stream_BE:00000000000000a6 .Loc.778
     /tmp/ccKmBXiy.s:2970   .text.Endpoint_Write_Control_Stream_BE:00000000000000aa .Loc.779
     /tmp/ccKmBXiy.s:2973   .text.Endpoint_Write_Control_Stream_BE:00000000000000aa .Loc.780
     /tmp/ccKmBXiy.s:2975   .text.Endpoint_Write_Control_Stream_BE:00000000000000aa .Loc.781
     /tmp/ccKmBXiy.s:2976   .text.Endpoint_Write_Control_Stream_BE:00000000000000aa .Loc.782
     /tmp/ccKmBXiy.s:2979   .text.Endpoint_Write_Control_Stream_BE:00000000000000ae .Loc.783
     /tmp/ccKmBXiy.s:2982   .text.Endpoint_Write_Control_Stream_BE:00000000000000ae .Loc.784
     /tmp/ccKmBXiy.s:2987   .text.Endpoint_Write_Control_Stream_BE:00000000000000b2 .Loc.785
     /tmp/ccKmBXiy.s:2990   .text.Endpoint_Write_Control_Stream_BE:00000000000000b2 .Loc.786
     /tmp/ccKmBXiy.s:2994   .text.Endpoint_Write_Control_Stream_BE:00000000000000b4 .Loc.787
     /tmp/ccKmBXiy.s:2998   .text.Endpoint_Write_Control_Stream_BE:00000000000000b6 .Loc.788
     /tmp/ccKmBXiy.s:3002   .text.Endpoint_Write_Control_Stream_BE:00000000000000ba .Loc.789
     /tmp/ccKmBXiy.s:3006   .text.Endpoint_Write_Control_Stream_BE:00000000000000be L0
     /tmp/ccKmBXiy.s:3012   .text.Endpoint_Read_Control_Stream_LE:0000000000000000 Endpoint_Read_Control_Stream_LE
     /tmp/ccKmBXiy.s:3016   .text.Endpoint_Read_Control_Stream_LE:0000000000000000 .Loc.790
     /tmp/ccKmBXiy.s:3017   .text.Endpoint_Read_Control_Stream_LE:0000000000000000 L0
     /tmp/ccKmBXiy.s:3022   .text.Endpoint_Read_Control_Stream_LE:0000000000000000 .Loc.791
     /tmp/ccKmBXiy.s:3026   .text.Endpoint_Read_Control_Stream_LE:0000000000000004 .Loc.792
     /tmp/ccKmBXiy.s:3027   .text.Endpoint_Read_Control_Stream_LE:0000000000000004 .Loc.793
     /tmp/ccKmBXiy.s:3028   .text.Endpoint_Read_Control_Stream_LE:0000000000000004 .Loc.794
     /tmp/ccKmBXiy.s:3034   .text.Endpoint_Read_Control_Stream_LE:0000000000000008 .Loc.795
     /tmp/ccKmBXiy.s:3037   .text.Endpoint_Read_Control_Stream_LE:0000000000000008 .Loc.796
     /tmp/ccKmBXiy.s:3039   .text.Endpoint_Read_Control_Stream_LE:0000000000000008 .Loc.797
     /tmp/ccKmBXiy.s:3040   .text.Endpoint_Read_Control_Stream_LE:0000000000000008 .Loc.798
     /tmp/ccKmBXiy.s:3044   .text.Endpoint_Read_Control_Stream_LE:0000000000000012 .Loc.799
     /tmp/ccKmBXiy.s:3048   .text.Endpoint_Read_Control_Stream_LE:0000000000000012 .Loc.800
     /tmp/ccKmBXiy.s:3053   .text.Endpoint_Read_Control_Stream_LE:0000000000000016 .Loc.801
     /tmp/ccKmBXiy.s:3056   .text.Endpoint_Read_Control_Stream_LE:0000000000000016 .Loc.802
     /tmp/ccKmBXiy.s:3058   .text.Endpoint_Read_Control_Stream_LE:0000000000000016 .Loc.803
     /tmp/ccKmBXiy.s:3059   .text.Endpoint_Read_Control_Stream_LE:0000000000000016 .Loc.804
     /tmp/ccKmBXiy.s:3063   .text.Endpoint_Read_Control_Stream_LE:000000000000001a .Loc.805
     /tmp/ccKmBXiy.s:3066   .text.Endpoint_Read_Control_Stream_LE:000000000000001e .Loc.806
     /tmp/ccKmBXiy.s:3072   .text.Endpoint_Read_Control_Stream_LE:0000000000000022 .Loc.807
     /tmp/ccKmBXiy.s:3073   .text.Endpoint_Read_Control_Stream_LE:0000000000000022 .Loc.808
     /tmp/ccKmBXiy.s:3076   .text.Endpoint_Read_Control_Stream_LE:0000000000000026 .Loc.809
     /tmp/ccKmBXiy.s:3077   .text.Endpoint_Read_Control_Stream_LE:0000000000000026 .Loc.810
     /tmp/ccKmBXiy.s:3080   .text.Endpoint_Read_Control_Stream_LE:000000000000002a .Loc.811
     /tmp/ccKmBXiy.s:3081   .text.Endpoint_Read_Control_Stream_LE:000000000000002a .Loc.812
     /tmp/ccKmBXiy.s:3084   .text.Endpoint_Read_Control_Stream_LE:000000000000002e .Loc.813
     /tmp/ccKmBXiy.s:3087   .text.Endpoint_Read_Control_Stream_LE:000000000000002e .Loc.814
     /tmp/ccKmBXiy.s:3089   .text.Endpoint_Read_Control_Stream_LE:000000000000002e .Loc.815
     /tmp/ccKmBXiy.s:3090   .text.Endpoint_Read_Control_Stream_LE:000000000000002e .Loc.816
     /tmp/ccKmBXiy.s:3093   .text.Endpoint_Read_Control_Stream_LE:0000000000000032 .Loc.817
     /tmp/ccKmBXiy.s:3096   .text.Endpoint_Read_Control_Stream_LE:0000000000000032 .Loc.818
     /tmp/ccKmBXiy.s:3099   .text.Endpoint_Read_Control_Stream_LE:0000000000000036 .Loc.819
     /tmp/ccKmBXiy.s:3102   .text.Endpoint_Read_Control_Stream_LE:0000000000000036 .Loc.820
     /tmp/ccKmBXiy.s:3104   .text.Endpoint_Read_Control_Stream_LE:0000000000000036 .Loc.821
     /tmp/ccKmBXiy.s:3105   .text.Endpoint_Read_Control_Stream_LE:0000000000000036 .Loc.822
     /tmp/ccKmBXiy.s:3109   .text.Endpoint_Read_Control_Stream_LE:000000000000003a .Loc.823
     /tmp/ccKmBXiy.s:3116   .text.Endpoint_Read_Control_Stream_LE:000000000000003e .Loc.824
     /tmp/ccKmBXiy.s:3118   .text.Endpoint_Read_Control_Stream_LE:000000000000003e .Loc.825
     /tmp/ccKmBXiy.s:3119   .text.Endpoint_Read_Control_Stream_LE:000000000000003e .Loc.826
     /tmp/ccKmBXiy.s:3124   .text.Endpoint_Read_Control_Stream_LE:0000000000000046 .Loc.827
     /tmp/ccKmBXiy.s:3127   .text.Endpoint_Read_Control_Stream_LE:000000000000004a .Loc.828
     /tmp/ccKmBXiy.s:3130   .text.Endpoint_Read_Control_Stream_LE:000000000000004a .Loc.829
     /tmp/ccKmBXiy.s:3132   .text.Endpoint_Read_Control_Stream_LE:000000000000004a .Loc.830
     /tmp/ccKmBXiy.s:3133   .text.Endpoint_Read_Control_Stream_LE:000000000000004a .Loc.831
     /tmp/ccKmBXiy.s:3137   .text.Endpoint_Read_Control_Stream_LE:000000000000004e .Loc.832
     /tmp/ccKmBXiy.s:3140   .text.Endpoint_Read_Control_Stream_LE:0000000000000050 .Loc.833
     /tmp/ccKmBXiy.s:3141   .text.Endpoint_Read_Control_Stream_LE:0000000000000050 .Loc.834
     /tmp/ccKmBXiy.s:3142   .text.Endpoint_Read_Control_Stream_LE:0000000000000050 .Loc.835
     /tmp/ccKmBXiy.s:3145   .text.Endpoint_Read_Control_Stream_LE:0000000000000052 .Loc.836
     /tmp/ccKmBXiy.s:3151   .text.Endpoint_Read_Control_Stream_LE:0000000000000058 .Loc.837
     /tmp/ccKmBXiy.s:3154   .text.Endpoint_Read_Control_Stream_LE:0000000000000058 .Loc.838
     /tmp/ccKmBXiy.s:3155   .text.Endpoint_Read_Control_Stream_LE:0000000000000058 .Loc.839
     /tmp/ccKmBXiy.s:3158   .text.Endpoint_Read_Control_Stream_LE:000000000000005c .Loc.840
     /tmp/ccKmBXiy.s:3159   .text.Endpoint_Read_Control_Stream_LE:000000000000005c .Loc.841
     /tmp/ccKmBXiy.s:3162   .text.Endpoint_Read_Control_Stream_LE:0000000000000060 .Loc.842
     /tmp/ccKmBXiy.s:3163   .text.Endpoint_Read_Control_Stream_LE:0000000000000060 .Loc.843
     /tmp/ccKmBXiy.s:3168   .text.Endpoint_Read_Control_Stream_LE:0000000000000064 .Loc.844
     /tmp/ccKmBXiy.s:3171   .text.Endpoint_Read_Control_Stream_LE:0000000000000064 .Loc.845
     /tmp/ccKmBXiy.s:3175   .text.Endpoint_Read_Control_Stream_LE:0000000000000066 .Loc.846
     /tmp/ccKmBXiy.s:3180   .text.Endpoint_Read_Control_Stream_LE:0000000000000068 .Loc.847
     /tmp/ccKmBXiy.s:3185   .text.Endpoint_Read_Control_Stream_LE:000000000000006c .Loc.848
     /tmp/ccKmBXiy.s:3189   .text.Endpoint_Read_Control_Stream_LE:0000000000000070 L0
     /tmp/ccKmBXiy.s:3195   .text.Endpoint_Read_Control_Stream_BE:0000000000000000 Endpoint_Read_Control_Stream_BE
     /tmp/ccKmBXiy.s:3198   .text.Endpoint_Read_Control_Stream_BE:0000000000000000 .Loc.849
     /tmp/ccKmBXiy.s:3199   .text.Endpoint_Read_Control_Stream_BE:0000000000000000 L0
     /tmp/ccKmBXiy.s:3204   .text.Endpoint_Read_Control_Stream_BE:0000000000000000 .Loc.850
     /tmp/ccKmBXiy.s:3206   .text.Endpoint_Read_Control_Stream_BE:0000000000000002 .Loc.851
     /tmp/ccKmBXiy.s:3207   .text.Endpoint_Read_Control_Stream_BE:0000000000000002 .Loc.852
     /tmp/ccKmBXiy.s:3210   .text.Endpoint_Read_Control_Stream_BE:0000000000000006 .Loc.853
     /tmp/ccKmBXiy.s:3214   .text.Endpoint_Read_Control_Stream_BE:000000000000000a .Loc.854
     /tmp/ccKmBXiy.s:3215   .text.Endpoint_Read_Control_Stream_BE:000000000000000a .Loc.855
     /tmp/ccKmBXiy.s:3221   .text.Endpoint_Read_Control_Stream_BE:000000000000000e .Loc.856
     /tmp/ccKmBXiy.s:3224   .text.Endpoint_Read_Control_Stream_BE:000000000000000e .Loc.857
     /tmp/ccKmBXiy.s:3226   .text.Endpoint_Read_Control_Stream_BE:000000000000000e .Loc.858
     /tmp/ccKmBXiy.s:3227   .text.Endpoint_Read_Control_Stream_BE:000000000000000e .Loc.859
     /tmp/ccKmBXiy.s:3231   .text.Endpoint_Read_Control_Stream_BE:0000000000000018 .Loc.860
     /tmp/ccKmBXiy.s:3235   .text.Endpoint_Read_Control_Stream_BE:0000000000000018 .Loc.861
     /tmp/ccKmBXiy.s:3240   .text.Endpoint_Read_Control_Stream_BE:000000000000001e .Loc.862
     /tmp/ccKmBXiy.s:3243   .text.Endpoint_Read_Control_Stream_BE:000000000000001e .Loc.863
     /tmp/ccKmBXiy.s:3245   .text.Endpoint_Read_Control_Stream_BE:000000000000001e .Loc.864
     /tmp/ccKmBXiy.s:3246   .text.Endpoint_Read_Control_Stream_BE:000000000000001e .Loc.865
     /tmp/ccKmBXiy.s:3250   .text.Endpoint_Read_Control_Stream_BE:0000000000000022 .Loc.866
     /tmp/ccKmBXiy.s:3253   .text.Endpoint_Read_Control_Stream_BE:0000000000000026 .Loc.867
     /tmp/ccKmBXiy.s:3259   .text.Endpoint_Read_Control_Stream_BE:000000000000002a .Loc.868
     /tmp/ccKmBXiy.s:3260   .text.Endpoint_Read_Control_Stream_BE:000000000000002a .Loc.869
     /tmp/ccKmBXiy.s:3263   .text.Endpoint_Read_Control_Stream_BE:000000000000002e .Loc.870
     /tmp/ccKmBXiy.s:3264   .text.Endpoint_Read_Control_Stream_BE:000000000000002e .Loc.871
     /tmp/ccKmBXiy.s:3267   .text.Endpoint_Read_Control_Stream_BE:0000000000000032 .Loc.872
     /tmp/ccKmBXiy.s:3268   .text.Endpoint_Read_Control_Stream_BE:0000000000000032 .Loc.873
     /tmp/ccKmBXiy.s:3271   .text.Endpoint_Read_Control_Stream_BE:0000000000000036 .Loc.874
     /tmp/ccKmBXiy.s:3274   .text.Endpoint_Read_Control_Stream_BE:0000000000000036 .Loc.875
     /tmp/ccKmBXiy.s:3276   .text.Endpoint_Read_Control_Stream_BE:0000000000000036 .Loc.876
     /tmp/ccKmBXiy.s:3277   .text.Endpoint_Read_Control_Stream_BE:0000000000000036 .Loc.877
     /tmp/ccKmBXiy.s:3280   .text.Endpoint_Read_Control_Stream_BE:000000000000003a .Loc.878
     /tmp/ccKmBXiy.s:3283   .text.Endpoint_Read_Control_Stream_BE:000000000000003a .Loc.879
     /tmp/ccKmBXiy.s:3286   .text.Endpoint_Read_Control_Stream_BE:000000000000003e .Loc.880
     /tmp/ccKmBXiy.s:3289   .text.Endpoint_Read_Control_Stream_BE:000000000000003e .Loc.881
     /tmp/ccKmBXiy.s:3291   .text.Endpoint_Read_Control_Stream_BE:000000000000003e .Loc.882
     /tmp/ccKmBXiy.s:3292   .text.Endpoint_Read_Control_Stream_BE:000000000000003e .Loc.883
     /tmp/ccKmBXiy.s:3296   .text.Endpoint_Read_Control_Stream_BE:0000000000000042 .Loc.884
     /tmp/ccKmBXiy.s:3303   .text.Endpoint_Read_Control_Stream_BE:0000000000000046 .Loc.885
     /tmp/ccKmBXiy.s:3305   .text.Endpoint_Read_Control_Stream_BE:0000000000000046 .Loc.886
     /tmp/ccKmBXiy.s:3306   .text.Endpoint_Read_Control_Stream_BE:0000000000000046 .Loc.887
     /tmp/ccKmBXiy.s:3311   .text.Endpoint_Read_Control_Stream_BE:000000000000004e .Loc.888
     /tmp/ccKmBXiy.s:3314   .text.Endpoint_Read_Control_Stream_BE:0000000000000052 .Loc.889
     /tmp/ccKmBXiy.s:3317   .text.Endpoint_Read_Control_Stream_BE:0000000000000052 .Loc.890
     /tmp/ccKmBXiy.s:3319   .text.Endpoint_Read_Control_Stream_BE:0000000000000052 .Loc.891
     /tmp/ccKmBXiy.s:3320   .text.Endpoint_Read_Control_Stream_BE:0000000000000052 .Loc.892
     /tmp/ccKmBXiy.s:3324   .text.Endpoint_Read_Control_Stream_BE:0000000000000056 .Loc.893
     /tmp/ccKmBXiy.s:3326   .text.Endpoint_Read_Control_Stream_BE:0000000000000058 .Loc.894
     /tmp/ccKmBXiy.s:3329   .text.Endpoint_Read_Control_Stream_BE:000000000000005a .Loc.895
     /tmp/ccKmBXiy.s:3330   .text.Endpoint_Read_Control_Stream_BE:000000000000005a .Loc.896
     /tmp/ccKmBXiy.s:3334   .text.Endpoint_Read_Control_Stream_BE:000000000000005e .Loc.897
     /tmp/ccKmBXiy.s:3341   .text.Endpoint_Read_Control_Stream_BE:0000000000000066 .Loc.898
     /tmp/ccKmBXiy.s:3344   .text.Endpoint_Read_Control_Stream_BE:0000000000000066 .Loc.899
     /tmp/ccKmBXiy.s:3345   .text.Endpoint_Read_Control_Stream_BE:0000000000000066 .Loc.900
     /tmp/ccKmBXiy.s:3348   .text.Endpoint_Read_Control_Stream_BE:000000000000006a .Loc.901
     /tmp/ccKmBXiy.s:3349   .text.Endpoint_Read_Control_Stream_BE:000000000000006a .Loc.902
     /tmp/ccKmBXiy.s:3352   .text.Endpoint_Read_Control_Stream_BE:000000000000006e .Loc.903
     /tmp/ccKmBXiy.s:3353   .text.Endpoint_Read_Control_Stream_BE:000000000000006e .Loc.904
     /tmp/ccKmBXiy.s:3358   .text.Endpoint_Read_Control_Stream_BE:0000000000000072 .Loc.905
     /tmp/ccKmBXiy.s:3361   .text.Endpoint_Read_Control_Stream_BE:0000000000000072 .Loc.906
     /tmp/ccKmBXiy.s:3365   .text.Endpoint_Read_Control_Stream_BE:0000000000000074 .Loc.907
     /tmp/ccKmBXiy.s:3370   .text.Endpoint_Read_Control_Stream_BE:0000000000000076 .Loc.908
     /tmp/ccKmBXiy.s:3375   .text.Endpoint_Read_Control_Stream_BE:000000000000007a .Loc.909
     /tmp/ccKmBXiy.s:3379   .text.Endpoint_Read_Control_Stream_BE:000000000000007e L0
     /tmp/ccKmBXiy.s:3385   .text.Endpoint_Write_Control_PStream_LE:0000000000000000 Endpoint_Write_Control_PStream_LE
     /tmp/ccKmBXiy.s:3388   .text.Endpoint_Write_Control_PStream_LE:0000000000000000 .Loc.910
     /tmp/ccKmBXiy.s:3389   .text.Endpoint_Write_Control_PStream_LE:0000000000000000 L0
     /tmp/ccKmBXiy.s:3394   .text.Endpoint_Write_Control_PStream_LE:0000000000000000 .Loc.911
     /tmp/ccKmBXiy.s:3397   .text.Endpoint_Write_Control_PStream_LE:0000000000000004 .Loc.912
     /tmp/ccKmBXiy.s:3399   .text.Endpoint_Write_Control_PStream_LE:0000000000000004 .Loc.913
     /tmp/ccKmBXiy.s:3400   .text.Endpoint_Write_Control_PStream_LE:0000000000000004 .Loc.914
     /tmp/ccKmBXiy.s:3401   .text.Endpoint_Write_Control_PStream_LE:0000000000000004 .Loc.915
     /tmp/ccKmBXiy.s:3405   .text.Endpoint_Write_Control_PStream_LE:000000000000000c .Loc.916
     /tmp/ccKmBXiy.s:3409   .text.Endpoint_Write_Control_PStream_LE:0000000000000012 .Loc.917
     /tmp/ccKmBXiy.s:3410   .text.Endpoint_Write_Control_PStream_LE:0000000000000012 .Loc.918
     /tmp/ccKmBXiy.s:3414   .text.Endpoint_Write_Control_PStream_LE:0000000000000016 .Loc.919
     /tmp/ccKmBXiy.s:3418   .text.Endpoint_Write_Control_PStream_LE:0000000000000018 .Loc.920
     /tmp/ccKmBXiy.s:3422   .text.Endpoint_Write_Control_PStream_LE:000000000000001a .Loc.921
     /tmp/ccKmBXiy.s:3425   .text.Endpoint_Write_Control_PStream_LE:000000000000001e .Loc.922
     /tmp/ccKmBXiy.s:3430   .text.Endpoint_Write_Control_PStream_LE:0000000000000022 .Loc.923
     /tmp/ccKmBXiy.s:3433   .text.Endpoint_Write_Control_PStream_LE:0000000000000022 .Loc.924
     /tmp/ccKmBXiy.s:3435   .text.Endpoint_Write_Control_PStream_LE:0000000000000022 .Loc.925
     /tmp/ccKmBXiy.s:3436   .text.Endpoint_Write_Control_PStream_LE:0000000000000022 .Loc.926
     /tmp/ccKmBXiy.s:3440   .text.Endpoint_Write_Control_PStream_LE:0000000000000026 .Loc.927
     /tmp/ccKmBXiy.s:3443   .text.Endpoint_Write_Control_PStream_LE:000000000000002a .Loc.928
     /tmp/ccKmBXiy.s:3448   .text.Endpoint_Write_Control_PStream_LE:000000000000002e .Loc.929
     /tmp/ccKmBXiy.s:3451   .text.Endpoint_Write_Control_PStream_LE:000000000000002e .Loc.930
     /tmp/ccKmBXiy.s:3453   .text.Endpoint_Write_Control_PStream_LE:000000000000002e .Loc.931
     /tmp/ccKmBXiy.s:3454   .text.Endpoint_Write_Control_PStream_LE:000000000000002e .Loc.932
     /tmp/ccKmBXiy.s:3458   .text.Endpoint_Write_Control_PStream_LE:0000000000000038 .Loc.933
     /tmp/ccKmBXiy.s:3462   .text.Endpoint_Write_Control_PStream_LE:000000000000003a .Loc.934
     /tmp/ccKmBXiy.s:3466   .text.Endpoint_Write_Control_PStream_LE:000000000000003a .Loc.935
     /tmp/ccKmBXiy.s:3467   .text.Endpoint_Write_Control_PStream_LE:000000000000003a .Loc.936
     /tmp/ccKmBXiy.s:3470   .text.Endpoint_Write_Control_PStream_LE:000000000000003e .Loc.937
     /tmp/ccKmBXiy.s:3471   .text.Endpoint_Write_Control_PStream_LE:000000000000003e .Loc.938
     /tmp/ccKmBXiy.s:3474   .text.Endpoint_Write_Control_PStream_LE:0000000000000042 .Loc.939
     /tmp/ccKmBXiy.s:3475   .text.Endpoint_Write_Control_PStream_LE:0000000000000042 .Loc.940
     /tmp/ccKmBXiy.s:3478   .text.Endpoint_Write_Control_PStream_LE:0000000000000046 .Loc.941
     /tmp/ccKmBXiy.s:3481   .text.Endpoint_Write_Control_PStream_LE:0000000000000046 .Loc.942
     /tmp/ccKmBXiy.s:3483   .text.Endpoint_Write_Control_PStream_LE:0000000000000046 .Loc.943
     /tmp/ccKmBXiy.s:3484   .text.Endpoint_Write_Control_PStream_LE:0000000000000046 .Loc.944
     /tmp/ccKmBXiy.s:3487   .text.Endpoint_Write_Control_PStream_LE:000000000000004a .Loc.945
     /tmp/ccKmBXiy.s:3490   .text.Endpoint_Write_Control_PStream_LE:000000000000004a .Loc.946
     /tmp/ccKmBXiy.s:3493   .text.Endpoint_Write_Control_PStream_LE:000000000000004e .Loc.947
     /tmp/ccKmBXiy.s:3496   .text.Endpoint_Write_Control_PStream_LE:000000000000004e .Loc.948
     /tmp/ccKmBXiy.s:3498   .text.Endpoint_Write_Control_PStream_LE:000000000000004e .Loc.949
     /tmp/ccKmBXiy.s:3499   .text.Endpoint_Write_Control_PStream_LE:000000000000004e .Loc.950
     /tmp/ccKmBXiy.s:3503   .text.Endpoint_Write_Control_PStream_LE:0000000000000052 .Loc.951
     /tmp/ccKmBXiy.s:3506   .text.Endpoint_Write_Control_PStream_LE:0000000000000056 .Loc.952
     /tmp/ccKmBXiy.s:3509   .text.Endpoint_Write_Control_PStream_LE:0000000000000056 .Loc.953
     /tmp/ccKmBXiy.s:3511   .text.Endpoint_Write_Control_PStream_LE:0000000000000056 .Loc.954
     /tmp/ccKmBXiy.s:3512   .text.Endpoint_Write_Control_PStream_LE:0000000000000056 .Loc.955
     /tmp/ccKmBXiy.s:3516   .text.Endpoint_Write_Control_PStream_LE:000000000000005a .Loc.956
     /tmp/ccKmBXiy.s:3520   .text.Endpoint_Write_Control_PStream_LE:000000000000005e .Loc.957
     /tmp/ccKmBXiy.s:3523   .text.Endpoint_Write_Control_PStream_LE:000000000000005e .Loc.958
     /tmp/ccKmBXiy.s:3525   .text.Endpoint_Write_Control_PStream_LE:000000000000005e .Loc.959
     /tmp/ccKmBXiy.s:3526   .text.Endpoint_Write_Control_PStream_LE:000000000000005e .Loc.960
     /tmp/ccKmBXiy.s:3530   .text.Endpoint_Write_Control_PStream_LE:0000000000000066 .Loc.961
     /tmp/ccKmBXiy.s:3533   .text.Endpoint_Write_Control_PStream_LE:0000000000000066 .Loc.962
     /tmp/ccKmBXiy.s:3535   .text.Endpoint_Write_Control_PStream_LE:0000000000000066 .Loc.963
     /tmp/ccKmBXiy.s:3538   .text.Endpoint_Write_Control_PStream_LE:000000000000006a .Loc.964
     /tmp/ccKmBXiy.s:3543   .text.Endpoint_Write_Control_PStream_LE:0000000000000070 .Loc.965
     /tmp/ccKmBXiy.s:3544   .text.Endpoint_Write_Control_PStream_LE:0000000000000070 .Loc.966
     /tmp/ccKmBXiy.s:3552   .text.Endpoint_Write_Control_PStream_LE:000000000000007a .Loc.967
     /tmp/ccKmBXiy.s:3555   .text.Endpoint_Write_Control_PStream_LE:000000000000007a .Loc.968
     /tmp/ccKmBXiy.s:3557   .text.Endpoint_Write_Control_PStream_LE:000000000000007a .Loc.969
     /tmp/ccKmBXiy.s:3558   .text.Endpoint_Write_Control_PStream_LE:000000000000007a .Loc.970
     /tmp/ccKmBXiy.s:3561   .text.Endpoint_Write_Control_PStream_LE:000000000000007e .Loc.971
     /tmp/ccKmBXiy.s:3565   .text.Endpoint_Write_Control_PStream_LE:0000000000000084 .Loc.972
     /tmp/ccKmBXiy.s:3569   .text.Endpoint_Write_Control_PStream_LE:0000000000000086 .Loc.973
     /tmp/ccKmBXiy.s:3572   .text.Endpoint_Write_Control_PStream_LE:0000000000000086 .Loc.974
     /tmp/ccKmBXiy.s:3574   .text.Endpoint_Write_Control_PStream_LE:0000000000000086 .Loc.975
     /tmp/ccKmBXiy.s:3575   .text.Endpoint_Write_Control_PStream_LE:0000000000000086 .Loc.976
     /tmp/ccKmBXiy.s:3576   .text.Endpoint_Write_Control_PStream_LE:0000000000000086 .Loc.977
     /tmp/ccKmBXiy.s:3583   .text.Endpoint_Write_Control_PStream_LE:0000000000000088 .Loc.978
     /tmp/ccKmBXiy.s:3584   .text.Endpoint_Write_Control_PStream_LE:0000000000000088 .Loc.979
     /tmp/ccKmBXiy.s:3589   .text.Endpoint_Write_Control_PStream_LE:0000000000000088 .Loc.980
     /tmp/ccKmBXiy.s:3591   .text.Endpoint_Write_Control_PStream_LE:0000000000000088 .Loc.981
     /tmp/ccKmBXiy.s:3592   .text.Endpoint_Write_Control_PStream_LE:0000000000000088 .Loc.982
     /tmp/ccKmBXiy.s:3595   .text.Endpoint_Write_Control_PStream_LE:000000000000008c .Loc.983
     /tmp/ccKmBXiy.s:3598   .text.Endpoint_Write_Control_PStream_LE:000000000000008c .Loc.984
     /tmp/ccKmBXiy.s:3601   .text.Endpoint_Write_Control_PStream_LE:000000000000008e .Loc.985
     /tmp/ccKmBXiy.s:3602   .text.Endpoint_Write_Control_PStream_LE:000000000000008e .Loc.986
     /tmp/ccKmBXiy.s:3605   .text.Endpoint_Write_Control_PStream_LE:0000000000000090 .Loc.987
     /tmp/ccKmBXiy.s:3606   .text.Endpoint_Write_Control_PStream_LE:0000000000000090 .Loc.988
     /tmp/ccKmBXiy.s:3610   .text.Endpoint_Write_Control_PStream_LE:0000000000000094 .Loc.989
     /tmp/ccKmBXiy.s:3614   .text.Endpoint_Write_Control_PStream_LE:0000000000000096 .Loc.990
     /tmp/ccKmBXiy.s:3618   .text.Endpoint_Write_Control_PStream_LE:0000000000000096 .Loc.991
     /tmp/ccKmBXiy.s:3619   .text.Endpoint_Write_Control_PStream_LE:0000000000000096 .Loc.992
     /tmp/ccKmBXiy.s:3622   .text.Endpoint_Write_Control_PStream_LE:000000000000009a .Loc.993
     /tmp/ccKmBXiy.s:3623   .text.Endpoint_Write_Control_PStream_LE:000000000000009a .Loc.994
     /tmp/ccKmBXiy.s:3626   .text.Endpoint_Write_Control_PStream_LE:000000000000009e .Loc.995
     /tmp/ccKmBXiy.s:3627   .text.Endpoint_Write_Control_PStream_LE:000000000000009e .Loc.996
     /tmp/ccKmBXiy.s:3630   .text.Endpoint_Write_Control_PStream_LE:00000000000000a2 .Loc.997
     /tmp/ccKmBXiy.s:3633   .text.Endpoint_Write_Control_PStream_LE:00000000000000a2 .Loc.998
     /tmp/ccKmBXiy.s:3635   .text.Endpoint_Write_Control_PStream_LE:00000000000000a2 .Loc.999
     /tmp/ccKmBXiy.s:3636   .text.Endpoint_Write_Control_PStream_LE:00000000000000a2 .Loc.1000
     /tmp/ccKmBXiy.s:3639   .text.Endpoint_Write_Control_PStream_LE:00000000000000a6 .Loc.1001
     /tmp/ccKmBXiy.s:3642   .text.Endpoint_Write_Control_PStream_LE:00000000000000a6 .Loc.1002
     /tmp/ccKmBXiy.s:3647   .text.Endpoint_Write_Control_PStream_LE:00000000000000aa .Loc.1003
     /tmp/ccKmBXiy.s:3650   .text.Endpoint_Write_Control_PStream_LE:00000000000000aa .Loc.1004
     /tmp/ccKmBXiy.s:3654   .text.Endpoint_Write_Control_PStream_LE:00000000000000ac .Loc.1005
     /tmp/ccKmBXiy.s:3658   .text.Endpoint_Write_Control_PStream_LE:00000000000000ae .Loc.1006
     /tmp/ccKmBXiy.s:3662   .text.Endpoint_Write_Control_PStream_LE:00000000000000b2 .Loc.1007
     /tmp/ccKmBXiy.s:3666   .text.Endpoint_Write_Control_PStream_LE:00000000000000b6 L0
     /tmp/ccKmBXiy.s:3672   .text.Endpoint_Write_Control_PStream_BE:0000000000000000 Endpoint_Write_Control_PStream_BE
     /tmp/ccKmBXiy.s:3675   .text.Endpoint_Write_Control_PStream_BE:0000000000000000 .Loc.1008
     /tmp/ccKmBXiy.s:3676   .text.Endpoint_Write_Control_PStream_BE:0000000000000000 L0
     /tmp/ccKmBXiy.s:3681   .text.Endpoint_Write_Control_PStream_BE:0000000000000000 .Loc.1009
     /tmp/ccKmBXiy.s:3683   .text.Endpoint_Write_Control_PStream_BE:0000000000000002 .Loc.1010
     /tmp/ccKmBXiy.s:3684   .text.Endpoint_Write_Control_PStream_BE:0000000000000002 .Loc.1011
     /tmp/ccKmBXiy.s:3687   .text.Endpoint_Write_Control_PStream_BE:0000000000000006 .Loc.1012
     /tmp/ccKmBXiy.s:3691   .text.Endpoint_Write_Control_PStream_BE:000000000000000a .Loc.1013
     /tmp/ccKmBXiy.s:3692   .text.Endpoint_Write_Control_PStream_BE:000000000000000a .Loc.1014
     /tmp/ccKmBXiy.s:3693   .text.Endpoint_Write_Control_PStream_BE:000000000000000a .Loc.1015
     /tmp/ccKmBXiy.s:3696   .text.Endpoint_Write_Control_PStream_BE:0000000000000012 .Loc.1016
     /tmp/ccKmBXiy.s:3700   .text.Endpoint_Write_Control_PStream_BE:0000000000000018 .Loc.1017
     /tmp/ccKmBXiy.s:3701   .text.Endpoint_Write_Control_PStream_BE:0000000000000018 .Loc.1018
     /tmp/ccKmBXiy.s:3706   .text.Endpoint_Write_Control_PStream_BE:000000000000001c .Loc.1019
     /tmp/ccKmBXiy.s:3710   .text.Endpoint_Write_Control_PStream_BE:000000000000001e .Loc.1020
     /tmp/ccKmBXiy.s:3714   .text.Endpoint_Write_Control_PStream_BE:0000000000000020 .Loc.1021
     /tmp/ccKmBXiy.s:3718   .text.Endpoint_Write_Control_PStream_BE:0000000000000026 .Loc.1022
     /tmp/ccKmBXiy.s:3722   .text.Endpoint_Write_Control_PStream_BE:000000000000002a .Loc.1023
     /tmp/ccKmBXiy.s:3725   .text.Endpoint_Write_Control_PStream_BE:000000000000002a .Loc.1024
     /tmp/ccKmBXiy.s:3727   .text.Endpoint_Write_Control_PStream_BE:000000000000002a .Loc.1025
     /tmp/ccKmBXiy.s:3728   .text.Endpoint_Write_Control_PStream_BE:000000000000002a .Loc.1026
     /tmp/ccKmBXiy.s:3732   .text.Endpoint_Write_Control_PStream_BE:000000000000002e .Loc.1027
     /tmp/ccKmBXiy.s:3735   .text.Endpoint_Write_Control_PStream_BE:0000000000000032 .Loc.1028
     /tmp/ccKmBXiy.s:3740   .text.Endpoint_Write_Control_PStream_BE:0000000000000036 .Loc.1029
     /tmp/ccKmBXiy.s:3743   .text.Endpoint_Write_Control_PStream_BE:0000000000000036 .Loc.1030
     /tmp/ccKmBXiy.s:3745   .text.Endpoint_Write_Control_PStream_BE:0000000000000036 .Loc.1031
     /tmp/ccKmBXiy.s:3746   .text.Endpoint_Write_Control_PStream_BE:0000000000000036 .Loc.1032
     /tmp/ccKmBXiy.s:3749   .text.Endpoint_Write_Control_PStream_BE:000000000000003a .Loc.1033
     /tmp/ccKmBXiy.s:3752   .text.Endpoint_Write_Control_PStream_BE:0000000000000040 .Loc.1034
     /tmp/ccKmBXiy.s:3756   .text.Endpoint_Write_Control_PStream_BE:0000000000000042 .Loc.1035
     /tmp/ccKmBXiy.s:3760   .text.Endpoint_Write_Control_PStream_BE:0000000000000042 .Loc.1036
     /tmp/ccKmBXiy.s:3761   .text.Endpoint_Write_Control_PStream_BE:0000000000000042 .Loc.1037
     /tmp/ccKmBXiy.s:3764   .text.Endpoint_Write_Control_PStream_BE:0000000000000046 .Loc.1038
     /tmp/ccKmBXiy.s:3765   .text.Endpoint_Write_Control_PStream_BE:0000000000000046 .Loc.1039
     /tmp/ccKmBXiy.s:3768   .text.Endpoint_Write_Control_PStream_BE:000000000000004a .Loc.1040
     /tmp/ccKmBXiy.s:3769   .text.Endpoint_Write_Control_PStream_BE:000000000000004a .Loc.1041
     /tmp/ccKmBXiy.s:3772   .text.Endpoint_Write_Control_PStream_BE:000000000000004e .Loc.1042
     /tmp/ccKmBXiy.s:3775   .text.Endpoint_Write_Control_PStream_BE:000000000000004e .Loc.1043
     /tmp/ccKmBXiy.s:3777   .text.Endpoint_Write_Control_PStream_BE:000000000000004e .Loc.1044
     /tmp/ccKmBXiy.s:3778   .text.Endpoint_Write_Control_PStream_BE:000000000000004e .Loc.1045
     /tmp/ccKmBXiy.s:3781   .text.Endpoint_Write_Control_PStream_BE:0000000000000052 .Loc.1046
     /tmp/ccKmBXiy.s:3784   .text.Endpoint_Write_Control_PStream_BE:0000000000000052 .Loc.1047
     /tmp/ccKmBXiy.s:3787   .text.Endpoint_Write_Control_PStream_BE:0000000000000056 .Loc.1048
     /tmp/ccKmBXiy.s:3790   .text.Endpoint_Write_Control_PStream_BE:0000000000000056 .Loc.1049
     /tmp/ccKmBXiy.s:3792   .text.Endpoint_Write_Control_PStream_BE:0000000000000056 .Loc.1050
     /tmp/ccKmBXiy.s:3793   .text.Endpoint_Write_Control_PStream_BE:0000000000000056 .Loc.1051
     /tmp/ccKmBXiy.s:3797   .text.Endpoint_Write_Control_PStream_BE:000000000000005a .Loc.1052
     /tmp/ccKmBXiy.s:3800   .text.Endpoint_Write_Control_PStream_BE:000000000000005e .Loc.1053
     /tmp/ccKmBXiy.s:3803   .text.Endpoint_Write_Control_PStream_BE:000000000000005e .Loc.1054
     /tmp/ccKmBXiy.s:3805   .text.Endpoint_Write_Control_PStream_BE:000000000000005e .Loc.1055
     /tmp/ccKmBXiy.s:3806   .text.Endpoint_Write_Control_PStream_BE:000000000000005e .Loc.1056
     /tmp/ccKmBXiy.s:3810   .text.Endpoint_Write_Control_PStream_BE:0000000000000062 .Loc.1057
     /tmp/ccKmBXiy.s:3814   .text.Endpoint_Write_Control_PStream_BE:0000000000000066 .Loc.1058
     /tmp/ccKmBXiy.s:3817   .text.Endpoint_Write_Control_PStream_BE:0000000000000066 .Loc.1059
     /tmp/ccKmBXiy.s:3819   .text.Endpoint_Write_Control_PStream_BE:0000000000000066 .Loc.1060
     /tmp/ccKmBXiy.s:3820   .text.Endpoint_Write_Control_PStream_BE:0000000000000066 .Loc.1061
     /tmp/ccKmBXiy.s:3824   .text.Endpoint_Write_Control_PStream_BE:000000000000006e .Loc.1062
     /tmp/ccKmBXiy.s:3827   .text.Endpoint_Write_Control_PStream_BE:000000000000006e .Loc.1063
     /tmp/ccKmBXiy.s:3829   .text.Endpoint_Write_Control_PStream_BE:000000000000006e .Loc.1064
     /tmp/ccKmBXiy.s:3833   .text.Endpoint_Write_Control_PStream_BE:0000000000000074 .Loc.1065
     /tmp/ccKmBXiy.s:3838   .text.Endpoint_Write_Control_PStream_BE:000000000000007a .Loc.1066
     /tmp/ccKmBXiy.s:3839   .text.Endpoint_Write_Control_PStream_BE:000000000000007a .Loc.1067
     /tmp/ccKmBXiy.s:3846   .text.Endpoint_Write_Control_PStream_BE:0000000000000082 .Loc.1068
     /tmp/ccKmBXiy.s:3849   .text.Endpoint_Write_Control_PStream_BE:0000000000000082 .Loc.1069
     /tmp/ccKmBXiy.s:3851   .text.Endpoint_Write_Control_PStream_BE:0000000000000082 .Loc.1070
     /tmp/ccKmBXiy.s:3852   .text.Endpoint_Write_Control_PStream_BE:0000000000000082 .Loc.1071
     /tmp/ccKmBXiy.s:3855   .text.Endpoint_Write_Control_PStream_BE:0000000000000086 .Loc.1072
     /tmp/ccKmBXiy.s:3859   .text.Endpoint_Write_Control_PStream_BE:000000000000008c .Loc.1073
     /tmp/ccKmBXiy.s:3863   .text.Endpoint_Write_Control_PStream_BE:000000000000008e .Loc.1074
     /tmp/ccKmBXiy.s:3866   .text.Endpoint_Write_Control_PStream_BE:000000000000008e .Loc.1075
     /tmp/ccKmBXiy.s:3868   .text.Endpoint_Write_Control_PStream_BE:000000000000008e .Loc.1076
     /tmp/ccKmBXiy.s:3869   .text.Endpoint_Write_Control_PStream_BE:000000000000008e .Loc.1077
     /tmp/ccKmBXiy.s:3870   .text.Endpoint_Write_Control_PStream_BE:000000000000008e .Loc.1078
     /tmp/ccKmBXiy.s:3877   .text.Endpoint_Write_Control_PStream_BE:0000000000000090 .Loc.1079
     /tmp/ccKmBXiy.s:3878   .text.Endpoint_Write_Control_PStream_BE:0000000000000090 .Loc.1080
     /tmp/ccKmBXiy.s:3883   .text.Endpoint_Write_Control_PStream_BE:0000000000000090 .Loc.1081
     /tmp/ccKmBXiy.s:3885   .text.Endpoint_Write_Control_PStream_BE:0000000000000090 .Loc.1082
     /tmp/ccKmBXiy.s:3886   .text.Endpoint_Write_Control_PStream_BE:0000000000000090 .Loc.1083
     /tmp/ccKmBXiy.s:3889   .text.Endpoint_Write_Control_PStream_BE:0000000000000094 .Loc.1084
     /tmp/ccKmBXiy.s:3892   .text.Endpoint_Write_Control_PStream_BE:0000000000000094 .Loc.1085
     /tmp/ccKmBXiy.s:3895   .text.Endpoint_Write_Control_PStream_BE:0000000000000096 .Loc.1086
     /tmp/ccKmBXiy.s:3896   .text.Endpoint_Write_Control_PStream_BE:0000000000000096 .Loc.1087
     /tmp/ccKmBXiy.s:3900   .text.Endpoint_Write_Control_PStream_BE:000000000000009a .Loc.1088
     /tmp/ccKmBXiy.s:3901   .text.Endpoint_Write_Control_PStream_BE:000000000000009a .Loc.1089
     /tmp/ccKmBXiy.s:3904   .text.Endpoint_Write_Control_PStream_BE:000000000000009c .Loc.1090
     /tmp/ccKmBXiy.s:3908   .text.Endpoint_Write_Control_PStream_BE:000000000000009e .Loc.1091
     /tmp/ccKmBXiy.s:3912   .text.Endpoint_Write_Control_PStream_BE:000000000000009e .Loc.1092
     /tmp/ccKmBXiy.s:3913   .text.Endpoint_Write_Control_PStream_BE:000000000000009e .Loc.1093
     /tmp/ccKmBXiy.s:3916   .text.Endpoint_Write_Control_PStream_BE:00000000000000a2 .Loc.1094
     /tmp/ccKmBXiy.s:3917   .text.Endpoint_Write_Control_PStream_BE:00000000000000a2 .Loc.1095
     /tmp/ccKmBXiy.s:3920   .text.Endpoint_Write_Control_PStream_BE:00000000000000a6 .Loc.1096
     /tmp/ccKmBXiy.s:3921   .text.Endpoint_Write_Control_PStream_BE:00000000000000a6 .Loc.1097
     /tmp/ccKmBXiy.s:3924   .text.Endpoint_Write_Control_PStream_BE:00000000000000aa .Loc.1098
     /tmp/ccKmBXiy.s:3927   .text.Endpoint_Write_Control_PStream_BE:00000000000000aa .Loc.1099
     /tmp/ccKmBXiy.s:3929   .text.Endpoint_Write_Control_PStream_BE:00000000000000aa .Loc.1100
     /tmp/ccKmBXiy.s:3930   .text.Endpoint_Write_Control_PStream_BE:00000000000000aa .Loc.1101
     /tmp/ccKmBXiy.s:3933   .text.Endpoint_Write_Control_PStream_BE:00000000000000ae .Loc.1102
     /tmp/ccKmBXiy.s:3936   .text.Endpoint_Write_Control_PStream_BE:00000000000000ae .Loc.1103
     /tmp/ccKmBXiy.s:3941   .text.Endpoint_Write_Control_PStream_BE:00000000000000b2 .Loc.1104
     /tmp/ccKmBXiy.s:3944   .text.Endpoint_Write_Control_PStream_BE:00000000000000b2 .Loc.1105
     /tmp/ccKmBXiy.s:3948   .text.Endpoint_Write_Control_PStream_BE:00000000000000b4 .Loc.1106
     /tmp/ccKmBXiy.s:3952   .text.Endpoint_Write_Control_PStream_BE:00000000000000b6 .Loc.1107
     /tmp/ccKmBXiy.s:3956   .text.Endpoint_Write_Control_PStream_BE:00000000000000ba .Loc.1108
     /tmp/ccKmBXiy.s:3960   .text.Endpoint_Write_Control_PStream_BE:00000000000000be L0
     /tmp/ccKmBXiy.s:3966   .text.Endpoint_Write_Control_EStream_LE:0000000000000000 Endpoint_Write_Control_EStream_LE
     /tmp/ccKmBXiy.s:3969   .text.Endpoint_Write_Control_EStream_LE:0000000000000000 .Loc.1109
     /tmp/ccKmBXiy.s:3970   .text.Endpoint_Write_Control_EStream_LE:0000000000000000 L0
     /tmp/ccKmBXiy.s:3971   .text.Endpoint_Write_Control_EStream_LE:0000000000000000 .Loc.1110
     /tmp/ccKmBXiy.s:4003   .text.Endpoint_Write_Control_EStream_LE:0000000000000010 .Loc.1111
     /tmp/ccKmBXiy.s:4004   .text.Endpoint_Write_Control_EStream_LE:0000000000000010 .Loc.1112
     /tmp/ccKmBXiy.s:4005   .text.Endpoint_Write_Control_EStream_LE:0000000000000010 .Loc.1113
     /tmp/ccKmBXiy.s:4006   .text.Endpoint_Write_Control_EStream_LE:0000000000000010 .Loc.1114
     /tmp/ccKmBXiy.s:4009   .text.Endpoint_Write_Control_EStream_LE:0000000000000018 .Loc.1115
     /tmp/ccKmBXiy.s:4013   .text.Endpoint_Write_Control_EStream_LE:000000000000001e .Loc.1116
     /tmp/ccKmBXiy.s:4014   .text.Endpoint_Write_Control_EStream_LE:000000000000001e .Loc.1117
     /tmp/ccKmBXiy.s:4018   .text.Endpoint_Write_Control_EStream_LE:0000000000000022 .Loc.1118
     /tmp/ccKmBXiy.s:4021   .text.Endpoint_Write_Control_EStream_LE:0000000000000024 .Loc.1119
     /tmp/ccKmBXiy.s:4025   .text.Endpoint_Write_Control_EStream_LE:0000000000000026 .Loc.1120
     /tmp/ccKmBXiy.s:4028   .text.Endpoint_Write_Control_EStream_LE:000000000000002a .Loc.1121
     /tmp/ccKmBXiy.s:4033   .text.Endpoint_Write_Control_EStream_LE:000000000000002e .Loc.1122
     /tmp/ccKmBXiy.s:4036   .text.Endpoint_Write_Control_EStream_LE:000000000000002e .Loc.1123
     /tmp/ccKmBXiy.s:4038   .text.Endpoint_Write_Control_EStream_LE:000000000000002e .Loc.1124
     /tmp/ccKmBXiy.s:4039   .text.Endpoint_Write_Control_EStream_LE:000000000000002e .Loc.1125
     /tmp/ccKmBXiy.s:4043   .text.Endpoint_Write_Control_EStream_LE:0000000000000032 .Loc.1126
     /tmp/ccKmBXiy.s:4046   .text.Endpoint_Write_Control_EStream_LE:0000000000000036 .Loc.1127
     /tmp/ccKmBXiy.s:4050   .text.Endpoint_Write_Control_EStream_LE:0000000000000038 .Loc.1128
     /tmp/ccKmBXiy.s:4054   .text.Endpoint_Write_Control_EStream_LE:000000000000003c .Loc.1129
     /tmp/ccKmBXiy.s:4058   .text.Endpoint_Write_Control_EStream_LE:0000000000000040 .Loc.1130
     /tmp/ccKmBXiy.s:4064   .text.Endpoint_Write_Control_EStream_LE:0000000000000046 .Loc.1131
     /tmp/ccKmBXiy.s:4067   .text.Endpoint_Write_Control_EStream_LE:0000000000000046 .Loc.1132
     /tmp/ccKmBXiy.s:4069   .text.Endpoint_Write_Control_EStream_LE:0000000000000046 .Loc.1133
     /tmp/ccKmBXiy.s:4070   .text.Endpoint_Write_Control_EStream_LE:0000000000000046 .Loc.1134
     /tmp/ccKmBXiy.s:4074   .text.Endpoint_Write_Control_EStream_LE:0000000000000050 .Loc.1135
     /tmp/ccKmBXiy.s:4078   .text.Endpoint_Write_Control_EStream_LE:0000000000000052 .Loc.1136
     /tmp/ccKmBXiy.s:4082   .text.Endpoint_Write_Control_EStream_LE:0000000000000052 .Loc.1137
     /tmp/ccKmBXiy.s:4083   .text.Endpoint_Write_Control_EStream_LE:0000000000000052 .Loc.1138
     /tmp/ccKmBXiy.s:4086   .text.Endpoint_Write_Control_EStream_LE:0000000000000056 .Loc.1139
     /tmp/ccKmBXiy.s:4087   .text.Endpoint_Write_Control_EStream_LE:0000000000000056 .Loc.1140
     /tmp/ccKmBXiy.s:4090   .text.Endpoint_Write_Control_EStream_LE:000000000000005a .Loc.1141
     /tmp/ccKmBXiy.s:4091   .text.Endpoint_Write_Control_EStream_LE:000000000000005a .Loc.1142
     /tmp/ccKmBXiy.s:4094   .text.Endpoint_Write_Control_EStream_LE:000000000000005e .Loc.1143
     /tmp/ccKmBXiy.s:4097   .text.Endpoint_Write_Control_EStream_LE:000000000000005e .Loc.1144
     /tmp/ccKmBXiy.s:4099   .text.Endpoint_Write_Control_EStream_LE:000000000000005e .Loc.1145
     /tmp/ccKmBXiy.s:4100   .text.Endpoint_Write_Control_EStream_LE:000000000000005e .Loc.1146
     /tmp/ccKmBXiy.s:4103   .text.Endpoint_Write_Control_EStream_LE:0000000000000062 .Loc.1147
     /tmp/ccKmBXiy.s:4106   .text.Endpoint_Write_Control_EStream_LE:0000000000000062 .Loc.1148
     /tmp/ccKmBXiy.s:4109   .text.Endpoint_Write_Control_EStream_LE:0000000000000066 .Loc.1149
     /tmp/ccKmBXiy.s:4112   .text.Endpoint_Write_Control_EStream_LE:0000000000000066 .Loc.1150
     /tmp/ccKmBXiy.s:4114   .text.Endpoint_Write_Control_EStream_LE:0000000000000066 .Loc.1151
     /tmp/ccKmBXiy.s:4115   .text.Endpoint_Write_Control_EStream_LE:0000000000000066 .Loc.1152
     /tmp/ccKmBXiy.s:4119   .text.Endpoint_Write_Control_EStream_LE:000000000000006a .Loc.1153
     /tmp/ccKmBXiy.s:4122   .text.Endpoint_Write_Control_EStream_LE:000000000000006e .Loc.1154
     /tmp/ccKmBXiy.s:4125   .text.Endpoint_Write_Control_EStream_LE:000000000000006e .Loc.1155
     /tmp/ccKmBXiy.s:4127   .text.Endpoint_Write_Control_EStream_LE:000000000000006e .Loc.1156
     /tmp/ccKmBXiy.s:4128   .text.Endpoint_Write_Control_EStream_LE:000000000000006e .Loc.1157
     /tmp/ccKmBXiy.s:4132   .text.Endpoint_Write_Control_EStream_LE:0000000000000072 .Loc.1158
     /tmp/ccKmBXiy.s:4136   .text.Endpoint_Write_Control_EStream_LE:0000000000000076 .Loc.1159
     /tmp/ccKmBXiy.s:4139   .text.Endpoint_Write_Control_EStream_LE:0000000000000076 .Loc.1160
     /tmp/ccKmBXiy.s:4141   .text.Endpoint_Write_Control_EStream_LE:0000000000000076 .Loc.1161
     /tmp/ccKmBXiy.s:4142   .text.Endpoint_Write_Control_EStream_LE:0000000000000076 .Loc.1162
     /tmp/ccKmBXiy.s:4146   .text.Endpoint_Write_Control_EStream_LE:000000000000007e .Loc.1163
     /tmp/ccKmBXiy.s:4149   .text.Endpoint_Write_Control_EStream_LE:000000000000007e .Loc.1164
     /tmp/ccKmBXiy.s:4151   .text.Endpoint_Write_Control_EStream_LE:000000000000007e .Loc.1165
     /tmp/ccKmBXiy.s:4154   .text.Endpoint_Write_Control_EStream_LE:0000000000000082 .Loc.1166
     /tmp/ccKmBXiy.s:4160   .text.Endpoint_Write_Control_EStream_LE:000000000000008a .Loc.1167
     /tmp/ccKmBXiy.s:4161   .text.Endpoint_Write_Control_EStream_LE:000000000000008a .Loc.1168
     /tmp/ccKmBXiy.s:4170   .text.Endpoint_Write_Control_EStream_LE:0000000000000096 .Loc.1169
     /tmp/ccKmBXiy.s:4173   .text.Endpoint_Write_Control_EStream_LE:0000000000000096 .Loc.1170
     /tmp/ccKmBXiy.s:4175   .text.Endpoint_Write_Control_EStream_LE:0000000000000096 .Loc.1171
     /tmp/ccKmBXiy.s:4176   .text.Endpoint_Write_Control_EStream_LE:0000000000000096 .Loc.1172
     /tmp/ccKmBXiy.s:4181   .text.Endpoint_Write_Control_EStream_LE:00000000000000a0 .Loc.1173
     /tmp/ccKmBXiy.s:4185   .text.Endpoint_Write_Control_EStream_LE:00000000000000a2 .Loc.1174
     /tmp/ccKmBXiy.s:4188   .text.Endpoint_Write_Control_EStream_LE:00000000000000a2 .Loc.1175
     /tmp/ccKmBXiy.s:4194   .text.Endpoint_Write_Control_EStream_LE:00000000000000a8 .Loc.1176
     /tmp/ccKmBXiy.s:4196   .text.Endpoint_Write_Control_EStream_LE:00000000000000a8 .Loc.1177
     /tmp/ccKmBXiy.s:4197   .text.Endpoint_Write_Control_EStream_LE:00000000000000a8 .Loc.1178
     /tmp/ccKmBXiy.s:4200   .text.Endpoint_Write_Control_EStream_LE:00000000000000ac .Loc.1179
     /tmp/ccKmBXiy.s:4203   .text.Endpoint_Write_Control_EStream_LE:00000000000000ac .Loc.1180
     /tmp/ccKmBXiy.s:4207   .text.Endpoint_Write_Control_EStream_LE:00000000000000b0 .Loc.1181
     /tmp/ccKmBXiy.s:4208   .text.Endpoint_Write_Control_EStream_LE:00000000000000b0 .Loc.1182
     /tmp/ccKmBXiy.s:4211   .text.Endpoint_Write_Control_EStream_LE:00000000000000b2 .Loc.1183
     /tmp/ccKmBXiy.s:4212   .text.Endpoint_Write_Control_EStream_LE:00000000000000b2 .Loc.1184
     /tmp/ccKmBXiy.s:4217   .text.Endpoint_Write_Control_EStream_LE:00000000000000b8 .Loc.1185
     /tmp/ccKmBXiy.s:4221   .text.Endpoint_Write_Control_EStream_LE:00000000000000ba .Loc.1186
     /tmp/ccKmBXiy.s:4225   .text.Endpoint_Write_Control_EStream_LE:00000000000000ba .Loc.1187
     /tmp/ccKmBXiy.s:4226   .text.Endpoint_Write_Control_EStream_LE:00000000000000ba .Loc.1188
     /tmp/ccKmBXiy.s:4229   .text.Endpoint_Write_Control_EStream_LE:00000000000000be .Loc.1189
     /tmp/ccKmBXiy.s:4230   .text.Endpoint_Write_Control_EStream_LE:00000000000000be .Loc.1190
     /tmp/ccKmBXiy.s:4233   .text.Endpoint_Write_Control_EStream_LE:00000000000000c2 .Loc.1191
     /tmp/ccKmBXiy.s:4234   .text.Endpoint_Write_Control_EStream_LE:00000000000000c2 .Loc.1192
     /tmp/ccKmBXiy.s:4237   .text.Endpoint_Write_Control_EStream_LE:00000000000000c6 .Loc.1193
     /tmp/ccKmBXiy.s:4240   .text.Endpoint_Write_Control_EStream_LE:00000000000000c6 .Loc.1194
     /tmp/ccKmBXiy.s:4242   .text.Endpoint_Write_Control_EStream_LE:00000000000000c6 .Loc.1195
     /tmp/ccKmBXiy.s:4243   .text.Endpoint_Write_Control_EStream_LE:00000000000000c6 .Loc.1196
     /tmp/ccKmBXiy.s:4246   .text.Endpoint_Write_Control_EStream_LE:00000000000000ca .Loc.1197
     /tmp/ccKmBXiy.s:4249   .text.Endpoint_Write_Control_EStream_LE:00000000000000ca .Loc.1198
     /tmp/ccKmBXiy.s:4254   .text.Endpoint_Write_Control_EStream_LE:00000000000000ce .Loc.1199
     /tmp/ccKmBXiy.s:4257   .text.Endpoint_Write_Control_EStream_LE:00000000000000ce .Loc.1200
     /tmp/ccKmBXiy.s:4261   .text.Endpoint_Write_Control_EStream_LE:00000000000000d2 .Loc.1201
     /tmp/ccKmBXiy.s:4265   .text.Endpoint_Write_Control_EStream_LE:00000000000000d6 .Loc.1202
     /tmp/ccKmBXiy.s:4269   .text.Endpoint_Write_Control_EStream_LE:00000000000000da L0
     /tmp/ccKmBXiy.s:4275   .text.Endpoint_Write_Control_EStream_BE:0000000000000000 Endpoint_Write_Control_EStream_BE
     /tmp/ccKmBXiy.s:4278   .text.Endpoint_Write_Control_EStream_BE:0000000000000000 .Loc.1203
     /tmp/ccKmBXiy.s:4279   .text.Endpoint_Write_Control_EStream_BE:0000000000000000 L0
     /tmp/ccKmBXiy.s:4280   .text.Endpoint_Write_Control_EStream_BE:0000000000000000 .Loc.1204
     /tmp/ccKmBXiy.s:4310   .text.Endpoint_Write_Control_EStream_BE:000000000000000e .Loc.1205
     /tmp/ccKmBXiy.s:4311   .text.Endpoint_Write_Control_EStream_BE:000000000000000e .Loc.1206
     /tmp/ccKmBXiy.s:4315   .text.Endpoint_Write_Control_EStream_BE:0000000000000014 .Loc.1207
     /tmp/ccKmBXiy.s:4319   .text.Endpoint_Write_Control_EStream_BE:0000000000000018 .Loc.1208
     /tmp/ccKmBXiy.s:4320   .text.Endpoint_Write_Control_EStream_BE:0000000000000018 .Loc.1209
     /tmp/ccKmBXiy.s:4321   .text.Endpoint_Write_Control_EStream_BE:0000000000000018 .Loc.1210
     /tmp/ccKmBXiy.s:4324   .text.Endpoint_Write_Control_EStream_BE:0000000000000020 .Loc.1211
     /tmp/ccKmBXiy.s:4328   .text.Endpoint_Write_Control_EStream_BE:0000000000000026 .Loc.1212
     /tmp/ccKmBXiy.s:4329   .text.Endpoint_Write_Control_EStream_BE:0000000000000026 .Loc.1213
     /tmp/ccKmBXiy.s:4334   .text.Endpoint_Write_Control_EStream_BE:000000000000002a .Loc.1214
     /tmp/ccKmBXiy.s:4338   .text.Endpoint_Write_Control_EStream_BE:000000000000002c .Loc.1215
     /tmp/ccKmBXiy.s:4342   .text.Endpoint_Write_Control_EStream_BE:000000000000002e .Loc.1216
     /tmp/ccKmBXiy.s:4345   .text.Endpoint_Write_Control_EStream_BE:0000000000000032 .Loc.1217
     /tmp/ccKmBXiy.s:4350   .text.Endpoint_Write_Control_EStream_BE:0000000000000036 .Loc.1218
     /tmp/ccKmBXiy.s:4353   .text.Endpoint_Write_Control_EStream_BE:0000000000000036 .Loc.1219
     /tmp/ccKmBXiy.s:4355   .text.Endpoint_Write_Control_EStream_BE:0000000000000036 .Loc.1220
     /tmp/ccKmBXiy.s:4356   .text.Endpoint_Write_Control_EStream_BE:0000000000000036 .Loc.1221
     /tmp/ccKmBXiy.s:4360   .text.Endpoint_Write_Control_EStream_BE:000000000000003a .Loc.1222
     /tmp/ccKmBXiy.s:4363   .text.Endpoint_Write_Control_EStream_BE:000000000000003e .Loc.1223
     /tmp/ccKmBXiy.s:4367   .text.Endpoint_Write_Control_EStream_BE:0000000000000040 .Loc.1224
     /tmp/ccKmBXiy.s:4371   .text.Endpoint_Write_Control_EStream_BE:0000000000000044 .Loc.1225
     /tmp/ccKmBXiy.s:4375   .text.Endpoint_Write_Control_EStream_BE:0000000000000048 .Loc.1226
     /tmp/ccKmBXiy.s:4381   .text.Endpoint_Write_Control_EStream_BE:000000000000004e .Loc.1227
     /tmp/ccKmBXiy.s:4384   .text.Endpoint_Write_Control_EStream_BE:000000000000004e .Loc.1228
     /tmp/ccKmBXiy.s:4386   .text.Endpoint_Write_Control_EStream_BE:000000000000004e .Loc.1229
     /tmp/ccKmBXiy.s:4387   .text.Endpoint_Write_Control_EStream_BE:000000000000004e .Loc.1230
     /tmp/ccKmBXiy.s:4390   .text.Endpoint_Write_Control_EStream_BE:0000000000000052 .Loc.1231
     /tmp/ccKmBXiy.s:4393   .text.Endpoint_Write_Control_EStream_BE:0000000000000058 .Loc.1232
     /tmp/ccKmBXiy.s:4397   .text.Endpoint_Write_Control_EStream_BE:000000000000005a .Loc.1233
     /tmp/ccKmBXiy.s:4401   .text.Endpoint_Write_Control_EStream_BE:000000000000005a .Loc.1234
     /tmp/ccKmBXiy.s:4402   .text.Endpoint_Write_Control_EStream_BE:000000000000005a .Loc.1235
     /tmp/ccKmBXiy.s:4405   .text.Endpoint_Write_Control_EStream_BE:000000000000005e .Loc.1236
     /tmp/ccKmBXiy.s:4406   .text.Endpoint_Write_Control_EStream_BE:000000000000005e .Loc.1237
     /tmp/ccKmBXiy.s:4409   .text.Endpoint_Write_Control_EStream_BE:0000000000000062 .Loc.1238
     /tmp/ccKmBXiy.s:4410   .text.Endpoint_Write_Control_EStream_BE:0000000000000062 .Loc.1239
     /tmp/ccKmBXiy.s:4413   .text.Endpoint_Write_Control_EStream_BE:0000000000000066 .Loc.1240
     /tmp/ccKmBXiy.s:4416   .text.Endpoint_Write_Control_EStream_BE:0000000000000066 .Loc.1241
     /tmp/ccKmBXiy.s:4418   .text.Endpoint_Write_Control_EStream_BE:0000000000000066 .Loc.1242
     /tmp/ccKmBXiy.s:4419   .text.Endpoint_Write_Control_EStream_BE:0000000000000066 .Loc.1243
     /tmp/ccKmBXiy.s:4422   .text.Endpoint_Write_Control_EStream_BE:000000000000006a .Loc.1244
     /tmp/ccKmBXiy.s:4425   .text.Endpoint_Write_Control_EStream_BE:000000000000006a .Loc.1245
     /tmp/ccKmBXiy.s:4428   .text.Endpoint_Write_Control_EStream_BE:000000000000006e .Loc.1246
     /tmp/ccKmBXiy.s:4431   .text.Endpoint_Write_Control_EStream_BE:000000000000006e .Loc.1247
     /tmp/ccKmBXiy.s:4433   .text.Endpoint_Write_Control_EStream_BE:000000000000006e .Loc.1248
     /tmp/ccKmBXiy.s:4434   .text.Endpoint_Write_Control_EStream_BE:000000000000006e .Loc.1249
     /tmp/ccKmBXiy.s:4438   .text.Endpoint_Write_Control_EStream_BE:0000000000000072 .Loc.1250
     /tmp/ccKmBXiy.s:4441   .text.Endpoint_Write_Control_EStream_BE:0000000000000076 .Loc.1251
     /tmp/ccKmBXiy.s:4444   .text.Endpoint_Write_Control_EStream_BE:0000000000000076 .Loc.1252
     /tmp/ccKmBXiy.s:4446   .text.Endpoint_Write_Control_EStream_BE:0000000000000076 .Loc.1253
     /tmp/ccKmBXiy.s:4447   .text.Endpoint_Write_Control_EStream_BE:0000000000000076 .Loc.1254
     /tmp/ccKmBXiy.s:4451   .text.Endpoint_Write_Control_EStream_BE:000000000000007a .Loc.1255
     /tmp/ccKmBXiy.s:4455   .text.Endpoint_Write_Control_EStream_BE:000000000000007e .Loc.1256
     /tmp/ccKmBXiy.s:4458   .text.Endpoint_Write_Control_EStream_BE:000000000000007e .Loc.1257
     /tmp/ccKmBXiy.s:4460   .text.Endpoint_Write_Control_EStream_BE:000000000000007e .Loc.1258
     /tmp/ccKmBXiy.s:4461   .text.Endpoint_Write_Control_EStream_BE:000000000000007e .Loc.1259
     /tmp/ccKmBXiy.s:4465   .text.Endpoint_Write_Control_EStream_BE:0000000000000086 .Loc.1260
     /tmp/ccKmBXiy.s:4468   .text.Endpoint_Write_Control_EStream_BE:0000000000000086 .Loc.1261
     /tmp/ccKmBXiy.s:4470   .text.Endpoint_Write_Control_EStream_BE:0000000000000086 .Loc.1262
     /tmp/ccKmBXiy.s:4473   .text.Endpoint_Write_Control_EStream_BE:000000000000008a .Loc.1263
     /tmp/ccKmBXiy.s:4479   .text.Endpoint_Write_Control_EStream_BE:0000000000000092 .Loc.1264
     /tmp/ccKmBXiy.s:4480   .text.Endpoint_Write_Control_EStream_BE:0000000000000092 .Loc.1265
     /tmp/ccKmBXiy.s:4489   .text.Endpoint_Write_Control_EStream_BE:000000000000009e .Loc.1266
     /tmp/ccKmBXiy.s:4492   .text.Endpoint_Write_Control_EStream_BE:000000000000009e .Loc.1267
     /tmp/ccKmBXiy.s:4494   .text.Endpoint_Write_Control_EStream_BE:000000000000009e .Loc.1268
     /tmp/ccKmBXiy.s:4495   .text.Endpoint_Write_Control_EStream_BE:000000000000009e .Loc.1269
     /tmp/ccKmBXiy.s:4500   .text.Endpoint_Write_Control_EStream_BE:00000000000000a8 .Loc.1270
     /tmp/ccKmBXiy.s:4504   .text.Endpoint_Write_Control_EStream_BE:00000000000000aa .Loc.1271
     /tmp/ccKmBXiy.s:4507   .text.Endpoint_Write_Control_EStream_BE:00000000000000aa .Loc.1272
     /tmp/ccKmBXiy.s:4513   .text.Endpoint_Write_Control_EStream_BE:00000000000000b0 .Loc.1273
     /tmp/ccKmBXiy.s:4515   .text.Endpoint_Write_Control_EStream_BE:00000000000000b0 .Loc.1274
     /tmp/ccKmBXiy.s:4516   .text.Endpoint_Write_Control_EStream_BE:00000000000000b0 .Loc.1275
     /tmp/ccKmBXiy.s:4519   .text.Endpoint_Write_Control_EStream_BE:00000000000000b4 .Loc.1276
     /tmp/ccKmBXiy.s:4522   .text.Endpoint_Write_Control_EStream_BE:00000000000000b4 .Loc.1277
     /tmp/ccKmBXiy.s:4526   .text.Endpoint_Write_Control_EStream_BE:00000000000000b8 .Loc.1278
     /tmp/ccKmBXiy.s:4527   .text.Endpoint_Write_Control_EStream_BE:00000000000000b8 .Loc.1279
     /tmp/ccKmBXiy.s:4530   .text.Endpoint_Write_Control_EStream_BE:00000000000000ba .Loc.1280
     /tmp/ccKmBXiy.s:4531   .text.Endpoint_Write_Control_EStream_BE:00000000000000ba .Loc.1281
     /tmp/ccKmBXiy.s:4536   .text.Endpoint_Write_Control_EStream_BE:00000000000000c0 .Loc.1282
     /tmp/ccKmBXiy.s:4540   .text.Endpoint_Write_Control_EStream_BE:00000000000000c2 .Loc.1283
     /tmp/ccKmBXiy.s:4544   .text.Endpoint_Write_Control_EStream_BE:00000000000000c2 .Loc.1284
     /tmp/ccKmBXiy.s:4545   .text.Endpoint_Write_Control_EStream_BE:00000000000000c2 .Loc.1285
     /tmp/ccKmBXiy.s:4548   .text.Endpoint_Write_Control_EStream_BE:00000000000000c6 .Loc.1286
     /tmp/ccKmBXiy.s:4549   .text.Endpoint_Write_Control_EStream_BE:00000000000000c6 .Loc.1287
     /tmp/ccKmBXiy.s:4552   .text.Endpoint_Write_Control_EStream_BE:00000000000000ca .Loc.1288
     /tmp/ccKmBXiy.s:4553   .text.Endpoint_Write_Control_EStream_BE:00000000000000ca .Loc.1289
     /tmp/ccKmBXiy.s:4556   .text.Endpoint_Write_Control_EStream_BE:00000000000000ce .Loc.1290
     /tmp/ccKmBXiy.s:4559   .text.Endpoint_Write_Control_EStream_BE:00000000000000ce .Loc.1291
     /tmp/ccKmBXiy.s:4561   .text.Endpoint_Write_Control_EStream_BE:00000000000000ce .Loc.1292
     /tmp/ccKmBXiy.s:4562   .text.Endpoint_Write_Control_EStream_BE:00000000000000ce .Loc.1293
     /tmp/ccKmBXiy.s:4565   .text.Endpoint_Write_Control_EStream_BE:00000000000000d2 .Loc.1294
     /tmp/ccKmBXiy.s:4568   .text.Endpoint_Write_Control_EStream_BE:00000000000000d2 .Loc.1295
     /tmp/ccKmBXiy.s:4573   .text.Endpoint_Write_Control_EStream_BE:00000000000000d6 .Loc.1296
     /tmp/ccKmBXiy.s:4576   .text.Endpoint_Write_Control_EStream_BE:00000000000000d6 .Loc.1297
     /tmp/ccKmBXiy.s:4580   .text.Endpoint_Write_Control_EStream_BE:00000000000000da .Loc.1298
     /tmp/ccKmBXiy.s:4584   .text.Endpoint_Write_Control_EStream_BE:00000000000000de .Loc.1299
     /tmp/ccKmBXiy.s:4588   .text.Endpoint_Write_Control_EStream_BE:00000000000000e2 L0
     /tmp/ccKmBXiy.s:4594   .text.Endpoint_Read_Control_EStream_LE:0000000000000000 Endpoint_Read_Control_EStream_LE
     /tmp/ccKmBXiy.s:4597   .text.Endpoint_Read_Control_EStream_LE:0000000000000000 .Loc.1300
     /tmp/ccKmBXiy.s:4598   .text.Endpoint_Read_Control_EStream_LE:0000000000000000 L0
     /tmp/ccKmBXiy.s:4599   .text.Endpoint_Read_Control_EStream_LE:0000000000000000 .Loc.1301
     /tmp/ccKmBXiy.s:4622   .text.Endpoint_Read_Control_EStream_LE:000000000000000c .Loc.1302
     /tmp/ccKmBXiy.s:4624   .text.Endpoint_Read_Control_EStream_LE:000000000000000c .Loc.1303
     /tmp/ccKmBXiy.s:4625   .text.Endpoint_Read_Control_EStream_LE:000000000000000c .Loc.1304
     /tmp/ccKmBXiy.s:4631   .text.Endpoint_Read_Control_EStream_LE:0000000000000010 .Loc.1305
     /tmp/ccKmBXiy.s:4634   .text.Endpoint_Read_Control_EStream_LE:0000000000000010 .Loc.1306
     /tmp/ccKmBXiy.s:4636   .text.Endpoint_Read_Control_EStream_LE:0000000000000010 .Loc.1307
     /tmp/ccKmBXiy.s:4637   .text.Endpoint_Read_Control_EStream_LE:0000000000000010 .Loc.1308
     /tmp/ccKmBXiy.s:4641   .text.Endpoint_Read_Control_EStream_LE:000000000000001a .Loc.1309
     /tmp/ccKmBXiy.s:4645   .text.Endpoint_Read_Control_EStream_LE:000000000000001a .Loc.1310
     /tmp/ccKmBXiy.s:4649   .text.Endpoint_Read_Control_EStream_LE:000000000000001e .Loc.1311
     /tmp/ccKmBXiy.s:4652   .text.Endpoint_Read_Control_EStream_LE:000000000000001e .Loc.1312
     /tmp/ccKmBXiy.s:4654   .text.Endpoint_Read_Control_EStream_LE:000000000000001e .Loc.1313
     /tmp/ccKmBXiy.s:4655   .text.Endpoint_Read_Control_EStream_LE:000000000000001e .Loc.1314
     /tmp/ccKmBXiy.s:4659   .text.Endpoint_Read_Control_EStream_LE:0000000000000022 .Loc.1315
     /tmp/ccKmBXiy.s:4662   .text.Endpoint_Read_Control_EStream_LE:0000000000000026 .Loc.1316
     /tmp/ccKmBXiy.s:4667   .text.Endpoint_Read_Control_EStream_LE:0000000000000028 .Loc.1317
     /tmp/ccKmBXiy.s:4675   .text.Endpoint_Read_Control_EStream_LE:0000000000000032 .Loc.1318
     /tmp/ccKmBXiy.s:4676   .text.Endpoint_Read_Control_EStream_LE:0000000000000032 .Loc.1319
     /tmp/ccKmBXiy.s:4679   .text.Endpoint_Read_Control_EStream_LE:0000000000000036 .Loc.1320
     /tmp/ccKmBXiy.s:4680   .text.Endpoint_Read_Control_EStream_LE:0000000000000036 .Loc.1321
     /tmp/ccKmBXiy.s:4683   .text.Endpoint_Read_Control_EStream_LE:000000000000003a .Loc.1322
     /tmp/ccKmBXiy.s:4684   .text.Endpoint_Read_Control_EStream_LE:000000000000003a .Loc.1323
     /tmp/ccKmBXiy.s:4687   .text.Endpoint_Read_Control_EStream_LE:000000000000003e .Loc.1324
     /tmp/ccKmBXiy.s:4690   .text.Endpoint_Read_Control_EStream_LE:000000000000003e .Loc.1325
     /tmp/ccKmBXiy.s:4692   .text.Endpoint_Read_Control_EStream_LE:000000000000003e .Loc.1326
     /tmp/ccKmBXiy.s:4693   .text.Endpoint_Read_Control_EStream_LE:000000000000003e .Loc.1327
     /tmp/ccKmBXiy.s:4696   .text.Endpoint_Read_Control_EStream_LE:0000000000000042 .Loc.1328
     /tmp/ccKmBXiy.s:4699   .text.Endpoint_Read_Control_EStream_LE:0000000000000042 .Loc.1329
     /tmp/ccKmBXiy.s:4702   .text.Endpoint_Read_Control_EStream_LE:0000000000000046 .Loc.1330
     /tmp/ccKmBXiy.s:4705   .text.Endpoint_Read_Control_EStream_LE:0000000000000046 .Loc.1331
     /tmp/ccKmBXiy.s:4707   .text.Endpoint_Read_Control_EStream_LE:0000000000000046 .Loc.1332
     /tmp/ccKmBXiy.s:4708   .text.Endpoint_Read_Control_EStream_LE:0000000000000046 .Loc.1333
     /tmp/ccKmBXiy.s:4712   .text.Endpoint_Read_Control_EStream_LE:000000000000004a .Loc.1334
     /tmp/ccKmBXiy.s:4719   .text.Endpoint_Read_Control_EStream_LE:000000000000004e .Loc.1335
     /tmp/ccKmBXiy.s:4721   .text.Endpoint_Read_Control_EStream_LE:000000000000004e .Loc.1336
     /tmp/ccKmBXiy.s:4722   .text.Endpoint_Read_Control_EStream_LE:000000000000004e .Loc.1337
     /tmp/ccKmBXiy.s:4727   .text.Endpoint_Read_Control_EStream_LE:0000000000000056 .Loc.1338
     /tmp/ccKmBXiy.s:4730   .text.Endpoint_Read_Control_EStream_LE:000000000000005a .Loc.1339
     /tmp/ccKmBXiy.s:4733   .text.Endpoint_Read_Control_EStream_LE:000000000000005a .Loc.1340
     /tmp/ccKmBXiy.s:4735   .text.Endpoint_Read_Control_EStream_LE:000000000000005a .Loc.1341
     /tmp/ccKmBXiy.s:4736   .text.Endpoint_Read_Control_EStream_LE:000000000000005a .Loc.1342
     /tmp/ccKmBXiy.s:4740   .text.Endpoint_Read_Control_EStream_LE:000000000000005e .Loc.1343
     /tmp/ccKmBXiy.s:4744   .text.Endpoint_Read_Control_EStream_LE:0000000000000064 .Loc.1344
     /tmp/ccKmBXiy.s:4748   .text.Endpoint_Read_Control_EStream_LE:0000000000000068 .Loc.1345
     /tmp/ccKmBXiy.s:4749   .text.Endpoint_Read_Control_EStream_LE:0000000000000068 .Loc.1346
     /tmp/ccKmBXiy.s:4752   .text.Endpoint_Read_Control_EStream_LE:000000000000006a .Loc.1347
     /tmp/ccKmBXiy.s:4758   .text.Endpoint_Read_Control_EStream_LE:0000000000000070 .Loc.1348
     /tmp/ccKmBXiy.s:4761   .text.Endpoint_Read_Control_EStream_LE:0000000000000070 .Loc.1349
     /tmp/ccKmBXiy.s:4762   .text.Endpoint_Read_Control_EStream_LE:0000000000000070 .Loc.1350
     /tmp/ccKmBXiy.s:4765   .text.Endpoint_Read_Control_EStream_LE:0000000000000074 .Loc.1351
     /tmp/ccKmBXiy.s:4766   .text.Endpoint_Read_Control_EStream_LE:0000000000000074 .Loc.1352
     /tmp/ccKmBXiy.s:4769   .text.Endpoint_Read_Control_EStream_LE:0000000000000078 .Loc.1353
     /tmp/ccKmBXiy.s:4770   .text.Endpoint_Read_Control_EStream_LE:0000000000000078 .Loc.1354
     /tmp/ccKmBXiy.s:4775   .text.Endpoint_Read_Control_EStream_LE:000000000000007c .Loc.1355
     /tmp/ccKmBXiy.s:4778   .text.Endpoint_Read_Control_EStream_LE:000000000000007c .Loc.1356
     /tmp/ccKmBXiy.s:4783   .text.Endpoint_Read_Control_EStream_LE:0000000000000080 .Loc.1357
     /tmp/ccKmBXiy.s:4788   .text.Endpoint_Read_Control_EStream_LE:0000000000000084 .Loc.1358
     /tmp/ccKmBXiy.s:4792   .text.Endpoint_Read_Control_EStream_LE:0000000000000088 L0
     /tmp/ccKmBXiy.s:4798   .text.Endpoint_Read_Control_EStream_BE:0000000000000000 Endpoint_Read_Control_EStream_BE
     /tmp/ccKmBXiy.s:4801   .text.Endpoint_Read_Control_EStream_BE:0000000000000000 .Loc.1359
     /tmp/ccKmBXiy.s:4802   .text.Endpoint_Read_Control_EStream_BE:0000000000000000 L0
     /tmp/ccKmBXiy.s:4803   .text.Endpoint_Read_Control_EStream_BE:0000000000000000 .Loc.1360
     /tmp/ccKmBXiy.s:4825   .text.Endpoint_Read_Control_EStream_BE:000000000000000a .Loc.1361
     /tmp/ccKmBXiy.s:4826   .text.Endpoint_Read_Control_EStream_BE:000000000000000a .Loc.1362
     /tmp/ccKmBXiy.s:4830   .text.Endpoint_Read_Control_EStream_BE:0000000000000010 .Loc.1363
     /tmp/ccKmBXiy.s:4834   .text.Endpoint_Read_Control_EStream_BE:0000000000000014 .Loc.1364
     /tmp/ccKmBXiy.s:4835   .text.Endpoint_Read_Control_EStream_BE:0000000000000014 .Loc.1365
     /tmp/ccKmBXiy.s:4841   .text.Endpoint_Read_Control_EStream_BE:0000000000000018 .Loc.1366
     /tmp/ccKmBXiy.s:4844   .text.Endpoint_Read_Control_EStream_BE:0000000000000018 .Loc.1367
     /tmp/ccKmBXiy.s:4846   .text.Endpoint_Read_Control_EStream_BE:0000000000000018 .Loc.1368
     /tmp/ccKmBXiy.s:4847   .text.Endpoint_Read_Control_EStream_BE:0000000000000018 .Loc.1369
     /tmp/ccKmBXiy.s:4851   .text.Endpoint_Read_Control_EStream_BE:0000000000000022 .Loc.1370
     /tmp/ccKmBXiy.s:4855   .text.Endpoint_Read_Control_EStream_BE:0000000000000022 .Loc.1371
     /tmp/ccKmBXiy.s:4859   .text.Endpoint_Read_Control_EStream_BE:0000000000000026 .Loc.1372
     /tmp/ccKmBXiy.s:4862   .text.Endpoint_Read_Control_EStream_BE:0000000000000026 .Loc.1373
     /tmp/ccKmBXiy.s:4864   .text.Endpoint_Read_Control_EStream_BE:0000000000000026 .Loc.1374
     /tmp/ccKmBXiy.s:4865   .text.Endpoint_Read_Control_EStream_BE:0000000000000026 .Loc.1375
     /tmp/ccKmBXiy.s:4869   .text.Endpoint_Read_Control_EStream_BE:000000000000002a .Loc.1376
     /tmp/ccKmBXiy.s:4872   .text.Endpoint_Read_Control_EStream_BE:000000000000002e .Loc.1377
     /tmp/ccKmBXiy.s:4877   .text.Endpoint_Read_Control_EStream_BE:0000000000000030 .Loc.1378
     /tmp/ccKmBXiy.s:4885   .text.Endpoint_Read_Control_EStream_BE:000000000000003a .Loc.1379
     /tmp/ccKmBXiy.s:4886   .text.Endpoint_Read_Control_EStream_BE:000000000000003a .Loc.1380
     /tmp/ccKmBXiy.s:4889   .text.Endpoint_Read_Control_EStream_BE:000000000000003e .Loc.1381
     /tmp/ccKmBXiy.s:4890   .text.Endpoint_Read_Control_EStream_BE:000000000000003e .Loc.1382
     /tmp/ccKmBXiy.s:4893   .text.Endpoint_Read_Control_EStream_BE:0000000000000042 .Loc.1383
     /tmp/ccKmBXiy.s:4894   .text.Endpoint_Read_Control_EStream_BE:0000000000000042 .Loc.1384
     /tmp/ccKmBXiy.s:4897   .text.Endpoint_Read_Control_EStream_BE:0000000000000046 .Loc.1385
     /tmp/ccKmBXiy.s:4900   .text.Endpoint_Read_Control_EStream_BE:0000000000000046 .Loc.1386
     /tmp/ccKmBXiy.s:4902   .text.Endpoint_Read_Control_EStream_BE:0000000000000046 .Loc.1387
     /tmp/ccKmBXiy.s:4903   .text.Endpoint_Read_Control_EStream_BE:0000000000000046 .Loc.1388
     /tmp/ccKmBXiy.s:4906   .text.Endpoint_Read_Control_EStream_BE:000000000000004a .Loc.1389
     /tmp/ccKmBXiy.s:4909   .text.Endpoint_Read_Control_EStream_BE:000000000000004a .Loc.1390
     /tmp/ccKmBXiy.s:4912   .text.Endpoint_Read_Control_EStream_BE:000000000000004e .Loc.1391
     /tmp/ccKmBXiy.s:4915   .text.Endpoint_Read_Control_EStream_BE:000000000000004e .Loc.1392
     /tmp/ccKmBXiy.s:4917   .text.Endpoint_Read_Control_EStream_BE:000000000000004e .Loc.1393
     /tmp/ccKmBXiy.s:4918   .text.Endpoint_Read_Control_EStream_BE:000000000000004e .Loc.1394
     /tmp/ccKmBXiy.s:4922   .text.Endpoint_Read_Control_EStream_BE:0000000000000052 .Loc.1395
     /tmp/ccKmBXiy.s:4929   .text.Endpoint_Read_Control_EStream_BE:0000000000000056 .Loc.1396
     /tmp/ccKmBXiy.s:4931   .text.Endpoint_Read_Control_EStream_BE:0000000000000056 .Loc.1397
     /tmp/ccKmBXiy.s:4932   .text.Endpoint_Read_Control_EStream_BE:0000000000000056 .Loc.1398
     /tmp/ccKmBXiy.s:4937   .text.Endpoint_Read_Control_EStream_BE:000000000000005e .Loc.1399
     /tmp/ccKmBXiy.s:4940   .text.Endpoint_Read_Control_EStream_BE:0000000000000062 .Loc.1400
     /tmp/ccKmBXiy.s:4943   .text.Endpoint_Read_Control_EStream_BE:0000000000000062 .Loc.1401
     /tmp/ccKmBXiy.s:4945   .text.Endpoint_Read_Control_EStream_BE:0000000000000062 .Loc.1402
     /tmp/ccKmBXiy.s:4946   .text.Endpoint_Read_Control_EStream_BE:0000000000000062 .Loc.1403
     /tmp/ccKmBXiy.s:4950   .text.Endpoint_Read_Control_EStream_BE:0000000000000066 .Loc.1404
     /tmp/ccKmBXiy.s:4954   .text.Endpoint_Read_Control_EStream_BE:000000000000006c .Loc.1405
     /tmp/ccKmBXiy.s:4958   .text.Endpoint_Read_Control_EStream_BE:0000000000000070 .Loc.1406
     /tmp/ccKmBXiy.s:4959   .text.Endpoint_Read_Control_EStream_BE:0000000000000070 .Loc.1407
     /tmp/ccKmBXiy.s:4962   .text.Endpoint_Read_Control_EStream_BE:0000000000000072 .Loc.1408
     /tmp/ccKmBXiy.s:4968   .text.Endpoint_Read_Control_EStream_BE:0000000000000078 .Loc.1409
     /tmp/ccKmBXiy.s:4971   .text.Endpoint_Read_Control_EStream_BE:0000000000000078 .Loc.1410
     /tmp/ccKmBXiy.s:4972   .text.Endpoint_Read_Control_EStream_BE:0000000000000078 .Loc.1411
     /tmp/ccKmBXiy.s:4975   .text.Endpoint_Read_Control_EStream_BE:000000000000007c .Loc.1412
     /tmp/ccKmBXiy.s:4976   .text.Endpoint_Read_Control_EStream_BE:000000000000007c .Loc.1413
     /tmp/ccKmBXiy.s:4979   .text.Endpoint_Read_Control_EStream_BE:0000000000000080 .Loc.1414
     /tmp/ccKmBXiy.s:4980   .text.Endpoint_Read_Control_EStream_BE:0000000000000080 .Loc.1415
     /tmp/ccKmBXiy.s:4985   .text.Endpoint_Read_Control_EStream_BE:0000000000000084 .Loc.1416
     /tmp/ccKmBXiy.s:4988   .text.Endpoint_Read_Control_EStream_BE:0000000000000084 .Loc.1417
     /tmp/ccKmBXiy.s:4993   .text.Endpoint_Read_Control_EStream_BE:0000000000000088 .Loc.1418
     /tmp/ccKmBXiy.s:4998   .text.Endpoint_Read_Control_EStream_BE:000000000000008c .Loc.1419
     /tmp/ccKmBXiy.s:5002   .text.Endpoint_Read_Control_EStream_BE:0000000000000090 L0
     /tmp/ccKmBXiy.s:191    .text.Endpoint_Discard_Stream:000000000000008a L0
     /tmp/ccKmBXiy.s:369    .text.Endpoint_Null_Stream:000000000000008a L0
     /tmp/ccKmBXiy.s:570    .text.Endpoint_Write_Stream_LE:000000000000009e L0
     /tmp/ccKmBXiy.s:781    .text.Endpoint_Write_Stream_BE:00000000000000a8 L0
     /tmp/ccKmBXiy.s:980    .text.Endpoint_Read_Stream_LE:000000000000009e L0
     /tmp/ccKmBXiy.s:1189   .text.Endpoint_Read_Stream_BE:00000000000000a8 L0
     /tmp/ccKmBXiy.s:1403   .text.Endpoint_Write_PStream_LE:00000000000000a0 L0
     /tmp/ccKmBXiy.s:1627   .text.Endpoint_Write_PStream_BE:00000000000000aa L0
     /tmp/ccKmBXiy.s:1829   .text.Endpoint_Write_EStream_LE:00000000000000a2 L0
     /tmp/ccKmBXiy.s:2041   .text.Endpoint_Write_EStream_BE:00000000000000ac L0
     /tmp/ccKmBXiy.s:2242   .text.Endpoint_Read_EStream_LE:00000000000000a2 L0
     /tmp/ccKmBXiy.s:2453   .text.Endpoint_Read_EStream_BE:00000000000000ac L0
     /tmp/ccKmBXiy.s:2727   .text.Endpoint_Write_Control_Stream_LE:00000000000000b4 L0
     /tmp/ccKmBXiy.s:3009   .text.Endpoint_Write_Control_Stream_BE:00000000000000be L0
     /tmp/ccKmBXiy.s:3192   .text.Endpoint_Read_Control_Stream_LE:0000000000000070 L0
     /tmp/ccKmBXiy.s:3382   .text.Endpoint_Read_Control_Stream_BE:000000000000007e L0
     /tmp/ccKmBXiy.s:3669   .text.Endpoint_Write_Control_PStream_LE:00000000000000b6 L0
     /tmp/ccKmBXiy.s:3963   .text.Endpoint_Write_Control_PStream_BE:00000000000000be L0
     /tmp/ccKmBXiy.s:4272   .text.Endpoint_Write_Control_EStream_LE:00000000000000da L0
     /tmp/ccKmBXiy.s:4591   .text.Endpoint_Write_Control_EStream_BE:00000000000000e2 L0
     /tmp/ccKmBXiy.s:4795   .text.Endpoint_Read_Control_EStream_LE:0000000000000088 L0
     /tmp/ccKmBXiy.s:5005   .text.Endpoint_Read_Control_EStream_BE:0000000000000090 L0
                     .debug_frame:0000000000000000 L0
     /tmp/ccKmBXiy.s:136    .text.Endpoint_Discard_Stream:000000000000005e .L1
     /tmp/ccKmBXiy.s:81     .text.Endpoint_Discard_Stream:000000000000002c .L3
     /tmp/ccKmBXiy.s:163    .text.Endpoint_Discard_Stream:000000000000007c .L5
     /tmp/ccKmBXiy.s:151    .text.Endpoint_Discard_Stream:0000000000000070 .L6
     /tmp/ccKmBXiy.s:91     .text.Endpoint_Discard_Stream:0000000000000034 .L7
     /tmp/ccKmBXiy.s:86     .text.Endpoint_Discard_Stream:0000000000000030 .L4
     /tmp/ccKmBXiy.s:314    .text.Endpoint_Null_Stream:000000000000005e .L13
     /tmp/ccKmBXiy.s:260    .text.Endpoint_Null_Stream:000000000000002c .L15
     /tmp/ccKmBXiy.s:341    .text.Endpoint_Null_Stream:000000000000007c .L17
     /tmp/ccKmBXiy.s:329    .text.Endpoint_Null_Stream:0000000000000070 .L18
     /tmp/ccKmBXiy.s:270    .text.Endpoint_Null_Stream:0000000000000034 .L19
     /tmp/ccKmBXiy.s:265    .text.Endpoint_Null_Stream:0000000000000030 .L16
     /tmp/ccKmBXiy.s:508    .text.Endpoint_Write_Stream_LE:0000000000000068 .L25
     /tmp/ccKmBXiy.s:454    .text.Endpoint_Write_Stream_LE:0000000000000036 .L27
     /tmp/ccKmBXiy.s:537    .text.Endpoint_Write_Stream_LE:000000000000008a .L29
     /tmp/ccKmBXiy.s:525    .text.Endpoint_Write_Stream_LE:000000000000007e .L30
     /tmp/ccKmBXiy.s:464    .text.Endpoint_Write_Stream_LE:000000000000003e .L31
     /tmp/ccKmBXiy.s:459    .text.Endpoint_Write_Stream_LE:000000000000003a .L28
     /tmp/ccKmBXiy.s:718    .text.Endpoint_Write_Stream_BE:0000000000000072 .L37
     /tmp/ccKmBXiy.s:663    .text.Endpoint_Write_Stream_BE:000000000000003e .L39
     /tmp/ccKmBXiy.s:747    .text.Endpoint_Write_Stream_BE:0000000000000094 .L41
     /tmp/ccKmBXiy.s:735    .text.Endpoint_Write_Stream_BE:0000000000000088 .L42
     /tmp/ccKmBXiy.s:674    .text.Endpoint_Write_Stream_BE:0000000000000048 .L43
     /tmp/ccKmBXiy.s:668    .text.Endpoint_Write_Stream_BE:0000000000000042 .L40
     /tmp/ccKmBXiy.s:919    .text.Endpoint_Read_Stream_LE:0000000000000068 .L49
     /tmp/ccKmBXiy.s:865    .text.Endpoint_Read_Stream_LE:0000000000000036 .L51
     /tmp/ccKmBXiy.s:948    .text.Endpoint_Read_Stream_LE:000000000000008a .L53
     /tmp/ccKmBXiy.s:936    .text.Endpoint_Read_Stream_LE:000000000000007e .L54
     /tmp/ccKmBXiy.s:875    .text.Endpoint_Read_Stream_LE:000000000000003e .L55
     /tmp/ccKmBXiy.s:870    .text.Endpoint_Read_Stream_LE:000000000000003a .L52
     /tmp/ccKmBXiy.s:1128   .text.Endpoint_Read_Stream_BE:0000000000000072 .L61
     /tmp/ccKmBXiy.s:1073   .text.Endpoint_Read_Stream_BE:000000000000003e .L63
     /tmp/ccKmBXiy.s:1157   .text.Endpoint_Read_Stream_BE:0000000000000094 .L65
     /tmp/ccKmBXiy.s:1145   .text.Endpoint_Read_Stream_BE:0000000000000088 .L66
     /tmp/ccKmBXiy.s:1084   .text.Endpoint_Read_Stream_BE:0000000000000048 .L67
     /tmp/ccKmBXiy.s:1078   .text.Endpoint_Read_Stream_BE:0000000000000042 .L64
     /tmp/ccKmBXiy.s:1327   .text.Endpoint_Write_PStream_LE:0000000000000068 .L73
     /tmp/ccKmBXiy.s:1273   .text.Endpoint_Write_PStream_LE:0000000000000036 .L75
     /tmp/ccKmBXiy.s:1356   .text.Endpoint_Write_PStream_LE:000000000000008a .L77
     /tmp/ccKmBXiy.s:1344   .text.Endpoint_Write_PStream_LE:000000000000007e .L78
     /tmp/ccKmBXiy.s:1283   .text.Endpoint_Write_PStream_LE:000000000000003e .L79
     /tmp/ccKmBXiy.s:1278   .text.Endpoint_Write_PStream_LE:000000000000003a .L76
     /tmp/ccKmBXiy.s:1551   .text.Endpoint_Write_PStream_BE:0000000000000072 .L85
     /tmp/ccKmBXiy.s:1496   .text.Endpoint_Write_PStream_BE:000000000000003e .L87
     /tmp/ccKmBXiy.s:1580   .text.Endpoint_Write_PStream_BE:0000000000000094 .L89
     /tmp/ccKmBXiy.s:1568   .text.Endpoint_Write_PStream_BE:0000000000000088 .L90
     /tmp/ccKmBXiy.s:1507   .text.Endpoint_Write_PStream_BE:0000000000000048 .L91
     /tmp/ccKmBXiy.s:1501   .text.Endpoint_Write_PStream_BE:0000000000000042 .L88
     /tmp/ccKmBXiy.s:1765   .text.Endpoint_Write_EStream_LE:0000000000000068 .L97
     /tmp/ccKmBXiy.s:1711   .text.Endpoint_Write_EStream_LE:0000000000000036 .L99
     /tmp/ccKmBXiy.s:1794   .text.Endpoint_Write_EStream_LE:000000000000008a .L101
     /tmp/ccKmBXiy.s:1782   .text.Endpoint_Write_EStream_LE:000000000000007e .L102
     /tmp/ccKmBXiy.s:1721   .text.Endpoint_Write_EStream_LE:000000000000003e .L103
     /tmp/ccKmBXiy.s:1716   .text.Endpoint_Write_EStream_LE:000000000000003a .L100
     /tmp/ccKmBXiy.s:1977   .text.Endpoint_Write_EStream_BE:0000000000000072 .L109
     /tmp/ccKmBXiy.s:1922   .text.Endpoint_Write_EStream_BE:000000000000003e .L111
     /tmp/ccKmBXiy.s:2006   .text.Endpoint_Write_EStream_BE:0000000000000094 .L113
     /tmp/ccKmBXiy.s:1994   .text.Endpoint_Write_EStream_BE:0000000000000088 .L114
     /tmp/ccKmBXiy.s:1933   .text.Endpoint_Write_EStream_BE:0000000000000048 .L115
     /tmp/ccKmBXiy.s:1927   .text.Endpoint_Write_EStream_BE:0000000000000042 .L112
     /tmp/ccKmBXiy.s:2179   .text.Endpoint_Read_EStream_LE:0000000000000068 .L121
     /tmp/ccKmBXiy.s:2125   .text.Endpoint_Read_EStream_LE:0000000000000036 .L123
     /tmp/ccKmBXiy.s:2208   .text.Endpoint_Read_EStream_LE:000000000000008a .L125
     /tmp/ccKmBXiy.s:2196   .text.Endpoint_Read_EStream_LE:000000000000007e .L126
     /tmp/ccKmBXiy.s:2135   .text.Endpoint_Read_EStream_LE:000000000000003e .L127
     /tmp/ccKmBXiy.s:2130   .text.Endpoint_Read_EStream_LE:000000000000003a .L124
     /tmp/ccKmBXiy.s:2390   .text.Endpoint_Read_EStream_BE:0000000000000072 .L133
     /tmp/ccKmBXiy.s:2335   .text.Endpoint_Read_EStream_BE:000000000000003e .L135
     /tmp/ccKmBXiy.s:2419   .text.Endpoint_Read_EStream_BE:0000000000000094 .L137
     /tmp/ccKmBXiy.s:2407   .text.Endpoint_Read_EStream_BE:0000000000000088 .L138
     /tmp/ccKmBXiy.s:2346   .text.Endpoint_Read_EStream_BE:0000000000000048 .L139
     /tmp/ccKmBXiy.s:2340   .text.Endpoint_Read_EStream_BE:0000000000000042 .L136
     /tmp/ccKmBXiy.s:2489   .text.Endpoint_Write_Control_Stream_LE:0000000000000018 .L146
     /tmp/ccKmBXiy.s:2519   .text.Endpoint_Write_Control_Stream_LE:000000000000002e .L147
     /tmp/ccKmBXiy.s:2533   .text.Endpoint_Write_Control_Stream_LE:000000000000003a .L157
     /tmp/ccKmBXiy.s:2671   .text.Endpoint_Write_Control_Stream_LE:0000000000000094 .L158
     /tmp/ccKmBXiy.s:2485   .text.Endpoint_Write_Control_Stream_LE:0000000000000016 .L148
     /tmp/ccKmBXiy.s:2714   .text.Endpoint_Write_Control_Stream_LE:00000000000000ac .L162
     /tmp/ccKmBXiy.s:2719   .text.Endpoint_Write_Control_Stream_LE:00000000000000b0 .L163
     /tmp/ccKmBXiy.s:2704   .text.Endpoint_Write_Control_Stream_LE:00000000000000a8 .L164
     /tmp/ccKmBXiy.s:2501   .text.Endpoint_Write_Control_Stream_LE:0000000000000022 .L170
     /tmp/ccKmBXiy.s:2493   .text.Endpoint_Write_Control_Stream_LE:000000000000001a .L152
     /tmp/ccKmBXiy.s:2614   .text.Endpoint_Write_Control_Stream_LE:0000000000000070 .L154
     /tmp/ccKmBXiy.s:2640   .text.Endpoint_Write_Control_Stream_LE:0000000000000086 .L155
     /tmp/ccKmBXiy.s:2622   .text.Endpoint_Write_Control_Stream_LE:000000000000007a .L156
     /tmp/ccKmBXiy.s:2606   .text.Endpoint_Write_Control_Stream_LE:0000000000000066 .L153
     /tmp/ccKmBXiy.s:2767   .text.Endpoint_Write_Control_Stream_BE:000000000000001e .L175
     /tmp/ccKmBXiy.s:2797   .text.Endpoint_Write_Control_Stream_BE:0000000000000036 .L176
     /tmp/ccKmBXiy.s:2813   .text.Endpoint_Write_Control_Stream_BE:0000000000000042 .L186
     /tmp/ccKmBXiy.s:2953   .text.Endpoint_Write_Control_Stream_BE:000000000000009e .L187
     /tmp/ccKmBXiy.s:2763   .text.Endpoint_Write_Control_Stream_BE:000000000000001c .L177
     /tmp/ccKmBXiy.s:2996   .text.Endpoint_Write_Control_Stream_BE:00000000000000b6 .L191
     /tmp/ccKmBXiy.s:3001   .text.Endpoint_Write_Control_Stream_BE:00000000000000ba .L192
     /tmp/ccKmBXiy.s:2986   .text.Endpoint_Write_Control_Stream_BE:00000000000000b2 .L193
     /tmp/ccKmBXiy.s:2779   .text.Endpoint_Write_Control_Stream_BE:000000000000002a .L199
     /tmp/ccKmBXiy.s:2771   .text.Endpoint_Write_Control_Stream_BE:0000000000000020 .L181
     /tmp/ccKmBXiy.s:2895   .text.Endpoint_Write_Control_Stream_BE:000000000000007a .L183
     /tmp/ccKmBXiy.s:2920   .text.Endpoint_Write_Control_Stream_BE:000000000000008e .L184
     /tmp/ccKmBXiy.s:2902   .text.Endpoint_Write_Control_Stream_BE:0000000000000082 .L185
     /tmp/ccKmBXiy.s:2886   .text.Endpoint_Write_Control_Stream_BE:000000000000006e .L182
     /tmp/ccKmBXiy.s:3070   .text.Endpoint_Read_Control_Stream_LE:0000000000000022 .L208
     /tmp/ccKmBXiy.s:3150   .text.Endpoint_Read_Control_Stream_LE:0000000000000058 .L212
     /tmp/ccKmBXiy.s:3184   .text.Endpoint_Read_Control_Stream_LE:000000000000006c .L216
     /tmp/ccKmBXiy.s:3167   .text.Endpoint_Read_Control_Stream_LE:0000000000000064 .L217
     /tmp/ccKmBXiy.s:3178   .text.Endpoint_Read_Control_Stream_LE:0000000000000068 .L215
     /tmp/ccKmBXiy.s:3032   .text.Endpoint_Read_Control_Stream_LE:0000000000000008 .L209
     /tmp/ccKmBXiy.s:3112   .text.Endpoint_Read_Control_Stream_LE:000000000000003e .L207
     /tmp/ccKmBXiy.s:3052   .text.Endpoint_Read_Control_Stream_LE:0000000000000016 .L211
     /tmp/ccKmBXiy.s:3257   .text.Endpoint_Read_Control_Stream_BE:000000000000002a .L228
     /tmp/ccKmBXiy.s:3340   .text.Endpoint_Read_Control_Stream_BE:0000000000000066 .L232
     /tmp/ccKmBXiy.s:3374   .text.Endpoint_Read_Control_Stream_BE:000000000000007a .L236
     /tmp/ccKmBXiy.s:3357   .text.Endpoint_Read_Control_Stream_BE:0000000000000072 .L237
     /tmp/ccKmBXiy.s:3368   .text.Endpoint_Read_Control_Stream_BE:0000000000000076 .L235
     /tmp/ccKmBXiy.s:3219   .text.Endpoint_Read_Control_Stream_BE:000000000000000e .L229
     /tmp/ccKmBXiy.s:3299   .text.Endpoint_Read_Control_Stream_BE:0000000000000046 .L227
     /tmp/ccKmBXiy.s:3239   .text.Endpoint_Read_Control_Stream_BE:000000000000001e .L231
     /tmp/ccKmBXiy.s:3417   .text.Endpoint_Write_Control_PStream_LE:0000000000000018 .L244
     /tmp/ccKmBXiy.s:3447   .text.Endpoint_Write_Control_PStream_LE:000000000000002e .L245
     /tmp/ccKmBXiy.s:3461   .text.Endpoint_Write_Control_PStream_LE:000000000000003a .L255
     /tmp/ccKmBXiy.s:3613   .text.Endpoint_Write_Control_PStream_LE:0000000000000096 .L256
     /tmp/ccKmBXiy.s:3413   .text.Endpoint_Write_Control_PStream_LE:0000000000000016 .L246
     /tmp/ccKmBXiy.s:3656   .text.Endpoint_Write_Control_PStream_LE:00000000000000ae .L260
     /tmp/ccKmBXiy.s:3661   .text.Endpoint_Write_Control_PStream_LE:00000000000000b2 .L261
     /tmp/ccKmBXiy.s:3646   .text.Endpoint_Write_Control_PStream_LE:00000000000000aa .L262
     /tmp/ccKmBXiy.s:3429   .text.Endpoint_Write_Control_PStream_LE:0000000000000022 .L268
     /tmp/ccKmBXiy.s:3421   .text.Endpoint_Write_Control_PStream_LE:000000000000001a .L250
     /tmp/ccKmBXiy.s:3542   .text.Endpoint_Write_Control_PStream_LE:0000000000000070 .L252
     /tmp/ccKmBXiy.s:3568   .text.Endpoint_Write_Control_PStream_LE:0000000000000086 .L253
     /tmp/ccKmBXiy.s:3550   .text.Endpoint_Write_Control_PStream_LE:000000000000007a .L254
     /tmp/ccKmBXiy.s:3534   .text.Endpoint_Write_Control_PStream_LE:0000000000000066 .L251
     /tmp/ccKmBXiy.s:3709   .text.Endpoint_Write_Control_PStream_BE:000000000000001e .L273
     /tmp/ccKmBXiy.s:3739   .text.Endpoint_Write_Control_PStream_BE:0000000000000036 .L274
     /tmp/ccKmBXiy.s:3755   .text.Endpoint_Write_Control_PStream_BE:0000000000000042 .L284
     /tmp/ccKmBXiy.s:3907   .text.Endpoint_Write_Control_PStream_BE:000000000000009e .L285
     /tmp/ccKmBXiy.s:3705   .text.Endpoint_Write_Control_PStream_BE:000000000000001c .L275
     /tmp/ccKmBXiy.s:3950   .text.Endpoint_Write_Control_PStream_BE:00000000000000b6 .L289
     /tmp/ccKmBXiy.s:3955   .text.Endpoint_Write_Control_PStream_BE:00000000000000ba .L290
     /tmp/ccKmBXiy.s:3940   .text.Endpoint_Write_Control_PStream_BE:00000000000000b2 .L291
     /tmp/ccKmBXiy.s:3721   .text.Endpoint_Write_Control_PStream_BE:000000000000002a .L297
     /tmp/ccKmBXiy.s:3713   .text.Endpoint_Write_Control_PStream_BE:0000000000000020 .L279
     /tmp/ccKmBXiy.s:3837   .text.Endpoint_Write_Control_PStream_BE:000000000000007a .L281
     /tmp/ccKmBXiy.s:3862   .text.Endpoint_Write_Control_PStream_BE:000000000000008e .L282
     /tmp/ccKmBXiy.s:3844   .text.Endpoint_Write_Control_PStream_BE:0000000000000082 .L283
     /tmp/ccKmBXiy.s:3828   .text.Endpoint_Write_Control_PStream_BE:000000000000006e .L280
     /tmp/ccKmBXiy.s:4020   .text.Endpoint_Write_Control_EStream_LE:0000000000000024 .L302
     /tmp/ccKmBXiy.s:4063   .text.Endpoint_Write_Control_EStream_LE:0000000000000046 .L303
     /tmp/ccKmBXiy.s:4077   .text.Endpoint_Write_Control_EStream_LE:0000000000000052 .L313
     /tmp/ccKmBXiy.s:4220   .text.Endpoint_Write_Control_EStream_LE:00000000000000ba .L314
     /tmp/ccKmBXiy.s:4017   .text.Endpoint_Write_Control_EStream_LE:0000000000000022 .L304
     /tmp/ccKmBXiy.s:4260   .text.Endpoint_Write_Control_EStream_LE:00000000000000d2 .L318
     /tmp/ccKmBXiy.s:4264   .text.Endpoint_Write_Control_EStream_LE:00000000000000d6 .L319
     /tmp/ccKmBXiy.s:4253   .text.Endpoint_Write_Control_EStream_LE:00000000000000ce .L320
     /tmp/ccKmBXiy.s:4032   .text.Endpoint_Write_Control_EStream_LE:000000000000002e .L326
     /tmp/ccKmBXiy.s:4024   .text.Endpoint_Write_Control_EStream_LE:0000000000000026 .L308
     /tmp/ccKmBXiy.s:4159   .text.Endpoint_Write_Control_EStream_LE:000000000000008a .L310
     /tmp/ccKmBXiy.s:4184   .text.Endpoint_Write_Control_EStream_LE:00000000000000a2 .L311
     /tmp/ccKmBXiy.s:4168   .text.Endpoint_Write_Control_EStream_LE:0000000000000096 .L312
     /tmp/ccKmBXiy.s:4150   .text.Endpoint_Write_Control_EStream_LE:000000000000007e .L309
     /tmp/ccKmBXiy.s:4048   .text.Endpoint_Write_Control_EStream_LE:0000000000000038 .L301
     /tmp/ccKmBXiy.s:4337   .text.Endpoint_Write_Control_EStream_BE:000000000000002c .L331
     /tmp/ccKmBXiy.s:4380   .text.Endpoint_Write_Control_EStream_BE:000000000000004e .L332
     /tmp/ccKmBXiy.s:4396   .text.Endpoint_Write_Control_EStream_BE:000000000000005a .L342
     /tmp/ccKmBXiy.s:4539   .text.Endpoint_Write_Control_EStream_BE:00000000000000c2 .L343
     /tmp/ccKmBXiy.s:4333   .text.Endpoint_Write_Control_EStream_BE:000000000000002a .L333
     /tmp/ccKmBXiy.s:4579   .text.Endpoint_Write_Control_EStream_BE:00000000000000da .L347
     /tmp/ccKmBXiy.s:4583   .text.Endpoint_Write_Control_EStream_BE:00000000000000de .L348
     /tmp/ccKmBXiy.s:4572   .text.Endpoint_Write_Control_EStream_BE:00000000000000d6 .L349
     /tmp/ccKmBXiy.s:4349   .text.Endpoint_Write_Control_EStream_BE:0000000000000036 .L355
     /tmp/ccKmBXiy.s:4341   .text.Endpoint_Write_Control_EStream_BE:000000000000002e .L337
     /tmp/ccKmBXiy.s:4478   .text.Endpoint_Write_Control_EStream_BE:0000000000000092 .L339
     /tmp/ccKmBXiy.s:4503   .text.Endpoint_Write_Control_EStream_BE:00000000000000aa .L340
     /tmp/ccKmBXiy.s:4487   .text.Endpoint_Write_Control_EStream_BE:000000000000009e .L341
     /tmp/ccKmBXiy.s:4469   .text.Endpoint_Write_Control_EStream_BE:0000000000000086 .L338
     /tmp/ccKmBXiy.s:4365   .text.Endpoint_Write_Control_EStream_BE:0000000000000040 .L330
     /tmp/ccKmBXiy.s:4673   .text.Endpoint_Read_Control_EStream_LE:0000000000000032 .L364
     /tmp/ccKmBXiy.s:4757   .text.Endpoint_Read_Control_EStream_LE:0000000000000070 .L368
     /tmp/ccKmBXiy.s:4787   .text.Endpoint_Read_Control_EStream_LE:0000000000000084 .L372
     /tmp/ccKmBXiy.s:4774   .text.Endpoint_Read_Control_EStream_LE:000000000000007c .L373
     /tmp/ccKmBXiy.s:4782   .text.Endpoint_Read_Control_EStream_LE:0000000000000080 .L371
     /tmp/ccKmBXiy.s:4629   .text.Endpoint_Read_Control_EStream_LE:0000000000000010 .L365
     /tmp/ccKmBXiy.s:4715   .text.Endpoint_Read_Control_EStream_LE:000000000000004e .L363
     /tmp/ccKmBXiy.s:4648   .text.Endpoint_Read_Control_EStream_LE:000000000000001e .L367
     /tmp/ccKmBXiy.s:4665   .text.Endpoint_Read_Control_EStream_LE:0000000000000028 .L359
     /tmp/ccKmBXiy.s:4883   .text.Endpoint_Read_Control_EStream_BE:000000000000003a .L384
     /tmp/ccKmBXiy.s:4967   .text.Endpoint_Read_Control_EStream_BE:0000000000000078 .L388
     /tmp/ccKmBXiy.s:4997   .text.Endpoint_Read_Control_EStream_BE:000000000000008c .L392
     /tmp/ccKmBXiy.s:4984   .text.Endpoint_Read_Control_EStream_BE:0000000000000084 .L393
     /tmp/ccKmBXiy.s:4992   .text.Endpoint_Read_Control_EStream_BE:0000000000000088 .L391
     /tmp/ccKmBXiy.s:4839   .text.Endpoint_Read_Control_EStream_BE:0000000000000018 .L385
     /tmp/ccKmBXiy.s:4925   .text.Endpoint_Read_Control_EStream_BE:0000000000000056 .L383
     /tmp/ccKmBXiy.s:4858   .text.Endpoint_Read_Control_EStream_BE:0000000000000026 .L387
     /tmp/ccKmBXiy.s:4875   .text.Endpoint_Read_Control_EStream_BE:0000000000000030 .L379
     /tmp/ccKmBXiy.s:8251   .debug_abbrev:0000000000000000 .Ldebug_abbrev0
     /tmp/ccKmBXiy.s:14506  .debug_ranges:0000000000000000 .Ldebug_ranges0
     /tmp/ccKmBXiy.s:14634  .debug_line:0000000000000000 .Ldebug_line0
     /tmp/ccKmBXiy.s:4800   .text.Endpoint_Read_Control_EStream_BE:0000000000000000 .LFB110
     /tmp/ccKmBXiy.s:5003   .text.Endpoint_Read_Control_EStream_BE:0000000000000090 .LFE110
     /tmp/ccKmBXiy.s:8833   .debug_loc:0000000000000000 .LLST161
     /tmp/ccKmBXiy.s:8871   .debug_loc:000000000000004d .LLST162
     /tmp/ccKmBXiy.s:8866   .debug_loc:0000000000000049 .LVUS162
     /tmp/ccKmBXiy.s:8897   .debug_loc:0000000000000079 .LLST163
     /tmp/ccKmBXiy.s:8890   .debug_loc:0000000000000073 .LVUS163
     /tmp/ccKmBXiy.s:8932   .debug_loc:00000000000000b5 .LLST164
     /tmp/ccKmBXiy.s:8927   .debug_loc:00000000000000b1 .LVUS164
     /tmp/ccKmBXiy.s:8956   .debug_loc:00000000000000df .LLST165
     /tmp/ccKmBXiy.s:8953   .debug_loc:00000000000000dd .LVUS165
     /tmp/ccKmBXiy.s:4843   .text.Endpoint_Read_Control_EStream_BE:0000000000000018 .LBI531
     /tmp/ccKmBXiy.s:4842   .text.Endpoint_Read_Control_EStream_BE:0000000000000018 .LBB531
     /tmp/ccKmBXiy.s:4853   .text.Endpoint_Read_Control_EStream_BE:0000000000000022 .LBE531
     /tmp/ccKmBXiy.s:4899   .text.Endpoint_Read_Control_EStream_BE:0000000000000046 .LBI533
     /tmp/ccKmBXiy.s:4898   .text.Endpoint_Read_Control_EStream_BE:0000000000000046 .LBB533
     /tmp/ccKmBXiy.s:4908   .text.Endpoint_Read_Control_EStream_BE:000000000000004a .LBE533
     /tmp/ccKmBXiy.s:4914   .text.Endpoint_Read_Control_EStream_BE:000000000000004e .LBI535
     /tmp/ccKmBXiy.s:4913   .text.Endpoint_Read_Control_EStream_BE:000000000000004e .LBB535
     /tmp/ccKmBXiy.s:4921   .text.Endpoint_Read_Control_EStream_BE:0000000000000052 .LBE535
     /tmp/ccKmBXiy.s:4928   .text.Endpoint_Read_Control_EStream_BE:0000000000000056 .LBI537
     /tmp/ccKmBXiy.s:4927   .text.Endpoint_Read_Control_EStream_BE:0000000000000056 .LBB537
     /tmp/ccKmBXiy.s:4936   .text.Endpoint_Read_Control_EStream_BE:000000000000005e .LBE537
     /tmp/ccKmBXiy.s:4942   .text.Endpoint_Read_Control_EStream_BE:0000000000000062 .LBI539
     /tmp/ccKmBXiy.s:4941   .text.Endpoint_Read_Control_EStream_BE:0000000000000062 .LBB539
     /tmp/ccKmBXiy.s:4949   .text.Endpoint_Read_Control_EStream_BE:0000000000000066 .LBE539
     /tmp/ccKmBXiy.s:4953   .text.Endpoint_Read_Control_EStream_BE:000000000000006c .LVL400
     /tmp/ccKmBXiy.s:4970   .text.Endpoint_Read_Control_EStream_BE:0000000000000078 .LBB544
     /tmp/ccKmBXiy.s:4986   .text.Endpoint_Read_Control_EStream_BE:0000000000000084 .LBE544
     /tmp/ccKmBXiy.s:8966   .debug_loc:00000000000000f4 .LLST166
     /tmp/ccKmBXiy.s:8963   .debug_loc:00000000000000f2 .LVUS166
     /tmp/ccKmBXiy.s:4861   .text.Endpoint_Read_Control_EStream_BE:0000000000000026 .LBI541
     /tmp/ccKmBXiy.s:4860   .text.Endpoint_Read_Control_EStream_BE:0000000000000026 .LBB541
     /tmp/ccKmBXiy.s:4868   .text.Endpoint_Read_Control_EStream_BE:000000000000002a .LBE541
     /tmp/ccKmBXiy.s:4596   .text.Endpoint_Read_Control_EStream_LE:0000000000000000 .LFB109
     /tmp/ccKmBXiy.s:4793   .text.Endpoint_Read_Control_EStream_LE:0000000000000088 .LFE109
     /tmp/ccKmBXiy.s:8973   .debug_loc:0000000000000107 .LLST155
     /tmp/ccKmBXiy.s:9011   .debug_loc:0000000000000154 .LLST156
     /tmp/ccKmBXiy.s:9006   .debug_loc:0000000000000150 .LVUS156
     /tmp/ccKmBXiy.s:9037   .debug_loc:0000000000000180 .LLST157
     /tmp/ccKmBXiy.s:9030   .debug_loc:000000000000017a .LVUS157
     /tmp/ccKmBXiy.s:9074   .debug_loc:00000000000001be .LLST158
     /tmp/ccKmBXiy.s:9067   .debug_loc:00000000000001b8 .LVUS158
     /tmp/ccKmBXiy.s:9107   .debug_loc:00000000000001f8 .LLST159
     /tmp/ccKmBXiy.s:9104   .debug_loc:00000000000001f6 .LVUS159
     /tmp/ccKmBXiy.s:4633   .text.Endpoint_Read_Control_EStream_LE:0000000000000010 .LBI515
     /tmp/ccKmBXiy.s:4632   .text.Endpoint_Read_Control_EStream_LE:0000000000000010 .LBB515
     /tmp/ccKmBXiy.s:4643   .text.Endpoint_Read_Control_EStream_LE:000000000000001a .LBE515
     /tmp/ccKmBXiy.s:4689   .text.Endpoint_Read_Control_EStream_LE:000000000000003e .LBI517
     /tmp/ccKmBXiy.s:4688   .text.Endpoint_Read_Control_EStream_LE:000000000000003e .LBB517
     /tmp/ccKmBXiy.s:4698   .text.Endpoint_Read_Control_EStream_LE:0000000000000042 .LBE517
     /tmp/ccKmBXiy.s:4704   .text.Endpoint_Read_Control_EStream_LE:0000000000000046 .LBI519
     /tmp/ccKmBXiy.s:4703   .text.Endpoint_Read_Control_EStream_LE:0000000000000046 .LBB519
     /tmp/ccKmBXiy.s:4711   .text.Endpoint_Read_Control_EStream_LE:000000000000004a .LBE519
     /tmp/ccKmBXiy.s:4718   .text.Endpoint_Read_Control_EStream_LE:000000000000004e .LBI521
     /tmp/ccKmBXiy.s:4717   .text.Endpoint_Read_Control_EStream_LE:000000000000004e .LBB521
     /tmp/ccKmBXiy.s:4726   .text.Endpoint_Read_Control_EStream_LE:0000000000000056 .LBE521
     /tmp/ccKmBXiy.s:4732   .text.Endpoint_Read_Control_EStream_LE:000000000000005a .LBI523
     /tmp/ccKmBXiy.s:4731   .text.Endpoint_Read_Control_EStream_LE:000000000000005a .LBB523
     /tmp/ccKmBXiy.s:4739   .text.Endpoint_Read_Control_EStream_LE:000000000000005e .LBE523
     /tmp/ccKmBXiy.s:4743   .text.Endpoint_Read_Control_EStream_LE:0000000000000064 .LVL385
     /tmp/ccKmBXiy.s:4760   .text.Endpoint_Read_Control_EStream_LE:0000000000000070 .LBB528
     /tmp/ccKmBXiy.s:4776   .text.Endpoint_Read_Control_EStream_LE:000000000000007c .LBE528
     /tmp/ccKmBXiy.s:9117   .debug_loc:000000000000020d .LLST160
     /tmp/ccKmBXiy.s:9114   .debug_loc:000000000000020b .LVUS160
     /tmp/ccKmBXiy.s:4651   .text.Endpoint_Read_Control_EStream_LE:000000000000001e .LBI525
     /tmp/ccKmBXiy.s:4650   .text.Endpoint_Read_Control_EStream_LE:000000000000001e .LBB525
     /tmp/ccKmBXiy.s:4658   .text.Endpoint_Read_Control_EStream_LE:0000000000000022 .LBE525
     /tmp/ccKmBXiy.s:4277   .text.Endpoint_Write_Control_EStream_BE:0000000000000000 .LFB108
     /tmp/ccKmBXiy.s:4589   .text.Endpoint_Write_Control_EStream_BE:00000000000000e2 .LFE108
     /tmp/ccKmBXiy.s:9124   .debug_loc:0000000000000220 .LLST146
     /tmp/ccKmBXiy.s:9178   .debug_loc:000000000000028b .LLST147
     /tmp/ccKmBXiy.s:9169   .debug_loc:0000000000000283 .LVUS147
     /tmp/ccKmBXiy.s:9226   .debug_loc:00000000000002db .LLST148
     /tmp/ccKmBXiy.s:9213   .debug_loc:00000000000002cf .LVUS148
     /tmp/ccKmBXiy.s:9288   .debug_loc:0000000000000347 .LLST149
     /tmp/ccKmBXiy.s:9283   .debug_loc:0000000000000343 .LVUS149
     /tmp/ccKmBXiy.s:9320   .debug_loc:0000000000000379 .LLST150
     /tmp/ccKmBXiy.s:9309   .debug_loc:000000000000036f .LVUS150
     /tmp/ccKmBXiy.s:9348   .debug_loc:00000000000003bc .LLST151
     /tmp/ccKmBXiy.s:9345   .debug_loc:00000000000003ba .LVUS151
     /tmp/ccKmBXiy.s:4454   .text.Endpoint_Write_Control_EStream_BE:000000000000007e .LBB503
     /tmp/ccKmBXiy.s:4541   .text.Endpoint_Write_Control_EStream_BE:00000000000000c2 .LBE503
     /tmp/ccKmBXiy.s:9358   .debug_loc:00000000000003d1 .LLST152
     /tmp/ccKmBXiy.s:9355   .debug_loc:00000000000003cf .LVUS152
     /tmp/ccKmBXiy.s:4457   .text.Endpoint_Write_Control_EStream_BE:000000000000007e .LBI504
     /tmp/ccKmBXiy.s:4456   .text.Endpoint_Write_Control_EStream_BE:000000000000007e .LBB504
     /tmp/ccKmBXiy.s:4467   .text.Endpoint_Write_Control_EStream_BE:0000000000000086 .LBE504
     /tmp/ccKmBXiy.s:4491   .text.Endpoint_Write_Control_EStream_BE:000000000000009e .LBI506
     /tmp/ccKmBXiy.s:4490   .text.Endpoint_Write_Control_EStream_BE:000000000000009e .LBB506
     /tmp/ccKmBXiy.s:4506   .text.Endpoint_Write_Control_EStream_BE:00000000000000aa .LBE506
     /tmp/ccKmBXiy.s:4512   .text.Endpoint_Write_Control_EStream_BE:00000000000000b0 .LBI508
     /tmp/ccKmBXiy.s:4511   .text.Endpoint_Write_Control_EStream_BE:00000000000000b0 .LBB508
     /tmp/ccKmBXiy.s:4521   .text.Endpoint_Write_Control_EStream_BE:00000000000000b4 .LBE508
     /tmp/ccKmBXiy.s:9373   .debug_loc:00000000000003eb .LLST153
     /tmp/ccKmBXiy.s:9370   .debug_loc:00000000000003e9 .LVUS153
     /tmp/ccKmBXiy.s:4510   .text.Endpoint_Write_Control_EStream_BE:00000000000000b0 .LVL369
     /tmp/ccKmBXiy.s:4415   .text.Endpoint_Write_Control_EStream_BE:0000000000000066 .LBI497
     /tmp/ccKmBXiy.s:4414   .text.Endpoint_Write_Control_EStream_BE:0000000000000066 .LBB497
     /tmp/ccKmBXiy.s:4424   .text.Endpoint_Write_Control_EStream_BE:000000000000006a .LBE497
     /tmp/ccKmBXiy.s:4430   .text.Endpoint_Write_Control_EStream_BE:000000000000006e .LBI499
     /tmp/ccKmBXiy.s:4429   .text.Endpoint_Write_Control_EStream_BE:000000000000006e .LBB499
     /tmp/ccKmBXiy.s:4437   .text.Endpoint_Write_Control_EStream_BE:0000000000000072 .LBE499
     /tmp/ccKmBXiy.s:4443   .text.Endpoint_Write_Control_EStream_BE:0000000000000076 .LBI501
     /tmp/ccKmBXiy.s:4442   .text.Endpoint_Write_Control_EStream_BE:0000000000000076 .LBB501
     /tmp/ccKmBXiy.s:4450   .text.Endpoint_Write_Control_EStream_BE:000000000000007a .LBE501
     /tmp/ccKmBXiy.s:4543   .text.Endpoint_Write_Control_EStream_BE:00000000000000c2 .LBB510
     /tmp/ccKmBXiy.s:4574   .text.Endpoint_Write_Control_EStream_BE:00000000000000d6 .LBE510
     /tmp/ccKmBXiy.s:9383   .debug_loc:0000000000000400 .LLST154
     /tmp/ccKmBXiy.s:9380   .debug_loc:00000000000003fe .LVUS154
     /tmp/ccKmBXiy.s:4558   .text.Endpoint_Write_Control_EStream_BE:00000000000000ce .LBI511
     /tmp/ccKmBXiy.s:4557   .text.Endpoint_Write_Control_EStream_BE:00000000000000ce .LBB511
     /tmp/ccKmBXiy.s:4567   .text.Endpoint_Write_Control_EStream_BE:00000000000000d2 .LBE511
     /tmp/ccKmBXiy.s:4352   .text.Endpoint_Write_Control_EStream_BE:0000000000000036 .LBI492
     /tmp/ccKmBXiy.s:4351   .text.Endpoint_Write_Control_EStream_BE:0000000000000036 .LBB492
     /tmp/ccKmBXiy.s:4359   .text.Endpoint_Write_Control_EStream_BE:000000000000003a .LBE492
     /tmp/ccKmBXiy.s:4383   .text.Endpoint_Write_Control_EStream_BE:000000000000004e .LBI494
     /tmp/ccKmBXiy.s:4382   .text.Endpoint_Write_Control_EStream_BE:000000000000004e .LBB494
     /tmp/ccKmBXiy.s:4399   .text.Endpoint_Write_Control_EStream_BE:000000000000005a .LBE494
     /tmp/ccKmBXiy.s:3968   .text.Endpoint_Write_Control_EStream_LE:0000000000000000 .LFB107
     /tmp/ccKmBXiy.s:4270   .text.Endpoint_Write_Control_EStream_LE:00000000000000da .LFE107
     /tmp/ccKmBXiy.s:9390   .debug_loc:0000000000000413 .LLST137
     /tmp/ccKmBXiy.s:9446   .debug_loc:0000000000000480 .LLST138
     /tmp/ccKmBXiy.s:9435   .debug_loc:0000000000000476 .LVUS138
     /tmp/ccKmBXiy.s:9501   .debug_loc:00000000000004de .LLST139
     /tmp/ccKmBXiy.s:9490   .debug_loc:00000000000004d4 .LVUS139
     /tmp/ccKmBXiy.s:9554   .debug_loc:000000000000053a .LLST140
     /tmp/ccKmBXiy.s:9549   .debug_loc:0000000000000536 .LVUS140
     /tmp/ccKmBXiy.s:9586   .debug_loc:000000000000056c .LLST141
     /tmp/ccKmBXiy.s:9575   .debug_loc:0000000000000562 .LVUS141
     /tmp/ccKmBXiy.s:9614   .debug_loc:00000000000005af .LLST142
     /tmp/ccKmBXiy.s:9611   .debug_loc:00000000000005ad .LVUS142
     /tmp/ccKmBXiy.s:4135   .text.Endpoint_Write_Control_EStream_LE:0000000000000076 .LBB481
     /tmp/ccKmBXiy.s:4222   .text.Endpoint_Write_Control_EStream_LE:00000000000000ba .LBE481
     /tmp/ccKmBXiy.s:9624   .debug_loc:00000000000005c4 .LLST143
     /tmp/ccKmBXiy.s:9621   .debug_loc:00000000000005c2 .LVUS143
     /tmp/ccKmBXiy.s:4138   .text.Endpoint_Write_Control_EStream_LE:0000000000000076 .LBI482
     /tmp/ccKmBXiy.s:4137   .text.Endpoint_Write_Control_EStream_LE:0000000000000076 .LBB482
     /tmp/ccKmBXiy.s:4148   .text.Endpoint_Write_Control_EStream_LE:000000000000007e .LBE482
     /tmp/ccKmBXiy.s:4172   .text.Endpoint_Write_Control_EStream_LE:0000000000000096 .LBI484
     /tmp/ccKmBXiy.s:4171   .text.Endpoint_Write_Control_EStream_LE:0000000000000096 .LBB484
     /tmp/ccKmBXiy.s:4187   .text.Endpoint_Write_Control_EStream_LE:00000000000000a2 .LBE484
     /tmp/ccKmBXiy.s:4193   .text.Endpoint_Write_Control_EStream_LE:00000000000000a8 .LBI486
     /tmp/ccKmBXiy.s:4192   .text.Endpoint_Write_Control_EStream_LE:00000000000000a8 .LBB486
     /tmp/ccKmBXiy.s:4202   .text.Endpoint_Write_Control_EStream_LE:00000000000000ac .LBE486
     /tmp/ccKmBXiy.s:9639   .debug_loc:00000000000005de .LLST144
     /tmp/ccKmBXiy.s:9636   .debug_loc:00000000000005dc .LVUS144
     /tmp/ccKmBXiy.s:4191   .text.Endpoint_Write_Control_EStream_LE:00000000000000a8 .LVL343
     /tmp/ccKmBXiy.s:4096   .text.Endpoint_Write_Control_EStream_LE:000000000000005e .LBI475
     /tmp/ccKmBXiy.s:4095   .text.Endpoint_Write_Control_EStream_LE:000000000000005e .LBB475
     /tmp/ccKmBXiy.s:4105   .text.Endpoint_Write_Control_EStream_LE:0000000000000062 .LBE475
     /tmp/ccKmBXiy.s:4111   .text.Endpoint_Write_Control_EStream_LE:0000000000000066 .LBI477
     /tmp/ccKmBXiy.s:4110   .text.Endpoint_Write_Control_EStream_LE:0000000000000066 .LBB477
     /tmp/ccKmBXiy.s:4118   .text.Endpoint_Write_Control_EStream_LE:000000000000006a .LBE477
     /tmp/ccKmBXiy.s:4124   .text.Endpoint_Write_Control_EStream_LE:000000000000006e .LBI479
     /tmp/ccKmBXiy.s:4123   .text.Endpoint_Write_Control_EStream_LE:000000000000006e .LBB479
     /tmp/ccKmBXiy.s:4131   .text.Endpoint_Write_Control_EStream_LE:0000000000000072 .LBE479
     /tmp/ccKmBXiy.s:4224   .text.Endpoint_Write_Control_EStream_LE:00000000000000ba .LBB488
     /tmp/ccKmBXiy.s:4255   .text.Endpoint_Write_Control_EStream_LE:00000000000000ce .LBE488
     /tmp/ccKmBXiy.s:9649   .debug_loc:00000000000005f3 .LLST145
     /tmp/ccKmBXiy.s:9646   .debug_loc:00000000000005f1 .LVUS145
     /tmp/ccKmBXiy.s:4239   .text.Endpoint_Write_Control_EStream_LE:00000000000000c6 .LBI489
     /tmp/ccKmBXiy.s:4238   .text.Endpoint_Write_Control_EStream_LE:00000000000000c6 .LBB489
     /tmp/ccKmBXiy.s:4248   .text.Endpoint_Write_Control_EStream_LE:00000000000000ca .LBE489
     /tmp/ccKmBXiy.s:4035   .text.Endpoint_Write_Control_EStream_LE:000000000000002e .LBI470
     /tmp/ccKmBXiy.s:4034   .text.Endpoint_Write_Control_EStream_LE:000000000000002e .LBB470
     /tmp/ccKmBXiy.s:4042   .text.Endpoint_Write_Control_EStream_LE:0000000000000032 .LBE470
     /tmp/ccKmBXiy.s:4066   .text.Endpoint_Write_Control_EStream_LE:0000000000000046 .LBI472
     /tmp/ccKmBXiy.s:4065   .text.Endpoint_Write_Control_EStream_LE:0000000000000046 .LBB472
     /tmp/ccKmBXiy.s:4080   .text.Endpoint_Write_Control_EStream_LE:0000000000000052 .LBE472
     /tmp/ccKmBXiy.s:3674   .text.Endpoint_Write_Control_PStream_BE:0000000000000000 .LFB106
     /tmp/ccKmBXiy.s:3961   .text.Endpoint_Write_Control_PStream_BE:00000000000000be .LFE106
     /tmp/ccKmBXiy.s:9665   .debug_loc:000000000000060e .LLST127
     /tmp/ccKmBXiy.s:9656   .debug_loc:0000000000000606 .LVUS127
     /tmp/ccKmBXiy.s:9713   .debug_loc:000000000000065e .LLST128
     /tmp/ccKmBXiy.s:9700   .debug_loc:0000000000000652 .LVUS128
     /tmp/ccKmBXiy.s:9773   .debug_loc:00000000000006c8 .LLST129
     /tmp/ccKmBXiy.s:9770   .debug_loc:00000000000006c6 .LVUS129
     /tmp/ccKmBXiy.s:9798   .debug_loc:00000000000006ec .LLST130
     /tmp/ccKmBXiy.s:9785   .debug_loc:00000000000006e0 .LVUS130
     /tmp/ccKmBXiy.s:9830   .debug_loc:000000000000073a .LLST131
     /tmp/ccKmBXiy.s:9827   .debug_loc:0000000000000738 .LVUS131
     /tmp/ccKmBXiy.s:3813   .text.Endpoint_Write_Control_PStream_BE:0000000000000066 .LBB457
     /tmp/ccKmBXiy.s:3909   .text.Endpoint_Write_Control_PStream_BE:000000000000009e .LBE457
     /tmp/ccKmBXiy.s:9842   .debug_loc:0000000000000751 .LLST132
     /tmp/ccKmBXiy.s:9837   .debug_loc:000000000000074d .LVUS132
     /tmp/ccKmBXiy.s:3867   .text.Endpoint_Write_Control_PStream_BE:000000000000008e .LBB462
     /tmp/ccKmBXiy.s:3880   .text.Endpoint_Write_Control_PStream_BE:0000000000000090 .LBE462
     /tmp/ccKmBXiy.s:9868   .debug_loc:000000000000077d .LLST133
     /tmp/ccKmBXiy.s:9863   .debug_loc:0000000000000779 .LVUS133
     /tmp/ccKmBXiy.s:9889   .debug_loc:00000000000007a4 .LLST134
     /tmp/ccKmBXiy.s:9886   .debug_loc:00000000000007a2 .LVUS134
     /tmp/ccKmBXiy.s:3816   .text.Endpoint_Write_Control_PStream_BE:0000000000000066 .LBI458
     /tmp/ccKmBXiy.s:3815   .text.Endpoint_Write_Control_PStream_BE:0000000000000066 .LBB458
     /tmp/ccKmBXiy.s:3826   .text.Endpoint_Write_Control_PStream_BE:000000000000006e .LBE458
     /tmp/ccKmBXiy.s:3848   .text.Endpoint_Write_Control_PStream_BE:0000000000000082 .LBI460
     /tmp/ccKmBXiy.s:3847   .text.Endpoint_Write_Control_PStream_BE:0000000000000082 .LBB460
     /tmp/ccKmBXiy.s:3865   .text.Endpoint_Write_Control_PStream_BE:000000000000008e .LBE460
     /tmp/ccKmBXiy.s:3882   .text.Endpoint_Write_Control_PStream_BE:0000000000000090 .LBI463
     /tmp/ccKmBXiy.s:3881   .text.Endpoint_Write_Control_PStream_BE:0000000000000090 .LBB463
     /tmp/ccKmBXiy.s:3891   .text.Endpoint_Write_Control_PStream_BE:0000000000000094 .LBE463
     /tmp/ccKmBXiy.s:9899   .debug_loc:00000000000007b9 .LLST135
     /tmp/ccKmBXiy.s:9896   .debug_loc:00000000000007b7 .LVUS135
     /tmp/ccKmBXiy.s:3774   .text.Endpoint_Write_Control_PStream_BE:000000000000004e .LBI451
     /tmp/ccKmBXiy.s:3773   .text.Endpoint_Write_Control_PStream_BE:000000000000004e .LBB451
     /tmp/ccKmBXiy.s:3783   .text.Endpoint_Write_Control_PStream_BE:0000000000000052 .LBE451
     /tmp/ccKmBXiy.s:3789   .text.Endpoint_Write_Control_PStream_BE:0000000000000056 .LBI453
     /tmp/ccKmBXiy.s:3788   .text.Endpoint_Write_Control_PStream_BE:0000000000000056 .LBB453
     /tmp/ccKmBXiy.s:3796   .text.Endpoint_Write_Control_PStream_BE:000000000000005a .LBE453
     /tmp/ccKmBXiy.s:3802   .text.Endpoint_Write_Control_PStream_BE:000000000000005e .LBI455
     /tmp/ccKmBXiy.s:3801   .text.Endpoint_Write_Control_PStream_BE:000000000000005e .LBB455
     /tmp/ccKmBXiy.s:3809   .text.Endpoint_Write_Control_PStream_BE:0000000000000062 .LBE455
     /tmp/ccKmBXiy.s:3911   .text.Endpoint_Write_Control_PStream_BE:000000000000009e .LBB465
     /tmp/ccKmBXiy.s:3942   .text.Endpoint_Write_Control_PStream_BE:00000000000000b2 .LBE465
     /tmp/ccKmBXiy.s:9909   .debug_loc:00000000000007ce .LLST136
     /tmp/ccKmBXiy.s:9906   .debug_loc:00000000000007cc .LVUS136
     /tmp/ccKmBXiy.s:3926   .text.Endpoint_Write_Control_PStream_BE:00000000000000aa .LBI466
     /tmp/ccKmBXiy.s:3925   .text.Endpoint_Write_Control_PStream_BE:00000000000000aa .LBB466
     /tmp/ccKmBXiy.s:3935   .text.Endpoint_Write_Control_PStream_BE:00000000000000ae .LBE466
     /tmp/ccKmBXiy.s:3724   .text.Endpoint_Write_Control_PStream_BE:000000000000002a .LBI446
     /tmp/ccKmBXiy.s:3723   .text.Endpoint_Write_Control_PStream_BE:000000000000002a .LBB446
     /tmp/ccKmBXiy.s:3731   .text.Endpoint_Write_Control_PStream_BE:000000000000002e .LBE446
     /tmp/ccKmBXiy.s:3742   .text.Endpoint_Write_Control_PStream_BE:0000000000000036 .LBI448
     /tmp/ccKmBXiy.s:3741   .text.Endpoint_Write_Control_PStream_BE:0000000000000036 .LBB448
     /tmp/ccKmBXiy.s:3758   .text.Endpoint_Write_Control_PStream_BE:0000000000000042 .LBE448
     /tmp/ccKmBXiy.s:3387   .text.Endpoint_Write_Control_PStream_LE:0000000000000000 .LFB105
     /tmp/ccKmBXiy.s:3667   .text.Endpoint_Write_Control_PStream_LE:00000000000000b6 .LFE105
     /tmp/ccKmBXiy.s:9927   .debug_loc:00000000000007eb .LLST117
     /tmp/ccKmBXiy.s:9916   .debug_loc:00000000000007e1 .LVUS117
     /tmp/ccKmBXiy.s:9984   .debug_loc:000000000000084b .LLST118
     /tmp/ccKmBXiy.s:9971   .debug_loc:000000000000083f .LVUS118
     /tmp/ccKmBXiy.s:10046  .debug_loc:00000000000008b7 .LLST119
     /tmp/ccKmBXiy.s:10041  .debug_loc:00000000000008b3 .LVUS119
     /tmp/ccKmBXiy.s:10080  .debug_loc:00000000000008eb .LLST120
     /tmp/ccKmBXiy.s:10067  .debug_loc:00000000000008df .LVUS120
     /tmp/ccKmBXiy.s:10112  .debug_loc:0000000000000939 .LLST121
     /tmp/ccKmBXiy.s:10109  .debug_loc:0000000000000937 .LVUS121
     /tmp/ccKmBXiy.s:3519   .text.Endpoint_Write_Control_PStream_LE:000000000000005e .LBB433
     /tmp/ccKmBXiy.s:3615   .text.Endpoint_Write_Control_PStream_LE:0000000000000096 .LBE433
     /tmp/ccKmBXiy.s:10124  .debug_loc:0000000000000950 .LLST122
     /tmp/ccKmBXiy.s:10119  .debug_loc:000000000000094c .LVUS122
     /tmp/ccKmBXiy.s:3573   .text.Endpoint_Write_Control_PStream_LE:0000000000000086 .LBB438
     /tmp/ccKmBXiy.s:3586   .text.Endpoint_Write_Control_PStream_LE:0000000000000088 .LBE438
     /tmp/ccKmBXiy.s:10150  .debug_loc:000000000000097c .LLST123
     /tmp/ccKmBXiy.s:10145  .debug_loc:0000000000000978 .LVUS123
     /tmp/ccKmBXiy.s:10171  .debug_loc:00000000000009a3 .LLST124
     /tmp/ccKmBXiy.s:10168  .debug_loc:00000000000009a1 .LVUS124
     /tmp/ccKmBXiy.s:3522   .text.Endpoint_Write_Control_PStream_LE:000000000000005e .LBI434
     /tmp/ccKmBXiy.s:3521   .text.Endpoint_Write_Control_PStream_LE:000000000000005e .LBB434
     /tmp/ccKmBXiy.s:3532   .text.Endpoint_Write_Control_PStream_LE:0000000000000066 .LBE434
     /tmp/ccKmBXiy.s:3554   .text.Endpoint_Write_Control_PStream_LE:000000000000007a .LBI436
     /tmp/ccKmBXiy.s:3553   .text.Endpoint_Write_Control_PStream_LE:000000000000007a .LBB436
     /tmp/ccKmBXiy.s:3571   .text.Endpoint_Write_Control_PStream_LE:0000000000000086 .LBE436
     /tmp/ccKmBXiy.s:3588   .text.Endpoint_Write_Control_PStream_LE:0000000000000088 .LBI439
     /tmp/ccKmBXiy.s:3587   .text.Endpoint_Write_Control_PStream_LE:0000000000000088 .LBB439
     /tmp/ccKmBXiy.s:3597   .text.Endpoint_Write_Control_PStream_LE:000000000000008c .LBE439
     /tmp/ccKmBXiy.s:10181  .debug_loc:00000000000009b8 .LLST125
     /tmp/ccKmBXiy.s:10178  .debug_loc:00000000000009b6 .LVUS125
     /tmp/ccKmBXiy.s:3480   .text.Endpoint_Write_Control_PStream_LE:0000000000000046 .LBI427
     /tmp/ccKmBXiy.s:3479   .text.Endpoint_Write_Control_PStream_LE:0000000000000046 .LBB427
     /tmp/ccKmBXiy.s:3489   .text.Endpoint_Write_Control_PStream_LE:000000000000004a .LBE427
     /tmp/ccKmBXiy.s:3495   .text.Endpoint_Write_Control_PStream_LE:000000000000004e .LBI429
     /tmp/ccKmBXiy.s:3494   .text.Endpoint_Write_Control_PStream_LE:000000000000004e .LBB429
     /tmp/ccKmBXiy.s:3502   .text.Endpoint_Write_Control_PStream_LE:0000000000000052 .LBE429
     /tmp/ccKmBXiy.s:3508   .text.Endpoint_Write_Control_PStream_LE:0000000000000056 .LBI431
     /tmp/ccKmBXiy.s:3507   .text.Endpoint_Write_Control_PStream_LE:0000000000000056 .LBB431
     /tmp/ccKmBXiy.s:3515   .text.Endpoint_Write_Control_PStream_LE:000000000000005a .LBE431
     /tmp/ccKmBXiy.s:3617   .text.Endpoint_Write_Control_PStream_LE:0000000000000096 .LBB441
     /tmp/ccKmBXiy.s:3648   .text.Endpoint_Write_Control_PStream_LE:00000000000000aa .LBE441
     /tmp/ccKmBXiy.s:10191  .debug_loc:00000000000009cd .LLST126
     /tmp/ccKmBXiy.s:10188  .debug_loc:00000000000009cb .LVUS126
     /tmp/ccKmBXiy.s:3632   .text.Endpoint_Write_Control_PStream_LE:00000000000000a2 .LBI442
     /tmp/ccKmBXiy.s:3631   .text.Endpoint_Write_Control_PStream_LE:00000000000000a2 .LBB442
     /tmp/ccKmBXiy.s:3641   .text.Endpoint_Write_Control_PStream_LE:00000000000000a6 .LBE442
     /tmp/ccKmBXiy.s:3432   .text.Endpoint_Write_Control_PStream_LE:0000000000000022 .LBI422
     /tmp/ccKmBXiy.s:3431   .text.Endpoint_Write_Control_PStream_LE:0000000000000022 .LBB422
     /tmp/ccKmBXiy.s:3439   .text.Endpoint_Write_Control_PStream_LE:0000000000000026 .LBE422
     /tmp/ccKmBXiy.s:3450   .text.Endpoint_Write_Control_PStream_LE:000000000000002e .LBI424
     /tmp/ccKmBXiy.s:3449   .text.Endpoint_Write_Control_PStream_LE:000000000000002e .LBB424
     /tmp/ccKmBXiy.s:3464   .text.Endpoint_Write_Control_PStream_LE:000000000000003a .LBE424
     /tmp/ccKmBXiy.s:3197   .text.Endpoint_Read_Control_Stream_BE:0000000000000000 .LFB104
     /tmp/ccKmBXiy.s:3380   .text.Endpoint_Read_Control_Stream_BE:000000000000007e .LFE104
     /tmp/ccKmBXiy.s:10203  .debug_loc:00000000000009e4 .LLST112
     /tmp/ccKmBXiy.s:10198  .debug_loc:00000000000009e0 .LVUS112
     /tmp/ccKmBXiy.s:10229  .debug_loc:0000000000000a10 .LLST113
     /tmp/ccKmBXiy.s:10222  .debug_loc:0000000000000a0a .LVUS113
     /tmp/ccKmBXiy.s:10264  .debug_loc:0000000000000a4c .LLST114
     /tmp/ccKmBXiy.s:10259  .debug_loc:0000000000000a48 .LVUS114
     /tmp/ccKmBXiy.s:10288  .debug_loc:0000000000000a76 .LLST115
     /tmp/ccKmBXiy.s:10285  .debug_loc:0000000000000a74 .LVUS115
     /tmp/ccKmBXiy.s:3223   .text.Endpoint_Read_Control_Stream_BE:000000000000000e .LBI406
     /tmp/ccKmBXiy.s:3222   .text.Endpoint_Read_Control_Stream_BE:000000000000000e .LBB406
     /tmp/ccKmBXiy.s:3233   .text.Endpoint_Read_Control_Stream_BE:0000000000000018 .LBE406
     /tmp/ccKmBXiy.s:3273   .text.Endpoint_Read_Control_Stream_BE:0000000000000036 .LBI408
     /tmp/ccKmBXiy.s:3272   .text.Endpoint_Read_Control_Stream_BE:0000000000000036 .LBB408
     /tmp/ccKmBXiy.s:3282   .text.Endpoint_Read_Control_Stream_BE:000000000000003a .LBE408
     /tmp/ccKmBXiy.s:3288   .text.Endpoint_Read_Control_Stream_BE:000000000000003e .LBI410
     /tmp/ccKmBXiy.s:3287   .text.Endpoint_Read_Control_Stream_BE:000000000000003e .LBB410
     /tmp/ccKmBXiy.s:3295   .text.Endpoint_Read_Control_Stream_BE:0000000000000042 .LBE410
     /tmp/ccKmBXiy.s:3302   .text.Endpoint_Read_Control_Stream_BE:0000000000000046 .LBI412
     /tmp/ccKmBXiy.s:3301   .text.Endpoint_Read_Control_Stream_BE:0000000000000046 .LBB412
     /tmp/ccKmBXiy.s:3310   .text.Endpoint_Read_Control_Stream_BE:000000000000004e .LBE412
     /tmp/ccKmBXiy.s:3316   .text.Endpoint_Read_Control_Stream_BE:0000000000000052 .LBI414
     /tmp/ccKmBXiy.s:3315   .text.Endpoint_Read_Control_Stream_BE:0000000000000052 .LBB414
     /tmp/ccKmBXiy.s:3323   .text.Endpoint_Read_Control_Stream_BE:0000000000000056 .LBE414
     /tmp/ccKmBXiy.s:3343   .text.Endpoint_Read_Control_Stream_BE:0000000000000066 .LBB419
     /tmp/ccKmBXiy.s:3359   .text.Endpoint_Read_Control_Stream_BE:0000000000000072 .LBE419
     /tmp/ccKmBXiy.s:10298  .debug_loc:0000000000000a8b .LLST116
     /tmp/ccKmBXiy.s:10295  .debug_loc:0000000000000a89 .LVUS116
     /tmp/ccKmBXiy.s:3242   .text.Endpoint_Read_Control_Stream_BE:000000000000001e .LBI416
     /tmp/ccKmBXiy.s:3241   .text.Endpoint_Read_Control_Stream_BE:000000000000001e .LBB416
     /tmp/ccKmBXiy.s:3249   .text.Endpoint_Read_Control_Stream_BE:0000000000000022 .LBE416
     /tmp/ccKmBXiy.s:3014   .text.Endpoint_Read_Control_Stream_LE:0000000000000000 .LFB103
     /tmp/ccKmBXiy.s:3190   .text.Endpoint_Read_Control_Stream_LE:0000000000000070 .LFE103
     /tmp/ccKmBXiy.s:10312  .debug_loc:0000000000000aa4 .LLST107
     /tmp/ccKmBXiy.s:10305  .debug_loc:0000000000000a9e .LVUS107
     /tmp/ccKmBXiy.s:10347  .debug_loc:0000000000000ae0 .LLST108
     /tmp/ccKmBXiy.s:10340  .debug_loc:0000000000000ada .LVUS108
     /tmp/ccKmBXiy.s:10386  .debug_loc:0000000000000b20 .LLST109
     /tmp/ccKmBXiy.s:10377  .debug_loc:0000000000000b18 .LVUS109
     /tmp/ccKmBXiy.s:10425  .debug_loc:0000000000000b67 .LLST110
     /tmp/ccKmBXiy.s:10422  .debug_loc:0000000000000b65 .LVUS110
     /tmp/ccKmBXiy.s:3036   .text.Endpoint_Read_Control_Stream_LE:0000000000000008 .LBI389
     /tmp/ccKmBXiy.s:3035   .text.Endpoint_Read_Control_Stream_LE:0000000000000008 .LBB389
     /tmp/ccKmBXiy.s:3046   .text.Endpoint_Read_Control_Stream_LE:0000000000000012 .LBE389
     /tmp/ccKmBXiy.s:3086   .text.Endpoint_Read_Control_Stream_LE:000000000000002e .LBI391
     /tmp/ccKmBXiy.s:3085   .text.Endpoint_Read_Control_Stream_LE:000000000000002e .LBB391
     /tmp/ccKmBXiy.s:3095   .text.Endpoint_Read_Control_Stream_LE:0000000000000032 .LBE391
     /tmp/ccKmBXiy.s:3101   .text.Endpoint_Read_Control_Stream_LE:0000000000000036 .LBI393
     /tmp/ccKmBXiy.s:3100   .text.Endpoint_Read_Control_Stream_LE:0000000000000036 .LBB393
     /tmp/ccKmBXiy.s:3108   .text.Endpoint_Read_Control_Stream_LE:000000000000003a .LBE393
     /tmp/ccKmBXiy.s:3115   .text.Endpoint_Read_Control_Stream_LE:000000000000003e .LBI395
     /tmp/ccKmBXiy.s:3114   .text.Endpoint_Read_Control_Stream_LE:000000000000003e .LBB395
     /tmp/ccKmBXiy.s:3123   .text.Endpoint_Read_Control_Stream_LE:0000000000000046 .LBE395
     /tmp/ccKmBXiy.s:3129   .text.Endpoint_Read_Control_Stream_LE:000000000000004a .LBI397
     /tmp/ccKmBXiy.s:3128   .text.Endpoint_Read_Control_Stream_LE:000000000000004a .LBB397
     /tmp/ccKmBXiy.s:3136   .text.Endpoint_Read_Control_Stream_LE:000000000000004e .LBE397
     /tmp/ccKmBXiy.s:3153   .text.Endpoint_Read_Control_Stream_LE:0000000000000058 .LBB402
     /tmp/ccKmBXiy.s:3169   .text.Endpoint_Read_Control_Stream_LE:0000000000000064 .LBE402
     /tmp/ccKmBXiy.s:10435  .debug_loc:0000000000000b7c .LLST111
     /tmp/ccKmBXiy.s:10432  .debug_loc:0000000000000b7a .LVUS111
     /tmp/ccKmBXiy.s:3055   .text.Endpoint_Read_Control_Stream_LE:0000000000000016 .LBI399
     /tmp/ccKmBXiy.s:3054   .text.Endpoint_Read_Control_Stream_LE:0000000000000016 .LBB399
     /tmp/ccKmBXiy.s:3062   .text.Endpoint_Read_Control_Stream_LE:000000000000001a .LBE399
     /tmp/ccKmBXiy.s:2732   .text.Endpoint_Write_Control_Stream_BE:0000000000000000 .LFB102
     /tmp/ccKmBXiy.s:3007   .text.Endpoint_Write_Control_Stream_BE:00000000000000be .LFE102
     /tmp/ccKmBXiy.s:10451  .debug_loc:0000000000000b97 .LLST99
     /tmp/ccKmBXiy.s:10442  .debug_loc:0000000000000b8f .LVUS99
     /tmp/ccKmBXiy.s:10499  .debug_loc:0000000000000be7 .LLST100
     /tmp/ccKmBXiy.s:10486  .debug_loc:0000000000000bdb .LVUS100
     /tmp/ccKmBXiy.s:10559  .debug_loc:0000000000000c51 .LLST101
     /tmp/ccKmBXiy.s:10556  .debug_loc:0000000000000c4f .LVUS101
     /tmp/ccKmBXiy.s:10584  .debug_loc:0000000000000c75 .LLST102
     /tmp/ccKmBXiy.s:10571  .debug_loc:0000000000000c69 .LVUS102
     /tmp/ccKmBXiy.s:10616  .debug_loc:0000000000000cc3 .LLST103
     /tmp/ccKmBXiy.s:10613  .debug_loc:0000000000000cc1 .LVUS103
     /tmp/ccKmBXiy.s:2871   .text.Endpoint_Write_Control_Stream_BE:0000000000000066 .LBB376
     /tmp/ccKmBXiy.s:2955   .text.Endpoint_Write_Control_Stream_BE:000000000000009e .LBE376
     /tmp/ccKmBXiy.s:10628  .debug_loc:0000000000000cda .LLST104
     /tmp/ccKmBXiy.s:10623  .debug_loc:0000000000000cd6 .LVUS104
     /tmp/ccKmBXiy.s:2874   .text.Endpoint_Write_Control_Stream_BE:0000000000000066 .LBI377
     /tmp/ccKmBXiy.s:2873   .text.Endpoint_Write_Control_Stream_BE:0000000000000066 .LBB377
     /tmp/ccKmBXiy.s:2884   .text.Endpoint_Write_Control_Stream_BE:000000000000006e .LBE377
     /tmp/ccKmBXiy.s:2906   .text.Endpoint_Write_Control_Stream_BE:0000000000000082 .LBI379
     /tmp/ccKmBXiy.s:2905   .text.Endpoint_Write_Control_Stream_BE:0000000000000082 .LBB379
     /tmp/ccKmBXiy.s:2923   .text.Endpoint_Write_Control_Stream_BE:000000000000008e .LBE379
     /tmp/ccKmBXiy.s:2928   .text.Endpoint_Write_Control_Stream_BE:0000000000000090 .LBI381
     /tmp/ccKmBXiy.s:2927   .text.Endpoint_Write_Control_Stream_BE:0000000000000090 .LBB381
     /tmp/ccKmBXiy.s:2937   .text.Endpoint_Write_Control_Stream_BE:0000000000000094 .LBE381
     /tmp/ccKmBXiy.s:10652  .debug_loc:0000000000000d04 .LLST105
     /tmp/ccKmBXiy.s:10649  .debug_loc:0000000000000d02 .LVUS105
     /tmp/ccKmBXiy.s:2832   .text.Endpoint_Write_Control_Stream_BE:000000000000004e .LBI370
     /tmp/ccKmBXiy.s:2831   .text.Endpoint_Write_Control_Stream_BE:000000000000004e .LBB370
     /tmp/ccKmBXiy.s:2841   .text.Endpoint_Write_Control_Stream_BE:0000000000000052 .LBE370
     /tmp/ccKmBXiy.s:2847   .text.Endpoint_Write_Control_Stream_BE:0000000000000056 .LBI372
     /tmp/ccKmBXiy.s:2846   .text.Endpoint_Write_Control_Stream_BE:0000000000000056 .LBB372
     /tmp/ccKmBXiy.s:2854   .text.Endpoint_Write_Control_Stream_BE:000000000000005a .LBE372
     /tmp/ccKmBXiy.s:2860   .text.Endpoint_Write_Control_Stream_BE:000000000000005e .LBI374
     /tmp/ccKmBXiy.s:2859   .text.Endpoint_Write_Control_Stream_BE:000000000000005e .LBB374
     /tmp/ccKmBXiy.s:2867   .text.Endpoint_Write_Control_Stream_BE:0000000000000062 .LBE374
     /tmp/ccKmBXiy.s:2957   .text.Endpoint_Write_Control_Stream_BE:000000000000009e .LBB383
     /tmp/ccKmBXiy.s:2988   .text.Endpoint_Write_Control_Stream_BE:00000000000000b2 .LBE383
     /tmp/ccKmBXiy.s:10662  .debug_loc:0000000000000d19 .LLST106
     /tmp/ccKmBXiy.s:10659  .debug_loc:0000000000000d17 .LVUS106
     /tmp/ccKmBXiy.s:2972   .text.Endpoint_Write_Control_Stream_BE:00000000000000aa .LBI384
     /tmp/ccKmBXiy.s:2971   .text.Endpoint_Write_Control_Stream_BE:00000000000000aa .LBB384
     /tmp/ccKmBXiy.s:2981   .text.Endpoint_Write_Control_Stream_BE:00000000000000ae .LBE384
     /tmp/ccKmBXiy.s:2782   .text.Endpoint_Write_Control_Stream_BE:000000000000002a .LBI365
     /tmp/ccKmBXiy.s:2781   .text.Endpoint_Write_Control_Stream_BE:000000000000002a .LBB365
     /tmp/ccKmBXiy.s:2789   .text.Endpoint_Write_Control_Stream_BE:000000000000002e .LBE365
     /tmp/ccKmBXiy.s:2800   .text.Endpoint_Write_Control_Stream_BE:0000000000000036 .LBI367
     /tmp/ccKmBXiy.s:2799   .text.Endpoint_Write_Control_Stream_BE:0000000000000036 .LBB367
     /tmp/ccKmBXiy.s:2816   .text.Endpoint_Write_Control_Stream_BE:0000000000000042 .LBE367
     /tmp/ccKmBXiy.s:2458   .text.Endpoint_Write_Control_Stream_LE:0000000000000000 .LFB101
     /tmp/ccKmBXiy.s:2725   .text.Endpoint_Write_Control_Stream_LE:00000000000000b4 .LFE101
     /tmp/ccKmBXiy.s:10680  .debug_loc:0000000000000d36 .LLST91
     /tmp/ccKmBXiy.s:10669  .debug_loc:0000000000000d2c .LVUS91
     /tmp/ccKmBXiy.s:10737  .debug_loc:0000000000000d96 .LLST92
     /tmp/ccKmBXiy.s:10724  .debug_loc:0000000000000d8a .LVUS92
     /tmp/ccKmBXiy.s:10803  .debug_loc:0000000000000e06 .LLST93
     /tmp/ccKmBXiy.s:10794  .debug_loc:0000000000000dfe .LVUS93
     /tmp/ccKmBXiy.s:10852  .debug_loc:0000000000000e57 .LLST94
     /tmp/ccKmBXiy.s:10839  .debug_loc:0000000000000e4b .LVUS94
     /tmp/ccKmBXiy.s:10884  .debug_loc:0000000000000ea5 .LLST95
     /tmp/ccKmBXiy.s:10881  .debug_loc:0000000000000ea3 .LVUS95
     /tmp/ccKmBXiy.s:2591   .text.Endpoint_Write_Control_Stream_LE:000000000000005e .LBB353
     /tmp/ccKmBXiy.s:2673   .text.Endpoint_Write_Control_Stream_LE:0000000000000094 .LBE353
     /tmp/ccKmBXiy.s:10896  .debug_loc:0000000000000ebc .LLST96
     /tmp/ccKmBXiy.s:10891  .debug_loc:0000000000000eb8 .LVUS96
     /tmp/ccKmBXiy.s:2594   .text.Endpoint_Write_Control_Stream_LE:000000000000005e .LBI354
     /tmp/ccKmBXiy.s:2593   .text.Endpoint_Write_Control_Stream_LE:000000000000005e .LBB354
     /tmp/ccKmBXiy.s:2604   .text.Endpoint_Write_Control_Stream_LE:0000000000000066 .LBE354
     /tmp/ccKmBXiy.s:2626   .text.Endpoint_Write_Control_Stream_LE:000000000000007a .LBI356
     /tmp/ccKmBXiy.s:2625   .text.Endpoint_Write_Control_Stream_LE:000000000000007a .LBB356
     /tmp/ccKmBXiy.s:2643   .text.Endpoint_Write_Control_Stream_LE:0000000000000086 .LBE356
     /tmp/ccKmBXiy.s:2648   .text.Endpoint_Write_Control_Stream_LE:0000000000000088 .LBI358
     /tmp/ccKmBXiy.s:2647   .text.Endpoint_Write_Control_Stream_LE:0000000000000088 .LBB358
     /tmp/ccKmBXiy.s:2657   .text.Endpoint_Write_Control_Stream_LE:000000000000008c .LBE358
     /tmp/ccKmBXiy.s:10920  .debug_loc:0000000000000ee6 .LLST97
     /tmp/ccKmBXiy.s:10917  .debug_loc:0000000000000ee4 .LVUS97
     /tmp/ccKmBXiy.s:2552   .text.Endpoint_Write_Control_Stream_LE:0000000000000046 .LBI347
     /tmp/ccKmBXiy.s:2551   .text.Endpoint_Write_Control_Stream_LE:0000000000000046 .LBB347
     /tmp/ccKmBXiy.s:2561   .text.Endpoint_Write_Control_Stream_LE:000000000000004a .LBE347
     /tmp/ccKmBXiy.s:2567   .text.Endpoint_Write_Control_Stream_LE:000000000000004e .LBI349
     /tmp/ccKmBXiy.s:2566   .text.Endpoint_Write_Control_Stream_LE:000000000000004e .LBB349
     /tmp/ccKmBXiy.s:2574   .text.Endpoint_Write_Control_Stream_LE:0000000000000052 .LBE349
     /tmp/ccKmBXiy.s:2580   .text.Endpoint_Write_Control_Stream_LE:0000000000000056 .LBI351
     /tmp/ccKmBXiy.s:2579   .text.Endpoint_Write_Control_Stream_LE:0000000000000056 .LBB351
     /tmp/ccKmBXiy.s:2587   .text.Endpoint_Write_Control_Stream_LE:000000000000005a .LBE351
     /tmp/ccKmBXiy.s:2675   .text.Endpoint_Write_Control_Stream_LE:0000000000000094 .LBB360
     /tmp/ccKmBXiy.s:2706   .text.Endpoint_Write_Control_Stream_LE:00000000000000a8 .LBE360
     /tmp/ccKmBXiy.s:10930  .debug_loc:0000000000000efb .LLST98
     /tmp/ccKmBXiy.s:10927  .debug_loc:0000000000000ef9 .LVUS98
     /tmp/ccKmBXiy.s:2690   .text.Endpoint_Write_Control_Stream_LE:00000000000000a0 .LBI361
     /tmp/ccKmBXiy.s:2689   .text.Endpoint_Write_Control_Stream_LE:00000000000000a0 .LBB361
     /tmp/ccKmBXiy.s:2699   .text.Endpoint_Write_Control_Stream_LE:00000000000000a4 .LBE361
     /tmp/ccKmBXiy.s:2504   .text.Endpoint_Write_Control_Stream_LE:0000000000000022 .LBI342
     /tmp/ccKmBXiy.s:2503   .text.Endpoint_Write_Control_Stream_LE:0000000000000022 .LBB342
     /tmp/ccKmBXiy.s:2511   .text.Endpoint_Write_Control_Stream_LE:0000000000000026 .LBE342
     /tmp/ccKmBXiy.s:2522   .text.Endpoint_Write_Control_Stream_LE:000000000000002e .LBI344
     /tmp/ccKmBXiy.s:2521   .text.Endpoint_Write_Control_Stream_LE:000000000000002e .LBB344
     /tmp/ccKmBXiy.s:2536   .text.Endpoint_Write_Control_Stream_LE:000000000000003a .LBE344
     /tmp/ccKmBXiy.s:2247   .text.Endpoint_Read_EStream_BE:0000000000000000 .LFB100
     /tmp/ccKmBXiy.s:2451   .text.Endpoint_Read_EStream_BE:00000000000000ac .LFE100
     /tmp/ccKmBXiy.s:10937  .debug_loc:0000000000000f0e .LLST84
     /tmp/ccKmBXiy.s:11007  .debug_loc:0000000000000f9e .LLST85
     /tmp/ccKmBXiy.s:11000  .debug_loc:0000000000000f98 .LVUS85
     /tmp/ccKmBXiy.s:11042  .debug_loc:0000000000000fda .LLST86
     /tmp/ccKmBXiy.s:11035  .debug_loc:0000000000000fd4 .LVUS86
     /tmp/ccKmBXiy.s:11081  .debug_loc:000000000000101a .LLST87
     /tmp/ccKmBXiy.s:11072  .debug_loc:0000000000001012 .LVUS87
     /tmp/ccKmBXiy.s:11135  .debug_loc:0000000000001070 .LLST88
     /tmp/ccKmBXiy.s:11118  .debug_loc:0000000000001060 .LVUS88
     /tmp/ccKmBXiy.s:11229  .debug_loc:000000000000110a .LLST89
     /tmp/ccKmBXiy.s:11222  .debug_loc:0000000000001104 .LVUS89
     /tmp/ccKmBXiy.s:11260  .debug_loc:0000000000001142 .LLST90
     /tmp/ccKmBXiy.s:11255  .debug_loc:000000000000113e .LVUS90
     /tmp/ccKmBXiy.s:2349   .text.Endpoint_Read_EStream_BE:0000000000000048 .LBI336
     /tmp/ccKmBXiy.s:2348   .text.Endpoint_Read_EStream_BE:0000000000000048 .LBB336
     /tmp/ccKmBXiy.s:2356   .text.Endpoint_Read_EStream_BE:000000000000004c .LBE336
     /tmp/ccKmBXiy.s:2362   .text.Endpoint_Read_EStream_BE:0000000000000050 .LBI338
     /tmp/ccKmBXiy.s:2361   .text.Endpoint_Read_EStream_BE:0000000000000050 .LBB338
     /tmp/ccKmBXiy.s:2371   .text.Endpoint_Read_EStream_BE:000000000000005a .LBE338
     /tmp/ccKmBXiy.s:2422   .text.Endpoint_Read_EStream_BE:0000000000000094 .LBI340
     /tmp/ccKmBXiy.s:2421   .text.Endpoint_Read_EStream_BE:0000000000000094 .LBB340
     /tmp/ccKmBXiy.s:2429   .text.Endpoint_Read_EStream_BE:0000000000000098 .LBE340
     /tmp/ccKmBXiy.s:2301   .text.Endpoint_Read_EStream_BE:000000000000001c .LVL188
     /tmp/ccKmBXiy.s:2411   .text.Endpoint_Read_EStream_BE:000000000000008c .LVL199
     /tmp/ccKmBXiy.s:2433   .text.Endpoint_Read_EStream_BE:000000000000009e .LVL201
     /tmp/ccKmBXiy.s:2046   .text.Endpoint_Read_EStream_LE:0000000000000000 .LFB99
     /tmp/ccKmBXiy.s:2240   .text.Endpoint_Read_EStream_LE:00000000000000a2 .LFE99
     /tmp/ccKmBXiy.s:11271  .debug_loc:0000000000001160 .LLST77
     /tmp/ccKmBXiy.s:11341  .debug_loc:00000000000011f0 .LLST78
     /tmp/ccKmBXiy.s:11334  .debug_loc:00000000000011ea .LVUS78
     /tmp/ccKmBXiy.s:11376  .debug_loc:000000000000122c .LLST79
     /tmp/ccKmBXiy.s:11369  .debug_loc:0000000000001226 .LVUS79
     /tmp/ccKmBXiy.s:11415  .debug_loc:000000000000126c .LLST80
     /tmp/ccKmBXiy.s:11406  .debug_loc:0000000000001264 .LVUS80
     /tmp/ccKmBXiy.s:11459  .debug_loc:00000000000012b8 .LLST81
     /tmp/ccKmBXiy.s:11452  .debug_loc:00000000000012b2 .LVUS81
     /tmp/ccKmBXiy.s:11496  .debug_loc:00000000000012f6 .LLST82
     /tmp/ccKmBXiy.s:11489  .debug_loc:00000000000012f0 .LVUS82
     /tmp/ccKmBXiy.s:11527  .debug_loc:000000000000132e .LLST83
     /tmp/ccKmBXiy.s:11522  .debug_loc:000000000000132a .LVUS83
     /tmp/ccKmBXiy.s:2138   .text.Endpoint_Read_EStream_LE:000000000000003e .LBI330
     /tmp/ccKmBXiy.s:2137   .text.Endpoint_Read_EStream_LE:000000000000003e .LBB330
     /tmp/ccKmBXiy.s:2145   .text.Endpoint_Read_EStream_LE:0000000000000042 .LBE330
     /tmp/ccKmBXiy.s:2151   .text.Endpoint_Read_EStream_LE:0000000000000046 .LBI332
     /tmp/ccKmBXiy.s:2150   .text.Endpoint_Read_EStream_LE:0000000000000046 .LBB332
     /tmp/ccKmBXiy.s:2160   .text.Endpoint_Read_EStream_LE:0000000000000050 .LBE332
     /tmp/ccKmBXiy.s:2211   .text.Endpoint_Read_EStream_LE:000000000000008a .LBI334
     /tmp/ccKmBXiy.s:2210   .text.Endpoint_Read_EStream_LE:000000000000008a .LBB334
     /tmp/ccKmBXiy.s:2218   .text.Endpoint_Read_EStream_LE:000000000000008e .LBE334
     /tmp/ccKmBXiy.s:2100   .text.Endpoint_Read_EStream_LE:000000000000001c .LVL172
     /tmp/ccKmBXiy.s:2200   .text.Endpoint_Read_EStream_LE:0000000000000082 .LVL180
     /tmp/ccKmBXiy.s:2222   .text.Endpoint_Read_EStream_LE:0000000000000094 .LVL182
     /tmp/ccKmBXiy.s:1834   .text.Endpoint_Write_EStream_BE:0000000000000000 .LFB98
     /tmp/ccKmBXiy.s:2039   .text.Endpoint_Write_EStream_BE:00000000000000ac .LFE98
     /tmp/ccKmBXiy.s:11538  .debug_loc:000000000000134c .LLST69
     /tmp/ccKmBXiy.s:11608  .debug_loc:00000000000013dc .LLST70
     /tmp/ccKmBXiy.s:11601  .debug_loc:00000000000013d6 .LVUS70
     /tmp/ccKmBXiy.s:11643  .debug_loc:0000000000001418 .LLST71
     /tmp/ccKmBXiy.s:11636  .debug_loc:0000000000001412 .LVUS71
     /tmp/ccKmBXiy.s:11682  .debug_loc:0000000000001458 .LLST72
     /tmp/ccKmBXiy.s:11673  .debug_loc:0000000000001450 .LVUS72
     /tmp/ccKmBXiy.s:11736  .debug_loc:00000000000014ae .LLST73
     /tmp/ccKmBXiy.s:11719  .debug_loc:000000000000149e .LVUS73
     /tmp/ccKmBXiy.s:11830  .debug_loc:0000000000001548 .LLST74
     /tmp/ccKmBXiy.s:11823  .debug_loc:0000000000001542 .LVUS74
     /tmp/ccKmBXiy.s:11861  .debug_loc:0000000000001580 .LLST75
     /tmp/ccKmBXiy.s:11856  .debug_loc:000000000000157c .LVUS75
     /tmp/ccKmBXiy.s:1936   .text.Endpoint_Write_EStream_BE:0000000000000048 .LBI324
     /tmp/ccKmBXiy.s:1935   .text.Endpoint_Write_EStream_BE:0000000000000048 .LBB324
     /tmp/ccKmBXiy.s:1943   .text.Endpoint_Write_EStream_BE:000000000000004c .LBE324
     /tmp/ccKmBXiy.s:1949   .text.Endpoint_Write_EStream_BE:0000000000000050 .LBI326
     /tmp/ccKmBXiy.s:1948   .text.Endpoint_Write_EStream_BE:0000000000000050 .LBB326
     /tmp/ccKmBXiy.s:1958   .text.Endpoint_Write_EStream_BE:000000000000005a .LBE326
     /tmp/ccKmBXiy.s:2012   .text.Endpoint_Write_EStream_BE:000000000000009a .LBI328
     /tmp/ccKmBXiy.s:2011   .text.Endpoint_Write_EStream_BE:000000000000009a .LBB328
     /tmp/ccKmBXiy.s:2021   .text.Endpoint_Write_EStream_BE:000000000000009e .LBE328
     /tmp/ccKmBXiy.s:11875  .debug_loc:00000000000015a0 .LLST76
     /tmp/ccKmBXiy.s:11872  .debug_loc:000000000000159e .LVUS76
     /tmp/ccKmBXiy.s:1888   .text.Endpoint_Write_EStream_BE:000000000000001c .LVL152
     /tmp/ccKmBXiy.s:1998   .text.Endpoint_Write_EStream_BE:000000000000008c .LVL163
     /tmp/ccKmBXiy.s:2010   .text.Endpoint_Write_EStream_BE:000000000000009a .LVL165
     /tmp/ccKmBXiy.s:1632   .text.Endpoint_Write_EStream_LE:0000000000000000 .LFB97
     /tmp/ccKmBXiy.s:1827   .text.Endpoint_Write_EStream_LE:00000000000000a2 .LFE97
     /tmp/ccKmBXiy.s:11882  .debug_loc:00000000000015b3 .LLST61
     /tmp/ccKmBXiy.s:11952  .debug_loc:0000000000001643 .LLST62
     /tmp/ccKmBXiy.s:11945  .debug_loc:000000000000163d .LVUS62
     /tmp/ccKmBXiy.s:11987  .debug_loc:000000000000167f .LLST63
     /tmp/ccKmBXiy.s:11980  .debug_loc:0000000000001679 .LVUS63
     /tmp/ccKmBXiy.s:12026  .debug_loc:00000000000016bf .LLST64
     /tmp/ccKmBXiy.s:12017  .debug_loc:00000000000016b7 .LVUS64
     /tmp/ccKmBXiy.s:12070  .debug_loc:000000000000170b .LLST65
     /tmp/ccKmBXiy.s:12063  .debug_loc:0000000000001705 .LVUS65
     /tmp/ccKmBXiy.s:12107  .debug_loc:0000000000001749 .LLST66
     /tmp/ccKmBXiy.s:12100  .debug_loc:0000000000001743 .LVUS66
     /tmp/ccKmBXiy.s:12138  .debug_loc:0000000000001781 .LLST67
     /tmp/ccKmBXiy.s:12133  .debug_loc:000000000000177d .LVUS67
     /tmp/ccKmBXiy.s:1724   .text.Endpoint_Write_EStream_LE:000000000000003e .LBI318
     /tmp/ccKmBXiy.s:1723   .text.Endpoint_Write_EStream_LE:000000000000003e .LBB318
     /tmp/ccKmBXiy.s:1731   .text.Endpoint_Write_EStream_LE:0000000000000042 .LBE318
     /tmp/ccKmBXiy.s:1737   .text.Endpoint_Write_EStream_LE:0000000000000046 .LBI320
     /tmp/ccKmBXiy.s:1736   .text.Endpoint_Write_EStream_LE:0000000000000046 .LBB320
     /tmp/ccKmBXiy.s:1746   .text.Endpoint_Write_EStream_LE:0000000000000050 .LBE320
     /tmp/ccKmBXiy.s:1800   .text.Endpoint_Write_EStream_LE:0000000000000090 .LBI322
     /tmp/ccKmBXiy.s:1799   .text.Endpoint_Write_EStream_LE:0000000000000090 .LBB322
     /tmp/ccKmBXiy.s:1809   .text.Endpoint_Write_EStream_LE:0000000000000094 .LBE322
     /tmp/ccKmBXiy.s:12152  .debug_loc:00000000000017a1 .LLST68
     /tmp/ccKmBXiy.s:12149  .debug_loc:000000000000179f .LVUS68
     /tmp/ccKmBXiy.s:1686   .text.Endpoint_Write_EStream_LE:000000000000001c .LVL135
     /tmp/ccKmBXiy.s:1786   .text.Endpoint_Write_EStream_LE:0000000000000082 .LVL143
     /tmp/ccKmBXiy.s:1798   .text.Endpoint_Write_EStream_LE:0000000000000090 .LVL145
     /tmp/ccKmBXiy.s:1408   .text.Endpoint_Write_PStream_BE:0000000000000000 .LFB96
     /tmp/ccKmBXiy.s:1625   .text.Endpoint_Write_PStream_BE:00000000000000aa .LFE96
     /tmp/ccKmBXiy.s:12159  .debug_loc:00000000000017b4 .LLST51
     /tmp/ccKmBXiy.s:12229  .debug_loc:0000000000001844 .LLST52
     /tmp/ccKmBXiy.s:12222  .debug_loc:000000000000183e .LVUS52
     /tmp/ccKmBXiy.s:12264  .debug_loc:0000000000001880 .LLST53
     /tmp/ccKmBXiy.s:12257  .debug_loc:000000000000187a .LVUS53
     /tmp/ccKmBXiy.s:12303  .debug_loc:00000000000018c0 .LLST54
     /tmp/ccKmBXiy.s:12294  .debug_loc:00000000000018b8 .LVUS54
     /tmp/ccKmBXiy.s:12357  .debug_loc:0000000000001916 .LLST55
     /tmp/ccKmBXiy.s:12340  .debug_loc:0000000000001906 .LVUS55
     /tmp/ccKmBXiy.s:12451  .debug_loc:00000000000019b0 .LLST56
     /tmp/ccKmBXiy.s:12444  .debug_loc:00000000000019aa .LVUS56
     /tmp/ccKmBXiy.s:12482  .debug_loc:00000000000019e8 .LLST57
     /tmp/ccKmBXiy.s:12477  .debug_loc:00000000000019e4 .LVUS57
     /tmp/ccKmBXiy.s:1582   .text.Endpoint_Write_PStream_BE:0000000000000094 .LBB315
     /tmp/ccKmBXiy.s:1596   .text.Endpoint_Write_PStream_BE:0000000000000098 .LBE315
     /tmp/ccKmBXiy.s:12498  .debug_loc:0000000000001a0a .LLST58
     /tmp/ccKmBXiy.s:12493  .debug_loc:0000000000001a06 .LVUS58
     /tmp/ccKmBXiy.s:12522  .debug_loc:0000000000001a34 .LLST59
     /tmp/ccKmBXiy.s:12519  .debug_loc:0000000000001a32 .LVUS59
     /tmp/ccKmBXiy.s:1510   .text.Endpoint_Write_PStream_BE:0000000000000048 .LBI311
     /tmp/ccKmBXiy.s:1509   .text.Endpoint_Write_PStream_BE:0000000000000048 .LBB311
     /tmp/ccKmBXiy.s:1517   .text.Endpoint_Write_PStream_BE:000000000000004c .LBE311
     /tmp/ccKmBXiy.s:1523   .text.Endpoint_Write_PStream_BE:0000000000000050 .LBI313
     /tmp/ccKmBXiy.s:1522   .text.Endpoint_Write_PStream_BE:0000000000000050 .LBB313
     /tmp/ccKmBXiy.s:1532   .text.Endpoint_Write_PStream_BE:000000000000005a .LBE313
     /tmp/ccKmBXiy.s:1598   .text.Endpoint_Write_PStream_BE:0000000000000098 .LBI316
     /tmp/ccKmBXiy.s:1597   .text.Endpoint_Write_PStream_BE:0000000000000098 .LBB316
     /tmp/ccKmBXiy.s:1607   .text.Endpoint_Write_PStream_BE:000000000000009c .LBE316
     /tmp/ccKmBXiy.s:12532  .debug_loc:0000000000001a49 .LLST60
     /tmp/ccKmBXiy.s:12529  .debug_loc:0000000000001a47 .LVUS60
     /tmp/ccKmBXiy.s:1462   .text.Endpoint_Write_PStream_BE:000000000000001c .LVL115
     /tmp/ccKmBXiy.s:1572   .text.Endpoint_Write_PStream_BE:000000000000008c .LVL126
     /tmp/ccKmBXiy.s:1194   .text.Endpoint_Write_PStream_LE:0000000000000000 .LFB95
     /tmp/ccKmBXiy.s:1401   .text.Endpoint_Write_PStream_LE:00000000000000a0 .LFE95
     /tmp/ccKmBXiy.s:12539  .debug_loc:0000000000001a5c .LLST41
     /tmp/ccKmBXiy.s:12609  .debug_loc:0000000000001aec .LLST42
     /tmp/ccKmBXiy.s:12602  .debug_loc:0000000000001ae6 .LVUS42
     /tmp/ccKmBXiy.s:12644  .debug_loc:0000000000001b28 .LLST43
     /tmp/ccKmBXiy.s:12637  .debug_loc:0000000000001b22 .LVUS43
     /tmp/ccKmBXiy.s:12683  .debug_loc:0000000000001b68 .LLST44
     /tmp/ccKmBXiy.s:12674  .debug_loc:0000000000001b60 .LVUS44
     /tmp/ccKmBXiy.s:12727  .debug_loc:0000000000001bb4 .LLST45
     /tmp/ccKmBXiy.s:12720  .debug_loc:0000000000001bae .LVUS45
     /tmp/ccKmBXiy.s:12764  .debug_loc:0000000000001bf2 .LLST46
     /tmp/ccKmBXiy.s:12757  .debug_loc:0000000000001bec .LVUS46
     /tmp/ccKmBXiy.s:12795  .debug_loc:0000000000001c2a .LLST47
     /tmp/ccKmBXiy.s:12790  .debug_loc:0000000000001c26 .LVUS47
     /tmp/ccKmBXiy.s:1358   .text.Endpoint_Write_PStream_LE:000000000000008a .LBB308
     /tmp/ccKmBXiy.s:1372   .text.Endpoint_Write_PStream_LE:000000000000008e .LBE308
     /tmp/ccKmBXiy.s:12811  .debug_loc:0000000000001c4c .LLST48
     /tmp/ccKmBXiy.s:12806  .debug_loc:0000000000001c48 .LVUS48
     /tmp/ccKmBXiy.s:12835  .debug_loc:0000000000001c76 .LLST49
     /tmp/ccKmBXiy.s:12832  .debug_loc:0000000000001c74 .LVUS49
     /tmp/ccKmBXiy.s:1286   .text.Endpoint_Write_PStream_LE:000000000000003e .LBI304
     /tmp/ccKmBXiy.s:1285   .text.Endpoint_Write_PStream_LE:000000000000003e .LBB304
     /tmp/ccKmBXiy.s:1293   .text.Endpoint_Write_PStream_LE:0000000000000042 .LBE304
     /tmp/ccKmBXiy.s:1299   .text.Endpoint_Write_PStream_LE:0000000000000046 .LBI306
     /tmp/ccKmBXiy.s:1298   .text.Endpoint_Write_PStream_LE:0000000000000046 .LBB306
     /tmp/ccKmBXiy.s:1308   .text.Endpoint_Write_PStream_LE:0000000000000050 .LBE306
     /tmp/ccKmBXiy.s:1374   .text.Endpoint_Write_PStream_LE:000000000000008e .LBI309
     /tmp/ccKmBXiy.s:1373   .text.Endpoint_Write_PStream_LE:000000000000008e .LBB309
     /tmp/ccKmBXiy.s:1383   .text.Endpoint_Write_PStream_LE:0000000000000092 .LBE309
     /tmp/ccKmBXiy.s:12845  .debug_loc:0000000000001c8b .LLST50
     /tmp/ccKmBXiy.s:12842  .debug_loc:0000000000001c89 .LVUS50
     /tmp/ccKmBXiy.s:1248   .text.Endpoint_Write_PStream_LE:000000000000001c .LVL98
     /tmp/ccKmBXiy.s:1348   .text.Endpoint_Write_PStream_LE:0000000000000082 .LVL106
     /tmp/ccKmBXiy.s:985    .text.Endpoint_Read_Stream_BE:0000000000000000 .LFB94
     /tmp/ccKmBXiy.s:1187   .text.Endpoint_Read_Stream_BE:00000000000000a8 .LFE94
     /tmp/ccKmBXiy.s:12852  .debug_loc:0000000000001c9e .LLST34
     /tmp/ccKmBXiy.s:12922  .debug_loc:0000000000001d2e .LLST35
     /tmp/ccKmBXiy.s:12915  .debug_loc:0000000000001d28 .LVUS35
     /tmp/ccKmBXiy.s:12957  .debug_loc:0000000000001d6a .LLST36
     /tmp/ccKmBXiy.s:12950  .debug_loc:0000000000001d64 .LVUS36
     /tmp/ccKmBXiy.s:12996  .debug_loc:0000000000001daa .LLST37
     /tmp/ccKmBXiy.s:12987  .debug_loc:0000000000001da2 .LVUS37
     /tmp/ccKmBXiy.s:13050  .debug_loc:0000000000001e00 .LLST38
     /tmp/ccKmBXiy.s:13033  .debug_loc:0000000000001df0 .LVUS38
     /tmp/ccKmBXiy.s:13144  .debug_loc:0000000000001e9a .LLST39
     /tmp/ccKmBXiy.s:13137  .debug_loc:0000000000001e94 .LVUS39
     /tmp/ccKmBXiy.s:13175  .debug_loc:0000000000001ed2 .LLST40
     /tmp/ccKmBXiy.s:13170  .debug_loc:0000000000001ece .LVUS40
     /tmp/ccKmBXiy.s:1087   .text.Endpoint_Read_Stream_BE:0000000000000048 .LBI298
     /tmp/ccKmBXiy.s:1086   .text.Endpoint_Read_Stream_BE:0000000000000048 .LBB298
     /tmp/ccKmBXiy.s:1094   .text.Endpoint_Read_Stream_BE:000000000000004c .LBE298
     /tmp/ccKmBXiy.s:1100   .text.Endpoint_Read_Stream_BE:0000000000000050 .LBI300
     /tmp/ccKmBXiy.s:1099   .text.Endpoint_Read_Stream_BE:0000000000000050 .LBB300
     /tmp/ccKmBXiy.s:1109   .text.Endpoint_Read_Stream_BE:000000000000005a .LBE300
     /tmp/ccKmBXiy.s:1160   .text.Endpoint_Read_Stream_BE:0000000000000094 .LBI302
     /tmp/ccKmBXiy.s:1159   .text.Endpoint_Read_Stream_BE:0000000000000094 .LBB302
     /tmp/ccKmBXiy.s:1167   .text.Endpoint_Read_Stream_BE:0000000000000098 .LBE302
     /tmp/ccKmBXiy.s:1039   .text.Endpoint_Read_Stream_BE:000000000000001c .LVL80
     /tmp/ccKmBXiy.s:1149   .text.Endpoint_Read_Stream_BE:000000000000008c .LVL91
     /tmp/ccKmBXiy.s:786    .text.Endpoint_Read_Stream_LE:0000000000000000 .LFB93
     /tmp/ccKmBXiy.s:978    .text.Endpoint_Read_Stream_LE:000000000000009e .LFE93
     /tmp/ccKmBXiy.s:13186  .debug_loc:0000000000001ef0 .LLST27
     /tmp/ccKmBXiy.s:13256  .debug_loc:0000000000001f80 .LLST28
     /tmp/ccKmBXiy.s:13249  .debug_loc:0000000000001f7a .LVUS28
     /tmp/ccKmBXiy.s:13291  .debug_loc:0000000000001fbc .LLST29
     /tmp/ccKmBXiy.s:13284  .debug_loc:0000000000001fb6 .LVUS29
     /tmp/ccKmBXiy.s:13330  .debug_loc:0000000000001ffc .LLST30
     /tmp/ccKmBXiy.s:13321  .debug_loc:0000000000001ff4 .LVUS30
     /tmp/ccKmBXiy.s:13374  .debug_loc:0000000000002048 .LLST31
     /tmp/ccKmBXiy.s:13367  .debug_loc:0000000000002042 .LVUS31
     /tmp/ccKmBXiy.s:13411  .debug_loc:0000000000002086 .LLST32
     /tmp/ccKmBXiy.s:13404  .debug_loc:0000000000002080 .LVUS32
     /tmp/ccKmBXiy.s:13442  .debug_loc:00000000000020be .LLST33
     /tmp/ccKmBXiy.s:13437  .debug_loc:00000000000020ba .LVUS33
     /tmp/ccKmBXiy.s:878    .text.Endpoint_Read_Stream_LE:000000000000003e .LBI292
     /tmp/ccKmBXiy.s:877    .text.Endpoint_Read_Stream_LE:000000000000003e .LBB292
     /tmp/ccKmBXiy.s:885    .text.Endpoint_Read_Stream_LE:0000000000000042 .LBE292
     /tmp/ccKmBXiy.s:891    .text.Endpoint_Read_Stream_LE:0000000000000046 .LBI294
     /tmp/ccKmBXiy.s:890    .text.Endpoint_Read_Stream_LE:0000000000000046 .LBB294
     /tmp/ccKmBXiy.s:900    .text.Endpoint_Read_Stream_LE:0000000000000050 .LBE294
     /tmp/ccKmBXiy.s:951    .text.Endpoint_Read_Stream_LE:000000000000008a .LBI296
     /tmp/ccKmBXiy.s:950    .text.Endpoint_Read_Stream_LE:000000000000008a .LBB296
     /tmp/ccKmBXiy.s:958    .text.Endpoint_Read_Stream_LE:000000000000008e .LBE296
     /tmp/ccKmBXiy.s:840    .text.Endpoint_Read_Stream_LE:000000000000001c .LVL65
     /tmp/ccKmBXiy.s:940    .text.Endpoint_Read_Stream_LE:0000000000000082 .LVL73
     /tmp/ccKmBXiy.s:575    .text.Endpoint_Write_Stream_BE:0000000000000000 .LFB92
     /tmp/ccKmBXiy.s:779    .text.Endpoint_Write_Stream_BE:00000000000000a8 .LFE92
     /tmp/ccKmBXiy.s:13453  .debug_loc:00000000000020dc .LLST19
     /tmp/ccKmBXiy.s:13523  .debug_loc:000000000000216c .LLST20
     /tmp/ccKmBXiy.s:13516  .debug_loc:0000000000002166 .LVUS20
     /tmp/ccKmBXiy.s:13558  .debug_loc:00000000000021a8 .LLST21
     /tmp/ccKmBXiy.s:13551  .debug_loc:00000000000021a2 .LVUS21
     /tmp/ccKmBXiy.s:13597  .debug_loc:00000000000021e8 .LLST22
     /tmp/ccKmBXiy.s:13588  .debug_loc:00000000000021e0 .LVUS22
     /tmp/ccKmBXiy.s:13651  .debug_loc:000000000000223e .LLST23
     /tmp/ccKmBXiy.s:13634  .debug_loc:000000000000222e .LVUS23
     /tmp/ccKmBXiy.s:13745  .debug_loc:00000000000022d8 .LLST24
     /tmp/ccKmBXiy.s:13738  .debug_loc:00000000000022d2 .LVUS24
     /tmp/ccKmBXiy.s:13776  .debug_loc:0000000000002310 .LLST25
     /tmp/ccKmBXiy.s:13771  .debug_loc:000000000000230c .LVUS25
     /tmp/ccKmBXiy.s:677    .text.Endpoint_Write_Stream_BE:0000000000000048 .LBI286
     /tmp/ccKmBXiy.s:676    .text.Endpoint_Write_Stream_BE:0000000000000048 .LBB286
     /tmp/ccKmBXiy.s:684    .text.Endpoint_Write_Stream_BE:000000000000004c .LBE286
     /tmp/ccKmBXiy.s:690    .text.Endpoint_Write_Stream_BE:0000000000000050 .LBI288
     /tmp/ccKmBXiy.s:689    .text.Endpoint_Write_Stream_BE:0000000000000050 .LBB288
     /tmp/ccKmBXiy.s:699    .text.Endpoint_Write_Stream_BE:000000000000005a .LBE288
     /tmp/ccKmBXiy.s:752    .text.Endpoint_Write_Stream_BE:0000000000000096 .LBI290
     /tmp/ccKmBXiy.s:751    .text.Endpoint_Write_Stream_BE:0000000000000096 .LBB290
     /tmp/ccKmBXiy.s:761    .text.Endpoint_Write_Stream_BE:000000000000009a .LBE290
     /tmp/ccKmBXiy.s:13790  .debug_loc:0000000000002330 .LLST26
     /tmp/ccKmBXiy.s:13787  .debug_loc:000000000000232e .LVUS26
     /tmp/ccKmBXiy.s:629    .text.Endpoint_Write_Stream_BE:000000000000001c .LVL45
     /tmp/ccKmBXiy.s:739    .text.Endpoint_Write_Stream_BE:000000000000008c .LVL56
     /tmp/ccKmBXiy.s:374    .text.Endpoint_Write_Stream_LE:0000000000000000 .LFB91
     /tmp/ccKmBXiy.s:568    .text.Endpoint_Write_Stream_LE:000000000000009e .LFE91
     /tmp/ccKmBXiy.s:13797  .debug_loc:0000000000002343 .LLST11
     /tmp/ccKmBXiy.s:13867  .debug_loc:00000000000023d3 .LLST12
     /tmp/ccKmBXiy.s:13860  .debug_loc:00000000000023cd .LVUS12
     /tmp/ccKmBXiy.s:13902  .debug_loc:000000000000240f .LLST13
     /tmp/ccKmBXiy.s:13895  .debug_loc:0000000000002409 .LVUS13
     /tmp/ccKmBXiy.s:13941  .debug_loc:000000000000244f .LLST14
     /tmp/ccKmBXiy.s:13932  .debug_loc:0000000000002447 .LVUS14
     /tmp/ccKmBXiy.s:13985  .debug_loc:000000000000249b .LLST15
     /tmp/ccKmBXiy.s:13978  .debug_loc:0000000000002495 .LVUS15
     /tmp/ccKmBXiy.s:14022  .debug_loc:00000000000024d9 .LLST16
     /tmp/ccKmBXiy.s:14015  .debug_loc:00000000000024d3 .LVUS16
     /tmp/ccKmBXiy.s:14053  .debug_loc:0000000000002511 .LLST17
     /tmp/ccKmBXiy.s:14048  .debug_loc:000000000000250d .LVUS17
     /tmp/ccKmBXiy.s:467    .text.Endpoint_Write_Stream_LE:000000000000003e .LBI280
     /tmp/ccKmBXiy.s:466    .text.Endpoint_Write_Stream_LE:000000000000003e .LBB280
     /tmp/ccKmBXiy.s:474    .text.Endpoint_Write_Stream_LE:0000000000000042 .LBE280
     /tmp/ccKmBXiy.s:480    .text.Endpoint_Write_Stream_LE:0000000000000046 .LBI282
     /tmp/ccKmBXiy.s:479    .text.Endpoint_Write_Stream_LE:0000000000000046 .LBB282
     /tmp/ccKmBXiy.s:489    .text.Endpoint_Write_Stream_LE:0000000000000050 .LBE282
     /tmp/ccKmBXiy.s:544    .text.Endpoint_Write_Stream_LE:0000000000000090 .LBI284
     /tmp/ccKmBXiy.s:543    .text.Endpoint_Write_Stream_LE:0000000000000090 .LBB284
     /tmp/ccKmBXiy.s:553    .text.Endpoint_Write_Stream_LE:0000000000000094 .LBE284
     /tmp/ccKmBXiy.s:14067  .debug_loc:0000000000002531 .LLST18
     /tmp/ccKmBXiy.s:14064  .debug_loc:000000000000252f .LVUS18
     /tmp/ccKmBXiy.s:429    .text.Endpoint_Write_Stream_LE:000000000000001c .LVL29
     /tmp/ccKmBXiy.s:529    .text.Endpoint_Write_Stream_LE:0000000000000082 .LVL37
     /tmp/ccKmBXiy.s:196    .text.Endpoint_Null_Stream:0000000000000000 .LFB90
     /tmp/ccKmBXiy.s:367    .text.Endpoint_Null_Stream:000000000000008a .LFE90
     /tmp/ccKmBXiy.s:14074  .debug_loc:0000000000002544 .LLST5
     /tmp/ccKmBXiy.s:14132  .debug_loc:00000000000025ba .LLST6
     /tmp/ccKmBXiy.s:14125  .debug_loc:00000000000025b4 .LVUS6
     /tmp/ccKmBXiy.s:14171  .debug_loc:00000000000025fa .LLST7
     /tmp/ccKmBXiy.s:14162  .debug_loc:00000000000025f2 .LVUS7
     /tmp/ccKmBXiy.s:14213  .debug_loc:0000000000002644 .LLST8
     /tmp/ccKmBXiy.s:14208  .debug_loc:0000000000002640 .LVUS8
     /tmp/ccKmBXiy.s:14231  .debug_loc:0000000000002668 .LLST9
     /tmp/ccKmBXiy.s:14224  .debug_loc:0000000000002662 .LVUS9
     /tmp/ccKmBXiy.s:273    .text.Endpoint_Null_Stream:0000000000000034 .LBI274
     /tmp/ccKmBXiy.s:272    .text.Endpoint_Null_Stream:0000000000000034 .LBB274
     /tmp/ccKmBXiy.s:280    .text.Endpoint_Null_Stream:0000000000000038 .LBE274
     /tmp/ccKmBXiy.s:286    .text.Endpoint_Null_Stream:000000000000003c .LBI276
     /tmp/ccKmBXiy.s:285    .text.Endpoint_Null_Stream:000000000000003c .LBB276
     /tmp/ccKmBXiy.s:295    .text.Endpoint_Null_Stream:0000000000000046 .LBE276
     /tmp/ccKmBXiy.s:344    .text.Endpoint_Null_Stream:000000000000007c .LBI278
     /tmp/ccKmBXiy.s:343    .text.Endpoint_Null_Stream:000000000000007c .LBB278
     /tmp/ccKmBXiy.s:353    .text.Endpoint_Null_Stream:0000000000000080 .LBE278
     /tmp/ccKmBXiy.s:14260  .debug_loc:000000000000269e .LLST10
     /tmp/ccKmBXiy.s:14257  .debug_loc:000000000000269c .LVUS10
     /tmp/ccKmBXiy.s:240    .text.Endpoint_Null_Stream:0000000000000016 .LVL15
     /tmp/ccKmBXiy.s:333    .text.Endpoint_Null_Stream:0000000000000074 .LVL22
     /tmp/ccKmBXiy.s:17     .text.Endpoint_Discard_Stream:0000000000000000 .LFB89
     /tmp/ccKmBXiy.s:189    .text.Endpoint_Discard_Stream:000000000000008a .LFE89
     /tmp/ccKmBXiy.s:14268  .debug_loc:00000000000026b2 .LLST0
     /tmp/ccKmBXiy.s:14326  .debug_loc:0000000000002728 .LLST1
     /tmp/ccKmBXiy.s:14319  .debug_loc:0000000000002722 .LVUS1
     /tmp/ccKmBXiy.s:14365  .debug_loc:0000000000002768 .LLST2
     /tmp/ccKmBXiy.s:14356  .debug_loc:0000000000002760 .LVUS2
     /tmp/ccKmBXiy.s:14407  .debug_loc:00000000000027b2 .LLST3
     /tmp/ccKmBXiy.s:14402  .debug_loc:00000000000027ae .LVUS3
     /tmp/ccKmBXiy.s:14425  .debug_loc:00000000000027d6 .LLST4
     /tmp/ccKmBXiy.s:14418  .debug_loc:00000000000027d0 .LVUS4
     /tmp/ccKmBXiy.s:94     .text.Endpoint_Discard_Stream:0000000000000034 .LBI268
     /tmp/ccKmBXiy.s:93     .text.Endpoint_Discard_Stream:0000000000000034 .LBB268
     /tmp/ccKmBXiy.s:102    .text.Endpoint_Discard_Stream:0000000000000038 .LBE268
     /tmp/ccKmBXiy.s:108    .text.Endpoint_Discard_Stream:000000000000003c .LBI270
     /tmp/ccKmBXiy.s:107    .text.Endpoint_Discard_Stream:000000000000003c .LBB270
     /tmp/ccKmBXiy.s:117    .text.Endpoint_Discard_Stream:0000000000000046 .LBE270
     /tmp/ccKmBXiy.s:166    .text.Endpoint_Discard_Stream:000000000000007c .LBI272
     /tmp/ccKmBXiy.s:165    .text.Endpoint_Discard_Stream:000000000000007c .LBB272
     /tmp/ccKmBXiy.s:175    .text.Endpoint_Discard_Stream:0000000000000080 .LBE272
     /tmp/ccKmBXiy.s:61     .text.Endpoint_Discard_Stream:0000000000000016 .LVL2
     /tmp/ccKmBXiy.s:155    .text.Endpoint_Discard_Stream:0000000000000074 .LVL9
     /tmp/ccKmBXiy.s:4805   .text.Endpoint_Read_Control_EStream_BE:0000000000000002 .LCFI120
     /tmp/ccKmBXiy.s:4809   .text.Endpoint_Read_Control_EStream_BE:0000000000000004 .LCFI121
     /tmp/ccKmBXiy.s:4813   .text.Endpoint_Read_Control_EStream_BE:0000000000000006 .LCFI122
     /tmp/ccKmBXiy.s:4817   .text.Endpoint_Read_Control_EStream_BE:0000000000000008 .LCFI123
     /tmp/ccKmBXiy.s:4799   .text.Endpoint_Read_Control_EStream_BE:0000000000000000 .LVL393
     /tmp/ccKmBXiy.s:4838   .text.Endpoint_Read_Control_EStream_BE:0000000000000018 .LVL395
     /tmp/ccKmBXiy.s:4874   .text.Endpoint_Read_Control_EStream_BE:0000000000000030 .LVL396
     /tmp/ccKmBXiy.s:4926   .text.Endpoint_Read_Control_EStream_BE:0000000000000056 .LVL399
     /tmp/ccKmBXiy.s:4983   .text.Endpoint_Read_Control_EStream_BE:0000000000000084 .LVL405
     /tmp/ccKmBXiy.s:4833   .text.Endpoint_Read_Control_EStream_BE:0000000000000014 .LVL394
     /tmp/ccKmBXiy.s:4888   .text.Endpoint_Read_Control_EStream_BE:000000000000003e .LVL397
     /tmp/ccKmBXiy.s:4905   .text.Endpoint_Read_Control_EStream_BE:000000000000004a .LVL398
     /tmp/ccKmBXiy.s:4974   .text.Endpoint_Read_Control_EStream_BE:000000000000007c .LVL404
     /tmp/ccKmBXiy.s:4601   .text.Endpoint_Read_Control_EStream_LE:0000000000000002 .LCFI116
     /tmp/ccKmBXiy.s:4605   .text.Endpoint_Read_Control_EStream_LE:0000000000000004 .LCFI117
     /tmp/ccKmBXiy.s:4609   .text.Endpoint_Read_Control_EStream_LE:0000000000000006 .LCFI118
     /tmp/ccKmBXiy.s:4613   .text.Endpoint_Read_Control_EStream_LE:0000000000000008 .LCFI119
     /tmp/ccKmBXiy.s:4595   .text.Endpoint_Read_Control_EStream_LE:0000000000000000 .LVL378
     /tmp/ccKmBXiy.s:4628   .text.Endpoint_Read_Control_EStream_LE:0000000000000010 .LVL380
     /tmp/ccKmBXiy.s:4664   .text.Endpoint_Read_Control_EStream_LE:0000000000000028 .LVL381
     /tmp/ccKmBXiy.s:4716   .text.Endpoint_Read_Control_EStream_LE:000000000000004e .LVL384
     /tmp/ccKmBXiy.s:4773   .text.Endpoint_Read_Control_EStream_LE:000000000000007c .LVL390
     /tmp/ccKmBXiy.s:4623   .text.Endpoint_Read_Control_EStream_LE:000000000000000c .LVL379
     /tmp/ccKmBXiy.s:4678   .text.Endpoint_Read_Control_EStream_LE:0000000000000036 .LVL382
     /tmp/ccKmBXiy.s:4695   .text.Endpoint_Read_Control_EStream_LE:0000000000000042 .LVL383
     /tmp/ccKmBXiy.s:4764   .text.Endpoint_Read_Control_EStream_LE:0000000000000074 .LVL389
     /tmp/ccKmBXiy.s:4282   .text.Endpoint_Write_Control_EStream_BE:0000000000000002 .LCFI110
     /tmp/ccKmBXiy.s:4286   .text.Endpoint_Write_Control_EStream_BE:0000000000000004 .LCFI111
     /tmp/ccKmBXiy.s:4290   .text.Endpoint_Write_Control_EStream_BE:0000000000000006 .LCFI112
     /tmp/ccKmBXiy.s:4294   .text.Endpoint_Write_Control_EStream_BE:0000000000000008 .LCFI113
     /tmp/ccKmBXiy.s:4298   .text.Endpoint_Write_Control_EStream_BE:000000000000000a .LCFI114
     /tmp/ccKmBXiy.s:4302   .text.Endpoint_Write_Control_EStream_BE:000000000000000c .LCFI115
     /tmp/ccKmBXiy.s:4276   .text.Endpoint_Write_Control_EStream_BE:0000000000000000 .LVL352
     /tmp/ccKmBXiy.s:4332   .text.Endpoint_Write_Control_EStream_BE:000000000000002a .LVL354
     /tmp/ccKmBXiy.s:4379   .text.Endpoint_Write_Control_EStream_BE:000000000000004e .LVL360
     /tmp/ccKmBXiy.s:4389   .text.Endpoint_Write_Control_EStream_BE:0000000000000052 .LVL361
     /tmp/ccKmBXiy.s:4336   .text.Endpoint_Write_Control_EStream_BE:000000000000002c .LVL355
     /tmp/ccKmBXiy.s:4340   .text.Endpoint_Write_Control_EStream_BE:000000000000002e .LVL356
     /tmp/ccKmBXiy.s:4370   .text.Endpoint_Write_Control_EStream_BE:0000000000000044 .LVL358
     /tmp/ccKmBXiy.s:4395   .text.Endpoint_Write_Control_EStream_BE:000000000000005a .LVL362
     /tmp/ccKmBXiy.s:4499   .text.Endpoint_Write_Control_EStream_BE:00000000000000a8 .LVL367
     /tmp/ccKmBXiy.s:4502   .text.Endpoint_Write_Control_EStream_BE:00000000000000aa .LVL368
     /tmp/ccKmBXiy.s:4318   .text.Endpoint_Write_Control_EStream_BE:0000000000000018 .LVL353
     /tmp/ccKmBXiy.s:4374   .text.Endpoint_Write_Control_EStream_BE:0000000000000048 .LVL359
     /tmp/ccKmBXiy.s:4348   .text.Endpoint_Write_Control_EStream_BE:0000000000000036 .LVL357
     /tmp/ccKmBXiy.s:4464   .text.Endpoint_Write_Control_EStream_BE:0000000000000086 .LVL365
     /tmp/ccKmBXiy.s:4488   .text.Endpoint_Write_Control_EStream_BE:000000000000009e .LVL366
     /tmp/ccKmBXiy.s:4404   .text.Endpoint_Write_Control_EStream_BE:000000000000005e .LVL363
     /tmp/ccKmBXiy.s:4421   .text.Endpoint_Write_Control_EStream_BE:000000000000006a .LVL364
     /tmp/ccKmBXiy.s:4538   .text.Endpoint_Write_Control_EStream_BE:00000000000000c2 .LVL374
     /tmp/ccKmBXiy.s:4518   .text.Endpoint_Write_Control_EStream_BE:00000000000000b4 .LVL370
     /tmp/ccKmBXiy.s:4547   .text.Endpoint_Write_Control_EStream_BE:00000000000000c6 .LVL375
     /tmp/ccKmBXiy.s:4564   .text.Endpoint_Write_Control_EStream_BE:00000000000000d2 .LVL376
     /tmp/ccKmBXiy.s:3973   .text.Endpoint_Write_Control_EStream_LE:0000000000000002 .LCFI104
     /tmp/ccKmBXiy.s:3977   .text.Endpoint_Write_Control_EStream_LE:0000000000000004 .LCFI105
     /tmp/ccKmBXiy.s:3981   .text.Endpoint_Write_Control_EStream_LE:0000000000000006 .LCFI106
     /tmp/ccKmBXiy.s:3985   .text.Endpoint_Write_Control_EStream_LE:0000000000000008 .LCFI107
     /tmp/ccKmBXiy.s:3989   .text.Endpoint_Write_Control_EStream_LE:000000000000000a .LCFI108
     /tmp/ccKmBXiy.s:3993   .text.Endpoint_Write_Control_EStream_LE:000000000000000c .LCFI109
     /tmp/ccKmBXiy.s:3967   .text.Endpoint_Write_Control_EStream_LE:0000000000000000 .LVL329
     /tmp/ccKmBXiy.s:4002   .text.Endpoint_Write_Control_EStream_LE:0000000000000010 .LVL330
     /tmp/ccKmBXiy.s:4023   .text.Endpoint_Write_Control_EStream_LE:0000000000000026 .LVL331
     /tmp/ccKmBXiy.s:4062   .text.Endpoint_Write_Control_EStream_LE:0000000000000046 .LVL335
     /tmp/ccKmBXiy.s:4076   .text.Endpoint_Write_Control_EStream_LE:0000000000000052 .LVL336
     /tmp/ccKmBXiy.s:4053   .text.Endpoint_Write_Control_EStream_LE:000000000000003c .LVL333
     /tmp/ccKmBXiy.s:4180   .text.Endpoint_Write_Control_EStream_LE:00000000000000a0 .LVL341
     /tmp/ccKmBXiy.s:4183   .text.Endpoint_Write_Control_EStream_LE:00000000000000a2 .LVL342
     /tmp/ccKmBXiy.s:4057   .text.Endpoint_Write_Control_EStream_LE:0000000000000040 .LVL334
     /tmp/ccKmBXiy.s:4031   .text.Endpoint_Write_Control_EStream_LE:000000000000002e .LVL332
     /tmp/ccKmBXiy.s:4145   .text.Endpoint_Write_Control_EStream_LE:000000000000007e .LVL339
     /tmp/ccKmBXiy.s:4169   .text.Endpoint_Write_Control_EStream_LE:0000000000000096 .LVL340
     /tmp/ccKmBXiy.s:4085   .text.Endpoint_Write_Control_EStream_LE:0000000000000056 .LVL337
     /tmp/ccKmBXiy.s:4102   .text.Endpoint_Write_Control_EStream_LE:0000000000000062 .LVL338
     /tmp/ccKmBXiy.s:4219   .text.Endpoint_Write_Control_EStream_LE:00000000000000ba .LVL348
     /tmp/ccKmBXiy.s:4199   .text.Endpoint_Write_Control_EStream_LE:00000000000000ac .LVL344
     /tmp/ccKmBXiy.s:4228   .text.Endpoint_Write_Control_EStream_LE:00000000000000be .LVL349
     /tmp/ccKmBXiy.s:4245   .text.Endpoint_Write_Control_EStream_LE:00000000000000ca .LVL350
     /tmp/ccKmBXiy.s:3673   .text.Endpoint_Write_Control_PStream_BE:0000000000000000 .LVL305
     /tmp/ccKmBXiy.s:3704   .text.Endpoint_Write_Control_PStream_BE:000000000000001c .LVL307
     /tmp/ccKmBXiy.s:3738   .text.Endpoint_Write_Control_PStream_BE:0000000000000036 .LVL310
     /tmp/ccKmBXiy.s:3748   .text.Endpoint_Write_Control_PStream_BE:000000000000003a .LVL311
     /tmp/ccKmBXiy.s:3708   .text.Endpoint_Write_Control_PStream_BE:000000000000001e .LVL308
     /tmp/ccKmBXiy.s:3712   .text.Endpoint_Write_Control_PStream_BE:0000000000000020 .LVL309
     /tmp/ccKmBXiy.s:3754   .text.Endpoint_Write_Control_PStream_BE:0000000000000042 .LVL312
     /tmp/ccKmBXiy.s:3858   .text.Endpoint_Write_Control_PStream_BE:000000000000008c .LVL318
     /tmp/ccKmBXiy.s:3861   .text.Endpoint_Write_Control_PStream_BE:000000000000008e .LVL319
     /tmp/ccKmBXiy.s:3690   .text.Endpoint_Write_Control_PStream_BE:000000000000000a .LVL306
     /tmp/ccKmBXiy.s:3823   .text.Endpoint_Write_Control_PStream_BE:000000000000006e .LVL315
     /tmp/ccKmBXiy.s:3845   .text.Endpoint_Write_Control_PStream_BE:0000000000000082 .LVL316
     /tmp/ccKmBXiy.s:3906   .text.Endpoint_Write_Control_PStream_BE:000000000000009e .LVL325
     /tmp/ccKmBXiy.s:3763   .text.Endpoint_Write_Control_PStream_BE:0000000000000046 .LVL313
     /tmp/ccKmBXiy.s:3780   .text.Endpoint_Write_Control_PStream_BE:0000000000000052 .LVL314
     /tmp/ccKmBXiy.s:3854   .text.Endpoint_Write_Control_PStream_BE:0000000000000086 .LVL317
     /tmp/ccKmBXiy.s:3894   .text.Endpoint_Write_Control_PStream_BE:0000000000000096 .LVL322
     /tmp/ccKmBXiy.s:3876   .text.Endpoint_Write_Control_PStream_BE:0000000000000090 .LVL320
     /tmp/ccKmBXiy.s:3888   .text.Endpoint_Write_Control_PStream_BE:0000000000000094 .LVL321
     /tmp/ccKmBXiy.s:3915   .text.Endpoint_Write_Control_PStream_BE:00000000000000a2 .LVL326
     /tmp/ccKmBXiy.s:3932   .text.Endpoint_Write_Control_PStream_BE:00000000000000ae .LVL327
     /tmp/ccKmBXiy.s:3386   .text.Endpoint_Write_Control_PStream_LE:0000000000000000 .LVL281
     /tmp/ccKmBXiy.s:3404   .text.Endpoint_Write_Control_PStream_LE:000000000000000c .LVL283
     /tmp/ccKmBXiy.s:3420   .text.Endpoint_Write_Control_PStream_LE:000000000000001a .LVL285
     /tmp/ccKmBXiy.s:3446   .text.Endpoint_Write_Control_PStream_LE:000000000000002e .LVL287
     /tmp/ccKmBXiy.s:3460   .text.Endpoint_Write_Control_PStream_LE:000000000000003a .LVL288
     /tmp/ccKmBXiy.s:3416   .text.Endpoint_Write_Control_PStream_LE:0000000000000018 .LVL284
     /tmp/ccKmBXiy.s:3428   .text.Endpoint_Write_Control_PStream_LE:0000000000000022 .LVL286
     /tmp/ccKmBXiy.s:3564   .text.Endpoint_Write_Control_PStream_LE:0000000000000084 .LVL294
     /tmp/ccKmBXiy.s:3567   .text.Endpoint_Write_Control_PStream_LE:0000000000000086 .LVL295
     /tmp/ccKmBXiy.s:3612   .text.Endpoint_Write_Control_PStream_LE:0000000000000096 .LVL301
     /tmp/ccKmBXiy.s:3398   .text.Endpoint_Write_Control_PStream_LE:0000000000000004 .LVL282
     /tmp/ccKmBXiy.s:3529   .text.Endpoint_Write_Control_PStream_LE:0000000000000066 .LVL291
     /tmp/ccKmBXiy.s:3551   .text.Endpoint_Write_Control_PStream_LE:000000000000007a .LVL292
     /tmp/ccKmBXiy.s:3469   .text.Endpoint_Write_Control_PStream_LE:000000000000003e .LVL289
     /tmp/ccKmBXiy.s:3486   .text.Endpoint_Write_Control_PStream_LE:000000000000004a .LVL290
     /tmp/ccKmBXiy.s:3560   .text.Endpoint_Write_Control_PStream_LE:000000000000007e .LVL293
     /tmp/ccKmBXiy.s:3600   .text.Endpoint_Write_Control_PStream_LE:000000000000008e .LVL298
     /tmp/ccKmBXiy.s:3582   .text.Endpoint_Write_Control_PStream_LE:0000000000000088 .LVL296
     /tmp/ccKmBXiy.s:3594   .text.Endpoint_Write_Control_PStream_LE:000000000000008c .LVL297
     /tmp/ccKmBXiy.s:3621   .text.Endpoint_Write_Control_PStream_LE:000000000000009a .LVL302
     /tmp/ccKmBXiy.s:3638   .text.Endpoint_Write_Control_PStream_LE:00000000000000a6 .LVL303
     /tmp/ccKmBXiy.s:3196   .text.Endpoint_Read_Control_Stream_BE:0000000000000000 .LVL267
     /tmp/ccKmBXiy.s:3218   .text.Endpoint_Read_Control_Stream_BE:000000000000000e .LVL269
     /tmp/ccKmBXiy.s:3256   .text.Endpoint_Read_Control_Stream_BE:000000000000002a .LVL270
     /tmp/ccKmBXiy.s:3300   .text.Endpoint_Read_Control_Stream_BE:0000000000000046 .LVL273
     /tmp/ccKmBXiy.s:3356   .text.Endpoint_Read_Control_Stream_BE:0000000000000072 .LVL278
     /tmp/ccKmBXiy.s:3213   .text.Endpoint_Read_Control_Stream_BE:000000000000000a .LVL268
     /tmp/ccKmBXiy.s:3262   .text.Endpoint_Read_Control_Stream_BE:000000000000002e .LVL271
     /tmp/ccKmBXiy.s:3279   .text.Endpoint_Read_Control_Stream_BE:000000000000003a .LVL272
     /tmp/ccKmBXiy.s:3347   .text.Endpoint_Read_Control_Stream_BE:000000000000006a .LVL277
     /tmp/ccKmBXiy.s:3013   .text.Endpoint_Read_Control_Stream_LE:0000000000000000 .LVL252
     /tmp/ccKmBXiy.s:3025   .text.Endpoint_Read_Control_Stream_LE:0000000000000004 .LVL253
     /tmp/ccKmBXiy.s:3031   .text.Endpoint_Read_Control_Stream_LE:0000000000000008 .LVL254
     /tmp/ccKmBXiy.s:3051   .text.Endpoint_Read_Control_Stream_LE:0000000000000016 .LVL255
     /tmp/ccKmBXiy.s:3113   .text.Endpoint_Read_Control_Stream_LE:000000000000003e .LVL259
     /tmp/ccKmBXiy.s:3149   .text.Endpoint_Read_Control_Stream_LE:0000000000000058 .LVL262
     /tmp/ccKmBXiy.s:3069   .text.Endpoint_Read_Control_Stream_LE:0000000000000022 .LVL256
     /tmp/ccKmBXiy.s:3139   .text.Endpoint_Read_Control_Stream_LE:0000000000000050 .LVL260
     /tmp/ccKmBXiy.s:3166   .text.Endpoint_Read_Control_Stream_LE:0000000000000064 .LVL264
     /tmp/ccKmBXiy.s:3075   .text.Endpoint_Read_Control_Stream_LE:0000000000000026 .LVL257
     /tmp/ccKmBXiy.s:3092   .text.Endpoint_Read_Control_Stream_LE:0000000000000032 .LVL258
     /tmp/ccKmBXiy.s:3157   .text.Endpoint_Read_Control_Stream_LE:000000000000005c .LVL263
     /tmp/ccKmBXiy.s:2731   .text.Endpoint_Write_Control_Stream_BE:0000000000000000 .LVL228
     /tmp/ccKmBXiy.s:2762   .text.Endpoint_Write_Control_Stream_BE:000000000000001c .LVL230
     /tmp/ccKmBXiy.s:2796   .text.Endpoint_Write_Control_Stream_BE:0000000000000036 .LVL233
     /tmp/ccKmBXiy.s:2806   .text.Endpoint_Write_Control_Stream_BE:000000000000003a .LVL234
     /tmp/ccKmBXiy.s:2766   .text.Endpoint_Write_Control_Stream_BE:000000000000001e .LVL231
     /tmp/ccKmBXiy.s:2770   .text.Endpoint_Write_Control_Stream_BE:0000000000000020 .LVL232
     /tmp/ccKmBXiy.s:2812   .text.Endpoint_Write_Control_Stream_BE:0000000000000042 .LVL235
     /tmp/ccKmBXiy.s:2916   .text.Endpoint_Write_Control_Stream_BE:000000000000008c .LVL241
     /tmp/ccKmBXiy.s:2919   .text.Endpoint_Write_Control_Stream_BE:000000000000008e .LVL242
     /tmp/ccKmBXiy.s:2748   .text.Endpoint_Write_Control_Stream_BE:000000000000000a .LVL229
     /tmp/ccKmBXiy.s:2881   .text.Endpoint_Write_Control_Stream_BE:000000000000006e .LVL238
     /tmp/ccKmBXiy.s:2903   .text.Endpoint_Write_Control_Stream_BE:0000000000000082 .LVL239
     /tmp/ccKmBXiy.s:2952   .text.Endpoint_Write_Control_Stream_BE:000000000000009e .LVL248
     /tmp/ccKmBXiy.s:2821   .text.Endpoint_Write_Control_Stream_BE:0000000000000046 .LVL236
     /tmp/ccKmBXiy.s:2838   .text.Endpoint_Write_Control_Stream_BE:0000000000000052 .LVL237
     /tmp/ccKmBXiy.s:2912   .text.Endpoint_Write_Control_Stream_BE:0000000000000086 .LVL240
     /tmp/ccKmBXiy.s:2926   .text.Endpoint_Write_Control_Stream_BE:0000000000000090 .LVL243
     /tmp/ccKmBXiy.s:2934   .text.Endpoint_Write_Control_Stream_BE:0000000000000094 .LVL244
     /tmp/ccKmBXiy.s:2961   .text.Endpoint_Write_Control_Stream_BE:00000000000000a2 .LVL249
     /tmp/ccKmBXiy.s:2978   .text.Endpoint_Write_Control_Stream_BE:00000000000000ae .LVL250
     /tmp/ccKmBXiy.s:2457   .text.Endpoint_Write_Control_Stream_LE:0000000000000000 .LVL205
     /tmp/ccKmBXiy.s:2476   .text.Endpoint_Write_Control_Stream_LE:000000000000000c .LVL207
     /tmp/ccKmBXiy.s:2492   .text.Endpoint_Write_Control_Stream_LE:000000000000001a .LVL209
     /tmp/ccKmBXiy.s:2518   .text.Endpoint_Write_Control_Stream_LE:000000000000002e .LVL211
     /tmp/ccKmBXiy.s:2532   .text.Endpoint_Write_Control_Stream_LE:000000000000003a .LVL212
     /tmp/ccKmBXiy.s:2488   .text.Endpoint_Write_Control_Stream_LE:0000000000000018 .LVL208
     /tmp/ccKmBXiy.s:2500   .text.Endpoint_Write_Control_Stream_LE:0000000000000022 .LVL210
     /tmp/ccKmBXiy.s:2636   .text.Endpoint_Write_Control_Stream_LE:0000000000000084 .LVL218
     /tmp/ccKmBXiy.s:2639   .text.Endpoint_Write_Control_Stream_LE:0000000000000086 .LVL219
     /tmp/ccKmBXiy.s:2670   .text.Endpoint_Write_Control_Stream_LE:0000000000000094 .LVL224
     /tmp/ccKmBXiy.s:2470   .text.Endpoint_Write_Control_Stream_LE:0000000000000004 .LVL206
     /tmp/ccKmBXiy.s:2646   .text.Endpoint_Write_Control_Stream_LE:0000000000000088 .LVL220
     /tmp/ccKmBXiy.s:2654   .text.Endpoint_Write_Control_Stream_LE:000000000000008c .LVL221
     /tmp/ccKmBXiy.s:2601   .text.Endpoint_Write_Control_Stream_LE:0000000000000066 .LVL215
     /tmp/ccKmBXiy.s:2623   .text.Endpoint_Write_Control_Stream_LE:000000000000007a .LVL216
     /tmp/ccKmBXiy.s:2541   .text.Endpoint_Write_Control_Stream_LE:000000000000003e .LVL213
     /tmp/ccKmBXiy.s:2558   .text.Endpoint_Write_Control_Stream_LE:000000000000004a .LVL214
     /tmp/ccKmBXiy.s:2632   .text.Endpoint_Write_Control_Stream_LE:000000000000007e .LVL217
     /tmp/ccKmBXiy.s:2679   .text.Endpoint_Write_Control_Stream_LE:0000000000000098 .LVL225
     /tmp/ccKmBXiy.s:2696   .text.Endpoint_Write_Control_Stream_LE:00000000000000a4 .LVL226
     /tmp/ccKmBXiy.s:2252   .text.Endpoint_Read_EStream_BE:0000000000000002 .LCFI95
     /tmp/ccKmBXiy.s:2256   .text.Endpoint_Read_EStream_BE:0000000000000004 .LCFI96
     /tmp/ccKmBXiy.s:2260   .text.Endpoint_Read_EStream_BE:0000000000000006 .LCFI97
     /tmp/ccKmBXiy.s:2264   .text.Endpoint_Read_EStream_BE:0000000000000008 .LCFI98
     /tmp/ccKmBXiy.s:2268   .text.Endpoint_Read_EStream_BE:000000000000000a .LCFI99
     /tmp/ccKmBXiy.s:2272   .text.Endpoint_Read_EStream_BE:000000000000000c .LCFI100
     /tmp/ccKmBXiy.s:2276   .text.Endpoint_Read_EStream_BE:000000000000000e .LCFI101
     /tmp/ccKmBXiy.s:2280   .text.Endpoint_Read_EStream_BE:0000000000000010 .LCFI102
     /tmp/ccKmBXiy.s:2284   .text.Endpoint_Read_EStream_BE:0000000000000012 .LCFI103
     /tmp/ccKmBXiy.s:2246   .text.Endpoint_Read_EStream_BE:0000000000000000 .LVL186
     /tmp/ccKmBXiy.s:2315   .text.Endpoint_Read_EStream_BE:000000000000002a .LVL191
     /tmp/ccKmBXiy.s:2345   .text.Endpoint_Read_EStream_BE:0000000000000048 .LVL196
     /tmp/ccKmBXiy.s:2441   .text.Endpoint_Read_EStream_BE:00000000000000a4 .LVL203
     /tmp/ccKmBXiy.s:2400   .text.Endpoint_Read_EStream_BE:0000000000000080 .LVL197
     /tmp/ccKmBXiy.s:2406   .text.Endpoint_Read_EStream_BE:0000000000000088 .LVL198
     /tmp/ccKmBXiy.s:2295   .text.Endpoint_Read_EStream_BE:0000000000000018 .LVL187
     /tmp/ccKmBXiy.s:2311   .text.Endpoint_Read_EStream_BE:0000000000000026 .LVL190
     /tmp/ccKmBXiy.s:2326   .text.Endpoint_Read_EStream_BE:0000000000000036 .LVL192
     /tmp/ccKmBXiy.s:2330   .text.Endpoint_Read_EStream_BE:000000000000003a .LVL193
     /tmp/ccKmBXiy.s:2334   .text.Endpoint_Read_EStream_BE:000000000000003e .LVL194
     /tmp/ccKmBXiy.s:2339   .text.Endpoint_Read_EStream_BE:0000000000000042 .LVL195
     /tmp/ccKmBXiy.s:2436   .text.Endpoint_Read_EStream_BE:00000000000000a0 .LVL202
     /tmp/ccKmBXiy.s:2447   .text.Endpoint_Read_EStream_BE:00000000000000aa .LVL204
     /tmp/ccKmBXiy.s:2304   .text.Endpoint_Read_EStream_BE:000000000000001e .LVL189
     /tmp/ccKmBXiy.s:2418   .text.Endpoint_Read_EStream_BE:0000000000000094 .LVL200
     /tmp/ccKmBXiy.s:2051   .text.Endpoint_Read_EStream_LE:0000000000000002 .LCFI86
     /tmp/ccKmBXiy.s:2055   .text.Endpoint_Read_EStream_LE:0000000000000004 .LCFI87
     /tmp/ccKmBXiy.s:2059   .text.Endpoint_Read_EStream_LE:0000000000000006 .LCFI88
     /tmp/ccKmBXiy.s:2063   .text.Endpoint_Read_EStream_LE:0000000000000008 .LCFI89
     /tmp/ccKmBXiy.s:2067   .text.Endpoint_Read_EStream_LE:000000000000000a .LCFI90
     /tmp/ccKmBXiy.s:2071   .text.Endpoint_Read_EStream_LE:000000000000000c .LCFI91
     /tmp/ccKmBXiy.s:2075   .text.Endpoint_Read_EStream_LE:000000000000000e .LCFI92
     /tmp/ccKmBXiy.s:2079   .text.Endpoint_Read_EStream_LE:0000000000000010 .LCFI93
     /tmp/ccKmBXiy.s:2083   .text.Endpoint_Read_EStream_LE:0000000000000012 .LCFI94
     /tmp/ccKmBXiy.s:2045   .text.Endpoint_Read_EStream_LE:0000000000000000 .LVL170
     /tmp/ccKmBXiy.s:2124   .text.Endpoint_Read_EStream_LE:0000000000000036 .LVL175
     /tmp/ccKmBXiy.s:2134   .text.Endpoint_Read_EStream_LE:000000000000003e .LVL177
     /tmp/ccKmBXiy.s:2230   .text.Endpoint_Read_EStream_LE:000000000000009a .LVL184
     /tmp/ccKmBXiy.s:2189   .text.Endpoint_Read_EStream_LE:0000000000000076 .LVL178
     /tmp/ccKmBXiy.s:2195   .text.Endpoint_Read_EStream_LE:000000000000007e .LVL179
     /tmp/ccKmBXiy.s:2094   .text.Endpoint_Read_EStream_LE:0000000000000018 .LVL171
     /tmp/ccKmBXiy.s:2226   .text.Endpoint_Read_EStream_LE:0000000000000098 .LVL183
     /tmp/ccKmBXiy.s:2129   .text.Endpoint_Read_EStream_LE:000000000000003a .LVL176
     /tmp/ccKmBXiy.s:2236   .text.Endpoint_Read_EStream_LE:00000000000000a0 .LVL185
     /tmp/ccKmBXiy.s:2103   .text.Endpoint_Read_EStream_LE:000000000000001e .LVL173
     /tmp/ccKmBXiy.s:2207   .text.Endpoint_Read_EStream_LE:000000000000008a .LVL181
     /tmp/ccKmBXiy.s:1839   .text.Endpoint_Write_EStream_BE:0000000000000002 .LCFI77
     /tmp/ccKmBXiy.s:1843   .text.Endpoint_Write_EStream_BE:0000000000000004 .LCFI78
     /tmp/ccKmBXiy.s:1847   .text.Endpoint_Write_EStream_BE:0000000000000006 .LCFI79
     /tmp/ccKmBXiy.s:1851   .text.Endpoint_Write_EStream_BE:0000000000000008 .LCFI80
     /tmp/ccKmBXiy.s:1855   .text.Endpoint_Write_EStream_BE:000000000000000a .LCFI81
     /tmp/ccKmBXiy.s:1859   .text.Endpoint_Write_EStream_BE:000000000000000c .LCFI82
     /tmp/ccKmBXiy.s:1863   .text.Endpoint_Write_EStream_BE:000000000000000e .LCFI83
     /tmp/ccKmBXiy.s:1867   .text.Endpoint_Write_EStream_BE:0000000000000010 .LCFI84
     /tmp/ccKmBXiy.s:1871   .text.Endpoint_Write_EStream_BE:0000000000000012 .LCFI85
     /tmp/ccKmBXiy.s:1833   .text.Endpoint_Write_EStream_BE:0000000000000000 .LVL150
     /tmp/ccKmBXiy.s:1902   .text.Endpoint_Write_EStream_BE:000000000000002a .LVL155
     /tmp/ccKmBXiy.s:1932   .text.Endpoint_Write_EStream_BE:0000000000000048 .LVL160
     /tmp/ccKmBXiy.s:2029   .text.Endpoint_Write_EStream_BE:00000000000000a4 .LVL168
     /tmp/ccKmBXiy.s:1987   .text.Endpoint_Write_EStream_BE:0000000000000080 .LVL161
     /tmp/ccKmBXiy.s:1993   .text.Endpoint_Write_EStream_BE:0000000000000088 .LVL162
     /tmp/ccKmBXiy.s:1882   .text.Endpoint_Write_EStream_BE:0000000000000018 .LVL151
     /tmp/ccKmBXiy.s:1898   .text.Endpoint_Write_EStream_BE:0000000000000026 .LVL154
     /tmp/ccKmBXiy.s:1913   .text.Endpoint_Write_EStream_BE:0000000000000036 .LVL156
     /tmp/ccKmBXiy.s:1917   .text.Endpoint_Write_EStream_BE:000000000000003a .LVL157
     /tmp/ccKmBXiy.s:1921   .text.Endpoint_Write_EStream_BE:000000000000003e .LVL158
     /tmp/ccKmBXiy.s:1926   .text.Endpoint_Write_EStream_BE:0000000000000042 .LVL159
     /tmp/ccKmBXiy.s:2024   .text.Endpoint_Write_EStream_BE:00000000000000a0 .LVL167
     /tmp/ccKmBXiy.s:2035   .text.Endpoint_Write_EStream_BE:00000000000000aa .LVL169
     /tmp/ccKmBXiy.s:1891   .text.Endpoint_Write_EStream_BE:000000000000001e .LVL153
     /tmp/ccKmBXiy.s:2005   .text.Endpoint_Write_EStream_BE:0000000000000094 .LVL164
     /tmp/ccKmBXiy.s:2018   .text.Endpoint_Write_EStream_BE:000000000000009e .LVL166
     /tmp/ccKmBXiy.s:1637   .text.Endpoint_Write_EStream_LE:0000000000000002 .LCFI68
     /tmp/ccKmBXiy.s:1641   .text.Endpoint_Write_EStream_LE:0000000000000004 .LCFI69
     /tmp/ccKmBXiy.s:1645   .text.Endpoint_Write_EStream_LE:0000000000000006 .LCFI70
     /tmp/ccKmBXiy.s:1649   .text.Endpoint_Write_EStream_LE:0000000000000008 .LCFI71
     /tmp/ccKmBXiy.s:1653   .text.Endpoint_Write_EStream_LE:000000000000000a .LCFI72
     /tmp/ccKmBXiy.s:1657   .text.Endpoint_Write_EStream_LE:000000000000000c .LCFI73
     /tmp/ccKmBXiy.s:1661   .text.Endpoint_Write_EStream_LE:000000000000000e .LCFI74
     /tmp/ccKmBXiy.s:1665   .text.Endpoint_Write_EStream_LE:0000000000000010 .LCFI75
     /tmp/ccKmBXiy.s:1669   .text.Endpoint_Write_EStream_LE:0000000000000012 .LCFI76
     /tmp/ccKmBXiy.s:1631   .text.Endpoint_Write_EStream_LE:0000000000000000 .LVL133
     /tmp/ccKmBXiy.s:1710   .text.Endpoint_Write_EStream_LE:0000000000000036 .LVL138
     /tmp/ccKmBXiy.s:1720   .text.Endpoint_Write_EStream_LE:000000000000003e .LVL140
     /tmp/ccKmBXiy.s:1817   .text.Endpoint_Write_EStream_LE:000000000000009a .LVL148
     /tmp/ccKmBXiy.s:1775   .text.Endpoint_Write_EStream_LE:0000000000000076 .LVL141
     /tmp/ccKmBXiy.s:1781   .text.Endpoint_Write_EStream_LE:000000000000007e .LVL142
     /tmp/ccKmBXiy.s:1680   .text.Endpoint_Write_EStream_LE:0000000000000018 .LVL134
     /tmp/ccKmBXiy.s:1813   .text.Endpoint_Write_EStream_LE:0000000000000098 .LVL147
     /tmp/ccKmBXiy.s:1715   .text.Endpoint_Write_EStream_LE:000000000000003a .LVL139
     /tmp/ccKmBXiy.s:1823   .text.Endpoint_Write_EStream_LE:00000000000000a0 .LVL149
     /tmp/ccKmBXiy.s:1689   .text.Endpoint_Write_EStream_LE:000000000000001e .LVL136
     /tmp/ccKmBXiy.s:1793   .text.Endpoint_Write_EStream_LE:000000000000008a .LVL144
     /tmp/ccKmBXiy.s:1806   .text.Endpoint_Write_EStream_LE:0000000000000094 .LVL146
     /tmp/ccKmBXiy.s:1413   .text.Endpoint_Write_PStream_BE:0000000000000002 .LCFI59
     /tmp/ccKmBXiy.s:1417   .text.Endpoint_Write_PStream_BE:0000000000000004 .LCFI60
     /tmp/ccKmBXiy.s:1421   .text.Endpoint_Write_PStream_BE:0000000000000006 .LCFI61
     /tmp/ccKmBXiy.s:1425   .text.Endpoint_Write_PStream_BE:0000000000000008 .LCFI62
     /tmp/ccKmBXiy.s:1429   .text.Endpoint_Write_PStream_BE:000000000000000a .LCFI63
     /tmp/ccKmBXiy.s:1433   .text.Endpoint_Write_PStream_BE:000000000000000c .LCFI64
     /tmp/ccKmBXiy.s:1437   .text.Endpoint_Write_PStream_BE:000000000000000e .LCFI65
     /tmp/ccKmBXiy.s:1441   .text.Endpoint_Write_PStream_BE:0000000000000010 .LCFI66
     /tmp/ccKmBXiy.s:1445   .text.Endpoint_Write_PStream_BE:0000000000000012 .LCFI67
     /tmp/ccKmBXiy.s:1407   .text.Endpoint_Write_PStream_BE:0000000000000000 .LVL113
     /tmp/ccKmBXiy.s:1476   .text.Endpoint_Write_PStream_BE:000000000000002a .LVL118
     /tmp/ccKmBXiy.s:1506   .text.Endpoint_Write_PStream_BE:0000000000000048 .LVL123
     /tmp/ccKmBXiy.s:1615   .text.Endpoint_Write_PStream_BE:00000000000000a2 .LVL131
     /tmp/ccKmBXiy.s:1561   .text.Endpoint_Write_PStream_BE:0000000000000080 .LVL124
     /tmp/ccKmBXiy.s:1567   .text.Endpoint_Write_PStream_BE:0000000000000088 .LVL125
     /tmp/ccKmBXiy.s:1456   .text.Endpoint_Write_PStream_BE:0000000000000018 .LVL114
     /tmp/ccKmBXiy.s:1472   .text.Endpoint_Write_PStream_BE:0000000000000026 .LVL117
     /tmp/ccKmBXiy.s:1487   .text.Endpoint_Write_PStream_BE:0000000000000036 .LVL119
     /tmp/ccKmBXiy.s:1491   .text.Endpoint_Write_PStream_BE:000000000000003a .LVL120
     /tmp/ccKmBXiy.s:1495   .text.Endpoint_Write_PStream_BE:000000000000003e .LVL121
     /tmp/ccKmBXiy.s:1500   .text.Endpoint_Write_PStream_BE:0000000000000042 .LVL122
     /tmp/ccKmBXiy.s:1610   .text.Endpoint_Write_PStream_BE:000000000000009e .LVL130
     /tmp/ccKmBXiy.s:1621   .text.Endpoint_Write_PStream_BE:00000000000000a8 .LVL132
     /tmp/ccKmBXiy.s:1465   .text.Endpoint_Write_PStream_BE:000000000000001e .LVL116
     /tmp/ccKmBXiy.s:1579   .text.Endpoint_Write_PStream_BE:0000000000000094 .LVL127
     /tmp/ccKmBXiy.s:1592   .text.Endpoint_Write_PStream_BE:0000000000000098 .LVL128
     /tmp/ccKmBXiy.s:1604   .text.Endpoint_Write_PStream_BE:000000000000009c .LVL129
     /tmp/ccKmBXiy.s:1199   .text.Endpoint_Write_PStream_LE:0000000000000002 .LCFI50
     /tmp/ccKmBXiy.s:1203   .text.Endpoint_Write_PStream_LE:0000000000000004 .LCFI51
     /tmp/ccKmBXiy.s:1207   .text.Endpoint_Write_PStream_LE:0000000000000006 .LCFI52
     /tmp/ccKmBXiy.s:1211   .text.Endpoint_Write_PStream_LE:0000000000000008 .LCFI53
     /tmp/ccKmBXiy.s:1215   .text.Endpoint_Write_PStream_LE:000000000000000a .LCFI54
     /tmp/ccKmBXiy.s:1219   .text.Endpoint_Write_PStream_LE:000000000000000c .LCFI55
     /tmp/ccKmBXiy.s:1223   .text.Endpoint_Write_PStream_LE:000000000000000e .LCFI56
     /tmp/ccKmBXiy.s:1227   .text.Endpoint_Write_PStream_LE:0000000000000010 .LCFI57
     /tmp/ccKmBXiy.s:1231   .text.Endpoint_Write_PStream_LE:0000000000000012 .LCFI58
     /tmp/ccKmBXiy.s:1193   .text.Endpoint_Write_PStream_LE:0000000000000000 .LVL96
     /tmp/ccKmBXiy.s:1272   .text.Endpoint_Write_PStream_LE:0000000000000036 .LVL101
     /tmp/ccKmBXiy.s:1282   .text.Endpoint_Write_PStream_LE:000000000000003e .LVL103
     /tmp/ccKmBXiy.s:1391   .text.Endpoint_Write_PStream_LE:0000000000000098 .LVL111
     /tmp/ccKmBXiy.s:1337   .text.Endpoint_Write_PStream_LE:0000000000000076 .LVL104
     /tmp/ccKmBXiy.s:1343   .text.Endpoint_Write_PStream_LE:000000000000007e .LVL105
     /tmp/ccKmBXiy.s:1242   .text.Endpoint_Write_PStream_LE:0000000000000018 .LVL97
     /tmp/ccKmBXiy.s:1387   .text.Endpoint_Write_PStream_LE:0000000000000096 .LVL110
     /tmp/ccKmBXiy.s:1277   .text.Endpoint_Write_PStream_LE:000000000000003a .LVL102
     /tmp/ccKmBXiy.s:1397   .text.Endpoint_Write_PStream_LE:000000000000009e .LVL112
     /tmp/ccKmBXiy.s:1251   .text.Endpoint_Write_PStream_LE:000000000000001e .LVL99
     /tmp/ccKmBXiy.s:1355   .text.Endpoint_Write_PStream_LE:000000000000008a .LVL107
     /tmp/ccKmBXiy.s:1368   .text.Endpoint_Write_PStream_LE:000000000000008e .LVL108
     /tmp/ccKmBXiy.s:1380   .text.Endpoint_Write_PStream_LE:0000000000000092 .LVL109
     /tmp/ccKmBXiy.s:990    .text.Endpoint_Read_Stream_BE:0000000000000002 .LCFI41
     /tmp/ccKmBXiy.s:994    .text.Endpoint_Read_Stream_BE:0000000000000004 .LCFI42
     /tmp/ccKmBXiy.s:998    .text.Endpoint_Read_Stream_BE:0000000000000006 .LCFI43
     /tmp/ccKmBXiy.s:1002   .text.Endpoint_Read_Stream_BE:0000000000000008 .LCFI44
     /tmp/ccKmBXiy.s:1006   .text.Endpoint_Read_Stream_BE:000000000000000a .LCFI45
     /tmp/ccKmBXiy.s:1010   .text.Endpoint_Read_Stream_BE:000000000000000c .LCFI46
     /tmp/ccKmBXiy.s:1014   .text.Endpoint_Read_Stream_BE:000000000000000e .LCFI47
     /tmp/ccKmBXiy.s:1018   .text.Endpoint_Read_Stream_BE:0000000000000010 .LCFI48
     /tmp/ccKmBXiy.s:1022   .text.Endpoint_Read_Stream_BE:0000000000000012 .LCFI49
     /tmp/ccKmBXiy.s:984    .text.Endpoint_Read_Stream_BE:0000000000000000 .LVL78
     /tmp/ccKmBXiy.s:1053   .text.Endpoint_Read_Stream_BE:000000000000002a .LVL83
     /tmp/ccKmBXiy.s:1083   .text.Endpoint_Read_Stream_BE:0000000000000048 .LVL88
     /tmp/ccKmBXiy.s:1177   .text.Endpoint_Read_Stream_BE:00000000000000a0 .LVL94
     /tmp/ccKmBXiy.s:1138   .text.Endpoint_Read_Stream_BE:0000000000000080 .LVL89
     /tmp/ccKmBXiy.s:1144   .text.Endpoint_Read_Stream_BE:0000000000000088 .LVL90
     /tmp/ccKmBXiy.s:1033   .text.Endpoint_Read_Stream_BE:0000000000000018 .LVL79
     /tmp/ccKmBXiy.s:1049   .text.Endpoint_Read_Stream_BE:0000000000000026 .LVL82
     /tmp/ccKmBXiy.s:1064   .text.Endpoint_Read_Stream_BE:0000000000000036 .LVL84
     /tmp/ccKmBXiy.s:1068   .text.Endpoint_Read_Stream_BE:000000000000003a .LVL85
     /tmp/ccKmBXiy.s:1072   .text.Endpoint_Read_Stream_BE:000000000000003e .LVL86
     /tmp/ccKmBXiy.s:1077   .text.Endpoint_Read_Stream_BE:0000000000000042 .LVL87
     /tmp/ccKmBXiy.s:1172   .text.Endpoint_Read_Stream_BE:000000000000009c .LVL93
     /tmp/ccKmBXiy.s:1183   .text.Endpoint_Read_Stream_BE:00000000000000a6 .LVL95
     /tmp/ccKmBXiy.s:1042   .text.Endpoint_Read_Stream_BE:000000000000001e .LVL81
     /tmp/ccKmBXiy.s:1156   .text.Endpoint_Read_Stream_BE:0000000000000094 .LVL92
     /tmp/ccKmBXiy.s:791    .text.Endpoint_Read_Stream_LE:0000000000000002 .LCFI32
     /tmp/ccKmBXiy.s:795    .text.Endpoint_Read_Stream_LE:0000000000000004 .LCFI33
     /tmp/ccKmBXiy.s:799    .text.Endpoint_Read_Stream_LE:0000000000000006 .LCFI34
     /tmp/ccKmBXiy.s:803    .text.Endpoint_Read_Stream_LE:0000000000000008 .LCFI35
     /tmp/ccKmBXiy.s:807    .text.Endpoint_Read_Stream_LE:000000000000000a .LCFI36
     /tmp/ccKmBXiy.s:811    .text.Endpoint_Read_Stream_LE:000000000000000c .LCFI37
     /tmp/ccKmBXiy.s:815    .text.Endpoint_Read_Stream_LE:000000000000000e .LCFI38
     /tmp/ccKmBXiy.s:819    .text.Endpoint_Read_Stream_LE:0000000000000010 .LCFI39
     /tmp/ccKmBXiy.s:823    .text.Endpoint_Read_Stream_LE:0000000000000012 .LCFI40
     /tmp/ccKmBXiy.s:785    .text.Endpoint_Read_Stream_LE:0000000000000000 .LVL63
     /tmp/ccKmBXiy.s:864    .text.Endpoint_Read_Stream_LE:0000000000000036 .LVL68
     /tmp/ccKmBXiy.s:874    .text.Endpoint_Read_Stream_LE:000000000000003e .LVL70
     /tmp/ccKmBXiy.s:968    .text.Endpoint_Read_Stream_LE:0000000000000096 .LVL76
     /tmp/ccKmBXiy.s:927    .text.Endpoint_Read_Stream_LE:0000000000000072 .LVL71
     /tmp/ccKmBXiy.s:935    .text.Endpoint_Read_Stream_LE:000000000000007e .LVL72
     /tmp/ccKmBXiy.s:834    .text.Endpoint_Read_Stream_LE:0000000000000018 .LVL64
     /tmp/ccKmBXiy.s:964    .text.Endpoint_Read_Stream_LE:0000000000000094 .LVL75
     /tmp/ccKmBXiy.s:869    .text.Endpoint_Read_Stream_LE:000000000000003a .LVL69
     /tmp/ccKmBXiy.s:974    .text.Endpoint_Read_Stream_LE:000000000000009c .LVL77
     /tmp/ccKmBXiy.s:843    .text.Endpoint_Read_Stream_LE:000000000000001e .LVL66
     /tmp/ccKmBXiy.s:947    .text.Endpoint_Read_Stream_LE:000000000000008a .LVL74
     /tmp/ccKmBXiy.s:580    .text.Endpoint_Write_Stream_BE:0000000000000002 .LCFI23
     /tmp/ccKmBXiy.s:584    .text.Endpoint_Write_Stream_BE:0000000000000004 .LCFI24
     /tmp/ccKmBXiy.s:588    .text.Endpoint_Write_Stream_BE:0000000000000006 .LCFI25
     /tmp/ccKmBXiy.s:592    .text.Endpoint_Write_Stream_BE:0000000000000008 .LCFI26
     /tmp/ccKmBXiy.s:596    .text.Endpoint_Write_Stream_BE:000000000000000a .LCFI27
     /tmp/ccKmBXiy.s:600    .text.Endpoint_Write_Stream_BE:000000000000000c .LCFI28
     /tmp/ccKmBXiy.s:604    .text.Endpoint_Write_Stream_BE:000000000000000e .LCFI29
     /tmp/ccKmBXiy.s:608    .text.Endpoint_Write_Stream_BE:0000000000000010 .LCFI30
     /tmp/ccKmBXiy.s:612    .text.Endpoint_Write_Stream_BE:0000000000000012 .LCFI31
     /tmp/ccKmBXiy.s:574    .text.Endpoint_Write_Stream_BE:0000000000000000 .LVL43
     /tmp/ccKmBXiy.s:643    .text.Endpoint_Write_Stream_BE:000000000000002a .LVL48
     /tmp/ccKmBXiy.s:673    .text.Endpoint_Write_Stream_BE:0000000000000048 .LVL53
     /tmp/ccKmBXiy.s:769    .text.Endpoint_Write_Stream_BE:00000000000000a0 .LVL61
     /tmp/ccKmBXiy.s:728    .text.Endpoint_Write_Stream_BE:0000000000000080 .LVL54
     /tmp/ccKmBXiy.s:734    .text.Endpoint_Write_Stream_BE:0000000000000088 .LVL55
     /tmp/ccKmBXiy.s:623    .text.Endpoint_Write_Stream_BE:0000000000000018 .LVL44
     /tmp/ccKmBXiy.s:639    .text.Endpoint_Write_Stream_BE:0000000000000026 .LVL47
     /tmp/ccKmBXiy.s:654    .text.Endpoint_Write_Stream_BE:0000000000000036 .LVL49
     /tmp/ccKmBXiy.s:658    .text.Endpoint_Write_Stream_BE:000000000000003a .LVL50
     /tmp/ccKmBXiy.s:662    .text.Endpoint_Write_Stream_BE:000000000000003e .LVL51
     /tmp/ccKmBXiy.s:667    .text.Endpoint_Write_Stream_BE:0000000000000042 .LVL52
     /tmp/ccKmBXiy.s:764    .text.Endpoint_Write_Stream_BE:000000000000009c .LVL60
     /tmp/ccKmBXiy.s:775    .text.Endpoint_Write_Stream_BE:00000000000000a6 .LVL62
     /tmp/ccKmBXiy.s:632    .text.Endpoint_Write_Stream_BE:000000000000001e .LVL46
     /tmp/ccKmBXiy.s:746    .text.Endpoint_Write_Stream_BE:0000000000000094 .LVL57
     /tmp/ccKmBXiy.s:750    .text.Endpoint_Write_Stream_BE:0000000000000096 .LVL58
     /tmp/ccKmBXiy.s:758    .text.Endpoint_Write_Stream_BE:000000000000009a .LVL59
     /tmp/ccKmBXiy.s:380    .text.Endpoint_Write_Stream_LE:0000000000000002 .LCFI14
     /tmp/ccKmBXiy.s:384    .text.Endpoint_Write_Stream_LE:0000000000000004 .LCFI15
     /tmp/ccKmBXiy.s:388    .text.Endpoint_Write_Stream_LE:0000000000000006 .LCFI16
     /tmp/ccKmBXiy.s:392    .text.Endpoint_Write_Stream_LE:0000000000000008 .LCFI17
     /tmp/ccKmBXiy.s:396    .text.Endpoint_Write_Stream_LE:000000000000000a .LCFI18
     /tmp/ccKmBXiy.s:400    .text.Endpoint_Write_Stream_LE:000000000000000c .LCFI19
     /tmp/ccKmBXiy.s:404    .text.Endpoint_Write_Stream_LE:000000000000000e .LCFI20
     /tmp/ccKmBXiy.s:408    .text.Endpoint_Write_Stream_LE:0000000000000010 .LCFI21
     /tmp/ccKmBXiy.s:412    .text.Endpoint_Write_Stream_LE:0000000000000012 .LCFI22
     /tmp/ccKmBXiy.s:373    .text.Endpoint_Write_Stream_LE:0000000000000000 .LVL27
     /tmp/ccKmBXiy.s:453    .text.Endpoint_Write_Stream_LE:0000000000000036 .LVL32
     /tmp/ccKmBXiy.s:463    .text.Endpoint_Write_Stream_LE:000000000000003e .LVL34
     /tmp/ccKmBXiy.s:558    .text.Endpoint_Write_Stream_LE:0000000000000096 .LVL41
     /tmp/ccKmBXiy.s:516    .text.Endpoint_Write_Stream_LE:0000000000000072 .LVL35
     /tmp/ccKmBXiy.s:524    .text.Endpoint_Write_Stream_LE:000000000000007e .LVL36
     /tmp/ccKmBXiy.s:423    .text.Endpoint_Write_Stream_LE:0000000000000018 .LVL28
     /tmp/ccKmBXiy.s:550    .text.Endpoint_Write_Stream_LE:0000000000000094 .LVL40
     /tmp/ccKmBXiy.s:458    .text.Endpoint_Write_Stream_LE:000000000000003a .LVL33
     /tmp/ccKmBXiy.s:564    .text.Endpoint_Write_Stream_LE:000000000000009c .LVL42
     /tmp/ccKmBXiy.s:432    .text.Endpoint_Write_Stream_LE:000000000000001e .LVL30
     /tmp/ccKmBXiy.s:536    .text.Endpoint_Write_Stream_LE:000000000000008a .LVL38
     /tmp/ccKmBXiy.s:542    .text.Endpoint_Write_Stream_LE:0000000000000090 .LVL39
     /tmp/ccKmBXiy.s:201    .text.Endpoint_Null_Stream:0000000000000002 .LCFI7
     /tmp/ccKmBXiy.s:205    .text.Endpoint_Null_Stream:0000000000000004 .LCFI8
     /tmp/ccKmBXiy.s:209    .text.Endpoint_Null_Stream:0000000000000006 .LCFI9
     /tmp/ccKmBXiy.s:213    .text.Endpoint_Null_Stream:0000000000000008 .LCFI10
     /tmp/ccKmBXiy.s:217    .text.Endpoint_Null_Stream:000000000000000a .LCFI11
     /tmp/ccKmBXiy.s:221    .text.Endpoint_Null_Stream:000000000000000c .LCFI12
     /tmp/ccKmBXiy.s:225    .text.Endpoint_Null_Stream:000000000000000e .LCFI13
     /tmp/ccKmBXiy.s:195    .text.Endpoint_Null_Stream:0000000000000000 .LVL13
     /tmp/ccKmBXiy.s:269    .text.Endpoint_Null_Stream:0000000000000034 .LVL19
     /tmp/ccKmBXiy.s:357    .text.Endpoint_Null_Stream:0000000000000082 .LVL25
     /tmp/ccKmBXiy.s:322    .text.Endpoint_Null_Stream:0000000000000068 .LVL20
     /tmp/ccKmBXiy.s:328    .text.Endpoint_Null_Stream:0000000000000070 .LVL21
     /tmp/ccKmBXiy.s:243    .text.Endpoint_Null_Stream:0000000000000018 .LVL16
     /tmp/ccKmBXiy.s:264    .text.Endpoint_Null_Stream:0000000000000030 .LVL18
     /tmp/ccKmBXiy.s:340    .text.Endpoint_Null_Stream:000000000000007c .LVL23
     /tmp/ccKmBXiy.s:236    .text.Endpoint_Null_Stream:0000000000000012 .LVL14
     /tmp/ccKmBXiy.s:363    .text.Endpoint_Null_Stream:0000000000000088 .LVL26
     /tmp/ccKmBXiy.s:350    .text.Endpoint_Null_Stream:0000000000000080 .LVL24
     /tmp/ccKmBXiy.s:22     .text.Endpoint_Discard_Stream:0000000000000002 .LCFI0
     /tmp/ccKmBXiy.s:26     .text.Endpoint_Discard_Stream:0000000000000004 .LCFI1
     /tmp/ccKmBXiy.s:30     .text.Endpoint_Discard_Stream:0000000000000006 .LCFI2
     /tmp/ccKmBXiy.s:34     .text.Endpoint_Discard_Stream:0000000000000008 .LCFI3
     /tmp/ccKmBXiy.s:38     .text.Endpoint_Discard_Stream:000000000000000a .LCFI4
     /tmp/ccKmBXiy.s:42     .text.Endpoint_Discard_Stream:000000000000000c .LCFI5
     /tmp/ccKmBXiy.s:46     .text.Endpoint_Discard_Stream:000000000000000e .LCFI6
     /tmp/ccKmBXiy.s:16     .text.Endpoint_Discard_Stream:0000000000000000 .LVL0
     /tmp/ccKmBXiy.s:90     .text.Endpoint_Discard_Stream:0000000000000034 .LVL6
     /tmp/ccKmBXiy.s:179    .text.Endpoint_Discard_Stream:0000000000000082 .LVL11
     /tmp/ccKmBXiy.s:144    .text.Endpoint_Discard_Stream:0000000000000068 .LVL7
     /tmp/ccKmBXiy.s:150    .text.Endpoint_Discard_Stream:0000000000000070 .LVL8
     /tmp/ccKmBXiy.s:64     .text.Endpoint_Discard_Stream:0000000000000018 .LVL3
     /tmp/ccKmBXiy.s:85     .text.Endpoint_Discard_Stream:0000000000000030 .LVL5
     /tmp/ccKmBXiy.s:162    .text.Endpoint_Discard_Stream:000000000000007c .LVL10
     /tmp/ccKmBXiy.s:57     .text.Endpoint_Discard_Stream:0000000000000012 .LVL1
     /tmp/ccKmBXiy.s:185    .text.Endpoint_Discard_Stream:0000000000000088 .LVL12
     /tmp/ccKmBXiy.s:5014   .debug_info:0000000000000000 .Ldebug_info0
     /tmp/ccKmBXiy.s:2537   .text.Endpoint_Write_Control_Stream_LE:000000000000003a .LBB346
     /tmp/ccKmBXiy.s:2674   .text.Endpoint_Write_Control_Stream_LE:0000000000000094 .LBE346
     /tmp/ccKmBXiy.s:2707   .text.Endpoint_Write_Control_Stream_LE:00000000000000a8 .LBB363
     /tmp/ccKmBXiy.s:2711   .text.Endpoint_Write_Control_Stream_LE:00000000000000aa .LBE363
     /tmp/ccKmBXiy.s:2715   .text.Endpoint_Write_Control_Stream_LE:00000000000000ac .LBB364
     /tmp/ccKmBXiy.s:2723   .text.Endpoint_Write_Control_Stream_LE:00000000000000b4 .LBE364
     /tmp/ccKmBXiy.s:2817   .text.Endpoint_Write_Control_Stream_BE:0000000000000042 .LBB369
     /tmp/ccKmBXiy.s:2956   .text.Endpoint_Write_Control_Stream_BE:000000000000009e .LBE369
     /tmp/ccKmBXiy.s:2989   .text.Endpoint_Write_Control_Stream_BE:00000000000000b2 .LBB386
     /tmp/ccKmBXiy.s:2993   .text.Endpoint_Write_Control_Stream_BE:00000000000000b4 .LBE386
     /tmp/ccKmBXiy.s:2997   .text.Endpoint_Write_Control_Stream_BE:00000000000000b6 .LBB387
     /tmp/ccKmBXiy.s:3005   .text.Endpoint_Write_Control_Stream_BE:00000000000000be .LBE387
     /tmp/ccKmBXiy.s:3033   .text.Endpoint_Read_Control_Stream_LE:0000000000000008 .LBB388
     /tmp/ccKmBXiy.s:3047   .text.Endpoint_Read_Control_Stream_LE:0000000000000012 .LBE388
     /tmp/ccKmBXiy.s:3071   .text.Endpoint_Read_Control_Stream_LE:0000000000000022 .LBB401
     /tmp/ccKmBXiy.s:3152   .text.Endpoint_Read_Control_Stream_LE:0000000000000058 .LBE401
     /tmp/ccKmBXiy.s:3170   .text.Endpoint_Read_Control_Stream_LE:0000000000000064 .LBB403
     /tmp/ccKmBXiy.s:3174   .text.Endpoint_Read_Control_Stream_LE:0000000000000066 .LBE403
     /tmp/ccKmBXiy.s:3179   .text.Endpoint_Read_Control_Stream_LE:0000000000000068 .LBB404
     /tmp/ccKmBXiy.s:3188   .text.Endpoint_Read_Control_Stream_LE:0000000000000070 .LBE404
     /tmp/ccKmBXiy.s:3220   .text.Endpoint_Read_Control_Stream_BE:000000000000000e .LBB405
     /tmp/ccKmBXiy.s:3234   .text.Endpoint_Read_Control_Stream_BE:0000000000000018 .LBE405
     /tmp/ccKmBXiy.s:3258   .text.Endpoint_Read_Control_Stream_BE:000000000000002a .LBB418
     /tmp/ccKmBXiy.s:3342   .text.Endpoint_Read_Control_Stream_BE:0000000000000066 .LBE418
     /tmp/ccKmBXiy.s:3360   .text.Endpoint_Read_Control_Stream_BE:0000000000000072 .LBB420
     /tmp/ccKmBXiy.s:3364   .text.Endpoint_Read_Control_Stream_BE:0000000000000074 .LBE420
     /tmp/ccKmBXiy.s:3369   .text.Endpoint_Read_Control_Stream_BE:0000000000000076 .LBB421
     /tmp/ccKmBXiy.s:3378   .text.Endpoint_Read_Control_Stream_BE:000000000000007e .LBE421
     /tmp/ccKmBXiy.s:3465   .text.Endpoint_Write_Control_PStream_LE:000000000000003a .LBB426
     /tmp/ccKmBXiy.s:3616   .text.Endpoint_Write_Control_PStream_LE:0000000000000096 .LBE426
     /tmp/ccKmBXiy.s:3649   .text.Endpoint_Write_Control_PStream_LE:00000000000000aa .LBB444
     /tmp/ccKmBXiy.s:3653   .text.Endpoint_Write_Control_PStream_LE:00000000000000ac .LBE444
     /tmp/ccKmBXiy.s:3657   .text.Endpoint_Write_Control_PStream_LE:00000000000000ae .LBB445
     /tmp/ccKmBXiy.s:3665   .text.Endpoint_Write_Control_PStream_LE:00000000000000b6 .LBE445
     /tmp/ccKmBXiy.s:3759   .text.Endpoint_Write_Control_PStream_BE:0000000000000042 .LBB450
     /tmp/ccKmBXiy.s:3910   .text.Endpoint_Write_Control_PStream_BE:000000000000009e .LBE450
     /tmp/ccKmBXiy.s:3943   .text.Endpoint_Write_Control_PStream_BE:00000000000000b2 .LBB468
     /tmp/ccKmBXiy.s:3947   .text.Endpoint_Write_Control_PStream_BE:00000000000000b4 .LBE468
     /tmp/ccKmBXiy.s:3951   .text.Endpoint_Write_Control_PStream_BE:00000000000000b6 .LBB469
     /tmp/ccKmBXiy.s:3959   .text.Endpoint_Write_Control_PStream_BE:00000000000000be .LBE469
     /tmp/ccKmBXiy.s:4081   .text.Endpoint_Write_Control_EStream_LE:0000000000000052 .LBB474
     /tmp/ccKmBXiy.s:4223   .text.Endpoint_Write_Control_EStream_LE:00000000000000ba .LBE474
     /tmp/ccKmBXiy.s:4256   .text.Endpoint_Write_Control_EStream_LE:00000000000000ce .LBB491
     /tmp/ccKmBXiy.s:4268   .text.Endpoint_Write_Control_EStream_LE:00000000000000da .LBE491
     /tmp/ccKmBXiy.s:4400   .text.Endpoint_Write_Control_EStream_BE:000000000000005a .LBB496
     /tmp/ccKmBXiy.s:4542   .text.Endpoint_Write_Control_EStream_BE:00000000000000c2 .LBE496
     /tmp/ccKmBXiy.s:4575   .text.Endpoint_Write_Control_EStream_BE:00000000000000d6 .LBB513
     /tmp/ccKmBXiy.s:4587   .text.Endpoint_Write_Control_EStream_BE:00000000000000e2 .LBE513
     /tmp/ccKmBXiy.s:4630   .text.Endpoint_Read_Control_EStream_LE:0000000000000010 .LBB514
     /tmp/ccKmBXiy.s:4644   .text.Endpoint_Read_Control_EStream_LE:000000000000001a .LBE514
     /tmp/ccKmBXiy.s:4674   .text.Endpoint_Read_Control_EStream_LE:0000000000000032 .LBB527
     /tmp/ccKmBXiy.s:4759   .text.Endpoint_Read_Control_EStream_LE:0000000000000070 .LBE527
     /tmp/ccKmBXiy.s:4777   .text.Endpoint_Read_Control_EStream_LE:000000000000007c .LBB529
     /tmp/ccKmBXiy.s:4791   .text.Endpoint_Read_Control_EStream_LE:0000000000000088 .LBE529
     /tmp/ccKmBXiy.s:4840   .text.Endpoint_Read_Control_EStream_BE:0000000000000018 .LBB530
     /tmp/ccKmBXiy.s:4854   .text.Endpoint_Read_Control_EStream_BE:0000000000000022 .LBE530
     /tmp/ccKmBXiy.s:4884   .text.Endpoint_Read_Control_EStream_BE:000000000000003a .LBB543
     /tmp/ccKmBXiy.s:4969   .text.Endpoint_Read_Control_EStream_BE:0000000000000078 .LBE543
     /tmp/ccKmBXiy.s:4987   .text.Endpoint_Read_Control_EStream_BE:0000000000000084 .LBB545
     /tmp/ccKmBXiy.s:5001   .text.Endpoint_Read_Control_EStream_BE:0000000000000090 .LBE545

UNDEFINED SYMBOLS
Endpoint_WaitUntilReady
eeprom_read_byte
eeprom_update_byte
USB_ControlRequest
USB_DeviceState
