   1               		.file	"command.c"
   2               	__SP_H__ = 0x3e
   3               	__SP_L__ = 0x3d
   4               	__SREG__ = 0x3f
   5               	__tmp_reg__ = 0
   6               	__zero_reg__ = 1
   7               		.text
   8               	.Ltext0:
   9               		.cfi_sections	.debug_frame
  10               		.section	.text.mousekey_console_help,"ax",@progbits
  12               	mousekey_console_help:
  13               	.LFB21:
  14               		.file 1 "../../tmk_core/common/command.c"
   1:../../tmk_core/common/command.c **** /*
   2:../../tmk_core/common/command.c **** Copyright 2011 Jun Wako <wakojun@gmail.com>
   3:../../tmk_core/common/command.c **** 
   4:../../tmk_core/common/command.c **** This program is free software: you can redistribute it and/or modify
   5:../../tmk_core/common/command.c **** it under the terms of the GNU General Public License as published by
   6:../../tmk_core/common/command.c **** the Free Software Foundation, either version 2 of the License, or
   7:../../tmk_core/common/command.c **** (at your option) any later version.
   8:../../tmk_core/common/command.c **** 
   9:../../tmk_core/common/command.c **** This program is distributed in the hope that it will be useful,
  10:../../tmk_core/common/command.c **** but WITHOUT ANY WARRANTY; without even the implied warranty of
  11:../../tmk_core/common/command.c **** MERCHANTABILITY or FITNESS FOR A PARTICULAR PURPOSE.  See the
  12:../../tmk_core/common/command.c **** GNU General Public License for more details.
  13:../../tmk_core/common/command.c **** 
  14:../../tmk_core/common/command.c **** You should have received a copy of the GNU General Public License
  15:../../tmk_core/common/command.c **** along with this program.  If not, see <http://www.gnu.org/licenses/>.
  16:../../tmk_core/common/command.c **** */
  17:../../tmk_core/common/command.c **** #include <stdint.h>
  18:../../tmk_core/common/command.c **** #include <stdbool.h>
  19:../../tmk_core/common/command.c **** #include "wait.h"
  20:../../tmk_core/common/command.c **** #include "keycode.h"
  21:../../tmk_core/common/command.c **** #include "host.h"
  22:../../tmk_core/common/command.c **** #include "keymap.h"
  23:../../tmk_core/common/command.c **** #include "print.h"
  24:../../tmk_core/common/command.c **** #include "debug.h"
  25:../../tmk_core/common/command.c **** #include "util.h"
  26:../../tmk_core/common/command.c **** #include "timer.h"
  27:../../tmk_core/common/command.c **** #include "keyboard.h"
  28:../../tmk_core/common/command.c **** #include "bootloader.h"
  29:../../tmk_core/common/command.c **** #include "action_layer.h"
  30:../../tmk_core/common/command.c **** #include "action_util.h"
  31:../../tmk_core/common/command.c **** #include "eeconfig.h"
  32:../../tmk_core/common/command.c **** #include "sleep_led.h"
  33:../../tmk_core/common/command.c **** #include "led.h"
  34:../../tmk_core/common/command.c **** #include "command.h"
  35:../../tmk_core/common/command.c **** #include "backlight.h"
  36:../../tmk_core/common/command.c **** 
  37:../../tmk_core/common/command.c **** #ifdef MOUSEKEY_ENABLE
  38:../../tmk_core/common/command.c **** #include "mousekey.h"
  39:../../tmk_core/common/command.c **** #endif
  40:../../tmk_core/common/command.c **** 
  41:../../tmk_core/common/command.c **** #ifdef PROTOCOL_PJRC
  42:../../tmk_core/common/command.c **** #   include "usb_keyboard.h"
  43:../../tmk_core/common/command.c **** #   ifdef EXTRAKEY_ENABLE
  44:../../tmk_core/common/command.c **** #       include "usb_extra.h"
  45:../../tmk_core/common/command.c **** #   endif
  46:../../tmk_core/common/command.c **** #endif
  47:../../tmk_core/common/command.c **** 
  48:../../tmk_core/common/command.c **** #ifdef PROTOCOL_VUSB
  49:../../tmk_core/common/command.c **** #   include "usbdrv.h"
  50:../../tmk_core/common/command.c **** #endif
  51:../../tmk_core/common/command.c **** 
  52:../../tmk_core/common/command.c **** 
  53:../../tmk_core/common/command.c **** static bool command_common(uint8_t code);
  54:../../tmk_core/common/command.c **** static void command_common_help(void);
  55:../../tmk_core/common/command.c **** static bool command_console(uint8_t code);
  56:../../tmk_core/common/command.c **** static void command_console_help(void);
  57:../../tmk_core/common/command.c **** #ifdef MOUSEKEY_ENABLE
  58:../../tmk_core/common/command.c **** static bool mousekey_console(uint8_t code);
  59:../../tmk_core/common/command.c **** static void mousekey_console_help(void);
  60:../../tmk_core/common/command.c **** static uint8_t numkey2num(uint8_t code);
  61:../../tmk_core/common/command.c **** #endif
  62:../../tmk_core/common/command.c **** 
  63:../../tmk_core/common/command.c **** 
  64:../../tmk_core/common/command.c **** static void switch_default_layer(uint8_t layer);
  65:../../tmk_core/common/command.c **** 
  66:../../tmk_core/common/command.c **** 
  67:../../tmk_core/common/command.c **** command_state_t command_state = ONESHOT;
  68:../../tmk_core/common/command.c **** 
  69:../../tmk_core/common/command.c **** 
  70:../../tmk_core/common/command.c **** bool command_proc(uint8_t code)
  71:../../tmk_core/common/command.c **** {
  72:../../tmk_core/common/command.c ****     switch (command_state) {
  73:../../tmk_core/common/command.c ****         case ONESHOT:
  74:../../tmk_core/common/command.c ****             if (!IS_COMMAND())
  75:../../tmk_core/common/command.c ****                 return false;
  76:../../tmk_core/common/command.c ****             return (command_extra(code) || command_common(code));
  77:../../tmk_core/common/command.c ****             break;
  78:../../tmk_core/common/command.c ****         case CONSOLE:
  79:../../tmk_core/common/command.c ****             if (IS_COMMAND())
  80:../../tmk_core/common/command.c ****                 return (command_extra(code) || command_common(code));
  81:../../tmk_core/common/command.c ****             else
  82:../../tmk_core/common/command.c ****                 return (command_console_extra(code) || command_console(code));
  83:../../tmk_core/common/command.c ****             break;
  84:../../tmk_core/common/command.c **** #ifdef MOUSEKEY_ENABLE
  85:../../tmk_core/common/command.c ****         case MOUSEKEY:
  86:../../tmk_core/common/command.c ****             mousekey_console(code);
  87:../../tmk_core/common/command.c ****             break;
  88:../../tmk_core/common/command.c **** #endif
  89:../../tmk_core/common/command.c ****         default:
  90:../../tmk_core/common/command.c ****             command_state = ONESHOT;
  91:../../tmk_core/common/command.c ****             return false;
  92:../../tmk_core/common/command.c ****     }
  93:../../tmk_core/common/command.c ****     return true;
  94:../../tmk_core/common/command.c **** }
  95:../../tmk_core/common/command.c **** 
  96:../../tmk_core/common/command.c **** /* TODO: Refactoring is needed. */
  97:../../tmk_core/common/command.c **** /* This allows to define extra commands. return false when not processed. */
  98:../../tmk_core/common/command.c **** bool command_extra(uint8_t code) __attribute__ ((weak));
  99:../../tmk_core/common/command.c **** bool command_extra(uint8_t code)
 100:../../tmk_core/common/command.c **** {
 101:../../tmk_core/common/command.c ****     (void)code;
 102:../../tmk_core/common/command.c ****     return false;
 103:../../tmk_core/common/command.c **** }
 104:../../tmk_core/common/command.c **** 
 105:../../tmk_core/common/command.c **** bool command_console_extra(uint8_t code) __attribute__ ((weak));
 106:../../tmk_core/common/command.c **** bool command_console_extra(uint8_t code)
 107:../../tmk_core/common/command.c **** {
 108:../../tmk_core/common/command.c ****     (void)code;
 109:../../tmk_core/common/command.c ****     return false;
 110:../../tmk_core/common/command.c **** }
 111:../../tmk_core/common/command.c **** 
 112:../../tmk_core/common/command.c **** 
 113:../../tmk_core/common/command.c **** /***********************************************************
 114:../../tmk_core/common/command.c ****  * Command common
 115:../../tmk_core/common/command.c ****  ***********************************************************/
 116:../../tmk_core/common/command.c **** static void command_common_help(void)
 117:../../tmk_core/common/command.c **** {
 118:../../tmk_core/common/command.c ****     print("\n\t- Magic -\n"
 119:../../tmk_core/common/command.c ****           "d:	debug\n"
 120:../../tmk_core/common/command.c ****           "x:	debug matrix\n"
 121:../../tmk_core/common/command.c ****           "k:	debug keyboard\n"
 122:../../tmk_core/common/command.c ****           "m:	debug mouse\n"
 123:../../tmk_core/common/command.c ****           "v:	version\n"
 124:../../tmk_core/common/command.c ****           "s:	status\n"
 125:../../tmk_core/common/command.c ****           "c:	console mode\n"
 126:../../tmk_core/common/command.c ****           "0-4:	layer0-4(F10-F4)\n"
 127:../../tmk_core/common/command.c ****           "Paus:	bootloader\n"
 128:../../tmk_core/common/command.c **** 
 129:../../tmk_core/common/command.c **** #ifdef KEYBOARD_LOCK_ENABLE
 130:../../tmk_core/common/command.c ****           "Caps:	Lock\n"
 131:../../tmk_core/common/command.c **** #endif
 132:../../tmk_core/common/command.c **** 
 133:../../tmk_core/common/command.c **** #ifdef BOOTMAGIC_ENABLE
 134:../../tmk_core/common/command.c ****           "e:	eeprom\n"
 135:../../tmk_core/common/command.c **** #endif
 136:../../tmk_core/common/command.c **** 
 137:../../tmk_core/common/command.c **** #ifdef NKRO_ENABLE
 138:../../tmk_core/common/command.c ****           "n:	NKRO\n"
 139:../../tmk_core/common/command.c **** #endif
 140:../../tmk_core/common/command.c **** 
 141:../../tmk_core/common/command.c **** #ifdef SLEEP_LED_ENABLE
 142:../../tmk_core/common/command.c ****           "z:	sleep LED test\n"
 143:../../tmk_core/common/command.c **** #endif
 144:../../tmk_core/common/command.c ****     );
 145:../../tmk_core/common/command.c **** }
 146:../../tmk_core/common/command.c **** 
 147:../../tmk_core/common/command.c **** #ifdef BOOTMAGIC_ENABLE
 148:../../tmk_core/common/command.c **** static void print_eeconfig(void)
 149:../../tmk_core/common/command.c **** {
 150:../../tmk_core/common/command.c ****     print("default_layer: "); print_dec(eeconfig_read_default_layer()); print("\n");
 151:../../tmk_core/common/command.c **** 
 152:../../tmk_core/common/command.c ****     debug_config_t dc;
 153:../../tmk_core/common/command.c ****     dc.raw = eeconfig_read_debug();
 154:../../tmk_core/common/command.c ****     print("debug_config.raw: "); print_hex8(dc.raw); print("\n");
 155:../../tmk_core/common/command.c ****     print(".enable: "); print_dec(dc.enable); print("\n");
 156:../../tmk_core/common/command.c ****     print(".matrix: "); print_dec(dc.matrix); print("\n");
 157:../../tmk_core/common/command.c ****     print(".keyboard: "); print_dec(dc.keyboard); print("\n");
 158:../../tmk_core/common/command.c ****     print(".mouse: "); print_dec(dc.mouse); print("\n");
 159:../../tmk_core/common/command.c **** 
 160:../../tmk_core/common/command.c ****     keymap_config_t kc;
 161:../../tmk_core/common/command.c ****     kc.raw = eeconfig_read_keymap();
 162:../../tmk_core/common/command.c ****     print("keymap_config.raw: "); print_hex8(kc.raw); print("\n");
 163:../../tmk_core/common/command.c ****     print(".swap_control_capslock: "); print_dec(kc.swap_control_capslock); print("\n");
 164:../../tmk_core/common/command.c ****     print(".capslock_to_control: "); print_dec(kc.capslock_to_control); print("\n");
 165:../../tmk_core/common/command.c ****     print(".swap_lalt_lgui: "); print_dec(kc.swap_lalt_lgui); print("\n");
 166:../../tmk_core/common/command.c ****     print(".swap_ralt_rgui: "); print_dec(kc.swap_ralt_rgui); print("\n");
 167:../../tmk_core/common/command.c ****     print(".no_gui: "); print_dec(kc.no_gui); print("\n");
 168:../../tmk_core/common/command.c ****     print(".swap_grave_esc: "); print_dec(kc.swap_grave_esc); print("\n");
 169:../../tmk_core/common/command.c ****     print(".swap_backslash_backspace: "); print_dec(kc.swap_backslash_backspace); print("\n");
 170:../../tmk_core/common/command.c ****     print(".nkro: "); print_dec(kc.nkro); print("\n");
 171:../../tmk_core/common/command.c **** 
 172:../../tmk_core/common/command.c **** #ifdef BACKLIGHT_ENABLE
 173:../../tmk_core/common/command.c ****     backlight_config_t bc;
 174:../../tmk_core/common/command.c ****     bc.raw = eeconfig_read_backlight();
 175:../../tmk_core/common/command.c ****     print("backlight_config.raw: "); print_hex8(bc.raw); print("\n");
 176:../../tmk_core/common/command.c ****     print(".enable: "); print_dec(bc.enable); print("\n");
 177:../../tmk_core/common/command.c ****     print(".level: "); print_dec(bc.level); print("\n");
 178:../../tmk_core/common/command.c **** #endif
 179:../../tmk_core/common/command.c **** }
 180:../../tmk_core/common/command.c **** #endif
 181:../../tmk_core/common/command.c **** 
 182:../../tmk_core/common/command.c **** static bool command_common(uint8_t code)
 183:../../tmk_core/common/command.c **** {
 184:../../tmk_core/common/command.c **** #ifdef KEYBOARD_LOCK_ENABLE
 185:../../tmk_core/common/command.c ****     static host_driver_t *host_driver = 0;
 186:../../tmk_core/common/command.c **** #endif
 187:../../tmk_core/common/command.c **** #ifdef SLEEP_LED_ENABLE
 188:../../tmk_core/common/command.c ****     static bool sleep_led_test = false;
 189:../../tmk_core/common/command.c **** #endif
 190:../../tmk_core/common/command.c ****     switch (code) {
 191:../../tmk_core/common/command.c **** #ifdef SLEEP_LED_ENABLE
 192:../../tmk_core/common/command.c ****         case KC_Z:
 193:../../tmk_core/common/command.c ****             // test breathing sleep LED
 194:../../tmk_core/common/command.c ****             print("Sleep LED test\n");
 195:../../tmk_core/common/command.c ****             if (sleep_led_test) {
 196:../../tmk_core/common/command.c ****                 sleep_led_disable();
 197:../../tmk_core/common/command.c ****                 led_set(host_keyboard_leds());
 198:../../tmk_core/common/command.c ****             } else {
 199:../../tmk_core/common/command.c ****                 sleep_led_enable();
 200:../../tmk_core/common/command.c ****             }
 201:../../tmk_core/common/command.c ****             sleep_led_test = !sleep_led_test;
 202:../../tmk_core/common/command.c ****             break;
 203:../../tmk_core/common/command.c **** #endif
 204:../../tmk_core/common/command.c **** #ifdef BOOTMAGIC_ENABLE
 205:../../tmk_core/common/command.c ****         case KC_E:
 206:../../tmk_core/common/command.c ****             print("eeconfig:\n");
 207:../../tmk_core/common/command.c ****             print_eeconfig();
 208:../../tmk_core/common/command.c ****             break;
 209:../../tmk_core/common/command.c **** #endif
 210:../../tmk_core/common/command.c **** #ifdef KEYBOARD_LOCK_ENABLE
 211:../../tmk_core/common/command.c ****         case KC_CAPSLOCK:
 212:../../tmk_core/common/command.c ****             if (host_get_driver()) {
 213:../../tmk_core/common/command.c ****                 host_driver = host_get_driver();
 214:../../tmk_core/common/command.c ****                 clear_keyboard();
 215:../../tmk_core/common/command.c ****                 host_set_driver(0);
 216:../../tmk_core/common/command.c ****                 print("Locked.\n");
 217:../../tmk_core/common/command.c ****             } else {
 218:../../tmk_core/common/command.c ****                 host_set_driver(host_driver);
 219:../../tmk_core/common/command.c ****                 print("Unlocked.\n");
 220:../../tmk_core/common/command.c ****             }
 221:../../tmk_core/common/command.c ****             break;
 222:../../tmk_core/common/command.c **** #endif
 223:../../tmk_core/common/command.c ****         case KC_H:
 224:../../tmk_core/common/command.c ****         case KC_SLASH: /* ? */
 225:../../tmk_core/common/command.c ****             command_common_help();
 226:../../tmk_core/common/command.c ****             break;
 227:../../tmk_core/common/command.c ****         case KC_C:
 228:../../tmk_core/common/command.c ****             debug_matrix   = false;
 229:../../tmk_core/common/command.c ****             debug_keyboard = false;
 230:../../tmk_core/common/command.c ****             debug_mouse    = false;
 231:../../tmk_core/common/command.c ****             debug_enable   = false;
 232:../../tmk_core/common/command.c ****             command_console_help();
 233:../../tmk_core/common/command.c ****             print("C> ");
 234:../../tmk_core/common/command.c ****             command_state = CONSOLE;
 235:../../tmk_core/common/command.c ****             break;
 236:../../tmk_core/common/command.c ****         case KC_PAUSE:
 237:../../tmk_core/common/command.c ****             clear_keyboard();
 238:../../tmk_core/common/command.c ****             print("\n\nbootloader... ");
 239:../../tmk_core/common/command.c ****             wait_ms(1000);
 240:../../tmk_core/common/command.c ****             bootloader_jump(); // not return
 241:../../tmk_core/common/command.c ****             break;
 242:../../tmk_core/common/command.c ****         case KC_D:
 243:../../tmk_core/common/command.c ****             if (debug_enable) {
 244:../../tmk_core/common/command.c ****                 print("\ndebug: off\n");
 245:../../tmk_core/common/command.c ****                 debug_matrix   = false;
 246:../../tmk_core/common/command.c ****                 debug_keyboard = false;
 247:../../tmk_core/common/command.c ****                 debug_mouse    = false;
 248:../../tmk_core/common/command.c ****                 debug_enable   = false;
 249:../../tmk_core/common/command.c ****             } else {
 250:../../tmk_core/common/command.c ****                 print("\ndebug: on\n");
 251:../../tmk_core/common/command.c ****                 debug_enable   = true;
 252:../../tmk_core/common/command.c ****             }
 253:../../tmk_core/common/command.c ****             break;
 254:../../tmk_core/common/command.c ****         case KC_X: // debug matrix toggle
 255:../../tmk_core/common/command.c ****             debug_matrix = !debug_matrix;
 256:../../tmk_core/common/command.c ****             if (debug_matrix) {
 257:../../tmk_core/common/command.c ****                 print("\nmatrix: on\n");
 258:../../tmk_core/common/command.c ****                 debug_enable = true;
 259:../../tmk_core/common/command.c ****             } else {
 260:../../tmk_core/common/command.c ****                 print("\nmatrix: off\n");
 261:../../tmk_core/common/command.c ****             }
 262:../../tmk_core/common/command.c ****             break;
 263:../../tmk_core/common/command.c ****         case KC_K: // debug keyboard toggle
 264:../../tmk_core/common/command.c ****             debug_keyboard = !debug_keyboard;
 265:../../tmk_core/common/command.c ****             if (debug_keyboard) {
 266:../../tmk_core/common/command.c ****                 print("\nkeyboard: on\n");
 267:../../tmk_core/common/command.c ****                 debug_enable = true;
 268:../../tmk_core/common/command.c ****             } else {
 269:../../tmk_core/common/command.c ****                 print("\nkeyboard: off\n");
 270:../../tmk_core/common/command.c ****             }
 271:../../tmk_core/common/command.c ****             break;
 272:../../tmk_core/common/command.c ****         case KC_M: // debug mouse toggle
 273:../../tmk_core/common/command.c ****             debug_mouse = !debug_mouse;
 274:../../tmk_core/common/command.c ****             if (debug_mouse) {
 275:../../tmk_core/common/command.c ****                 print("\nmouse: on\n");
 276:../../tmk_core/common/command.c ****                 debug_enable = true;
 277:../../tmk_core/common/command.c ****             } else {
 278:../../tmk_core/common/command.c ****                 print("\nmouse: off\n");
 279:../../tmk_core/common/command.c ****             }
 280:../../tmk_core/common/command.c ****             break;
 281:../../tmk_core/common/command.c ****         case KC_V: // print version & information
 282:../../tmk_core/common/command.c ****             print("\n\t- Version -\n");
 283:../../tmk_core/common/command.c ****             print("DESC: " STR(DESCRIPTION) "\n");
 284:../../tmk_core/common/command.c ****             print("VID: " STR(VENDOR_ID) "(" STR(MANUFACTURER) ") "
 285:../../tmk_core/common/command.c ****                   "PID: " STR(PRODUCT_ID) "(" STR(PRODUCT) ") "
 286:../../tmk_core/common/command.c ****                   "VER: " STR(DEVICE_VER) "\n");
 287:../../tmk_core/common/command.c ****             print("BUILD: " STR(TMK_VERSION) " (" __TIME__ " " __DATE__ ")\n");
 288:../../tmk_core/common/command.c ****             /* build options */
 289:../../tmk_core/common/command.c ****             print("OPTIONS:"
 290:../../tmk_core/common/command.c **** #ifdef PROTOCOL_PJRC
 291:../../tmk_core/common/command.c ****             " PJRC"
 292:../../tmk_core/common/command.c **** #endif
 293:../../tmk_core/common/command.c **** #ifdef PROTOCOL_LUFA
 294:../../tmk_core/common/command.c ****             " LUFA"
 295:../../tmk_core/common/command.c **** #endif
 296:../../tmk_core/common/command.c **** #ifdef PROTOCOL_VUSB
 297:../../tmk_core/common/command.c ****             " VUSB"
 298:../../tmk_core/common/command.c **** #endif
 299:../../tmk_core/common/command.c **** #ifdef PROTOCOL_CHIBIOS
 300:../../tmk_core/common/command.c ****             " CHIBIOS"
 301:../../tmk_core/common/command.c **** #endif
 302:../../tmk_core/common/command.c **** #ifdef BOOTMAGIC_ENABLE
 303:../../tmk_core/common/command.c ****             " BOOTMAGIC"
 304:../../tmk_core/common/command.c **** #endif
 305:../../tmk_core/common/command.c **** #ifdef MOUSEKEY_ENABLE
 306:../../tmk_core/common/command.c ****             " MOUSEKEY"
 307:../../tmk_core/common/command.c **** #endif
 308:../../tmk_core/common/command.c **** #ifdef EXTRAKEY_ENABLE
 309:../../tmk_core/common/command.c ****             " EXTRAKEY"
 310:../../tmk_core/common/command.c **** #endif
 311:../../tmk_core/common/command.c **** #ifdef CONSOLE_ENABLE
 312:../../tmk_core/common/command.c ****             " CONSOLE"
 313:../../tmk_core/common/command.c **** #endif
 314:../../tmk_core/common/command.c **** #ifdef COMMAND_ENABLE
 315:../../tmk_core/common/command.c ****             " COMMAND"
 316:../../tmk_core/common/command.c **** #endif
 317:../../tmk_core/common/command.c **** #ifdef NKRO_ENABLE
 318:../../tmk_core/common/command.c ****             " NKRO"
 319:../../tmk_core/common/command.c **** #endif
 320:../../tmk_core/common/command.c **** #ifdef KEYMAP_SECTION_ENABLE
 321:../../tmk_core/common/command.c ****             " KEYMAP_SECTION"
 322:../../tmk_core/common/command.c **** #endif
 323:../../tmk_core/common/command.c ****             " " STR(BOOTLOADER_SIZE) "\n");
 324:../../tmk_core/common/command.c **** 
 325:../../tmk_core/common/command.c ****             print("GCC: " STR(__GNUC__) "." STR(__GNUC_MINOR__) "." STR(__GNUC_PATCHLEVEL__)
 326:../../tmk_core/common/command.c **** #if defined(__AVR__)
 327:../../tmk_core/common/command.c ****                   " AVR-LIBC: " __AVR_LIBC_VERSION_STRING__
 328:../../tmk_core/common/command.c ****                   " AVR_ARCH: avr" STR(__AVR_ARCH__) "\n");
 329:../../tmk_core/common/command.c **** #elif defined(__arm__)
 330:../../tmk_core/common/command.c ****             // TODO
 331:../../tmk_core/common/command.c ****             );
 332:../../tmk_core/common/command.c **** #endif
 333:../../tmk_core/common/command.c ****             break;
 334:../../tmk_core/common/command.c ****         case KC_S:
 335:../../tmk_core/common/command.c ****             print("\n\t- Status -\n");
 336:../../tmk_core/common/command.c ****             print_val_hex8(host_keyboard_leds());
 337:../../tmk_core/common/command.c ****             print_val_hex8(keyboard_protocol);
 338:../../tmk_core/common/command.c ****             print_val_hex8(keyboard_idle);
 339:../../tmk_core/common/command.c **** #ifdef NKRO_ENABLE
 340:../../tmk_core/common/command.c ****             print_val_hex8(keyboard_nkro);
 341:../../tmk_core/common/command.c **** #endif
 342:../../tmk_core/common/command.c ****             print_val_hex32(timer_read32());
 343:../../tmk_core/common/command.c **** 
 344:../../tmk_core/common/command.c **** #ifdef PROTOCOL_PJRC
 345:../../tmk_core/common/command.c ****             print_val_hex8(UDCON);
 346:../../tmk_core/common/command.c ****             print_val_hex8(UDIEN);
 347:../../tmk_core/common/command.c ****             print_val_hex8(UDINT);
 348:../../tmk_core/common/command.c ****             print_val_hex8(usb_keyboard_leds);
 349:../../tmk_core/common/command.c ****             print_val_hex8(usb_keyboard_idle_count);
 350:../../tmk_core/common/command.c **** #endif
 351:../../tmk_core/common/command.c **** 
 352:../../tmk_core/common/command.c **** #ifdef PROTOCOL_PJRC
 353:../../tmk_core/common/command.c **** #   if USB_COUNT_SOF
 354:../../tmk_core/common/command.c ****             print_val_hex8(usbSofCount);
 355:../../tmk_core/common/command.c **** #   endif
 356:../../tmk_core/common/command.c **** #endif
 357:../../tmk_core/common/command.c ****             break;
 358:../../tmk_core/common/command.c **** #ifdef NKRO_ENABLE
 359:../../tmk_core/common/command.c ****         case KC_N:
 360:../../tmk_core/common/command.c ****             clear_keyboard(); //Prevents stuck keys.
 361:../../tmk_core/common/command.c ****             keyboard_nkro = !keyboard_nkro;
 362:../../tmk_core/common/command.c ****             if (keyboard_nkro) {
 363:../../tmk_core/common/command.c ****                 print("NKRO: on\n");
 364:../../tmk_core/common/command.c ****             } else {
 365:../../tmk_core/common/command.c ****                 print("NKRO: off\n");
 366:../../tmk_core/common/command.c ****             }
 367:../../tmk_core/common/command.c ****             break;
 368:../../tmk_core/common/command.c **** #endif
 369:../../tmk_core/common/command.c ****         case KC_ESC:
 370:../../tmk_core/common/command.c ****         case KC_GRV:
 371:../../tmk_core/common/command.c ****         case KC_0:
 372:../../tmk_core/common/command.c ****         case KC_F10:
 373:../../tmk_core/common/command.c ****             switch_default_layer(0);
 374:../../tmk_core/common/command.c ****             break;
 375:../../tmk_core/common/command.c ****         case KC_1 ... KC_9:
 376:../../tmk_core/common/command.c ****             switch_default_layer((code - KC_1) + 1);
 377:../../tmk_core/common/command.c ****             break;
 378:../../tmk_core/common/command.c ****         case KC_F1 ... KC_F9:
 379:../../tmk_core/common/command.c ****             switch_default_layer((code - KC_F1) + 1);
 380:../../tmk_core/common/command.c ****             break;
 381:../../tmk_core/common/command.c ****         default:
 382:../../tmk_core/common/command.c ****             print("?");
 383:../../tmk_core/common/command.c ****             return false;
 384:../../tmk_core/common/command.c ****     }
 385:../../tmk_core/common/command.c ****     return true;
 386:../../tmk_core/common/command.c **** }
 387:../../tmk_core/common/command.c **** 
 388:../../tmk_core/common/command.c **** 
 389:../../tmk_core/common/command.c **** /***********************************************************
 390:../../tmk_core/common/command.c ****  * Command console
 391:../../tmk_core/common/command.c ****  ***********************************************************/
 392:../../tmk_core/common/command.c **** static void command_console_help(void)
 393:../../tmk_core/common/command.c **** {
 394:../../tmk_core/common/command.c ****     print("\n\t- Console -\n"
 395:../../tmk_core/common/command.c ****           "ESC/q:	quit\n"
 396:../../tmk_core/common/command.c **** #ifdef MOUSEKEY_ENABLE
 397:../../tmk_core/common/command.c ****           "m:	mousekey\n"
 398:../../tmk_core/common/command.c **** #endif
 399:../../tmk_core/common/command.c ****     );
 400:../../tmk_core/common/command.c **** }
 401:../../tmk_core/common/command.c **** 
 402:../../tmk_core/common/command.c **** static bool command_console(uint8_t code)
 403:../../tmk_core/common/command.c **** {
 404:../../tmk_core/common/command.c ****     switch (code) {
 405:../../tmk_core/common/command.c ****         case KC_H:
 406:../../tmk_core/common/command.c ****         case KC_SLASH: /* ? */
 407:../../tmk_core/common/command.c ****             command_console_help();
 408:../../tmk_core/common/command.c ****             break;
 409:../../tmk_core/common/command.c ****         case KC_Q:
 410:../../tmk_core/common/command.c ****         case KC_ESC:
 411:../../tmk_core/common/command.c ****             command_state = ONESHOT;
 412:../../tmk_core/common/command.c ****             return false;
 413:../../tmk_core/common/command.c **** #ifdef MOUSEKEY_ENABLE
 414:../../tmk_core/common/command.c ****         case KC_M:
 415:../../tmk_core/common/command.c ****             mousekey_console_help();
 416:../../tmk_core/common/command.c ****             print("M> ");
 417:../../tmk_core/common/command.c ****             command_state = MOUSEKEY;
 418:../../tmk_core/common/command.c ****             return true;
 419:../../tmk_core/common/command.c **** #endif
 420:../../tmk_core/common/command.c ****         default:
 421:../../tmk_core/common/command.c ****             print("?");
 422:../../tmk_core/common/command.c ****             return false;
 423:../../tmk_core/common/command.c ****     }
 424:../../tmk_core/common/command.c ****     print("C> ");
 425:../../tmk_core/common/command.c ****     return true;
 426:../../tmk_core/common/command.c **** }
 427:../../tmk_core/common/command.c **** 
 428:../../tmk_core/common/command.c **** 
 429:../../tmk_core/common/command.c **** #ifdef MOUSEKEY_ENABLE
 430:../../tmk_core/common/command.c **** /***********************************************************
 431:../../tmk_core/common/command.c ****  * Mousekey console
 432:../../tmk_core/common/command.c ****  ***********************************************************/
 433:../../tmk_core/common/command.c **** static uint8_t mousekey_param = 0;
 434:../../tmk_core/common/command.c **** 
 435:../../tmk_core/common/command.c **** static void mousekey_param_print(void)
 436:../../tmk_core/common/command.c **** {
 437:../../tmk_core/common/command.c ****     print("\n\t- Values -\n");
 438:../../tmk_core/common/command.c ****     print("1: delay(*10ms): "); pdec(mk_delay); print("\n");
 439:../../tmk_core/common/command.c ****     print("2: interval(ms): "); pdec(mk_interval); print("\n");
 440:../../tmk_core/common/command.c ****     print("3: max_speed: "); pdec(mk_max_speed); print("\n");
 441:../../tmk_core/common/command.c ****     print("4: time_to_max: "); pdec(mk_time_to_max); print("\n");
 442:../../tmk_core/common/command.c ****     print("5: wheel_max_speed: "); pdec(mk_wheel_max_speed); print("\n");
 443:../../tmk_core/common/command.c ****     print("6: wheel_time_to_max: "); pdec(mk_wheel_time_to_max); print("\n");
 444:../../tmk_core/common/command.c **** }
 445:../../tmk_core/common/command.c **** 
 446:../../tmk_core/common/command.c **** //#define PRINT_SET_VAL(v)  print(#v " = "); print_dec(v); print("\n");
 447:../../tmk_core/common/command.c **** #define PRINT_SET_VAL(v)  xprintf(#v " = %d\n", (v))
 448:../../tmk_core/common/command.c **** static void mousekey_param_inc(uint8_t param, uint8_t inc)
 449:../../tmk_core/common/command.c **** {
 450:../../tmk_core/common/command.c ****     switch (param) {
 451:../../tmk_core/common/command.c ****         case 1:
 452:../../tmk_core/common/command.c ****             if (mk_delay + inc < UINT8_MAX)
 453:../../tmk_core/common/command.c ****                 mk_delay += inc;
 454:../../tmk_core/common/command.c ****             else
 455:../../tmk_core/common/command.c ****                 mk_delay = UINT8_MAX;
 456:../../tmk_core/common/command.c ****             PRINT_SET_VAL(mk_delay);
 457:../../tmk_core/common/command.c ****             break;
 458:../../tmk_core/common/command.c ****         case 2:
 459:../../tmk_core/common/command.c ****             if (mk_interval + inc < UINT8_MAX)
 460:../../tmk_core/common/command.c ****                 mk_interval += inc;
 461:../../tmk_core/common/command.c ****             else
 462:../../tmk_core/common/command.c ****                 mk_interval = UINT8_MAX;
 463:../../tmk_core/common/command.c ****             PRINT_SET_VAL(mk_interval);
 464:../../tmk_core/common/command.c ****             break;
 465:../../tmk_core/common/command.c ****         case 3:
 466:../../tmk_core/common/command.c ****             if (mk_max_speed + inc < UINT8_MAX)
 467:../../tmk_core/common/command.c ****                 mk_max_speed += inc;
 468:../../tmk_core/common/command.c ****             else
 469:../../tmk_core/common/command.c ****                 mk_max_speed = UINT8_MAX;
 470:../../tmk_core/common/command.c ****             PRINT_SET_VAL(mk_max_speed);
 471:../../tmk_core/common/command.c ****             break;
 472:../../tmk_core/common/command.c ****         case 4:
 473:../../tmk_core/common/command.c ****             if (mk_time_to_max + inc < UINT8_MAX)
 474:../../tmk_core/common/command.c ****                 mk_time_to_max += inc;
 475:../../tmk_core/common/command.c ****             else
 476:../../tmk_core/common/command.c ****                 mk_time_to_max = UINT8_MAX;
 477:../../tmk_core/common/command.c ****             PRINT_SET_VAL(mk_time_to_max);
 478:../../tmk_core/common/command.c ****             break;
 479:../../tmk_core/common/command.c ****         case 5:
 480:../../tmk_core/common/command.c ****             if (mk_wheel_max_speed + inc < UINT8_MAX)
 481:../../tmk_core/common/command.c ****                 mk_wheel_max_speed += inc;
 482:../../tmk_core/common/command.c ****             else
 483:../../tmk_core/common/command.c ****                 mk_wheel_max_speed = UINT8_MAX;
 484:../../tmk_core/common/command.c ****             PRINT_SET_VAL(mk_wheel_max_speed);
 485:../../tmk_core/common/command.c ****             break;
 486:../../tmk_core/common/command.c ****         case 6:
 487:../../tmk_core/common/command.c ****             if (mk_wheel_time_to_max + inc < UINT8_MAX)
 488:../../tmk_core/common/command.c ****                 mk_wheel_time_to_max += inc;
 489:../../tmk_core/common/command.c ****             else
 490:../../tmk_core/common/command.c ****                 mk_wheel_time_to_max = UINT8_MAX;
 491:../../tmk_core/common/command.c ****             PRINT_SET_VAL(mk_wheel_time_to_max);
 492:../../tmk_core/common/command.c ****             break;
 493:../../tmk_core/common/command.c ****     }
 494:../../tmk_core/common/command.c **** }
 495:../../tmk_core/common/command.c **** 
 496:../../tmk_core/common/command.c **** static void mousekey_param_dec(uint8_t param, uint8_t dec)
 497:../../tmk_core/common/command.c **** {
 498:../../tmk_core/common/command.c ****     switch (param) {
 499:../../tmk_core/common/command.c ****         case 1:
 500:../../tmk_core/common/command.c ****             if (mk_delay > dec)
 501:../../tmk_core/common/command.c ****                 mk_delay -= dec;
 502:../../tmk_core/common/command.c ****             else
 503:../../tmk_core/common/command.c ****                 mk_delay = 0;
 504:../../tmk_core/common/command.c ****             PRINT_SET_VAL(mk_delay);
 505:../../tmk_core/common/command.c ****             break;
 506:../../tmk_core/common/command.c ****         case 2:
 507:../../tmk_core/common/command.c ****             if (mk_interval > dec)
 508:../../tmk_core/common/command.c ****                 mk_interval -= dec;
 509:../../tmk_core/common/command.c ****             else
 510:../../tmk_core/common/command.c ****                 mk_interval = 0;
 511:../../tmk_core/common/command.c ****             PRINT_SET_VAL(mk_interval);
 512:../../tmk_core/common/command.c ****             break;
 513:../../tmk_core/common/command.c ****         case 3:
 514:../../tmk_core/common/command.c ****             if (mk_max_speed > dec)
 515:../../tmk_core/common/command.c ****                 mk_max_speed -= dec;
 516:../../tmk_core/common/command.c ****             else
 517:../../tmk_core/common/command.c ****                 mk_max_speed = 0;
 518:../../tmk_core/common/command.c ****             PRINT_SET_VAL(mk_max_speed);
 519:../../tmk_core/common/command.c ****             break;
 520:../../tmk_core/common/command.c ****         case 4:
 521:../../tmk_core/common/command.c ****             if (mk_time_to_max > dec)
 522:../../tmk_core/common/command.c ****                 mk_time_to_max -= dec;
 523:../../tmk_core/common/command.c ****             else
 524:../../tmk_core/common/command.c ****                 mk_time_to_max = 0;
 525:../../tmk_core/common/command.c ****             PRINT_SET_VAL(mk_time_to_max);
 526:../../tmk_core/common/command.c ****             break;
 527:../../tmk_core/common/command.c ****         case 5:
 528:../../tmk_core/common/command.c ****             if (mk_wheel_max_speed > dec)
 529:../../tmk_core/common/command.c ****                 mk_wheel_max_speed -= dec;
 530:../../tmk_core/common/command.c ****             else
 531:../../tmk_core/common/command.c ****                 mk_wheel_max_speed = 0;
 532:../../tmk_core/common/command.c ****             PRINT_SET_VAL(mk_wheel_max_speed);
 533:../../tmk_core/common/command.c ****             break;
 534:../../tmk_core/common/command.c ****         case 6:
 535:../../tmk_core/common/command.c ****             if (mk_wheel_time_to_max > dec)
 536:../../tmk_core/common/command.c ****                 mk_wheel_time_to_max -= dec;
 537:../../tmk_core/common/command.c ****             else
 538:../../tmk_core/common/command.c ****                 mk_wheel_time_to_max = 0;
 539:../../tmk_core/common/command.c ****             PRINT_SET_VAL(mk_wheel_time_to_max);
 540:../../tmk_core/common/command.c ****             break;
 541:../../tmk_core/common/command.c ****     }
 542:../../tmk_core/common/command.c **** }
 543:../../tmk_core/common/command.c **** 
 544:../../tmk_core/common/command.c **** static void mousekey_console_help(void)
 545:../../tmk_core/common/command.c **** {
  15               		.loc 1 545 1 view -0
  16               		.cfi_startproc
  17               	/* prologue: function */
  18               	/* frame size = 0 */
  19               	/* stack size = 0 */
  20               	.L__stack_usage = 0
 546:../../tmk_core/common/command.c ****     print("\n\t- Mousekey -\n"
  21               		.loc 1 546 5 view .LVU1
  22               	.LBB32:
  23               		.loc 1 546 5 view .LVU2
  24               		.loc 1 546 5 view .LVU3
  25               	.LBE32:
  26 0000 80E0      		ldi r24,lo8(__c.37)
  27 0002 90E0      		ldi r25,hi8(__c.37)
  28 0004 0E94 0000 		call xputs
  29               	.LVL0:
 547:../../tmk_core/common/command.c ****           "ESC/q:	quit\n"
 548:../../tmk_core/common/command.c ****           "1:	delay(*10ms)\n"
 549:../../tmk_core/common/command.c ****           "2:	interval(ms)\n"
 550:../../tmk_core/common/command.c ****           "3:	max_speed\n"
 551:../../tmk_core/common/command.c ****           "4:	time_to_max\n"
 552:../../tmk_core/common/command.c ****           "5:	wheel_max_speed\n"
 553:../../tmk_core/common/command.c ****           "6:	wheel_time_to_max\n"
 554:../../tmk_core/common/command.c ****           "\n"
 555:../../tmk_core/common/command.c ****           "p:	print values\n"
 556:../../tmk_core/common/command.c ****           "d:	set defaults\n"
 557:../../tmk_core/common/command.c ****           "up:	+1\n"
 558:../../tmk_core/common/command.c ****           "down:	-1\n"
 559:../../tmk_core/common/command.c ****           "pgup:	+10\n"
 560:../../tmk_core/common/command.c ****           "pgdown:	-10\n"
 561:../../tmk_core/common/command.c ****           "\n"
 562:../../tmk_core/common/command.c ****           "speed = delta * max_speed * (repeat / time_to_max)\n");
 563:../../tmk_core/common/command.c ****     xprintf("where delta: cursor=%d, wheel=%d\n" 
  30               		.loc 1 563 5 view .LVU4
  31               	.LBB33:
  32               		.loc 1 563 5 view .LVU5
  33               		.loc 1 563 5 view .LVU6
  34               	.LBE33:
  35 0008 1F92      		push __zero_reg__
  36               	.LCFI0:
  37               		.cfi_def_cfa_offset 3
  38 000a 81E0      		ldi r24,lo8(1)
  39 000c 8F93      		push r24
  40               	.LCFI1:
  41               		.cfi_def_cfa_offset 4
  42 000e 1F92      		push __zero_reg__
  43               	.LCFI2:
  44               		.cfi_def_cfa_offset 5
  45 0010 85E0      		ldi r24,lo8(5)
  46 0012 8F93      		push r24
  47               	.LCFI3:
  48               		.cfi_def_cfa_offset 6
  49 0014 80E0      		ldi r24,lo8(__c.36)
  50 0016 90E0      		ldi r25,hi8(__c.36)
  51 0018 9F93      		push r25
  52               	.LCFI4:
  53               		.cfi_def_cfa_offset 7
  54 001a 8F93      		push r24
  55               	.LCFI5:
  56               		.cfi_def_cfa_offset 8
  57 001c 0E94 0000 		call __xprintf
  58               	.LVL1:
 564:../../tmk_core/common/command.c ****             "See http://en.wikipedia.org/wiki/Mouse_keys\n", MOUSEKEY_MOVE_DELTA,  MOUSEKEY_WHEEL_D
 565:../../tmk_core/common/command.c **** }
  59               		.loc 1 565 1 is_stmt 0 view .LVU7
  60 0020 0F90      		pop __tmp_reg__
  61 0022 0F90      		pop __tmp_reg__
  62 0024 0F90      		pop __tmp_reg__
  63 0026 0F90      		pop __tmp_reg__
  64 0028 0F90      		pop __tmp_reg__
  65 002a 0F90      		pop __tmp_reg__
  66               	.LCFI6:
  67               		.cfi_def_cfa_offset 2
  68               	/* epilogue start */
  69 002c 0895      		ret
  70               		.cfi_endproc
  71               	.LFE21:
  73               		.section	.text.mousekey_param_inc,"ax",@progbits
  75               	mousekey_param_inc:
  76               	.LVL2:
  77               	.LFB19:
 449:../../tmk_core/common/command.c ****     switch (param) {
  78               		.loc 1 449 1 is_stmt 1 view -0
  79               		.cfi_startproc
  80               	/* prologue: function */
  81               	/* frame size = 0 */
  82               	/* stack size = 0 */
  83               	.L__stack_usage = 0
 450:../../tmk_core/common/command.c ****         case 1:
  84               		.loc 1 450 5 view .LVU9
  85 0000 8430      		cpi r24,lo8(4)
  86 0002 01F4      		brne .+2
  87 0004 00C0      		rjmp .L3
  88 0006 00F4      		brsh .L4
  89 0008 8230      		cpi r24,lo8(2)
  90 000a 01F0      		breq .L5
  91 000c 8330      		cpi r24,lo8(3)
  92 000e 01F4      		brne .+2
  93 0010 00C0      		rjmp .L6
  94 0012 8130      		cpi r24,lo8(1)
  95 0014 01F0      		breq .L7
  96 0016 0895      		ret
  97               	.L4:
  98 0018 8530      		cpi r24,lo8(5)
  99 001a 01F4      		brne .+2
 100 001c 00C0      		rjmp .L9
 101 001e 8630      		cpi r24,lo8(6)
 102 0020 01F4      		brne .+2
 103 0022 00C0      		rjmp .L10
 104 0024 0895      		ret
 105               	.L7:
 452:../../tmk_core/common/command.c ****                 mk_delay += inc;
 106               		.loc 1 452 13 view .LVU10
 452:../../tmk_core/common/command.c ****                 mk_delay += inc;
 107               		.loc 1 452 26 is_stmt 0 view .LVU11
 108 0026 8091 0000 		lds r24,mk_delay
 109               	.LVL3:
 452:../../tmk_core/common/command.c ****                 mk_delay += inc;
 110               		.loc 1 452 26 view .LVU12
 111 002a 482F      		mov r20,r24
 112 002c 460F      		add r20,r22
 113 002e 5527      		clr r21
 114 0030 551F      		rol r21
 452:../../tmk_core/common/command.c ****                 mk_delay += inc;
 115               		.loc 1 452 16 view .LVU13
 116 0032 4F3F      		cpi r20,-1
 117 0034 5105      		cpc r21,__zero_reg__
 118 0036 04F4      		brge .L11
 453:../../tmk_core/common/command.c ****             else
 119               		.loc 1 453 17 is_stmt 1 view .LVU14
 453:../../tmk_core/common/command.c ****             else
 120               		.loc 1 453 26 is_stmt 0 view .LVU15
 121 0038 680F      		add r22,r24
 122               	.LVL4:
 453:../../tmk_core/common/command.c ****             else
 123               		.loc 1 453 26 view .LVU16
 124 003a 6093 0000 		sts mk_delay,r22
 125               	.L12:
 456:../../tmk_core/common/command.c ****             break;
 126               		.loc 1 456 13 is_stmt 1 view .LVU17
 127               	.LBB34:
 456:../../tmk_core/common/command.c ****             break;
 128               		.loc 1 456 13 view .LVU18
 456:../../tmk_core/common/command.c ****             break;
 129               		.loc 1 456 13 view .LVU19
 130               	.LBE34:
 131 003e 8091 0000 		lds r24,mk_delay
 132 0042 1F92      		push __zero_reg__
 133               	.LCFI7:
 134               		.cfi_def_cfa_offset 3
 135 0044 8F93      		push r24
 136               	.LCFI8:
 137               		.cfi_def_cfa_offset 4
 138 0046 80E0      		ldi r24,lo8(__c.11)
 139 0048 90E0      		ldi r25,hi8(__c.11)
 140               	.L23:
 491:../../tmk_core/common/command.c ****             break;
 141               		.loc 1 491 13 is_stmt 0 view .LVU20
 142 004a 9F93      		push r25
 143               	.LCFI9:
 144               		.cfi_def_cfa_offset 5
 145 004c 8F93      		push r24
 146               	.LCFI10:
 147               		.cfi_def_cfa_offset 6
 148 004e 0E94 0000 		call __xprintf
 149               	.LVL5:
 492:../../tmk_core/common/command.c ****     }
 150               		.loc 1 492 13 is_stmt 1 view .LVU21
 151 0052 0F90      		pop __tmp_reg__
 152 0054 0F90      		pop __tmp_reg__
 153 0056 0F90      		pop __tmp_reg__
 154 0058 0F90      		pop __tmp_reg__
 155               	.LCFI11:
 156               		.cfi_def_cfa_offset 2
 157               	/* epilogue start */
 494:../../tmk_core/common/command.c **** 
 158               		.loc 1 494 1 is_stmt 0 view .LVU22
 159 005a 0895      		ret
 160               	.LVL6:
 161               	.L11:
 455:../../tmk_core/common/command.c ****             PRINT_SET_VAL(mk_delay);
 162               		.loc 1 455 17 is_stmt 1 view .LVU23
 455:../../tmk_core/common/command.c ****             PRINT_SET_VAL(mk_delay);
 163               		.loc 1 455 26 is_stmt 0 view .LVU24
 164 005c 8FEF      		ldi r24,lo8(-1)
 165 005e 8093 0000 		sts mk_delay,r24
 166 0062 00C0      		rjmp .L12
 167               	.LVL7:
 168               	.L5:
 459:../../tmk_core/common/command.c ****                 mk_interval += inc;
 169               		.loc 1 459 13 is_stmt 1 view .LVU25
 459:../../tmk_core/common/command.c ****                 mk_interval += inc;
 170               		.loc 1 459 29 is_stmt 0 view .LVU26
 171 0064 8091 0000 		lds r24,mk_interval
 172               	.LVL8:
 459:../../tmk_core/common/command.c ****                 mk_interval += inc;
 173               		.loc 1 459 29 view .LVU27
 174 0068 482F      		mov r20,r24
 175 006a 460F      		add r20,r22
 176 006c 5527      		clr r21
 177 006e 551F      		rol r21
 459:../../tmk_core/common/command.c ****                 mk_interval += inc;
 178               		.loc 1 459 16 view .LVU28
 179 0070 4F3F      		cpi r20,-1
 180 0072 5105      		cpc r21,__zero_reg__
 181 0074 04F4      		brge .L13
 460:../../tmk_core/common/command.c ****             else
 182               		.loc 1 460 17 is_stmt 1 view .LVU29
 460:../../tmk_core/common/command.c ****             else
 183               		.loc 1 460 29 is_stmt 0 view .LVU30
 184 0076 680F      		add r22,r24
 185               	.LVL9:
 460:../../tmk_core/common/command.c ****             else
 186               		.loc 1 460 29 view .LVU31
 187 0078 6093 0000 		sts mk_interval,r22
 188               	.L14:
 463:../../tmk_core/common/command.c ****             break;
 189               		.loc 1 463 13 is_stmt 1 view .LVU32
 190               	.LBB35:
 463:../../tmk_core/common/command.c ****             break;
 191               		.loc 1 463 13 view .LVU33
 463:../../tmk_core/common/command.c ****             break;
 192               		.loc 1 463 13 view .LVU34
 193               	.LBE35:
 194 007c 8091 0000 		lds r24,mk_interval
 195 0080 1F92      		push __zero_reg__
 196               	.LCFI12:
 197               		.cfi_remember_state
 198               		.cfi_def_cfa_offset 3
 199 0082 8F93      		push r24
 200               	.LCFI13:
 201               		.cfi_def_cfa_offset 4
 202 0084 80E0      		ldi r24,lo8(__c.10)
 203 0086 90E0      		ldi r25,hi8(__c.10)
 204 0088 00C0      		rjmp .L23
 205               	.LVL10:
 206               	.L13:
 207               	.LCFI14:
 208               		.cfi_restore_state
 462:../../tmk_core/common/command.c ****             PRINT_SET_VAL(mk_interval);
 209               		.loc 1 462 17 view .LVU35
 462:../../tmk_core/common/command.c ****             PRINT_SET_VAL(mk_interval);
 210               		.loc 1 462 29 is_stmt 0 view .LVU36
 211 008a 8FEF      		ldi r24,lo8(-1)
 212 008c 8093 0000 		sts mk_interval,r24
 213 0090 00C0      		rjmp .L14
 214               	.LVL11:
 215               	.L6:
 466:../../tmk_core/common/command.c ****                 mk_max_speed += inc;
 216               		.loc 1 466 13 is_stmt 1 view .LVU37
 466:../../tmk_core/common/command.c ****                 mk_max_speed += inc;
 217               		.loc 1 466 30 is_stmt 0 view .LVU38
 218 0092 8091 0000 		lds r24,mk_max_speed
 219               	.LVL12:
 466:../../tmk_core/common/command.c ****                 mk_max_speed += inc;
 220               		.loc 1 466 30 view .LVU39
 221 0096 482F      		mov r20,r24
 222 0098 460F      		add r20,r22
 223 009a 5527      		clr r21
 224 009c 551F      		rol r21
 466:../../tmk_core/common/command.c ****                 mk_max_speed += inc;
 225               		.loc 1 466 16 view .LVU40
 226 009e 4F3F      		cpi r20,-1
 227 00a0 5105      		cpc r21,__zero_reg__
 228 00a2 04F4      		brge .L15
 467:../../tmk_core/common/command.c ****             else
 229               		.loc 1 467 17 is_stmt 1 view .LVU41
 467:../../tmk_core/common/command.c ****             else
 230               		.loc 1 467 30 is_stmt 0 view .LVU42
 231 00a4 680F      		add r22,r24
 232               	.LVL13:
 467:../../tmk_core/common/command.c ****             else
 233               		.loc 1 467 30 view .LVU43
 234 00a6 6093 0000 		sts mk_max_speed,r22
 235               	.L16:
 470:../../tmk_core/common/command.c ****             break;
 236               		.loc 1 470 13 is_stmt 1 view .LVU44
 237               	.LBB36:
 470:../../tmk_core/common/command.c ****             break;
 238               		.loc 1 470 13 view .LVU45
 470:../../tmk_core/common/command.c ****             break;
 239               		.loc 1 470 13 view .LVU46
 240               	.LBE36:
 241 00aa 8091 0000 		lds r24,mk_max_speed
 242 00ae 1F92      		push __zero_reg__
 243               	.LCFI15:
 244               		.cfi_remember_state
 245               		.cfi_def_cfa_offset 3
 246 00b0 8F93      		push r24
 247               	.LCFI16:
 248               		.cfi_def_cfa_offset 4
 249 00b2 80E0      		ldi r24,lo8(__c.9)
 250 00b4 90E0      		ldi r25,hi8(__c.9)
 251 00b6 00C0      		rjmp .L23
 252               	.LVL14:
 253               	.L15:
 254               	.LCFI17:
 255               		.cfi_restore_state
 469:../../tmk_core/common/command.c ****             PRINT_SET_VAL(mk_max_speed);
 256               		.loc 1 469 17 view .LVU47
 469:../../tmk_core/common/command.c ****             PRINT_SET_VAL(mk_max_speed);
 257               		.loc 1 469 30 is_stmt 0 view .LVU48
 258 00b8 8FEF      		ldi r24,lo8(-1)
 259 00ba 8093 0000 		sts mk_max_speed,r24
 260 00be 00C0      		rjmp .L16
 261               	.LVL15:
 262               	.L3:
 473:../../tmk_core/common/command.c ****                 mk_time_to_max += inc;
 263               		.loc 1 473 13 is_stmt 1 view .LVU49
 473:../../tmk_core/common/command.c ****                 mk_time_to_max += inc;
 264               		.loc 1 473 32 is_stmt 0 view .LVU50
 265 00c0 8091 0000 		lds r24,mk_time_to_max
 266               	.LVL16:
 473:../../tmk_core/common/command.c ****                 mk_time_to_max += inc;
 267               		.loc 1 473 32 view .LVU51
 268 00c4 482F      		mov r20,r24
 269 00c6 460F      		add r20,r22
 270 00c8 5527      		clr r21
 271 00ca 551F      		rol r21
 473:../../tmk_core/common/command.c ****                 mk_time_to_max += inc;
 272               		.loc 1 473 16 view .LVU52
 273 00cc 4F3F      		cpi r20,-1
 274 00ce 5105      		cpc r21,__zero_reg__
 275 00d0 04F4      		brge .L17
 474:../../tmk_core/common/command.c ****             else
 276               		.loc 1 474 17 is_stmt 1 view .LVU53
 474:../../tmk_core/common/command.c ****             else
 277               		.loc 1 474 32 is_stmt 0 view .LVU54
 278 00d2 680F      		add r22,r24
 279               	.LVL17:
 474:../../tmk_core/common/command.c ****             else
 280               		.loc 1 474 32 view .LVU55
 281 00d4 6093 0000 		sts mk_time_to_max,r22
 282               	.L18:
 477:../../tmk_core/common/command.c ****             break;
 283               		.loc 1 477 13 is_stmt 1 view .LVU56
 284               	.LBB37:
 477:../../tmk_core/common/command.c ****             break;
 285               		.loc 1 477 13 view .LVU57
 477:../../tmk_core/common/command.c ****             break;
 286               		.loc 1 477 13 view .LVU58
 287               	.LBE37:
 288 00d8 8091 0000 		lds r24,mk_time_to_max
 289 00dc 1F92      		push __zero_reg__
 290               	.LCFI18:
 291               		.cfi_remember_state
 292               		.cfi_def_cfa_offset 3
 293 00de 8F93      		push r24
 294               	.LCFI19:
 295               		.cfi_def_cfa_offset 4
 296 00e0 80E0      		ldi r24,lo8(__c.8)
 297 00e2 90E0      		ldi r25,hi8(__c.8)
 298 00e4 00C0      		rjmp .L23
 299               	.LVL18:
 300               	.L17:
 301               	.LCFI20:
 302               		.cfi_restore_state
 476:../../tmk_core/common/command.c ****             PRINT_SET_VAL(mk_time_to_max);
 303               		.loc 1 476 17 view .LVU59
 476:../../tmk_core/common/command.c ****             PRINT_SET_VAL(mk_time_to_max);
 304               		.loc 1 476 32 is_stmt 0 view .LVU60
 305 00e6 8FEF      		ldi r24,lo8(-1)
 306 00e8 8093 0000 		sts mk_time_to_max,r24
 307 00ec 00C0      		rjmp .L18
 308               	.LVL19:
 309               	.L9:
 480:../../tmk_core/common/command.c ****                 mk_wheel_max_speed += inc;
 310               		.loc 1 480 13 is_stmt 1 view .LVU61
 480:../../tmk_core/common/command.c ****                 mk_wheel_max_speed += inc;
 311               		.loc 1 480 36 is_stmt 0 view .LVU62
 312 00ee 8091 0000 		lds r24,mk_wheel_max_speed
 313               	.LVL20:
 480:../../tmk_core/common/command.c ****                 mk_wheel_max_speed += inc;
 314               		.loc 1 480 36 view .LVU63
 315 00f2 482F      		mov r20,r24
 316 00f4 460F      		add r20,r22
 317 00f6 5527      		clr r21
 318 00f8 551F      		rol r21
 480:../../tmk_core/common/command.c ****                 mk_wheel_max_speed += inc;
 319               		.loc 1 480 16 view .LVU64
 320 00fa 4F3F      		cpi r20,-1
 321 00fc 5105      		cpc r21,__zero_reg__
 322 00fe 04F4      		brge .L19
 481:../../tmk_core/common/command.c ****             else
 323               		.loc 1 481 17 is_stmt 1 view .LVU65
 481:../../tmk_core/common/command.c ****             else
 324               		.loc 1 481 36 is_stmt 0 view .LVU66
 325 0100 680F      		add r22,r24
 326               	.LVL21:
 481:../../tmk_core/common/command.c ****             else
 327               		.loc 1 481 36 view .LVU67
 328 0102 6093 0000 		sts mk_wheel_max_speed,r22
 329               	.L20:
 484:../../tmk_core/common/command.c ****             break;
 330               		.loc 1 484 13 is_stmt 1 view .LVU68
 331               	.LBB38:
 484:../../tmk_core/common/command.c ****             break;
 332               		.loc 1 484 13 view .LVU69
 484:../../tmk_core/common/command.c ****             break;
 333               		.loc 1 484 13 view .LVU70
 334               	.LBE38:
 335 0106 8091 0000 		lds r24,mk_wheel_max_speed
 336 010a 1F92      		push __zero_reg__
 337               	.LCFI21:
 338               		.cfi_remember_state
 339               		.cfi_def_cfa_offset 3
 340 010c 8F93      		push r24
 341               	.LCFI22:
 342               		.cfi_def_cfa_offset 4
 343 010e 80E0      		ldi r24,lo8(__c.7)
 344 0110 90E0      		ldi r25,hi8(__c.7)
 345 0112 00C0      		rjmp .L23
 346               	.LVL22:
 347               	.L19:
 348               	.LCFI23:
 349               		.cfi_restore_state
 483:../../tmk_core/common/command.c ****             PRINT_SET_VAL(mk_wheel_max_speed);
 350               		.loc 1 483 17 view .LVU71
 483:../../tmk_core/common/command.c ****             PRINT_SET_VAL(mk_wheel_max_speed);
 351               		.loc 1 483 36 is_stmt 0 view .LVU72
 352 0114 8FEF      		ldi r24,lo8(-1)
 353 0116 8093 0000 		sts mk_wheel_max_speed,r24
 354 011a 00C0      		rjmp .L20
 355               	.LVL23:
 356               	.L10:
 487:../../tmk_core/common/command.c ****                 mk_wheel_time_to_max += inc;
 357               		.loc 1 487 13 is_stmt 1 view .LVU73
 487:../../tmk_core/common/command.c ****                 mk_wheel_time_to_max += inc;
 358               		.loc 1 487 38 is_stmt 0 view .LVU74
 359 011c 8091 0000 		lds r24,mk_wheel_time_to_max
 360               	.LVL24:
 487:../../tmk_core/common/command.c ****                 mk_wheel_time_to_max += inc;
 361               		.loc 1 487 38 view .LVU75
 362 0120 482F      		mov r20,r24
 363 0122 460F      		add r20,r22
 364 0124 5527      		clr r21
 365 0126 551F      		rol r21
 487:../../tmk_core/common/command.c ****                 mk_wheel_time_to_max += inc;
 366               		.loc 1 487 16 view .LVU76
 367 0128 4F3F      		cpi r20,-1
 368 012a 5105      		cpc r21,__zero_reg__
 369 012c 04F4      		brge .L21
 488:../../tmk_core/common/command.c ****             else
 370               		.loc 1 488 17 is_stmt 1 view .LVU77
 488:../../tmk_core/common/command.c ****             else
 371               		.loc 1 488 38 is_stmt 0 view .LVU78
 372 012e 680F      		add r22,r24
 373               	.LVL25:
 488:../../tmk_core/common/command.c ****             else
 374               		.loc 1 488 38 view .LVU79
 375 0130 6093 0000 		sts mk_wheel_time_to_max,r22
 376               	.L22:
 491:../../tmk_core/common/command.c ****             break;
 377               		.loc 1 491 13 is_stmt 1 view .LVU80
 378               	.LBB39:
 491:../../tmk_core/common/command.c ****             break;
 379               		.loc 1 491 13 view .LVU81
 491:../../tmk_core/common/command.c ****             break;
 380               		.loc 1 491 13 view .LVU82
 381               	.LBE39:
 382 0134 8091 0000 		lds r24,mk_wheel_time_to_max
 383 0138 1F92      		push __zero_reg__
 384               	.LCFI24:
 385               		.cfi_remember_state
 386               		.cfi_def_cfa_offset 3
 387 013a 8F93      		push r24
 388               	.LCFI25:
 389               		.cfi_def_cfa_offset 4
 390 013c 80E0      		ldi r24,lo8(__c.6)
 391 013e 90E0      		ldi r25,hi8(__c.6)
 392 0140 00C0      		rjmp .L23
 393               	.LVL26:
 394               	.L21:
 395               	.LCFI26:
 396               		.cfi_restore_state
 490:../../tmk_core/common/command.c ****             PRINT_SET_VAL(mk_wheel_time_to_max);
 397               		.loc 1 490 17 view .LVU83
 490:../../tmk_core/common/command.c ****             PRINT_SET_VAL(mk_wheel_time_to_max);
 398               		.loc 1 490 38 is_stmt 0 view .LVU84
 399 0142 8FEF      		ldi r24,lo8(-1)
 400 0144 8093 0000 		sts mk_wheel_time_to_max,r24
 401 0148 00C0      		rjmp .L22
 402               		.cfi_endproc
 403               	.LFE19:
 405               		.section	.text.mousekey_param_dec,"ax",@progbits
 407               	mousekey_param_dec:
 408               	.LVL27:
 409               	.LFB20:
 497:../../tmk_core/common/command.c ****     switch (param) {
 410               		.loc 1 497 1 is_stmt 1 view -0
 411               		.cfi_startproc
 412               	/* prologue: function */
 413               	/* frame size = 0 */
 414               	/* stack size = 0 */
 415               	.L__stack_usage = 0
 498:../../tmk_core/common/command.c ****         case 1:
 416               		.loc 1 498 5 view .LVU86
 417 0000 8430      		cpi r24,lo8(4)
 418 0002 01F4      		brne .+2
 419 0004 00C0      		rjmp .L25
 420 0006 00F4      		brsh .L26
 421 0008 8230      		cpi r24,lo8(2)
 422 000a 01F0      		breq .L27
 423 000c 8330      		cpi r24,lo8(3)
 424 000e 01F0      		breq .L28
 425 0010 8130      		cpi r24,lo8(1)
 426 0012 01F0      		breq .L29
 427 0014 0895      		ret
 428               	.L26:
 429 0016 8530      		cpi r24,lo8(5)
 430 0018 01F4      		brne .+2
 431 001a 00C0      		rjmp .L31
 432 001c 8630      		cpi r24,lo8(6)
 433 001e 01F4      		brne .+2
 434 0020 00C0      		rjmp .L32
 435 0022 0895      		ret
 436               	.L29:
 500:../../tmk_core/common/command.c ****                 mk_delay -= dec;
 437               		.loc 1 500 13 view .LVU87
 500:../../tmk_core/common/command.c ****                 mk_delay -= dec;
 438               		.loc 1 500 26 is_stmt 0 view .LVU88
 439 0024 8091 0000 		lds r24,mk_delay
 440               	.LVL28:
 500:../../tmk_core/common/command.c ****                 mk_delay -= dec;
 441               		.loc 1 500 16 view .LVU89
 442 0028 6817      		cp r22,r24
 443 002a 00F4      		brsh .L33
 501:../../tmk_core/common/command.c ****             else
 444               		.loc 1 501 17 is_stmt 1 view .LVU90
 501:../../tmk_core/common/command.c ****             else
 445               		.loc 1 501 26 is_stmt 0 view .LVU91
 446 002c 861B      		sub r24,r22
 447 002e 8093 0000 		sts mk_delay,r24
 448               	.L34:
 504:../../tmk_core/common/command.c ****             break;
 449               		.loc 1 504 13 is_stmt 1 view .LVU92
 450               	.LBB40:
 504:../../tmk_core/common/command.c ****             break;
 451               		.loc 1 504 13 view .LVU93
 504:../../tmk_core/common/command.c ****             break;
 452               		.loc 1 504 13 view .LVU94
 453               	.LBE40:
 454 0032 8091 0000 		lds r24,mk_delay
 455 0036 1F92      		push __zero_reg__
 456               	.LCFI27:
 457               		.cfi_def_cfa_offset 3
 458 0038 8F93      		push r24
 459               	.LCFI28:
 460               		.cfi_def_cfa_offset 4
 461 003a 80E0      		ldi r24,lo8(__c.5)
 462 003c 90E0      		ldi r25,hi8(__c.5)
 463               	.L45:
 539:../../tmk_core/common/command.c ****             break;
 464               		.loc 1 539 13 is_stmt 0 view .LVU95
 465 003e 9F93      		push r25
 466               	.LCFI29:
 467               		.cfi_def_cfa_offset 5
 468 0040 8F93      		push r24
 469               	.LCFI30:
 470               		.cfi_def_cfa_offset 6
 471 0042 0E94 0000 		call __xprintf
 472               	.LVL29:
 540:../../tmk_core/common/command.c ****     }
 473               		.loc 1 540 13 is_stmt 1 view .LVU96
 474 0046 0F90      		pop __tmp_reg__
 475 0048 0F90      		pop __tmp_reg__
 476 004a 0F90      		pop __tmp_reg__
 477 004c 0F90      		pop __tmp_reg__
 478               	.LCFI31:
 479               		.cfi_def_cfa_offset 2
 480               	/* epilogue start */
 542:../../tmk_core/common/command.c **** 
 481               		.loc 1 542 1 is_stmt 0 view .LVU97
 482 004e 0895      		ret
 483               	.LVL30:
 484               	.L33:
 503:../../tmk_core/common/command.c ****             PRINT_SET_VAL(mk_delay);
 485               		.loc 1 503 17 is_stmt 1 view .LVU98
 503:../../tmk_core/common/command.c ****             PRINT_SET_VAL(mk_delay);
 486               		.loc 1 503 26 is_stmt 0 view .LVU99
 487 0050 1092 0000 		sts mk_delay,__zero_reg__
 488 0054 00C0      		rjmp .L34
 489               	.LVL31:
 490               	.L27:
 507:../../tmk_core/common/command.c ****                 mk_interval -= dec;
 491               		.loc 1 507 13 is_stmt 1 view .LVU100
 507:../../tmk_core/common/command.c ****                 mk_interval -= dec;
 492               		.loc 1 507 29 is_stmt 0 view .LVU101
 493 0056 8091 0000 		lds r24,mk_interval
 494               	.LVL32:
 507:../../tmk_core/common/command.c ****                 mk_interval -= dec;
 495               		.loc 1 507 16 view .LVU102
 496 005a 6817      		cp r22,r24
 497 005c 00F4      		brsh .L35
 508:../../tmk_core/common/command.c ****             else
 498               		.loc 1 508 17 is_stmt 1 view .LVU103
 508:../../tmk_core/common/command.c ****             else
 499               		.loc 1 508 29 is_stmt 0 view .LVU104
 500 005e 861B      		sub r24,r22
 501 0060 8093 0000 		sts mk_interval,r24
 502               	.L36:
 511:../../tmk_core/common/command.c ****             break;
 503               		.loc 1 511 13 is_stmt 1 view .LVU105
 504               	.LBB41:
 511:../../tmk_core/common/command.c ****             break;
 505               		.loc 1 511 13 view .LVU106
 511:../../tmk_core/common/command.c ****             break;
 506               		.loc 1 511 13 view .LVU107
 507               	.LBE41:
 508 0064 8091 0000 		lds r24,mk_interval
 509 0068 1F92      		push __zero_reg__
 510               	.LCFI32:
 511               		.cfi_remember_state
 512               		.cfi_def_cfa_offset 3
 513 006a 8F93      		push r24
 514               	.LCFI33:
 515               		.cfi_def_cfa_offset 4
 516 006c 80E0      		ldi r24,lo8(__c.4)
 517 006e 90E0      		ldi r25,hi8(__c.4)
 518 0070 00C0      		rjmp .L45
 519               	.L35:
 520               	.LCFI34:
 521               		.cfi_restore_state
 510:../../tmk_core/common/command.c ****             PRINT_SET_VAL(mk_interval);
 522               		.loc 1 510 17 view .LVU108
 510:../../tmk_core/common/command.c ****             PRINT_SET_VAL(mk_interval);
 523               		.loc 1 510 29 is_stmt 0 view .LVU109
 524 0072 1092 0000 		sts mk_interval,__zero_reg__
 525 0076 00C0      		rjmp .L36
 526               	.LVL33:
 527               	.L28:
 514:../../tmk_core/common/command.c ****                 mk_max_speed -= dec;
 528               		.loc 1 514 13 is_stmt 1 view .LVU110
 514:../../tmk_core/common/command.c ****                 mk_max_speed -= dec;
 529               		.loc 1 514 30 is_stmt 0 view .LVU111
 530 0078 8091 0000 		lds r24,mk_max_speed
 531               	.LVL34:
 514:../../tmk_core/common/command.c ****                 mk_max_speed -= dec;
 532               		.loc 1 514 16 view .LVU112
 533 007c 6817      		cp r22,r24
 534 007e 00F4      		brsh .L37
 515:../../tmk_core/common/command.c ****             else
 535               		.loc 1 515 17 is_stmt 1 view .LVU113
 515:../../tmk_core/common/command.c ****             else
 536               		.loc 1 515 30 is_stmt 0 view .LVU114
 537 0080 861B      		sub r24,r22
 538 0082 8093 0000 		sts mk_max_speed,r24
 539               	.L38:
 518:../../tmk_core/common/command.c ****             break;
 540               		.loc 1 518 13 is_stmt 1 view .LVU115
 541               	.LBB42:
 518:../../tmk_core/common/command.c ****             break;
 542               		.loc 1 518 13 view .LVU116
 518:../../tmk_core/common/command.c ****             break;
 543               		.loc 1 518 13 view .LVU117
 544               	.LBE42:
 545 0086 8091 0000 		lds r24,mk_max_speed
 546 008a 1F92      		push __zero_reg__
 547               	.LCFI35:
 548               		.cfi_remember_state
 549               		.cfi_def_cfa_offset 3
 550 008c 8F93      		push r24
 551               	.LCFI36:
 552               		.cfi_def_cfa_offset 4
 553 008e 80E0      		ldi r24,lo8(__c.3)
 554 0090 90E0      		ldi r25,hi8(__c.3)
 555 0092 00C0      		rjmp .L45
 556               	.L37:
 557               	.LCFI37:
 558               		.cfi_restore_state
 517:../../tmk_core/common/command.c ****             PRINT_SET_VAL(mk_max_speed);
 559               		.loc 1 517 17 view .LVU118
 517:../../tmk_core/common/command.c ****             PRINT_SET_VAL(mk_max_speed);
 560               		.loc 1 517 30 is_stmt 0 view .LVU119
 561 0094 1092 0000 		sts mk_max_speed,__zero_reg__
 562 0098 00C0      		rjmp .L38
 563               	.LVL35:
 564               	.L25:
 521:../../tmk_core/common/command.c ****                 mk_time_to_max -= dec;
 565               		.loc 1 521 13 is_stmt 1 view .LVU120
 521:../../tmk_core/common/command.c ****                 mk_time_to_max -= dec;
 566               		.loc 1 521 32 is_stmt 0 view .LVU121
 567 009a 8091 0000 		lds r24,mk_time_to_max
 568               	.LVL36:
 521:../../tmk_core/common/command.c ****                 mk_time_to_max -= dec;
 569               		.loc 1 521 16 view .LVU122
 570 009e 6817      		cp r22,r24
 571 00a0 00F4      		brsh .L39
 522:../../tmk_core/common/command.c ****             else
 572               		.loc 1 522 17 is_stmt 1 view .LVU123
 522:../../tmk_core/common/command.c ****             else
 573               		.loc 1 522 32 is_stmt 0 view .LVU124
 574 00a2 861B      		sub r24,r22
 575 00a4 8093 0000 		sts mk_time_to_max,r24
 576               	.L40:
 525:../../tmk_core/common/command.c ****             break;
 577               		.loc 1 525 13 is_stmt 1 view .LVU125
 578               	.LBB43:
 525:../../tmk_core/common/command.c ****             break;
 579               		.loc 1 525 13 view .LVU126
 525:../../tmk_core/common/command.c ****             break;
 580               		.loc 1 525 13 view .LVU127
 581               	.LBE43:
 582 00a8 8091 0000 		lds r24,mk_time_to_max
 583 00ac 1F92      		push __zero_reg__
 584               	.LCFI38:
 585               		.cfi_remember_state
 586               		.cfi_def_cfa_offset 3
 587 00ae 8F93      		push r24
 588               	.LCFI39:
 589               		.cfi_def_cfa_offset 4
 590 00b0 80E0      		ldi r24,lo8(__c.2)
 591 00b2 90E0      		ldi r25,hi8(__c.2)
 592 00b4 00C0      		rjmp .L45
 593               	.L39:
 594               	.LCFI40:
 595               		.cfi_restore_state
 524:../../tmk_core/common/command.c ****             PRINT_SET_VAL(mk_time_to_max);
 596               		.loc 1 524 17 view .LVU128
 524:../../tmk_core/common/command.c ****             PRINT_SET_VAL(mk_time_to_max);
 597               		.loc 1 524 32 is_stmt 0 view .LVU129
 598 00b6 1092 0000 		sts mk_time_to_max,__zero_reg__
 599 00ba 00C0      		rjmp .L40
 600               	.LVL37:
 601               	.L31:
 528:../../tmk_core/common/command.c ****                 mk_wheel_max_speed -= dec;
 602               		.loc 1 528 13 is_stmt 1 view .LVU130
 528:../../tmk_core/common/command.c ****                 mk_wheel_max_speed -= dec;
 603               		.loc 1 528 36 is_stmt 0 view .LVU131
 604 00bc 8091 0000 		lds r24,mk_wheel_max_speed
 605               	.LVL38:
 528:../../tmk_core/common/command.c ****                 mk_wheel_max_speed -= dec;
 606               		.loc 1 528 16 view .LVU132
 607 00c0 6817      		cp r22,r24
 608 00c2 00F4      		brsh .L41
 529:../../tmk_core/common/command.c ****             else
 609               		.loc 1 529 17 is_stmt 1 view .LVU133
 529:../../tmk_core/common/command.c ****             else
 610               		.loc 1 529 36 is_stmt 0 view .LVU134
 611 00c4 861B      		sub r24,r22
 612 00c6 8093 0000 		sts mk_wheel_max_speed,r24
 613               	.L42:
 532:../../tmk_core/common/command.c ****             break;
 614               		.loc 1 532 13 is_stmt 1 view .LVU135
 615               	.LBB44:
 532:../../tmk_core/common/command.c ****             break;
 616               		.loc 1 532 13 view .LVU136
 532:../../tmk_core/common/command.c ****             break;
 617               		.loc 1 532 13 view .LVU137
 618               	.LBE44:
 619 00ca 8091 0000 		lds r24,mk_wheel_max_speed
 620 00ce 1F92      		push __zero_reg__
 621               	.LCFI41:
 622               		.cfi_remember_state
 623               		.cfi_def_cfa_offset 3
 624 00d0 8F93      		push r24
 625               	.LCFI42:
 626               		.cfi_def_cfa_offset 4
 627 00d2 80E0      		ldi r24,lo8(__c.1)
 628 00d4 90E0      		ldi r25,hi8(__c.1)
 629 00d6 00C0      		rjmp .L45
 630               	.L41:
 631               	.LCFI43:
 632               		.cfi_restore_state
 531:../../tmk_core/common/command.c ****             PRINT_SET_VAL(mk_wheel_max_speed);
 633               		.loc 1 531 17 view .LVU138
 531:../../tmk_core/common/command.c ****             PRINT_SET_VAL(mk_wheel_max_speed);
 634               		.loc 1 531 36 is_stmt 0 view .LVU139
 635 00d8 1092 0000 		sts mk_wheel_max_speed,__zero_reg__
 636 00dc 00C0      		rjmp .L42
 637               	.LVL39:
 638               	.L32:
 535:../../tmk_core/common/command.c ****                 mk_wheel_time_to_max -= dec;
 639               		.loc 1 535 13 is_stmt 1 view .LVU140
 535:../../tmk_core/common/command.c ****                 mk_wheel_time_to_max -= dec;
 640               		.loc 1 535 38 is_stmt 0 view .LVU141
 641 00de 8091 0000 		lds r24,mk_wheel_time_to_max
 642               	.LVL40:
 535:../../tmk_core/common/command.c ****                 mk_wheel_time_to_max -= dec;
 643               		.loc 1 535 16 view .LVU142
 644 00e2 6817      		cp r22,r24
 645 00e4 00F4      		brsh .L43
 536:../../tmk_core/common/command.c ****             else
 646               		.loc 1 536 17 is_stmt 1 view .LVU143
 536:../../tmk_core/common/command.c ****             else
 647               		.loc 1 536 38 is_stmt 0 view .LVU144
 648 00e6 861B      		sub r24,r22
 649 00e8 8093 0000 		sts mk_wheel_time_to_max,r24
 650               	.L44:
 539:../../tmk_core/common/command.c ****             break;
 651               		.loc 1 539 13 is_stmt 1 view .LVU145
 652               	.LBB45:
 539:../../tmk_core/common/command.c ****             break;
 653               		.loc 1 539 13 view .LVU146
 539:../../tmk_core/common/command.c ****             break;
 654               		.loc 1 539 13 view .LVU147
 655               	.LBE45:
 656 00ec 8091 0000 		lds r24,mk_wheel_time_to_max
 657 00f0 1F92      		push __zero_reg__
 658               	.LCFI44:
 659               		.cfi_remember_state
 660               		.cfi_def_cfa_offset 3
 661 00f2 8F93      		push r24
 662               	.LCFI45:
 663               		.cfi_def_cfa_offset 4
 664 00f4 80E0      		ldi r24,lo8(__c.0)
 665 00f6 90E0      		ldi r25,hi8(__c.0)
 666 00f8 00C0      		rjmp .L45
 667               	.L43:
 668               	.LCFI46:
 669               		.cfi_restore_state
 538:../../tmk_core/common/command.c ****             PRINT_SET_VAL(mk_wheel_time_to_max);
 670               		.loc 1 538 17 view .LVU148
 538:../../tmk_core/common/command.c ****             PRINT_SET_VAL(mk_wheel_time_to_max);
 671               		.loc 1 538 38 is_stmt 0 view .LVU149
 672 00fa 1092 0000 		sts mk_wheel_time_to_max,__zero_reg__
 673 00fe 00C0      		rjmp .L44
 674               		.cfi_endproc
 675               	.LFE20:
 677               		.section	.text.switch_default_layer,"ax",@progbits
 679               	switch_default_layer:
 680               	.LVL41:
 681               	.LFB24:
 566:../../tmk_core/common/command.c **** 
 567:../../tmk_core/common/command.c **** static bool mousekey_console(uint8_t code)
 568:../../tmk_core/common/command.c **** {
 569:../../tmk_core/common/command.c ****     switch (code) {
 570:../../tmk_core/common/command.c ****         case KC_H:
 571:../../tmk_core/common/command.c ****         case KC_SLASH: /* ? */
 572:../../tmk_core/common/command.c ****             mousekey_console_help();
 573:../../tmk_core/common/command.c ****             break;
 574:../../tmk_core/common/command.c ****         case KC_Q:
 575:../../tmk_core/common/command.c ****         case KC_ESC:
 576:../../tmk_core/common/command.c ****             if (mousekey_param) {
 577:../../tmk_core/common/command.c ****                 mousekey_param = 0;
 578:../../tmk_core/common/command.c ****             } else {
 579:../../tmk_core/common/command.c ****                 print("C> ");
 580:../../tmk_core/common/command.c ****                 command_state = CONSOLE;
 581:../../tmk_core/common/command.c ****                 return false;
 582:../../tmk_core/common/command.c ****             }
 583:../../tmk_core/common/command.c ****             break;
 584:../../tmk_core/common/command.c ****         case KC_P:
 585:../../tmk_core/common/command.c ****             mousekey_param_print();
 586:../../tmk_core/common/command.c ****             break;
 587:../../tmk_core/common/command.c ****         case KC_1:
 588:../../tmk_core/common/command.c ****         case KC_2:
 589:../../tmk_core/common/command.c ****         case KC_3:
 590:../../tmk_core/common/command.c ****         case KC_4:
 591:../../tmk_core/common/command.c ****         case KC_5:
 592:../../tmk_core/common/command.c ****         case KC_6:
 593:../../tmk_core/common/command.c ****             mousekey_param = numkey2num(code);
 594:../../tmk_core/common/command.c ****             break;
 595:../../tmk_core/common/command.c ****         case KC_UP:
 596:../../tmk_core/common/command.c ****             mousekey_param_inc(mousekey_param, 1);
 597:../../tmk_core/common/command.c ****             break;
 598:../../tmk_core/common/command.c ****         case KC_DOWN:
 599:../../tmk_core/common/command.c ****             mousekey_param_dec(mousekey_param, 1);
 600:../../tmk_core/common/command.c ****             break;
 601:../../tmk_core/common/command.c ****         case KC_PGUP:
 602:../../tmk_core/common/command.c ****             mousekey_param_inc(mousekey_param, 10);
 603:../../tmk_core/common/command.c ****             break;
 604:../../tmk_core/common/command.c ****         case KC_PGDN:
 605:../../tmk_core/common/command.c ****             mousekey_param_dec(mousekey_param, 10);
 606:../../tmk_core/common/command.c ****             break;
 607:../../tmk_core/common/command.c ****         case KC_D:
 608:../../tmk_core/common/command.c ****             mk_delay = MOUSEKEY_DELAY/10;
 609:../../tmk_core/common/command.c ****             mk_interval = MOUSEKEY_INTERVAL;
 610:../../tmk_core/common/command.c ****             mk_max_speed = MOUSEKEY_MAX_SPEED;
 611:../../tmk_core/common/command.c ****             mk_time_to_max = MOUSEKEY_TIME_TO_MAX;
 612:../../tmk_core/common/command.c ****             mk_wheel_max_speed = MOUSEKEY_WHEEL_MAX_SPEED;
 613:../../tmk_core/common/command.c ****             mk_wheel_time_to_max = MOUSEKEY_WHEEL_TIME_TO_MAX;
 614:../../tmk_core/common/command.c ****             print("set default\n");
 615:../../tmk_core/common/command.c ****             break;
 616:../../tmk_core/common/command.c ****         default:
 617:../../tmk_core/common/command.c ****             print("?");
 618:../../tmk_core/common/command.c ****             return false;
 619:../../tmk_core/common/command.c ****     }
 620:../../tmk_core/common/command.c ****     if (mousekey_param) {
 621:../../tmk_core/common/command.c ****         xprintf("M%d> ", mousekey_param);
 622:../../tmk_core/common/command.c ****     } else {
 623:../../tmk_core/common/command.c ****         print("M>" );
 624:../../tmk_core/common/command.c ****     }
 625:../../tmk_core/common/command.c ****     return true;
 626:../../tmk_core/common/command.c **** }
 627:../../tmk_core/common/command.c **** #endif
 628:../../tmk_core/common/command.c **** 
 629:../../tmk_core/common/command.c **** 
 630:../../tmk_core/common/command.c **** /***********************************************************
 631:../../tmk_core/common/command.c ****  * Utilities
 632:../../tmk_core/common/command.c ****  ***********************************************************/
 633:../../tmk_core/common/command.c **** #if MOUSEKEY_ENABLE
 634:../../tmk_core/common/command.c **** static uint8_t numkey2num(uint8_t code)
 635:../../tmk_core/common/command.c **** {
 636:../../tmk_core/common/command.c ****     switch (code) {
 637:../../tmk_core/common/command.c ****         case KC_1: return 1;
 638:../../tmk_core/common/command.c ****         case KC_2: return 2;
 639:../../tmk_core/common/command.c ****         case KC_3: return 3;
 640:../../tmk_core/common/command.c ****         case KC_4: return 4;
 641:../../tmk_core/common/command.c ****         case KC_5: return 5;
 642:../../tmk_core/common/command.c ****         case KC_6: return 6;
 643:../../tmk_core/common/command.c ****         case KC_7: return 7;
 644:../../tmk_core/common/command.c ****         case KC_8: return 8;
 645:../../tmk_core/common/command.c ****         case KC_9: return 9;
 646:../../tmk_core/common/command.c ****         case KC_0: return 0;
 647:../../tmk_core/common/command.c ****     }
 648:../../tmk_core/common/command.c ****     return 0;
 649:../../tmk_core/common/command.c **** }
 650:../../tmk_core/common/command.c **** #endif
 651:../../tmk_core/common/command.c **** 
 652:../../tmk_core/common/command.c **** static void switch_default_layer(uint8_t layer)
 653:../../tmk_core/common/command.c **** {
 682               		.loc 1 653 1 is_stmt 1 view -0
 683               		.cfi_startproc
 684               		.loc 1 653 1 is_stmt 0 view .LVU151
 685 0000 CF93      		push r28
 686               	.LCFI47:
 687               		.cfi_def_cfa_offset 3
 688               		.cfi_offset 28, -2
 689 0002 DF93      		push r29
 690               	.LCFI48:
 691               		.cfi_def_cfa_offset 4
 692               		.cfi_offset 29, -3
 693 0004 00D0      		rcall .
 694 0006 00D0      		rcall .
 695               	.LCFI49:
 696               		.cfi_def_cfa_offset 8
 697 0008 CDB7      		in r28,__SP_L__
 698 000a DEB7      		in r29,__SP_H__
 699               	.LCFI50:
 700               		.cfi_def_cfa_register 28
 701               	/* prologue: function */
 702               	/* frame size = 4 */
 703               	/* stack size = 6 */
 704               	.L__stack_usage = 6
 705 000c 8983      		std Y+1,r24
 654:../../tmk_core/common/command.c ****     xprintf("L%d\n", layer);
 706               		.loc 1 654 5 is_stmt 1 view .LVU152
 707               	.LBB46:
 708               		.loc 1 654 5 view .LVU153
 709               		.loc 1 654 5 view .LVU154
 710               	.LBE46:
 711 000e 1F92      		push __zero_reg__
 712 0010 8F93      		push r24
 713 0012 80E0      		ldi r24,lo8(__c.41)
 714 0014 90E0      		ldi r25,hi8(__c.41)
 715               	.LVL42:
 716               		.loc 1 654 5 is_stmt 0 view .LVU155
 717 0016 9F93      		push r25
 718 0018 8F93      		push r24
 719 001a 0E94 0000 		call __xprintf
 720               	.LVL43:
 655:../../tmk_core/common/command.c ****     default_layer_set(1UL<<layer);
 721               		.loc 1 655 5 is_stmt 1 view .LVU156
 722 001e 81E0      		ldi r24,lo8(1)
 723 0020 90E0      		ldi r25,0
 724 0022 A0E0      		ldi r26,0
 725 0024 B0E0      		ldi r27,0
 726 0026 9C01      		movw r18,r24
 727 0028 AD01      		movw r20,r26
 728 002a 0980      		ldd r0,Y+1
 729 002c 00C0      		rjmp 2f
 730               		1:
 731 002e 220F      		lsl r18
 732 0030 331F      		rol r19
 733 0032 441F      		rol r20
 734 0034 551F      		rol r21
 735               		2:
 736 0036 0A94      		dec r0
 737 0038 02F4      		brpl 1b
 738 003a 2983      		std Y+1,r18
 739 003c 3A83      		std Y+2,r19
 740 003e 4B83      		std Y+3,r20
 741 0040 5C83      		std Y+4,r21
 742 0042 CA01      		movw r24,r20
 743 0044 B901      		movw r22,r18
 744 0046 0E94 0000 		call default_layer_set
 745               	.LVL44:
 656:../../tmk_core/common/command.c ****     clear_keyboard();
 746               		.loc 1 656 5 view .LVU157
 747 004a 0F90      		pop __tmp_reg__
 748 004c 0F90      		pop __tmp_reg__
 749 004e 0F90      		pop __tmp_reg__
 750 0050 0F90      		pop __tmp_reg__
 751               	/* epilogue start */
 657:../../tmk_core/common/command.c **** }
 752               		.loc 1 657 1 is_stmt 0 view .LVU158
 753 0052 0F90      		pop __tmp_reg__
 754 0054 0F90      		pop __tmp_reg__
 755 0056 0F90      		pop __tmp_reg__
 756 0058 0F90      		pop __tmp_reg__
 757 005a DF91      		pop r29
 758 005c CF91      		pop r28
 656:../../tmk_core/common/command.c ****     clear_keyboard();
 759               		.loc 1 656 5 view .LVU159
 760 005e 0C94 0000 		jmp clear_keyboard
 761               	.LVL45:
 762               		.cfi_endproc
 763               	.LFE24:
 765               		.section	.text.command_common,"ax",@progbits
 767               	command_common:
 768               	.LFB15:
 183:../../tmk_core/common/command.c **** #ifdef KEYBOARD_LOCK_ENABLE
 769               		.loc 1 183 1 is_stmt 1 view -0
 770               		.cfi_startproc
 771 0000 CF93      		push r28
 772               	.LCFI51:
 773               		.cfi_def_cfa_offset 3
 774               		.cfi_offset 28, -2
 775               	/* prologue: function */
 776               	/* frame size = 0 */
 777               	/* stack size = 1 */
 778               	.L__stack_usage = 1
 190:../../tmk_core/common/command.c **** #ifdef SLEEP_LED_ENABLE
 779               		.loc 1 190 5 view .LVU161
 780 0002 8A32      		cpi r24,lo8(42)
 781 0004 00F4      		brsh .L48
 782 0006 8630      		cpi r24,lo8(6)
 783 0008 00F0      		brlo .L49
 784 000a EAEF      		ldi r30,lo8(-6)
 785 000c E80F      		add r30,r24
 786 000e E432      		cpi r30,lo8(36)
 787 0010 00F4      		brsh .L49
 788 0012 F0E0      		ldi r31,0
 789 0014 E050      		subi r30,lo8(-(gs(.L51)))
 790 0016 F040      		sbci r31,hi8(-(gs(.L51)))
 791 0018 0C94 0000 		jmp __tablejump2__
 792               		.section	.jumptables.gcc.command_common,"a",@progbits
 793               		.p2align	1
 794               	.L51:
 795 0000 0000      		.word gs(.L61)
 796 0002 0000      		.word gs(.L60)
 797 0004 0000      		.word gs(.L59)
 798 0006 0000      		.word gs(.L49)
 799 0008 0000      		.word gs(.L49)
 800 000a 0000      		.word gs(.L58)
 801 000c 0000      		.word gs(.L49)
 802 000e 0000      		.word gs(.L49)
 803 0010 0000      		.word gs(.L57)
 804 0012 0000      		.word gs(.L49)
 805 0014 0000      		.word gs(.L56)
 806 0016 0000      		.word gs(.L49)
 807 0018 0000      		.word gs(.L49)
 808 001a 0000      		.word gs(.L49)
 809 001c 0000      		.word gs(.L49)
 810 001e 0000      		.word gs(.L49)
 811 0020 0000      		.word gs(.L55)
 812 0022 0000      		.word gs(.L49)
 813 0024 0000      		.word gs(.L49)
 814 0026 0000      		.word gs(.L54)
 815 0028 0000      		.word gs(.L49)
 816 002a 0000      		.word gs(.L53)
 817 002c 0000      		.word gs(.L49)
 818 002e 0000      		.word gs(.L49)
 819 0030 0000      		.word gs(.L52)
 820 0032 0000      		.word gs(.L52)
 821 0034 0000      		.word gs(.L52)
 822 0036 0000      		.word gs(.L52)
 823 0038 0000      		.word gs(.L52)
 824 003a 0000      		.word gs(.L52)
 825 003c 0000      		.word gs(.L52)
 826 003e 0000      		.word gs(.L52)
 827 0040 0000      		.word gs(.L52)
 828 0042 0000      		.word gs(.L50)
 829 0044 0000      		.word gs(.L49)
 830 0046 0000      		.word gs(.L50)
 831               		.section	.text.command_common
 832               	.L48:
 833 001c 8334      		cpi r24,lo8(67)
 834 001e 00F4      		brsh .L62
 835 0020 8A33      		cpi r24,lo8(58)
 836 0022 00F0      		brlo .+2
 837 0024 00C0      		rjmp .L63
 838 0026 8533      		cpi r24,lo8(53)
 839 0028 01F4      		brne .+2
 840 002a 00C0      		rjmp .L50
 841 002c 8833      		cpi r24,lo8(56)
 842 002e 01F4      		brne .+2
 843 0030 00C0      		rjmp .L58
 844               	.L49:
 382:../../tmk_core/common/command.c ****             return false;
 845               		.loc 1 382 13 view .LVU162
 846               	.LBB125:
 382:../../tmk_core/common/command.c ****             return false;
 847               		.loc 1 382 13 view .LVU163
 382:../../tmk_core/common/command.c ****             return false;
 848               		.loc 1 382 13 view .LVU164
 849               	.LBE125:
 850 0032 80E0      		ldi r24,lo8(__c.89)
 851 0034 90E0      		ldi r25,hi8(__c.89)
 852 0036 0E94 0000 		call xputs
 383:../../tmk_core/common/command.c ****     }
 853               		.loc 1 383 13 view .LVU165
 383:../../tmk_core/common/command.c ****     }
 854               		.loc 1 383 20 is_stmt 0 view .LVU166
 855 003a 80E0      		ldi r24,0
 856 003c 00C0      		rjmp .L47
 857               	.L62:
 190:../../tmk_core/common/command.c **** #ifdef SLEEP_LED_ENABLE
 858               		.loc 1 190 5 view .LVU167
 859 003e 8334      		cpi r24,lo8(67)
 860 0040 01F4      		brne .+2
 861 0042 00C0      		rjmp .L50
 862 0044 8834      		cpi r24,lo8(72)
 863 0046 01F4      		brne .L49
 237:../../tmk_core/common/command.c ****             print("\n\nbootloader... ");
 864               		.loc 1 237 13 is_stmt 1 view .LVU168
 865 0048 0E94 0000 		call clear_keyboard
 238:../../tmk_core/common/command.c ****             wait_ms(1000);
 866               		.loc 1 238 13 view .LVU169
 867               	.LBB126:
 238:../../tmk_core/common/command.c ****             wait_ms(1000);
 868               		.loc 1 238 13 view .LVU170
 238:../../tmk_core/common/command.c ****             wait_ms(1000);
 869               		.loc 1 238 13 view .LVU171
 870               	.LBE126:
 871 004c 80E0      		ldi r24,lo8(__c.109)
 872 004e 90E0      		ldi r25,hi8(__c.109)
 873 0050 0E94 0000 		call xputs
 239:../../tmk_core/common/command.c ****             bootloader_jump(); // not return
 874               		.loc 1 239 13 view .LVU172
 875               	.LBB127:
 876               	.LBI127:
 877               		.file 2 "/usr/avr/include/util/delay.h"
   1:/usr/avr/include/util/delay.h **** /* Copyright (c) 2002, Marek Michalkiewicz
   2:/usr/avr/include/util/delay.h ****    Copyright (c) 2004,2005,2007 Joerg Wunsch
   3:/usr/avr/include/util/delay.h ****    Copyright (c) 2007  Florin-Viorel Petrov
   4:/usr/avr/include/util/delay.h ****    All rights reserved.
   5:/usr/avr/include/util/delay.h **** 
   6:/usr/avr/include/util/delay.h ****    Redistribution and use in source and binary forms, with or without
   7:/usr/avr/include/util/delay.h ****    modification, are permitted provided that the following conditions are met:
   8:/usr/avr/include/util/delay.h **** 
   9:/usr/avr/include/util/delay.h ****    * Redistributions of source code must retain the above copyright
  10:/usr/avr/include/util/delay.h ****      notice, this list of conditions and the following disclaimer.
  11:/usr/avr/include/util/delay.h **** 
  12:/usr/avr/include/util/delay.h ****    * Redistributions in binary form must reproduce the above copyright
  13:/usr/avr/include/util/delay.h ****      notice, this list of conditions and the following disclaimer in
  14:/usr/avr/include/util/delay.h ****      the documentation and/or other materials provided with the
  15:/usr/avr/include/util/delay.h ****      distribution.
  16:/usr/avr/include/util/delay.h **** 
  17:/usr/avr/include/util/delay.h ****    * Neither the name of the copyright holders nor the names of
  18:/usr/avr/include/util/delay.h ****      contributors may be used to endorse or promote products derived
  19:/usr/avr/include/util/delay.h ****      from this software without specific prior written permission.
  20:/usr/avr/include/util/delay.h **** 
  21:/usr/avr/include/util/delay.h ****   THIS SOFTWARE IS PROVIDED BY THE COPYRIGHT HOLDERS AND CONTRIBUTORS "AS IS"
  22:/usr/avr/include/util/delay.h ****   AND ANY EXPRESS OR IMPLIED WARRANTIES, INCLUDING, BUT NOT LIMITED TO, THE
  23:/usr/avr/include/util/delay.h ****   IMPLIED WARRANTIES OF MERCHANTABILITY AND FITNESS FOR A PARTICULAR PURPOSE
  24:/usr/avr/include/util/delay.h ****   ARE DISCLAIMED. IN NO EVENT SHALL THE COPYRIGHT OWNER OR CONTRIBUTORS BE
  25:/usr/avr/include/util/delay.h ****   LIABLE FOR ANY DIRECT, INDIRECT, INCIDENTAL, SPECIAL, EXEMPLARY, OR
  26:/usr/avr/include/util/delay.h ****   CONSEQUENTIAL DAMAGES (INCLUDING, BUT NOT LIMITED TO, PROCUREMENT OF
  27:/usr/avr/include/util/delay.h ****   SUBSTITUTE GOODS OR SERVICES; LOSS OF USE, DATA, OR PROFITS; OR BUSINESS
  28:/usr/avr/include/util/delay.h ****   INTERRUPTION) HOWEVER CAUSED AND ON ANY THEORY OF LIABILITY, WHETHER IN
  29:/usr/avr/include/util/delay.h ****   CONTRACT, STRICT LIABILITY, OR TORT (INCLUDING NEGLIGENCE OR OTHERWISE)
  30:/usr/avr/include/util/delay.h ****   ARISING IN ANY WAY OUT OF THE USE OF THIS SOFTWARE, EVEN IF ADVISED OF THE
  31:/usr/avr/include/util/delay.h ****   POSSIBILITY OF SUCH DAMAGE. */
  32:/usr/avr/include/util/delay.h **** 
  33:/usr/avr/include/util/delay.h **** /* $Id: delay.h.in 2506 2016-02-08 10:05:45Z joerg_wunsch $ */
  34:/usr/avr/include/util/delay.h **** 
  35:/usr/avr/include/util/delay.h **** #ifndef _UTIL_DELAY_H_
  36:/usr/avr/include/util/delay.h **** #define _UTIL_DELAY_H_ 1
  37:/usr/avr/include/util/delay.h **** 
  38:/usr/avr/include/util/delay.h **** #ifndef __DOXYGEN__
  39:/usr/avr/include/util/delay.h **** #  ifndef __HAS_DELAY_CYCLES
  40:/usr/avr/include/util/delay.h **** #    define __HAS_DELAY_CYCLES 1
  41:/usr/avr/include/util/delay.h **** #  endif
  42:/usr/avr/include/util/delay.h **** #endif  /* __DOXYGEN__ */
  43:/usr/avr/include/util/delay.h **** 
  44:/usr/avr/include/util/delay.h **** #include <inttypes.h>
  45:/usr/avr/include/util/delay.h **** #include <util/delay_basic.h>
  46:/usr/avr/include/util/delay.h **** #include <math.h>
  47:/usr/avr/include/util/delay.h **** 
  48:/usr/avr/include/util/delay.h **** /** \file */
  49:/usr/avr/include/util/delay.h **** /** \defgroup util_delay <util/delay.h>: Convenience functions for busy-wait delay loops
  50:/usr/avr/include/util/delay.h ****     \code
  51:/usr/avr/include/util/delay.h ****     #define F_CPU 1000000UL  // 1 MHz
  52:/usr/avr/include/util/delay.h ****     //#define F_CPU 14.7456E6
  53:/usr/avr/include/util/delay.h ****     #include <util/delay.h>
  54:/usr/avr/include/util/delay.h ****     \endcode
  55:/usr/avr/include/util/delay.h **** 
  56:/usr/avr/include/util/delay.h ****     \note As an alternative method, it is possible to pass the
  57:/usr/avr/include/util/delay.h ****     F_CPU macro down to the compiler from the Makefile.
  58:/usr/avr/include/util/delay.h ****     Obviously, in that case, no \c \#define statement should be
  59:/usr/avr/include/util/delay.h ****     used.
  60:/usr/avr/include/util/delay.h **** 
  61:/usr/avr/include/util/delay.h ****     The functions in this header file are wrappers around the basic
  62:/usr/avr/include/util/delay.h ****     busy-wait functions from <util/delay_basic.h>.  They are meant as
  63:/usr/avr/include/util/delay.h ****     convenience functions where actual time values can be specified
  64:/usr/avr/include/util/delay.h ****     rather than a number of cycles to wait for.  The idea behind is
  65:/usr/avr/include/util/delay.h ****     that compile-time constant expressions will be eliminated by
  66:/usr/avr/include/util/delay.h ****     compiler optimization so floating-point expressions can be used
  67:/usr/avr/include/util/delay.h ****     to calculate the number of delay cycles needed based on the CPU
  68:/usr/avr/include/util/delay.h ****     frequency passed by the macro F_CPU.
  69:/usr/avr/include/util/delay.h **** 
  70:/usr/avr/include/util/delay.h ****     \note In order for these functions to work as intended, compiler
  71:/usr/avr/include/util/delay.h ****     optimizations <em>must</em> be enabled, and the delay time
  72:/usr/avr/include/util/delay.h ****     <em>must</em> be an expression that is a known constant at
  73:/usr/avr/include/util/delay.h ****     compile-time.  If these requirements are not met, the resulting
  74:/usr/avr/include/util/delay.h ****     delay will be much longer (and basically unpredictable), and
  75:/usr/avr/include/util/delay.h ****     applications that otherwise do not use floating-point calculations
  76:/usr/avr/include/util/delay.h ****     will experience severe code bloat by the floating-point library
  77:/usr/avr/include/util/delay.h ****     routines linked into the application.
  78:/usr/avr/include/util/delay.h **** 
  79:/usr/avr/include/util/delay.h ****     The functions available allow the specification of microsecond, and
  80:/usr/avr/include/util/delay.h ****     millisecond delays directly, using the application-supplied macro
  81:/usr/avr/include/util/delay.h ****     F_CPU as the CPU clock frequency (in Hertz).
  82:/usr/avr/include/util/delay.h **** 
  83:/usr/avr/include/util/delay.h **** */
  84:/usr/avr/include/util/delay.h **** 
  85:/usr/avr/include/util/delay.h **** #if !defined(__DOXYGEN__)
  86:/usr/avr/include/util/delay.h **** static __inline__ void _delay_us(double __us) __attribute__((__always_inline__));
  87:/usr/avr/include/util/delay.h **** static __inline__ void _delay_ms(double __ms) __attribute__((__always_inline__));
  88:/usr/avr/include/util/delay.h **** #endif
  89:/usr/avr/include/util/delay.h **** 
  90:/usr/avr/include/util/delay.h **** #ifndef F_CPU
  91:/usr/avr/include/util/delay.h **** /* prevent compiler error by supplying a default */
  92:/usr/avr/include/util/delay.h **** # warning "F_CPU not defined for <util/delay.h>"
  93:/usr/avr/include/util/delay.h **** /** \ingroup util_delay
  94:/usr/avr/include/util/delay.h ****     \def F_CPU
  95:/usr/avr/include/util/delay.h ****     \brief CPU frequency in Hz
  96:/usr/avr/include/util/delay.h **** 
  97:/usr/avr/include/util/delay.h ****     The macro F_CPU specifies the CPU frequency to be considered by
  98:/usr/avr/include/util/delay.h ****     the delay macros.  This macro is normally supplied by the
  99:/usr/avr/include/util/delay.h ****     environment (e.g. from within a project header, or the project's
 100:/usr/avr/include/util/delay.h ****     Makefile).  The value 1 MHz here is only provided as a "vanilla"
 101:/usr/avr/include/util/delay.h ****     fallback if no such user-provided definition could be found.
 102:/usr/avr/include/util/delay.h **** 
 103:/usr/avr/include/util/delay.h ****     In terms of the delay functions, the CPU frequency can be given as
 104:/usr/avr/include/util/delay.h ****     a floating-point constant (e.g. 3.6864E6 for 3.6864 MHz).
 105:/usr/avr/include/util/delay.h ****     However, the macros in <util/setbaud.h> require it to be an
 106:/usr/avr/include/util/delay.h ****     integer value.
 107:/usr/avr/include/util/delay.h ****  */
 108:/usr/avr/include/util/delay.h **** # define F_CPU 1000000UL
 109:/usr/avr/include/util/delay.h **** #endif
 110:/usr/avr/include/util/delay.h **** 
 111:/usr/avr/include/util/delay.h **** #ifndef __OPTIMIZE__
 112:/usr/avr/include/util/delay.h **** # warning "Compiler optimizations disabled; functions from <util/delay.h> won't work as designed"
 113:/usr/avr/include/util/delay.h **** #endif
 114:/usr/avr/include/util/delay.h **** 
 115:/usr/avr/include/util/delay.h **** #if __HAS_DELAY_CYCLES && defined(__OPTIMIZE__) && \
 116:/usr/avr/include/util/delay.h ****   !defined(__DELAY_BACKWARD_COMPATIBLE__) &&	   \
 117:/usr/avr/include/util/delay.h ****   __STDC_HOSTED__
 118:/usr/avr/include/util/delay.h **** #  include <math.h>
 119:/usr/avr/include/util/delay.h **** #endif
 120:/usr/avr/include/util/delay.h **** 
 121:/usr/avr/include/util/delay.h **** /**
 122:/usr/avr/include/util/delay.h ****    \ingroup util_delay
 123:/usr/avr/include/util/delay.h **** 
 124:/usr/avr/include/util/delay.h ****    Perform a delay of \c __ms milliseconds, using _delay_loop_2().
 125:/usr/avr/include/util/delay.h **** 
 126:/usr/avr/include/util/delay.h ****    The macro F_CPU is supposed to be defined to a
 127:/usr/avr/include/util/delay.h ****    constant defining the CPU clock frequency (in Hertz).
 128:/usr/avr/include/util/delay.h **** 
 129:/usr/avr/include/util/delay.h ****    The maximal possible delay is 262.14 ms / F_CPU in MHz.
 130:/usr/avr/include/util/delay.h **** 
 131:/usr/avr/include/util/delay.h ****    When the user request delay which exceed the maximum possible one,
 132:/usr/avr/include/util/delay.h ****    _delay_ms() provides a decreased resolution functionality. In this
 133:/usr/avr/include/util/delay.h ****    mode _delay_ms() will work with a resolution of 1/10 ms, providing
 134:/usr/avr/include/util/delay.h ****    delays up to 6.5535 seconds (independent from CPU frequency).  The
 135:/usr/avr/include/util/delay.h ****    user will not be informed about decreased resolution.
 136:/usr/avr/include/util/delay.h **** 
 137:/usr/avr/include/util/delay.h ****    If the avr-gcc toolchain has __builtin_avr_delay_cycles()
 138:/usr/avr/include/util/delay.h ****    support, maximal possible delay is 4294967.295 ms/ F_CPU in MHz. For
 139:/usr/avr/include/util/delay.h ****    values greater than the maximal possible delay, overflows results in
 140:/usr/avr/include/util/delay.h ****    no delay i.e., 0ms.
 141:/usr/avr/include/util/delay.h **** 
 142:/usr/avr/include/util/delay.h ****    Conversion of \c __ms into clock cycles may not always result in
 143:/usr/avr/include/util/delay.h ****    integer.  By default, the clock cycles rounded up to next
 144:/usr/avr/include/util/delay.h ****    integer. This ensures that the user gets at least \c __ms
 145:/usr/avr/include/util/delay.h ****    microseconds of delay.
 146:/usr/avr/include/util/delay.h **** 
 147:/usr/avr/include/util/delay.h ****    Alternatively, by defining the macro \c __DELAY_ROUND_DOWN__, or
 148:/usr/avr/include/util/delay.h ****    \c __DELAY_ROUND_CLOSEST__, before including this header file, the
 149:/usr/avr/include/util/delay.h ****    algorithm can be made to round down, or round to closest integer,
 150:/usr/avr/include/util/delay.h ****    respectively.
 151:/usr/avr/include/util/delay.h **** 
 152:/usr/avr/include/util/delay.h ****    \note
 153:/usr/avr/include/util/delay.h **** 
 154:/usr/avr/include/util/delay.h ****    The implementation of _delay_ms() based on
 155:/usr/avr/include/util/delay.h ****    __builtin_avr_delay_cycles() is not backward compatible with older
 156:/usr/avr/include/util/delay.h ****    implementations.  In order to get functionality backward compatible
 157:/usr/avr/include/util/delay.h ****    with previous versions, the macro \c "__DELAY_BACKWARD_COMPATIBLE__"
 158:/usr/avr/include/util/delay.h ****    must be defined before including this header file. Also, the
 159:/usr/avr/include/util/delay.h ****    backward compatible algorithm will be chosen if the code is
 160:/usr/avr/include/util/delay.h ****    compiled in a <em>freestanding environment</em> (GCC option
 161:/usr/avr/include/util/delay.h ****    \c -ffreestanding), as the math functions required for rounding are
 162:/usr/avr/include/util/delay.h ****    not available to the compiler then.
 163:/usr/avr/include/util/delay.h **** 
 164:/usr/avr/include/util/delay.h ****  */
 165:/usr/avr/include/util/delay.h **** void
 166:/usr/avr/include/util/delay.h **** _delay_ms(double __ms)
 878               		.loc 2 166 1 view .LVU173
 879               	.LBB128:
 167:/usr/avr/include/util/delay.h **** {
 168:/usr/avr/include/util/delay.h **** 	double __tmp ;
 880               		.loc 2 168 2 view .LVU174
 169:/usr/avr/include/util/delay.h **** #if __HAS_DELAY_CYCLES && defined(__OPTIMIZE__) && \
 170:/usr/avr/include/util/delay.h ****   !defined(__DELAY_BACKWARD_COMPATIBLE__) &&	   \
 171:/usr/avr/include/util/delay.h ****   __STDC_HOSTED__
 172:/usr/avr/include/util/delay.h **** 	uint32_t __ticks_dc;
 881               		.loc 2 172 2 view .LVU175
 173:/usr/avr/include/util/delay.h **** 	extern void __builtin_avr_delay_cycles(unsigned long);
 882               		.loc 2 173 2 view .LVU176
 174:/usr/avr/include/util/delay.h **** 	__tmp = ((F_CPU) / 1e3) * __ms;
 883               		.loc 2 174 2 view .LVU177
 175:/usr/avr/include/util/delay.h **** 
 176:/usr/avr/include/util/delay.h **** 	#if defined(__DELAY_ROUND_DOWN__)
 177:/usr/avr/include/util/delay.h **** 		__ticks_dc = (uint32_t)fabs(__tmp);
 178:/usr/avr/include/util/delay.h **** 
 179:/usr/avr/include/util/delay.h **** 	#elif defined(__DELAY_ROUND_CLOSEST__)
 180:/usr/avr/include/util/delay.h **** 		__ticks_dc = (uint32_t)(fabs(__tmp)+0.5);
 181:/usr/avr/include/util/delay.h **** 
 182:/usr/avr/include/util/delay.h **** 	#else
 183:/usr/avr/include/util/delay.h **** 		//round up by default
 184:/usr/avr/include/util/delay.h **** 		__ticks_dc = (uint32_t)(ceil(fabs(__tmp)));
 884               		.loc 2 184 3 view .LVU178
 185:/usr/avr/include/util/delay.h **** 	#endif
 186:/usr/avr/include/util/delay.h **** 
 187:/usr/avr/include/util/delay.h **** 	__builtin_avr_delay_cycles(__ticks_dc);
 885               		.loc 2 187 2 view .LVU179
 886 0054 9FEF      		ldi r25,lo8(3199999)
 887 0056 23ED      		ldi r18,hi8(3199999)
 888 0058 80E3      		ldi r24,hlo8(3199999)
 889 005a 9150      	1:	subi r25,1
 890 005c 2040      		sbci r18,0
 891 005e 8040      		sbci r24,0
 892 0060 01F4      		brne 1b
 893 0062 00C0      		rjmp .
 894 0064 0000      		nop
 895               	.LBE128:
 896               	.LBE127:
 240:../../tmk_core/common/command.c ****             break;
 897               		.loc 1 240 13 view .LVU180
 898 0066 0E94 0000 		call bootloader_jump
 241:../../tmk_core/common/command.c ****         case KC_D:
 899               		.loc 1 241 13 view .LVU181
 900 006a 00C0      		rjmp .L80
 901               	.L59:
 206:../../tmk_core/common/command.c ****             print_eeconfig();
 902               		.loc 1 206 13 view .LVU182
 903               	.LBB129:
 206:../../tmk_core/common/command.c ****             print_eeconfig();
 904               		.loc 1 206 13 view .LVU183
 206:../../tmk_core/common/command.c ****             print_eeconfig();
 905               		.loc 1 206 13 view .LVU184
 906               	.LBE129:
 907 006c 80E0      		ldi r24,lo8(__c.111)
 908 006e 90E0      		ldi r25,hi8(__c.111)
 909 0070 0E94 0000 		call xputs
 207:../../tmk_core/common/command.c ****             break;
 910               		.loc 1 207 13 view .LVU185
 911               	.LBB130:
 912               	.LBI130:
 148:../../tmk_core/common/command.c **** {
 913               		.loc 1 148 13 view .LVU186
 914               	.LBB131:
 150:../../tmk_core/common/command.c **** 
 915               		.loc 1 150 5 view .LVU187
 916               	.LBE131:
 917               	.LBE130:
 150:../../tmk_core/common/command.c **** 
 918               		.loc 1 150 5 view .LVU188
 150:../../tmk_core/common/command.c **** 
 919               		.loc 1 150 5 view .LVU189
 920               	.LBB177:
 921               	.LBB132:
 922 0074 80E0      		ldi r24,lo8(__c.88)
 923 0076 90E0      		ldi r25,hi8(__c.88)
 924 0078 0E94 0000 		call xputs
 150:../../tmk_core/common/command.c **** 
 925               		.loc 1 150 31 view .LVU190
 926 007c 0E94 0000 		call eeconfig_read_default_layer
 927               	.LBE132:
 928               	.LBE177:
 150:../../tmk_core/common/command.c **** 
 929               		.loc 1 150 31 view .LVU191
 150:../../tmk_core/common/command.c **** 
 930               		.loc 1 150 31 view .LVU192
 931               	.LBB178:
 932               	.LBB133:
 933 0080 1F92      		push __zero_reg__
 934               	.LCFI52:
 935               		.cfi_def_cfa_offset 4
 936 0082 8F93      		push r24
 937               	.LCFI53:
 938               		.cfi_def_cfa_offset 5
 939 0084 80E0      		ldi r24,lo8(__c.87)
 940 0086 90E0      		ldi r25,hi8(__c.87)
 941 0088 9F93      		push r25
 942               	.LCFI54:
 943               		.cfi_def_cfa_offset 6
 944 008a 8F93      		push r24
 945               	.LCFI55:
 946               		.cfi_def_cfa_offset 7
 947 008c 0E94 0000 		call __xprintf
 150:../../tmk_core/common/command.c **** 
 948               		.loc 1 150 73 view .LVU193
 949               	.LBE133:
 950               	.LBE178:
 150:../../tmk_core/common/command.c **** 
 951               		.loc 1 150 73 view .LVU194
 150:../../tmk_core/common/command.c **** 
 952               		.loc 1 150 73 view .LVU195
 953               	.LBB179:
 954               	.LBB134:
 955 0090 80E0      		ldi r24,lo8(__c.86)
 956 0092 90E0      		ldi r25,hi8(__c.86)
 957 0094 0E94 0000 		call xputs
 152:../../tmk_core/common/command.c ****     dc.raw = eeconfig_read_debug();
 958               		.loc 1 152 5 view .LVU196
 153:../../tmk_core/common/command.c ****     print("debug_config.raw: "); print_hex8(dc.raw); print("\n");
 959               		.loc 1 153 5 view .LVU197
 153:../../tmk_core/common/command.c ****     print("debug_config.raw: "); print_hex8(dc.raw); print("\n");
 960               		.loc 1 153 14 is_stmt 0 view .LVU198
 961 0098 0E94 0000 		call eeconfig_read_debug
 962 009c C82F      		mov r28,r24
 154:../../tmk_core/common/command.c ****     print(".enable: "); print_dec(dc.enable); print("\n");
 963               		.loc 1 154 5 is_stmt 1 view .LVU199
 964               	.LBE134:
 965               	.LBE179:
 154:../../tmk_core/common/command.c ****     print(".enable: "); print_dec(dc.enable); print("\n");
 966               		.loc 1 154 5 view .LVU200
 154:../../tmk_core/common/command.c ****     print(".enable: "); print_dec(dc.enable); print("\n");
 967               		.loc 1 154 5 view .LVU201
 968               	.LBB180:
 969               	.LBB135:
 970 009e 80E0      		ldi r24,lo8(__c.85)
 971 00a0 90E0      		ldi r25,hi8(__c.85)
 972 00a2 0E94 0000 		call xputs
 154:../../tmk_core/common/command.c ****     print(".enable: "); print_dec(dc.enable); print("\n");
 973               		.loc 1 154 34 view .LVU202
 974               	.LBE135:
 975               	.LBE180:
 154:../../tmk_core/common/command.c ****     print(".enable: "); print_dec(dc.enable); print("\n");
 976               		.loc 1 154 34 view .LVU203
 154:../../tmk_core/common/command.c ****     print(".enable: "); print_dec(dc.enable); print("\n");
 977               		.loc 1 154 34 view .LVU204
 978               	.LBB181:
 979               	.LBB136:
 980 00a6 1F92      		push __zero_reg__
 981               	.LCFI56:
 982               		.cfi_def_cfa_offset 8
 983 00a8 CF93      		push r28
 984               	.LCFI57:
 985               		.cfi_def_cfa_offset 9
 986 00aa 80E0      		ldi r24,lo8(__c.84)
 987 00ac 90E0      		ldi r25,hi8(__c.84)
 988 00ae 9F93      		push r25
 989               	.LCFI58:
 990               		.cfi_def_cfa_offset 10
 991 00b0 8F93      		push r24
 992               	.LCFI59:
 993               		.cfi_def_cfa_offset 11
 994 00b2 0E94 0000 		call __xprintf
 154:../../tmk_core/common/command.c ****     print(".enable: "); print_dec(dc.enable); print("\n");
 995               		.loc 1 154 54 view .LVU205
 996               	.LBE136:
 997               	.LBE181:
 154:../../tmk_core/common/command.c ****     print(".enable: "); print_dec(dc.enable); print("\n");
 998               		.loc 1 154 54 view .LVU206
 154:../../tmk_core/common/command.c ****     print(".enable: "); print_dec(dc.enable); print("\n");
 999               		.loc 1 154 54 view .LVU207
 1000               	.LBB182:
 1001               	.LBB137:
 1002 00b6 80E0      		ldi r24,lo8(__c.83)
 1003 00b8 90E0      		ldi r25,hi8(__c.83)
 1004 00ba 0E94 0000 		call xputs
 155:../../tmk_core/common/command.c ****     print(".matrix: "); print_dec(dc.matrix); print("\n");
 1005               		.loc 1 155 5 view .LVU208
 1006               	.LBE137:
 1007               	.LBE182:
 155:../../tmk_core/common/command.c ****     print(".matrix: "); print_dec(dc.matrix); print("\n");
 1008               		.loc 1 155 5 view .LVU209
 155:../../tmk_core/common/command.c ****     print(".matrix: "); print_dec(dc.matrix); print("\n");
 1009               		.loc 1 155 5 view .LVU210
 1010               	.LBB183:
 1011               	.LBB138:
 1012 00be 80E0      		ldi r24,lo8(__c.82)
 1013 00c0 90E0      		ldi r25,hi8(__c.82)
 1014 00c2 0E94 0000 		call xputs
 155:../../tmk_core/common/command.c ****     print(".matrix: "); print_dec(dc.matrix); print("\n");
 1015               		.loc 1 155 25 view .LVU211
 1016               	.LBE138:
 1017               	.LBE183:
 155:../../tmk_core/common/command.c ****     print(".matrix: "); print_dec(dc.matrix); print("\n");
 1018               		.loc 1 155 25 view .LVU212
 155:../../tmk_core/common/command.c ****     print(".matrix: "); print_dec(dc.matrix); print("\n");
 1019               		.loc 1 155 25 view .LVU213
 1020               	.LBB184:
 1021               	.LBB139:
 1022 00c6 8C2F      		mov r24,r28
 1023 00c8 8170      		andi r24,1
 1024 00ca 1F92      		push __zero_reg__
 1025               	.LCFI60:
 1026               		.cfi_def_cfa_offset 12
 1027 00cc 8F93      		push r24
 1028               	.LCFI61:
 1029               		.cfi_def_cfa_offset 13
 1030 00ce 80E0      		ldi r24,lo8(__c.81)
 1031 00d0 90E0      		ldi r25,hi8(__c.81)
 1032 00d2 9F93      		push r25
 1033               	.LCFI62:
 1034               		.cfi_def_cfa_offset 14
 1035 00d4 8F93      		push r24
 1036               	.LCFI63:
 1037               		.cfi_def_cfa_offset 15
 1038 00d6 0E94 0000 		call __xprintf
 155:../../tmk_core/common/command.c ****     print(".matrix: "); print_dec(dc.matrix); print("\n");
 1039               		.loc 1 155 47 view .LVU214
 1040               	.LBE139:
 1041               	.LBE184:
 155:../../tmk_core/common/command.c ****     print(".matrix: "); print_dec(dc.matrix); print("\n");
 1042               		.loc 1 155 47 view .LVU215
 155:../../tmk_core/common/command.c ****     print(".matrix: "); print_dec(dc.matrix); print("\n");
 1043               		.loc 1 155 47 view .LVU216
 1044               	.LBB185:
 1045               	.LBB140:
 1046 00da 80E0      		ldi r24,lo8(__c.80)
 1047 00dc 90E0      		ldi r25,hi8(__c.80)
 1048 00de 0E94 0000 		call xputs
 156:../../tmk_core/common/command.c ****     print(".keyboard: "); print_dec(dc.keyboard); print("\n");
 1049               		.loc 1 156 5 view .LVU217
 1050               	.LBE140:
 1051               	.LBE185:
 156:../../tmk_core/common/command.c ****     print(".keyboard: "); print_dec(dc.keyboard); print("\n");
 1052               		.loc 1 156 5 view .LVU218
 156:../../tmk_core/common/command.c ****     print(".keyboard: "); print_dec(dc.keyboard); print("\n");
 1053               		.loc 1 156 5 view .LVU219
 1054               	.LBB186:
 1055               	.LBB141:
 1056 00e2 80E0      		ldi r24,lo8(__c.79)
 1057 00e4 90E0      		ldi r25,hi8(__c.79)
 1058 00e6 0E94 0000 		call xputs
 156:../../tmk_core/common/command.c ****     print(".keyboard: "); print_dec(dc.keyboard); print("\n");
 1059               		.loc 1 156 25 view .LVU220
 1060               	.LBE141:
 1061               	.LBE186:
 156:../../tmk_core/common/command.c ****     print(".keyboard: "); print_dec(dc.keyboard); print("\n");
 1062               		.loc 1 156 25 view .LVU221
 156:../../tmk_core/common/command.c ****     print(".keyboard: "); print_dec(dc.keyboard); print("\n");
 1063               		.loc 1 156 25 view .LVU222
 1064               	.LBB187:
 1065               	.LBB142:
 1066 00ea C1FB      		bst r28,1
 1067 00ec 8827      		clr r24
 1068 00ee 80F9      		bld r24,0
 1069 00f0 1F92      		push __zero_reg__
 1070               	.LCFI64:
 1071               		.cfi_def_cfa_offset 16
 1072 00f2 8F93      		push r24
 1073               	.LCFI65:
 1074               		.cfi_def_cfa_offset 17
 1075 00f4 80E0      		ldi r24,lo8(__c.78)
 1076 00f6 90E0      		ldi r25,hi8(__c.78)
 1077 00f8 9F93      		push r25
 1078               	.LCFI66:
 1079               		.cfi_def_cfa_offset 18
 1080 00fa 8F93      		push r24
 1081               	.LCFI67:
 1082               		.cfi_def_cfa_offset 19
 1083 00fc 0E94 0000 		call __xprintf
 156:../../tmk_core/common/command.c ****     print(".keyboard: "); print_dec(dc.keyboard); print("\n");
 1084               		.loc 1 156 47 view .LVU223
 1085               	.LBE142:
 1086               	.LBE187:
 156:../../tmk_core/common/command.c ****     print(".keyboard: "); print_dec(dc.keyboard); print("\n");
 1087               		.loc 1 156 47 view .LVU224
 156:../../tmk_core/common/command.c ****     print(".keyboard: "); print_dec(dc.keyboard); print("\n");
 1088               		.loc 1 156 47 view .LVU225
 1089               	.LBB188:
 1090               	.LBB143:
 1091 0100 80E0      		ldi r24,lo8(__c.77)
 1092 0102 90E0      		ldi r25,hi8(__c.77)
 1093 0104 0E94 0000 		call xputs
 157:../../tmk_core/common/command.c ****     print(".mouse: "); print_dec(dc.mouse); print("\n");
 1094               		.loc 1 157 5 view .LVU226
 1095               	.LBE143:
 1096               	.LBE188:
 157:../../tmk_core/common/command.c ****     print(".mouse: "); print_dec(dc.mouse); print("\n");
 1097               		.loc 1 157 5 view .LVU227
 157:../../tmk_core/common/command.c ****     print(".mouse: "); print_dec(dc.mouse); print("\n");
 1098               		.loc 1 157 5 view .LVU228
 1099               	.LBB189:
 1100               	.LBB144:
 1101 0108 80E0      		ldi r24,lo8(__c.76)
 1102 010a 90E0      		ldi r25,hi8(__c.76)
 1103 010c 0E94 0000 		call xputs
 157:../../tmk_core/common/command.c ****     print(".mouse: "); print_dec(dc.mouse); print("\n");
 1104               		.loc 1 157 27 view .LVU229
 1105               	.LBE144:
 1106               	.LBE189:
 157:../../tmk_core/common/command.c ****     print(".mouse: "); print_dec(dc.mouse); print("\n");
 1107               		.loc 1 157 27 view .LVU230
 157:../../tmk_core/common/command.c ****     print(".mouse: "); print_dec(dc.mouse); print("\n");
 1108               		.loc 1 157 27 view .LVU231
 1109               	.LBB190:
 1110               	.LBB145:
 1111 0110 C2FB      		bst r28,2
 1112 0112 8827      		clr r24
 1113 0114 80F9      		bld r24,0
 1114 0116 1F92      		push __zero_reg__
 1115               	.LCFI68:
 1116               		.cfi_def_cfa_offset 20
 1117 0118 8F93      		push r24
 1118               	.LCFI69:
 1119               		.cfi_def_cfa_offset 21
 1120 011a 80E0      		ldi r24,lo8(__c.75)
 1121 011c 90E0      		ldi r25,hi8(__c.75)
 1122 011e 9F93      		push r25
 1123               	.LCFI70:
 1124               		.cfi_def_cfa_offset 22
 1125 0120 8F93      		push r24
 1126               	.LCFI71:
 1127               		.cfi_def_cfa_offset 23
 1128 0122 0E94 0000 		call __xprintf
 157:../../tmk_core/common/command.c ****     print(".mouse: "); print_dec(dc.mouse); print("\n");
 1129               		.loc 1 157 51 view .LVU232
 1130               	.LBE145:
 1131               	.LBE190:
 157:../../tmk_core/common/command.c ****     print(".mouse: "); print_dec(dc.mouse); print("\n");
 1132               		.loc 1 157 51 view .LVU233
 157:../../tmk_core/common/command.c ****     print(".mouse: "); print_dec(dc.mouse); print("\n");
 1133               		.loc 1 157 51 view .LVU234
 1134               	.LBB191:
 1135               	.LBB146:
 1136 0126 80E0      		ldi r24,lo8(__c.74)
 1137 0128 90E0      		ldi r25,hi8(__c.74)
 1138 012a 0E94 0000 		call xputs
 158:../../tmk_core/common/command.c **** 
 1139               		.loc 1 158 5 view .LVU235
 1140               	.LBE146:
 1141               	.LBE191:
 158:../../tmk_core/common/command.c **** 
 1142               		.loc 1 158 5 view .LVU236
 158:../../tmk_core/common/command.c **** 
 1143               		.loc 1 158 5 view .LVU237
 1144               	.LBB192:
 1145               	.LBB147:
 1146 012e 80E0      		ldi r24,lo8(__c.73)
 1147 0130 90E0      		ldi r25,hi8(__c.73)
 1148 0132 0E94 0000 		call xputs
 158:../../tmk_core/common/command.c **** 
 1149               		.loc 1 158 24 view .LVU238
 1150               	.LBE147:
 1151               	.LBE192:
 158:../../tmk_core/common/command.c **** 
 1152               		.loc 1 158 24 view .LVU239
 158:../../tmk_core/common/command.c **** 
 1153               		.loc 1 158 24 view .LVU240
 1154               	.LBB193:
 1155               	.LBB148:
 1156 0136 C3FB      		bst r28,3
 1157 0138 CC27      		clr r28
 1158 013a C0F9      		bld r28,0
 1159 013c 1F92      		push __zero_reg__
 1160               	.LCFI72:
 1161               		.cfi_def_cfa_offset 24
 1162 013e CF93      		push r28
 1163               	.LCFI73:
 1164               		.cfi_def_cfa_offset 25
 1165 0140 80E0      		ldi r24,lo8(__c.72)
 1166 0142 90E0      		ldi r25,hi8(__c.72)
 1167 0144 9F93      		push r25
 1168               	.LCFI74:
 1169               		.cfi_def_cfa_offset 26
 1170 0146 8F93      		push r24
 1171               	.LCFI75:
 1172               		.cfi_def_cfa_offset 27
 1173 0148 0E94 0000 		call __xprintf
 158:../../tmk_core/common/command.c **** 
 1174               		.loc 1 158 45 view .LVU241
 1175               	.LBE148:
 1176               	.LBE193:
 158:../../tmk_core/common/command.c **** 
 1177               		.loc 1 158 45 view .LVU242
 158:../../tmk_core/common/command.c **** 
 1178               		.loc 1 158 45 view .LVU243
 1179               	.LBB194:
 1180               	.LBB149:
 1181 014c 80E0      		ldi r24,lo8(__c.71)
 1182 014e 90E0      		ldi r25,hi8(__c.71)
 1183 0150 0E94 0000 		call xputs
 160:../../tmk_core/common/command.c ****     kc.raw = eeconfig_read_keymap();
 1184               		.loc 1 160 5 view .LVU244
 161:../../tmk_core/common/command.c ****     print("keymap_config.raw: "); print_hex8(kc.raw); print("\n");
 1185               		.loc 1 161 5 view .LVU245
 161:../../tmk_core/common/command.c ****     print("keymap_config.raw: "); print_hex8(kc.raw); print("\n");
 1186               		.loc 1 161 14 is_stmt 0 view .LVU246
 1187 0154 0E94 0000 		call eeconfig_read_keymap
 1188 0158 C82F      		mov r28,r24
 162:../../tmk_core/common/command.c ****     print(".swap_control_capslock: "); print_dec(kc.swap_control_capslock); print("\n");
 1189               		.loc 1 162 5 is_stmt 1 view .LVU247
 1190               	.LBE149:
 1191               	.LBE194:
 162:../../tmk_core/common/command.c ****     print(".swap_control_capslock: "); print_dec(kc.swap_control_capslock); print("\n");
 1192               		.loc 1 162 5 view .LVU248
 162:../../tmk_core/common/command.c ****     print(".swap_control_capslock: "); print_dec(kc.swap_control_capslock); print("\n");
 1193               		.loc 1 162 5 view .LVU249
 1194               	.LBB195:
 1195               	.LBB150:
 1196 015a 80E0      		ldi r24,lo8(__c.70)
 1197 015c 90E0      		ldi r25,hi8(__c.70)
 1198 015e 0E94 0000 		call xputs
 162:../../tmk_core/common/command.c ****     print(".swap_control_capslock: "); print_dec(kc.swap_control_capslock); print("\n");
 1199               		.loc 1 162 35 view .LVU250
 1200               	.LBE150:
 1201               	.LBE195:
 162:../../tmk_core/common/command.c ****     print(".swap_control_capslock: "); print_dec(kc.swap_control_capslock); print("\n");
 1202               		.loc 1 162 35 view .LVU251
 162:../../tmk_core/common/command.c ****     print(".swap_control_capslock: "); print_dec(kc.swap_control_capslock); print("\n");
 1203               		.loc 1 162 35 view .LVU252
 1204               	.LBB196:
 1205               	.LBB151:
 1206 0162 1F92      		push __zero_reg__
 1207               	.LCFI76:
 1208               		.cfi_def_cfa_offset 28
 1209 0164 CF93      		push r28
 1210               	.LCFI77:
 1211               		.cfi_def_cfa_offset 29
 1212 0166 80E0      		ldi r24,lo8(__c.69)
 1213 0168 90E0      		ldi r25,hi8(__c.69)
 1214 016a 9F93      		push r25
 1215               	.LCFI78:
 1216               		.cfi_def_cfa_offset 30
 1217 016c 8F93      		push r24
 1218               	.LCFI79:
 1219               		.cfi_def_cfa_offset 31
 1220 016e 0E94 0000 		call __xprintf
 162:../../tmk_core/common/command.c ****     print(".swap_control_capslock: "); print_dec(kc.swap_control_capslock); print("\n");
 1221               		.loc 1 162 55 view .LVU253
 1222               	.LBE151:
 1223               	.LBE196:
 162:../../tmk_core/common/command.c ****     print(".swap_control_capslock: "); print_dec(kc.swap_control_capslock); print("\n");
 1224               		.loc 1 162 55 view .LVU254
 162:../../tmk_core/common/command.c ****     print(".swap_control_capslock: "); print_dec(kc.swap_control_capslock); print("\n");
 1225               		.loc 1 162 55 view .LVU255
 1226               	.LBB197:
 1227               	.LBB152:
 1228 0172 80E0      		ldi r24,lo8(__c.68)
 1229 0174 90E0      		ldi r25,hi8(__c.68)
 1230 0176 0E94 0000 		call xputs
 163:../../tmk_core/common/command.c ****     print(".capslock_to_control: "); print_dec(kc.capslock_to_control); print("\n");
 1231               		.loc 1 163 5 view .LVU256
 1232               	.LBE152:
 1233               	.LBE197:
 163:../../tmk_core/common/command.c ****     print(".capslock_to_control: "); print_dec(kc.capslock_to_control); print("\n");
 1234               		.loc 1 163 5 view .LVU257
 163:../../tmk_core/common/command.c ****     print(".capslock_to_control: "); print_dec(kc.capslock_to_control); print("\n");
 1235               		.loc 1 163 5 view .LVU258
 1236               	.LBB198:
 1237               	.LBB153:
 1238 017a 80E0      		ldi r24,lo8(__c.67)
 1239 017c 90E0      		ldi r25,hi8(__c.67)
 1240 017e 0E94 0000 		call xputs
 163:../../tmk_core/common/command.c ****     print(".capslock_to_control: "); print_dec(kc.capslock_to_control); print("\n");
 1241               		.loc 1 163 40 view .LVU259
 1242               	.LBE153:
 1243               	.LBE198:
 163:../../tmk_core/common/command.c ****     print(".capslock_to_control: "); print_dec(kc.capslock_to_control); print("\n");
 1244               		.loc 1 163 40 view .LVU260
 163:../../tmk_core/common/command.c ****     print(".capslock_to_control: "); print_dec(kc.capslock_to_control); print("\n");
 1245               		.loc 1 163 40 view .LVU261
 1246               	.LBB199:
 1247               	.LBB154:
 1248 0182 8C2F      		mov r24,r28
 1249 0184 8170      		andi r24,1
 1250 0186 1F92      		push __zero_reg__
 1251               	.LCFI80:
 1252               		.cfi_def_cfa_offset 32
 1253 0188 8F93      		push r24
 1254               	.LCFI81:
 1255               		.cfi_def_cfa_offset 33
 1256 018a 80E0      		ldi r24,lo8(__c.66)
 1257 018c 90E0      		ldi r25,hi8(__c.66)
 1258 018e 9F93      		push r25
 1259               	.LCFI82:
 1260               		.cfi_def_cfa_offset 34
 1261 0190 8F93      		push r24
 1262               	.LCFI83:
 1263               		.cfi_def_cfa_offset 35
 1264 0192 0E94 0000 		call __xprintf
 163:../../tmk_core/common/command.c ****     print(".capslock_to_control: "); print_dec(kc.capslock_to_control); print("\n");
 1265               		.loc 1 163 77 view .LVU262
 1266               	.LBE154:
 1267               	.LBE199:
 163:../../tmk_core/common/command.c ****     print(".capslock_to_control: "); print_dec(kc.capslock_to_control); print("\n");
 1268               		.loc 1 163 77 view .LVU263
 163:../../tmk_core/common/command.c ****     print(".capslock_to_control: "); print_dec(kc.capslock_to_control); print("\n");
 1269               		.loc 1 163 77 view .LVU264
 1270               	.LBB200:
 1271               	.LBB155:
 1272 0196 8DB7      		in r24,__SP_L__
 1273 0198 9EB7      		in r25,__SP_H__
 1274 019a 8096      		adiw r24,32
 1275 019c 0FB6      		in __tmp_reg__,__SREG__
 1276 019e F894      		cli
 1277 01a0 9EBF      		out __SP_H__,r25
 1278 01a2 0FBE      		out __SREG__,__tmp_reg__
 1279 01a4 8DBF      		out __SP_L__,r24
 1280               	.LCFI84:
 1281               		.cfi_def_cfa_offset 3
 1282 01a6 80E0      		ldi r24,lo8(__c.65)
 1283 01a8 90E0      		ldi r25,hi8(__c.65)
 1284 01aa 0E94 0000 		call xputs
 164:../../tmk_core/common/command.c ****     print(".swap_lalt_lgui: "); print_dec(kc.swap_lalt_lgui); print("\n");
 1285               		.loc 1 164 5 view .LVU265
 1286               	.LBE155:
 1287               	.LBE200:
 164:../../tmk_core/common/command.c ****     print(".swap_lalt_lgui: "); print_dec(kc.swap_lalt_lgui); print("\n");
 1288               		.loc 1 164 5 view .LVU266
 164:../../tmk_core/common/command.c ****     print(".swap_lalt_lgui: "); print_dec(kc.swap_lalt_lgui); print("\n");
 1289               		.loc 1 164 5 view .LVU267
 1290               	.LBB201:
 1291               	.LBB156:
 1292 01ae 80E0      		ldi r24,lo8(__c.64)
 1293 01b0 90E0      		ldi r25,hi8(__c.64)
 1294 01b2 0E94 0000 		call xputs
 164:../../tmk_core/common/command.c ****     print(".swap_lalt_lgui: "); print_dec(kc.swap_lalt_lgui); print("\n");
 1295               		.loc 1 164 38 view .LVU268
 1296               	.LBE156:
 1297               	.LBE201:
 164:../../tmk_core/common/command.c ****     print(".swap_lalt_lgui: "); print_dec(kc.swap_lalt_lgui); print("\n");
 1298               		.loc 1 164 38 view .LVU269
 164:../../tmk_core/common/command.c ****     print(".swap_lalt_lgui: "); print_dec(kc.swap_lalt_lgui); print("\n");
 1299               		.loc 1 164 38 view .LVU270
 1300               	.LBB202:
 1301               	.LBB157:
 1302 01b6 C1FB      		bst r28,1
 1303 01b8 8827      		clr r24
 1304 01ba 80F9      		bld r24,0
 1305 01bc 1F92      		push __zero_reg__
 1306               	.LCFI85:
 1307               		.cfi_def_cfa_offset 4
 1308 01be 8F93      		push r24
 1309               	.LCFI86:
 1310               		.cfi_def_cfa_offset 5
 1311 01c0 80E0      		ldi r24,lo8(__c.63)
 1312 01c2 90E0      		ldi r25,hi8(__c.63)
 1313 01c4 9F93      		push r25
 1314               	.LCFI87:
 1315               		.cfi_def_cfa_offset 6
 1316 01c6 8F93      		push r24
 1317               	.LCFI88:
 1318               		.cfi_def_cfa_offset 7
 1319 01c8 0E94 0000 		call __xprintf
 164:../../tmk_core/common/command.c ****     print(".swap_lalt_lgui: "); print_dec(kc.swap_lalt_lgui); print("\n");
 1320               		.loc 1 164 73 view .LVU271
 1321               	.LBE157:
 1322               	.LBE202:
 164:../../tmk_core/common/command.c ****     print(".swap_lalt_lgui: "); print_dec(kc.swap_lalt_lgui); print("\n");
 1323               		.loc 1 164 73 view .LVU272
 164:../../tmk_core/common/command.c ****     print(".swap_lalt_lgui: "); print_dec(kc.swap_lalt_lgui); print("\n");
 1324               		.loc 1 164 73 view .LVU273
 1325               	.LBB203:
 1326               	.LBB158:
 1327 01cc 80E0      		ldi r24,lo8(__c.62)
 1328 01ce 90E0      		ldi r25,hi8(__c.62)
 1329 01d0 0E94 0000 		call xputs
 165:../../tmk_core/common/command.c ****     print(".swap_ralt_rgui: "); print_dec(kc.swap_ralt_rgui); print("\n");
 1330               		.loc 1 165 5 view .LVU274
 1331               	.LBE158:
 1332               	.LBE203:
 165:../../tmk_core/common/command.c ****     print(".swap_ralt_rgui: "); print_dec(kc.swap_ralt_rgui); print("\n");
 1333               		.loc 1 165 5 view .LVU275
 165:../../tmk_core/common/command.c ****     print(".swap_ralt_rgui: "); print_dec(kc.swap_ralt_rgui); print("\n");
 1334               		.loc 1 165 5 view .LVU276
 1335               	.LBB204:
 1336               	.LBB159:
 1337 01d4 80E0      		ldi r24,lo8(__c.61)
 1338 01d6 90E0      		ldi r25,hi8(__c.61)
 1339 01d8 0E94 0000 		call xputs
 165:../../tmk_core/common/command.c ****     print(".swap_ralt_rgui: "); print_dec(kc.swap_ralt_rgui); print("\n");
 1340               		.loc 1 165 33 view .LVU277
 1341               	.LBE159:
 1342               	.LBE204:
 165:../../tmk_core/common/command.c ****     print(".swap_ralt_rgui: "); print_dec(kc.swap_ralt_rgui); print("\n");
 1343               		.loc 1 165 33 view .LVU278
 165:../../tmk_core/common/command.c ****     print(".swap_ralt_rgui: "); print_dec(kc.swap_ralt_rgui); print("\n");
 1344               		.loc 1 165 33 view .LVU279
 1345               	.LBB205:
 1346               	.LBB160:
 1347 01dc C2FB      		bst r28,2
 1348 01de 8827      		clr r24
 1349 01e0 80F9      		bld r24,0
 1350 01e2 1F92      		push __zero_reg__
 1351               	.LCFI89:
 1352               		.cfi_def_cfa_offset 8
 1353 01e4 8F93      		push r24
 1354               	.LCFI90:
 1355               		.cfi_def_cfa_offset 9
 1356 01e6 80E0      		ldi r24,lo8(__c.60)
 1357 01e8 90E0      		ldi r25,hi8(__c.60)
 1358 01ea 9F93      		push r25
 1359               	.LCFI91:
 1360               		.cfi_def_cfa_offset 10
 1361 01ec 8F93      		push r24
 1362               	.LCFI92:
 1363               		.cfi_def_cfa_offset 11
 1364 01ee 0E94 0000 		call __xprintf
 165:../../tmk_core/common/command.c ****     print(".swap_ralt_rgui: "); print_dec(kc.swap_ralt_rgui); print("\n");
 1365               		.loc 1 165 63 view .LVU280
 1366               	.LBE160:
 1367               	.LBE205:
 165:../../tmk_core/common/command.c ****     print(".swap_ralt_rgui: "); print_dec(kc.swap_ralt_rgui); print("\n");
 1368               		.loc 1 165 63 view .LVU281
 165:../../tmk_core/common/command.c ****     print(".swap_ralt_rgui: "); print_dec(kc.swap_ralt_rgui); print("\n");
 1369               		.loc 1 165 63 view .LVU282
 1370               	.LBB206:
 1371               	.LBB161:
 1372 01f2 80E0      		ldi r24,lo8(__c.59)
 1373 01f4 90E0      		ldi r25,hi8(__c.59)
 1374 01f6 0E94 0000 		call xputs
 166:../../tmk_core/common/command.c ****     print(".no_gui: "); print_dec(kc.no_gui); print("\n");
 1375               		.loc 1 166 5 view .LVU283
 1376               	.LBE161:
 1377               	.LBE206:
 166:../../tmk_core/common/command.c ****     print(".no_gui: "); print_dec(kc.no_gui); print("\n");
 1378               		.loc 1 166 5 view .LVU284
 166:../../tmk_core/common/command.c ****     print(".no_gui: "); print_dec(kc.no_gui); print("\n");
 1379               		.loc 1 166 5 view .LVU285
 1380               	.LBB207:
 1381               	.LBB162:
 1382 01fa 80E0      		ldi r24,lo8(__c.58)
 1383 01fc 90E0      		ldi r25,hi8(__c.58)
 1384 01fe 0E94 0000 		call xputs
 166:../../tmk_core/common/command.c ****     print(".no_gui: "); print_dec(kc.no_gui); print("\n");
 1385               		.loc 1 166 33 view .LVU286
 1386               	.LBE162:
 1387               	.LBE207:
 166:../../tmk_core/common/command.c ****     print(".no_gui: "); print_dec(kc.no_gui); print("\n");
 1388               		.loc 1 166 33 view .LVU287
 166:../../tmk_core/common/command.c ****     print(".no_gui: "); print_dec(kc.no_gui); print("\n");
 1389               		.loc 1 166 33 view .LVU288
 1390               	.LBB208:
 1391               	.LBB163:
 1392 0202 C3FB      		bst r28,3
 1393 0204 8827      		clr r24
 1394 0206 80F9      		bld r24,0
 1395 0208 1F92      		push __zero_reg__
 1396               	.LCFI93:
 1397               		.cfi_def_cfa_offset 12
 1398 020a 8F93      		push r24
 1399               	.LCFI94:
 1400               		.cfi_def_cfa_offset 13
 1401 020c 80E0      		ldi r24,lo8(__c.57)
 1402 020e 90E0      		ldi r25,hi8(__c.57)
 1403 0210 9F93      		push r25
 1404               	.LCFI95:
 1405               		.cfi_def_cfa_offset 14
 1406 0212 8F93      		push r24
 1407               	.LCFI96:
 1408               		.cfi_def_cfa_offset 15
 1409 0214 0E94 0000 		call __xprintf
 166:../../tmk_core/common/command.c ****     print(".no_gui: "); print_dec(kc.no_gui); print("\n");
 1410               		.loc 1 166 63 view .LVU289
 1411               	.LBE163:
 1412               	.LBE208:
 166:../../tmk_core/common/command.c ****     print(".no_gui: "); print_dec(kc.no_gui); print("\n");
 1413               		.loc 1 166 63 view .LVU290
 166:../../tmk_core/common/command.c ****     print(".no_gui: "); print_dec(kc.no_gui); print("\n");
 1414               		.loc 1 166 63 view .LVU291
 1415               	.LBB209:
 1416               	.LBB164:
 1417 0218 80E0      		ldi r24,lo8(__c.56)
 1418 021a 90E0      		ldi r25,hi8(__c.56)
 1419 021c 0E94 0000 		call xputs
 167:../../tmk_core/common/command.c ****     print(".swap_grave_esc: "); print_dec(kc.swap_grave_esc); print("\n");
 1420               		.loc 1 167 5 view .LVU292
 1421               	.LBE164:
 1422               	.LBE209:
 167:../../tmk_core/common/command.c ****     print(".swap_grave_esc: "); print_dec(kc.swap_grave_esc); print("\n");
 1423               		.loc 1 167 5 view .LVU293
 167:../../tmk_core/common/command.c ****     print(".swap_grave_esc: "); print_dec(kc.swap_grave_esc); print("\n");
 1424               		.loc 1 167 5 view .LVU294
 1425               	.LBB210:
 1426               	.LBB165:
 1427 0220 80E0      		ldi r24,lo8(__c.55)
 1428 0222 90E0      		ldi r25,hi8(__c.55)
 1429 0224 0E94 0000 		call xputs
 167:../../tmk_core/common/command.c ****     print(".swap_grave_esc: "); print_dec(kc.swap_grave_esc); print("\n");
 1430               		.loc 1 167 25 view .LVU295
 1431               	.LBE165:
 1432               	.LBE210:
 167:../../tmk_core/common/command.c ****     print(".swap_grave_esc: "); print_dec(kc.swap_grave_esc); print("\n");
 1433               		.loc 1 167 25 view .LVU296
 167:../../tmk_core/common/command.c ****     print(".swap_grave_esc: "); print_dec(kc.swap_grave_esc); print("\n");
 1434               		.loc 1 167 25 view .LVU297
 1435               	.LBB211:
 1436               	.LBB166:
 1437 0228 C4FB      		bst r28,4
 1438 022a 8827      		clr r24
 1439 022c 80F9      		bld r24,0
 1440 022e 1F92      		push __zero_reg__
 1441               	.LCFI97:
 1442               		.cfi_def_cfa_offset 16
 1443 0230 8F93      		push r24
 1444               	.LCFI98:
 1445               		.cfi_def_cfa_offset 17
 1446 0232 80E0      		ldi r24,lo8(__c.54)
 1447 0234 90E0      		ldi r25,hi8(__c.54)
 1448 0236 9F93      		push r25
 1449               	.LCFI99:
 1450               		.cfi_def_cfa_offset 18
 1451 0238 8F93      		push r24
 1452               	.LCFI100:
 1453               		.cfi_def_cfa_offset 19
 1454 023a 0E94 0000 		call __xprintf
 167:../../tmk_core/common/command.c ****     print(".swap_grave_esc: "); print_dec(kc.swap_grave_esc); print("\n");
 1455               		.loc 1 167 47 view .LVU298
 1456               	.LBE166:
 1457               	.LBE211:
 167:../../tmk_core/common/command.c ****     print(".swap_grave_esc: "); print_dec(kc.swap_grave_esc); print("\n");
 1458               		.loc 1 167 47 view .LVU299
 167:../../tmk_core/common/command.c ****     print(".swap_grave_esc: "); print_dec(kc.swap_grave_esc); print("\n");
 1459               		.loc 1 167 47 view .LVU300
 1460               	.LBB212:
 1461               	.LBB167:
 1462 023e 80E0      		ldi r24,lo8(__c.53)
 1463 0240 90E0      		ldi r25,hi8(__c.53)
 1464 0242 0E94 0000 		call xputs
 168:../../tmk_core/common/command.c ****     print(".swap_backslash_backspace: "); print_dec(kc.swap_backslash_backspace); print("\n");
 1465               		.loc 1 168 5 view .LVU301
 1466               	.LBE167:
 1467               	.LBE212:
 168:../../tmk_core/common/command.c ****     print(".swap_backslash_backspace: "); print_dec(kc.swap_backslash_backspace); print("\n");
 1468               		.loc 1 168 5 view .LVU302
 168:../../tmk_core/common/command.c ****     print(".swap_backslash_backspace: "); print_dec(kc.swap_backslash_backspace); print("\n");
 1469               		.loc 1 168 5 view .LVU303
 1470               	.LBB213:
 1471               	.LBB168:
 1472 0246 80E0      		ldi r24,lo8(__c.52)
 1473 0248 90E0      		ldi r25,hi8(__c.52)
 1474 024a 0E94 0000 		call xputs
 168:../../tmk_core/common/command.c ****     print(".swap_backslash_backspace: "); print_dec(kc.swap_backslash_backspace); print("\n");
 1475               		.loc 1 168 33 view .LVU304
 1476               	.LBE168:
 1477               	.LBE213:
 168:../../tmk_core/common/command.c ****     print(".swap_backslash_backspace: "); print_dec(kc.swap_backslash_backspace); print("\n");
 1478               		.loc 1 168 33 view .LVU305
 168:../../tmk_core/common/command.c ****     print(".swap_backslash_backspace: "); print_dec(kc.swap_backslash_backspace); print("\n");
 1479               		.loc 1 168 33 view .LVU306
 1480               	.LBB214:
 1481               	.LBB169:
 1482 024e C5FB      		bst r28,5
 1483 0250 8827      		clr r24
 1484 0252 80F9      		bld r24,0
 1485 0254 1F92      		push __zero_reg__
 1486               	.LCFI101:
 1487               		.cfi_def_cfa_offset 20
 1488 0256 8F93      		push r24
 1489               	.LCFI102:
 1490               		.cfi_def_cfa_offset 21
 1491 0258 80E0      		ldi r24,lo8(__c.51)
 1492 025a 90E0      		ldi r25,hi8(__c.51)
 1493 025c 9F93      		push r25
 1494               	.LCFI103:
 1495               		.cfi_def_cfa_offset 22
 1496 025e 8F93      		push r24
 1497               	.LCFI104:
 1498               		.cfi_def_cfa_offset 23
 1499 0260 0E94 0000 		call __xprintf
 168:../../tmk_core/common/command.c ****     print(".swap_backslash_backspace: "); print_dec(kc.swap_backslash_backspace); print("\n");
 1500               		.loc 1 168 63 view .LVU307
 1501               	.LBE169:
 1502               	.LBE214:
 168:../../tmk_core/common/command.c ****     print(".swap_backslash_backspace: "); print_dec(kc.swap_backslash_backspace); print("\n");
 1503               		.loc 1 168 63 view .LVU308
 168:../../tmk_core/common/command.c ****     print(".swap_backslash_backspace: "); print_dec(kc.swap_backslash_backspace); print("\n");
 1504               		.loc 1 168 63 view .LVU309
 1505               	.LBB215:
 1506               	.LBB170:
 1507 0264 80E0      		ldi r24,lo8(__c.50)
 1508 0266 90E0      		ldi r25,hi8(__c.50)
 1509 0268 0E94 0000 		call xputs
 169:../../tmk_core/common/command.c ****     print(".nkro: "); print_dec(kc.nkro); print("\n");
 1510               		.loc 1 169 5 view .LVU310
 1511               	.LBE170:
 1512               	.LBE215:
 169:../../tmk_core/common/command.c ****     print(".nkro: "); print_dec(kc.nkro); print("\n");
 1513               		.loc 1 169 5 view .LVU311
 169:../../tmk_core/common/command.c ****     print(".nkro: "); print_dec(kc.nkro); print("\n");
 1514               		.loc 1 169 5 view .LVU312
 1515               	.LBB216:
 1516               	.LBB171:
 1517 026c 80E0      		ldi r24,lo8(__c.49)
 1518 026e 90E0      		ldi r25,hi8(__c.49)
 1519 0270 0E94 0000 		call xputs
 169:../../tmk_core/common/command.c ****     print(".nkro: "); print_dec(kc.nkro); print("\n");
 1520               		.loc 1 169 43 view .LVU313
 1521               	.LBE171:
 1522               	.LBE216:
 169:../../tmk_core/common/command.c ****     print(".nkro: "); print_dec(kc.nkro); print("\n");
 1523               		.loc 1 169 43 view .LVU314
 169:../../tmk_core/common/command.c ****     print(".nkro: "); print_dec(kc.nkro); print("\n");
 1524               		.loc 1 169 43 view .LVU315
 1525               	.LBB217:
 1526               	.LBB172:
 1527 0274 C6FB      		bst r28,6
 1528 0276 8827      		clr r24
 1529 0278 80F9      		bld r24,0
 1530 027a 1F92      		push __zero_reg__
 1531               	.LCFI105:
 1532               		.cfi_def_cfa_offset 24
 1533 027c 8F93      		push r24
 1534               	.LCFI106:
 1535               		.cfi_def_cfa_offset 25
 1536 027e 80E0      		ldi r24,lo8(__c.48)
 1537 0280 90E0      		ldi r25,hi8(__c.48)
 1538 0282 9F93      		push r25
 1539               	.LCFI107:
 1540               		.cfi_def_cfa_offset 26
 1541 0284 8F93      		push r24
 1542               	.LCFI108:
 1543               		.cfi_def_cfa_offset 27
 1544 0286 0E94 0000 		call __xprintf
 169:../../tmk_core/common/command.c ****     print(".nkro: "); print_dec(kc.nkro); print("\n");
 1545               		.loc 1 169 83 view .LVU316
 1546               	.LBE172:
 1547               	.LBE217:
 169:../../tmk_core/common/command.c ****     print(".nkro: "); print_dec(kc.nkro); print("\n");
 1548               		.loc 1 169 83 view .LVU317
 169:../../tmk_core/common/command.c ****     print(".nkro: "); print_dec(kc.nkro); print("\n");
 1549               		.loc 1 169 83 view .LVU318
 1550               	.LBB218:
 1551               	.LBB173:
 1552 028a 80E0      		ldi r24,lo8(__c.47)
 1553 028c 90E0      		ldi r25,hi8(__c.47)
 1554 028e 0E94 0000 		call xputs
 170:../../tmk_core/common/command.c **** 
 1555               		.loc 1 170 5 view .LVU319
 1556               	.LBE173:
 1557               	.LBE218:
 170:../../tmk_core/common/command.c **** 
 1558               		.loc 1 170 5 view .LVU320
 170:../../tmk_core/common/command.c **** 
 1559               		.loc 1 170 5 view .LVU321
 1560               	.LBB219:
 1561               	.LBB174:
 1562 0292 80E0      		ldi r24,lo8(__c.46)
 1563 0294 90E0      		ldi r25,hi8(__c.46)
 1564 0296 0E94 0000 		call xputs
 170:../../tmk_core/common/command.c **** 
 1565               		.loc 1 170 23 view .LVU322
 1566               	.LBE174:
 1567               	.LBE219:
 170:../../tmk_core/common/command.c **** 
 1568               		.loc 1 170 23 view .LVU323
 170:../../tmk_core/common/command.c **** 
 1569               		.loc 1 170 23 view .LVU324
 1570               	.LBB220:
 1571               	.LBB175:
 1572 029a C7FB      		bst r28,7
 1573 029c CC27      		clr r28
 1574 029e C0F9      		bld r28,0
 1575 02a0 1F92      		push __zero_reg__
 1576               	.LCFI109:
 1577               		.cfi_def_cfa_offset 28
 1578 02a2 CF93      		push r28
 1579               	.LCFI110:
 1580               		.cfi_def_cfa_offset 29
 1581 02a4 80E0      		ldi r24,lo8(__c.45)
 1582 02a6 90E0      		ldi r25,hi8(__c.45)
 1583 02a8 9F93      		push r25
 1584               	.LCFI111:
 1585               		.cfi_def_cfa_offset 30
 1586 02aa 8F93      		push r24
 1587               	.LCFI112:
 1588               		.cfi_def_cfa_offset 31
 1589 02ac 0E94 0000 		call __xprintf
 170:../../tmk_core/common/command.c **** 
 1590               		.loc 1 170 43 view .LVU325
 1591               	.LBE175:
 1592               	.LBE220:
 170:../../tmk_core/common/command.c **** 
 1593               		.loc 1 170 43 view .LVU326
 170:../../tmk_core/common/command.c **** 
 1594               		.loc 1 170 43 view .LVU327
 1595               	.LBB221:
 1596               	.LBB176:
 1597 02b0 80E0      		ldi r24,lo8(__c.44)
 1598 02b2 90E0      		ldi r25,hi8(__c.44)
 1599 02b4 0E94 0000 		call xputs
 179:../../tmk_core/common/command.c **** #endif
 1600               		.loc 1 179 1 is_stmt 0 view .LVU328
 1601 02b8 8DB7      		in r24,__SP_L__
 1602 02ba 9EB7      		in r25,__SP_H__
 1603 02bc 4C96      		adiw r24,28
 1604 02be 0FB6      		in __tmp_reg__,__SREG__
 1605 02c0 F894      		cli
 1606 02c2 9EBF      		out __SP_H__,r25
 1607 02c4 0FBE      		out __SREG__,__tmp_reg__
 1608 02c6 8DBF      		out __SP_L__,r24
 1609               	.LCFI113:
 1610               		.cfi_def_cfa_offset 3
 1611               	.L80:
 1612               	.LBE176:
 1613               	.LBE221:
 380:../../tmk_core/common/command.c ****         default:
 1614               		.loc 1 380 13 is_stmt 1 view .LVU329
 385:../../tmk_core/common/command.c **** }
 1615               		.loc 1 385 12 is_stmt 0 view .LVU330
 1616 02c8 81E0      		ldi r24,lo8(1)
 380:../../tmk_core/common/command.c ****         default:
 1617               		.loc 1 380 13 view .LVU331
 1618 02ca 00C0      		rjmp .L47
 1619               	.L58:
 225:../../tmk_core/common/command.c ****             break;
 1620               		.loc 1 225 13 is_stmt 1 view .LVU332
 1621               	.LBB222:
 1622               	.LBI222:
 116:../../tmk_core/common/command.c **** {
 1623               		.loc 1 116 13 view .LVU333
 1624               	.LBB223:
 118:../../tmk_core/common/command.c ****           "d:	debug\n"
 1625               		.loc 1 118 5 view .LVU334
 1626               	.LBE223:
 1627               	.LBE222:
 118:../../tmk_core/common/command.c ****           "d:	debug\n"
 1628               		.loc 1 118 5 view .LVU335
 118:../../tmk_core/common/command.c ****           "d:	debug\n"
 1629               		.loc 1 118 5 view .LVU336
 1630               	.LBB225:
 1631               	.LBB224:
 1632 02cc 80E0      		ldi r24,lo8(__c.43)
 1633 02ce 90E0      		ldi r25,hi8(__c.43)
 1634               	.L81:
 1635               	.LBE224:
 1636               	.LBE225:
 325:../../tmk_core/common/command.c **** #if defined(__AVR__)
 1637               		.loc 1 325 13 is_stmt 0 view .LVU337
 1638 02d0 0E94 0000 		call xputs
 333:../../tmk_core/common/command.c ****         case KC_S:
 1639               		.loc 1 333 13 is_stmt 1 view .LVU338
 1640 02d4 00C0      		rjmp .L80
 1641               	.L61:
 228:../../tmk_core/common/command.c ****             debug_keyboard = false;
 1642               		.loc 1 228 13 view .LVU339
 229:../../tmk_core/common/command.c ****             debug_mouse    = false;
 1643               		.loc 1 229 13 view .LVU340
 230:../../tmk_core/common/command.c ****             debug_enable   = false;
 1644               		.loc 1 230 13 view .LVU341
 231:../../tmk_core/common/command.c ****             command_console_help();
 1645               		.loc 1 231 13 view .LVU342
 231:../../tmk_core/common/command.c ****             command_console_help();
 1646               		.loc 1 231 28 is_stmt 0 view .LVU343
 1647 02d6 8091 0000 		lds r24,debug_config
 1648 02da 807F      		andi r24,lo8(-16)
 1649 02dc 8093 0000 		sts debug_config,r24
 232:../../tmk_core/common/command.c ****             print("C> ");
 1650               		.loc 1 232 13 is_stmt 1 view .LVU344
 1651               	.LBB226:
 1652               	.LBI226:
 392:../../tmk_core/common/command.c **** {
 1653               		.loc 1 392 13 view .LVU345
 1654               	.LBB227:
 394:../../tmk_core/common/command.c ****           "ESC/q:	quit\n"
 1655               		.loc 1 394 5 view .LVU346
 1656               	.LBE227:
 1657               	.LBE226:
 394:../../tmk_core/common/command.c ****           "ESC/q:	quit\n"
 1658               		.loc 1 394 5 view .LVU347
 394:../../tmk_core/common/command.c ****           "ESC/q:	quit\n"
 1659               		.loc 1 394 5 view .LVU348
 1660               	.LBB229:
 1661               	.LBB228:
 1662 02e0 80E0      		ldi r24,lo8(__c.42)
 1663 02e2 90E0      		ldi r25,hi8(__c.42)
 1664 02e4 0E94 0000 		call xputs
 1665               	.LBE228:
 1666               	.LBE229:
 233:../../tmk_core/common/command.c ****             command_state = CONSOLE;
 1667               		.loc 1 233 13 view .LVU349
 1668               	.LBB230:
 233:../../tmk_core/common/command.c ****             command_state = CONSOLE;
 1669               		.loc 1 233 13 view .LVU350
 233:../../tmk_core/common/command.c ****             command_state = CONSOLE;
 1670               		.loc 1 233 13 view .LVU351
 1671               	.LBE230:
 1672 02e8 80E0      		ldi r24,lo8(__c.110)
 1673 02ea 90E0      		ldi r25,hi8(__c.110)
 1674 02ec 0E94 0000 		call xputs
 234:../../tmk_core/common/command.c ****             break;
 1675               		.loc 1 234 13 view .LVU352
 234:../../tmk_core/common/command.c ****             break;
 1676               		.loc 1 234 27 is_stmt 0 view .LVU353
 1677 02f0 81E0      		ldi r24,lo8(1)
 1678 02f2 8093 0000 		sts command_state,r24
 235:../../tmk_core/common/command.c ****         case KC_PAUSE:
 1679               		.loc 1 235 13 is_stmt 1 view .LVU354
 1680               	.L47:
 1681               	/* epilogue start */
 386:../../tmk_core/common/command.c **** 
 1682               		.loc 1 386 1 is_stmt 0 view .LVU355
 1683 02f6 CF91      		pop r28
 1684 02f8 0895      		ret
 1685               	.L60:
 243:../../tmk_core/common/command.c ****                 print("\ndebug: off\n");
 1686               		.loc 1 243 13 is_stmt 1 view .LVU356
 243:../../tmk_core/common/command.c ****                 print("\ndebug: off\n");
 1687               		.loc 1 243 17 is_stmt 0 view .LVU357
 1688 02fa 8091 0000 		lds r24,debug_config
 243:../../tmk_core/common/command.c ****                 print("\ndebug: off\n");
 1689               		.loc 1 243 16 view .LVU358
 1690 02fe 80FF      		sbrs r24,0
 1691 0300 00C0      		rjmp .L66
 244:../../tmk_core/common/command.c ****                 debug_matrix   = false;
 1692               		.loc 1 244 17 is_stmt 1 view .LVU359
 1693               	.LBB231:
 244:../../tmk_core/common/command.c ****                 debug_matrix   = false;
 1694               		.loc 1 244 17 view .LVU360
 244:../../tmk_core/common/command.c ****                 debug_matrix   = false;
 1695               		.loc 1 244 17 view .LVU361
 1696               	.LBE231:
 1697 0302 80E0      		ldi r24,lo8(__c.108)
 1698 0304 90E0      		ldi r25,hi8(__c.108)
 1699 0306 0E94 0000 		call xputs
 245:../../tmk_core/common/command.c ****                 debug_keyboard = false;
 1700               		.loc 1 245 17 view .LVU362
 246:../../tmk_core/common/command.c ****                 debug_mouse    = false;
 1701               		.loc 1 246 17 view .LVU363
 247:../../tmk_core/common/command.c ****                 debug_enable   = false;
 1702               		.loc 1 247 17 view .LVU364
 248:../../tmk_core/common/command.c ****             } else {
 1703               		.loc 1 248 17 view .LVU365
 248:../../tmk_core/common/command.c ****             } else {
 1704               		.loc 1 248 32 is_stmt 0 view .LVU366
 1705 030a 8091 0000 		lds r24,debug_config
 1706 030e 807F      		andi r24,lo8(-16)
 1707               	.L82:
 276:../../tmk_core/common/command.c ****             } else {
 1708               		.loc 1 276 30 view .LVU367
 1709 0310 8093 0000 		sts debug_config,r24
 1710 0314 00C0      		rjmp .L80
 1711               	.L66:
 250:../../tmk_core/common/command.c ****                 debug_enable   = true;
 1712               		.loc 1 250 17 is_stmt 1 view .LVU368
 1713               	.LBB232:
 250:../../tmk_core/common/command.c ****                 debug_enable   = true;
 1714               		.loc 1 250 17 view .LVU369
 250:../../tmk_core/common/command.c ****                 debug_enable   = true;
 1715               		.loc 1 250 17 view .LVU370
 1716               	.LBE232:
 1717 0316 80E0      		ldi r24,lo8(__c.107)
 1718 0318 90E0      		ldi r25,hi8(__c.107)
 1719               	.L83:
 275:../../tmk_core/common/command.c ****                 debug_enable = true;
 1720               		.loc 1 275 17 is_stmt 0 view .LVU371
 1721 031a 0E94 0000 		call xputs
 276:../../tmk_core/common/command.c ****             } else {
 1722               		.loc 1 276 17 is_stmt 1 view .LVU372
 276:../../tmk_core/common/command.c ****             } else {
 1723               		.loc 1 276 30 is_stmt 0 view .LVU373
 1724 031e 8091 0000 		lds r24,debug_config
 1725 0322 8160      		ori r24,lo8(1<<0)
 1726 0324 00C0      		rjmp .L82
 1727               	.L53:
 255:../../tmk_core/common/command.c ****             if (debug_matrix) {
 1728               		.loc 1 255 13 is_stmt 1 view .LVU374
 255:../../tmk_core/common/command.c ****             if (debug_matrix) {
 1729               		.loc 1 255 29 is_stmt 0 view .LVU375
 1730 0326 9091 0000 		lds r25,debug_config
 255:../../tmk_core/common/command.c ****             if (debug_matrix) {
 1731               		.loc 1 255 26 view .LVU376
 1732 032a 892F      		mov r24,r25
 1733 032c 8D7F      		andi r24,~(1<<1)
 1734 032e 91FF      		sbrs r25,1
 1735 0330 8260      		ori r24,1<<1
 1736 0332 8093 0000 		sts debug_config,r24
 256:../../tmk_core/common/command.c ****                 print("\nmatrix: on\n");
 1737               		.loc 1 256 13 is_stmt 1 view .LVU377
 256:../../tmk_core/common/command.c ****                 print("\nmatrix: on\n");
 1738               		.loc 1 256 16 is_stmt 0 view .LVU378
 1739 0336 81FF      		sbrs r24,1
 1740 0338 00C0      		rjmp .L67
 257:../../tmk_core/common/command.c ****                 debug_enable = true;
 1741               		.loc 1 257 17 is_stmt 1 view .LVU379
 1742               	.LBB233:
 257:../../tmk_core/common/command.c ****                 debug_enable = true;
 1743               		.loc 1 257 17 view .LVU380
 257:../../tmk_core/common/command.c ****                 debug_enable = true;
 1744               		.loc 1 257 17 view .LVU381
 1745               	.LBE233:
 1746 033a 80E0      		ldi r24,lo8(__c.106)
 1747 033c 90E0      		ldi r25,hi8(__c.106)
 1748 033e 00C0      		rjmp .L83
 1749               	.L67:
 260:../../tmk_core/common/command.c ****             }
 1750               		.loc 1 260 17 view .LVU382
 1751               	.LBB234:
 260:../../tmk_core/common/command.c ****             }
 1752               		.loc 1 260 17 view .LVU383
 260:../../tmk_core/common/command.c ****             }
 1753               		.loc 1 260 17 view .LVU384
 1754               	.LBE234:
 1755 0340 80E0      		ldi r24,lo8(__c.105)
 1756 0342 90E0      		ldi r25,hi8(__c.105)
 1757 0344 00C0      		rjmp .L81
 1758               	.L57:
 264:../../tmk_core/common/command.c ****             if (debug_keyboard) {
 1759               		.loc 1 264 13 view .LVU385
 264:../../tmk_core/common/command.c ****             if (debug_keyboard) {
 1760               		.loc 1 264 31 is_stmt 0 view .LVU386
 1761 0346 9091 0000 		lds r25,debug_config
 264:../../tmk_core/common/command.c ****             if (debug_keyboard) {
 1762               		.loc 1 264 28 view .LVU387
 1763 034a 892F      		mov r24,r25
 1764 034c 8B7F      		andi r24,~(1<<2)
 1765 034e 92FF      		sbrs r25,2
 1766 0350 8460      		ori r24,1<<2
 1767 0352 8093 0000 		sts debug_config,r24
 265:../../tmk_core/common/command.c ****                 print("\nkeyboard: on\n");
 1768               		.loc 1 265 13 is_stmt 1 view .LVU388
 265:../../tmk_core/common/command.c ****                 print("\nkeyboard: on\n");
 1769               		.loc 1 265 16 is_stmt 0 view .LVU389
 1770 0356 82FF      		sbrs r24,2
 1771 0358 00C0      		rjmp .L68
 266:../../tmk_core/common/command.c ****                 debug_enable = true;
 1772               		.loc 1 266 17 is_stmt 1 view .LVU390
 1773               	.LBB235:
 266:../../tmk_core/common/command.c ****                 debug_enable = true;
 1774               		.loc 1 266 17 view .LVU391
 266:../../tmk_core/common/command.c ****                 debug_enable = true;
 1775               		.loc 1 266 17 view .LVU392
 1776               	.LBE235:
 1777 035a 80E0      		ldi r24,lo8(__c.104)
 1778 035c 90E0      		ldi r25,hi8(__c.104)
 1779 035e 00C0      		rjmp .L83
 1780               	.L68:
 269:../../tmk_core/common/command.c ****             }
 1781               		.loc 1 269 17 view .LVU393
 1782               	.LBB236:
 269:../../tmk_core/common/command.c ****             }
 1783               		.loc 1 269 17 view .LVU394
 269:../../tmk_core/common/command.c ****             }
 1784               		.loc 1 269 17 view .LVU395
 1785               	.LBE236:
 1786 0360 80E0      		ldi r24,lo8(__c.103)
 1787 0362 90E0      		ldi r25,hi8(__c.103)
 1788 0364 00C0      		rjmp .L81
 1789               	.L56:
 273:../../tmk_core/common/command.c ****             if (debug_mouse) {
 1790               		.loc 1 273 13 view .LVU396
 273:../../tmk_core/common/command.c ****             if (debug_mouse) {
 1791               		.loc 1 273 28 is_stmt 0 view .LVU397
 1792 0366 9091 0000 		lds r25,debug_config
 273:../../tmk_core/common/command.c ****             if (debug_mouse) {
 1793               		.loc 1 273 25 view .LVU398
 1794 036a 892F      		mov r24,r25
 1795 036c 877F      		andi r24,~(1<<3)
 1796 036e 93FF      		sbrs r25,3
 1797 0370 8860      		ori r24,1<<3
 1798 0372 8093 0000 		sts debug_config,r24
 274:../../tmk_core/common/command.c ****                 print("\nmouse: on\n");
 1799               		.loc 1 274 13 is_stmt 1 view .LVU399
 274:../../tmk_core/common/command.c ****                 print("\nmouse: on\n");
 1800               		.loc 1 274 16 is_stmt 0 view .LVU400
 1801 0376 83FF      		sbrs r24,3
 1802 0378 00C0      		rjmp .L69
 275:../../tmk_core/common/command.c ****                 debug_enable = true;
 1803               		.loc 1 275 17 is_stmt 1 view .LVU401
 1804               	.LBB237:
 275:../../tmk_core/common/command.c ****                 debug_enable = true;
 1805               		.loc 1 275 17 view .LVU402
 275:../../tmk_core/common/command.c ****                 debug_enable = true;
 1806               		.loc 1 275 17 view .LVU403
 1807               	.LBE237:
 1808 037a 80E0      		ldi r24,lo8(__c.102)
 1809 037c 90E0      		ldi r25,hi8(__c.102)
 1810 037e 00C0      		rjmp .L83
 1811               	.L69:
 278:../../tmk_core/common/command.c ****             }
 1812               		.loc 1 278 17 view .LVU404
 1813               	.LBB238:
 278:../../tmk_core/common/command.c ****             }
 1814               		.loc 1 278 17 view .LVU405
 278:../../tmk_core/common/command.c ****             }
 1815               		.loc 1 278 17 view .LVU406
 1816               	.LBE238:
 1817 0380 80E0      		ldi r24,lo8(__c.101)
 1818 0382 90E0      		ldi r25,hi8(__c.101)
 1819 0384 00C0      		rjmp .L81
 1820               	.L54:
 282:../../tmk_core/common/command.c ****             print("DESC: " STR(DESCRIPTION) "\n");
 1821               		.loc 1 282 13 view .LVU407
 1822               	.LBB239:
 282:../../tmk_core/common/command.c ****             print("DESC: " STR(DESCRIPTION) "\n");
 1823               		.loc 1 282 13 view .LVU408
 282:../../tmk_core/common/command.c ****             print("DESC: " STR(DESCRIPTION) "\n");
 1824               		.loc 1 282 13 view .LVU409
 1825               	.LBE239:
 1826 0386 80E0      		ldi r24,lo8(__c.100)
 1827 0388 90E0      		ldi r25,hi8(__c.100)
 1828 038a 0E94 0000 		call xputs
 283:../../tmk_core/common/command.c ****             print("VID: " STR(VENDOR_ID) "(" STR(MANUFACTURER) ") "
 1829               		.loc 1 283 13 view .LVU410
 1830               	.LBB240:
 283:../../tmk_core/common/command.c ****             print("VID: " STR(VENDOR_ID) "(" STR(MANUFACTURER) ") "
 1831               		.loc 1 283 13 view .LVU411
 283:../../tmk_core/common/command.c ****             print("VID: " STR(VENDOR_ID) "(" STR(MANUFACTURER) ") "
 1832               		.loc 1 283 13 view .LVU412
 1833               	.LBE240:
 1834 038e 80E0      		ldi r24,lo8(__c.99)
 1835 0390 90E0      		ldi r25,hi8(__c.99)
 1836 0392 0E94 0000 		call xputs
 284:../../tmk_core/common/command.c ****                   "PID: " STR(PRODUCT_ID) "(" STR(PRODUCT) ") "
 1837               		.loc 1 284 13 view .LVU413
 1838               	.LBB241:
 284:../../tmk_core/common/command.c ****                   "PID: " STR(PRODUCT_ID) "(" STR(PRODUCT) ") "
 1839               		.loc 1 284 13 view .LVU414
 284:../../tmk_core/common/command.c ****                   "PID: " STR(PRODUCT_ID) "(" STR(PRODUCT) ") "
 1840               		.loc 1 284 13 view .LVU415
 1841               	.LBE241:
 1842 0396 80E0      		ldi r24,lo8(__c.98)
 1843 0398 90E0      		ldi r25,hi8(__c.98)
 1844 039a 0E94 0000 		call xputs
 287:../../tmk_core/common/command.c ****             /* build options */
 1845               		.loc 1 287 13 view .LVU416
 1846               	.LBB242:
 287:../../tmk_core/common/command.c ****             /* build options */
 1847               		.loc 1 287 13 view .LVU417
 287:../../tmk_core/common/command.c ****             /* build options */
 1848               		.loc 1 287 13 view .LVU418
 1849               	.LBE242:
 1850 039e 80E0      		ldi r24,lo8(__c.97)
 1851 03a0 90E0      		ldi r25,hi8(__c.97)
 1852 03a2 0E94 0000 		call xputs
 289:../../tmk_core/common/command.c **** #ifdef PROTOCOL_PJRC
 1853               		.loc 1 289 13 view .LVU419
 1854               	.LBB243:
 289:../../tmk_core/common/command.c **** #ifdef PROTOCOL_PJRC
 1855               		.loc 1 289 13 view .LVU420
 289:../../tmk_core/common/command.c **** #ifdef PROTOCOL_PJRC
 1856               		.loc 1 289 13 view .LVU421
 1857               	.LBE243:
 1858 03a6 80E0      		ldi r24,lo8(__c.96)
 1859 03a8 90E0      		ldi r25,hi8(__c.96)
 1860 03aa 0E94 0000 		call xputs
 325:../../tmk_core/common/command.c **** #if defined(__AVR__)
 1861               		.loc 1 325 13 view .LVU422
 1862               	.LBB244:
 325:../../tmk_core/common/command.c **** #if defined(__AVR__)
 1863               		.loc 1 325 13 view .LVU423
 325:../../tmk_core/common/command.c **** #if defined(__AVR__)
 1864               		.loc 1 325 13 view .LVU424
 1865               	.LBE244:
 1866 03ae 80E0      		ldi r24,lo8(__c.95)
 1867 03b0 90E0      		ldi r25,hi8(__c.95)
 1868 03b2 00C0      		rjmp .L81
 1869               	.L55:
 335:../../tmk_core/common/command.c ****             print_val_hex8(host_keyboard_leds());
 1870               		.loc 1 335 13 view .LVU425
 1871               	.LBB245:
 335:../../tmk_core/common/command.c ****             print_val_hex8(host_keyboard_leds());
 1872               		.loc 1 335 13 view .LVU426
 335:../../tmk_core/common/command.c ****             print_val_hex8(host_keyboard_leds());
 1873               		.loc 1 335 13 view .LVU427
 1874               	.LBE245:
 1875 03b4 80E0      		ldi r24,lo8(__c.94)
 1876 03b6 90E0      		ldi r25,hi8(__c.94)
 1877 03b8 0E94 0000 		call xputs
 336:../../tmk_core/common/command.c ****             print_val_hex8(keyboard_protocol);
 1878               		.loc 1 336 13 view .LVU428
 1879 03bc 0E94 0000 		call host_keyboard_leds
 1880               	.LBB246:
 336:../../tmk_core/common/command.c ****             print_val_hex8(keyboard_protocol);
 1881               		.loc 1 336 13 view .LVU429
 336:../../tmk_core/common/command.c ****             print_val_hex8(keyboard_protocol);
 1882               		.loc 1 336 13 view .LVU430
 1883               	.LBE246:
 1884 03c0 1F92      		push __zero_reg__
 1885               	.LCFI114:
 1886               		.cfi_def_cfa_offset 4
 1887 03c2 8F93      		push r24
 1888               	.LCFI115:
 1889               		.cfi_def_cfa_offset 5
 1890 03c4 80E0      		ldi r24,lo8(__c.93)
 1891 03c6 90E0      		ldi r25,hi8(__c.93)
 1892 03c8 9F93      		push r25
 1893               	.LCFI116:
 1894               		.cfi_def_cfa_offset 6
 1895 03ca 8F93      		push r24
 1896               	.LCFI117:
 1897               		.cfi_def_cfa_offset 7
 1898 03cc 0E94 0000 		call __xprintf
 337:../../tmk_core/common/command.c ****             print_val_hex8(keyboard_idle);
 1899               		.loc 1 337 13 view .LVU431
 1900               	.LBB247:
 337:../../tmk_core/common/command.c ****             print_val_hex8(keyboard_idle);
 1901               		.loc 1 337 13 view .LVU432
 337:../../tmk_core/common/command.c ****             print_val_hex8(keyboard_idle);
 1902               		.loc 1 337 13 view .LVU433
 1903               	.LBE247:
 1904 03d0 8091 0000 		lds r24,keyboard_protocol
 1905 03d4 1F92      		push __zero_reg__
 1906               	.LCFI118:
 1907               		.cfi_def_cfa_offset 8
 1908 03d6 8F93      		push r24
 1909               	.LCFI119:
 1910               		.cfi_def_cfa_offset 9
 1911 03d8 80E0      		ldi r24,lo8(__c.92)
 1912 03da 90E0      		ldi r25,hi8(__c.92)
 1913 03dc 9F93      		push r25
 1914               	.LCFI120:
 1915               		.cfi_def_cfa_offset 10
 1916 03de 8F93      		push r24
 1917               	.LCFI121:
 1918               		.cfi_def_cfa_offset 11
 1919 03e0 0E94 0000 		call __xprintf
 338:../../tmk_core/common/command.c **** #ifdef NKRO_ENABLE
 1920               		.loc 1 338 13 view .LVU434
 1921               	.LBB248:
 338:../../tmk_core/common/command.c **** #ifdef NKRO_ENABLE
 1922               		.loc 1 338 13 view .LVU435
 338:../../tmk_core/common/command.c **** #ifdef NKRO_ENABLE
 1923               		.loc 1 338 13 view .LVU436
 1924               	.LBE248:
 1925 03e4 8091 0000 		lds r24,keyboard_idle
 1926 03e8 1F92      		push __zero_reg__
 1927               	.LCFI122:
 1928               		.cfi_def_cfa_offset 12
 1929 03ea 8F93      		push r24
 1930               	.LCFI123:
 1931               		.cfi_def_cfa_offset 13
 1932 03ec 80E0      		ldi r24,lo8(__c.91)
 1933 03ee 90E0      		ldi r25,hi8(__c.91)
 1934 03f0 9F93      		push r25
 1935               	.LCFI124:
 1936               		.cfi_def_cfa_offset 14
 1937 03f2 8F93      		push r24
 1938               	.LCFI125:
 1939               		.cfi_def_cfa_offset 15
 1940 03f4 0E94 0000 		call __xprintf
 342:../../tmk_core/common/command.c **** 
 1941               		.loc 1 342 13 view .LVU437
 1942 03f8 0E94 0000 		call timer_read32
 1943               	.LBB249:
 342:../../tmk_core/common/command.c **** 
 1944               		.loc 1 342 13 view .LVU438
 342:../../tmk_core/common/command.c **** 
 1945               		.loc 1 342 13 view .LVU439
 1946               	.LBE249:
 1947 03fc 9F93      		push r25
 1948               	.LCFI126:
 1949               		.cfi_def_cfa_offset 16
 1950 03fe 8F93      		push r24
 1951               	.LCFI127:
 1952               		.cfi_def_cfa_offset 17
 1953 0400 7F93      		push r23
 1954               	.LCFI128:
 1955               		.cfi_def_cfa_offset 18
 1956 0402 6F93      		push r22
 1957               	.LCFI129:
 1958               		.cfi_def_cfa_offset 19
 1959 0404 80E0      		ldi r24,lo8(__c.90)
 1960 0406 90E0      		ldi r25,hi8(__c.90)
 1961 0408 9F93      		push r25
 1962               	.LCFI130:
 1963               		.cfi_def_cfa_offset 20
 1964 040a 8F93      		push r24
 1965               	.LCFI131:
 1966               		.cfi_def_cfa_offset 21
 1967 040c 0E94 0000 		call __xprintf
 357:../../tmk_core/common/command.c **** #ifdef NKRO_ENABLE
 1968               		.loc 1 357 13 view .LVU440
 1969 0410 8DB7      		in r24,__SP_L__
 1970 0412 9EB7      		in r25,__SP_H__
 1971 0414 4296      		adiw r24,18
 1972 0416 0FB6      		in __tmp_reg__,__SREG__
 1973 0418 F894      		cli
 1974 041a 9EBF      		out __SP_H__,r25
 1975 041c 0FBE      		out __SREG__,__tmp_reg__
 1976 041e 8DBF      		out __SP_L__,r24
 1977               	.LCFI132:
 1978               		.cfi_def_cfa_offset 3
 1979 0420 00C0      		rjmp .L80
 1980               	.L50:
 373:../../tmk_core/common/command.c ****             break;
 1981               		.loc 1 373 13 view .LVU441
 1982 0422 80E0      		ldi r24,0
 1983               	.L79:
 379:../../tmk_core/common/command.c ****             break;
 1984               		.loc 1 379 13 is_stmt 0 view .LVU442
 1985 0424 0E94 0000 		call switch_default_layer
 1986 0428 00C0      		rjmp .L80
 1987               	.L52:
 376:../../tmk_core/common/command.c ****             break;
 1988               		.loc 1 376 13 is_stmt 1 view .LVU443
 1989 042a 8D51      		subi r24,lo8(-(-29))
 1990 042c 00C0      		rjmp .L79
 1991               	.L63:
 379:../../tmk_core/common/command.c ****             break;
 1992               		.loc 1 379 13 view .LVU444
 1993 042e 8953      		subi r24,lo8(-(-57))
 1994 0430 00C0      		rjmp .L79
 1995               		.cfi_endproc
 1996               	.LFE15:
 1998               		.section	.text.command_extra,"ax",@progbits
 1999               		.weak	command_extra
 2001               	command_extra:
 2002               	.LVL46:
 2003               	.LFB11:
 100:../../tmk_core/common/command.c ****     (void)code;
 2004               		.loc 1 100 1 view -0
 2005               		.cfi_startproc
 2006               	/* prologue: function */
 2007               	/* frame size = 0 */
 2008               	/* stack size = 0 */
 2009               	.L__stack_usage = 0
 101:../../tmk_core/common/command.c ****     return false;
 2010               		.loc 1 101 5 view .LVU446
 102:../../tmk_core/common/command.c **** }
 2011               		.loc 1 102 5 view .LVU447
 103:../../tmk_core/common/command.c **** 
 2012               		.loc 1 103 1 is_stmt 0 view .LVU448
 2013 0000 80E0      		ldi r24,0
 2014               	.LVL47:
 2015               	/* epilogue start */
 103:../../tmk_core/common/command.c **** 
 2016               		.loc 1 103 1 view .LVU449
 2017 0002 0895      		ret
 2018               		.cfi_endproc
 2019               	.LFE11:
 2021               		.set	command_extra.localalias,command_extra
 2022               		.section	.text.command_console_extra,"ax",@progbits
 2023               		.weak	command_console_extra
 2025               	command_console_extra:
 2026               	.LFB26:
 2027               		.cfi_startproc
 2028               	/* prologue: function */
 2029               	/* frame size = 0 */
 2030               	/* stack size = 0 */
 2031               	.L__stack_usage = 0
 2032 0000 0C94 0000 		jmp command_extra.localalias
 2033               		.cfi_endproc
 2034               	.LFE26:
 2036               		.section	.text.command_proc,"ax",@progbits
 2037               	.global	command_proc
 2039               	command_proc:
 2040               	.LFB10:
  71:../../tmk_core/common/command.c ****     switch (command_state) {
 2041               		.loc 1 71 1 is_stmt 1 view -0
 2042               		.cfi_startproc
  71:../../tmk_core/common/command.c ****     switch (command_state) {
 2043               		.loc 1 71 1 is_stmt 0 view .LVU451
 2044 0000 CF93      		push r28
 2045               	.LCFI133:
 2046               		.cfi_def_cfa_offset 3
 2047               		.cfi_offset 28, -2
 2048               	/* prologue: function */
 2049               	/* frame size = 0 */
 2050               	/* stack size = 1 */
 2051               	.L__stack_usage = 1
 2052 0002 C82F      		mov r28,r24
  72:../../tmk_core/common/command.c ****         case ONESHOT:
 2053               		.loc 1 72 5 is_stmt 1 view .LVU452
 2054 0004 8091 0000 		lds r24,command_state
 2055 0008 8130      		cpi r24,lo8(1)
 2056 000a 01F0      		breq .L87
 2057 000c 8230      		cpi r24,lo8(2)
 2058 000e 01F4      		brne .+2
 2059 0010 00C0      		rjmp .L88
 2060 0012 8111      		cpse r24,__zero_reg__
 2061 0014 00C0      		rjmp .L89
  74:../../tmk_core/common/command.c ****                 return false;
 2062               		.loc 1 74 13 view .LVU453
  74:../../tmk_core/common/command.c ****                 return false;
 2063               		.loc 1 74 18 is_stmt 0 view .LVU454
 2064 0016 E091 0000 		lds r30,keyboard_report
 2065 001a F091 0000 		lds r31,keyboard_report+1
  74:../../tmk_core/common/command.c ****                 return false;
 2066               		.loc 1 74 17 view .LVU455
 2067 001e 8081      		ld r24,Z
 2068 0020 8152      		subi r24,lo8(-(-33))
  74:../../tmk_core/common/command.c ****                 return false;
 2069               		.loc 1 74 16 view .LVU456
 2070 0022 8230      		cpi r24,lo8(2)
 2071 0024 00F0      		brlo .+2
 2072 0026 00C0      		rjmp .L115
 2073               	.L147:
  80:../../tmk_core/common/command.c ****             else
 2074               		.loc 1 80 17 is_stmt 1 view .LVU457
  80:../../tmk_core/common/command.c ****             else
 2075               		.loc 1 80 25 is_stmt 0 view .LVU458
 2076 0028 8C2F      		mov r24,r28
 2077 002a 0E94 0000 		call command_extra
  80:../../tmk_core/common/command.c ****             else
 2078               		.loc 1 80 45 view .LVU459
 2079 002e 8111      		cpse r24,__zero_reg__
 2080 0030 00C0      		rjmp .L117
  80:../../tmk_core/common/command.c ****             else
 2081               		.loc 1 80 48 discriminator 2 view .LVU460
 2082 0032 8C2F      		mov r24,r28
 2083 0034 0E94 0000 		call command_common
 2084               	.L94:
  82:../../tmk_core/common/command.c ****             break;
 2085               		.loc 1 82 53 discriminator 6 view .LVU461
 2086 0038 8170      		andi r24,lo8(1)
 2087               	.L86:
 2088               	/* epilogue start */
  94:../../tmk_core/common/command.c **** 
 2089               		.loc 1 94 1 view .LVU462
 2090 003a CF91      		pop r28
 2091 003c 0895      		ret
 2092               	.L87:
  77:../../tmk_core/common/command.c ****         case CONSOLE:
 2093               		.loc 1 77 13 is_stmt 1 view .LVU463
  79:../../tmk_core/common/command.c ****                 return (command_extra(code) || command_common(code));
 2094               		.loc 1 79 13 view .LVU464
  79:../../tmk_core/common/command.c ****                 return (command_extra(code) || command_common(code));
 2095               		.loc 1 79 17 is_stmt 0 view .LVU465
 2096 003e E091 0000 		lds r30,keyboard_report
 2097 0042 F091 0000 		lds r31,keyboard_report+1
 2098 0046 8081      		ld r24,Z
 2099 0048 8152      		subi r24,lo8(-(-33))
  79:../../tmk_core/common/command.c ****                 return (command_extra(code) || command_common(code));
 2100               		.loc 1 79 16 view .LVU466
 2101 004a 8230      		cpi r24,lo8(2)
 2102 004c 00F0      		brlo .L147
  82:../../tmk_core/common/command.c ****             break;
 2103               		.loc 1 82 17 is_stmt 1 view .LVU467
  82:../../tmk_core/common/command.c ****             break;
 2104               		.loc 1 82 25 is_stmt 0 view .LVU468
 2105 004e 8C2F      		mov r24,r28
 2106 0050 0E94 0000 		call command_console_extra
  82:../../tmk_core/common/command.c ****             break;
 2107               		.loc 1 82 53 view .LVU469
 2108 0054 8111      		cpse r24,__zero_reg__
 2109 0056 00C0      		rjmp .L118
 2110               	.LBB288:
 2111               	.LBI288:
 402:../../tmk_core/common/command.c **** {
 2112               		.loc 1 402 13 is_stmt 1 view .LVU470
 2113               	.LBB289:
 404:../../tmk_core/common/command.c ****         case KC_H:
 2114               		.loc 1 404 5 view .LVU471
 2115 0058 C431      		cpi r28,lo8(20)
 2116 005a 01F0      		breq .L95
 2117 005c 00F4      		brsh .L96
 2118 005e CB30      		cpi r28,lo8(11)
 2119 0060 01F0      		breq .L97
 2120 0062 C031      		cpi r28,lo8(16)
 2121 0064 01F0      		breq .L98
 2122               	.L99:
 421:../../tmk_core/common/command.c ****             return false;
 2123               		.loc 1 421 13 view .LVU472
 2124               	.LBE289:
 2125               	.LBE288:
 421:../../tmk_core/common/command.c ****             return false;
 2126               		.loc 1 421 13 view .LVU473
 421:../../tmk_core/common/command.c ****             return false;
 2127               		.loc 1 421 13 view .LVU474
 2128               	.LBB301:
 2129               	.LBB294:
 2130 0066 80E0      		ldi r24,lo8(__c.38)
 2131 0068 90E0      		ldi r25,hi8(__c.38)
 2132 006a 0E94 0000 		call xputs
 2133 006e 00C0      		rjmp .L140
 2134               	.L117:
 2135               	.LBE294:
 2136               	.LBE301:
  80:../../tmk_core/common/command.c ****             else
 2137               		.loc 1 80 45 is_stmt 0 view .LVU475
 2138 0070 81E0      		ldi r24,lo8(1)
 2139 0072 90E0      		ldi r25,0
 2140 0074 00C0      		rjmp .L94
 2141               	.L96:
 2142               	.LBB302:
 2143               	.LBB295:
 404:../../tmk_core/common/command.c ****         case KC_H:
 2144               		.loc 1 404 5 view .LVU476
 2145 0076 C932      		cpi r28,lo8(41)
 2146 0078 01F0      		breq .L95
 2147 007a C833      		cpi r28,lo8(56)
 2148 007c 01F4      		brne .L99
 2149               	.L97:
 407:../../tmk_core/common/command.c ****             break;
 2150               		.loc 1 407 13 is_stmt 1 view .LVU477
 2151               	.LBB290:
 2152               	.LBI290:
 392:../../tmk_core/common/command.c **** {
 2153               		.loc 1 392 13 view .LVU478
 2154               	.LBB291:
 394:../../tmk_core/common/command.c ****           "ESC/q:	quit\n"
 2155               		.loc 1 394 5 view .LVU479
 2156               	.LBE291:
 2157               	.LBE290:
 2158               	.LBE295:
 2159               	.LBE302:
 394:../../tmk_core/common/command.c ****           "ESC/q:	quit\n"
 2160               		.loc 1 394 5 view .LVU480
 394:../../tmk_core/common/command.c ****           "ESC/q:	quit\n"
 2161               		.loc 1 394 5 view .LVU481
 2162               	.LBB303:
 2163               	.LBB296:
 2164               	.LBB293:
 2165               	.LBB292:
 2166 007e 80E0      		ldi r24,lo8(__c.42)
 2167 0080 90E0      		ldi r25,hi8(__c.42)
 2168 0082 0E94 0000 		call xputs
 2169               	.LBE292:
 2170               	.LBE293:
 408:../../tmk_core/common/command.c ****         case KC_Q:
 2171               		.loc 1 408 13 view .LVU482
 424:../../tmk_core/common/command.c ****     return true;
 2172               		.loc 1 424 5 view .LVU483
 2173               	.LBE296:
 2174               	.LBE303:
 424:../../tmk_core/common/command.c ****     return true;
 2175               		.loc 1 424 5 view .LVU484
 424:../../tmk_core/common/command.c ****     return true;
 2176               		.loc 1 424 5 view .LVU485
 2177               	.LBB304:
 2178               	.LBB297:
 2179 0086 80E0      		ldi r24,lo8(__c.40)
 2180 0088 90E0      		ldi r25,hi8(__c.40)
 2181 008a 0E94 0000 		call xputs
 425:../../tmk_core/common/command.c **** }
 2182               		.loc 1 425 5 view .LVU486
 2183               	.L118:
 2184               	.LBE297:
 2185               	.LBE304:
  82:../../tmk_core/common/command.c ****             break;
 2186               		.loc 1 82 53 is_stmt 0 view .LVU487
 2187 008e 81E0      		ldi r24,lo8(1)
 2188 0090 00C0      		rjmp .L94
 2189               	.L95:
 2190               	.LBB305:
 2191               	.LBB298:
 411:../../tmk_core/common/command.c ****             return false;
 2192               		.loc 1 411 13 is_stmt 1 view .LVU488
 411:../../tmk_core/common/command.c ****             return false;
 2193               		.loc 1 411 27 is_stmt 0 view .LVU489
 2194 0092 1092 0000 		sts command_state,__zero_reg__
 412:../../tmk_core/common/command.c **** #ifdef MOUSEKEY_ENABLE
 2195               		.loc 1 412 13 is_stmt 1 view .LVU490
 2196               	.L140:
 422:../../tmk_core/common/command.c ****     }
 2197               		.loc 1 422 13 view .LVU491
 2198               	.LBE298:
 2199               	.LBE305:
  82:../../tmk_core/common/command.c ****             break;
 2200               		.loc 1 82 53 is_stmt 0 view .LVU492
 2201 0096 80E0      		ldi r24,0
 2202 0098 00C0      		rjmp .L94
 2203               	.L98:
 2204               	.LBB306:
 2205               	.LBB299:
 415:../../tmk_core/common/command.c ****             print("M> ");
 2206               		.loc 1 415 13 is_stmt 1 view .LVU493
 2207 009a 0E94 0000 		call mousekey_console_help
 416:../../tmk_core/common/command.c ****             command_state = MOUSEKEY;
 2208               		.loc 1 416 13 view .LVU494
 2209               	.LBE299:
 2210               	.LBE306:
 416:../../tmk_core/common/command.c ****             command_state = MOUSEKEY;
 2211               		.loc 1 416 13 view .LVU495
 416:../../tmk_core/common/command.c ****             command_state = MOUSEKEY;
 2212               		.loc 1 416 13 view .LVU496
 2213               	.LBB307:
 2214               	.LBB300:
 2215 009e 80E0      		ldi r24,lo8(__c.39)
 2216 00a0 90E0      		ldi r25,hi8(__c.39)
 2217 00a2 0E94 0000 		call xputs
 417:../../tmk_core/common/command.c ****             return true;
 2218               		.loc 1 417 13 view .LVU497
 417:../../tmk_core/common/command.c ****             return true;
 2219               		.loc 1 417 27 is_stmt 0 view .LVU498
 2220 00a6 82E0      		ldi r24,lo8(2)
 2221 00a8 8093 0000 		sts command_state,r24
 418:../../tmk_core/common/command.c **** #endif
 2222               		.loc 1 418 13 is_stmt 1 view .LVU499
 2223 00ac 00C0      		rjmp .L118
 2224               	.L88:
 2225               	.LBE300:
 2226               	.LBE307:
  83:../../tmk_core/common/command.c **** #ifdef MOUSEKEY_ENABLE
 2227               		.loc 1 83 13 view .LVU500
  86:../../tmk_core/common/command.c ****             break;
 2228               		.loc 1 86 13 view .LVU501
 2229               	.LBB308:
 2230               	.LBI308:
 567:../../tmk_core/common/command.c **** {
 2231               		.loc 1 567 13 view .LVU502
 2232               	.LBB309:
 569:../../tmk_core/common/command.c ****         case KC_H:
 2233               		.loc 1 569 5 view .LVU503
 2234 00ae C932      		cpi r28,lo8(41)
 2235 00b0 01F4      		brne .+2
 2236 00b2 00C0      		rjmp .L100
 2237 00b4 00F4      		brsh .L101
 2238 00b6 C331      		cpi r28,lo8(19)
 2239 00b8 01F4      		brne .+2
 2240 00ba 00C0      		rjmp .L102
 2241 00bc 00F4      		brsh .L103
 2242 00be C730      		cpi r28,lo8(7)
 2243 00c0 01F4      		brne .+2
 2244 00c2 00C0      		rjmp .L104
 2245 00c4 CB30      		cpi r28,lo8(11)
 2246 00c6 01F0      		breq .L105
 2247               	.L106:
 617:../../tmk_core/common/command.c ****             return false;
 2248               		.loc 1 617 13 view .LVU504
 2249               	.LBE309:
 2250               	.LBE308:
 617:../../tmk_core/common/command.c ****             return false;
 2251               		.loc 1 617 13 view .LVU505
 617:../../tmk_core/common/command.c ****             return false;
 2252               		.loc 1 617 13 view .LVU506
 2253               	.LBB377:
 2254               	.LBB351:
 2255 00c8 80E0      		ldi r24,lo8(__c.33)
 2256 00ca 90E0      		ldi r25,hi8(__c.33)
 2257               	.L144:
 623:../../tmk_core/common/command.c ****     }
 2258               		.loc 1 623 9 is_stmt 0 view .LVU507
 2259 00cc 0E94 0000 		call xputs
 2260 00d0 00C0      		rjmp .L143
 2261               	.L103:
 569:../../tmk_core/common/command.c ****         case KC_H:
 2262               		.loc 1 569 5 view .LVU508
 2263 00d2 C431      		cpi r28,lo8(20)
 2264 00d4 01F0      		breq .L100
 2265 00d6 CE51      		subi r28,lo8(-(-30))
 2266 00d8 C630      		cpi r28,lo8(6)
 2267 00da 00F4      		brsh .L106
 593:../../tmk_core/common/command.c ****             break;
 2268               		.loc 1 593 13 is_stmt 1 view .LVU509
 2269               	.LBB310:
 2270               	.LBI310:
 634:../../tmk_core/common/command.c **** {
 2271               		.loc 1 634 16 view .LVU510
 2272               	.LBE310:
 2273               	.LBE351:
 2274               	.LBE377:
 636:../../tmk_core/common/command.c ****         case KC_1: return 1;
 2275               		.loc 1 636 5 view .LVU511
 2276               	.LBB378:
 2277               	.LBB352:
 593:../../tmk_core/common/command.c ****             break;
 2278               		.loc 1 593 28 is_stmt 0 view .LVU512
 2279 00dc EC2F      		mov r30,r28
 2280 00de F0E0      		ldi r31,0
 2281 00e0 E050      		subi r30,lo8(-(CSWTCH.59))
 2282 00e2 F040      		sbci r31,hi8(-(CSWTCH.59))
 2283 00e4 8081      		ld r24,Z
 2284 00e6 8093 0000 		sts mousekey_param,r24
 594:../../tmk_core/common/command.c ****         case KC_UP:
 2285               		.loc 1 594 13 is_stmt 1 view .LVU513
 2286               	.L107:
 620:../../tmk_core/common/command.c ****         xprintf("M%d> ", mousekey_param);
 2287               		.loc 1 620 5 view .LVU514
 620:../../tmk_core/common/command.c ****         xprintf("M%d> ", mousekey_param);
 2288               		.loc 1 620 9 is_stmt 0 view .LVU515
 2289 00ea 8091 0000 		lds r24,mousekey_param
 620:../../tmk_core/common/command.c ****         xprintf("M%d> ", mousekey_param);
 2290               		.loc 1 620 8 view .LVU516
 2291 00ee 8823      		tst r24
 2292 00f0 01F4      		brne .+2
 2293 00f2 00C0      		rjmp .L114
 621:../../tmk_core/common/command.c ****     } else {
 2294               		.loc 1 621 9 is_stmt 1 view .LVU517
 2295               	.LBE352:
 2296               	.LBE378:
 621:../../tmk_core/common/command.c ****     } else {
 2297               		.loc 1 621 9 view .LVU518
 621:../../tmk_core/common/command.c ****     } else {
 2298               		.loc 1 621 9 view .LVU519
 2299               	.LBB379:
 2300               	.LBB353:
 2301 00f4 1F92      		push __zero_reg__
 2302               	.LCFI134:
 2303               		.cfi_def_cfa_offset 4
 2304 00f6 8F93      		push r24
 2305               	.LCFI135:
 2306               		.cfi_def_cfa_offset 5
 2307 00f8 80E0      		ldi r24,lo8(__c.32)
 2308 00fa 90E0      		ldi r25,hi8(__c.32)
 2309 00fc 9F93      		push r25
 2310               	.LCFI136:
 2311               		.cfi_def_cfa_offset 6
 2312 00fe 8F93      		push r24
 2313               	.LCFI137:
 2314               		.cfi_def_cfa_offset 7
 2315 0100 0E94 0000 		call __xprintf
 2316 0104 0F90      		pop __tmp_reg__
 2317 0106 0F90      		pop __tmp_reg__
 2318 0108 0F90      		pop __tmp_reg__
 2319 010a 0F90      		pop __tmp_reg__
 2320               	.LCFI138:
 2321               		.cfi_def_cfa_offset 3
 2322               	.L143:
 2323               	.LBE353:
 2324               	.LBE379:
  93:../../tmk_core/common/command.c **** }
 2325               		.loc 1 93 12 is_stmt 0 view .LVU520
 2326 010c 81E0      		ldi r24,lo8(1)
 2327 010e 00C0      		rjmp .L86
 2328               	.L101:
 2329               	.LBB380:
 2330               	.LBB354:
 569:../../tmk_core/common/command.c ****         case KC_H:
 2331               		.loc 1 569 5 view .LVU521
 2332 0110 CE34      		cpi r28,lo8(78)
 2333 0112 01F4      		brne .+2
 2334 0114 00C0      		rjmp .L108
 2335 0116 00F4      		brsh .L109
 2336 0118 C833      		cpi r28,lo8(56)
 2337 011a 01F0      		breq .L105
 602:../../tmk_core/common/command.c ****             break;
 2338               		.loc 1 602 13 view .LVU522
 2339 011c 6AE0      		ldi r22,lo8(10)
 569:../../tmk_core/common/command.c ****         case KC_H:
 2340               		.loc 1 569 5 view .LVU523
 2341 011e CB34      		cpi r28,lo8(75)
 2342 0120 01F4      		brne .L106
 2343               	.L141:
 602:../../tmk_core/common/command.c ****             break;
 2344               		.loc 1 602 13 view .LVU524
 2345 0122 8091 0000 		lds r24,mousekey_param
 2346 0126 0E94 0000 		call mousekey_param_inc
 603:../../tmk_core/common/command.c ****         case KC_PGDN:
 2347               		.loc 1 603 13 is_stmt 1 view .LVU525
 2348 012a 00C0      		rjmp .L107
 2349               	.L109:
 569:../../tmk_core/common/command.c ****         case KC_H:
 2350               		.loc 1 569 5 is_stmt 0 view .LVU526
 2351 012c C135      		cpi r28,lo8(81)
 2352 012e 01F4      		brne .+2
 2353 0130 00C0      		rjmp .L111
 596:../../tmk_core/common/command.c ****             break;
 2354               		.loc 1 596 13 view .LVU527
 2355 0132 61E0      		ldi r22,lo8(1)
 569:../../tmk_core/common/command.c ****         case KC_H:
 2356               		.loc 1 569 5 view .LVU528
 2357 0134 C235      		cpi r28,lo8(82)
 2358 0136 01F0      		breq .L141
 2359 0138 00C0      		rjmp .L106
 2360               	.L105:
 572:../../tmk_core/common/command.c ****             break;
 2361               		.loc 1 572 13 is_stmt 1 view .LVU529
 2362 013a 0E94 0000 		call mousekey_console_help
 573:../../tmk_core/common/command.c ****         case KC_Q:
 2363               		.loc 1 573 13 view .LVU530
 2364 013e 00C0      		rjmp .L107
 2365               	.L100:
 576:../../tmk_core/common/command.c ****                 mousekey_param = 0;
 2366               		.loc 1 576 13 view .LVU531
 576:../../tmk_core/common/command.c ****                 mousekey_param = 0;
 2367               		.loc 1 576 16 is_stmt 0 view .LVU532
 2368 0140 8091 0000 		lds r24,mousekey_param
 2369 0144 8823      		tst r24
 2370 0146 01F0      		breq .L113
 577:../../tmk_core/common/command.c ****             } else {
 2371               		.loc 1 577 17 is_stmt 1 view .LVU533
 577:../../tmk_core/common/command.c ****             } else {
 2372               		.loc 1 577 32 is_stmt 0 view .LVU534
 2373 0148 1092 0000 		sts mousekey_param,__zero_reg__
 583:../../tmk_core/common/command.c ****         case KC_P:
 2374               		.loc 1 583 13 is_stmt 1 view .LVU535
 2375 014c 00C0      		rjmp .L107
 2376               	.L113:
 579:../../tmk_core/common/command.c ****                 command_state = CONSOLE;
 2377               		.loc 1 579 17 view .LVU536
 2378               	.LBE354:
 2379               	.LBE380:
 579:../../tmk_core/common/command.c ****                 command_state = CONSOLE;
 2380               		.loc 1 579 17 view .LVU537
 579:../../tmk_core/common/command.c ****                 command_state = CONSOLE;
 2381               		.loc 1 579 17 view .LVU538
 2382               	.LBB381:
 2383               	.LBB355:
 2384 014e 80E0      		ldi r24,lo8(__c.35)
 2385 0150 90E0      		ldi r25,hi8(__c.35)
 2386 0152 0E94 0000 		call xputs
 580:../../tmk_core/common/command.c ****                 return false;
 2387               		.loc 1 580 17 view .LVU539
 580:../../tmk_core/common/command.c ****                 return false;
 2388               		.loc 1 580 31 is_stmt 0 view .LVU540
 2389 0156 81E0      		ldi r24,lo8(1)
 2390 0158 8093 0000 		sts command_state,r24
 581:../../tmk_core/common/command.c ****             }
 2391               		.loc 1 581 17 is_stmt 1 view .LVU541
 581:../../tmk_core/common/command.c ****             }
 2392               		.loc 1 581 24 is_stmt 0 view .LVU542
 2393 015c 00C0      		rjmp .L86
 2394               	.L102:
 585:../../tmk_core/common/command.c ****             break;
 2395               		.loc 1 585 13 is_stmt 1 view .LVU543
 2396               	.LBB311:
 2397               	.LBI311:
 435:../../tmk_core/common/command.c **** {
 2398               		.loc 1 435 13 view .LVU544
 2399               	.LBB312:
 437:../../tmk_core/common/command.c ****     print("1: delay(*10ms): "); pdec(mk_delay); print("\n");
 2400               		.loc 1 437 5 view .LVU545
 2401               	.LBE312:
 2402               	.LBE311:
 2403               	.LBE355:
 2404               	.LBE381:
 437:../../tmk_core/common/command.c ****     print("1: delay(*10ms): "); pdec(mk_delay); print("\n");
 2405               		.loc 1 437 5 view .LVU546
 437:../../tmk_core/common/command.c ****     print("1: delay(*10ms): "); pdec(mk_delay); print("\n");
 2406               		.loc 1 437 5 view .LVU547
 2407               	.LBB382:
 2408               	.LBB356:
 2409               	.LBB332:
 2410               	.LBB313:
 2411 015e 80E0      		ldi r24,lo8(__c.30)
 2412 0160 90E0      		ldi r25,hi8(__c.30)
 2413 0162 0E94 0000 		call xputs
 438:../../tmk_core/common/command.c ****     print("2: interval(ms): "); pdec(mk_interval); print("\n");
 2414               		.loc 1 438 5 view .LVU548
 2415               	.LBE313:
 2416               	.LBE332:
 2417               	.LBE356:
 2418               	.LBE382:
 438:../../tmk_core/common/command.c ****     print("2: interval(ms): "); pdec(mk_interval); print("\n");
 2419               		.loc 1 438 5 view .LVU549
 438:../../tmk_core/common/command.c ****     print("2: interval(ms): "); pdec(mk_interval); print("\n");
 2420               		.loc 1 438 5 view .LVU550
 2421               	.LBB383:
 2422               	.LBB357:
 2423               	.LBB333:
 2424               	.LBB314:
 2425 0166 80E0      		ldi r24,lo8(__c.29)
 2426 0168 90E0      		ldi r25,hi8(__c.29)
 2427 016a 0E94 0000 		call xputs
 438:../../tmk_core/common/command.c ****     print("2: interval(ms): "); pdec(mk_interval); print("\n");
 2428               		.loc 1 438 33 view .LVU551
 2429               	.LBE314:
 2430               	.LBE333:
 2431               	.LBE357:
 2432               	.LBE383:
 438:../../tmk_core/common/command.c ****     print("2: interval(ms): "); pdec(mk_interval); print("\n");
 2433               		.loc 1 438 33 view .LVU552
 438:../../tmk_core/common/command.c ****     print("2: interval(ms): "); pdec(mk_interval); print("\n");
 2434               		.loc 1 438 33 view .LVU553
 2435               	.LBB384:
 2436               	.LBB358:
 2437               	.LBB334:
 2438               	.LBB315:
 2439 016e 8091 0000 		lds r24,mk_delay
 2440 0172 1F92      		push __zero_reg__
 2441               	.LCFI139:
 2442               		.cfi_def_cfa_offset 4
 2443 0174 8F93      		push r24
 2444               	.LCFI140:
 2445               		.cfi_def_cfa_offset 5
 2446 0176 80E0      		ldi r24,lo8(__c.28)
 2447 0178 90E0      		ldi r25,hi8(__c.28)
 2448 017a 9F93      		push r25
 2449               	.LCFI141:
 2450               		.cfi_def_cfa_offset 6
 2451 017c 8F93      		push r24
 2452               	.LCFI142:
 2453               		.cfi_def_cfa_offset 7
 2454 017e 0E94 0000 		call __xprintf
 438:../../tmk_core/common/command.c ****     print("2: interval(ms): "); pdec(mk_interval); print("\n");
 2455               		.loc 1 438 49 view .LVU554
 2456               	.LBE315:
 2457               	.LBE334:
 2458               	.LBE358:
 2459               	.LBE384:
 438:../../tmk_core/common/command.c ****     print("2: interval(ms): "); pdec(mk_interval); print("\n");
 2460               		.loc 1 438 49 view .LVU555
 438:../../tmk_core/common/command.c ****     print("2: interval(ms): "); pdec(mk_interval); print("\n");
 2461               		.loc 1 438 49 view .LVU556
 2462               	.LBB385:
 2463               	.LBB359:
 2464               	.LBB335:
 2465               	.LBB316:
 2466 0182 80E0      		ldi r24,lo8(__c.27)
 2467 0184 90E0      		ldi r25,hi8(__c.27)
 2468 0186 0E94 0000 		call xputs
 439:../../tmk_core/common/command.c ****     print("3: max_speed: "); pdec(mk_max_speed); print("\n");
 2469               		.loc 1 439 5 view .LVU557
 2470               	.LBE316:
 2471               	.LBE335:
 2472               	.LBE359:
 2473               	.LBE385:
 439:../../tmk_core/common/command.c ****     print("3: max_speed: "); pdec(mk_max_speed); print("\n");
 2474               		.loc 1 439 5 view .LVU558
 439:../../tmk_core/common/command.c ****     print("3: max_speed: "); pdec(mk_max_speed); print("\n");
 2475               		.loc 1 439 5 view .LVU559
 2476               	.LBB386:
 2477               	.LBB360:
 2478               	.LBB336:
 2479               	.LBB317:
 2480 018a 80E0      		ldi r24,lo8(__c.26)
 2481 018c 90E0      		ldi r25,hi8(__c.26)
 2482 018e 0E94 0000 		call xputs
 439:../../tmk_core/common/command.c ****     print("3: max_speed: "); pdec(mk_max_speed); print("\n");
 2483               		.loc 1 439 33 view .LVU560
 2484               	.LBE317:
 2485               	.LBE336:
 2486               	.LBE360:
 2487               	.LBE386:
 439:../../tmk_core/common/command.c ****     print("3: max_speed: "); pdec(mk_max_speed); print("\n");
 2488               		.loc 1 439 33 view .LVU561
 439:../../tmk_core/common/command.c ****     print("3: max_speed: "); pdec(mk_max_speed); print("\n");
 2489               		.loc 1 439 33 view .LVU562
 2490               	.LBB387:
 2491               	.LBB361:
 2492               	.LBB337:
 2493               	.LBB318:
 2494 0192 8091 0000 		lds r24,mk_interval
 2495 0196 1F92      		push __zero_reg__
 2496               	.LCFI143:
 2497               		.cfi_def_cfa_offset 8
 2498 0198 8F93      		push r24
 2499               	.LCFI144:
 2500               		.cfi_def_cfa_offset 9
 2501 019a 80E0      		ldi r24,lo8(__c.25)
 2502 019c 90E0      		ldi r25,hi8(__c.25)
 2503 019e 9F93      		push r25
 2504               	.LCFI145:
 2505               		.cfi_def_cfa_offset 10
 2506 01a0 8F93      		push r24
 2507               	.LCFI146:
 2508               		.cfi_def_cfa_offset 11
 2509 01a2 0E94 0000 		call __xprintf
 439:../../tmk_core/common/command.c ****     print("3: max_speed: "); pdec(mk_max_speed); print("\n");
 2510               		.loc 1 439 52 view .LVU563
 2511               	.LBE318:
 2512               	.LBE337:
 2513               	.LBE361:
 2514               	.LBE387:
 439:../../tmk_core/common/command.c ****     print("3: max_speed: "); pdec(mk_max_speed); print("\n");
 2515               		.loc 1 439 52 view .LVU564
 439:../../tmk_core/common/command.c ****     print("3: max_speed: "); pdec(mk_max_speed); print("\n");
 2516               		.loc 1 439 52 view .LVU565
 2517               	.LBB388:
 2518               	.LBB362:
 2519               	.LBB338:
 2520               	.LBB319:
 2521 01a6 80E0      		ldi r24,lo8(__c.24)
 2522 01a8 90E0      		ldi r25,hi8(__c.24)
 2523 01aa 0E94 0000 		call xputs
 440:../../tmk_core/common/command.c ****     print("4: time_to_max: "); pdec(mk_time_to_max); print("\n");
 2524               		.loc 1 440 5 view .LVU566
 2525               	.LBE319:
 2526               	.LBE338:
 2527               	.LBE362:
 2528               	.LBE388:
 440:../../tmk_core/common/command.c ****     print("4: time_to_max: "); pdec(mk_time_to_max); print("\n");
 2529               		.loc 1 440 5 view .LVU567
 440:../../tmk_core/common/command.c ****     print("4: time_to_max: "); pdec(mk_time_to_max); print("\n");
 2530               		.loc 1 440 5 view .LVU568
 2531               	.LBB389:
 2532               	.LBB363:
 2533               	.LBB339:
 2534               	.LBB320:
 2535 01ae 80E0      		ldi r24,lo8(__c.23)
 2536 01b0 90E0      		ldi r25,hi8(__c.23)
 2537 01b2 0E94 0000 		call xputs
 440:../../tmk_core/common/command.c ****     print("4: time_to_max: "); pdec(mk_time_to_max); print("\n");
 2538               		.loc 1 440 30 view .LVU569
 2539               	.LBE320:
 2540               	.LBE339:
 2541               	.LBE363:
 2542               	.LBE389:
 440:../../tmk_core/common/command.c ****     print("4: time_to_max: "); pdec(mk_time_to_max); print("\n");
 2543               		.loc 1 440 30 view .LVU570
 440:../../tmk_core/common/command.c ****     print("4: time_to_max: "); pdec(mk_time_to_max); print("\n");
 2544               		.loc 1 440 30 view .LVU571
 2545               	.LBB390:
 2546               	.LBB364:
 2547               	.LBB340:
 2548               	.LBB321:
 2549 01b6 8091 0000 		lds r24,mk_max_speed
 2550 01ba 1F92      		push __zero_reg__
 2551               	.LCFI147:
 2552               		.cfi_def_cfa_offset 12
 2553 01bc 8F93      		push r24
 2554               	.LCFI148:
 2555               		.cfi_def_cfa_offset 13
 2556 01be 80E0      		ldi r24,lo8(__c.22)
 2557 01c0 90E0      		ldi r25,hi8(__c.22)
 2558 01c2 9F93      		push r25
 2559               	.LCFI149:
 2560               		.cfi_def_cfa_offset 14
 2561 01c4 8F93      		push r24
 2562               	.LCFI150:
 2563               		.cfi_def_cfa_offset 15
 2564 01c6 0E94 0000 		call __xprintf
 440:../../tmk_core/common/command.c ****     print("4: time_to_max: "); pdec(mk_time_to_max); print("\n");
 2565               		.loc 1 440 50 view .LVU572
 2566               	.LBE321:
 2567               	.LBE340:
 2568               	.LBE364:
 2569               	.LBE390:
 440:../../tmk_core/common/command.c ****     print("4: time_to_max: "); pdec(mk_time_to_max); print("\n");
 2570               		.loc 1 440 50 view .LVU573
 440:../../tmk_core/common/command.c ****     print("4: time_to_max: "); pdec(mk_time_to_max); print("\n");
 2571               		.loc 1 440 50 view .LVU574
 2572               	.LBB391:
 2573               	.LBB365:
 2574               	.LBB341:
 2575               	.LBB322:
 2576 01ca 80E0      		ldi r24,lo8(__c.21)
 2577 01cc 90E0      		ldi r25,hi8(__c.21)
 2578 01ce 0E94 0000 		call xputs
 441:../../tmk_core/common/command.c ****     print("5: wheel_max_speed: "); pdec(mk_wheel_max_speed); print("\n");
 2579               		.loc 1 441 5 view .LVU575
 2580               	.LBE322:
 2581               	.LBE341:
 2582               	.LBE365:
 2583               	.LBE391:
 441:../../tmk_core/common/command.c ****     print("5: wheel_max_speed: "); pdec(mk_wheel_max_speed); print("\n");
 2584               		.loc 1 441 5 view .LVU576
 441:../../tmk_core/common/command.c ****     print("5: wheel_max_speed: "); pdec(mk_wheel_max_speed); print("\n");
 2585               		.loc 1 441 5 view .LVU577
 2586               	.LBB392:
 2587               	.LBB366:
 2588               	.LBB342:
 2589               	.LBB323:
 2590 01d2 80E0      		ldi r24,lo8(__c.20)
 2591 01d4 90E0      		ldi r25,hi8(__c.20)
 2592 01d6 0E94 0000 		call xputs
 441:../../tmk_core/common/command.c ****     print("5: wheel_max_speed: "); pdec(mk_wheel_max_speed); print("\n");
 2593               		.loc 1 441 32 view .LVU578
 2594               	.LBE323:
 2595               	.LBE342:
 2596               	.LBE366:
 2597               	.LBE392:
 441:../../tmk_core/common/command.c ****     print("5: wheel_max_speed: "); pdec(mk_wheel_max_speed); print("\n");
 2598               		.loc 1 441 32 view .LVU579
 441:../../tmk_core/common/command.c ****     print("5: wheel_max_speed: "); pdec(mk_wheel_max_speed); print("\n");
 2599               		.loc 1 441 32 view .LVU580
 2600               	.LBB393:
 2601               	.LBB367:
 2602               	.LBB343:
 2603               	.LBB324:
 2604 01da 8091 0000 		lds r24,mk_time_to_max
 2605 01de 1F92      		push __zero_reg__
 2606               	.LCFI151:
 2607               		.cfi_def_cfa_offset 16
 2608 01e0 8F93      		push r24
 2609               	.LCFI152:
 2610               		.cfi_def_cfa_offset 17
 2611 01e2 80E0      		ldi r24,lo8(__c.19)
 2612 01e4 90E0      		ldi r25,hi8(__c.19)
 2613 01e6 9F93      		push r25
 2614               	.LCFI153:
 2615               		.cfi_def_cfa_offset 18
 2616 01e8 8F93      		push r24
 2617               	.LCFI154:
 2618               		.cfi_def_cfa_offset 19
 2619 01ea 0E94 0000 		call __xprintf
 441:../../tmk_core/common/command.c ****     print("5: wheel_max_speed: "); pdec(mk_wheel_max_speed); print("\n");
 2620               		.loc 1 441 54 view .LVU581
 2621               	.LBE324:
 2622               	.LBE343:
 2623               	.LBE367:
 2624               	.LBE393:
 441:../../tmk_core/common/command.c ****     print("5: wheel_max_speed: "); pdec(mk_wheel_max_speed); print("\n");
 2625               		.loc 1 441 54 view .LVU582
 441:../../tmk_core/common/command.c ****     print("5: wheel_max_speed: "); pdec(mk_wheel_max_speed); print("\n");
 2626               		.loc 1 441 54 view .LVU583
 2627               	.LBB394:
 2628               	.LBB368:
 2629               	.LBB344:
 2630               	.LBB325:
 2631 01ee 80E0      		ldi r24,lo8(__c.18)
 2632 01f0 90E0      		ldi r25,hi8(__c.18)
 2633 01f2 0E94 0000 		call xputs
 442:../../tmk_core/common/command.c ****     print("6: wheel_time_to_max: "); pdec(mk_wheel_time_to_max); print("\n");
 2634               		.loc 1 442 5 view .LVU584
 2635               	.LBE325:
 2636               	.LBE344:
 2637               	.LBE368:
 2638               	.LBE394:
 442:../../tmk_core/common/command.c ****     print("6: wheel_time_to_max: "); pdec(mk_wheel_time_to_max); print("\n");
 2639               		.loc 1 442 5 view .LVU585
 442:../../tmk_core/common/command.c ****     print("6: wheel_time_to_max: "); pdec(mk_wheel_time_to_max); print("\n");
 2640               		.loc 1 442 5 view .LVU586
 2641               	.LBB395:
 2642               	.LBB369:
 2643               	.LBB345:
 2644               	.LBB326:
 2645 01f6 80E0      		ldi r24,lo8(__c.17)
 2646 01f8 90E0      		ldi r25,hi8(__c.17)
 2647 01fa 0E94 0000 		call xputs
 442:../../tmk_core/common/command.c ****     print("6: wheel_time_to_max: "); pdec(mk_wheel_time_to_max); print("\n");
 2648               		.loc 1 442 36 view .LVU587
 2649               	.LBE326:
 2650               	.LBE345:
 2651               	.LBE369:
 2652               	.LBE395:
 442:../../tmk_core/common/command.c ****     print("6: wheel_time_to_max: "); pdec(mk_wheel_time_to_max); print("\n");
 2653               		.loc 1 442 36 view .LVU588
 442:../../tmk_core/common/command.c ****     print("6: wheel_time_to_max: "); pdec(mk_wheel_time_to_max); print("\n");
 2654               		.loc 1 442 36 view .LVU589
 2655               	.LBB396:
 2656               	.LBB370:
 2657               	.LBB346:
 2658               	.LBB327:
 2659 01fe 8091 0000 		lds r24,mk_wheel_max_speed
 2660 0202 1F92      		push __zero_reg__
 2661               	.LCFI155:
 2662               		.cfi_def_cfa_offset 20
 2663 0204 8F93      		push r24
 2664               	.LCFI156:
 2665               		.cfi_def_cfa_offset 21
 2666 0206 80E0      		ldi r24,lo8(__c.16)
 2667 0208 90E0      		ldi r25,hi8(__c.16)
 2668 020a 9F93      		push r25
 2669               	.LCFI157:
 2670               		.cfi_def_cfa_offset 22
 2671 020c 8F93      		push r24
 2672               	.LCFI158:
 2673               		.cfi_def_cfa_offset 23
 2674 020e 0E94 0000 		call __xprintf
 442:../../tmk_core/common/command.c ****     print("6: wheel_time_to_max: "); pdec(mk_wheel_time_to_max); print("\n");
 2675               		.loc 1 442 62 view .LVU590
 2676               	.LBE327:
 2677               	.LBE346:
 2678               	.LBE370:
 2679               	.LBE396:
 442:../../tmk_core/common/command.c ****     print("6: wheel_time_to_max: "); pdec(mk_wheel_time_to_max); print("\n");
 2680               		.loc 1 442 62 view .LVU591
 442:../../tmk_core/common/command.c ****     print("6: wheel_time_to_max: "); pdec(mk_wheel_time_to_max); print("\n");
 2681               		.loc 1 442 62 view .LVU592
 2682               	.LBB397:
 2683               	.LBB371:
 2684               	.LBB347:
 2685               	.LBB328:
 2686 0212 80E0      		ldi r24,lo8(__c.15)
 2687 0214 90E0      		ldi r25,hi8(__c.15)
 2688 0216 0E94 0000 		call xputs
 443:../../tmk_core/common/command.c **** }
 2689               		.loc 1 443 5 view .LVU593
 2690               	.LBE328:
 2691               	.LBE347:
 2692               	.LBE371:
 2693               	.LBE397:
 443:../../tmk_core/common/command.c **** }
 2694               		.loc 1 443 5 view .LVU594
 443:../../tmk_core/common/command.c **** }
 2695               		.loc 1 443 5 view .LVU595
 2696               	.LBB398:
 2697               	.LBB372:
 2698               	.LBB348:
 2699               	.LBB329:
 2700 021a 80E0      		ldi r24,lo8(__c.14)
 2701 021c 90E0      		ldi r25,hi8(__c.14)
 2702 021e 0E94 0000 		call xputs
 443:../../tmk_core/common/command.c **** }
 2703               		.loc 1 443 38 view .LVU596
 2704               	.LBE329:
 2705               	.LBE348:
 2706               	.LBE372:
 2707               	.LBE398:
 443:../../tmk_core/common/command.c **** }
 2708               		.loc 1 443 38 view .LVU597
 443:../../tmk_core/common/command.c **** }
 2709               		.loc 1 443 38 view .LVU598
 2710               	.LBB399:
 2711               	.LBB373:
 2712               	.LBB349:
 2713               	.LBB330:
 2714 0222 8091 0000 		lds r24,mk_wheel_time_to_max
 2715 0226 1F92      		push __zero_reg__
 2716               	.LCFI159:
 2717               		.cfi_def_cfa_offset 24
 2718 0228 8F93      		push r24
 2719               	.LCFI160:
 2720               		.cfi_def_cfa_offset 25
 2721 022a 80E0      		ldi r24,lo8(__c.13)
 2722 022c 90E0      		ldi r25,hi8(__c.13)
 2723 022e 9F93      		push r25
 2724               	.LCFI161:
 2725               		.cfi_def_cfa_offset 26
 2726 0230 8F93      		push r24
 2727               	.LCFI162:
 2728               		.cfi_def_cfa_offset 27
 2729 0232 0E94 0000 		call __xprintf
 443:../../tmk_core/common/command.c **** }
 2730               		.loc 1 443 66 view .LVU599
 2731               	.LBE330:
 2732               	.LBE349:
 2733               	.LBE373:
 2734               	.LBE399:
 443:../../tmk_core/common/command.c **** }
 2735               		.loc 1 443 66 view .LVU600
 443:../../tmk_core/common/command.c **** }
 2736               		.loc 1 443 66 view .LVU601
 2737               	.LBB400:
 2738               	.LBB374:
 2739               	.LBB350:
 2740               	.LBB331:
 2741 0236 80E0      		ldi r24,lo8(__c.12)
 2742 0238 90E0      		ldi r25,hi8(__c.12)
 2743 023a 0E94 0000 		call xputs
 444:../../tmk_core/common/command.c **** 
 2744               		.loc 1 444 1 is_stmt 0 view .LVU602
 2745 023e 8DB7      		in r24,__SP_L__
 2746 0240 9EB7      		in r25,__SP_H__
 2747 0242 4896      		adiw r24,24
 2748 0244 0FB6      		in __tmp_reg__,__SREG__
 2749 0246 F894      		cli
 2750 0248 9EBF      		out __SP_H__,r25
 2751 024a 0FBE      		out __SREG__,__tmp_reg__
 2752 024c 8DBF      		out __SP_L__,r24
 2753               	.LCFI163:
 2754               		.cfi_def_cfa_offset 3
 2755 024e 00C0      		rjmp .L107
 2756               	.L111:
 2757               	.LBE331:
 2758               	.LBE350:
 599:../../tmk_core/common/command.c ****             break;
 2759               		.loc 1 599 13 is_stmt 1 view .LVU603
 2760 0250 61E0      		ldi r22,lo8(1)
 2761               	.L142:
 605:../../tmk_core/common/command.c ****             break;
 2762               		.loc 1 605 13 is_stmt 0 view .LVU604
 2763 0252 8091 0000 		lds r24,mousekey_param
 2764 0256 0E94 0000 		call mousekey_param_dec
 606:../../tmk_core/common/command.c ****         case KC_D:
 2765               		.loc 1 606 13 is_stmt 1 view .LVU605
 2766 025a 00C0      		rjmp .L107
 2767               	.L108:
 605:../../tmk_core/common/command.c ****             break;
 2768               		.loc 1 605 13 view .LVU606
 2769 025c 6AE0      		ldi r22,lo8(10)
 2770 025e 00C0      		rjmp .L142
 2771               	.L104:
 608:../../tmk_core/common/command.c ****             mk_interval = MOUSEKEY_INTERVAL;
 2772               		.loc 1 608 13 view .LVU607
 608:../../tmk_core/common/command.c ****             mk_interval = MOUSEKEY_INTERVAL;
 2773               		.loc 1 608 22 is_stmt 0 view .LVU608
 2774 0260 8EE1      		ldi r24,lo8(30)
 2775 0262 8093 0000 		sts mk_delay,r24
 609:../../tmk_core/common/command.c ****             mk_max_speed = MOUSEKEY_MAX_SPEED;
 2776               		.loc 1 609 13 is_stmt 1 view .LVU609
 609:../../tmk_core/common/command.c ****             mk_max_speed = MOUSEKEY_MAX_SPEED;
 2777               		.loc 1 609 25 is_stmt 0 view .LVU610
 2778 0266 82E3      		ldi r24,lo8(50)
 2779 0268 8093 0000 		sts mk_interval,r24
 610:../../tmk_core/common/command.c ****             mk_time_to_max = MOUSEKEY_TIME_TO_MAX;
 2780               		.loc 1 610 13 is_stmt 1 view .LVU611
 610:../../tmk_core/common/command.c ****             mk_time_to_max = MOUSEKEY_TIME_TO_MAX;
 2781               		.loc 1 610 26 is_stmt 0 view .LVU612
 2782 026c 8AE0      		ldi r24,lo8(10)
 2783 026e 8093 0000 		sts mk_max_speed,r24
 611:../../tmk_core/common/command.c ****             mk_wheel_max_speed = MOUSEKEY_WHEEL_MAX_SPEED;
 2784               		.loc 1 611 13 is_stmt 1 view .LVU613
 611:../../tmk_core/common/command.c ****             mk_wheel_max_speed = MOUSEKEY_WHEEL_MAX_SPEED;
 2785               		.loc 1 611 28 is_stmt 0 view .LVU614
 2786 0272 84E1      		ldi r24,lo8(20)
 2787 0274 8093 0000 		sts mk_time_to_max,r24
 612:../../tmk_core/common/command.c ****             mk_wheel_time_to_max = MOUSEKEY_WHEEL_TIME_TO_MAX;
 2788               		.loc 1 612 13 is_stmt 1 view .LVU615
 612:../../tmk_core/common/command.c ****             mk_wheel_time_to_max = MOUSEKEY_WHEEL_TIME_TO_MAX;
 2789               		.loc 1 612 32 is_stmt 0 view .LVU616
 2790 0278 88E0      		ldi r24,lo8(8)
 2791 027a 8093 0000 		sts mk_wheel_max_speed,r24
 613:../../tmk_core/common/command.c ****             print("set default\n");
 2792               		.loc 1 613 13 is_stmt 1 view .LVU617
 613:../../tmk_core/common/command.c ****             print("set default\n");
 2793               		.loc 1 613 34 is_stmt 0 view .LVU618
 2794 027e 88E2      		ldi r24,lo8(40)
 2795 0280 8093 0000 		sts mk_wheel_time_to_max,r24
 614:../../tmk_core/common/command.c ****             break;
 2796               		.loc 1 614 13 is_stmt 1 view .LVU619
 2797               	.LBE374:
 2798               	.LBE400:
 614:../../tmk_core/common/command.c ****             break;
 2799               		.loc 1 614 13 view .LVU620
 614:../../tmk_core/common/command.c ****             break;
 2800               		.loc 1 614 13 view .LVU621
 2801               	.LBB401:
 2802               	.LBB375:
 2803 0284 80E0      		ldi r24,lo8(__c.34)
 2804 0286 90E0      		ldi r25,hi8(__c.34)
 2805 0288 0E94 0000 		call xputs
 615:../../tmk_core/common/command.c ****         default:
 2806               		.loc 1 615 13 view .LVU622
 2807 028c 00C0      		rjmp .L107
 2808               	.L114:
 623:../../tmk_core/common/command.c ****     }
 2809               		.loc 1 623 9 view .LVU623
 2810               	.LBE375:
 2811               	.LBE401:
 623:../../tmk_core/common/command.c ****     }
 2812               		.loc 1 623 9 view .LVU624
 623:../../tmk_core/common/command.c ****     }
 2813               		.loc 1 623 9 view .LVU625
 2814               	.LBB402:
 2815               	.LBB376:
 2816 028e 80E0      		ldi r24,lo8(__c.31)
 2817 0290 90E0      		ldi r25,hi8(__c.31)
 2818 0292 00C0      		rjmp .L144
 2819               	.L89:
 2820               	.LBE376:
 2821               	.LBE402:
  90:../../tmk_core/common/command.c ****             return false;
 2822               		.loc 1 90 13 view .LVU626
  90:../../tmk_core/common/command.c ****             return false;
 2823               		.loc 1 90 27 is_stmt 0 view .LVU627
 2824 0294 1092 0000 		sts command_state,__zero_reg__
  91:../../tmk_core/common/command.c ****     }
 2825               		.loc 1 91 13 is_stmt 1 view .LVU628
 2826               	.L115:
  75:../../tmk_core/common/command.c ****             return (command_extra(code) || command_common(code));
 2827               		.loc 1 75 24 is_stmt 0 view .LVU629
 2828 0298 80E0      		ldi r24,0
 2829 029a 00C0      		rjmp .L86
 2830               		.cfi_endproc
 2831               	.LFE10:
 2833               		.section	.rodata.CSWTCH.59,"a"
 2836               	CSWTCH.59:
 2837 0000 01        		.byte	1
 2838 0001 02        		.byte	2
 2839 0002 03        		.byte	3
 2840 0003 04        		.byte	4
 2841 0004 05        		.byte	5
 2842 0005 06        		.byte	6
 2843 0006 07        		.byte	7
 2844 0007 08        		.byte	8
 2845 0008 09        		.byte	9
 2846 0009 00        		.byte	0
 2847               		.section	.progmem.data.__c.0,"a"
 2850               	__c.0:
 2851 0000 6D6B 5F77 		.string	"mk_wheel_time_to_max = %d\n"
 2851      6865 656C 
 2851      5F74 696D 
 2851      655F 746F 
 2851      5F6D 6178 
 2852               		.section	.progmem.data.__c.1,"a"
 2855               	__c.1:
 2856 0000 6D6B 5F77 		.string	"mk_wheel_max_speed = %d\n"
 2856      6865 656C 
 2856      5F6D 6178 
 2856      5F73 7065 
 2856      6564 203D 
 2857               		.section	.progmem.data.__c.2,"a"
 2860               	__c.2:
 2861 0000 6D6B 5F74 		.string	"mk_time_to_max = %d\n"
 2861      696D 655F 
 2861      746F 5F6D 
 2861      6178 203D 
 2861      2025 640A 
 2862               		.section	.progmem.data.__c.3,"a"
 2865               	__c.3:
 2866 0000 6D6B 5F6D 		.string	"mk_max_speed = %d\n"
 2866      6178 5F73 
 2866      7065 6564 
 2866      203D 2025 
 2866      640A 00
 2867               		.section	.progmem.data.__c.4,"a"
 2870               	__c.4:
 2871 0000 6D6B 5F69 		.string	"mk_interval = %d\n"
 2871      6E74 6572 
 2871      7661 6C20 
 2871      3D20 2564 
 2871      0A00 
 2872               		.section	.progmem.data.__c.5,"a"
 2875               	__c.5:
 2876 0000 6D6B 5F64 		.string	"mk_delay = %d\n"
 2876      656C 6179 
 2876      203D 2025 
 2876      640A 00
 2877               		.section	.progmem.data.__c.6,"a"
 2880               	__c.6:
 2881 0000 6D6B 5F77 		.string	"mk_wheel_time_to_max = %d\n"
 2881      6865 656C 
 2881      5F74 696D 
 2881      655F 746F 
 2881      5F6D 6178 
 2882               		.section	.progmem.data.__c.7,"a"
 2885               	__c.7:
 2886 0000 6D6B 5F77 		.string	"mk_wheel_max_speed = %d\n"
 2886      6865 656C 
 2886      5F6D 6178 
 2886      5F73 7065 
 2886      6564 203D 
 2887               		.section	.progmem.data.__c.8,"a"
 2890               	__c.8:
 2891 0000 6D6B 5F74 		.string	"mk_time_to_max = %d\n"
 2891      696D 655F 
 2891      746F 5F6D 
 2891      6178 203D 
 2891      2025 640A 
 2892               		.section	.progmem.data.__c.9,"a"
 2895               	__c.9:
 2896 0000 6D6B 5F6D 		.string	"mk_max_speed = %d\n"
 2896      6178 5F73 
 2896      7065 6564 
 2896      203D 2025 
 2896      640A 00
 2897               		.section	.progmem.data.__c.10,"a"
 2900               	__c.10:
 2901 0000 6D6B 5F69 		.string	"mk_interval = %d\n"
 2901      6E74 6572 
 2901      7661 6C20 
 2901      3D20 2564 
 2901      0A00 
 2902               		.section	.progmem.data.__c.11,"a"
 2905               	__c.11:
 2906 0000 6D6B 5F64 		.string	"mk_delay = %d\n"
 2906      656C 6179 
 2906      203D 2025 
 2906      640A 00
 2907               		.section	.progmem.data.__c.12,"a"
 2910               	__c.12:
 2911 0000 0A00      		.string	"\n"
 2912               		.section	.progmem.data.__c.13,"a"
 2915               	__c.13:
 2916 0000 2575 00   		.string	"%u"
 2917               		.section	.progmem.data.__c.14,"a"
 2920               	__c.14:
 2921 0000 363A 2077 		.string	"6: wheel_time_to_max: "
 2921      6865 656C 
 2921      5F74 696D 
 2921      655F 746F 
 2921      5F6D 6178 
 2922               		.section	.progmem.data.__c.15,"a"
 2925               	__c.15:
 2926 0000 0A00      		.string	"\n"
 2927               		.section	.progmem.data.__c.16,"a"
 2930               	__c.16:
 2931 0000 2575 00   		.string	"%u"
 2932               		.section	.progmem.data.__c.17,"a"
 2935               	__c.17:
 2936 0000 353A 2077 		.string	"5: wheel_max_speed: "
 2936      6865 656C 
 2936      5F6D 6178 
 2936      5F73 7065 
 2936      6564 3A20 
 2937               		.section	.progmem.data.__c.18,"a"
 2940               	__c.18:
 2941 0000 0A00      		.string	"\n"
 2942               		.section	.progmem.data.__c.19,"a"
 2945               	__c.19:
 2946 0000 2575 00   		.string	"%u"
 2947               		.section	.progmem.data.__c.20,"a"
 2950               	__c.20:
 2951 0000 343A 2074 		.string	"4: time_to_max: "
 2951      696D 655F 
 2951      746F 5F6D 
 2951      6178 3A20 
 2951      00
 2952               		.section	.progmem.data.__c.21,"a"
 2955               	__c.21:
 2956 0000 0A00      		.string	"\n"
 2957               		.section	.progmem.data.__c.22,"a"
 2960               	__c.22:
 2961 0000 2575 00   		.string	"%u"
 2962               		.section	.progmem.data.__c.23,"a"
 2965               	__c.23:
 2966 0000 333A 206D 		.string	"3: max_speed: "
 2966      6178 5F73 
 2966      7065 6564 
 2966      3A20 00
 2967               		.section	.progmem.data.__c.24,"a"
 2970               	__c.24:
 2971 0000 0A00      		.string	"\n"
 2972               		.section	.progmem.data.__c.25,"a"
 2975               	__c.25:
 2976 0000 2575 00   		.string	"%u"
 2977               		.section	.progmem.data.__c.26,"a"
 2980               	__c.26:
 2981 0000 323A 2069 		.string	"2: interval(ms): "
 2981      6E74 6572 
 2981      7661 6C28 
 2981      6D73 293A 
 2981      2000 
 2982               		.section	.progmem.data.__c.27,"a"
 2985               	__c.27:
 2986 0000 0A00      		.string	"\n"
 2987               		.section	.progmem.data.__c.28,"a"
 2990               	__c.28:
 2991 0000 2575 00   		.string	"%u"
 2992               		.section	.progmem.data.__c.29,"a"
 2995               	__c.29:
 2996 0000 313A 2064 		.string	"1: delay(*10ms): "
 2996      656C 6179 
 2996      282A 3130 
 2996      6D73 293A 
 2996      2000 
 2997               		.section	.progmem.data.__c.30,"a"
 3000               	__c.30:
 3001 0000 0A09 2D20 		.string	"\n\t- Values -\n"
 3001      5661 6C75 
 3001      6573 202D 
 3001      0A00 
 3002               		.section	.progmem.data.__c.31,"a"
 3005               	__c.31:
 3006 0000 4D3E 00   		.string	"M>"
 3007               		.section	.progmem.data.__c.32,"a"
 3010               	__c.32:
 3011 0000 4D25 643E 		.string	"M%d> "
 3011      2000 
 3012               		.section	.progmem.data.__c.33,"a"
 3015               	__c.33:
 3016 0000 3F00      		.string	"?"
 3017               		.section	.progmem.data.__c.34,"a"
 3020               	__c.34:
 3021 0000 7365 7420 		.string	"set default\n"
 3021      6465 6661 
 3021      756C 740A 
 3021      00
 3022               		.section	.progmem.data.__c.35,"a"
 3025               	__c.35:
 3026 0000 433E 2000 		.string	"C> "
 3027               		.section	.progmem.data.__c.36,"a"
 3030               	__c.36:
 3031 0000 7768 6572 		.string	"where delta: cursor=%d, wheel=%d\nSee http://en.wikipedia.org/wiki/Mouse_keys\n"
 3031      6520 6465 
 3031      6C74 613A 
 3031      2063 7572 
 3031      736F 723D 
 3032               		.section	.progmem.data.__c.37,"a"
 3035               	__c.37:
 3036 0000 0A09 2D20 		.string	"\n\t- Mousekey -\nESC/q:\tquit\n1:\tdelay(*10ms)\n2:\tinterval(ms)\n3:\tmax_speed\n4:\tti
 3036      4D6F 7573 
 3036      656B 6579 
 3036      202D 0A45 
 3036      5343 2F71 
 3037               		.section	.progmem.data.__c.38,"a"
 3040               	__c.38:
 3041 0000 3F00      		.string	"?"
 3042               		.section	.progmem.data.__c.39,"a"
 3045               	__c.39:
 3046 0000 4D3E 2000 		.string	"M> "
 3047               		.section	.progmem.data.__c.40,"a"
 3050               	__c.40:
 3051 0000 433E 2000 		.string	"C> "
 3052               		.section	.progmem.data.__c.41,"a"
 3055               	__c.41:
 3056 0000 4C25 640A 		.string	"L%d\n"
 3056      00
 3057               		.section	.progmem.data.__c.42,"a"
 3060               	__c.42:
 3061 0000 0A09 2D20 		.string	"\n\t- Console -\nESC/q:\tquit\nm:\tmousekey\n"
 3061      436F 6E73 
 3061      6F6C 6520 
 3061      2D0A 4553 
 3061      432F 713A 
 3062               		.section	.progmem.data.__c.43,"a"
 3065               	__c.43:
 3066 0000 0A09 2D20 		.string	"\n\t- Magic -\nd:\tdebug\nx:\tdebug matrix\nk:\tdebug keyboard\nm:\tdebug mouse\nv:\tvers
 3066      4D61 6769 
 3066      6320 2D0A 
 3066      643A 0964 
 3066      6562 7567 
 3067               		.section	.progmem.data.__c.44,"a"
 3070               	__c.44:
 3071 0000 0A00      		.string	"\n"
 3072               		.section	.progmem.data.__c.45,"a"
 3075               	__c.45:
 3076 0000 2575 00   		.string	"%u"
 3077               		.section	.progmem.data.__c.46,"a"
 3080               	__c.46:
 3081 0000 2E6E 6B72 		.string	".nkro: "
 3081      6F3A 2000 
 3082               		.section	.progmem.data.__c.47,"a"
 3085               	__c.47:
 3086 0000 0A00      		.string	"\n"
 3087               		.section	.progmem.data.__c.48,"a"
 3090               	__c.48:
 3091 0000 2575 00   		.string	"%u"
 3092               		.section	.progmem.data.__c.49,"a"
 3095               	__c.49:
 3096 0000 2E73 7761 		.string	".swap_backslash_backspace: "
 3096      705F 6261 
 3096      636B 736C 
 3096      6173 685F 
 3096      6261 636B 
 3097               		.section	.progmem.data.__c.50,"a"
 3100               	__c.50:
 3101 0000 0A00      		.string	"\n"
 3102               		.section	.progmem.data.__c.51,"a"
 3105               	__c.51:
 3106 0000 2575 00   		.string	"%u"
 3107               		.section	.progmem.data.__c.52,"a"
 3110               	__c.52:
 3111 0000 2E73 7761 		.string	".swap_grave_esc: "
 3111      705F 6772 
 3111      6176 655F 
 3111      6573 633A 
 3111      2000 
 3112               		.section	.progmem.data.__c.53,"a"
 3115               	__c.53:
 3116 0000 0A00      		.string	"\n"
 3117               		.section	.progmem.data.__c.54,"a"
 3120               	__c.54:
 3121 0000 2575 00   		.string	"%u"
 3122               		.section	.progmem.data.__c.55,"a"
 3125               	__c.55:
 3126 0000 2E6E 6F5F 		.string	".no_gui: "
 3126      6775 693A 
 3126      2000 
 3127               		.section	.progmem.data.__c.56,"a"
 3130               	__c.56:
 3131 0000 0A00      		.string	"\n"
 3132               		.section	.progmem.data.__c.57,"a"
 3135               	__c.57:
 3136 0000 2575 00   		.string	"%u"
 3137               		.section	.progmem.data.__c.58,"a"
 3140               	__c.58:
 3141 0000 2E73 7761 		.string	".swap_ralt_rgui: "
 3141      705F 7261 
 3141      6C74 5F72 
 3141      6775 693A 
 3141      2000 
 3142               		.section	.progmem.data.__c.59,"a"
 3145               	__c.59:
 3146 0000 0A00      		.string	"\n"
 3147               		.section	.progmem.data.__c.60,"a"
 3150               	__c.60:
 3151 0000 2575 00   		.string	"%u"
 3152               		.section	.progmem.data.__c.61,"a"
 3155               	__c.61:
 3156 0000 2E73 7761 		.string	".swap_lalt_lgui: "
 3156      705F 6C61 
 3156      6C74 5F6C 
 3156      6775 693A 
 3156      2000 
 3157               		.section	.progmem.data.__c.62,"a"
 3160               	__c.62:
 3161 0000 0A00      		.string	"\n"
 3162               		.section	.progmem.data.__c.63,"a"
 3165               	__c.63:
 3166 0000 2575 00   		.string	"%u"
 3167               		.section	.progmem.data.__c.64,"a"
 3170               	__c.64:
 3171 0000 2E63 6170 		.string	".capslock_to_control: "
 3171      736C 6F63 
 3171      6B5F 746F 
 3171      5F63 6F6E 
 3171      7472 6F6C 
 3172               		.section	.progmem.data.__c.65,"a"
 3175               	__c.65:
 3176 0000 0A00      		.string	"\n"
 3177               		.section	.progmem.data.__c.66,"a"
 3180               	__c.66:
 3181 0000 2575 00   		.string	"%u"
 3182               		.section	.progmem.data.__c.67,"a"
 3185               	__c.67:
 3186 0000 2E73 7761 		.string	".swap_control_capslock: "
 3186      705F 636F 
 3186      6E74 726F 
 3186      6C5F 6361 
 3186      7073 6C6F 
 3187               		.section	.progmem.data.__c.68,"a"
 3190               	__c.68:
 3191 0000 0A00      		.string	"\n"
 3192               		.section	.progmem.data.__c.69,"a"
 3195               	__c.69:
 3196 0000 2530 3258 		.string	"%02X"
 3196      00
 3197               		.section	.progmem.data.__c.70,"a"
 3200               	__c.70:
 3201 0000 6B65 796D 		.string	"keymap_config.raw: "
 3201      6170 5F63 
 3201      6F6E 6669 
 3201      672E 7261 
 3201      773A 2000 
 3202               		.section	.progmem.data.__c.71,"a"
 3205               	__c.71:
 3206 0000 0A00      		.string	"\n"
 3207               		.section	.progmem.data.__c.72,"a"
 3210               	__c.72:
 3211 0000 2575 00   		.string	"%u"
 3212               		.section	.progmem.data.__c.73,"a"
 3215               	__c.73:
 3216 0000 2E6D 6F75 		.string	".mouse: "
 3216      7365 3A20 
 3216      00
 3217               		.section	.progmem.data.__c.74,"a"
 3220               	__c.74:
 3221 0000 0A00      		.string	"\n"
 3222               		.section	.progmem.data.__c.75,"a"
 3225               	__c.75:
 3226 0000 2575 00   		.string	"%u"
 3227               		.section	.progmem.data.__c.76,"a"
 3230               	__c.76:
 3231 0000 2E6B 6579 		.string	".keyboard: "
 3231      626F 6172 
 3231      643A 2000 
 3232               		.section	.progmem.data.__c.77,"a"
 3235               	__c.77:
 3236 0000 0A00      		.string	"\n"
 3237               		.section	.progmem.data.__c.78,"a"
 3240               	__c.78:
 3241 0000 2575 00   		.string	"%u"
 3242               		.section	.progmem.data.__c.79,"a"
 3245               	__c.79:
 3246 0000 2E6D 6174 		.string	".matrix: "
 3246      7269 783A 
 3246      2000 
 3247               		.section	.progmem.data.__c.80,"a"
 3250               	__c.80:
 3251 0000 0A00      		.string	"\n"
 3252               		.section	.progmem.data.__c.81,"a"
 3255               	__c.81:
 3256 0000 2575 00   		.string	"%u"
 3257               		.section	.progmem.data.__c.82,"a"
 3260               	__c.82:
 3261 0000 2E65 6E61 		.string	".enable: "
 3261      626C 653A 
 3261      2000 
 3262               		.section	.progmem.data.__c.83,"a"
 3265               	__c.83:
 3266 0000 0A00      		.string	"\n"
 3267               		.section	.progmem.data.__c.84,"a"
 3270               	__c.84:
 3271 0000 2530 3258 		.string	"%02X"
 3271      00
 3272               		.section	.progmem.data.__c.85,"a"
 3275               	__c.85:
 3276 0000 6465 6275 		.string	"debug_config.raw: "
 3276      675F 636F 
 3276      6E66 6967 
 3276      2E72 6177 
 3276      3A20 00
 3277               		.section	.progmem.data.__c.86,"a"
 3280               	__c.86:
 3281 0000 0A00      		.string	"\n"
 3282               		.section	.progmem.data.__c.87,"a"
 3285               	__c.87:
 3286 0000 2575 00   		.string	"%u"
 3287               		.section	.progmem.data.__c.88,"a"
 3290               	__c.88:
 3291 0000 6465 6661 		.string	"default_layer: "
 3291      756C 745F 
 3291      6C61 7965 
 3291      723A 2000 
 3292               		.section	.progmem.data.__c.89,"a"
 3295               	__c.89:
 3296 0000 3F00      		.string	"?"
 3297               		.section	.progmem.data.__c.90,"a"
 3300               	__c.90:
 3301 0000 7469 6D65 		.string	"timer_read32(): %04lX\n"
 3301      725F 7265 
 3301      6164 3332 
 3301      2829 3A20 
 3301      2530 346C 
 3302               		.section	.progmem.data.__c.91,"a"
 3305               	__c.91:
 3306 0000 6B65 7962 		.string	"keyboard_idle: %X\n"
 3306      6F61 7264 
 3306      5F69 646C 
 3306      653A 2025 
 3306      580A 00
 3307               		.section	.progmem.data.__c.92,"a"
 3310               	__c.92:
 3311 0000 6B65 7962 		.string	"keyboard_protocol: %X\n"
 3311      6F61 7264 
 3311      5F70 726F 
 3311      746F 636F 
 3311      6C3A 2025 
 3312               		.section	.progmem.data.__c.93,"a"
 3315               	__c.93:
 3316 0000 686F 7374 		.string	"host_keyboard_leds(): %X\n"
 3316      5F6B 6579 
 3316      626F 6172 
 3316      645F 6C65 
 3316      6473 2829 
 3317               		.section	.progmem.data.__c.94,"a"
 3320               	__c.94:
 3321 0000 0A09 2D20 		.string	"\n\t- Status -\n"
 3321      5374 6174 
 3321      7573 202D 
 3321      0A00 
 3322               		.section	.progmem.data.__c.95,"a"
 3325               	__c.95:
 3326 0000 4743 433A 		.string	"GCC: 10.2.0 AVR-LIBC: 2.0.0 AVR_ARCH: avr35\n"
 3326      2031 302E 
 3326      322E 3020 
 3326      4156 522D 
 3326      4C49 4243 
 3327               		.section	.progmem.data.__c.96,"a"
 3330               	__c.96:
 3331 0000 4F50 5449 		.string	"OPTIONS: LUFA BOOTMAGIC MOUSEKEY EXTRAKEY CONSOLE COMMAND 4096\n"
 3331      4F4E 533A 
 3331      204C 5546 
 3331      4120 424F 
 3331      4F54 4D41 
 3332               		.section	.progmem.data.__c.97,"a"
 3335               	__c.97:
 3336 0000 4255 494C 		.string	"BUILD: 8f86d125 (23:29:39 Nov 10 2020)\n"
 3336      443A 2038 
 3336      6638 3664 
 3336      3132 3520 
 3336      2832 333A 
 3337               		.section	.progmem.data.__c.98,"a"
 3340               	__c.98:
 3341 0000 5649 443A 		.string	"VID: 0xFEED(t.m.k.) PID: 0x5021(SONY NEWS keyboard converter) VER: 0x0001\n"
 3341      2030 7846 
 3341      4545 4428 
 3341      742E 6D2E 
 3341      6B2E 2920 
 3342               		.section	.progmem.data.__c.99,"a"
 3345               	__c.99:
 3346 0000 4445 5343 		.string	"DESC: converts SONY NEWS protocol into USB\n"
 3346      3A20 636F 
 3346      6E76 6572 
 3346      7473 2053 
 3346      4F4E 5920 
 3347               		.section	.progmem.data.__c.100,"a"
 3350               	__c.100:
 3351 0000 0A09 2D20 		.string	"\n\t- Version -\n"
 3351      5665 7273 
 3351      696F 6E20 
 3351      2D0A 00
 3352               		.section	.progmem.data.__c.101,"a"
 3355               	__c.101:
 3356 0000 0A6D 6F75 		.string	"\nmouse: off\n"
 3356      7365 3A20 
 3356      6F66 660A 
 3356      00
 3357               		.section	.progmem.data.__c.102,"a"
 3360               	__c.102:
 3361 0000 0A6D 6F75 		.string	"\nmouse: on\n"
 3361      7365 3A20 
 3361      6F6E 0A00 
 3362               		.section	.progmem.data.__c.103,"a"
 3365               	__c.103:
 3366 0000 0A6B 6579 		.string	"\nkeyboard: off\n"
 3366      626F 6172 
 3366      643A 206F 
 3366      6666 0A00 
 3367               		.section	.progmem.data.__c.104,"a"
 3370               	__c.104:
 3371 0000 0A6B 6579 		.string	"\nkeyboard: on\n"
 3371      626F 6172 
 3371      643A 206F 
 3371      6E0A 00
 3372               		.section	.progmem.data.__c.105,"a"
 3375               	__c.105:
 3376 0000 0A6D 6174 		.string	"\nmatrix: off\n"
 3376      7269 783A 
 3376      206F 6666 
 3376      0A00 
 3377               		.section	.progmem.data.__c.106,"a"
 3380               	__c.106:
 3381 0000 0A6D 6174 		.string	"\nmatrix: on\n"
 3381      7269 783A 
 3381      206F 6E0A 
 3381      00
 3382               		.section	.progmem.data.__c.107,"a"
 3385               	__c.107:
 3386 0000 0A64 6562 		.string	"\ndebug: on\n"
 3386      7567 3A20 
 3386      6F6E 0A00 
 3387               		.section	.progmem.data.__c.108,"a"
 3390               	__c.108:
 3391 0000 0A64 6562 		.string	"\ndebug: off\n"
 3391      7567 3A20 
 3391      6F66 660A 
 3391      00
 3392               		.section	.progmem.data.__c.109,"a"
 3395               	__c.109:
 3396 0000 0A0A 626F 		.string	"\n\nbootloader... "
 3396      6F74 6C6F 
 3396      6164 6572 
 3396      2E2E 2E20 
 3396      00
 3397               		.section	.progmem.data.__c.110,"a"
 3400               	__c.110:
 3401 0000 433E 2000 		.string	"C> "
 3402               		.section	.progmem.data.__c.111,"a"
 3405               	__c.111:
 3406 0000 6565 636F 		.string	"eeconfig:\n"
 3406      6E66 6967 
 3406      3A0A 00
 3407               		.section	.bss.mousekey_param,"aw",@nobits
 3410               	mousekey_param:
 3411 0000 00        		.zero	1
 3412               	.global	command_state
 3413               		.section	.bss.command_state,"aw",@nobits
 3416               	command_state:
 3417 0000 00        		.zero	1
 3418               		.text
 3419               	.Letext0:
 3420               		.file 3 "/usr/avr/include/stdint.h"
 3421               		.file 4 "../../tmk_core/common/report.h"
 3422               		.file 5 "../../tmk_core/common/host.h"
 3423               		.file 6 "../../tmk_core/common/keymap.h"
 3424               		.file 7 "../../tmk_core/common/debug.h"
 3425               		.file 8 "../../tmk_core/common/action_util.h"
 3426               		.file 9 "../../tmk_core/common/command.h"
 3427               		.file 10 "../../tmk_core/common/mousekey.h"
 3428               		.file 11 "../../tmk_core/common/avr/xprintf.h"
 3429               		.file 12 "../../tmk_core/common/action_layer.h"
 3430               		.file 13 "../../tmk_core/common/action.h"
 3431               		.file 14 "../../tmk_core/common/keycode.h"