   1               		.file	"HIDParser.c"
   2               	__SP_H__ = 0x3e
   3               	__SP_L__ = 0x3d
   4               	__SREG__ = 0x3f
   5               	__tmp_reg__ = 0
   6               	__zero_reg__ = 1
   7               		.text
   8               	.Ltext0:
   9               		.cfi_sections	.debug_frame
  10               		.section	.text.USB_ProcessHIDReport,"ax",@progbits
  11               	.global	USB_ProcessHIDReport
  13               	USB_ProcessHIDReport:
  14               	.LVL0:
  15               	.LFB16:
  16               		.file 1 "./tmk_core/protocol/lufa/LUFA-git/LUFA/Drivers/USB/Class/Common/HIDParser.c"
   1:./tmk_core/protocol/lufa/LUFA-git/LUFA/Drivers/USB/Class/Common/HIDParser.c **** /*
   2:./tmk_core/protocol/lufa/LUFA-git/LUFA/Drivers/USB/Class/Common/HIDParser.c ****              LUFA Library
   3:./tmk_core/protocol/lufa/LUFA-git/LUFA/Drivers/USB/Class/Common/HIDParser.c ****      Copyright (C) Dean Camera, 2014.
   4:./tmk_core/protocol/lufa/LUFA-git/LUFA/Drivers/USB/Class/Common/HIDParser.c **** 
   5:./tmk_core/protocol/lufa/LUFA-git/LUFA/Drivers/USB/Class/Common/HIDParser.c ****   dean [at] fourwalledcubicle [dot] com
   6:./tmk_core/protocol/lufa/LUFA-git/LUFA/Drivers/USB/Class/Common/HIDParser.c ****            www.lufa-lib.org
   7:./tmk_core/protocol/lufa/LUFA-git/LUFA/Drivers/USB/Class/Common/HIDParser.c **** */
   8:./tmk_core/protocol/lufa/LUFA-git/LUFA/Drivers/USB/Class/Common/HIDParser.c **** 
   9:./tmk_core/protocol/lufa/LUFA-git/LUFA/Drivers/USB/Class/Common/HIDParser.c **** /*
  10:./tmk_core/protocol/lufa/LUFA-git/LUFA/Drivers/USB/Class/Common/HIDParser.c ****   Copyright 2014  Dean Camera (dean [at] fourwalledcubicle [dot] com)
  11:./tmk_core/protocol/lufa/LUFA-git/LUFA/Drivers/USB/Class/Common/HIDParser.c **** 
  12:./tmk_core/protocol/lufa/LUFA-git/LUFA/Drivers/USB/Class/Common/HIDParser.c ****   Permission to use, copy, modify, distribute, and sell this
  13:./tmk_core/protocol/lufa/LUFA-git/LUFA/Drivers/USB/Class/Common/HIDParser.c ****   software and its documentation for any purpose is hereby granted
  14:./tmk_core/protocol/lufa/LUFA-git/LUFA/Drivers/USB/Class/Common/HIDParser.c ****   without fee, provided that the above copyright notice appear in
  15:./tmk_core/protocol/lufa/LUFA-git/LUFA/Drivers/USB/Class/Common/HIDParser.c ****   all copies and that both that the copyright notice and this
  16:./tmk_core/protocol/lufa/LUFA-git/LUFA/Drivers/USB/Class/Common/HIDParser.c ****   permission notice and warranty disclaimer appear in supporting
  17:./tmk_core/protocol/lufa/LUFA-git/LUFA/Drivers/USB/Class/Common/HIDParser.c ****   documentation, and that the name of the author not be used in
  18:./tmk_core/protocol/lufa/LUFA-git/LUFA/Drivers/USB/Class/Common/HIDParser.c ****   advertising or publicity pertaining to distribution of the
  19:./tmk_core/protocol/lufa/LUFA-git/LUFA/Drivers/USB/Class/Common/HIDParser.c ****   software without specific, written prior permission.
  20:./tmk_core/protocol/lufa/LUFA-git/LUFA/Drivers/USB/Class/Common/HIDParser.c **** 
  21:./tmk_core/protocol/lufa/LUFA-git/LUFA/Drivers/USB/Class/Common/HIDParser.c ****   The author disclaims all warranties with regard to this
  22:./tmk_core/protocol/lufa/LUFA-git/LUFA/Drivers/USB/Class/Common/HIDParser.c ****   software, including all implied warranties of merchantability
  23:./tmk_core/protocol/lufa/LUFA-git/LUFA/Drivers/USB/Class/Common/HIDParser.c ****   and fitness.  In no event shall the author be liable for any
  24:./tmk_core/protocol/lufa/LUFA-git/LUFA/Drivers/USB/Class/Common/HIDParser.c ****   special, indirect or consequential damages or any damages
  25:./tmk_core/protocol/lufa/LUFA-git/LUFA/Drivers/USB/Class/Common/HIDParser.c ****   whatsoever resulting from loss of use, data or profits, whether
  26:./tmk_core/protocol/lufa/LUFA-git/LUFA/Drivers/USB/Class/Common/HIDParser.c ****   in an action of contract, negligence or other tortious action,
  27:./tmk_core/protocol/lufa/LUFA-git/LUFA/Drivers/USB/Class/Common/HIDParser.c ****   arising out of or in connection with the use or performance of
  28:./tmk_core/protocol/lufa/LUFA-git/LUFA/Drivers/USB/Class/Common/HIDParser.c ****   this software.
  29:./tmk_core/protocol/lufa/LUFA-git/LUFA/Drivers/USB/Class/Common/HIDParser.c **** */
  30:./tmk_core/protocol/lufa/LUFA-git/LUFA/Drivers/USB/Class/Common/HIDParser.c **** 
  31:./tmk_core/protocol/lufa/LUFA-git/LUFA/Drivers/USB/Class/Common/HIDParser.c **** #define  __INCLUDE_FROM_USB_DRIVER
  32:./tmk_core/protocol/lufa/LUFA-git/LUFA/Drivers/USB/Class/Common/HIDParser.c **** #define  __INCLUDE_FROM_HID_DRIVER
  33:./tmk_core/protocol/lufa/LUFA-git/LUFA/Drivers/USB/Class/Common/HIDParser.c **** #include "HIDParser.h"
  34:./tmk_core/protocol/lufa/LUFA-git/LUFA/Drivers/USB/Class/Common/HIDParser.c **** 
  35:./tmk_core/protocol/lufa/LUFA-git/LUFA/Drivers/USB/Class/Common/HIDParser.c **** uint8_t USB_ProcessHIDReport(const uint8_t* ReportData,
  36:./tmk_core/protocol/lufa/LUFA-git/LUFA/Drivers/USB/Class/Common/HIDParser.c ****                              uint16_t ReportSize,
  37:./tmk_core/protocol/lufa/LUFA-git/LUFA/Drivers/USB/Class/Common/HIDParser.c ****                              HID_ReportInfo_t* const ParserData)
  38:./tmk_core/protocol/lufa/LUFA-git/LUFA/Drivers/USB/Class/Common/HIDParser.c **** {
  17               		.loc 1 38 1 view -0
  18               		.cfi_startproc
  19               		.loc 1 38 1 is_stmt 0 view .LVU1
  20 0000 2F92      		push r2
  21               	.LCFI0:
  22               		.cfi_def_cfa_offset 3
  23               		.cfi_offset 2, -2
  24 0002 3F92      		push r3
  25               	.LCFI1:
  26               		.cfi_def_cfa_offset 4
  27               		.cfi_offset 3, -3
  28 0004 4F92      		push r4
  29               	.LCFI2:
  30               		.cfi_def_cfa_offset 5
  31               		.cfi_offset 4, -4
  32 0006 5F92      		push r5
  33               	.LCFI3:
  34               		.cfi_def_cfa_offset 6
  35               		.cfi_offset 5, -5
  36 0008 6F92      		push r6
  37               	.LCFI4:
  38               		.cfi_def_cfa_offset 7
  39               		.cfi_offset 6, -6
  40 000a 7F92      		push r7
  41               	.LCFI5:
  42               		.cfi_def_cfa_offset 8
  43               		.cfi_offset 7, -7
  44 000c 8F92      		push r8
  45               	.LCFI6:
  46               		.cfi_def_cfa_offset 9
  47               		.cfi_offset 8, -8
  48 000e 9F92      		push r9
  49               	.LCFI7:
  50               		.cfi_def_cfa_offset 10
  51               		.cfi_offset 9, -9
  52 0010 AF92      		push r10
  53               	.LCFI8:
  54               		.cfi_def_cfa_offset 11
  55               		.cfi_offset 10, -10
  56 0012 BF92      		push r11
  57               	.LCFI9:
  58               		.cfi_def_cfa_offset 12
  59               		.cfi_offset 11, -11
  60 0014 CF92      		push r12
  61               	.LCFI10:
  62               		.cfi_def_cfa_offset 13
  63               		.cfi_offset 12, -12
  64 0016 DF92      		push r13
  65               	.LCFI11:
  66               		.cfi_def_cfa_offset 14
  67               		.cfi_offset 13, -13
  68 0018 EF92      		push r14
  69               	.LCFI12:
  70               		.cfi_def_cfa_offset 15
  71               		.cfi_offset 14, -14
  72 001a FF92      		push r15
  73               	.LCFI13:
  74               		.cfi_def_cfa_offset 16
  75               		.cfi_offset 15, -15
  76 001c 0F93      		push r16
  77               	.LCFI14:
  78               		.cfi_def_cfa_offset 17
  79               		.cfi_offset 16, -16
  80 001e 1F93      		push r17
  81               	.LCFI15:
  82               		.cfi_def_cfa_offset 18
  83               		.cfi_offset 17, -17
  84 0020 CF93      		push r28
  85               	.LCFI16:
  86               		.cfi_def_cfa_offset 19
  87               		.cfi_offset 28, -18
  88 0022 DF93      		push r29
  89               	.LCFI17:
  90               		.cfi_def_cfa_offset 20
  91               		.cfi_offset 29, -19
  92 0024 CDB7      		in r28,__SP_L__
  93 0026 DEB7      		in r29,__SP_H__
  94               	.LCFI18:
  95               		.cfi_def_cfa_register 28
  96 0028 CA58      		subi r28,-118
  97 002a D109      		sbc r29,__zero_reg__
  98               	.LCFI19:
  99               		.cfi_def_cfa_offset 158
 100 002c 0FB6      		in __tmp_reg__,__SREG__
 101 002e F894      		cli
 102 0030 DEBF      		out __SP_H__,r29
 103 0032 0FBE      		out __SREG__,__tmp_reg__
 104 0034 CDBF      		out __SP_L__,r28
 105               	/* prologue: function */
 106               	/* frame size = 138 */
 107               	/* stack size = 156 */
 108               	.L__stack_usage = 156
 109 0036 1C01      		movw r2,r24
 110 0038 E696      		adiw r28,117-63
 111 003a 6FAF      		std Y+63,r22
 112 003c E697      		sbiw r28,117-63
 113 003e E796      		adiw r28,118-63
 114 0040 7FAF      		std Y+63,r23
 115 0042 E797      		sbiw r28,118-63
 116 0044 4A01      		movw r8,r20
  39:./tmk_core/protocol/lufa/LUFA-git/LUFA/Drivers/USB/Class/Common/HIDParser.c **** 	HID_StateTable_t      StateTable[HID_STATETABLE_STACK_DEPTH];
 117               		.loc 1 39 2 is_stmt 1 view .LVU2
  40:./tmk_core/protocol/lufa/LUFA-git/LUFA/Drivers/USB/Class/Common/HIDParser.c **** 	HID_StateTable_t*     CurrStateTable     = &StateTable[0];
 118               		.loc 1 40 2 view .LVU3
 119               	.LVL1:
  41:./tmk_core/protocol/lufa/LUFA-git/LUFA/Drivers/USB/Class/Common/HIDParser.c **** 	HID_CollectionPath_t* CurrCollectionPath = NULL;
 120               		.loc 1 41 2 view .LVU4
  42:./tmk_core/protocol/lufa/LUFA-git/LUFA/Drivers/USB/Class/Common/HIDParser.c **** 	HID_ReportSizeInfo_t* CurrReportIDInfo   = &ParserData->ReportIDSizes[0];
 121               		.loc 1 42 2 view .LVU5
 122               		.loc 1 42 24 is_stmt 0 view .LVU6
 123 0046 9A01      		movw r18,r20
 124 0048 2057      		subi r18,112
 125 004a 3C4F      		sbci r19,-4
 126 004c ED96      		adiw r28,123-62
 127 004e 3FAF      		std Y+63,r19
 128 0050 2EAF      		std Y+62,r18
 129 0052 ED97      		sbiw r28,123-62
 130               	.LVL2:
  43:./tmk_core/protocol/lufa/LUFA-git/LUFA/Drivers/USB/Class/Common/HIDParser.c **** 	uint16_t              UsageList[HID_USAGE_STACK_DEPTH];
 131               		.loc 1 43 2 is_stmt 1 view .LVU7
  44:./tmk_core/protocol/lufa/LUFA-git/LUFA/Drivers/USB/Class/Common/HIDParser.c **** 	uint8_t               UsageListSize      = 0;
 132               		.loc 1 44 2 view .LVU8
  45:./tmk_core/protocol/lufa/LUFA-git/LUFA/Drivers/USB/Class/Common/HIDParser.c **** 	HID_MinMax_t          UsageMinMax        = {0, 0};
 133               		.loc 1 45 2 view .LVU9
  46:./tmk_core/protocol/lufa/LUFA-git/LUFA/Drivers/USB/Class/Common/HIDParser.c **** 
  47:./tmk_core/protocol/lufa/LUFA-git/LUFA/Drivers/USB/Class/Common/HIDParser.c **** 	memset(ParserData,       0x00, sizeof(HID_ReportInfo_t));
 134               		.loc 1 47 2 view .LVU10
 135 0054 89ED      		ldi r24,lo8(-39)
 136 0056 93E0      		ldi r25,lo8(3)
 137               	.LVL3:
 138               		.loc 1 47 2 is_stmt 0 view .LVU11
 139 0058 DA01      		movw r26,r20
 140 005a FC01      		movw r30,r24
 141               		0:
 142 005c 1D92      		st X+,__zero_reg__
 143 005e 3197      		sbiw r30,1
 144 0060 01F4      		brne 0b
  48:./tmk_core/protocol/lufa/LUFA-git/LUFA/Drivers/USB/Class/Common/HIDParser.c **** 	memset(CurrStateTable,   0x00, sizeof(HID_StateTable_t));
 145               		.loc 1 48 2 is_stmt 1 view .LVU12
 146 0062 FE01      		movw r30,r28
 147 0064 3196      		adiw r30,1
 148               	.LVL4:
 149               		.loc 1 48 2 is_stmt 0 view .LVU13
 150 0066 8CE1      		ldi r24,lo8(28)
 151 0068 DF01      		movw r26,r30
 152               		0:
 153 006a 1D92      		st X+,__zero_reg__
 154 006c 8A95      		dec r24
 155 006e 01F4      		brne 0b
  49:./tmk_core/protocol/lufa/LUFA-git/LUFA/Drivers/USB/Class/Common/HIDParser.c **** 	memset(CurrReportIDInfo, 0x00, sizeof(HID_ReportSizeInfo_t));
 156               		.loc 1 49 2 is_stmt 1 view .LVU14
 157 0070 87E0      		ldi r24,lo8(7)
 158 0072 D901      		movw r26,r18
 159               		0:
 160 0074 1D92      		st X+,__zero_reg__
 161 0076 8A95      		dec r24
 162 0078 01F4      		brne 0b
  50:./tmk_core/protocol/lufa/LUFA-git/LUFA/Drivers/USB/Class/Common/HIDParser.c **** 
  51:./tmk_core/protocol/lufa/LUFA-git/LUFA/Drivers/USB/Class/Common/HIDParser.c **** 	ParserData->TotalDeviceReports = 1;
 163               		.loc 1 51 2 view .LVU15
 164               		.loc 1 51 33 is_stmt 0 view .LVU16
 165 007a 2150      		subi r18,1
 166 007c 3109      		sbc r19,__zero_reg__
 167               	.LVL5:
 168               		.loc 1 51 33 view .LVU17
 169 007e C158      		subi r28,lo8(-127)
 170 0080 DF4F      		sbci r29,hi8(-127)
 171 0082 3983      		std Y+1,r19
 172 0084 2883      		st Y,r18
 173 0086 CF57      		subi r28,lo8(127)
 174 0088 D040      		sbci r29,hi8(127)
 175 008a 81E0      		ldi r24,lo8(1)
 176 008c D901      		movw r26,r18
 177 008e 8C93      		st X,r24
  52:./tmk_core/protocol/lufa/LUFA-git/LUFA/Drivers/USB/Class/Common/HIDParser.c **** 
  53:./tmk_core/protocol/lufa/LUFA-git/LUFA/Drivers/USB/Class/Common/HIDParser.c **** 	while (ReportSize)
 178               		.loc 1 53 2 is_stmt 1 view .LVU18
  45:./tmk_core/protocol/lufa/LUFA-git/LUFA/Drivers/USB/Class/Common/HIDParser.c **** 
 179               		.loc 1 45 24 is_stmt 0 view .LVU19
 180 0090 EB96      		adiw r28,119-60
 181 0092 1CAE      		std Y+60,__zero_reg__
 182 0094 1DAE      		std Y+61,__zero_reg__
 183 0096 1EAE      		std Y+62,__zero_reg__
 184 0098 1FAE      		std Y+63,__zero_reg__
 185 009a EB97      		sbiw r28,119-60
 186 009c 412C      		mov r4,__zero_reg__
 187 009e 512C      		mov r5,__zero_reg__
 188 00a0 3201      		movw r6,r4
  44:./tmk_core/protocol/lufa/LUFA-git/LUFA/Drivers/USB/Class/Common/HIDParser.c **** 	HID_MinMax_t          UsageMinMax        = {0, 0};
 189               		.loc 1 44 24 view .LVU20
 190 00a2 00E0      		ldi r16,0
  41:./tmk_core/protocol/lufa/LUFA-git/LUFA/Drivers/USB/Class/Common/HIDParser.c **** 	HID_ReportSizeInfo_t* CurrReportIDInfo   = &ParserData->ReportIDSizes[0];
 191               		.loc 1 41 24 view .LVU21
 192 00a4 E596      		adiw r28,115-62
 193 00a6 1FAE      		std Y+63,__zero_reg__
 194 00a8 1EAE      		std Y+62,__zero_reg__
 195 00aa E597      		sbiw r28,115-62
  40:./tmk_core/protocol/lufa/LUFA-git/LUFA/Drivers/USB/Class/Common/HIDParser.c **** 	HID_CollectionPath_t* CurrCollectionPath = NULL;
 196               		.loc 1 40 24 view .LVU22
 197 00ac 5F01      		movw r10,r30
 198               	.LBB2:
 199               	.LBB3:
  54:./tmk_core/protocol/lufa/LUFA-git/LUFA/Drivers/USB/Class/Common/HIDParser.c **** 	{
  55:./tmk_core/protocol/lufa/LUFA-git/LUFA/Drivers/USB/Class/Common/HIDParser.c **** 		uint8_t  HIDReportItem  = *ReportData;
  56:./tmk_core/protocol/lufa/LUFA-git/LUFA/Drivers/USB/Class/Common/HIDParser.c **** 		uint32_t ReportItemData;
  57:./tmk_core/protocol/lufa/LUFA-git/LUFA/Drivers/USB/Class/Common/HIDParser.c **** 
  58:./tmk_core/protocol/lufa/LUFA-git/LUFA/Drivers/USB/Class/Common/HIDParser.c **** 		ReportData++;
  59:./tmk_core/protocol/lufa/LUFA-git/LUFA/Drivers/USB/Class/Common/HIDParser.c **** 		ReportSize--;
  60:./tmk_core/protocol/lufa/LUFA-git/LUFA/Drivers/USB/Class/Common/HIDParser.c **** 
  61:./tmk_core/protocol/lufa/LUFA-git/LUFA/Drivers/USB/Class/Common/HIDParser.c **** 		switch (HIDReportItem & HID_RI_DATA_SIZE_MASK)
  62:./tmk_core/protocol/lufa/LUFA-git/LUFA/Drivers/USB/Class/Common/HIDParser.c **** 		{
  63:./tmk_core/protocol/lufa/LUFA-git/LUFA/Drivers/USB/Class/Common/HIDParser.c **** 			case HID_RI_DATA_BITS_32:
  64:./tmk_core/protocol/lufa/LUFA-git/LUFA/Drivers/USB/Class/Common/HIDParser.c **** 				ReportItemData  = (((uint32_t)ReportData[3] << 24) | ((uint32_t)ReportData[2] << 16) |
  65:./tmk_core/protocol/lufa/LUFA-git/LUFA/Drivers/USB/Class/Common/HIDParser.c **** 			                       ((uint16_t)ReportData[1] << 8)  | ReportData[0]);
  66:./tmk_core/protocol/lufa/LUFA-git/LUFA/Drivers/USB/Class/Common/HIDParser.c **** 				ReportSize     -= 4;
  67:./tmk_core/protocol/lufa/LUFA-git/LUFA/Drivers/USB/Class/Common/HIDParser.c **** 				ReportData     += 4;
  68:./tmk_core/protocol/lufa/LUFA-git/LUFA/Drivers/USB/Class/Common/HIDParser.c **** 				break;
  69:./tmk_core/protocol/lufa/LUFA-git/LUFA/Drivers/USB/Class/Common/HIDParser.c **** 
  70:./tmk_core/protocol/lufa/LUFA-git/LUFA/Drivers/USB/Class/Common/HIDParser.c **** 			case HID_RI_DATA_BITS_16:
  71:./tmk_core/protocol/lufa/LUFA-git/LUFA/Drivers/USB/Class/Common/HIDParser.c **** 				ReportItemData  = (((uint16_t)ReportData[1] << 8) | (ReportData[0]));
  72:./tmk_core/protocol/lufa/LUFA-git/LUFA/Drivers/USB/Class/Common/HIDParser.c **** 				ReportSize     -= 2;
  73:./tmk_core/protocol/lufa/LUFA-git/LUFA/Drivers/USB/Class/Common/HIDParser.c **** 				ReportData     += 2;
  74:./tmk_core/protocol/lufa/LUFA-git/LUFA/Drivers/USB/Class/Common/HIDParser.c **** 				break;
  75:./tmk_core/protocol/lufa/LUFA-git/LUFA/Drivers/USB/Class/Common/HIDParser.c **** 
  76:./tmk_core/protocol/lufa/LUFA-git/LUFA/Drivers/USB/Class/Common/HIDParser.c **** 			case HID_RI_DATA_BITS_8:
  77:./tmk_core/protocol/lufa/LUFA-git/LUFA/Drivers/USB/Class/Common/HIDParser.c **** 				ReportItemData  = ReportData[0];
  78:./tmk_core/protocol/lufa/LUFA-git/LUFA/Drivers/USB/Class/Common/HIDParser.c **** 				ReportSize     -= 1;
  79:./tmk_core/protocol/lufa/LUFA-git/LUFA/Drivers/USB/Class/Common/HIDParser.c **** 				ReportData     += 1;
  80:./tmk_core/protocol/lufa/LUFA-git/LUFA/Drivers/USB/Class/Common/HIDParser.c **** 				break;
  81:./tmk_core/protocol/lufa/LUFA-git/LUFA/Drivers/USB/Class/Common/HIDParser.c **** 
  82:./tmk_core/protocol/lufa/LUFA-git/LUFA/Drivers/USB/Class/Common/HIDParser.c **** 			default:
  83:./tmk_core/protocol/lufa/LUFA-git/LUFA/Drivers/USB/Class/Common/HIDParser.c **** 				ReportItemData  = 0;
  84:./tmk_core/protocol/lufa/LUFA-git/LUFA/Drivers/USB/Class/Common/HIDParser.c **** 				break;
  85:./tmk_core/protocol/lufa/LUFA-git/LUFA/Drivers/USB/Class/Common/HIDParser.c **** 		}
  86:./tmk_core/protocol/lufa/LUFA-git/LUFA/Drivers/USB/Class/Common/HIDParser.c **** 
  87:./tmk_core/protocol/lufa/LUFA-git/LUFA/Drivers/USB/Class/Common/HIDParser.c **** 		switch (HIDReportItem & (HID_RI_TYPE_MASK | HID_RI_TAG_MASK))
  88:./tmk_core/protocol/lufa/LUFA-git/LUFA/Drivers/USB/Class/Common/HIDParser.c **** 		{
  89:./tmk_core/protocol/lufa/LUFA-git/LUFA/Drivers/USB/Class/Common/HIDParser.c **** 			case HID_RI_PUSH(0):
  90:./tmk_core/protocol/lufa/LUFA-git/LUFA/Drivers/USB/Class/Common/HIDParser.c **** 				if (CurrStateTable == &StateTable[HID_STATETABLE_STACK_DEPTH - 1])
  91:./tmk_core/protocol/lufa/LUFA-git/LUFA/Drivers/USB/Class/Common/HIDParser.c **** 				  return HID_PARSE_HIDStackOverflow;
  92:./tmk_core/protocol/lufa/LUFA-git/LUFA/Drivers/USB/Class/Common/HIDParser.c **** 
  93:./tmk_core/protocol/lufa/LUFA-git/LUFA/Drivers/USB/Class/Common/HIDParser.c **** 				memcpy((CurrStateTable + 1),
  94:./tmk_core/protocol/lufa/LUFA-git/LUFA/Drivers/USB/Class/Common/HIDParser.c **** 				       CurrStateTable,
  95:./tmk_core/protocol/lufa/LUFA-git/LUFA/Drivers/USB/Class/Common/HIDParser.c **** 				       sizeof(HID_ReportItem_t));
  96:./tmk_core/protocol/lufa/LUFA-git/LUFA/Drivers/USB/Class/Common/HIDParser.c **** 
  97:./tmk_core/protocol/lufa/LUFA-git/LUFA/Drivers/USB/Class/Common/HIDParser.c **** 				CurrStateTable++;
  98:./tmk_core/protocol/lufa/LUFA-git/LUFA/Drivers/USB/Class/Common/HIDParser.c **** 				break;
  99:./tmk_core/protocol/lufa/LUFA-git/LUFA/Drivers/USB/Class/Common/HIDParser.c **** 
 100:./tmk_core/protocol/lufa/LUFA-git/LUFA/Drivers/USB/Class/Common/HIDParser.c **** 			case HID_RI_POP(0):
 101:./tmk_core/protocol/lufa/LUFA-git/LUFA/Drivers/USB/Class/Common/HIDParser.c **** 				if (CurrStateTable == &StateTable[0])
 102:./tmk_core/protocol/lufa/LUFA-git/LUFA/Drivers/USB/Class/Common/HIDParser.c **** 				  return HID_PARSE_HIDStackUnderflow;
 103:./tmk_core/protocol/lufa/LUFA-git/LUFA/Drivers/USB/Class/Common/HIDParser.c **** 
 104:./tmk_core/protocol/lufa/LUFA-git/LUFA/Drivers/USB/Class/Common/HIDParser.c **** 				CurrStateTable--;
 105:./tmk_core/protocol/lufa/LUFA-git/LUFA/Drivers/USB/Class/Common/HIDParser.c **** 				break;
 106:./tmk_core/protocol/lufa/LUFA-git/LUFA/Drivers/USB/Class/Common/HIDParser.c **** 
 107:./tmk_core/protocol/lufa/LUFA-git/LUFA/Drivers/USB/Class/Common/HIDParser.c **** 			case HID_RI_USAGE_PAGE(0):
 108:./tmk_core/protocol/lufa/LUFA-git/LUFA/Drivers/USB/Class/Common/HIDParser.c **** 				if ((HIDReportItem & HID_RI_DATA_SIZE_MASK) == HID_RI_DATA_BITS_32)
 109:./tmk_core/protocol/lufa/LUFA-git/LUFA/Drivers/USB/Class/Common/HIDParser.c **** 				  CurrStateTable->Attributes.Usage.Page = (ReportItemData >> 16);
 110:./tmk_core/protocol/lufa/LUFA-git/LUFA/Drivers/USB/Class/Common/HIDParser.c **** 
 111:./tmk_core/protocol/lufa/LUFA-git/LUFA/Drivers/USB/Class/Common/HIDParser.c **** 				CurrStateTable->Attributes.Usage.Page       = ReportItemData;
 112:./tmk_core/protocol/lufa/LUFA-git/LUFA/Drivers/USB/Class/Common/HIDParser.c **** 				break;
 113:./tmk_core/protocol/lufa/LUFA-git/LUFA/Drivers/USB/Class/Common/HIDParser.c **** 
 114:./tmk_core/protocol/lufa/LUFA-git/LUFA/Drivers/USB/Class/Common/HIDParser.c **** 			case HID_RI_LOGICAL_MINIMUM(0):
 115:./tmk_core/protocol/lufa/LUFA-git/LUFA/Drivers/USB/Class/Common/HIDParser.c **** 				CurrStateTable->Attributes.Logical.Minimum  = ReportItemData;
 116:./tmk_core/protocol/lufa/LUFA-git/LUFA/Drivers/USB/Class/Common/HIDParser.c **** 				break;
 117:./tmk_core/protocol/lufa/LUFA-git/LUFA/Drivers/USB/Class/Common/HIDParser.c **** 
 118:./tmk_core/protocol/lufa/LUFA-git/LUFA/Drivers/USB/Class/Common/HIDParser.c **** 			case HID_RI_LOGICAL_MAXIMUM(0):
 119:./tmk_core/protocol/lufa/LUFA-git/LUFA/Drivers/USB/Class/Common/HIDParser.c **** 				CurrStateTable->Attributes.Logical.Maximum  = ReportItemData;
 120:./tmk_core/protocol/lufa/LUFA-git/LUFA/Drivers/USB/Class/Common/HIDParser.c **** 				break;
 121:./tmk_core/protocol/lufa/LUFA-git/LUFA/Drivers/USB/Class/Common/HIDParser.c **** 
 122:./tmk_core/protocol/lufa/LUFA-git/LUFA/Drivers/USB/Class/Common/HIDParser.c **** 			case HID_RI_PHYSICAL_MINIMUM(0):
 123:./tmk_core/protocol/lufa/LUFA-git/LUFA/Drivers/USB/Class/Common/HIDParser.c **** 				CurrStateTable->Attributes.Physical.Minimum = ReportItemData;
 124:./tmk_core/protocol/lufa/LUFA-git/LUFA/Drivers/USB/Class/Common/HIDParser.c **** 				break;
 125:./tmk_core/protocol/lufa/LUFA-git/LUFA/Drivers/USB/Class/Common/HIDParser.c **** 
 126:./tmk_core/protocol/lufa/LUFA-git/LUFA/Drivers/USB/Class/Common/HIDParser.c **** 			case HID_RI_PHYSICAL_MAXIMUM(0):
 127:./tmk_core/protocol/lufa/LUFA-git/LUFA/Drivers/USB/Class/Common/HIDParser.c **** 				CurrStateTable->Attributes.Physical.Maximum = ReportItemData;
 128:./tmk_core/protocol/lufa/LUFA-git/LUFA/Drivers/USB/Class/Common/HIDParser.c **** 				break;
 129:./tmk_core/protocol/lufa/LUFA-git/LUFA/Drivers/USB/Class/Common/HIDParser.c **** 
 130:./tmk_core/protocol/lufa/LUFA-git/LUFA/Drivers/USB/Class/Common/HIDParser.c **** 			case HID_RI_UNIT_EXPONENT(0):
 131:./tmk_core/protocol/lufa/LUFA-git/LUFA/Drivers/USB/Class/Common/HIDParser.c **** 				CurrStateTable->Attributes.Unit.Exponent    = ReportItemData;
 132:./tmk_core/protocol/lufa/LUFA-git/LUFA/Drivers/USB/Class/Common/HIDParser.c **** 				break;
 133:./tmk_core/protocol/lufa/LUFA-git/LUFA/Drivers/USB/Class/Common/HIDParser.c **** 
 134:./tmk_core/protocol/lufa/LUFA-git/LUFA/Drivers/USB/Class/Common/HIDParser.c **** 			case HID_RI_UNIT(0):
 135:./tmk_core/protocol/lufa/LUFA-git/LUFA/Drivers/USB/Class/Common/HIDParser.c **** 				CurrStateTable->Attributes.Unit.Type        = ReportItemData;
 136:./tmk_core/protocol/lufa/LUFA-git/LUFA/Drivers/USB/Class/Common/HIDParser.c **** 				break;
 137:./tmk_core/protocol/lufa/LUFA-git/LUFA/Drivers/USB/Class/Common/HIDParser.c **** 
 138:./tmk_core/protocol/lufa/LUFA-git/LUFA/Drivers/USB/Class/Common/HIDParser.c **** 			case HID_RI_REPORT_SIZE(0):
 139:./tmk_core/protocol/lufa/LUFA-git/LUFA/Drivers/USB/Class/Common/HIDParser.c **** 				CurrStateTable->Attributes.BitSize          = ReportItemData;
 140:./tmk_core/protocol/lufa/LUFA-git/LUFA/Drivers/USB/Class/Common/HIDParser.c **** 				break;
 141:./tmk_core/protocol/lufa/LUFA-git/LUFA/Drivers/USB/Class/Common/HIDParser.c **** 
 142:./tmk_core/protocol/lufa/LUFA-git/LUFA/Drivers/USB/Class/Common/HIDParser.c **** 			case HID_RI_REPORT_COUNT(0):
 143:./tmk_core/protocol/lufa/LUFA-git/LUFA/Drivers/USB/Class/Common/HIDParser.c **** 				CurrStateTable->ReportCount                 = ReportItemData;
 144:./tmk_core/protocol/lufa/LUFA-git/LUFA/Drivers/USB/Class/Common/HIDParser.c **** 				break;
 145:./tmk_core/protocol/lufa/LUFA-git/LUFA/Drivers/USB/Class/Common/HIDParser.c **** 
 146:./tmk_core/protocol/lufa/LUFA-git/LUFA/Drivers/USB/Class/Common/HIDParser.c **** 			case HID_RI_REPORT_ID(0):
 147:./tmk_core/protocol/lufa/LUFA-git/LUFA/Drivers/USB/Class/Common/HIDParser.c **** 				CurrStateTable->ReportID                    = ReportItemData;
 148:./tmk_core/protocol/lufa/LUFA-git/LUFA/Drivers/USB/Class/Common/HIDParser.c **** 
 149:./tmk_core/protocol/lufa/LUFA-git/LUFA/Drivers/USB/Class/Common/HIDParser.c **** 				if (ParserData->UsingReportIDs)
 150:./tmk_core/protocol/lufa/LUFA-git/LUFA/Drivers/USB/Class/Common/HIDParser.c **** 				{
 151:./tmk_core/protocol/lufa/LUFA-git/LUFA/Drivers/USB/Class/Common/HIDParser.c **** 					CurrReportIDInfo = NULL;
 152:./tmk_core/protocol/lufa/LUFA-git/LUFA/Drivers/USB/Class/Common/HIDParser.c **** 
 153:./tmk_core/protocol/lufa/LUFA-git/LUFA/Drivers/USB/Class/Common/HIDParser.c **** 					for (uint8_t i = 0; i < ParserData->TotalDeviceReports; i++)
 154:./tmk_core/protocol/lufa/LUFA-git/LUFA/Drivers/USB/Class/Common/HIDParser.c **** 					{
 155:./tmk_core/protocol/lufa/LUFA-git/LUFA/Drivers/USB/Class/Common/HIDParser.c **** 						if (ParserData->ReportIDSizes[i].ReportID == CurrStateTable->ReportID)
 156:./tmk_core/protocol/lufa/LUFA-git/LUFA/Drivers/USB/Class/Common/HIDParser.c **** 						{
 157:./tmk_core/protocol/lufa/LUFA-git/LUFA/Drivers/USB/Class/Common/HIDParser.c **** 							CurrReportIDInfo = &ParserData->ReportIDSizes[i];
 158:./tmk_core/protocol/lufa/LUFA-git/LUFA/Drivers/USB/Class/Common/HIDParser.c **** 							break;
 159:./tmk_core/protocol/lufa/LUFA-git/LUFA/Drivers/USB/Class/Common/HIDParser.c **** 						}
 160:./tmk_core/protocol/lufa/LUFA-git/LUFA/Drivers/USB/Class/Common/HIDParser.c **** 					}
 161:./tmk_core/protocol/lufa/LUFA-git/LUFA/Drivers/USB/Class/Common/HIDParser.c **** 
 162:./tmk_core/protocol/lufa/LUFA-git/LUFA/Drivers/USB/Class/Common/HIDParser.c **** 					if (CurrReportIDInfo == NULL)
 163:./tmk_core/protocol/lufa/LUFA-git/LUFA/Drivers/USB/Class/Common/HIDParser.c **** 					{
 164:./tmk_core/protocol/lufa/LUFA-git/LUFA/Drivers/USB/Class/Common/HIDParser.c **** 						if (ParserData->TotalDeviceReports == HID_MAX_REPORT_IDS)
 165:./tmk_core/protocol/lufa/LUFA-git/LUFA/Drivers/USB/Class/Common/HIDParser.c **** 						  return HID_PARSE_InsufficientReportIDItems;
 166:./tmk_core/protocol/lufa/LUFA-git/LUFA/Drivers/USB/Class/Common/HIDParser.c **** 
 167:./tmk_core/protocol/lufa/LUFA-git/LUFA/Drivers/USB/Class/Common/HIDParser.c **** 						CurrReportIDInfo = &ParserData->ReportIDSizes[ParserData->TotalDeviceReports++];
 168:./tmk_core/protocol/lufa/LUFA-git/LUFA/Drivers/USB/Class/Common/HIDParser.c **** 						memset(CurrReportIDInfo, 0x00, sizeof(HID_ReportSizeInfo_t));
 169:./tmk_core/protocol/lufa/LUFA-git/LUFA/Drivers/USB/Class/Common/HIDParser.c **** 					}
 170:./tmk_core/protocol/lufa/LUFA-git/LUFA/Drivers/USB/Class/Common/HIDParser.c **** 				}
 171:./tmk_core/protocol/lufa/LUFA-git/LUFA/Drivers/USB/Class/Common/HIDParser.c **** 
 172:./tmk_core/protocol/lufa/LUFA-git/LUFA/Drivers/USB/Class/Common/HIDParser.c **** 				ParserData->UsingReportIDs = true;
 173:./tmk_core/protocol/lufa/LUFA-git/LUFA/Drivers/USB/Class/Common/HIDParser.c **** 
 174:./tmk_core/protocol/lufa/LUFA-git/LUFA/Drivers/USB/Class/Common/HIDParser.c **** 				CurrReportIDInfo->ReportID = CurrStateTable->ReportID;
 175:./tmk_core/protocol/lufa/LUFA-git/LUFA/Drivers/USB/Class/Common/HIDParser.c **** 				break;
 176:./tmk_core/protocol/lufa/LUFA-git/LUFA/Drivers/USB/Class/Common/HIDParser.c **** 
 177:./tmk_core/protocol/lufa/LUFA-git/LUFA/Drivers/USB/Class/Common/HIDParser.c **** 			case HID_RI_USAGE(0):
 178:./tmk_core/protocol/lufa/LUFA-git/LUFA/Drivers/USB/Class/Common/HIDParser.c **** 				if (UsageListSize == HID_USAGE_STACK_DEPTH)
 179:./tmk_core/protocol/lufa/LUFA-git/LUFA/Drivers/USB/Class/Common/HIDParser.c **** 				  return HID_PARSE_UsageListOverflow;
 180:./tmk_core/protocol/lufa/LUFA-git/LUFA/Drivers/USB/Class/Common/HIDParser.c **** 
 181:./tmk_core/protocol/lufa/LUFA-git/LUFA/Drivers/USB/Class/Common/HIDParser.c **** 				UsageList[UsageListSize++] = ReportItemData;
 182:./tmk_core/protocol/lufa/LUFA-git/LUFA/Drivers/USB/Class/Common/HIDParser.c **** 				break;
 183:./tmk_core/protocol/lufa/LUFA-git/LUFA/Drivers/USB/Class/Common/HIDParser.c **** 
 184:./tmk_core/protocol/lufa/LUFA-git/LUFA/Drivers/USB/Class/Common/HIDParser.c **** 			case HID_RI_USAGE_MINIMUM(0):
 185:./tmk_core/protocol/lufa/LUFA-git/LUFA/Drivers/USB/Class/Common/HIDParser.c **** 				UsageMinMax.Minimum = ReportItemData;
 186:./tmk_core/protocol/lufa/LUFA-git/LUFA/Drivers/USB/Class/Common/HIDParser.c **** 				break;
 187:./tmk_core/protocol/lufa/LUFA-git/LUFA/Drivers/USB/Class/Common/HIDParser.c **** 
 188:./tmk_core/protocol/lufa/LUFA-git/LUFA/Drivers/USB/Class/Common/HIDParser.c **** 			case HID_RI_USAGE_MAXIMUM(0):
 189:./tmk_core/protocol/lufa/LUFA-git/LUFA/Drivers/USB/Class/Common/HIDParser.c **** 				UsageMinMax.Maximum = ReportItemData;
 190:./tmk_core/protocol/lufa/LUFA-git/LUFA/Drivers/USB/Class/Common/HIDParser.c **** 				break;
 191:./tmk_core/protocol/lufa/LUFA-git/LUFA/Drivers/USB/Class/Common/HIDParser.c **** 
 192:./tmk_core/protocol/lufa/LUFA-git/LUFA/Drivers/USB/Class/Common/HIDParser.c **** 			case HID_RI_COLLECTION(0):
 193:./tmk_core/protocol/lufa/LUFA-git/LUFA/Drivers/USB/Class/Common/HIDParser.c **** 				if (CurrCollectionPath == NULL)
 194:./tmk_core/protocol/lufa/LUFA-git/LUFA/Drivers/USB/Class/Common/HIDParser.c **** 				{
 195:./tmk_core/protocol/lufa/LUFA-git/LUFA/Drivers/USB/Class/Common/HIDParser.c **** 					CurrCollectionPath = &ParserData->CollectionPaths[0];
 196:./tmk_core/protocol/lufa/LUFA-git/LUFA/Drivers/USB/Class/Common/HIDParser.c **** 				}
 197:./tmk_core/protocol/lufa/LUFA-git/LUFA/Drivers/USB/Class/Common/HIDParser.c **** 				else
 198:./tmk_core/protocol/lufa/LUFA-git/LUFA/Drivers/USB/Class/Common/HIDParser.c **** 				{
 199:./tmk_core/protocol/lufa/LUFA-git/LUFA/Drivers/USB/Class/Common/HIDParser.c **** 					HID_CollectionPath_t* ParentCollectionPath = CurrCollectionPath;
 200:./tmk_core/protocol/lufa/LUFA-git/LUFA/Drivers/USB/Class/Common/HIDParser.c **** 
 201:./tmk_core/protocol/lufa/LUFA-git/LUFA/Drivers/USB/Class/Common/HIDParser.c **** 					CurrCollectionPath = &ParserData->CollectionPaths[1];
 202:./tmk_core/protocol/lufa/LUFA-git/LUFA/Drivers/USB/Class/Common/HIDParser.c **** 
 203:./tmk_core/protocol/lufa/LUFA-git/LUFA/Drivers/USB/Class/Common/HIDParser.c **** 					while (CurrCollectionPath->Parent != NULL)
 204:./tmk_core/protocol/lufa/LUFA-git/LUFA/Drivers/USB/Class/Common/HIDParser.c **** 					{
 205:./tmk_core/protocol/lufa/LUFA-git/LUFA/Drivers/USB/Class/Common/HIDParser.c **** 						if (CurrCollectionPath == &ParserData->CollectionPaths[HID_MAX_COLLECTIONS - 1])
 206:./tmk_core/protocol/lufa/LUFA-git/LUFA/Drivers/USB/Class/Common/HIDParser.c **** 						  return HID_PARSE_InsufficientCollectionPaths;
 207:./tmk_core/protocol/lufa/LUFA-git/LUFA/Drivers/USB/Class/Common/HIDParser.c **** 
 208:./tmk_core/protocol/lufa/LUFA-git/LUFA/Drivers/USB/Class/Common/HIDParser.c **** 						CurrCollectionPath++;
 209:./tmk_core/protocol/lufa/LUFA-git/LUFA/Drivers/USB/Class/Common/HIDParser.c **** 					}
 210:./tmk_core/protocol/lufa/LUFA-git/LUFA/Drivers/USB/Class/Common/HIDParser.c **** 
 211:./tmk_core/protocol/lufa/LUFA-git/LUFA/Drivers/USB/Class/Common/HIDParser.c **** 					CurrCollectionPath->Parent = ParentCollectionPath;
 212:./tmk_core/protocol/lufa/LUFA-git/LUFA/Drivers/USB/Class/Common/HIDParser.c **** 				}
 213:./tmk_core/protocol/lufa/LUFA-git/LUFA/Drivers/USB/Class/Common/HIDParser.c **** 
 214:./tmk_core/protocol/lufa/LUFA-git/LUFA/Drivers/USB/Class/Common/HIDParser.c **** 				CurrCollectionPath->Type       = ReportItemData;
 215:./tmk_core/protocol/lufa/LUFA-git/LUFA/Drivers/USB/Class/Common/HIDParser.c **** 				CurrCollectionPath->Usage.Page = CurrStateTable->Attributes.Usage.Page;
 216:./tmk_core/protocol/lufa/LUFA-git/LUFA/Drivers/USB/Class/Common/HIDParser.c **** 
 217:./tmk_core/protocol/lufa/LUFA-git/LUFA/Drivers/USB/Class/Common/HIDParser.c **** 				if (UsageListSize)
 218:./tmk_core/protocol/lufa/LUFA-git/LUFA/Drivers/USB/Class/Common/HIDParser.c **** 				{
 219:./tmk_core/protocol/lufa/LUFA-git/LUFA/Drivers/USB/Class/Common/HIDParser.c **** 					CurrCollectionPath->Usage.Usage = UsageList[0];
 220:./tmk_core/protocol/lufa/LUFA-git/LUFA/Drivers/USB/Class/Common/HIDParser.c **** 
 221:./tmk_core/protocol/lufa/LUFA-git/LUFA/Drivers/USB/Class/Common/HIDParser.c **** 					for (uint8_t i = 1; i < UsageListSize; i++)
 222:./tmk_core/protocol/lufa/LUFA-git/LUFA/Drivers/USB/Class/Common/HIDParser.c **** 					  UsageList[i - 1] = UsageList[i];
 200               		.loc 1 222 25 view .LVU23
 201 00ae E3E6      		ldi r30,lo8(99)
 202 00b0 F0E0      		ldi r31,0
 203               	.LVL6:
 204               		.loc 1 222 25 view .LVU24
 205 00b2 EC0F      		add r30,r28
 206 00b4 FD1F      		adc r31,r29
 207 00b6 3296      		adiw r30,2
 208 00b8 CF57      		subi r28,lo8(-129)
 209 00ba DF4F      		sbci r29,hi8(-129)
 210 00bc F983      		std Y+1,r31
 211 00be E883      		st Y,r30
 212 00c0 C158      		subi r28,lo8(129)
 213 00c2 D040      		sbci r29,hi8(129)
 214               	.LBE3:
 215               	.LBB4:
 216               	.LBB5:
 223:./tmk_core/protocol/lufa/LUFA-git/LUFA/Drivers/USB/Class/Common/HIDParser.c **** 
 224:./tmk_core/protocol/lufa/LUFA-git/LUFA/Drivers/USB/Class/Common/HIDParser.c **** 					UsageListSize--;
 225:./tmk_core/protocol/lufa/LUFA-git/LUFA/Drivers/USB/Class/Common/HIDParser.c **** 				}
 226:./tmk_core/protocol/lufa/LUFA-git/LUFA/Drivers/USB/Class/Common/HIDParser.c **** 				else if (UsageMinMax.Minimum <= UsageMinMax.Maximum)
 227:./tmk_core/protocol/lufa/LUFA-git/LUFA/Drivers/USB/Class/Common/HIDParser.c **** 				{
 228:./tmk_core/protocol/lufa/LUFA-git/LUFA/Drivers/USB/Class/Common/HIDParser.c **** 					CurrCollectionPath->Usage.Usage = UsageMinMax.Minimum++;
 229:./tmk_core/protocol/lufa/LUFA-git/LUFA/Drivers/USB/Class/Common/HIDParser.c **** 				}
 230:./tmk_core/protocol/lufa/LUFA-git/LUFA/Drivers/USB/Class/Common/HIDParser.c **** 
 231:./tmk_core/protocol/lufa/LUFA-git/LUFA/Drivers/USB/Class/Common/HIDParser.c **** 				break;
 232:./tmk_core/protocol/lufa/LUFA-git/LUFA/Drivers/USB/Class/Common/HIDParser.c **** 
 233:./tmk_core/protocol/lufa/LUFA-git/LUFA/Drivers/USB/Class/Common/HIDParser.c **** 			case HID_RI_END_COLLECTION(0):
 234:./tmk_core/protocol/lufa/LUFA-git/LUFA/Drivers/USB/Class/Common/HIDParser.c **** 				if (CurrCollectionPath == NULL)
 235:./tmk_core/protocol/lufa/LUFA-git/LUFA/Drivers/USB/Class/Common/HIDParser.c **** 				  return HID_PARSE_UnexpectedEndCollection;
 236:./tmk_core/protocol/lufa/LUFA-git/LUFA/Drivers/USB/Class/Common/HIDParser.c **** 
 237:./tmk_core/protocol/lufa/LUFA-git/LUFA/Drivers/USB/Class/Common/HIDParser.c **** 				CurrCollectionPath = CurrCollectionPath->Parent;
 238:./tmk_core/protocol/lufa/LUFA-git/LUFA/Drivers/USB/Class/Common/HIDParser.c **** 				break;
 239:./tmk_core/protocol/lufa/LUFA-git/LUFA/Drivers/USB/Class/Common/HIDParser.c **** 
 240:./tmk_core/protocol/lufa/LUFA-git/LUFA/Drivers/USB/Class/Common/HIDParser.c **** 			case HID_RI_INPUT(0):
 241:./tmk_core/protocol/lufa/LUFA-git/LUFA/Drivers/USB/Class/Common/HIDParser.c **** 			case HID_RI_OUTPUT(0):
 242:./tmk_core/protocol/lufa/LUFA-git/LUFA/Drivers/USB/Class/Common/HIDParser.c **** 			case HID_RI_FEATURE(0):
 243:./tmk_core/protocol/lufa/LUFA-git/LUFA/Drivers/USB/Class/Common/HIDParser.c **** 				for (uint8_t ReportItemNum = 0; ReportItemNum < CurrStateTable->ReportCount; ReportItemNum++)
 244:./tmk_core/protocol/lufa/LUFA-git/LUFA/Drivers/USB/Class/Common/HIDParser.c **** 				{
 245:./tmk_core/protocol/lufa/LUFA-git/LUFA/Drivers/USB/Class/Common/HIDParser.c **** 					HID_ReportItem_t NewReportItem;
 246:./tmk_core/protocol/lufa/LUFA-git/LUFA/Drivers/USB/Class/Common/HIDParser.c **** 
 247:./tmk_core/protocol/lufa/LUFA-git/LUFA/Drivers/USB/Class/Common/HIDParser.c **** 					memcpy(&NewReportItem.Attributes,
 248:./tmk_core/protocol/lufa/LUFA-git/LUFA/Drivers/USB/Class/Common/HIDParser.c **** 					       &CurrStateTable->Attributes,
 249:./tmk_core/protocol/lufa/LUFA-git/LUFA/Drivers/USB/Class/Common/HIDParser.c **** 					       sizeof(HID_ReportItem_Attributes_t));
 250:./tmk_core/protocol/lufa/LUFA-git/LUFA/Drivers/USB/Class/Common/HIDParser.c **** 
 251:./tmk_core/protocol/lufa/LUFA-git/LUFA/Drivers/USB/Class/Common/HIDParser.c **** 					NewReportItem.ItemFlags      = ReportItemData;
 252:./tmk_core/protocol/lufa/LUFA-git/LUFA/Drivers/USB/Class/Common/HIDParser.c **** 					NewReportItem.CollectionPath = CurrCollectionPath;
 253:./tmk_core/protocol/lufa/LUFA-git/LUFA/Drivers/USB/Class/Common/HIDParser.c **** 					NewReportItem.ReportID       = CurrStateTable->ReportID;
 254:./tmk_core/protocol/lufa/LUFA-git/LUFA/Drivers/USB/Class/Common/HIDParser.c **** 
 255:./tmk_core/protocol/lufa/LUFA-git/LUFA/Drivers/USB/Class/Common/HIDParser.c **** 					if (UsageListSize)
 256:./tmk_core/protocol/lufa/LUFA-git/LUFA/Drivers/USB/Class/Common/HIDParser.c **** 					{
 257:./tmk_core/protocol/lufa/LUFA-git/LUFA/Drivers/USB/Class/Common/HIDParser.c **** 						NewReportItem.Attributes.Usage.Usage = UsageList[0];
 258:./tmk_core/protocol/lufa/LUFA-git/LUFA/Drivers/USB/Class/Common/HIDParser.c **** 
 259:./tmk_core/protocol/lufa/LUFA-git/LUFA/Drivers/USB/Class/Common/HIDParser.c **** 						for (uint8_t i = 1; i < UsageListSize; i++)
 260:./tmk_core/protocol/lufa/LUFA-git/LUFA/Drivers/USB/Class/Common/HIDParser.c **** 						  UsageList[i - 1] = UsageList[i];
 261:./tmk_core/protocol/lufa/LUFA-git/LUFA/Drivers/USB/Class/Common/HIDParser.c **** 
 262:./tmk_core/protocol/lufa/LUFA-git/LUFA/Drivers/USB/Class/Common/HIDParser.c **** 						UsageListSize--;
 263:./tmk_core/protocol/lufa/LUFA-git/LUFA/Drivers/USB/Class/Common/HIDParser.c **** 					}
 264:./tmk_core/protocol/lufa/LUFA-git/LUFA/Drivers/USB/Class/Common/HIDParser.c **** 					else if (UsageMinMax.Minimum <= UsageMinMax.Maximum)
 265:./tmk_core/protocol/lufa/LUFA-git/LUFA/Drivers/USB/Class/Common/HIDParser.c **** 					{
 266:./tmk_core/protocol/lufa/LUFA-git/LUFA/Drivers/USB/Class/Common/HIDParser.c **** 						NewReportItem.Attributes.Usage.Usage = UsageMinMax.Minimum++;
 267:./tmk_core/protocol/lufa/LUFA-git/LUFA/Drivers/USB/Class/Common/HIDParser.c **** 					}
 268:./tmk_core/protocol/lufa/LUFA-git/LUFA/Drivers/USB/Class/Common/HIDParser.c **** 
 269:./tmk_core/protocol/lufa/LUFA-git/LUFA/Drivers/USB/Class/Common/HIDParser.c **** 					uint8_t ItemTypeTag = (HIDReportItem & (HID_RI_TYPE_MASK | HID_RI_TAG_MASK));
 270:./tmk_core/protocol/lufa/LUFA-git/LUFA/Drivers/USB/Class/Common/HIDParser.c **** 
 271:./tmk_core/protocol/lufa/LUFA-git/LUFA/Drivers/USB/Class/Common/HIDParser.c **** 					if (ItemTypeTag == HID_RI_INPUT(0))
 272:./tmk_core/protocol/lufa/LUFA-git/LUFA/Drivers/USB/Class/Common/HIDParser.c **** 					  NewReportItem.ItemType = HID_REPORT_ITEM_In;
 273:./tmk_core/protocol/lufa/LUFA-git/LUFA/Drivers/USB/Class/Common/HIDParser.c **** 					else if (ItemTypeTag == HID_RI_OUTPUT(0))
 274:./tmk_core/protocol/lufa/LUFA-git/LUFA/Drivers/USB/Class/Common/HIDParser.c **** 					  NewReportItem.ItemType = HID_REPORT_ITEM_Out;
 275:./tmk_core/protocol/lufa/LUFA-git/LUFA/Drivers/USB/Class/Common/HIDParser.c **** 					else
 276:./tmk_core/protocol/lufa/LUFA-git/LUFA/Drivers/USB/Class/Common/HIDParser.c **** 					  NewReportItem.ItemType = HID_REPORT_ITEM_Feature;
 277:./tmk_core/protocol/lufa/LUFA-git/LUFA/Drivers/USB/Class/Common/HIDParser.c **** 
 278:./tmk_core/protocol/lufa/LUFA-git/LUFA/Drivers/USB/Class/Common/HIDParser.c **** 					NewReportItem.BitOffset = CurrReportIDInfo->ReportSizeBits[NewReportItem.ItemType];
 279:./tmk_core/protocol/lufa/LUFA-git/LUFA/Drivers/USB/Class/Common/HIDParser.c **** 
 280:./tmk_core/protocol/lufa/LUFA-git/LUFA/Drivers/USB/Class/Common/HIDParser.c **** 					CurrReportIDInfo->ReportSizeBits[NewReportItem.ItemType] += CurrStateTable->Attributes.BitSize
 281:./tmk_core/protocol/lufa/LUFA-git/LUFA/Drivers/USB/Class/Common/HIDParser.c **** 
 282:./tmk_core/protocol/lufa/LUFA-git/LUFA/Drivers/USB/Class/Common/HIDParser.c **** 					ParserData->LargestReportSizeBits = MAX(ParserData->LargestReportSizeBits, CurrReportIDInfo->R
 217               		.loc 1 282 40 view .LVU25
 218 00c4 295B      		subi r18,-71
 219 00c6 3F4F      		sbci r19,-1
 220               	.LVL7:
 221               		.loc 1 282 40 view .LVU26
 222 00c8 CD57      		subi r28,lo8(-131)
 223 00ca DF4F      		sbci r29,hi8(-131)
 224 00cc 3983      		std Y+1,r19
 225 00ce 2883      		st Y,r18
 226 00d0 C358      		subi r28,lo8(131)
 227 00d2 D040      		sbci r29,hi8(131)
 228               	.LBE5:
 229               	.LBE4:
 149:./tmk_core/protocol/lufa/LUFA-git/LUFA/Drivers/USB/Class/Common/HIDParser.c **** 				{
 230               		.loc 1 149 19 view .LVU27
 231 00d4 4852      		subi r20,40
 232 00d6 5C4F      		sbci r21,-4
 233               	.LVL8:
 149:./tmk_core/protocol/lufa/LUFA-git/LUFA/Drivers/USB/Class/Common/HIDParser.c **** 				{
 234               		.loc 1 149 19 view .LVU28
 235 00d8 CB57      		subi r28,lo8(-133)
 236 00da DF4F      		sbci r29,hi8(-133)
 237 00dc 5983      		std Y+1,r21
 238 00de 4883      		st Y,r20
 239 00e0 C558      		subi r28,lo8(133)
 240 00e2 D040      		sbci r29,hi8(133)
 241               	.LVL9:
 242               	.L2:
 149:./tmk_core/protocol/lufa/LUFA-git/LUFA/Drivers/USB/Class/Common/HIDParser.c **** 				{
 243               		.loc 1 149 19 view .LVU29
 244               	.LBE2:
  53:./tmk_core/protocol/lufa/LUFA-git/LUFA/Drivers/USB/Class/Common/HIDParser.c **** 	{
 245               		.loc 1 53 8 is_stmt 1 view .LVU30
 246 00e4 E796      		adiw r28,117-62
 247 00e6 EEAD      		ldd r30,Y+62
 248 00e8 FFAD      		ldd r31,Y+63
 249 00ea E797      		sbiw r28,117-62
 250               	.LVL10:
  53:./tmk_core/protocol/lufa/LUFA-git/LUFA/Drivers/USB/Class/Common/HIDParser.c **** 	{
 251               		.loc 1 53 8 is_stmt 0 view .LVU31
 252 00ec EF2B      		or r30,r31
 253 00ee 01F4      		brne .L53
 283:./tmk_core/protocol/lufa/LUFA-git/LUFA/Drivers/USB/Class/Common/HIDParser.c **** 
 284:./tmk_core/protocol/lufa/LUFA-git/LUFA/Drivers/USB/Class/Common/HIDParser.c **** 					if (ParserData->TotalReportItems == HID_MAX_REPORTITEMS)
 285:./tmk_core/protocol/lufa/LUFA-git/LUFA/Drivers/USB/Class/Common/HIDParser.c **** 					  return HID_PARSE_InsufficientReportItems;
 286:./tmk_core/protocol/lufa/LUFA-git/LUFA/Drivers/USB/Class/Common/HIDParser.c **** 
 287:./tmk_core/protocol/lufa/LUFA-git/LUFA/Drivers/USB/Class/Common/HIDParser.c **** 					memcpy(&ParserData->ReportItems[ParserData->TotalReportItems],
 288:./tmk_core/protocol/lufa/LUFA-git/LUFA/Drivers/USB/Class/Common/HIDParser.c **** 					       &NewReportItem, sizeof(HID_ReportItem_t));
 289:./tmk_core/protocol/lufa/LUFA-git/LUFA/Drivers/USB/Class/Common/HIDParser.c **** 
 290:./tmk_core/protocol/lufa/LUFA-git/LUFA/Drivers/USB/Class/Common/HIDParser.c **** 					if (!(ReportItemData & HID_IOF_CONSTANT) && CALLBACK_HIDParser_FilterHIDReportItem(&NewReportI
 291:./tmk_core/protocol/lufa/LUFA-git/LUFA/Drivers/USB/Class/Common/HIDParser.c **** 					  ParserData->TotalReportItems++;
 292:./tmk_core/protocol/lufa/LUFA-git/LUFA/Drivers/USB/Class/Common/HIDParser.c **** 				}
 293:./tmk_core/protocol/lufa/LUFA-git/LUFA/Drivers/USB/Class/Common/HIDParser.c **** 
 294:./tmk_core/protocol/lufa/LUFA-git/LUFA/Drivers/USB/Class/Common/HIDParser.c **** 				break;
 295:./tmk_core/protocol/lufa/LUFA-git/LUFA/Drivers/USB/Class/Common/HIDParser.c **** 
 296:./tmk_core/protocol/lufa/LUFA-git/LUFA/Drivers/USB/Class/Common/HIDParser.c **** 			default:
 297:./tmk_core/protocol/lufa/LUFA-git/LUFA/Drivers/USB/Class/Common/HIDParser.c **** 				break;
 298:./tmk_core/protocol/lufa/LUFA-git/LUFA/Drivers/USB/Class/Common/HIDParser.c **** 		}
 299:./tmk_core/protocol/lufa/LUFA-git/LUFA/Drivers/USB/Class/Common/HIDParser.c **** 
 300:./tmk_core/protocol/lufa/LUFA-git/LUFA/Drivers/USB/Class/Common/HIDParser.c **** 		if ((HIDReportItem & HID_RI_TYPE_MASK) == HID_RI_TYPE_MAIN)
 301:./tmk_core/protocol/lufa/LUFA-git/LUFA/Drivers/USB/Class/Common/HIDParser.c **** 		{
 302:./tmk_core/protocol/lufa/LUFA-git/LUFA/Drivers/USB/Class/Common/HIDParser.c **** 			UsageMinMax.Minimum = 0;
 303:./tmk_core/protocol/lufa/LUFA-git/LUFA/Drivers/USB/Class/Common/HIDParser.c **** 			UsageMinMax.Maximum = 0;
 304:./tmk_core/protocol/lufa/LUFA-git/LUFA/Drivers/USB/Class/Common/HIDParser.c **** 			UsageListSize       = 0;
 305:./tmk_core/protocol/lufa/LUFA-git/LUFA/Drivers/USB/Class/Common/HIDParser.c **** 		}
 306:./tmk_core/protocol/lufa/LUFA-git/LUFA/Drivers/USB/Class/Common/HIDParser.c **** 	}
 307:./tmk_core/protocol/lufa/LUFA-git/LUFA/Drivers/USB/Class/Common/HIDParser.c **** 
 308:./tmk_core/protocol/lufa/LUFA-git/LUFA/Drivers/USB/Class/Common/HIDParser.c **** 	if (!(ParserData->TotalReportItems))
 254               		.loc 1 308 2 is_stmt 1 view .LVU32
 255               		.loc 1 308 5 is_stmt 0 view .LVU33
 256 00f0 D401      		movw r26,r8
 257 00f2 8C91      		ld r24,X
 258 00f4 8111      		cpse r24,__zero_reg__
 259 00f6 00C0      		rjmp .L66
 309:./tmk_core/protocol/lufa/LUFA-git/LUFA/Drivers/USB/Class/Common/HIDParser.c **** 	  return HID_PARSE_NoUnfilteredReportItems;
 260               		.loc 1 309 11 view .LVU34
 261 00f8 88E0      		ldi r24,lo8(8)
 262 00fa 00C0      		rjmp .L1
 263               	.L53:
 264               	.LBB18:
  55:./tmk_core/protocol/lufa/LUFA-git/LUFA/Drivers/USB/Class/Common/HIDParser.c **** 		uint32_t ReportItemData;
 265               		.loc 1 55 3 is_stmt 1 view .LVU35
  55:./tmk_core/protocol/lufa/LUFA-git/LUFA/Drivers/USB/Class/Common/HIDParser.c **** 		uint32_t ReportItemData;
 266               		.loc 1 55 12 is_stmt 0 view .LVU36
 267 00fc D101      		movw r26,r2
 268 00fe BC91      		ld r27,X
 269 0100 EF96      		adiw r28,126-63
 270 0102 BFAF      		std Y+63,r27
 271 0104 EF97      		sbiw r28,126-63
 272               	.LVL11:
  56:./tmk_core/protocol/lufa/LUFA-git/LUFA/Drivers/USB/Class/Common/HIDParser.c **** 
 273               		.loc 1 56 3 is_stmt 1 view .LVU37
  58:./tmk_core/protocol/lufa/LUFA-git/LUFA/Drivers/USB/Class/Common/HIDParser.c **** 		ReportSize--;
 274               		.loc 1 58 3 view .LVU38
  59:./tmk_core/protocol/lufa/LUFA-git/LUFA/Drivers/USB/Class/Common/HIDParser.c **** 
 275               		.loc 1 59 3 view .LVU39
  61:./tmk_core/protocol/lufa/LUFA-git/LUFA/Drivers/USB/Class/Common/HIDParser.c **** 		{
 276               		.loc 1 61 3 view .LVU40
 277 0106 8B2F      		mov r24,r27
 278 0108 8370      		andi r24,lo8(3)
 279 010a 8230      		cpi r24,lo8(2)
 280 010c 01F4      		brne .+2
 281 010e 00C0      		rjmp .L3
 282               	.LVL12:
  61:./tmk_core/protocol/lufa/LUFA-git/LUFA/Drivers/USB/Class/Common/HIDParser.c **** 		{
 283               		.loc 1 61 3 is_stmt 0 view .LVU41
 284 0110 8330      		cpi r24,lo8(3)
 285 0112 01F4      		brne .+2
 286 0114 00C0      		rjmp .L4
 287 0116 8130      		cpi r24,lo8(1)
 288 0118 01F4      		brne .+2
 289 011a 00C0      		rjmp .L5
  58:./tmk_core/protocol/lufa/LUFA-git/LUFA/Drivers/USB/Class/Common/HIDParser.c **** 		ReportSize--;
 290               		.loc 1 58 13 view .LVU42
 291 011c EFEF      		ldi r30,-1
 292 011e 2E1A      		sub r2,r30
 293 0120 3E0A      		sbc r3,r30
 294               	.LVL13:
  59:./tmk_core/protocol/lufa/LUFA-git/LUFA/Drivers/USB/Class/Common/HIDParser.c **** 
 295               		.loc 1 59 13 view .LVU43
 296 0122 E796      		adiw r28,117-62
 297 0124 2EAD      		ldd r18,Y+62
 298 0126 3FAD      		ldd r19,Y+63
 299 0128 E797      		sbiw r28,117-62
 300               	.LVL14:
  59:./tmk_core/protocol/lufa/LUFA-git/LUFA/Drivers/USB/Class/Common/HIDParser.c **** 
 301               		.loc 1 59 13 view .LVU44
 302 012a 2150      		subi r18,1
 303 012c 3109      		sbc r19,__zero_reg__
 304               	.LVL15:
  59:./tmk_core/protocol/lufa/LUFA-git/LUFA/Drivers/USB/Class/Common/HIDParser.c **** 
 305               		.loc 1 59 13 view .LVU45
 306 012e E796      		adiw r28,117-62
 307 0130 3FAF      		std Y+63,r19
 308 0132 2EAF      		std Y+62,r18
 309 0134 E797      		sbiw r28,117-62
  83:./tmk_core/protocol/lufa/LUFA-git/LUFA/Drivers/USB/Class/Common/HIDParser.c **** 				break;
 310               		.loc 1 83 21 view .LVU46
 311 0136 C12C      		mov r12,__zero_reg__
 312 0138 D12C      		mov r13,__zero_reg__
 313 013a E12C      		mov r14,__zero_reg__
 314 013c F12C      		mov r15,__zero_reg__
 315               	.LVL16:
 316               	.L6:
  87:./tmk_core/protocol/lufa/LUFA-git/LUFA/Drivers/USB/Class/Common/HIDParser.c **** 		{
 317               		.loc 1 87 3 is_stmt 1 view .LVU47
 318 013e EF96      		adiw r28,126-63
 319 0140 1FAD      		ldd r17,Y+63
 320 0142 EF97      		sbiw r28,126-63
 321 0144 1C7F      		andi r17,lo8(-4)
 322 0146 1436      		cpi r17,lo8(100)
 323 0148 01F4      		brne .+2
 324 014a 00C0      		rjmp .L7
  87:./tmk_core/protocol/lufa/LUFA-git/LUFA/Drivers/USB/Class/Common/HIDParser.c **** 		{
 325               		.loc 1 87 3 is_stmt 0 view .LVU48
 326 014c 00F0      		brlo .+2
 327 014e 00C0      		rjmp .L8
 328 0150 1432      		cpi r17,lo8(36)
 329 0152 01F4      		brne .+2
 330 0154 00C0      		rjmp .L9
 331 0156 00F0      		brlo .+2
 332 0158 00C0      		rjmp .L10
 333 015a 1431      		cpi r17,lo8(20)
 334 015c 01F4      		brne .+2
 335 015e 00C0      		rjmp .L11
 336 0160 00F0      		brlo .+2
 337 0162 00C0      		rjmp .L12
 338 0164 1430      		cpi r17,lo8(4)
 339 0166 01F4      		brne .+2
 340 0168 00C0      		rjmp .L13
 341 016a 1830      		cpi r17,lo8(8)
 342 016c 01F4      		brne .+2
 343 016e 00C0      		rjmp .L14
 344               	.LVL17:
 345               	.L15:
 300:./tmk_core/protocol/lufa/LUFA-git/LUFA/Drivers/USB/Class/Common/HIDParser.c **** 		{
 346               		.loc 1 300 3 is_stmt 1 view .LVU49
 347 0170 EF96      		adiw r28,126-63
 348 0172 8FAD      		ldd r24,Y+63
 349 0174 EF97      		sbiw r28,126-63
 350 0176 8C70      		andi r24,lo8(12)
 300:./tmk_core/protocol/lufa/LUFA-git/LUFA/Drivers/USB/Class/Common/HIDParser.c **** 		{
 351               		.loc 1 300 6 is_stmt 0 view .LVU50
 352 0178 01F0      		breq .+2
 353 017a 00C0      		rjmp .L2
 304:./tmk_core/protocol/lufa/LUFA-git/LUFA/Drivers/USB/Class/Common/HIDParser.c **** 		}
 354               		.loc 1 304 24 view .LVU51
 355 017c 00E0      		ldi r16,0
 356               	.LVL18:
 303:./tmk_core/protocol/lufa/LUFA-git/LUFA/Drivers/USB/Class/Common/HIDParser.c **** 			UsageListSize       = 0;
 357               		.loc 1 303 24 view .LVU52
 358 017e E896      		adiw r28,119-63
 359 0180 1FAE      		std Y+63,__zero_reg__
 360 0182 E897      		sbiw r28,119-63
 303:./tmk_core/protocol/lufa/LUFA-git/LUFA/Drivers/USB/Class/Common/HIDParser.c **** 			UsageListSize       = 0;
 361               		.loc 1 303 24 view .LVU53
 362 0184 E996      		adiw r28,120-63
 363 0186 1FAE      		std Y+63,__zero_reg__
 364 0188 E997      		sbiw r28,120-63
 365 018a EA96      		adiw r28,121-63
 366 018c 1FAE      		std Y+63,__zero_reg__
 367 018e EA97      		sbiw r28,121-63
 368 0190 EB96      		adiw r28,122-63
 369 0192 1FAE      		std Y+63,__zero_reg__
 370 0194 EB97      		sbiw r28,122-63
 302:./tmk_core/protocol/lufa/LUFA-git/LUFA/Drivers/USB/Class/Common/HIDParser.c **** 			UsageMinMax.Maximum = 0;
 371               		.loc 1 302 24 view .LVU54
 372 0196 412C      		mov r4,__zero_reg__
 373               	.LVL19:
 302:./tmk_core/protocol/lufa/LUFA-git/LUFA/Drivers/USB/Class/Common/HIDParser.c **** 			UsageMinMax.Maximum = 0;
 374               		.loc 1 302 24 view .LVU55
 375 0198 512C      		mov r5,__zero_reg__
 376 019a 612C      		mov r6,__zero_reg__
 377 019c 712C      		mov r7,__zero_reg__
 302:./tmk_core/protocol/lufa/LUFA-git/LUFA/Drivers/USB/Class/Common/HIDParser.c **** 			UsageMinMax.Maximum = 0;
 378               		.loc 1 302 24 view .LVU56
 379 019e 00C0      		rjmp .L2
 380               	.LVL20:
 381               	.L4:
  64:./tmk_core/protocol/lufa/LUFA-git/LUFA/Drivers/USB/Class/Common/HIDParser.c **** 			                       ((uint16_t)ReportData[1] << 8)  | ReportData[0]);
 382               		.loc 1 64 5 is_stmt 1 view .LVU57
  64:./tmk_core/protocol/lufa/LUFA-git/LUFA/Drivers/USB/Class/Common/HIDParser.c **** 			                       ((uint16_t)ReportData[1] << 8)  | ReportData[0]);
 383               		.loc 1 64 21 is_stmt 0 view .LVU58
 384 01a0 D101      		movw r26,r2
 385 01a2 1196      		adiw r26,1
 386 01a4 CD90      		ld r12,X+
 387 01a6 DD90      		ld r13,X+
 388 01a8 ED90      		ld r14,X+
 389 01aa FC90      		ld r15,X
 390 01ac 1497      		sbiw r26,1+3
 391               	.LVL21:
  66:./tmk_core/protocol/lufa/LUFA-git/LUFA/Drivers/USB/Class/Common/HIDParser.c **** 				ReportData     += 4;
 392               		.loc 1 66 5 is_stmt 1 view .LVU59
  66:./tmk_core/protocol/lufa/LUFA-git/LUFA/Drivers/USB/Class/Common/HIDParser.c **** 				ReportData     += 4;
 393               		.loc 1 66 20 is_stmt 0 view .LVU60
 394 01ae E796      		adiw r28,117-62
 395 01b0 EEAD      		ldd r30,Y+62
 396 01b2 FFAD      		ldd r31,Y+63
 397 01b4 E797      		sbiw r28,117-62
 398 01b6 3597      		sbiw r30,5
 399 01b8 E796      		adiw r28,117-62
 400 01ba FFAF      		std Y+63,r31
 401 01bc EEAF      		std Y+62,r30
 402 01be E797      		sbiw r28,117-62
 403               	.LVL22:
  67:./tmk_core/protocol/lufa/LUFA-git/LUFA/Drivers/USB/Class/Common/HIDParser.c **** 				break;
 404               		.loc 1 67 5 is_stmt 1 view .LVU61
  67:./tmk_core/protocol/lufa/LUFA-git/LUFA/Drivers/USB/Class/Common/HIDParser.c **** 				break;
 405               		.loc 1 67 20 is_stmt 0 view .LVU62
 406 01c0 F5E0      		ldi r31,5
 407 01c2 2F0E      		add r2,r31
 408 01c4 311C      		adc r3,__zero_reg__
 409               	.LVL23:
  68:./tmk_core/protocol/lufa/LUFA-git/LUFA/Drivers/USB/Class/Common/HIDParser.c **** 
 410               		.loc 1 68 5 is_stmt 1 view .LVU63
 411 01c6 00C0      		rjmp .L6
 412               	.LVL24:
 413               	.L3:
  71:./tmk_core/protocol/lufa/LUFA-git/LUFA/Drivers/USB/Class/Common/HIDParser.c **** 				ReportSize     -= 2;
 414               		.loc 1 71 5 view .LVU64
  71:./tmk_core/protocol/lufa/LUFA-git/LUFA/Drivers/USB/Class/Common/HIDParser.c **** 				ReportSize     -= 2;
 415               		.loc 1 71 21 is_stmt 0 view .LVU65
 416 01c8 D101      		movw r26,r2
 417 01ca 1196      		adiw r26,1
 418 01cc CD90      		ld r12,X+
 419 01ce DC90      		ld r13,X
 420 01d0 F12C      		mov r15,__zero_reg__
 421 01d2 E12C      		mov r14,__zero_reg__
 422               	.LVL25:
  72:./tmk_core/protocol/lufa/LUFA-git/LUFA/Drivers/USB/Class/Common/HIDParser.c **** 				ReportData     += 2;
 423               		.loc 1 72 5 is_stmt 1 view .LVU66
  72:./tmk_core/protocol/lufa/LUFA-git/LUFA/Drivers/USB/Class/Common/HIDParser.c **** 				ReportData     += 2;
 424               		.loc 1 72 20 is_stmt 0 view .LVU67
 425 01d4 E796      		adiw r28,117-62
 426 01d6 EEAD      		ldd r30,Y+62
 427 01d8 FFAD      		ldd r31,Y+63
 428 01da E797      		sbiw r28,117-62
 429 01dc 3397      		sbiw r30,3
 430 01de E796      		adiw r28,117-62
 431 01e0 FFAF      		std Y+63,r31
 432 01e2 EEAF      		std Y+62,r30
 433 01e4 E797      		sbiw r28,117-62
 434               	.LVL26:
  73:./tmk_core/protocol/lufa/LUFA-git/LUFA/Drivers/USB/Class/Common/HIDParser.c **** 				break;
 435               		.loc 1 73 5 is_stmt 1 view .LVU68
  73:./tmk_core/protocol/lufa/LUFA-git/LUFA/Drivers/USB/Class/Common/HIDParser.c **** 				break;
 436               		.loc 1 73 20 is_stmt 0 view .LVU69
 437 01e6 F3E0      		ldi r31,3
 438 01e8 2F0E      		add r2,r31
 439 01ea 311C      		adc r3,__zero_reg__
 440               	.LVL27:
  74:./tmk_core/protocol/lufa/LUFA-git/LUFA/Drivers/USB/Class/Common/HIDParser.c **** 
 441               		.loc 1 74 5 is_stmt 1 view .LVU70
 442 01ec 00C0      		rjmp .L6
 443               	.LVL28:
 444               	.L5:
  77:./tmk_core/protocol/lufa/LUFA-git/LUFA/Drivers/USB/Class/Common/HIDParser.c **** 				ReportSize     -= 1;
 445               		.loc 1 77 5 view .LVU71
  77:./tmk_core/protocol/lufa/LUFA-git/LUFA/Drivers/USB/Class/Common/HIDParser.c **** 				ReportSize     -= 1;
 446               		.loc 1 77 21 is_stmt 0 view .LVU72
 447 01ee D101      		movw r26,r2
 448 01f0 1196      		adiw r26,1
 449 01f2 CC90      		ld r12,X
 450 01f4 D12C      		mov r13,__zero_reg__
 451 01f6 F12C      		mov r15,__zero_reg__
 452 01f8 E12C      		mov r14,__zero_reg__
 453               	.LVL29:
  78:./tmk_core/protocol/lufa/LUFA-git/LUFA/Drivers/USB/Class/Common/HIDParser.c **** 				ReportData     += 1;
 454               		.loc 1 78 5 is_stmt 1 view .LVU73
  78:./tmk_core/protocol/lufa/LUFA-git/LUFA/Drivers/USB/Class/Common/HIDParser.c **** 				ReportData     += 1;
 455               		.loc 1 78 20 is_stmt 0 view .LVU74
 456 01fa E796      		adiw r28,117-62
 457 01fc EEAD      		ldd r30,Y+62
 458 01fe FFAD      		ldd r31,Y+63
 459 0200 E797      		sbiw r28,117-62
 460 0202 3297      		sbiw r30,2
 461 0204 E796      		adiw r28,117-62
 462 0206 FFAF      		std Y+63,r31
 463 0208 EEAF      		std Y+62,r30
 464 020a E797      		sbiw r28,117-62
 465               	.LVL30:
  79:./tmk_core/protocol/lufa/LUFA-git/LUFA/Drivers/USB/Class/Common/HIDParser.c **** 				break;
 466               		.loc 1 79 5 is_stmt 1 view .LVU75
  79:./tmk_core/protocol/lufa/LUFA-git/LUFA/Drivers/USB/Class/Common/HIDParser.c **** 				break;
 467               		.loc 1 79 20 is_stmt 0 view .LVU76
 468 020c F2E0      		ldi r31,2
 469 020e 2F0E      		add r2,r31
 470 0210 311C      		adc r3,__zero_reg__
 471               	.LVL31:
  80:./tmk_core/protocol/lufa/LUFA-git/LUFA/Drivers/USB/Class/Common/HIDParser.c **** 
 472               		.loc 1 80 5 is_stmt 1 view .LVU77
 473 0212 00C0      		rjmp .L6
 474               	.LVL32:
 475               	.L12:
  87:./tmk_core/protocol/lufa/LUFA-git/LUFA/Drivers/USB/Class/Common/HIDParser.c **** 		{
 476               		.loc 1 87 3 is_stmt 0 view .LVU78
 477 0214 1831      		cpi r17,lo8(24)
 478 0216 01F0      		breq .+2
 479 0218 00C0      		rjmp .L15
 480 021a 2601      		movw r4,r12
 481               	.LVL33:
  87:./tmk_core/protocol/lufa/LUFA-git/LUFA/Drivers/USB/Class/Common/HIDParser.c **** 		{
 482               		.loc 1 87 3 view .LVU79
 483 021c 3701      		movw r6,r14
 484 021e 00C0      		rjmp .L15
 485               	.LVL34:
 486               	.L10:
  87:./tmk_core/protocol/lufa/LUFA-git/LUFA/Drivers/USB/Class/Common/HIDParser.c **** 		{
 487               		.loc 1 87 3 view .LVU80
 488 0220 1434      		cpi r17,lo8(68)
 489 0222 01F4      		brne .+2
 490 0224 00C0      		rjmp .L16
 491 0226 00F4      		brsh .L17
 492 0228 1832      		cpi r17,lo8(40)
 493 022a 01F4      		brne .+2
 494 022c 00C0      		rjmp .L55
 495 022e 1433      		cpi r17,lo8(52)
 496 0230 01F0      		breq .+2
 497 0232 00C0      		rjmp .L15
 123:./tmk_core/protocol/lufa/LUFA-git/LUFA/Drivers/USB/Class/Common/HIDParser.c **** 				break;
 498               		.loc 1 123 5 is_stmt 1 view .LVU81
 123:./tmk_core/protocol/lufa/LUFA-git/LUFA/Drivers/USB/Class/Common/HIDParser.c **** 				break;
 499               		.loc 1 123 49 is_stmt 0 view .LVU82
 500 0234 F501      		movw r30,r10
 501 0236 C28A      		std Z+18,r12
 502 0238 D38A      		std Z+19,r13
 503 023a E48A      		std Z+20,r14
 504 023c F58A      		std Z+21,r15
 124:./tmk_core/protocol/lufa/LUFA-git/LUFA/Drivers/USB/Class/Common/HIDParser.c **** 
 505               		.loc 1 124 5 is_stmt 1 view .LVU83
 506 023e 00C0      		rjmp .L15
 507               	.L17:
  87:./tmk_core/protocol/lufa/LUFA-git/LUFA/Drivers/USB/Class/Common/HIDParser.c **** 		{
 508               		.loc 1 87 3 is_stmt 0 view .LVU84
 509 0240 1435      		cpi r17,lo8(84)
 510 0242 01F0      		breq .+2
 511 0244 00C0      		rjmp .L15
 131:./tmk_core/protocol/lufa/LUFA-git/LUFA/Drivers/USB/Class/Common/HIDParser.c **** 				break;
 512               		.loc 1 131 5 is_stmt 1 view .LVU85
 131:./tmk_core/protocol/lufa/LUFA-git/LUFA/Drivers/USB/Class/Common/HIDParser.c **** 				break;
 513               		.loc 1 131 49 is_stmt 0 view .LVU86
 514 0246 F501      		movw r30,r10
 515 0248 C186      		std Z+9,r12
 132:./tmk_core/protocol/lufa/LUFA-git/LUFA/Drivers/USB/Class/Common/HIDParser.c **** 
 516               		.loc 1 132 5 is_stmt 1 view .LVU87
 517 024a 00C0      		rjmp .L15
 518               	.L8:
  87:./tmk_core/protocol/lufa/LUFA-git/LUFA/Drivers/USB/Class/Common/HIDParser.c **** 		{
 519               		.loc 1 87 3 is_stmt 0 view .LVU88
 520 024c 103A      		cpi r17,lo8(-96)
 521 024e 01F4      		brne .+2
 522 0250 00C0      		rjmp .L20
 523 0252 00F4      		brsh .L21
 524 0254 1438      		cpi r17,lo8(-124)
 525 0256 01F4      		brne .+2
 526 0258 00C0      		rjmp .L22
 527 025a 00F4      		brsh .L23
 528 025c 1437      		cpi r17,lo8(116)
 529 025e 01F4      		brne .+2
 530 0260 00C0      		rjmp .L24
 531 0262 1038      		cpi r17,lo8(-128)
 532 0264 01F0      		breq .+2
 533 0266 00C0      		rjmp .L15
 534               	.L58:
 535 0268 EE96      		adiw r28,125-63
 536 026a 1FAE      		std Y+63,__zero_reg__
 537 026c EE97      		sbiw r28,125-63
 538               	.LBB10:
 539               	.LBB7:
 290:./tmk_core/protocol/lufa/LUFA-git/LUFA/Drivers/USB/Class/Common/HIDParser.c **** 					  ParserData->TotalReportItems++;
 540               		.loc 1 290 27 view .LVU89
 541 026e A701      		movw r20,r14
 542 0270 9601      		movw r18,r12
 543 0272 2170      		andi r18,1
 544 0274 3327      		clr r19
 545 0276 4427      		clr r20
 546 0278 5527      		clr r21
 547 027a C957      		subi r28,lo8(-135)
 548 027c DF4F      		sbci r29,hi8(-135)
 549 027e 2883      		st Y,r18
 550 0280 3983      		std Y+1,r19
 551 0282 4A83      		std Y+2,r20
 552 0284 5B83      		std Y+3,r21
 553 0286 C758      		subi r28,lo8(135)
 554 0288 D040      		sbci r29,hi8(135)
 555 028a 00C0      		rjmp .L50
 556               	.L23:
 557               	.LBE7:
 558               	.LBE10:
  87:./tmk_core/protocol/lufa/LUFA-git/LUFA/Drivers/USB/Class/Common/HIDParser.c **** 		{
 559               		.loc 1 87 3 view .LVU90
 560 028c 1039      		cpi r17,lo8(-112)
 561 028e 01F0      		breq .L58
 562 0290 1439      		cpi r17,lo8(-108)
 563 0292 01F0      		breq .+2
 564 0294 00C0      		rjmp .L15
 143:./tmk_core/protocol/lufa/LUFA-git/LUFA/Drivers/USB/Class/Common/HIDParser.c **** 				break;
 565               		.loc 1 143 5 is_stmt 1 view .LVU91
 143:./tmk_core/protocol/lufa/LUFA-git/LUFA/Drivers/USB/Class/Common/HIDParser.c **** 				break;
 566               		.loc 1 143 49 is_stmt 0 view .LVU92
 567 0296 D501      		movw r26,r10
 568 0298 5A96      		adiw r26,26
 569 029a CC92      		st X,r12
 144:./tmk_core/protocol/lufa/LUFA-git/LUFA/Drivers/USB/Class/Common/HIDParser.c **** 
 570               		.loc 1 144 5 is_stmt 1 view .LVU93
 571 029c 00C0      		rjmp .L15
 572               	.L21:
  87:./tmk_core/protocol/lufa/LUFA-git/LUFA/Drivers/USB/Class/Common/HIDParser.c **** 		{
 573               		.loc 1 87 3 is_stmt 0 view .LVU94
 574 029e 143B      		cpi r17,lo8(-76)
 575 02a0 01F0      		breq .L27
 576 02a2 00F4      		brsh .L28
 577 02a4 143A      		cpi r17,lo8(-92)
 578 02a6 01F0      		breq .L29
 579 02a8 103B      		cpi r17,lo8(-80)
 580 02aa 01F0      		breq .L58
 581 02ac 00C0      		rjmp .L15
 582               	.L28:
 583 02ae 103C      		cpi r17,lo8(-64)
 584 02b0 01F0      		breq .+2
 585 02b2 00C0      		rjmp .L15
 234:./tmk_core/protocol/lufa/LUFA-git/LUFA/Drivers/USB/Class/Common/HIDParser.c **** 				  return HID_PARSE_UnexpectedEndCollection;
 586               		.loc 1 234 5 is_stmt 1 view .LVU95
 234:./tmk_core/protocol/lufa/LUFA-git/LUFA/Drivers/USB/Class/Common/HIDParser.c **** 				  return HID_PARSE_UnexpectedEndCollection;
 587               		.loc 1 234 8 is_stmt 0 view .LVU96
 588 02b4 E596      		adiw r28,115-62
 589 02b6 EEAD      		ldd r30,Y+62
 590 02b8 FFAD      		ldd r31,Y+63
 591 02ba E597      		sbiw r28,115-62
 592 02bc 3097      		sbiw r30,0
 593 02be 01F4      		brne .+2
 594 02c0 00C0      		rjmp .L65
 237:./tmk_core/protocol/lufa/LUFA-git/LUFA/Drivers/USB/Class/Common/HIDParser.c **** 				break;
 595               		.loc 1 237 5 is_stmt 1 view .LVU97
 237:./tmk_core/protocol/lufa/LUFA-git/LUFA/Drivers/USB/Class/Common/HIDParser.c **** 				break;
 596               		.loc 1 237 24 is_stmt 0 view .LVU98
 597 02c2 2581      		ldd r18,Z+5
 598 02c4 3681      		ldd r19,Z+6
 599 02c6 E596      		adiw r28,115-62
 600 02c8 3FAF      		std Y+63,r19
 601 02ca 2EAF      		std Y+62,r18
 602 02cc E597      		sbiw r28,115-62
 603               	.LVL35:
 238:./tmk_core/protocol/lufa/LUFA-git/LUFA/Drivers/USB/Class/Common/HIDParser.c **** 
 604               		.loc 1 238 5 is_stmt 1 view .LVU99
 605 02ce 00C0      		rjmp .L15
 606               	.LVL36:
 607               	.L29:
  90:./tmk_core/protocol/lufa/LUFA-git/LUFA/Drivers/USB/Class/Common/HIDParser.c **** 				  return HID_PARSE_HIDStackOverflow;
 608               		.loc 1 90 5 view .LVU100
  90:./tmk_core/protocol/lufa/LUFA-git/LUFA/Drivers/USB/Class/Common/HIDParser.c **** 				  return HID_PARSE_HIDStackOverflow;
 609               		.loc 1 90 8 is_stmt 0 view .LVU101
 610 02d0 CE01      		movw r24,r28
 611 02d2 4D96      		adiw r24,29
 612 02d4 A816      		cp r10,r24
 613 02d6 B906      		cpc r11,r25
 614 02d8 01F4      		brne .+2
 615 02da 00C0      		rjmp .L59
  93:./tmk_core/protocol/lufa/LUFA-git/LUFA/Drivers/USB/Class/Common/HIDParser.c **** 				       CurrStateTable,
 616               		.loc 1 93 5 is_stmt 1 view .LVU102
  93:./tmk_core/protocol/lufa/LUFA-git/LUFA/Drivers/USB/Class/Common/HIDParser.c **** 				       CurrStateTable,
 617               		.loc 1 93 28 is_stmt 0 view .LVU103
 618 02dc C501      		movw r24,r10
 619 02de 4C96      		adiw r24,28
  93:./tmk_core/protocol/lufa/LUFA-git/LUFA/Drivers/USB/Class/Common/HIDParser.c **** 				       CurrStateTable,
 620               		.loc 1 93 5 view .LVU104
 621 02e0 2AE2      		ldi r18,lo8(42)
 622 02e2 F501      		movw r30,r10
 623 02e4 DC01      		movw r26,r24
 624               		0:
 625 02e6 0190      		ld r0,Z+
 626 02e8 0D92      		st X+,r0
 627 02ea 2A95      		dec r18
 628 02ec 01F4      		brne 0b
  97:./tmk_core/protocol/lufa/LUFA-git/LUFA/Drivers/USB/Class/Common/HIDParser.c **** 				break;
 629               		.loc 1 97 5 is_stmt 1 view .LVU105
 630               	.LVL37:
  98:./tmk_core/protocol/lufa/LUFA-git/LUFA/Drivers/USB/Class/Common/HIDParser.c **** 
 631               		.loc 1 98 5 view .LVU106
  97:./tmk_core/protocol/lufa/LUFA-git/LUFA/Drivers/USB/Class/Common/HIDParser.c **** 				break;
 632               		.loc 1 97 19 is_stmt 0 view .LVU107
 633 02ee 5C01      		movw r10,r24
  98:./tmk_core/protocol/lufa/LUFA-git/LUFA/Drivers/USB/Class/Common/HIDParser.c **** 
 634               		.loc 1 98 5 view .LVU108
 635 02f0 00C0      		rjmp .L15
 636               	.LVL38:
 637               	.L27:
 101:./tmk_core/protocol/lufa/LUFA-git/LUFA/Drivers/USB/Class/Common/HIDParser.c **** 				  return HID_PARSE_HIDStackUnderflow;
 638               		.loc 1 101 5 is_stmt 1 view .LVU109
 101:./tmk_core/protocol/lufa/LUFA-git/LUFA/Drivers/USB/Class/Common/HIDParser.c **** 				  return HID_PARSE_HIDStackUnderflow;
 639               		.loc 1 101 8 is_stmt 0 view .LVU110
 640 02f2 CE01      		movw r24,r28
 641 02f4 0196      		adiw r24,1
 642 02f6 8A15      		cp r24,r10
 643 02f8 9B05      		cpc r25,r11
 644 02fa 01F4      		brne .+2
 645 02fc 00C0      		rjmp .L60
 104:./tmk_core/protocol/lufa/LUFA-git/LUFA/Drivers/USB/Class/Common/HIDParser.c **** 				break;
 646               		.loc 1 104 5 is_stmt 1 view .LVU111
 104:./tmk_core/protocol/lufa/LUFA-git/LUFA/Drivers/USB/Class/Common/HIDParser.c **** 				break;
 647               		.loc 1 104 19 is_stmt 0 view .LVU112
 648 02fe 2CE1      		ldi r18,28
 649 0300 A21A      		sub r10,r18
 650 0302 B108      		sbc r11,__zero_reg__
 651               	.LVL39:
 105:./tmk_core/protocol/lufa/LUFA-git/LUFA/Drivers/USB/Class/Common/HIDParser.c **** 
 652               		.loc 1 105 5 is_stmt 1 view .LVU113
 653 0304 00C0      		rjmp .L15
 654               	.L13:
 108:./tmk_core/protocol/lufa/LUFA-git/LUFA/Drivers/USB/Class/Common/HIDParser.c **** 				  CurrStateTable->Attributes.Usage.Page = (ReportItemData >> 16);
 655               		.loc 1 108 5 view .LVU114
 111:./tmk_core/protocol/lufa/LUFA-git/LUFA/Drivers/USB/Class/Common/HIDParser.c **** 				break;
 656               		.loc 1 111 5 view .LVU115
 111:./tmk_core/protocol/lufa/LUFA-git/LUFA/Drivers/USB/Class/Common/HIDParser.c **** 				break;
 657               		.loc 1 111 49 is_stmt 0 view .LVU116
 658 0306 D501      		movw r26,r10
 659 0308 1296      		adiw r26,1+1
 660 030a DC92      		st X,r13
 661 030c CE92      		st -X,r12
 662 030e 1197      		sbiw r26,1
 112:./tmk_core/protocol/lufa/LUFA-git/LUFA/Drivers/USB/Class/Common/HIDParser.c **** 
 663               		.loc 1 112 5 is_stmt 1 view .LVU117
 664 0310 00C0      		rjmp .L15
 665               	.L11:
 115:./tmk_core/protocol/lufa/LUFA-git/LUFA/Drivers/USB/Class/Common/HIDParser.c **** 				break;
 666               		.loc 1 115 5 view .LVU118
 115:./tmk_core/protocol/lufa/LUFA-git/LUFA/Drivers/USB/Class/Common/HIDParser.c **** 				break;
 667               		.loc 1 115 49 is_stmt 0 view .LVU119
 668 0312 F501      		movw r30,r10
 669 0314 C286      		std Z+10,r12
 670 0316 D386      		std Z+11,r13
 671 0318 E486      		std Z+12,r14
 672 031a F586      		std Z+13,r15
 116:./tmk_core/protocol/lufa/LUFA-git/LUFA/Drivers/USB/Class/Common/HIDParser.c **** 
 673               		.loc 1 116 5 is_stmt 1 view .LVU120
 674 031c 00C0      		rjmp .L15
 675               	.L9:
 119:./tmk_core/protocol/lufa/LUFA-git/LUFA/Drivers/USB/Class/Common/HIDParser.c **** 				break;
 676               		.loc 1 119 5 view .LVU121
 119:./tmk_core/protocol/lufa/LUFA-git/LUFA/Drivers/USB/Class/Common/HIDParser.c **** 				break;
 677               		.loc 1 119 49 is_stmt 0 view .LVU122
 678 031e D501      		movw r26,r10
 679 0320 1E96      		adiw r26,14
 680 0322 CD92      		st X+,r12
 681 0324 DD92      		st X+,r13
 682 0326 ED92      		st X+,r14
 683 0328 FC92      		st X,r15
 684 032a 5197      		sbiw r26,14+3
 120:./tmk_core/protocol/lufa/LUFA-git/LUFA/Drivers/USB/Class/Common/HIDParser.c **** 
 685               		.loc 1 120 5 is_stmt 1 view .LVU123
 686 032c 00C0      		rjmp .L15
 687               	.L16:
 127:./tmk_core/protocol/lufa/LUFA-git/LUFA/Drivers/USB/Class/Common/HIDParser.c **** 				break;
 688               		.loc 1 127 5 view .LVU124
 127:./tmk_core/protocol/lufa/LUFA-git/LUFA/Drivers/USB/Class/Common/HIDParser.c **** 				break;
 689               		.loc 1 127 49 is_stmt 0 view .LVU125
 690 032e D501      		movw r26,r10
 691 0330 5696      		adiw r26,22
 692 0332 CD92      		st X+,r12
 693 0334 DD92      		st X+,r13
 694 0336 ED92      		st X+,r14
 695 0338 FC92      		st X,r15
 696 033a 5997      		sbiw r26,22+3
 128:./tmk_core/protocol/lufa/LUFA-git/LUFA/Drivers/USB/Class/Common/HIDParser.c **** 
 697               		.loc 1 128 5 is_stmt 1 view .LVU126
 698 033c 00C0      		rjmp .L15
 699               	.L7:
 135:./tmk_core/protocol/lufa/LUFA-git/LUFA/Drivers/USB/Class/Common/HIDParser.c **** 				break;
 700               		.loc 1 135 5 view .LVU127
 135:./tmk_core/protocol/lufa/LUFA-git/LUFA/Drivers/USB/Class/Common/HIDParser.c **** 				break;
 701               		.loc 1 135 49 is_stmt 0 view .LVU128
 702 033e D501      		movw r26,r10
 703 0340 1596      		adiw r26,5
 704 0342 CD92      		st X+,r12
 705 0344 DD92      		st X+,r13
 706 0346 ED92      		st X+,r14
 707 0348 FC92      		st X,r15
 708 034a 1897      		sbiw r26,5+3
 136:./tmk_core/protocol/lufa/LUFA-git/LUFA/Drivers/USB/Class/Common/HIDParser.c **** 
 709               		.loc 1 136 5 is_stmt 1 view .LVU129
 710 034c 00C0      		rjmp .L15
 711               	.L24:
 139:./tmk_core/protocol/lufa/LUFA-git/LUFA/Drivers/USB/Class/Common/HIDParser.c **** 				break;
 712               		.loc 1 139 5 view .LVU130
 139:./tmk_core/protocol/lufa/LUFA-git/LUFA/Drivers/USB/Class/Common/HIDParser.c **** 				break;
 713               		.loc 1 139 49 is_stmt 0 view .LVU131
 714 034e F501      		movw r30,r10
 715 0350 C082      		st Z,r12
 140:./tmk_core/protocol/lufa/LUFA-git/LUFA/Drivers/USB/Class/Common/HIDParser.c **** 
 716               		.loc 1 140 5 is_stmt 1 view .LVU132
 717 0352 00C0      		rjmp .L15
 718               	.L22:
 147:./tmk_core/protocol/lufa/LUFA-git/LUFA/Drivers/USB/Class/Common/HIDParser.c **** 
 719               		.loc 1 147 5 view .LVU133
 147:./tmk_core/protocol/lufa/LUFA-git/LUFA/Drivers/USB/Class/Common/HIDParser.c **** 
 720               		.loc 1 147 49 is_stmt 0 view .LVU134
 721 0354 9C2D      		mov r25,r12
 722 0356 F501      		movw r30,r10
 723 0358 C38E      		std Z+27,r12
 149:./tmk_core/protocol/lufa/LUFA-git/LUFA/Drivers/USB/Class/Common/HIDParser.c **** 				{
 724               		.loc 1 149 5 is_stmt 1 view .LVU135
 149:./tmk_core/protocol/lufa/LUFA-git/LUFA/Drivers/USB/Class/Common/HIDParser.c **** 				{
 725               		.loc 1 149 8 is_stmt 0 view .LVU136
 726 035a CB57      		subi r28,lo8(-133)
 727 035c DF4F      		sbci r29,hi8(-133)
 728 035e A881      		ld r26,Y
 729 0360 B981      		ldd r27,Y+1
 730 0362 C558      		subi r28,lo8(133)
 731 0364 D040      		sbci r29,hi8(133)
 732 0366 8C91      		ld r24,X
 733 0368 8823      		tst r24
 734 036a 01F4      		brne .+2
 735 036c 00C0      		rjmp .L32
 736               	.LBB11:
 153:./tmk_core/protocol/lufa/LUFA-git/LUFA/Drivers/USB/Class/Common/HIDParser.c **** 					{
 737               		.loc 1 153 40 view .LVU137
 738 036e C158      		subi r28,lo8(-127)
 739 0370 DF4F      		sbci r29,hi8(-127)
 740 0372 E881      		ld r30,Y
 741 0374 F981      		ldd r31,Y+1
 742 0376 CF57      		subi r28,lo8(127)
 743 0378 D040      		sbci r29,hi8(127)
 744 037a 8081      		ld r24,Z
 745 037c F401      		movw r30,r8
 746 037e E057      		subi r30,112
 747 0380 FC4F      		sbci r31,-4
 748 0382 30E0      		ldi r19,0
 749 0384 20E0      		ldi r18,0
 750               	.L33:
 751               	.LVL40:
 153:./tmk_core/protocol/lufa/LUFA-git/LUFA/Drivers/USB/Class/Common/HIDParser.c **** 					{
 752               		.loc 1 153 26 is_stmt 1 discriminator 1 view .LVU138
 153:./tmk_core/protocol/lufa/LUFA-git/LUFA/Drivers/USB/Class/Common/HIDParser.c **** 					{
 753               		.loc 1 153 6 is_stmt 0 discriminator 1 view .LVU139
 754 0386 2817      		cp r18,r24
 755 0388 00F0      		brlo .L34
 756               	.LBE11:
 164:./tmk_core/protocol/lufa/LUFA-git/LUFA/Drivers/USB/Class/Common/HIDParser.c **** 						  return HID_PARSE_InsufficientReportIDItems;
 757               		.loc 1 164 7 is_stmt 1 view .LVU140
 164:./tmk_core/protocol/lufa/LUFA-git/LUFA/Drivers/USB/Class/Common/HIDParser.c **** 						  return HID_PARSE_InsufficientReportIDItems;
 758               		.loc 1 164 10 is_stmt 0 view .LVU141
 759 038a 8A30      		cpi r24,lo8(10)
 760 038c 01F4      		brne .+2
 761 038e 00C0      		rjmp .L62
 167:./tmk_core/protocol/lufa/LUFA-git/LUFA/Drivers/USB/Class/Common/HIDParser.c **** 						memset(CurrReportIDInfo, 0x00, sizeof(HID_ReportSizeInfo_t));
 762               		.loc 1 167 7 is_stmt 1 view .LVU142
 167:./tmk_core/protocol/lufa/LUFA-git/LUFA/Drivers/USB/Class/Common/HIDParser.c **** 						memset(CurrReportIDInfo, 0x00, sizeof(HID_ReportSizeInfo_t));
 763               		.loc 1 167 83 is_stmt 0 view .LVU143
 764 0390 91E0      		ldi r25,lo8(1)
 765 0392 980F      		add r25,r24
 766 0394 C158      		subi r28,lo8(-127)
 767 0396 DF4F      		sbci r29,hi8(-127)
 768 0398 A881      		ld r26,Y
 769 039a B981      		ldd r27,Y+1
 770 039c CF57      		subi r28,lo8(127)
 771 039e D040      		sbci r29,hi8(127)
 772 03a0 9C93      		st X,r25
 167:./tmk_core/protocol/lufa/LUFA-git/LUFA/Drivers/USB/Class/Common/HIDParser.c **** 						memset(CurrReportIDInfo, 0x00, sizeof(HID_ReportSizeInfo_t));
 773               		.loc 1 167 24 view .LVU144
 774 03a2 97E0      		ldi r25,lo8(7)
 775 03a4 9401      		movw r18,r8
 776               	.LVL41:
 167:./tmk_core/protocol/lufa/LUFA-git/LUFA/Drivers/USB/Class/Common/HIDParser.c **** 						memset(CurrReportIDInfo, 0x00, sizeof(HID_ReportSizeInfo_t));
 777               		.loc 1 167 24 view .LVU145
 778 03a6 899F      		mul r24,r25
 779 03a8 200D      		add r18,r0
 780 03aa 311D      		adc r19,r1
 781 03ac 1124      		clr __zero_reg__
 782 03ae F901      		movw r30,r18
 783 03b0 E057      		subi r30,112
 784 03b2 FC4F      		sbci r31,-4
 785 03b4 ED96      		adiw r28,123-62
 786 03b6 FFAF      		std Y+63,r31
 787 03b8 EEAF      		std Y+62,r30
 788 03ba ED97      		sbiw r28,123-62
 789               	.LVL42:
 168:./tmk_core/protocol/lufa/LUFA-git/LUFA/Drivers/USB/Class/Common/HIDParser.c **** 					}
 790               		.loc 1 168 7 is_stmt 1 view .LVU146
 791               		0:
 792 03bc 1192      		st Z+,__zero_reg__
 793 03be 9A95      		dec r25
 794 03c0 01F4      		brne 0b
 795               	.LVL43:
 168:./tmk_core/protocol/lufa/LUFA-git/LUFA/Drivers/USB/Class/Common/HIDParser.c **** 					}
 796               		.loc 1 168 7 is_stmt 0 view .LVU147
 797 03c2 00C0      		rjmp .L32
 798               	.LVL44:
 799               	.L34:
 800               	.LBB12:
 155:./tmk_core/protocol/lufa/LUFA-git/LUFA/Drivers/USB/Class/Common/HIDParser.c **** 						{
 801               		.loc 1 155 7 is_stmt 1 view .LVU148
 155:./tmk_core/protocol/lufa/LUFA-git/LUFA/Drivers/USB/Class/Common/HIDParser.c **** 						{
 802               		.loc 1 155 39 is_stmt 0 view .LVU149
 803 03c4 6081      		ld r22,Z
 155:./tmk_core/protocol/lufa/LUFA-git/LUFA/Drivers/USB/Class/Common/HIDParser.c **** 						{
 804               		.loc 1 155 10 view .LVU150
 805 03c6 A901      		movw r20,r18
 806 03c8 4F5F      		subi r20,-1
 807 03ca 5F4F      		sbci r21,-1
 808 03cc 3796      		adiw r30,7
 809 03ce 9613      		cpse r25,r22
 810 03d0 00C0      		rjmp .L61
 157:./tmk_core/protocol/lufa/LUFA-git/LUFA/Drivers/USB/Class/Common/HIDParser.c **** 							break;
 811               		.loc 1 157 8 is_stmt 1 view .LVU151
 157:./tmk_core/protocol/lufa/LUFA-git/LUFA/Drivers/USB/Class/Common/HIDParser.c **** 							break;
 812               		.loc 1 157 25 is_stmt 0 view .LVU152
 813 03d2 47E0      		ldi r20,lo8(7)
 814 03d4 429F      		mul r20,r18
 815 03d6 C001      		movw r24,r0
 816 03d8 439F      		mul r20,r19
 817 03da 900D      		add r25,r0
 818 03dc 1124      		clr __zero_reg__
 819 03de 8057      		subi r24,112
 820 03e0 9C4F      		sbci r25,-4
 821 03e2 9401      		movw r18,r8
 822               	.LVL45:
 157:./tmk_core/protocol/lufa/LUFA-git/LUFA/Drivers/USB/Class/Common/HIDParser.c **** 							break;
 823               		.loc 1 157 25 view .LVU153
 824 03e4 280F      		add r18,r24
 825 03e6 391F      		adc r19,r25
 826 03e8 ED96      		adiw r28,123-62
 827 03ea 3FAF      		std Y+63,r19
 828 03ec 2EAF      		std Y+62,r18
 829 03ee ED97      		sbiw r28,123-62
 830               	.LVL46:
 158:./tmk_core/protocol/lufa/LUFA-git/LUFA/Drivers/USB/Class/Common/HIDParser.c **** 						}
 831               		.loc 1 158 8 is_stmt 1 view .LVU154
 158:./tmk_core/protocol/lufa/LUFA-git/LUFA/Drivers/USB/Class/Common/HIDParser.c **** 						}
 832               		.loc 1 158 8 is_stmt 0 view .LVU155
 833               	.LBE12:
 162:./tmk_core/protocol/lufa/LUFA-git/LUFA/Drivers/USB/Class/Common/HIDParser.c **** 					{
 834               		.loc 1 162 6 is_stmt 1 view .LVU156
 835               	.L32:
 172:./tmk_core/protocol/lufa/LUFA-git/LUFA/Drivers/USB/Class/Common/HIDParser.c **** 
 836               		.loc 1 172 5 view .LVU157
 172:./tmk_core/protocol/lufa/LUFA-git/LUFA/Drivers/USB/Class/Common/HIDParser.c **** 
 837               		.loc 1 172 32 is_stmt 0 view .LVU158
 838 03f0 81E0      		ldi r24,lo8(1)
 839 03f2 CB57      		subi r28,lo8(-133)
 840 03f4 DF4F      		sbci r29,hi8(-133)
 841 03f6 A881      		ld r26,Y
 842 03f8 B981      		ldd r27,Y+1
 843 03fa C558      		subi r28,lo8(133)
 844 03fc D040      		sbci r29,hi8(133)
 845 03fe 8C93      		st X,r24
 174:./tmk_core/protocol/lufa/LUFA-git/LUFA/Drivers/USB/Class/Common/HIDParser.c **** 				break;
 846               		.loc 1 174 5 is_stmt 1 view .LVU159
 174:./tmk_core/protocol/lufa/LUFA-git/LUFA/Drivers/USB/Class/Common/HIDParser.c **** 				break;
 847               		.loc 1 174 48 is_stmt 0 view .LVU160
 848 0400 F501      		movw r30,r10
 849 0402 838D      		ldd r24,Z+27
 174:./tmk_core/protocol/lufa/LUFA-git/LUFA/Drivers/USB/Class/Common/HIDParser.c **** 				break;
 850               		.loc 1 174 32 view .LVU161
 851 0404 ED96      		adiw r28,123-62
 852 0406 AEAD      		ldd r26,Y+62
 853 0408 BFAD      		ldd r27,Y+63
 854 040a ED97      		sbiw r28,123-62
 855               	.LVL47:
 174:./tmk_core/protocol/lufa/LUFA-git/LUFA/Drivers/USB/Class/Common/HIDParser.c **** 				break;
 856               		.loc 1 174 32 view .LVU162
 857 040c 8C93      		st X,r24
 175:./tmk_core/protocol/lufa/LUFA-git/LUFA/Drivers/USB/Class/Common/HIDParser.c **** 
 858               		.loc 1 175 5 is_stmt 1 view .LVU163
 859 040e 00C0      		rjmp .L15
 860               	.LVL48:
 861               	.L61:
 862               	.LBB13:
 175:./tmk_core/protocol/lufa/LUFA-git/LUFA/Drivers/USB/Class/Common/HIDParser.c **** 
 863               		.loc 1 175 5 is_stmt 0 view .LVU164
 864 0410 9A01      		movw r18,r20
 865               	.LVL49:
 175:./tmk_core/protocol/lufa/LUFA-git/LUFA/Drivers/USB/Class/Common/HIDParser.c **** 
 866               		.loc 1 175 5 view .LVU165
 867 0412 00C0      		rjmp .L33
 868               	.LVL50:
 869               	.L14:
 175:./tmk_core/protocol/lufa/LUFA-git/LUFA/Drivers/USB/Class/Common/HIDParser.c **** 
 870               		.loc 1 175 5 view .LVU166
 871               	.LBE13:
 178:./tmk_core/protocol/lufa/LUFA-git/LUFA/Drivers/USB/Class/Common/HIDParser.c **** 				  return HID_PARSE_UsageListOverflow;
 872               		.loc 1 178 5 is_stmt 1 view .LVU167
 178:./tmk_core/protocol/lufa/LUFA-git/LUFA/Drivers/USB/Class/Common/HIDParser.c **** 				  return HID_PARSE_UsageListOverflow;
 873               		.loc 1 178 8 is_stmt 0 view .LVU168
 874 0414 0830      		cpi r16,lo8(8)
 875 0416 01F4      		brne .+2
 876 0418 00C0      		rjmp .L63
 181:./tmk_core/protocol/lufa/LUFA-git/LUFA/Drivers/USB/Class/Common/HIDParser.c **** 				break;
 877               		.loc 1 181 5 is_stmt 1 view .LVU169
 878               	.LVL51:
 181:./tmk_core/protocol/lufa/LUFA-git/LUFA/Drivers/USB/Class/Common/HIDParser.c **** 				break;
 879               		.loc 1 181 28 is_stmt 0 view .LVU170
 880 041a E02F      		mov r30,r16
 881 041c F0E0      		ldi r31,0
 181:./tmk_core/protocol/lufa/LUFA-git/LUFA/Drivers/USB/Class/Common/HIDParser.c **** 				break;
 882               		.loc 1 181 32 view .LVU171
 883 041e EE0F      		lsl r30
 884 0420 FF1F      		rol r31
 885 0422 23E6      		ldi r18,lo8(99)
 886 0424 30E0      		ldi r19,0
 887 0426 2C0F      		add r18,r28
 888 0428 3D1F      		adc r19,r29
 889 042a E20F      		add r30,r18
 890 042c F31F      		adc r31,r19
 891 042e D182      		std Z+1,r13
 892 0430 C082      		st Z,r12
 182:./tmk_core/protocol/lufa/LUFA-git/LUFA/Drivers/USB/Class/Common/HIDParser.c **** 
 893               		.loc 1 182 5 is_stmt 1 view .LVU172
 181:./tmk_core/protocol/lufa/LUFA-git/LUFA/Drivers/USB/Class/Common/HIDParser.c **** 				break;
 894               		.loc 1 181 28 is_stmt 0 view .LVU173
 895 0432 0F5F      		subi r16,lo8(-(1))
 896               	.LVL52:
 182:./tmk_core/protocol/lufa/LUFA-git/LUFA/Drivers/USB/Class/Common/HIDParser.c **** 
 897               		.loc 1 182 5 view .LVU174
 898 0434 00C0      		rjmp .L15
 899               	.L20:
 193:./tmk_core/protocol/lufa/LUFA-git/LUFA/Drivers/USB/Class/Common/HIDParser.c **** 				{
 900               		.loc 1 193 5 is_stmt 1 view .LVU175
 193:./tmk_core/protocol/lufa/LUFA-git/LUFA/Drivers/USB/Class/Common/HIDParser.c **** 				{
 901               		.loc 1 193 8 is_stmt 0 view .LVU176
 902 0436 E596      		adiw r28,115-62
 903 0438 4EAD      		ldd r20,Y+62
 904 043a 5FAD      		ldd r21,Y+63
 905 043c E597      		sbiw r28,115-62
 906 043e 452B      		or r20,r21
 907 0440 01F4      		brne .L35
 195:./tmk_core/protocol/lufa/LUFA-git/LUFA/Drivers/USB/Class/Common/HIDParser.c **** 				}
 908               		.loc 1 195 6 is_stmt 1 view .LVU177
 195:./tmk_core/protocol/lufa/LUFA-git/LUFA/Drivers/USB/Class/Common/HIDParser.c **** 				}
 909               		.loc 1 195 25 is_stmt 0 view .LVU178
 910 0442 C401      		movw r24,r8
 911 0444 875B      		subi r24,-73
 912 0446 9C4F      		sbci r25,-4
 913 0448 E596      		adiw r28,115-62
 914 044a 9FAF      		std Y+63,r25
 915 044c 8EAF      		std Y+62,r24
 916 044e E597      		sbiw r28,115-62
 917               	.LVL53:
 918               	.L36:
 214:./tmk_core/protocol/lufa/LUFA-git/LUFA/Drivers/USB/Class/Common/HIDParser.c **** 				CurrCollectionPath->Usage.Page = CurrStateTable->Attributes.Usage.Page;
 919               		.loc 1 214 5 is_stmt 1 view .LVU179
 214:./tmk_core/protocol/lufa/LUFA-git/LUFA/Drivers/USB/Class/Common/HIDParser.c **** 				CurrCollectionPath->Usage.Page = CurrStateTable->Attributes.Usage.Page;
 920               		.loc 1 214 36 is_stmt 0 view .LVU180
 921 0450 E596      		adiw r28,115-62
 922 0452 EEAD      		ldd r30,Y+62
 923 0454 FFAD      		ldd r31,Y+63
 924 0456 E597      		sbiw r28,115-62
 925               	.LVL54:
 214:./tmk_core/protocol/lufa/LUFA-git/LUFA/Drivers/USB/Class/Common/HIDParser.c **** 				CurrCollectionPath->Usage.Page = CurrStateTable->Attributes.Usage.Page;
 926               		.loc 1 214 36 view .LVU181
 927 0458 C082      		st Z,r12
 215:./tmk_core/protocol/lufa/LUFA-git/LUFA/Drivers/USB/Class/Common/HIDParser.c **** 
 928               		.loc 1 215 5 is_stmt 1 view .LVU182
 215:./tmk_core/protocol/lufa/LUFA-git/LUFA/Drivers/USB/Class/Common/HIDParser.c **** 
 929               		.loc 1 215 70 is_stmt 0 view .LVU183
 930 045a D501      		movw r26,r10
 931 045c 1196      		adiw r26,1
 932 045e 8D91      		ld r24,X+
 933 0460 9C91      		ld r25,X
 215:./tmk_core/protocol/lufa/LUFA-git/LUFA/Drivers/USB/Class/Common/HIDParser.c **** 
 934               		.loc 1 215 36 view .LVU184
 935 0462 9283      		std Z+2,r25
 936 0464 8183      		std Z+1,r24
 217:./tmk_core/protocol/lufa/LUFA-git/LUFA/Drivers/USB/Class/Common/HIDParser.c **** 				{
 937               		.loc 1 217 5 is_stmt 1 view .LVU185
 217:./tmk_core/protocol/lufa/LUFA-git/LUFA/Drivers/USB/Class/Common/HIDParser.c **** 				{
 938               		.loc 1 217 8 is_stmt 0 view .LVU186
 939 0466 0023      		tst r16
 940 0468 01F0      		breq .L39
 219:./tmk_core/protocol/lufa/LUFA-git/LUFA/Drivers/USB/Class/Common/HIDParser.c **** 
 941               		.loc 1 219 6 is_stmt 1 view .LVU187
 219:./tmk_core/protocol/lufa/LUFA-git/LUFA/Drivers/USB/Class/Common/HIDParser.c **** 
 942               		.loc 1 219 38 is_stmt 0 view .LVU188
 943 046a A596      		adiw r28,99-62
 944 046c 8EAD      		ldd r24,Y+62
 945 046e 9FAD      		ldd r25,Y+63
 946 0470 A597      		sbiw r28,99-62
 947 0472 9483      		std Z+4,r25
 948 0474 8383      		std Z+3,r24
 221:./tmk_core/protocol/lufa/LUFA-git/LUFA/Drivers/USB/Class/Common/HIDParser.c **** 					  UsageList[i - 1] = UsageList[i];
 949               		.loc 1 221 6 is_stmt 1 view .LVU189
 950               	.LBB14:
 221:./tmk_core/protocol/lufa/LUFA-git/LUFA/Drivers/USB/Class/Common/HIDParser.c **** 					  UsageList[i - 1] = UsageList[i];
 951               		.loc 1 221 11 view .LVU190
 952               	.LVL55:
 222:./tmk_core/protocol/lufa/LUFA-git/LUFA/Drivers/USB/Class/Common/HIDParser.c **** 
 953               		.loc 1 222 25 is_stmt 0 view .LVU191
 954 0476 0150      		subi r16,lo8(-(-1))
 955               	.LVL56:
 222:./tmk_core/protocol/lufa/LUFA-git/LUFA/Drivers/USB/Class/Common/HIDParser.c **** 
 956               		.loc 1 222 25 view .LVU192
 957 0478 402F      		mov r20,r16
 958 047a 50E0      		ldi r21,0
 959 047c 440F      		lsl r20
 960 047e 551F      		rol r21
 961 0480 CF57      		subi r28,lo8(-129)
 962 0482 DF4F      		sbci r29,hi8(-129)
 963 0484 6881      		ld r22,Y
 964 0486 7981      		ldd r23,Y+1
 965 0488 C158      		subi r28,lo8(129)
 966 048a D040      		sbci r29,hi8(129)
 967 048c CE01      		movw r24,r28
 968 048e 8D59      		subi r24,-99
 969 0490 9F4F      		sbci r25,-1
 970 0492 0E94 0000 		call memmove
 971               	.LVL57:
 222:./tmk_core/protocol/lufa/LUFA-git/LUFA/Drivers/USB/Class/Common/HIDParser.c **** 
 972               		.loc 1 222 25 view .LVU193
 973               	.LBE14:
 224:./tmk_core/protocol/lufa/LUFA-git/LUFA/Drivers/USB/Class/Common/HIDParser.c **** 				}
 974               		.loc 1 224 6 is_stmt 1 view .LVU194
 224:./tmk_core/protocol/lufa/LUFA-git/LUFA/Drivers/USB/Class/Common/HIDParser.c **** 				}
 975               		.loc 1 224 6 is_stmt 0 view .LVU195
 976 0496 00C0      		rjmp .L15
 977               	.LVL58:
 978               	.L35:
 979               	.LBB15:
 199:./tmk_core/protocol/lufa/LUFA-git/LUFA/Drivers/USB/Class/Common/HIDParser.c **** 
 980               		.loc 1 199 6 is_stmt 1 view .LVU196
 201:./tmk_core/protocol/lufa/LUFA-git/LUFA/Drivers/USB/Class/Common/HIDParser.c **** 
 981               		.loc 1 201 6 view .LVU197
 201:./tmk_core/protocol/lufa/LUFA-git/LUFA/Drivers/USB/Class/Common/HIDParser.c **** 
 982               		.loc 1 201 25 is_stmt 0 view .LVU198
 983 0498 F401      		movw r30,r8
 984 049a E05B      		subi r30,-80
 985 049c FC4F      		sbci r31,-4
 986               	.LVL59:
 203:./tmk_core/protocol/lufa/LUFA-git/LUFA/Drivers/USB/Class/Common/HIDParser.c **** 					{
 987               		.loc 1 203 6 is_stmt 1 view .LVU199
 988 049e 9401      		movw r18,r8
 989 04a0 2857      		subi r18,120
 990 04a2 3C4F      		sbci r19,-4
 991               	.L37:
 203:./tmk_core/protocol/lufa/LUFA-git/LUFA/Drivers/USB/Class/Common/HIDParser.c **** 					{
 992               		.loc 1 203 12 view .LVU200
 993 04a4 8581      		ldd r24,Z+5
 994 04a6 9681      		ldd r25,Z+6
 995 04a8 892B      		or r24,r25
 996 04aa 01F4      		brne .L38
 211:./tmk_core/protocol/lufa/LUFA-git/LUFA/Drivers/USB/Class/Common/HIDParser.c **** 				}
 997               		.loc 1 211 6 view .LVU201
 211:./tmk_core/protocol/lufa/LUFA-git/LUFA/Drivers/USB/Class/Common/HIDParser.c **** 				}
 998               		.loc 1 211 33 is_stmt 0 view .LVU202
 999 04ac E596      		adiw r28,115-62
 1000 04ae AEAD      		ldd r26,Y+62
 1001 04b0 BFAD      		ldd r27,Y+63
 1002 04b2 E597      		sbiw r28,115-62
 1003 04b4 B683      		std Z+6,r27
 1004 04b6 A583      		std Z+5,r26
 1005 04b8 E596      		adiw r28,115-62
 1006 04ba FFAF      		std Y+63,r31
 1007 04bc EEAF      		std Y+62,r30
 1008 04be E597      		sbiw r28,115-62
 1009               	.LVL60:
 211:./tmk_core/protocol/lufa/LUFA-git/LUFA/Drivers/USB/Class/Common/HIDParser.c **** 				}
 1010               		.loc 1 211 33 view .LVU203
 1011 04c0 00C0      		rjmp .L36
 1012               	.LVL61:
 1013               	.L38:
 205:./tmk_core/protocol/lufa/LUFA-git/LUFA/Drivers/USB/Class/Common/HIDParser.c **** 						  return HID_PARSE_InsufficientCollectionPaths;
 1014               		.loc 1 205 7 is_stmt 1 view .LVU204
 205:./tmk_core/protocol/lufa/LUFA-git/LUFA/Drivers/USB/Class/Common/HIDParser.c **** 						  return HID_PARSE_InsufficientCollectionPaths;
 1015               		.loc 1 205 10 is_stmt 0 view .LVU205
 1016 04c2 E217      		cp r30,r18
 1017 04c4 F307      		cpc r31,r19
 1018 04c6 01F4      		brne .+2
 1019 04c8 00C0      		rjmp .L64
 208:./tmk_core/protocol/lufa/LUFA-git/LUFA/Drivers/USB/Class/Common/HIDParser.c **** 					}
 1020               		.loc 1 208 7 is_stmt 1 view .LVU206
 208:./tmk_core/protocol/lufa/LUFA-git/LUFA/Drivers/USB/Class/Common/HIDParser.c **** 					}
 1021               		.loc 1 208 25 is_stmt 0 view .LVU207
 1022 04ca 3796      		adiw r30,7
 1023               	.LVL62:
 208:./tmk_core/protocol/lufa/LUFA-git/LUFA/Drivers/USB/Class/Common/HIDParser.c **** 					}
 1024               		.loc 1 208 25 view .LVU208
 1025 04cc 00C0      		rjmp .L37
 1026               	.LVL63:
 1027               	.L39:
 208:./tmk_core/protocol/lufa/LUFA-git/LUFA/Drivers/USB/Class/Common/HIDParser.c **** 					}
 1028               		.loc 1 208 25 view .LVU209
 1029               	.LBE15:
 226:./tmk_core/protocol/lufa/LUFA-git/LUFA/Drivers/USB/Class/Common/HIDParser.c **** 				{
 1030               		.loc 1 226 10 is_stmt 1 view .LVU210
 226:./tmk_core/protocol/lufa/LUFA-git/LUFA/Drivers/USB/Class/Common/HIDParser.c **** 				{
 1031               		.loc 1 226 13 is_stmt 0 view .LVU211
 1032 04ce EB96      		adiw r28,119-60
 1033 04d0 2CAD      		ldd r18,Y+60
 1034 04d2 3DAD      		ldd r19,Y+61
 1035 04d4 4EAD      		ldd r20,Y+62
 1036 04d6 5FAD      		ldd r21,Y+63
 1037 04d8 EB97      		sbiw r28,119-60
 1038 04da 2415      		cp r18,r4
 1039 04dc 3505      		cpc r19,r5
 1040 04de 4605      		cpc r20,r6
 1041 04e0 5705      		cpc r21,r7
 1042 04e2 00F4      		brsh .+2
 1043 04e4 00C0      		rjmp .L15
 228:./tmk_core/protocol/lufa/LUFA-git/LUFA/Drivers/USB/Class/Common/HIDParser.c **** 				}
 1044               		.loc 1 228 6 is_stmt 1 view .LVU212
 1045               	.LVL64:
 228:./tmk_core/protocol/lufa/LUFA-git/LUFA/Drivers/USB/Class/Common/HIDParser.c **** 				}
 1046               		.loc 1 228 38 is_stmt 0 view .LVU213
 1047 04e6 E596      		adiw r28,115-62
 1048 04e8 AEAD      		ldd r26,Y+62
 1049 04ea BFAD      		ldd r27,Y+63
 1050 04ec E597      		sbiw r28,115-62
 1051 04ee 1496      		adiw r26,3+1
 1052 04f0 5C92      		st X,r5
 1053 04f2 4E92      		st -X,r4
 1054 04f4 1397      		sbiw r26,3
 228:./tmk_core/protocol/lufa/LUFA-git/LUFA/Drivers/USB/Class/Common/HIDParser.c **** 				}
 1055               		.loc 1 228 59 view .LVU214
 1056 04f6 BFEF      		ldi r27,-1
 1057 04f8 4B1A      		sub r4,r27
 1058 04fa 5B0A      		sbc r5,r27
 1059 04fc 6B0A      		sbc r6,r27
 1060 04fe 7B0A      		sbc r7,r27
 1061               	.LVL65:
 228:./tmk_core/protocol/lufa/LUFA-git/LUFA/Drivers/USB/Class/Common/HIDParser.c **** 				}
 1062               		.loc 1 228 59 view .LVU215
 1063 0500 00C0      		rjmp .L15
 1064               	.LVL66:
 1065               	.L40:
 1066               	.LBB16:
 1067               	.LBB8:
 264:./tmk_core/protocol/lufa/LUFA-git/LUFA/Drivers/USB/Class/Common/HIDParser.c **** 					{
 1068               		.loc 1 264 11 is_stmt 1 view .LVU216
 264:./tmk_core/protocol/lufa/LUFA-git/LUFA/Drivers/USB/Class/Common/HIDParser.c **** 					{
 1069               		.loc 1 264 14 is_stmt 0 view .LVU217
 1070 0502 EB96      		adiw r28,119-60
 1071 0504 2CAD      		ldd r18,Y+60
 1072 0506 3DAD      		ldd r19,Y+61
 1073 0508 4EAD      		ldd r20,Y+62
 1074 050a 5FAD      		ldd r21,Y+63
 1075 050c EB97      		sbiw r28,119-60
 1076 050e 2415      		cp r18,r4
 1077 0510 3505      		cpc r19,r5
 1078 0512 4605      		cpc r20,r6
 1079 0514 5705      		cpc r21,r7
 1080 0516 00F4      		brsh .+2
 1081 0518 00C0      		rjmp .L41
 266:./tmk_core/protocol/lufa/LUFA-git/LUFA/Drivers/USB/Class/Common/HIDParser.c **** 					}
 1082               		.loc 1 266 7 is_stmt 1 view .LVU218
 1083               	.LVL67:
 266:./tmk_core/protocol/lufa/LUFA-git/LUFA/Drivers/USB/Class/Common/HIDParser.c **** 					}
 1084               		.loc 1 266 44 is_stmt 0 view .LVU219
 1085 051a 2696      		adiw r28,68-62
 1086 051c 5FAE      		std Y+63,r5
 1087 051e 4EAE      		std Y+62,r4
 1088 0520 2697      		sbiw r28,68-62
 266:./tmk_core/protocol/lufa/LUFA-git/LUFA/Drivers/USB/Class/Common/HIDParser.c **** 					}
 1089               		.loc 1 266 65 view .LVU220
 1090 0522 3FEF      		ldi r19,-1
 1091 0524 431A      		sub r4,r19
 1092 0526 530A      		sbc r5,r19
 1093 0528 630A      		sbc r6,r19
 1094 052a 730A      		sbc r7,r19
 1095               	.LVL68:
 266:./tmk_core/protocol/lufa/LUFA-git/LUFA/Drivers/USB/Class/Common/HIDParser.c **** 					}
 1096               		.loc 1 266 65 view .LVU221
 1097 052c 00C0      		rjmp .L41
 1098               	.LVL69:
 1099               	.L42:
 273:./tmk_core/protocol/lufa/LUFA-git/LUFA/Drivers/USB/Class/Common/HIDParser.c **** 					  NewReportItem.ItemType = HID_REPORT_ITEM_Out;
 1100               		.loc 1 273 11 is_stmt 1 view .LVU222
 273:./tmk_core/protocol/lufa/LUFA-git/LUFA/Drivers/USB/Class/Common/HIDParser.c **** 					  NewReportItem.ItemType = HID_REPORT_ITEM_Out;
 1101               		.loc 1 273 14 is_stmt 0 view .LVU223
 1102 052e 1039      		cpi r17,lo8(-112)
 1103 0530 01F4      		brne .L44
 274:./tmk_core/protocol/lufa/LUFA-git/LUFA/Drivers/USB/Class/Common/HIDParser.c **** 					else
 1104               		.loc 1 274 8 is_stmt 1 view .LVU224
 274:./tmk_core/protocol/lufa/LUFA-git/LUFA/Drivers/USB/Class/Common/HIDParser.c **** 					else
 1105               		.loc 1 274 31 is_stmt 0 view .LVU225
 1106 0532 41E0      		ldi r20,lo8(1)
 1107 0534 4BAF      		std Y+59,r20
 1108 0536 00C0      		rjmp .L43
 1109               	.L44:
 276:./tmk_core/protocol/lufa/LUFA-git/LUFA/Drivers/USB/Class/Common/HIDParser.c **** 
 1110               		.loc 1 276 8 is_stmt 1 view .LVU226
 276:./tmk_core/protocol/lufa/LUFA-git/LUFA/Drivers/USB/Class/Common/HIDParser.c **** 
 1111               		.loc 1 276 31 is_stmt 0 view .LVU227
 1112 0538 52E0      		ldi r21,lo8(2)
 1113 053a 5BAF      		std Y+59,r21
 1114 053c 00C0      		rjmp .L43
 1115               	.L46:
 287:./tmk_core/protocol/lufa/LUFA-git/LUFA/Drivers/USB/Class/Common/HIDParser.c **** 					       &NewReportItem, sizeof(HID_ReportItem_t));
 1116               		.loc 1 287 6 is_stmt 1 view .LVU228
 1117 053e EAE2      		ldi r30,lo8(42)
 1118 0540 8E9F      		mul r24,r30
 1119 0542 A00D      		add r26,r0
 1120 0544 B11D      		adc r27,r1
 1121 0546 1124      		clr __zero_reg__
 1122 0548 1196      		adiw r26,1
 1123 054a FE01      		movw r30,r28
 1124 054c F996      		adiw r30,57
 1125 054e 8AE2      		ldi r24,lo8(42)
 1126               		0:
 1127 0550 0190      		ld r0,Z+
 1128 0552 0D92      		st X+,r0
 1129 0554 8A95      		dec r24
 1130 0556 01F4      		brne 0b
 290:./tmk_core/protocol/lufa/LUFA-git/LUFA/Drivers/USB/Class/Common/HIDParser.c **** 					  ParserData->TotalReportItems++;
 1131               		.loc 1 290 6 view .LVU229
 290:./tmk_core/protocol/lufa/LUFA-git/LUFA/Drivers/USB/Class/Common/HIDParser.c **** 					  ParserData->TotalReportItems++;
 1132               		.loc 1 290 9 is_stmt 0 view .LVU230
 1133 0558 C957      		subi r28,lo8(-135)
 1134 055a DF4F      		sbci r29,hi8(-135)
 1135 055c 2881      		ld r18,Y
 1136 055e 3981      		ldd r19,Y+1
 1137 0560 4A81      		ldd r20,Y+2
 1138 0562 5B81      		ldd r21,Y+3
 1139 0564 C758      		subi r28,lo8(135)
 1140 0566 D040      		sbci r29,hi8(135)
 1141 0568 232B      		or r18,r19
 1142 056a 242B      		or r18,r20
 1143 056c 252B      		or r18,r21
 1144 056e 01F4      		brne .L48
 290:./tmk_core/protocol/lufa/LUFA-git/LUFA/Drivers/USB/Class/Common/HIDParser.c **** 					  ParserData->TotalReportItems++;
 1145               		.loc 1 290 50 discriminator 1 view .LVU231
 1146 0570 CE01      		movw r24,r28
 1147 0572 C996      		adiw r24,57
 1148 0574 0E94 0000 		call CALLBACK_HIDParser_FilterHIDReportItem
 1149               	.LVL70:
 290:./tmk_core/protocol/lufa/LUFA-git/LUFA/Drivers/USB/Class/Common/HIDParser.c **** 					  ParserData->TotalReportItems++;
 1150               		.loc 1 290 47 discriminator 1 view .LVU232
 1151 0578 8823      		tst r24
 1152 057a 01F0      		breq .L48
 291:./tmk_core/protocol/lufa/LUFA-git/LUFA/Drivers/USB/Class/Common/HIDParser.c **** 				}
 1153               		.loc 1 291 8 is_stmt 1 view .LVU233
 291:./tmk_core/protocol/lufa/LUFA-git/LUFA/Drivers/USB/Class/Common/HIDParser.c **** 				}
 1154               		.loc 1 291 36 is_stmt 0 view .LVU234
 1155 057c D401      		movw r26,r8
 1156 057e 8C91      		ld r24,X
 1157 0580 8F5F      		subi r24,lo8(-(1))
 1158 0582 8C93      		st X,r24
 1159               	.L48:
 291:./tmk_core/protocol/lufa/LUFA-git/LUFA/Drivers/USB/Class/Common/HIDParser.c **** 				}
 1160               		.loc 1 291 36 view .LVU235
 1161               	.LBE8:
 243:./tmk_core/protocol/lufa/LUFA-git/LUFA/Drivers/USB/Class/Common/HIDParser.c **** 				{
 1162               		.loc 1 243 82 is_stmt 1 view .LVU236
 243:./tmk_core/protocol/lufa/LUFA-git/LUFA/Drivers/USB/Class/Common/HIDParser.c **** 				{
 1163               		.loc 1 243 95 is_stmt 0 view .LVU237
 1164 0584 EE96      		adiw r28,125-63
 1165 0586 BFAD      		ldd r27,Y+63
 1166 0588 EE97      		sbiw r28,125-63
 1167 058a BF5F      		subi r27,lo8(-(1))
 1168 058c EE96      		adiw r28,125-63
 1169 058e BFAF      		std Y+63,r27
 1170 0590 EE97      		sbiw r28,125-63
 1171               	.LVL71:
 1172               	.L50:
 243:./tmk_core/protocol/lufa/LUFA-git/LUFA/Drivers/USB/Class/Common/HIDParser.c **** 				{
 1173               		.loc 1 243 37 is_stmt 1 discriminator 1 view .LVU238
 243:./tmk_core/protocol/lufa/LUFA-git/LUFA/Drivers/USB/Class/Common/HIDParser.c **** 				{
 1174               		.loc 1 243 5 is_stmt 0 discriminator 1 view .LVU239
 1175 0592 D501      		movw r26,r10
 1176 0594 5A96      		adiw r26,26
 1177 0596 8C91      		ld r24,X
 1178 0598 EE96      		adiw r28,125-63
 1179 059a BFAD      		ldd r27,Y+63
 1180 059c EE97      		sbiw r28,125-63
 1181 059e B817      		cp r27,r24
 1182 05a0 00F0      		brlo .+2
 1183 05a2 00C0      		rjmp .L15
 1184               	.LBB9:
 245:./tmk_core/protocol/lufa/LUFA-git/LUFA/Drivers/USB/Class/Common/HIDParser.c **** 
 1185               		.loc 1 245 6 is_stmt 1 view .LVU240
 247:./tmk_core/protocol/lufa/LUFA-git/LUFA/Drivers/USB/Class/Common/HIDParser.c **** 					       &CurrStateTable->Attributes,
 1186               		.loc 1 247 6 view .LVU241
 1187 05a4 8AE1      		ldi r24,lo8(26)
 1188 05a6 F501      		movw r30,r10
 1189 05a8 DE01      		movw r26,r28
 1190 05aa AF5B      		subi r26,-65
 1191 05ac BF4F      		sbci r27,-1
 1192               		0:
 1193 05ae 0190      		ld r0,Z+
 1194 05b0 0D92      		st X+,r0
 1195 05b2 8A95      		dec r24
 1196 05b4 01F4      		brne 0b
 251:./tmk_core/protocol/lufa/LUFA-git/LUFA/Drivers/USB/Class/Common/HIDParser.c **** 					NewReportItem.CollectionPath = CurrCollectionPath;
 1197               		.loc 1 251 6 view .LVU242
 251:./tmk_core/protocol/lufa/LUFA-git/LUFA/Drivers/USB/Class/Common/HIDParser.c **** 					NewReportItem.CollectionPath = CurrCollectionPath;
 1198               		.loc 1 251 35 is_stmt 0 view .LVU243
 1199 05b6 DDAE      		std Y+61,r13
 1200 05b8 CCAE      		std Y+60,r12
 252:./tmk_core/protocol/lufa/LUFA-git/LUFA/Drivers/USB/Class/Common/HIDParser.c **** 					NewReportItem.ReportID       = CurrStateTable->ReportID;
 1201               		.loc 1 252 6 is_stmt 1 view .LVU244
 252:./tmk_core/protocol/lufa/LUFA-git/LUFA/Drivers/USB/Class/Common/HIDParser.c **** 					NewReportItem.ReportID       = CurrStateTable->ReportID;
 1202               		.loc 1 252 35 is_stmt 0 view .LVU245
 1203 05ba E596      		adiw r28,115-62
 1204 05bc 4EAD      		ldd r20,Y+62
 1205 05be 5FAD      		ldd r21,Y+63
 1206 05c0 E597      		sbiw r28,115-62
 1207 05c2 2196      		adiw r28,63-62
 1208 05c4 5FAF      		std Y+63,r21
 1209 05c6 4EAF      		std Y+62,r20
 1210 05c8 2197      		sbiw r28,63-62
 253:./tmk_core/protocol/lufa/LUFA-git/LUFA/Drivers/USB/Class/Common/HIDParser.c **** 
 1211               		.loc 1 253 6 is_stmt 1 view .LVU246
 253:./tmk_core/protocol/lufa/LUFA-git/LUFA/Drivers/USB/Class/Common/HIDParser.c **** 
 1212               		.loc 1 253 35 is_stmt 0 view .LVU247
 1213 05ca D501      		movw r26,r10
 1214 05cc 5B96      		adiw r26,27
 1215 05ce 8C91      		ld r24,X
 1216 05d0 8EAF      		std Y+62,r24
 255:./tmk_core/protocol/lufa/LUFA-git/LUFA/Drivers/USB/Class/Common/HIDParser.c **** 					{
 1217               		.loc 1 255 6 is_stmt 1 view .LVU248
 255:./tmk_core/protocol/lufa/LUFA-git/LUFA/Drivers/USB/Class/Common/HIDParser.c **** 					{
 1218               		.loc 1 255 9 is_stmt 0 view .LVU249
 1219 05d2 0023      		tst r16
 1220 05d4 01F4      		brne .+2
 1221 05d6 00C0      		rjmp .L40
 257:./tmk_core/protocol/lufa/LUFA-git/LUFA/Drivers/USB/Class/Common/HIDParser.c **** 
 1222               		.loc 1 257 7 is_stmt 1 view .LVU250
 257:./tmk_core/protocol/lufa/LUFA-git/LUFA/Drivers/USB/Class/Common/HIDParser.c **** 
 1223               		.loc 1 257 44 is_stmt 0 view .LVU251
 1224 05d8 A596      		adiw r28,99-62
 1225 05da 8EAD      		ldd r24,Y+62
 1226 05dc 9FAD      		ldd r25,Y+63
 1227 05de A597      		sbiw r28,99-62
 1228 05e0 2696      		adiw r28,68-62
 1229 05e2 9FAF      		std Y+63,r25
 1230 05e4 8EAF      		std Y+62,r24
 1231 05e6 2697      		sbiw r28,68-62
 259:./tmk_core/protocol/lufa/LUFA-git/LUFA/Drivers/USB/Class/Common/HIDParser.c **** 						  UsageList[i - 1] = UsageList[i];
 1232               		.loc 1 259 7 is_stmt 1 view .LVU252
 1233               	.LBB6:
 259:./tmk_core/protocol/lufa/LUFA-git/LUFA/Drivers/USB/Class/Common/HIDParser.c **** 						  UsageList[i - 1] = UsageList[i];
 1234               		.loc 1 259 12 view .LVU253
 1235               	.LVL72:
 260:./tmk_core/protocol/lufa/LUFA-git/LUFA/Drivers/USB/Class/Common/HIDParser.c **** 
 1236               		.loc 1 260 26 is_stmt 0 view .LVU254
 1237 05e8 0150      		subi r16,lo8(-(-1))
 1238               	.LVL73:
 260:./tmk_core/protocol/lufa/LUFA-git/LUFA/Drivers/USB/Class/Common/HIDParser.c **** 
 1239               		.loc 1 260 26 view .LVU255
 1240 05ea 402F      		mov r20,r16
 1241 05ec 50E0      		ldi r21,0
 1242 05ee 440F      		lsl r20
 1243 05f0 551F      		rol r21
 1244 05f2 CF57      		subi r28,lo8(-129)
 1245 05f4 DF4F      		sbci r29,hi8(-129)
 1246 05f6 6881      		ld r22,Y
 1247 05f8 7981      		ldd r23,Y+1
 1248 05fa C158      		subi r28,lo8(129)
 1249 05fc D040      		sbci r29,hi8(129)
 1250 05fe CE01      		movw r24,r28
 1251 0600 8D59      		subi r24,-99
 1252 0602 9F4F      		sbci r25,-1
 1253 0604 0E94 0000 		call memmove
 1254               	.LVL74:
 260:./tmk_core/protocol/lufa/LUFA-git/LUFA/Drivers/USB/Class/Common/HIDParser.c **** 
 1255               		.loc 1 260 26 view .LVU256
 1256               	.LBE6:
 262:./tmk_core/protocol/lufa/LUFA-git/LUFA/Drivers/USB/Class/Common/HIDParser.c **** 					}
 1257               		.loc 1 262 7 is_stmt 1 view .LVU257
 1258               	.L41:
 269:./tmk_core/protocol/lufa/LUFA-git/LUFA/Drivers/USB/Class/Common/HIDParser.c **** 
 1259               		.loc 1 269 6 view .LVU258
 271:./tmk_core/protocol/lufa/LUFA-git/LUFA/Drivers/USB/Class/Common/HIDParser.c **** 					  NewReportItem.ItemType = HID_REPORT_ITEM_In;
 1260               		.loc 1 271 6 view .LVU259
 271:./tmk_core/protocol/lufa/LUFA-git/LUFA/Drivers/USB/Class/Common/HIDParser.c **** 					  NewReportItem.ItemType = HID_REPORT_ITEM_In;
 1261               		.loc 1 271 9 is_stmt 0 view .LVU260
 1262 0608 1038      		cpi r17,lo8(-128)
 1263 060a 01F0      		breq .+2
 1264 060c 00C0      		rjmp .L42
 272:./tmk_core/protocol/lufa/LUFA-git/LUFA/Drivers/USB/Class/Common/HIDParser.c **** 					else if (ItemTypeTag == HID_RI_OUTPUT(0))
 1265               		.loc 1 272 8 is_stmt 1 view .LVU261
 272:./tmk_core/protocol/lufa/LUFA-git/LUFA/Drivers/USB/Class/Common/HIDParser.c **** 					else if (ItemTypeTag == HID_RI_OUTPUT(0))
 1266               		.loc 1 272 31 is_stmt 0 view .LVU262
 1267 060e 1BAE      		std Y+59,__zero_reg__
 1268               	.L43:
 278:./tmk_core/protocol/lufa/LUFA-git/LUFA/Drivers/USB/Class/Common/HIDParser.c **** 
 1269               		.loc 1 278 6 is_stmt 1 view .LVU263
 278:./tmk_core/protocol/lufa/LUFA-git/LUFA/Drivers/USB/Class/Common/HIDParser.c **** 
 1270               		.loc 1 278 78 is_stmt 0 view .LVU264
 1271 0610 EBAD      		ldd r30,Y+59
 1272 0612 F0E0      		ldi r31,0
 278:./tmk_core/protocol/lufa/LUFA-git/LUFA/Drivers/USB/Class/Common/HIDParser.c **** 
 1273               		.loc 1 278 64 view .LVU265
 1274 0614 EE0F      		lsl r30
 1275 0616 FF1F      		rol r31
 1276 0618 ED96      		adiw r28,123-62
 1277 061a 8EAD      		ldd r24,Y+62
 1278 061c 9FAD      		ldd r25,Y+63
 1279 061e ED97      		sbiw r28,123-62
 1280 0620 E80F      		add r30,r24
 1281 0622 F91F      		adc r31,r25
 1282 0624 8181      		ldd r24,Z+1
 1283 0626 9281      		ldd r25,Z+2
 278:./tmk_core/protocol/lufa/LUFA-git/LUFA/Drivers/USB/Class/Common/HIDParser.c **** 
 1284               		.loc 1 278 30 view .LVU266
 1285 0628 9AAF      		std Y+58,r25
 1286 062a 89AF      		std Y+57,r24
 280:./tmk_core/protocol/lufa/LUFA-git/LUFA/Drivers/USB/Class/Common/HIDParser.c **** 
 1287               		.loc 1 280 6 is_stmt 1 view .LVU267
 280:./tmk_core/protocol/lufa/LUFA-git/LUFA/Drivers/USB/Class/Common/HIDParser.c **** 
 1288               		.loc 1 280 92 is_stmt 0 view .LVU268
 1289 062c D501      		movw r26,r10
 1290 062e 2C91      		ld r18,X
 280:./tmk_core/protocol/lufa/LUFA-git/LUFA/Drivers/USB/Class/Common/HIDParser.c **** 
 1291               		.loc 1 280 63 view .LVU269
 1292 0630 8181      		ldd r24,Z+1
 1293 0632 9281      		ldd r25,Z+2
 1294 0634 820F      		add r24,r18
 1295 0636 911D      		adc r25,__zero_reg__
 1296 0638 9283      		std Z+2,r25
 1297 063a 8183      		std Z+1,r24
 282:./tmk_core/protocol/lufa/LUFA-git/LUFA/Drivers/USB/Class/Common/HIDParser.c **** 
 1298               		.loc 1 282 6 is_stmt 1 view .LVU270
 282:./tmk_core/protocol/lufa/LUFA-git/LUFA/Drivers/USB/Class/Common/HIDParser.c **** 
 1299               		.loc 1 282 42 is_stmt 0 view .LVU271
 1300 063c EBAD      		ldd r30,Y+59
 1301 063e F0E0      		ldi r31,0
 1302 0640 EE0F      		lsl r30
 1303 0642 FF1F      		rol r31
 1304 0644 ED96      		adiw r28,123-62
 1305 0646 2EAD      		ldd r18,Y+62
 1306 0648 3FAD      		ldd r19,Y+63
 1307 064a ED97      		sbiw r28,123-62
 1308 064c E20F      		add r30,r18
 1309 064e F31F      		adc r31,r19
 1310 0650 CD57      		subi r28,lo8(-131)
 1311 0652 DF4F      		sbci r29,hi8(-131)
 1312 0654 A881      		ld r26,Y
 1313 0656 B981      		ldd r27,Y+1
 1314 0658 C358      		subi r28,lo8(131)
 1315 065a D040      		sbci r29,hi8(131)
 1316 065c 2D91      		ld r18,X+
 1317 065e 3C91      		ld r19,X
 1318 0660 8181      		ldd r24,Z+1
 1319 0662 9281      		ldd r25,Z+2
 1320 0664 8217      		cp r24,r18
 1321 0666 9307      		cpc r25,r19
 1322 0668 00F4      		brsh .L45
 1323 066a C901      		movw r24,r18
 1324               	.L45:
 282:./tmk_core/protocol/lufa/LUFA-git/LUFA/Drivers/USB/Class/Common/HIDParser.c **** 
 1325               		.loc 1 282 40 view .LVU272
 1326 066c CD57      		subi r28,lo8(-131)
 1327 066e DF4F      		sbci r29,hi8(-131)
 1328 0670 E881      		ld r30,Y
 1329 0672 F981      		ldd r31,Y+1
 1330 0674 C358      		subi r28,lo8(131)
 1331 0676 D040      		sbci r29,hi8(131)
 1332 0678 9183      		std Z+1,r25
 1333 067a 8083      		st Z,r24
 284:./tmk_core/protocol/lufa/LUFA-git/LUFA/Drivers/USB/Class/Common/HIDParser.c **** 					  return HID_PARSE_InsufficientReportItems;
 1334               		.loc 1 284 6 is_stmt 1 view .LVU273
 284:./tmk_core/protocol/lufa/LUFA-git/LUFA/Drivers/USB/Class/Common/HIDParser.c **** 					  return HID_PARSE_InsufficientReportItems;
 1335               		.loc 1 284 20 is_stmt 0 view .LVU274
 1336 067c D401      		movw r26,r8
 1337 067e 8C91      		ld r24,X
 284:./tmk_core/protocol/lufa/LUFA-git/LUFA/Drivers/USB/Class/Common/HIDParser.c **** 					  return HID_PARSE_InsufficientReportItems;
 1338               		.loc 1 284 9 view .LVU275
 1339 0680 8431      		cpi r24,lo8(20)
 1340 0682 01F0      		breq .+2
 1341 0684 00C0      		rjmp .L46
 285:./tmk_core/protocol/lufa/LUFA-git/LUFA/Drivers/USB/Class/Common/HIDParser.c **** 
 1342               		.loc 1 285 8 is_stmt 1 view .LVU276
 285:./tmk_core/protocol/lufa/LUFA-git/LUFA/Drivers/USB/Class/Common/HIDParser.c **** 
 1343               		.loc 1 285 15 is_stmt 0 view .LVU277
 1344 0686 83E0      		ldi r24,lo8(3)
 1345               	.LVL75:
 1346               	.L1:
 1347               	/* epilogue start */
 285:./tmk_core/protocol/lufa/LUFA-git/LUFA/Drivers/USB/Class/Common/HIDParser.c **** 
 1348               		.loc 1 285 15 view .LVU278
 1349               	.LBE9:
 1350               	.LBE16:
 1351               	.LBE18:
 310:./tmk_core/protocol/lufa/LUFA-git/LUFA/Drivers/USB/Class/Common/HIDParser.c **** 
 311:./tmk_core/protocol/lufa/LUFA-git/LUFA/Drivers/USB/Class/Common/HIDParser.c **** 	return HID_PARSE_Successful;
 312:./tmk_core/protocol/lufa/LUFA-git/LUFA/Drivers/USB/Class/Common/HIDParser.c **** }
 1352               		.loc 1 312 1 view .LVU279
 1353 0688 C657      		subi r28,118
 1354 068a DF4F      		sbci r29,-1
 1355 068c 0FB6      		in __tmp_reg__,__SREG__
 1356 068e F894      		cli
 1357 0690 DEBF      		out __SP_H__,r29
 1358 0692 0FBE      		out __SREG__,__tmp_reg__
 1359 0694 CDBF      		out __SP_L__,r28
 1360 0696 DF91      		pop r29
 1361 0698 CF91      		pop r28
 1362 069a 1F91      		pop r17
 1363 069c 0F91      		pop r16
 1364               	.LVL76:
 1365               		.loc 1 312 1 view .LVU280
 1366 069e FF90      		pop r15
 1367 06a0 EF90      		pop r14
 1368 06a2 DF90      		pop r13
 1369 06a4 CF90      		pop r12
 1370 06a6 BF90      		pop r11
 1371 06a8 AF90      		pop r10
 1372               	.LVL77:
 1373               		.loc 1 312 1 view .LVU281
 1374 06aa 9F90      		pop r9
 1375 06ac 8F90      		pop r8
 1376               	.LVL78:
 1377               		.loc 1 312 1 view .LVU282
 1378 06ae 7F90      		pop r7
 1379 06b0 6F90      		pop r6
 1380 06b2 5F90      		pop r5
 1381 06b4 4F90      		pop r4
 1382               	.LVL79:
 1383               		.loc 1 312 1 view .LVU283
 1384 06b6 3F90      		pop r3
 1385 06b8 2F90      		pop r2
 1386               	.LVL80:
 1387               		.loc 1 312 1 view .LVU284
 1388 06ba 0895      		ret
 1389               	.LVL81:
 1390               	.L55:
 1391               	.LBB19:
 189:./tmk_core/protocol/lufa/LUFA-git/LUFA/Drivers/USB/Class/Common/HIDParser.c **** 				break;
 1392               		.loc 1 189 25 view .LVU285
 1393 06bc EB96      		adiw r28,119-60
 1394 06be CCAE      		std Y+60,r12
 1395 06c0 DDAE      		std Y+61,r13
 1396 06c2 EEAE      		std Y+62,r14
 1397 06c4 FFAE      		std Y+63,r15
 1398 06c6 EB97      		sbiw r28,119-60
 189:./tmk_core/protocol/lufa/LUFA-git/LUFA/Drivers/USB/Class/Common/HIDParser.c **** 				break;
 1399               		.loc 1 189 25 view .LVU286
 1400 06c8 00C0      		rjmp .L15
 1401               	.L59:
  91:./tmk_core/protocol/lufa/LUFA-git/LUFA/Drivers/USB/Class/Common/HIDParser.c **** 
 1402               		.loc 1 91 14 view .LVU287
 1403 06ca 81E0      		ldi r24,lo8(1)
 1404 06cc 00C0      		rjmp .L1
 1405               	.L60:
 102:./tmk_core/protocol/lufa/LUFA-git/LUFA/Drivers/USB/Class/Common/HIDParser.c **** 
 1406               		.loc 1 102 14 view .LVU288
 1407 06ce 82E0      		ldi r24,lo8(2)
 1408 06d0 00C0      		rjmp .L1
 1409               	.LVL82:
 1410               	.L62:
 165:./tmk_core/protocol/lufa/LUFA-git/LUFA/Drivers/USB/Class/Common/HIDParser.c **** 
 1411               		.loc 1 165 16 view .LVU289
 1412 06d2 87E0      		ldi r24,lo8(7)
 1413 06d4 00C0      		rjmp .L1
 1414               	.LVL83:
 1415               	.L63:
 179:./tmk_core/protocol/lufa/LUFA-git/LUFA/Drivers/USB/Class/Common/HIDParser.c **** 
 1416               		.loc 1 179 14 view .LVU290
 1417 06d6 86E0      		ldi r24,lo8(6)
 1418 06d8 00C0      		rjmp .L1
 1419               	.LVL84:
 1420               	.L64:
 1421               	.LBB17:
 206:./tmk_core/protocol/lufa/LUFA-git/LUFA/Drivers/USB/Class/Common/HIDParser.c **** 
 1422               		.loc 1 206 16 view .LVU291
 1423 06da 85E0      		ldi r24,lo8(5)
 1424 06dc 00C0      		rjmp .L1
 1425               	.LVL85:
 1426               	.L65:
 206:./tmk_core/protocol/lufa/LUFA-git/LUFA/Drivers/USB/Class/Common/HIDParser.c **** 
 1427               		.loc 1 206 16 view .LVU292
 1428               	.LBE17:
 235:./tmk_core/protocol/lufa/LUFA-git/LUFA/Drivers/USB/Class/Common/HIDParser.c **** 
 1429               		.loc 1 235 14 view .LVU293
 1430 06de 84E0      		ldi r24,lo8(4)
 1431 06e0 00C0      		rjmp .L1
 1432               	.LVL86:
 1433               	.L66:
 235:./tmk_core/protocol/lufa/LUFA-git/LUFA/Drivers/USB/Class/Common/HIDParser.c **** 
 1434               		.loc 1 235 14 view .LVU294
 1435               	.LBE19:
 311:./tmk_core/protocol/lufa/LUFA-git/LUFA/Drivers/USB/Class/Common/HIDParser.c **** }
 1436               		.loc 1 311 9 view .LVU295
 1437 06e2 80E0      		ldi r24,0
 1438 06e4 00C0      		rjmp .L1
 1439               		.cfi_endproc
 1440               	.LFE16:
 1442               		.section	.text.USB_GetHIDReportItemInfo,"ax",@progbits
 1443               	.global	USB_GetHIDReportItemInfo
 1445               	USB_GetHIDReportItemInfo:
 1446               	.LVL87:
 1447               	.LFB17:
 313:./tmk_core/protocol/lufa/LUFA-git/LUFA/Drivers/USB/Class/Common/HIDParser.c **** 
 314:./tmk_core/protocol/lufa/LUFA-git/LUFA/Drivers/USB/Class/Common/HIDParser.c **** bool USB_GetHIDReportItemInfo(const uint8_t* ReportData,
 315:./tmk_core/protocol/lufa/LUFA-git/LUFA/Drivers/USB/Class/Common/HIDParser.c ****                               HID_ReportItem_t* const ReportItem)
 316:./tmk_core/protocol/lufa/LUFA-git/LUFA/Drivers/USB/Class/Common/HIDParser.c **** {
 1448               		.loc 1 316 1 is_stmt 1 view -0
 1449               		.cfi_startproc
 1450               		.loc 1 316 1 is_stmt 0 view .LVU297
 1451 0000 CF92      		push r12
 1452               	.LCFI20:
 1453               		.cfi_def_cfa_offset 3
 1454               		.cfi_offset 12, -2
 1455 0002 DF92      		push r13
 1456               	.LCFI21:
 1457               		.cfi_def_cfa_offset 4
 1458               		.cfi_offset 13, -3
 1459 0004 EF92      		push r14
 1460               	.LCFI22:
 1461               		.cfi_def_cfa_offset 5
 1462               		.cfi_offset 14, -4
 1463 0006 FF92      		push r15
 1464               	.LCFI23:
 1465               		.cfi_def_cfa_offset 6
 1466               		.cfi_offset 15, -5
 1467 0008 CF93      		push r28
 1468               	.LCFI24:
 1469               		.cfi_def_cfa_offset 7
 1470               		.cfi_offset 28, -6
 1471 000a DF93      		push r29
 1472               	.LCFI25:
 1473               		.cfi_def_cfa_offset 8
 1474               		.cfi_offset 29, -7
 1475               	/* prologue: function */
 1476               	/* frame size = 0 */
 1477               	/* stack size = 6 */
 1478               	.L__stack_usage = 6
 1479 000c DC01      		movw r26,r24
 1480 000e FB01      		movw r30,r22
 317:./tmk_core/protocol/lufa/LUFA-git/LUFA/Drivers/USB/Class/Common/HIDParser.c **** 	if (ReportItem == NULL)
 1481               		.loc 1 317 2 is_stmt 1 view .LVU298
 1482               		.loc 1 317 5 is_stmt 0 view .LVU299
 1483 0010 3097      		sbiw r30,0
 1484 0012 01F4      		brne .+2
 1485 0014 00C0      		rjmp .L80
 318:./tmk_core/protocol/lufa/LUFA-git/LUFA/Drivers/USB/Class/Common/HIDParser.c **** 	  return false;
 319:./tmk_core/protocol/lufa/LUFA-git/LUFA/Drivers/USB/Class/Common/HIDParser.c **** 
 320:./tmk_core/protocol/lufa/LUFA-git/LUFA/Drivers/USB/Class/Common/HIDParser.c **** 	uint16_t DataBitsRem  = ReportItem->Attributes.BitSize;
 1486               		.loc 1 320 2 is_stmt 1 view .LVU300
 1487               		.loc 1 320 11 is_stmt 0 view .LVU301
 1488 0016 2085      		ldd r18,Z+8
 1489 0018 30E0      		ldi r19,0
 1490               	.LVL88:
 321:./tmk_core/protocol/lufa/LUFA-git/LUFA/Drivers/USB/Class/Common/HIDParser.c **** 	uint16_t CurrentBit   = ReportItem->BitOffset;
 1491               		.loc 1 321 2 is_stmt 1 view .LVU302
 322:./tmk_core/protocol/lufa/LUFA-git/LUFA/Drivers/USB/Class/Common/HIDParser.c **** 	uint32_t BitMask      = (1 << 0);
 1492               		.loc 1 322 2 view .LVU303
 323:./tmk_core/protocol/lufa/LUFA-git/LUFA/Drivers/USB/Class/Common/HIDParser.c **** 
 324:./tmk_core/protocol/lufa/LUFA-git/LUFA/Drivers/USB/Class/Common/HIDParser.c **** 	if (ReportItem->ReportID)
 1493               		.loc 1 324 2 view .LVU304
 1494               		.loc 1 324 16 is_stmt 0 view .LVU305
 1495 001a 8581      		ldd r24,Z+5
 1496               	.LVL89:
 1497               		.loc 1 324 5 view .LVU306
 1498 001c 8823      		tst r24
 1499 001e 01F0      		breq .L75
 325:./tmk_core/protocol/lufa/LUFA-git/LUFA/Drivers/USB/Class/Common/HIDParser.c **** 	{
 326:./tmk_core/protocol/lufa/LUFA-git/LUFA/Drivers/USB/Class/Common/HIDParser.c **** 		if (ReportItem->ReportID != ReportData[0])
 1500               		.loc 1 326 3 is_stmt 1 view .LVU307
 1501               		.loc 1 326 6 is_stmt 0 view .LVU308
 1502 0020 9C91      		ld r25,X
 1503 0022 8913      		cpse r24,r25
 1504 0024 00C0      		rjmp .L80
 327:./tmk_core/protocol/lufa/LUFA-git/LUFA/Drivers/USB/Class/Common/HIDParser.c **** 		  return false;
 328:./tmk_core/protocol/lufa/LUFA-git/LUFA/Drivers/USB/Class/Common/HIDParser.c **** 
 329:./tmk_core/protocol/lufa/LUFA-git/LUFA/Drivers/USB/Class/Common/HIDParser.c **** 		ReportData++;
 1505               		.loc 1 329 3 is_stmt 1 view .LVU309
 1506               		.loc 1 329 13 is_stmt 0 view .LVU310
 1507 0026 1196      		adiw r26,1
 1508               	.LVL90:
 1509               	.L75:
 321:./tmk_core/protocol/lufa/LUFA-git/LUFA/Drivers/USB/Class/Common/HIDParser.c **** 	uint32_t BitMask      = (1 << 0);
 1510               		.loc 1 321 11 view .LVU311
 1511 0028 8081      		ld r24,Z
 1512 002a 9181      		ldd r25,Z+1
 330:./tmk_core/protocol/lufa/LUFA-git/LUFA/Drivers/USB/Class/Common/HIDParser.c **** 	}
 331:./tmk_core/protocol/lufa/LUFA-git/LUFA/Drivers/USB/Class/Common/HIDParser.c **** 
 332:./tmk_core/protocol/lufa/LUFA-git/LUFA/Drivers/USB/Class/Common/HIDParser.c **** 	ReportItem->PreviousValue = ReportItem->Value;
 1513               		.loc 1 332 2 is_stmt 1 view .LVU312
 1514               		.loc 1 332 28 is_stmt 0 view .LVU313
 1515 002c 42A1      		ldd r20,Z+34
 1516 002e 53A1      		ldd r21,Z+35
 1517 0030 64A1      		ldd r22,Z+36
 1518 0032 75A1      		ldd r23,Z+37
 1519 0034 46A3      		std Z+38,r20
 1520 0036 57A3      		std Z+39,r21
 1521 0038 60A7      		std Z+40,r22
 1522 003a 71A7      		std Z+41,r23
 333:./tmk_core/protocol/lufa/LUFA-git/LUFA/Drivers/USB/Class/Common/HIDParser.c **** 	ReportItem->Value = 0;
 1523               		.loc 1 333 2 is_stmt 1 view .LVU314
 1524               		.loc 1 333 20 is_stmt 0 view .LVU315
 1525 003c 12A2      		std Z+34,__zero_reg__
 1526 003e 13A2      		std Z+35,__zero_reg__
 1527 0040 14A2      		std Z+36,__zero_reg__
 1528 0042 15A2      		std Z+37,__zero_reg__
 334:./tmk_core/protocol/lufa/LUFA-git/LUFA/Drivers/USB/Class/Common/HIDParser.c **** 
 335:./tmk_core/protocol/lufa/LUFA-git/LUFA/Drivers/USB/Class/Common/HIDParser.c **** 	while (DataBitsRem--)
 1529               		.loc 1 335 2 is_stmt 1 view .LVU316
 1530 0044 280F      		add r18,r24
 1531 0046 391F      		adc r19,r25
 1532               	.LVL91:
 322:./tmk_core/protocol/lufa/LUFA-git/LUFA/Drivers/USB/Class/Common/HIDParser.c **** 
 1533               		.loc 1 322 11 is_stmt 0 view .LVU317
 1534 0048 C12C      		mov r12,__zero_reg__
 1535 004a D12C      		mov r13,__zero_reg__
 1536 004c 7601      		movw r14,r12
 1537 004e C394      		inc r12
 1538               	.LVL92:
 1539               	.L76:
 1540               		.loc 1 335 8 is_stmt 1 view .LVU318
 1541               		.loc 1 335 8 is_stmt 0 view .LVU319
 1542 0050 8217      		cp r24,r18
 1543 0052 9307      		cpc r25,r19
 1544 0054 01F4      		brne .L78
 336:./tmk_core/protocol/lufa/LUFA-git/LUFA/Drivers/USB/Class/Common/HIDParser.c **** 	{
 337:./tmk_core/protocol/lufa/LUFA-git/LUFA/Drivers/USB/Class/Common/HIDParser.c **** 		if (ReportData[CurrentBit / 8] & (1 << (CurrentBit % 8)))
 338:./tmk_core/protocol/lufa/LUFA-git/LUFA/Drivers/USB/Class/Common/HIDParser.c **** 		  ReportItem->Value |= BitMask;
 339:./tmk_core/protocol/lufa/LUFA-git/LUFA/Drivers/USB/Class/Common/HIDParser.c **** 
 340:./tmk_core/protocol/lufa/LUFA-git/LUFA/Drivers/USB/Class/Common/HIDParser.c **** 		CurrentBit++;
 341:./tmk_core/protocol/lufa/LUFA-git/LUFA/Drivers/USB/Class/Common/HIDParser.c **** 		BitMask <<= 1;
 342:./tmk_core/protocol/lufa/LUFA-git/LUFA/Drivers/USB/Class/Common/HIDParser.c **** 	}
 343:./tmk_core/protocol/lufa/LUFA-git/LUFA/Drivers/USB/Class/Common/HIDParser.c **** 
 344:./tmk_core/protocol/lufa/LUFA-git/LUFA/Drivers/USB/Class/Common/HIDParser.c **** 	return true;
 1545               		.loc 1 344 9 view .LVU320
 1546 0056 81E0      		ldi r24,lo8(1)
 1547               	.LVL93:
 1548               	.L73:
 1549               	/* epilogue start */
 345:./tmk_core/protocol/lufa/LUFA-git/LUFA/Drivers/USB/Class/Common/HIDParser.c **** }
 1550               		.loc 1 345 1 view .LVU321
 1551 0058 DF91      		pop r29
 1552 005a CF91      		pop r28
 1553 005c FF90      		pop r15
 1554 005e EF90      		pop r14
 1555 0060 DF90      		pop r13
 1556 0062 CF90      		pop r12
 1557 0064 0895      		ret
 1558               	.LVL94:
 1559               	.L78:
 337:./tmk_core/protocol/lufa/LUFA-git/LUFA/Drivers/USB/Class/Common/HIDParser.c **** 		  ReportItem->Value |= BitMask;
 1560               		.loc 1 337 3 is_stmt 1 view .LVU322
 337:./tmk_core/protocol/lufa/LUFA-git/LUFA/Drivers/USB/Class/Common/HIDParser.c **** 		  ReportItem->Value |= BitMask;
 1561               		.loc 1 337 29 is_stmt 0 view .LVU323
 1562 0066 EC01      		movw r28,r24
 1563 0068 53E0      		ldi r21,3
 1564               		1:
 1565 006a D695      		lsr r29
 1566 006c C795      		ror r28
 1567 006e 5A95      		dec r21
 1568 0070 01F4      		brne 1b
 337:./tmk_core/protocol/lufa/LUFA-git/LUFA/Drivers/USB/Class/Common/HIDParser.c **** 		  ReportItem->Value |= BitMask;
 1569               		.loc 1 337 17 view .LVU324
 1570 0072 CA0F      		add r28,r26
 1571 0074 DB1F      		adc r29,r27
 1572 0076 4881      		ld r20,Y
 1573 0078 50E0      		ldi r21,0
 337:./tmk_core/protocol/lufa/LUFA-git/LUFA/Drivers/USB/Class/Common/HIDParser.c **** 		  ReportItem->Value |= BitMask;
 1574               		.loc 1 337 54 view .LVU325
 1575 007a BC01      		movw r22,r24
 1576 007c 6770      		andi r22,7
 1577 007e 7727      		clr r23
 337:./tmk_core/protocol/lufa/LUFA-git/LUFA/Drivers/USB/Class/Common/HIDParser.c **** 		  ReportItem->Value |= BitMask;
 1578               		.loc 1 337 7 view .LVU326
 1579 0080 00C0      		rjmp 2f
 1580               		1:
 1581 0082 5595      		asr r21
 1582 0084 4795      		ror r20
 1583               		2:
 1584 0086 6A95      		dec r22
 1585 0088 02F4      		brpl 1b
 337:./tmk_core/protocol/lufa/LUFA-git/LUFA/Drivers/USB/Class/Common/HIDParser.c **** 		  ReportItem->Value |= BitMask;
 1586               		.loc 1 337 6 view .LVU327
 1587 008a 40FF      		sbrs r20,0
 1588 008c 00C0      		rjmp .L77
 338:./tmk_core/protocol/lufa/LUFA-git/LUFA/Drivers/USB/Class/Common/HIDParser.c **** 
 1589               		.loc 1 338 5 is_stmt 1 view .LVU328
 338:./tmk_core/protocol/lufa/LUFA-git/LUFA/Drivers/USB/Class/Common/HIDParser.c **** 
 1590               		.loc 1 338 23 is_stmt 0 view .LVU329
 1591 008e 42A1      		ldd r20,Z+34
 1592 0090 53A1      		ldd r21,Z+35
 1593 0092 64A1      		ldd r22,Z+36
 1594 0094 75A1      		ldd r23,Z+37
 1595 0096 4C29      		or r20,r12
 1596 0098 5D29      		or r21,r13
 1597 009a 6E29      		or r22,r14
 1598 009c 7F29      		or r23,r15
 1599 009e 42A3      		std Z+34,r20
 1600 00a0 53A3      		std Z+35,r21
 1601 00a2 64A3      		std Z+36,r22
 1602 00a4 75A3      		std Z+37,r23
 1603               	.L77:
 340:./tmk_core/protocol/lufa/LUFA-git/LUFA/Drivers/USB/Class/Common/HIDParser.c **** 		BitMask <<= 1;
 1604               		.loc 1 340 3 is_stmt 1 view .LVU330
 340:./tmk_core/protocol/lufa/LUFA-git/LUFA/Drivers/USB/Class/Common/HIDParser.c **** 		BitMask <<= 1;
 1605               		.loc 1 340 13 is_stmt 0 view .LVU331
 1606 00a6 0196      		adiw r24,1
 1607               	.LVL95:
 341:./tmk_core/protocol/lufa/LUFA-git/LUFA/Drivers/USB/Class/Common/HIDParser.c **** 	}
 1608               		.loc 1 341 3 is_stmt 1 view .LVU332
 341:./tmk_core/protocol/lufa/LUFA-git/LUFA/Drivers/USB/Class/Common/HIDParser.c **** 	}
 1609               		.loc 1 341 11 is_stmt 0 view .LVU333
 1610 00a8 CC0C      		lsl r12
 1611 00aa DD1C      		rol r13
 1612 00ac EE1C      		rol r14
 1613 00ae FF1C      		rol r15
 1614               	.LVL96:
 341:./tmk_core/protocol/lufa/LUFA-git/LUFA/Drivers/USB/Class/Common/HIDParser.c **** 	}
 1615               		.loc 1 341 11 view .LVU334
 1616 00b0 00C0      		rjmp .L76
 1617               	.LVL97:
 1618               	.L80:
 318:./tmk_core/protocol/lufa/LUFA-git/LUFA/Drivers/USB/Class/Common/HIDParser.c **** 
 1619               		.loc 1 318 11 view .LVU335
 1620 00b2 80E0      		ldi r24,0
 1621 00b4 00C0      		rjmp .L73
 1622               		.cfi_endproc
 1623               	.LFE17:
 1625               		.section	.text.USB_SetHIDReportItemInfo,"ax",@progbits
 1626               	.global	USB_SetHIDReportItemInfo
 1628               	USB_SetHIDReportItemInfo:
 1629               	.LVL98:
 1630               	.LFB18:
 346:./tmk_core/protocol/lufa/LUFA-git/LUFA/Drivers/USB/Class/Common/HIDParser.c **** 
 347:./tmk_core/protocol/lufa/LUFA-git/LUFA/Drivers/USB/Class/Common/HIDParser.c **** void USB_SetHIDReportItemInfo(uint8_t* ReportData,
 348:./tmk_core/protocol/lufa/LUFA-git/LUFA/Drivers/USB/Class/Common/HIDParser.c ****                               HID_ReportItem_t* const ReportItem)
 349:./tmk_core/protocol/lufa/LUFA-git/LUFA/Drivers/USB/Class/Common/HIDParser.c **** {
 1631               		.loc 1 349 1 is_stmt 1 view -0
 1632               		.cfi_startproc
 1633               		.loc 1 349 1 is_stmt 0 view .LVU337
 1634 0000 8F92      		push r8
 1635               	.LCFI26:
 1636               		.cfi_def_cfa_offset 3
 1637               		.cfi_offset 8, -2
 1638 0002 9F92      		push r9
 1639               	.LCFI27:
 1640               		.cfi_def_cfa_offset 4
 1641               		.cfi_offset 9, -3
 1642 0004 AF92      		push r10
 1643               	.LCFI28:
 1644               		.cfi_def_cfa_offset 5
 1645               		.cfi_offset 10, -4
 1646 0006 BF92      		push r11
 1647               	.LCFI29:
 1648               		.cfi_def_cfa_offset 6
 1649               		.cfi_offset 11, -5
 1650 0008 CF92      		push r12
 1651               	.LCFI30:
 1652               		.cfi_def_cfa_offset 7
 1653               		.cfi_offset 12, -6
 1654 000a DF92      		push r13
 1655               	.LCFI31:
 1656               		.cfi_def_cfa_offset 8
 1657               		.cfi_offset 13, -7
 1658 000c EF92      		push r14
 1659               	.LCFI32:
 1660               		.cfi_def_cfa_offset 9
 1661               		.cfi_offset 14, -8
 1662 000e FF92      		push r15
 1663               	.LCFI33:
 1664               		.cfi_def_cfa_offset 10
 1665               		.cfi_offset 15, -9
 1666 0010 0F93      		push r16
 1667               	.LCFI34:
 1668               		.cfi_def_cfa_offset 11
 1669               		.cfi_offset 16, -10
 1670 0012 1F93      		push r17
 1671               	.LCFI35:
 1672               		.cfi_def_cfa_offset 12
 1673               		.cfi_offset 17, -11
 1674 0014 CF93      		push r28
 1675               	.LCFI36:
 1676               		.cfi_def_cfa_offset 13
 1677               		.cfi_offset 28, -12
 1678 0016 DF93      		push r29
 1679               	.LCFI37:
 1680               		.cfi_def_cfa_offset 14
 1681               		.cfi_offset 29, -13
 1682               	/* prologue: function */
 1683               	/* frame size = 0 */
 1684               	/* stack size = 12 */
 1685               	.L__stack_usage = 12
 1686 0018 DC01      		movw r26,r24
 1687 001a FB01      		movw r30,r22
 350:./tmk_core/protocol/lufa/LUFA-git/LUFA/Drivers/USB/Class/Common/HIDParser.c **** 	if (ReportItem == NULL)
 1688               		.loc 1 350 2 is_stmt 1 view .LVU338
 1689               		.loc 1 350 5 is_stmt 0 view .LVU339
 1690 001c 3097      		sbiw r30,0
 1691 001e 01F0      		breq .L87
 351:./tmk_core/protocol/lufa/LUFA-git/LUFA/Drivers/USB/Class/Common/HIDParser.c **** 	  return;
 352:./tmk_core/protocol/lufa/LUFA-git/LUFA/Drivers/USB/Class/Common/HIDParser.c **** 
 353:./tmk_core/protocol/lufa/LUFA-git/LUFA/Drivers/USB/Class/Common/HIDParser.c **** 	uint16_t DataBitsRem  = ReportItem->Attributes.BitSize;
 1692               		.loc 1 353 2 is_stmt 1 view .LVU340
 1693               		.loc 1 353 11 is_stmt 0 view .LVU341
 1694 0020 2085      		ldd r18,Z+8
 1695 0022 30E0      		ldi r19,0
 1696               	.LVL99:
 354:./tmk_core/protocol/lufa/LUFA-git/LUFA/Drivers/USB/Class/Common/HIDParser.c **** 	uint16_t CurrentBit   = ReportItem->BitOffset;
 1697               		.loc 1 354 2 is_stmt 1 view .LVU342
 1698               		.loc 1 354 11 is_stmt 0 view .LVU343
 1699 0024 8081      		ld r24,Z
 1700 0026 9181      		ldd r25,Z+1
 1701               	.LVL100:
 355:./tmk_core/protocol/lufa/LUFA-git/LUFA/Drivers/USB/Class/Common/HIDParser.c **** 	uint32_t BitMask      = (1 << 0);
 1702               		.loc 1 355 2 is_stmt 1 view .LVU344
 356:./tmk_core/protocol/lufa/LUFA-git/LUFA/Drivers/USB/Class/Common/HIDParser.c **** 
 357:./tmk_core/protocol/lufa/LUFA-git/LUFA/Drivers/USB/Class/Common/HIDParser.c **** 	if (ReportItem->ReportID)
 1703               		.loc 1 357 2 view .LVU345
 1704               		.loc 1 357 16 is_stmt 0 view .LVU346
 1705 0028 4581      		ldd r20,Z+5
 1706               		.loc 1 357 5 view .LVU347
 1707 002a 4111      		cpse r20,__zero_reg__
 358:./tmk_core/protocol/lufa/LUFA-git/LUFA/Drivers/USB/Class/Common/HIDParser.c **** 	{
 359:./tmk_core/protocol/lufa/LUFA-git/LUFA/Drivers/USB/Class/Common/HIDParser.c **** 		ReportData[0] = ReportItem->ReportID;
 1708               		.loc 1 359 3 is_stmt 1 view .LVU348
 1709               		.loc 1 359 17 is_stmt 0 view .LVU349
 1710 002c 4D93      		st X+,r20
 1711               	.LVL101:
 360:./tmk_core/protocol/lufa/LUFA-git/LUFA/Drivers/USB/Class/Common/HIDParser.c **** 		ReportData++;
 1712               		.loc 1 360 3 is_stmt 1 view .LVU350
 1713               	.L89:
 361:./tmk_core/protocol/lufa/LUFA-git/LUFA/Drivers/USB/Class/Common/HIDParser.c **** 	}
 362:./tmk_core/protocol/lufa/LUFA-git/LUFA/Drivers/USB/Class/Common/HIDParser.c **** 
 363:./tmk_core/protocol/lufa/LUFA-git/LUFA/Drivers/USB/Class/Common/HIDParser.c **** 	ReportItem->PreviousValue = ReportItem->Value;
 1714               		.loc 1 363 2 view .LVU351
 1715               		.loc 1 363 28 is_stmt 0 view .LVU352
 1716 002e 42A1      		ldd r20,Z+34
 1717 0030 53A1      		ldd r21,Z+35
 1718 0032 64A1      		ldd r22,Z+36
 1719 0034 75A1      		ldd r23,Z+37
 1720 0036 46A3      		std Z+38,r20
 1721 0038 57A3      		std Z+39,r21
 1722 003a 60A7      		std Z+40,r22
 1723 003c 71A7      		std Z+41,r23
 364:./tmk_core/protocol/lufa/LUFA-git/LUFA/Drivers/USB/Class/Common/HIDParser.c **** 
 365:./tmk_core/protocol/lufa/LUFA-git/LUFA/Drivers/USB/Class/Common/HIDParser.c **** 	while (DataBitsRem--)
 1724               		.loc 1 365 2 is_stmt 1 view .LVU353
 1725 003e 280F      		add r18,r24
 1726 0040 391F      		adc r19,r25
 1727               	.LVL102:
 355:./tmk_core/protocol/lufa/LUFA-git/LUFA/Drivers/USB/Class/Common/HIDParser.c **** 
 1728               		.loc 1 355 11 is_stmt 0 view .LVU354
 1729 0042 C12C      		mov r12,__zero_reg__
 1730 0044 D12C      		mov r13,__zero_reg__
 1731 0046 7601      		movw r14,r12
 1732 0048 C394      		inc r12
 366:./tmk_core/protocol/lufa/LUFA-git/LUFA/Drivers/USB/Class/Common/HIDParser.c **** 	{
 367:./tmk_core/protocol/lufa/LUFA-git/LUFA/Drivers/USB/Class/Common/HIDParser.c **** 		if (ReportItem->Value & (1 << (CurrentBit % 8)))
 1733               		.loc 1 367 30 view .LVU355
 1734 004a 01E0      		ldi r16,lo8(1)
 1735 004c 10E0      		ldi r17,0
 1736               	.LVL103:
 1737               	.L90:
 365:./tmk_core/protocol/lufa/LUFA-git/LUFA/Drivers/USB/Class/Common/HIDParser.c **** 	{
 1738               		.loc 1 365 8 is_stmt 1 view .LVU356
 365:./tmk_core/protocol/lufa/LUFA-git/LUFA/Drivers/USB/Class/Common/HIDParser.c **** 	{
 1739               		.loc 1 365 8 is_stmt 0 view .LVU357
 1740 004e 8217      		cp r24,r18
 1741 0050 9307      		cpc r25,r19
 1742 0052 01F4      		brne .L92
 1743               	.LVL104:
 1744               	.L87:
 1745               	/* epilogue start */
 368:./tmk_core/protocol/lufa/LUFA-git/LUFA/Drivers/USB/Class/Common/HIDParser.c **** 		  ReportData[CurrentBit / 8] |= BitMask;
 369:./tmk_core/protocol/lufa/LUFA-git/LUFA/Drivers/USB/Class/Common/HIDParser.c **** 
 370:./tmk_core/protocol/lufa/LUFA-git/LUFA/Drivers/USB/Class/Common/HIDParser.c **** 		CurrentBit++;
 371:./tmk_core/protocol/lufa/LUFA-git/LUFA/Drivers/USB/Class/Common/HIDParser.c **** 		BitMask <<= 1;
 372:./tmk_core/protocol/lufa/LUFA-git/LUFA/Drivers/USB/Class/Common/HIDParser.c **** 	}
 373:./tmk_core/protocol/lufa/LUFA-git/LUFA/Drivers/USB/Class/Common/HIDParser.c **** }
 1746               		.loc 1 373 1 view .LVU358
 1747 0054 DF91      		pop r29
 1748 0056 CF91      		pop r28
 1749 0058 1F91      		pop r17
 1750 005a 0F91      		pop r16
 1751 005c FF90      		pop r15
 1752 005e EF90      		pop r14
 1753 0060 DF90      		pop r13
 1754 0062 CF90      		pop r12
 1755 0064 BF90      		pop r11
 1756 0066 AF90      		pop r10
 1757 0068 9F90      		pop r9
 1758 006a 8F90      		pop r8
 1759 006c 0895      		ret
 1760               	.LVL105:
 1761               	.L92:
 367:./tmk_core/protocol/lufa/LUFA-git/LUFA/Drivers/USB/Class/Common/HIDParser.c **** 		  ReportData[CurrentBit / 8] |= BitMask;
 1762               		.loc 1 367 3 is_stmt 1 view .LVU359
 367:./tmk_core/protocol/lufa/LUFA-git/LUFA/Drivers/USB/Class/Common/HIDParser.c **** 		  ReportData[CurrentBit / 8] |= BitMask;
 1763               		.loc 1 367 45 is_stmt 0 view .LVU360
 1764 006e AC01      		movw r20,r24
 1765 0070 4770      		andi r20,7
 1766 0072 5527      		clr r21
 367:./tmk_core/protocol/lufa/LUFA-git/LUFA/Drivers/USB/Class/Common/HIDParser.c **** 		  ReportData[CurrentBit / 8] |= BitMask;
 1767               		.loc 1 367 30 view .LVU361
 1768 0074 B801      		movw r22,r16
 1769 0076 00C0      		rjmp 2f
 1770               		1:
 1771 0078 660F      		lsl r22
 1772 007a 771F      		rol r23
 1773               		2:
 1774 007c 4A95      		dec r20
 1775 007e 02F4      		brpl 1b
 1776 0080 AB01      		movw r20,r22
 1777 0082 052E      		mov __tmp_reg__,r21
 1778 0084 000C      		lsl r0
 1779 0086 660B      		sbc r22,r22
 1780 0088 770B      		sbc r23,r23
 367:./tmk_core/protocol/lufa/LUFA-git/LUFA/Drivers/USB/Class/Common/HIDParser.c **** 		  ReportData[CurrentBit / 8] |= BitMask;
 1781               		.loc 1 367 25 view .LVU362
 1782 008a 82A0      		ldd r8,Z+34
 1783 008c 93A0      		ldd r9,Z+35
 1784 008e A4A0      		ldd r10,Z+36
 1785 0090 B5A0      		ldd r11,Z+37
 1786 0092 4821      		and r20,r8
 1787 0094 5921      		and r21,r9
 1788 0096 6A21      		and r22,r10
 1789 0098 7B21      		and r23,r11
 367:./tmk_core/protocol/lufa/LUFA-git/LUFA/Drivers/USB/Class/Common/HIDParser.c **** 		  ReportData[CurrentBit / 8] |= BitMask;
 1790               		.loc 1 367 6 view .LVU363
 1791 009a 452B      		or r20,r21
 1792 009c 462B      		or r20,r22
 1793 009e 472B      		or r20,r23
 1794 00a0 01F0      		breq .L91
 368:./tmk_core/protocol/lufa/LUFA-git/LUFA/Drivers/USB/Class/Common/HIDParser.c **** 		  ReportData[CurrentBit / 8] |= BitMask;
 1795               		.loc 1 368 5 is_stmt 1 view .LVU364
 368:./tmk_core/protocol/lufa/LUFA-git/LUFA/Drivers/USB/Class/Common/HIDParser.c **** 		  ReportData[CurrentBit / 8] |= BitMask;
 1796               		.loc 1 368 27 is_stmt 0 view .LVU365
 1797 00a2 AC01      		movw r20,r24
 1798 00a4 63E0      		ldi r22,3
 1799               		1:
 1800 00a6 5695      		lsr r21
 1801 00a8 4795      		ror r20
 1802 00aa 6A95      		dec r22
 1803 00ac 01F4      		brne 1b
 368:./tmk_core/protocol/lufa/LUFA-git/LUFA/Drivers/USB/Class/Common/HIDParser.c **** 		  ReportData[CurrentBit / 8] |= BitMask;
 1804               		.loc 1 368 32 view .LVU366
 1805 00ae 4A0F      		add r20,r26
 1806 00b0 5B1F      		adc r21,r27
 1807 00b2 EA01      		movw r28,r20
 1808 00b4 6881      		ld r22,Y
 1809 00b6 6C29      		or r22,r12
 1810 00b8 6883      		st Y,r22
 1811               	.L91:
 370:./tmk_core/protocol/lufa/LUFA-git/LUFA/Drivers/USB/Class/Common/HIDParser.c **** 		BitMask <<= 1;
 1812               		.loc 1 370 3 is_stmt 1 view .LVU367
 370:./tmk_core/protocol/lufa/LUFA-git/LUFA/Drivers/USB/Class/Common/HIDParser.c **** 		BitMask <<= 1;
 1813               		.loc 1 370 13 is_stmt 0 view .LVU368
 1814 00ba 0196      		adiw r24,1
 1815               	.LVL106:
 371:./tmk_core/protocol/lufa/LUFA-git/LUFA/Drivers/USB/Class/Common/HIDParser.c **** 	}
 1816               		.loc 1 371 3 is_stmt 1 view .LVU369
 371:./tmk_core/protocol/lufa/LUFA-git/LUFA/Drivers/USB/Class/Common/HIDParser.c **** 	}
 1817               		.loc 1 371 11 is_stmt 0 view .LVU370
 1818 00bc CC0C      		lsl r12
 1819 00be DD1C      		rol r13
 1820 00c0 EE1C      		rol r14
 1821 00c2 FF1C      		rol r15
 1822               	.LVL107:
 371:./tmk_core/protocol/lufa/LUFA-git/LUFA/Drivers/USB/Class/Common/HIDParser.c **** 	}
 1823               		.loc 1 371 11 view .LVU371
 1824 00c4 00C0      		rjmp .L90
 1825               		.cfi_endproc
 1826               	.LFE18:
 1828               		.section	.text.USB_GetHIDReportSize,"ax",@progbits
 1829               	.global	USB_GetHIDReportSize
 1831               	USB_GetHIDReportSize:
 1832               	.LVL108:
 1833               	.LFB19:
 374:./tmk_core/protocol/lufa/LUFA-git/LUFA/Drivers/USB/Class/Common/HIDParser.c **** 
 375:./tmk_core/protocol/lufa/LUFA-git/LUFA/Drivers/USB/Class/Common/HIDParser.c **** uint16_t USB_GetHIDReportSize(HID_ReportInfo_t* const ParserData,
 376:./tmk_core/protocol/lufa/LUFA-git/LUFA/Drivers/USB/Class/Common/HIDParser.c ****                               const uint8_t ReportID,
 377:./tmk_core/protocol/lufa/LUFA-git/LUFA/Drivers/USB/Class/Common/HIDParser.c ****                               const uint8_t ReportType)
 378:./tmk_core/protocol/lufa/LUFA-git/LUFA/Drivers/USB/Class/Common/HIDParser.c **** {
 1834               		.loc 1 378 1 is_stmt 1 view -0
 1835               		.cfi_startproc
 1836               	/* prologue: function */
 1837               	/* frame size = 0 */
 1838               	/* stack size = 0 */
 1839               	.L__stack_usage = 0
 1840               		.loc 1 378 1 is_stmt 0 view .LVU373
 1841 0000 9C01      		movw r18,r24
 379:./tmk_core/protocol/lufa/LUFA-git/LUFA/Drivers/USB/Class/Common/HIDParser.c **** 	for (uint8_t i = 0; i < HID_MAX_REPORT_IDS; i++)
 1842               		.loc 1 379 2 is_stmt 1 view .LVU374
 1843               	.LBB20:
 1844               		.loc 1 379 7 view .LVU375
 1845               	.LVL109:
 1846               		.loc 1 379 22 view .LVU376
 1847 0002 FC01      		movw r30,r24
 1848 0004 E057      		subi r30,112
 1849 0006 FC4F      		sbci r31,-4
 1850 0008 2A52      		subi r18,42
 1851 000a 3C4F      		sbci r19,-4
 1852 000c 50E0      		ldi r21,0
 1853 000e 440F      		lsl r20
 1854 0010 551F      		rol r21
 1855               	.LVL110:
 1856               	.L104:
 1857               	.LBB21:
 380:./tmk_core/protocol/lufa/LUFA-git/LUFA/Drivers/USB/Class/Common/HIDParser.c **** 	{
 381:./tmk_core/protocol/lufa/LUFA-git/LUFA/Drivers/USB/Class/Common/HIDParser.c **** 		uint16_t ReportSizeBits = ParserData->ReportIDSizes[i].ReportSizeBits[ReportType];
 1858               		.loc 1 381 3 view .LVU377
 1859               		.loc 1 381 12 is_stmt 0 view .LVU378
 1860 0012 DF01      		movw r26,r30
 1861 0014 A40F      		add r26,r20
 1862 0016 B51F      		adc r27,r21
 1863 0018 1196      		adiw r26,1
 1864 001a 0D90      		ld __tmp_reg__,X+
 1865 001c BC91      		ld r27,X
 1866 001e A02D      		mov r26,__tmp_reg__
 1867               	.LVL111:
 382:./tmk_core/protocol/lufa/LUFA-git/LUFA/Drivers/USB/Class/Common/HIDParser.c **** 
 383:./tmk_core/protocol/lufa/LUFA-git/LUFA/Drivers/USB/Class/Common/HIDParser.c **** 		if (ParserData->ReportIDSizes[i].ReportID == ReportID)
 1868               		.loc 1 383 3 is_stmt 1 view .LVU379
 1869               		.loc 1 383 6 is_stmt 0 view .LVU380
 1870 0020 8081      		ld r24,Z
 1871 0022 8613      		cpse r24,r22
 1872 0024 00C0      		rjmp .L101
 384:./tmk_core/protocol/lufa/LUFA-git/LUFA/Drivers/USB/Class/Common/HIDParser.c **** 		  return (ReportSizeBits / 8) + ((ReportSizeBits % 8) ? 1 : 0);
 1873               		.loc 1 384 5 is_stmt 1 view .LVU381
 1874               		.loc 1 384 61 is_stmt 0 view .LVU382
 1875 0026 81E0      		ldi r24,lo8(1)
 1876 0028 90E0      		ldi r25,0
 1877 002a 9D01      		movw r18,r26
 1878               	.LVL112:
 1879               		.loc 1 384 61 view .LVU383
 1880 002c 2770      		andi r18,7
 1881 002e 3327      		clr r19
 1882 0030 232B      		or r18,r19
 1883 0032 01F4      		brne .L102
 1884 0034 90E0      		ldi r25,0
 1885 0036 80E0      		ldi r24,0
 1886               	.L102:
 1887               		.loc 1 384 28 view .LVU384
 1888 0038 23E0      		ldi r18,3
 1889               		1:
 1890 003a B695      		lsr r27
 1891 003c A795      		ror r26
 1892 003e 2A95      		dec r18
 1893 0040 01F4      		brne 1b
 1894               	.LVL113:
 1895               		.loc 1 384 33 view .LVU385
 1896 0042 8A0F      		add r24,r26
 1897 0044 9B1F      		adc r25,r27
 1898 0046 0895      		ret
 1899               	.LVL114:
 1900               	.L101:
 1901               		.loc 1 384 33 view .LVU386
 1902               	.LBE21:
 379:./tmk_core/protocol/lufa/LUFA-git/LUFA/Drivers/USB/Class/Common/HIDParser.c **** 	{
 1903               		.loc 1 379 46 is_stmt 1 discriminator 2 view .LVU387
 379:./tmk_core/protocol/lufa/LUFA-git/LUFA/Drivers/USB/Class/Common/HIDParser.c **** 	{
 1904               		.loc 1 379 22 discriminator 2 view .LVU388
 379:./tmk_core/protocol/lufa/LUFA-git/LUFA/Drivers/USB/Class/Common/HIDParser.c **** 	{
 1905               		.loc 1 379 2 is_stmt 0 discriminator 2 view .LVU389
 1906 0048 3796      		adiw r30,7
 1907               	.LVL115:
 379:./tmk_core/protocol/lufa/LUFA-git/LUFA/Drivers/USB/Class/Common/HIDParser.c **** 	{
 1908               		.loc 1 379 2 discriminator 2 view .LVU390
 1909 004a E217      		cp r30,r18
 1910 004c F307      		cpc r31,r19
 1911 004e 01F4      		brne .L104
 1912               	.LBE20:
 385:./tmk_core/protocol/lufa/LUFA-git/LUFA/Drivers/USB/Class/Common/HIDParser.c **** 	}
 386:./tmk_core/protocol/lufa/LUFA-git/LUFA/Drivers/USB/Class/Common/HIDParser.c **** 
 387:./tmk_core/protocol/lufa/LUFA-git/LUFA/Drivers/USB/Class/Common/HIDParser.c **** 	return 0;
 1913               		.loc 1 387 9 view .LVU391
 1914 0050 90E0      		ldi r25,0
 1915 0052 80E0      		ldi r24,0
 1916               	/* epilogue start */
 388:./tmk_core/protocol/lufa/LUFA-git/LUFA/Drivers/USB/Class/Common/HIDParser.c **** }
 1917               		.loc 1 388 1 view .LVU392
 1918 0054 0895      		ret
 1919               		.cfi_endproc
 1920               	.LFE19:
 1922               		.text
 1923               	.Letext0:
 1924               		.file 2 "/usr/avr/include/stdint.h"
 1925               		.file 3 "./tmk_core/protocol/lufa/LUFA-git/LUFA/Drivers/USB/Class/Common/HIDClassCommon.h"
 1926               		.file 4 "./tmk_core/protocol/lufa/LUFA-git/LUFA/Drivers/USB/Class/Common/HIDParser.h"
 1927               		.file 5 "<built-in>"