   1               		.file	"matrix.c"
   2               	__SP_H__ = 0x3e
   3               	__SP_L__ = 0x3d
   4               	__SREG__ = 0x3f
   5               	__tmp_reg__ = 0
   6               	__zero_reg__ = 1
   7               		.text
   8               	.Ltext0:
   9               		.cfi_sections	.debug_frame
  10               		.section	.text.matrix_rows,"ax",@progbits
  11               		.weak	matrix_rows
  13               	matrix_rows:
  14               	.LFB1:
  15               		.file 1 "../../tmk_core/common/matrix.c"
   1:../../tmk_core/common/matrix.c **** /*
   2:../../tmk_core/common/matrix.c **** Copyright 2016 Jun Wako <wakojun@gmail.com>
   3:../../tmk_core/common/matrix.c **** 
   4:../../tmk_core/common/matrix.c **** This program is free software: you can redistribute it and/or modify
   5:../../tmk_core/common/matrix.c **** it under the terms of the GNU General Public License as published by
   6:../../tmk_core/common/matrix.c **** the Free Software Foundation, either version 2 of the License, or
   7:../../tmk_core/common/matrix.c **** (at your option) any later version.
   8:../../tmk_core/common/matrix.c **** 
   9:../../tmk_core/common/matrix.c **** This program is distributed in the hope that it will be useful,
  10:../../tmk_core/common/matrix.c **** but WITHOUT ANY WARRANTY; without even the implied warranty of
  11:../../tmk_core/common/matrix.c **** MERCHANTABILITY or FITNESS FOR A PARTICULAR PURPOSE.  See the
  12:../../tmk_core/common/matrix.c **** GNU General Public License for more details.
  13:../../tmk_core/common/matrix.c **** 
  14:../../tmk_core/common/matrix.c **** You should have received a copy of the GNU General Public License
  15:../../tmk_core/common/matrix.c **** along with this program.  If not, see <http://www.gnu.org/licenses/>.
  16:../../tmk_core/common/matrix.c **** */
  17:../../tmk_core/common/matrix.c **** #include "print.h"
  18:../../tmk_core/common/matrix.c **** #include "matrix.h"
  19:../../tmk_core/common/matrix.c **** 
  20:../../tmk_core/common/matrix.c **** 
  21:../../tmk_core/common/matrix.c **** __attribute__ ((weak))
  22:../../tmk_core/common/matrix.c **** uint8_t matrix_rows(void)
  23:../../tmk_core/common/matrix.c **** {
  16               		.loc 1 23 1 view -0
  17               		.cfi_startproc
  18               	/* prologue: function */
  19               	/* frame size = 0 */
  20               	/* stack size = 0 */
  21               	.L__stack_usage = 0
  24:../../tmk_core/common/matrix.c ****     return MATRIX_ROWS;
  22               		.loc 1 24 5 view .LVU1
  25:../../tmk_core/common/matrix.c **** }
  23               		.loc 1 25 1 is_stmt 0 view .LVU2
  24 0000 81E1      		ldi r24,lo8(17)
  25               	/* epilogue start */
  26 0002 0895      		ret
  27               		.cfi_endproc
  28               	.LFE1:
  30               		.section	.text.matrix_cols,"ax",@progbits
  31               		.weak	matrix_cols
  33               	matrix_cols:
  34               	.LFB2:
  26:../../tmk_core/common/matrix.c **** 
  27:../../tmk_core/common/matrix.c **** __attribute__ ((weak))
  28:../../tmk_core/common/matrix.c **** uint8_t matrix_cols(void)
  29:../../tmk_core/common/matrix.c **** {
  35               		.loc 1 29 1 is_stmt 1 view -0
  36               		.cfi_startproc
  37               	/* prologue: function */
  38               	/* frame size = 0 */
  39               	/* stack size = 0 */
  40               	.L__stack_usage = 0
  30:../../tmk_core/common/matrix.c ****     return MATRIX_COLS;
  41               		.loc 1 30 5 view .LVU4
  31:../../tmk_core/common/matrix.c **** }
  42               		.loc 1 31 1 is_stmt 0 view .LVU5
  43 0000 88E0      		ldi r24,lo8(8)
  44               	/* epilogue start */
  45 0002 0895      		ret
  46               		.cfi_endproc
  47               	.LFE2:
  49               		.section	.text.matrix_clear,"ax",@progbits
  50               		.weak	matrix_clear
  52               	matrix_clear:
  53               	.LFB10:
  54               		.cfi_startproc
  55               	/* prologue: function */
  56               	/* frame size = 0 */
  57               	/* stack size = 0 */
  58               	.L__stack_usage = 0
  59               	/* epilogue start */
  60 0000 0895      		ret
  61               		.cfi_endproc
  62               	.LFE10:
  64               		.section	.text.matrix_setup,"ax",@progbits
  65               		.weak	matrix_setup
  67               	matrix_setup:
  68               	.LFB4:
  32:../../tmk_core/common/matrix.c **** 
  33:../../tmk_core/common/matrix.c **** __attribute__ ((weak))
  34:../../tmk_core/common/matrix.c **** void matrix_clear(void)
  35:../../tmk_core/common/matrix.c **** {
  36:../../tmk_core/common/matrix.c **** }
  37:../../tmk_core/common/matrix.c **** 
  38:../../tmk_core/common/matrix.c **** __attribute__ ((weak))
  39:../../tmk_core/common/matrix.c **** void matrix_setup(void) {}
  69               		.loc 1 39 25 is_stmt 1 view -0
  70               		.cfi_startproc
  71               	/* prologue: function */
  72               	/* frame size = 0 */
  73               	/* stack size = 0 */
  74               	.L__stack_usage = 0
  75               		.loc 1 39 26 view .LVU7
  76               	/* epilogue start */
  77               		.loc 1 39 1 is_stmt 0 view .LVU8
  78 0000 0895      		ret
  79               		.cfi_endproc
  80               	.LFE4:
  82               		.section	.text.matrix_is_on,"ax",@progbits
  83               		.weak	matrix_is_on
  85               	matrix_is_on:
  86               	.LVL0:
  87               	.LFB5:
  40:../../tmk_core/common/matrix.c **** 
  41:../../tmk_core/common/matrix.c **** __attribute__ ((weak))
  42:../../tmk_core/common/matrix.c **** bool matrix_is_on(uint8_t row, uint8_t col)
  43:../../tmk_core/common/matrix.c **** {
  88               		.loc 1 43 1 is_stmt 1 view -0
  89               		.cfi_startproc
  90               		.loc 1 43 1 is_stmt 0 view .LVU10
  91 0000 CF93      		push r28
  92               	.LCFI0:
  93               		.cfi_def_cfa_offset 3
  94               		.cfi_offset 28, -2
  95               	/* prologue: function */
  96               	/* frame size = 0 */
  97               	/* stack size = 1 */
  98               	.L__stack_usage = 1
  99 0002 C62F      		mov r28,r22
  44:../../tmk_core/common/matrix.c ****     return (matrix_get_row(row) & (1<<col));
 100               		.loc 1 44 5 is_stmt 1 view .LVU11
 101               		.loc 1 44 13 is_stmt 0 view .LVU12
 102 0004 0E94 0000 		call matrix_get_row
 103               	.LVL1:
 104               		.loc 1 44 37 view .LVU13
 105 0008 21E0      		ldi r18,lo8(1)
 106 000a 30E0      		ldi r19,0
 107 000c 00C0      		rjmp 2f
 108               		1:
 109 000e 220F      		lsl r18
 110 0010 331F      		rol r19
 111               		2:
 112 0012 CA95      		dec r28
 113 0014 02F4      		brpl 1b
 114               		.loc 1 44 13 view .LVU14
 115 0016 90E0      		ldi r25,0
 116               		.loc 1 44 33 view .LVU15
 117 0018 2823      		and r18,r24
 118 001a 3923      		and r19,r25
 119 001c 81E0      		ldi r24,lo8(1)
 120 001e 232B      		or r18,r19
 121 0020 01F4      		brne .L6
 122 0022 80E0      		ldi r24,0
 123               	.L6:
 124               	/* epilogue start */
  45:../../tmk_core/common/matrix.c **** }
 125               		.loc 1 45 1 view .LVU16
 126 0024 CF91      		pop r28
 127               	.LVL2:
 128               		.loc 1 45 1 view .LVU17
 129 0026 0895      		ret
 130               		.cfi_endproc
 131               	.LFE5:
 133               		.section	.rodata.matrix_print.str1.1,"aMS",@progbits,1
 134               	.LC0:
 135 0000 00        		.string	""
 136               		.section	.text.matrix_print,"ax",@progbits
 137               		.weak	matrix_print
 139               	matrix_print:
 140               	.LFB6:
  46:../../tmk_core/common/matrix.c **** 
  47:../../tmk_core/common/matrix.c **** __attribute__ ((weak))
  48:../../tmk_core/common/matrix.c **** void matrix_print(void)
  49:../../tmk_core/common/matrix.c **** {
 141               		.loc 1 49 1 is_stmt 1 view -0
 142               		.cfi_startproc
 143 0000 EF92      		push r14
 144               	.LCFI1:
 145               		.cfi_def_cfa_offset 3
 146               		.cfi_offset 14, -2
 147 0002 FF92      		push r15
 148               	.LCFI2:
 149               		.cfi_def_cfa_offset 4
 150               		.cfi_offset 15, -3
 151 0004 0F93      		push r16
 152               	.LCFI3:
 153               		.cfi_def_cfa_offset 5
 154               		.cfi_offset 16, -4
 155 0006 1F93      		push r17
 156               	.LCFI4:
 157               		.cfi_def_cfa_offset 6
 158               		.cfi_offset 17, -5
 159 0008 CF93      		push r28
 160               	.LCFI5:
 161               		.cfi_def_cfa_offset 7
 162               		.cfi_offset 28, -6
 163 000a DF93      		push r29
 164               	.LCFI6:
 165               		.cfi_def_cfa_offset 8
 166               		.cfi_offset 29, -7
 167               	/* prologue: function */
 168               	/* frame size = 0 */
 169               	/* stack size = 6 */
 170               	.L__stack_usage = 6
  50:../../tmk_core/common/matrix.c **** #if (MATRIX_COLS <= 8)
  51:../../tmk_core/common/matrix.c ****     print("r/c 01234567\n");
 171               		.loc 1 51 5 view .LVU19
 172               	.LBB2:
 173               		.loc 1 51 5 view .LVU20
 174               		.loc 1 51 5 view .LVU21
 175               	.LBE2:
 176 000c 80E0      		ldi r24,lo8(__c.1739)
 177 000e 90E0      		ldi r25,hi8(__c.1739)
 178 0010 0E94 0000 		call xputs
  52:../../tmk_core/common/matrix.c **** #elif (MATRIX_COLS <= 16)
  53:../../tmk_core/common/matrix.c ****     print("r/c 0123456789ABCDEF\n");
  54:../../tmk_core/common/matrix.c **** #elif (MATRIX_COLS <= 32)
  55:../../tmk_core/common/matrix.c ****     print("r/c 0123456789ABCDEF0123456789ABCDEF\n");
  56:../../tmk_core/common/matrix.c **** #endif
  57:../../tmk_core/common/matrix.c **** 
  58:../../tmk_core/common/matrix.c ****     for (uint8_t row = 0; row < MATRIX_ROWS; row++) {
 179               		.loc 1 58 5 view .LVU22
 180               	.LBB3:
 181               		.loc 1 58 10 view .LVU23
 182               		.loc 1 58 27 view .LVU24
 183               	.LBE3:
  51:../../tmk_core/common/matrix.c **** #elif (MATRIX_COLS <= 16)
 184               		.loc 1 51 5 is_stmt 0 view .LVU25
 185 0014 D0E0      		ldi r29,0
 186 0016 C0E0      		ldi r28,0
 187               	.LBB5:
  59:../../tmk_core/common/matrix.c **** 
  60:../../tmk_core/common/matrix.c **** #if (MATRIX_COLS <= 8)
  61:../../tmk_core/common/matrix.c ****         xprintf("%02X: %08b%s\n", row, bitrev(matrix_get_row(row)),
 188               		.loc 1 61 9 view .LVU26
 189 0018 80E0      		ldi r24,lo8(.LC0)
 190 001a E82E      		mov r14,r24
 191 001c 80E0      		ldi r24,hi8(.LC0)
 192 001e F82E      		mov r15,r24
 193 0020 00E0      		ldi r16,lo8(__c.1742)
 194 0022 10E0      		ldi r17,hi8(__c.1742)
 195               	.L8:
 196               		.loc 1 61 9 is_stmt 1 discriminator 3 view .LVU27
 197 0024 8C2F      		mov r24,r28
 198 0026 0E94 0000 		call matrix_get_row
 199 002a 0E94 0000 		call bitrev
 200               	.LBB4:
 201               		.loc 1 61 9 discriminator 3 view .LVU28
 202               		.loc 1 61 9 discriminator 3 view .LVU29
 203               	.LBE4:
 204 002e FF92      		push r15
 205               	.LCFI7:
 206               		.cfi_def_cfa_offset 9
 207 0030 EF92      		push r14
 208               	.LCFI8:
 209               		.cfi_def_cfa_offset 10
 210 0032 1F92      		push __zero_reg__
 211               	.LCFI9:
 212               		.cfi_def_cfa_offset 11
 213 0034 8F93      		push r24
 214               	.LCFI10:
 215               		.cfi_def_cfa_offset 12
 216 0036 DF93      		push r29
 217               	.LCFI11:
 218               		.cfi_def_cfa_offset 13
 219 0038 CF93      		push r28
 220               	.LCFI12:
 221               		.cfi_def_cfa_offset 14
 222 003a 1F93      		push r17
 223               	.LCFI13:
 224               		.cfi_def_cfa_offset 15
 225 003c 0F93      		push r16
 226               	.LCFI14:
 227               		.cfi_def_cfa_offset 16
 228 003e 0E94 0000 		call __xprintf
  58:../../tmk_core/common/matrix.c **** 
 229               		.loc 1 58 46 discriminator 3 view .LVU30
  58:../../tmk_core/common/matrix.c **** 
 230               		.loc 1 58 27 discriminator 3 view .LVU31
 231 0042 2196      		adiw r28,1
  58:../../tmk_core/common/matrix.c **** 
 232               		.loc 1 58 5 is_stmt 0 discriminator 3 view .LVU32
 233 0044 8DB7      		in r24,__SP_L__
 234 0046 9EB7      		in r25,__SP_H__
 235 0048 0896      		adiw r24,8
 236 004a 0FB6      		in __tmp_reg__,__SREG__
 237 004c F894      		cli
 238 004e 9EBF      		out __SP_H__,r25
 239 0050 0FBE      		out __SREG__,__tmp_reg__
 240 0052 8DBF      		out __SP_L__,r24
 241               	.LCFI15:
 242               		.cfi_def_cfa_offset 8
 243 0054 C131      		cpi r28,17
 244 0056 D105      		cpc r29,__zero_reg__
 245 0058 01F4      		brne .L8
 246               	/* epilogue start */
 247               	.LBE5:
  62:../../tmk_core/common/matrix.c **** #elif (MATRIX_COLS <= 16)
  63:../../tmk_core/common/matrix.c ****         xprintf("%02X: %016b%s\n", row, bitrev16(matrix_get_row(row)),
  64:../../tmk_core/common/matrix.c **** #elif (MATRIX_COLS <= 32)
  65:../../tmk_core/common/matrix.c ****         xprintf("%02X: %032b%s\n", row, bitrev32(matrix_get_row(row)),
  66:../../tmk_core/common/matrix.c **** #endif
  67:../../tmk_core/common/matrix.c **** #ifdef MATRIX_HAS_GHOST
  68:../../tmk_core/common/matrix.c ****         matrix_has_ghost_in_row(row) ?  " <ghost" : ""
  69:../../tmk_core/common/matrix.c **** #else
  70:../../tmk_core/common/matrix.c ****         ""
  71:../../tmk_core/common/matrix.c **** #endif
  72:../../tmk_core/common/matrix.c ****         );
  73:../../tmk_core/common/matrix.c ****     }
  74:../../tmk_core/common/matrix.c **** }
 248               		.loc 1 74 1 view .LVU33
 249 005a DF91      		pop r29
 250 005c CF91      		pop r28
 251 005e 1F91      		pop r17
 252 0060 0F91      		pop r16
 253 0062 FF90      		pop r15
 254 0064 EF90      		pop r14
 255 0066 0895      		ret
 256               		.cfi_endproc
 257               	.LFE6:
 259               		.section	.text.matrix_power_up,"ax",@progbits
 260               		.weak	matrix_power_up
 262               	matrix_power_up:
 263               	.LFB12:
 264               		.cfi_startproc
 265               	/* prologue: function */
 266               	/* frame size = 0 */
 267               	/* stack size = 0 */
 268               	.L__stack_usage = 0
 269               	/* epilogue start */
 270 0000 0895      		ret
 271               		.cfi_endproc
 272               	.LFE12:
 274               		.section	.text.matrix_power_down,"ax",@progbits
 275               		.weak	matrix_power_down
 277               	matrix_power_down:
 278               	.LFB14:
 279               		.cfi_startproc
 280               	/* prologue: function */
 281               	/* frame size = 0 */
 282               	/* stack size = 0 */
 283               	.L__stack_usage = 0
 284               	/* epilogue start */
 285 0000 0895      		ret
 286               		.cfi_endproc
 287               	.LFE14:
 289               		.section	.progmem.data.__c.1742,"a"
 292               	__c.1742:
 293 0000 2530 3258 		.string	"%02X: %08b%s\n"
 293      3A20 2530 
 293      3862 2573 
 293      0A00 
 294               		.section	.progmem.data.__c.1739,"a"
 297               	__c.1739:
 298 0000 722F 6320 		.string	"r/c 01234567\n"
 298      3031 3233 
 298      3435 3637 
 298      0A00 
 299               		.text
 300               	.Letext0:
 301               		.file 2 "/usr/avr/include/stdint.h"
 302               		.file 3 "../../tmk_core/common/avr/xprintf.h"
 303               		.file 4 "../../tmk_core/common/matrix.h"