   1               		.file	"EndpointStream_AVR8.c"
   2               	__SP_H__ = 0x3e
   3               	__SP_L__ = 0x3d
   4               	__SREG__ = 0x3f
   5               	__RAMPZ__ = 0x3b
   6               	__tmp_reg__ = 0
   7               	__zero_reg__ = 1
   8               		.text
   9               	.Ltext0:
  10               		.cfi_sections	.debug_frame
  11               		.section	.text.Endpoint_Discard_Stream,"ax",@progbits
  12               	.global	Endpoint_Discard_Stream
  14               	Endpoint_Discard_Stream:
  15               	.LVL0:
  16               	.LFB85:
  17               		.file 1 "./tmk_core/protocol/lufa/LUFA-git/LUFA/Drivers/USB/Core/AVR8/EndpointStream_AVR8.c"
   1:./tmk_core/protocol/lufa/LUFA-git/LUFA/Drivers/USB/Core/AVR8/EndpointStream_AVR8.c **** /*
   2:./tmk_core/protocol/lufa/LUFA-git/LUFA/Drivers/USB/Core/AVR8/EndpointStream_AVR8.c ****              LUFA Library
   3:./tmk_core/protocol/lufa/LUFA-git/LUFA/Drivers/USB/Core/AVR8/EndpointStream_AVR8.c ****      Copyright (C) Dean Camera, 2014.
   4:./tmk_core/protocol/lufa/LUFA-git/LUFA/Drivers/USB/Core/AVR8/EndpointStream_AVR8.c **** 
   5:./tmk_core/protocol/lufa/LUFA-git/LUFA/Drivers/USB/Core/AVR8/EndpointStream_AVR8.c ****   dean [at] fourwalledcubicle [dot] com
   6:./tmk_core/protocol/lufa/LUFA-git/LUFA/Drivers/USB/Core/AVR8/EndpointStream_AVR8.c ****            www.lufa-lib.org
   7:./tmk_core/protocol/lufa/LUFA-git/LUFA/Drivers/USB/Core/AVR8/EndpointStream_AVR8.c **** */
   8:./tmk_core/protocol/lufa/LUFA-git/LUFA/Drivers/USB/Core/AVR8/EndpointStream_AVR8.c **** 
   9:./tmk_core/protocol/lufa/LUFA-git/LUFA/Drivers/USB/Core/AVR8/EndpointStream_AVR8.c **** /*
  10:./tmk_core/protocol/lufa/LUFA-git/LUFA/Drivers/USB/Core/AVR8/EndpointStream_AVR8.c ****   Copyright 2014  Dean Camera (dean [at] fourwalledcubicle [dot] com)
  11:./tmk_core/protocol/lufa/LUFA-git/LUFA/Drivers/USB/Core/AVR8/EndpointStream_AVR8.c **** 
  12:./tmk_core/protocol/lufa/LUFA-git/LUFA/Drivers/USB/Core/AVR8/EndpointStream_AVR8.c ****   Permission to use, copy, modify, distribute, and sell this
  13:./tmk_core/protocol/lufa/LUFA-git/LUFA/Drivers/USB/Core/AVR8/EndpointStream_AVR8.c ****   software and its documentation for any purpose is hereby granted
  14:./tmk_core/protocol/lufa/LUFA-git/LUFA/Drivers/USB/Core/AVR8/EndpointStream_AVR8.c ****   without fee, provided that the above copyright notice appear in
  15:./tmk_core/protocol/lufa/LUFA-git/LUFA/Drivers/USB/Core/AVR8/EndpointStream_AVR8.c ****   all copies and that both that the copyright notice and this
  16:./tmk_core/protocol/lufa/LUFA-git/LUFA/Drivers/USB/Core/AVR8/EndpointStream_AVR8.c ****   permission notice and warranty disclaimer appear in supporting
  17:./tmk_core/protocol/lufa/LUFA-git/LUFA/Drivers/USB/Core/AVR8/EndpointStream_AVR8.c ****   documentation, and that the name of the author not be used in
  18:./tmk_core/protocol/lufa/LUFA-git/LUFA/Drivers/USB/Core/AVR8/EndpointStream_AVR8.c ****   advertising or publicity pertaining to distribution of the
  19:./tmk_core/protocol/lufa/LUFA-git/LUFA/Drivers/USB/Core/AVR8/EndpointStream_AVR8.c ****   software without specific, written prior permission.
  20:./tmk_core/protocol/lufa/LUFA-git/LUFA/Drivers/USB/Core/AVR8/EndpointStream_AVR8.c **** 
  21:./tmk_core/protocol/lufa/LUFA-git/LUFA/Drivers/USB/Core/AVR8/EndpointStream_AVR8.c ****   The author disclaims all warranties with regard to this
  22:./tmk_core/protocol/lufa/LUFA-git/LUFA/Drivers/USB/Core/AVR8/EndpointStream_AVR8.c ****   software, including all implied warranties of merchantability
  23:./tmk_core/protocol/lufa/LUFA-git/LUFA/Drivers/USB/Core/AVR8/EndpointStream_AVR8.c ****   and fitness.  In no event shall the author be liable for any
  24:./tmk_core/protocol/lufa/LUFA-git/LUFA/Drivers/USB/Core/AVR8/EndpointStream_AVR8.c ****   special, indirect or consequential damages or any damages
  25:./tmk_core/protocol/lufa/LUFA-git/LUFA/Drivers/USB/Core/AVR8/EndpointStream_AVR8.c ****   whatsoever resulting from loss of use, data or profits, whether
  26:./tmk_core/protocol/lufa/LUFA-git/LUFA/Drivers/USB/Core/AVR8/EndpointStream_AVR8.c ****   in an action of contract, negligence or other tortious action,
  27:./tmk_core/protocol/lufa/LUFA-git/LUFA/Drivers/USB/Core/AVR8/EndpointStream_AVR8.c ****   arising out of or in connection with the use or performance of
  28:./tmk_core/protocol/lufa/LUFA-git/LUFA/Drivers/USB/Core/AVR8/EndpointStream_AVR8.c ****   this software.
  29:./tmk_core/protocol/lufa/LUFA-git/LUFA/Drivers/USB/Core/AVR8/EndpointStream_AVR8.c **** */
  30:./tmk_core/protocol/lufa/LUFA-git/LUFA/Drivers/USB/Core/AVR8/EndpointStream_AVR8.c **** 
  31:./tmk_core/protocol/lufa/LUFA-git/LUFA/Drivers/USB/Core/AVR8/EndpointStream_AVR8.c **** #include "../../../../Common/Common.h"
  32:./tmk_core/protocol/lufa/LUFA-git/LUFA/Drivers/USB/Core/AVR8/EndpointStream_AVR8.c **** #if (ARCH == ARCH_AVR8)
  33:./tmk_core/protocol/lufa/LUFA-git/LUFA/Drivers/USB/Core/AVR8/EndpointStream_AVR8.c **** 
  34:./tmk_core/protocol/lufa/LUFA-git/LUFA/Drivers/USB/Core/AVR8/EndpointStream_AVR8.c **** #define  __INCLUDE_FROM_USB_DRIVER
  35:./tmk_core/protocol/lufa/LUFA-git/LUFA/Drivers/USB/Core/AVR8/EndpointStream_AVR8.c **** #include "../USBMode.h"
  36:./tmk_core/protocol/lufa/LUFA-git/LUFA/Drivers/USB/Core/AVR8/EndpointStream_AVR8.c **** 
  37:./tmk_core/protocol/lufa/LUFA-git/LUFA/Drivers/USB/Core/AVR8/EndpointStream_AVR8.c **** #if defined(USB_CAN_BE_DEVICE)
  38:./tmk_core/protocol/lufa/LUFA-git/LUFA/Drivers/USB/Core/AVR8/EndpointStream_AVR8.c **** 
  39:./tmk_core/protocol/lufa/LUFA-git/LUFA/Drivers/USB/Core/AVR8/EndpointStream_AVR8.c **** #include "EndpointStream_AVR8.h"
  40:./tmk_core/protocol/lufa/LUFA-git/LUFA/Drivers/USB/Core/AVR8/EndpointStream_AVR8.c **** 
  41:./tmk_core/protocol/lufa/LUFA-git/LUFA/Drivers/USB/Core/AVR8/EndpointStream_AVR8.c **** #if !defined(CONTROL_ONLY_DEVICE)
  42:./tmk_core/protocol/lufa/LUFA-git/LUFA/Drivers/USB/Core/AVR8/EndpointStream_AVR8.c **** uint8_t Endpoint_Discard_Stream(uint16_t Length,
  43:./tmk_core/protocol/lufa/LUFA-git/LUFA/Drivers/USB/Core/AVR8/EndpointStream_AVR8.c ****                                 uint16_t* const BytesProcessed)
  44:./tmk_core/protocol/lufa/LUFA-git/LUFA/Drivers/USB/Core/AVR8/EndpointStream_AVR8.c **** {
  18               		.loc 1 44 1 view -0
  19               		.cfi_startproc
  20               		.loc 1 44 1 is_stmt 0 view .LVU1
  21 0000 CF92      		push r12
  22               	.LCFI0:
  23               		.cfi_def_cfa_offset 3
  24               		.cfi_offset 12, -2
  25 0002 DF92      		push r13
  26               	.LCFI1:
  27               		.cfi_def_cfa_offset 4
  28               		.cfi_offset 13, -3
  29 0004 FF92      		push r15
  30               	.LCFI2:
  31               		.cfi_def_cfa_offset 5
  32               		.cfi_offset 15, -4
  33 0006 0F93      		push r16
  34               	.LCFI3:
  35               		.cfi_def_cfa_offset 6
  36               		.cfi_offset 16, -5
  37 0008 1F93      		push r17
  38               	.LCFI4:
  39               		.cfi_def_cfa_offset 7
  40               		.cfi_offset 17, -6
  41 000a CF93      		push r28
  42               	.LCFI5:
  43               		.cfi_def_cfa_offset 8
  44               		.cfi_offset 28, -7
  45 000c DF93      		push r29
  46               	.LCFI6:
  47               		.cfi_def_cfa_offset 9
  48               		.cfi_offset 29, -8
  49               	/* prologue: function */
  50               	/* frame size = 0 */
  51               	/* stack size = 7 */
  52               	.L__stack_usage = 7
  53 000e EC01      		movw r28,r24
  54 0010 8B01      		movw r16,r22
  45:./tmk_core/protocol/lufa/LUFA-git/LUFA/Drivers/USB/Core/AVR8/EndpointStream_AVR8.c **** 	uint8_t  ErrorCode;
  55               		.loc 1 45 2 is_stmt 1 view .LVU2
  46:./tmk_core/protocol/lufa/LUFA-git/LUFA/Drivers/USB/Core/AVR8/EndpointStream_AVR8.c **** 	uint16_t BytesInTransfer = 0;
  56               		.loc 1 46 2 view .LVU3
  57               	.LVL1:
  47:./tmk_core/protocol/lufa/LUFA-git/LUFA/Drivers/USB/Core/AVR8/EndpointStream_AVR8.c **** 
  48:./tmk_core/protocol/lufa/LUFA-git/LUFA/Drivers/USB/Core/AVR8/EndpointStream_AVR8.c **** 	if ((ErrorCode = Endpoint_WaitUntilReady()))
  58               		.loc 1 48 2 view .LVU4
  59               		.loc 1 48 19 is_stmt 0 view .LVU5
  60 0012 0E94 0000 		call Endpoint_WaitUntilReady
  61               	.LVL2:
  62               		.loc 1 48 19 view .LVU6
  63 0016 F82E      		mov r15,r24
  64               	.LVL3:
  65               		.loc 1 48 5 view .LVU7
  66 0018 8111      		cpse r24,__zero_reg__
  67 001a 00C0      		rjmp .L1
  49:./tmk_core/protocol/lufa/LUFA-git/LUFA/Drivers/USB/Core/AVR8/EndpointStream_AVR8.c **** 	  return ErrorCode;
  50:./tmk_core/protocol/lufa/LUFA-git/LUFA/Drivers/USB/Core/AVR8/EndpointStream_AVR8.c **** 
  51:./tmk_core/protocol/lufa/LUFA-git/LUFA/Drivers/USB/Core/AVR8/EndpointStream_AVR8.c **** 	if (BytesProcessed != NULL)
  68               		.loc 1 51 2 is_stmt 1 view .LVU8
  69               		.loc 1 51 5 is_stmt 0 view .LVU9
  70 001c 0115      		cp r16,__zero_reg__
  71 001e 1105      		cpc r17,__zero_reg__
  72 0020 01F0      		breq .L3
  52:./tmk_core/protocol/lufa/LUFA-git/LUFA/Drivers/USB/Core/AVR8/EndpointStream_AVR8.c **** 	  Length -= *BytesProcessed;
  73               		.loc 1 52 4 is_stmt 1 view .LVU10
  74               		.loc 1 52 11 is_stmt 0 view .LVU11
  75 0022 F801      		movw r30,r16
  76 0024 8081      		ld r24,Z
  77 0026 9181      		ldd r25,Z+1
  78 0028 C81B      		sub r28,r24
  79 002a D90B      		sbc r29,r25
  80               	.LVL4:
  81               	.L3:
  44:./tmk_core/protocol/lufa/LUFA-git/LUFA/Drivers/USB/Core/AVR8/EndpointStream_AVR8.c **** 	uint8_t  ErrorCode;
  82               		.loc 1 44 1 view .LVU12
  83 002c D12C      		mov r13,__zero_reg__
  84 002e C12C      		mov r12,__zero_reg__
  85               	.LVL5:
  86               	.L4:
  53:./tmk_core/protocol/lufa/LUFA-git/LUFA/Drivers/USB/Core/AVR8/EndpointStream_AVR8.c **** 
  54:./tmk_core/protocol/lufa/LUFA-git/LUFA/Drivers/USB/Core/AVR8/EndpointStream_AVR8.c **** 	while (Length)
  87               		.loc 1 54 8 is_stmt 1 view .LVU13
  88 0030 2097      		sbiw r28,0
  89 0032 01F0      		breq .L1
  55:./tmk_core/protocol/lufa/LUFA-git/LUFA/Drivers/USB/Core/AVR8/EndpointStream_AVR8.c **** 	{
  56:./tmk_core/protocol/lufa/LUFA-git/LUFA/Drivers/USB/Core/AVR8/EndpointStream_AVR8.c **** 		if (!(Endpoint_IsReadWriteAllowed()))
  90               		.loc 1 56 3 view .LVU14
  91               	.LBB268:
  92               	.LBI268:
  93               		.file 2 "./tmk_core/protocol/lufa/LUFA-git/LUFA/Drivers/USB/Core/AVR8/../AVR8/../AVR8/Endpoint_AVR
   1:./tmk_core/protocol/lufa/LUFA-git/LUFA/Drivers/USB/Core/AVR8/../AVR8/../AVR8/Endpoint_AVR8.h **** /*
   2:./tmk_core/protocol/lufa/LUFA-git/LUFA/Drivers/USB/Core/AVR8/../AVR8/../AVR8/Endpoint_AVR8.h ****              LUFA Library
   3:./tmk_core/protocol/lufa/LUFA-git/LUFA/Drivers/USB/Core/AVR8/../AVR8/../AVR8/Endpoint_AVR8.h ****      Copyright (C) Dean Camera, 2014.
   4:./tmk_core/protocol/lufa/LUFA-git/LUFA/Drivers/USB/Core/AVR8/../AVR8/../AVR8/Endpoint_AVR8.h **** 
   5:./tmk_core/protocol/lufa/LUFA-git/LUFA/Drivers/USB/Core/AVR8/../AVR8/../AVR8/Endpoint_AVR8.h ****   dean [at] fourwalledcubicle [dot] com
   6:./tmk_core/protocol/lufa/LUFA-git/LUFA/Drivers/USB/Core/AVR8/../AVR8/../AVR8/Endpoint_AVR8.h ****            www.lufa-lib.org
   7:./tmk_core/protocol/lufa/LUFA-git/LUFA/Drivers/USB/Core/AVR8/../AVR8/../AVR8/Endpoint_AVR8.h **** */
   8:./tmk_core/protocol/lufa/LUFA-git/LUFA/Drivers/USB/Core/AVR8/../AVR8/../AVR8/Endpoint_AVR8.h **** 
   9:./tmk_core/protocol/lufa/LUFA-git/LUFA/Drivers/USB/Core/AVR8/../AVR8/../AVR8/Endpoint_AVR8.h **** /*
  10:./tmk_core/protocol/lufa/LUFA-git/LUFA/Drivers/USB/Core/AVR8/../AVR8/../AVR8/Endpoint_AVR8.h ****   Copyright 2014  Dean Camera (dean [at] fourwalledcubicle [dot] com)
  11:./tmk_core/protocol/lufa/LUFA-git/LUFA/Drivers/USB/Core/AVR8/../AVR8/../AVR8/Endpoint_AVR8.h **** 
  12:./tmk_core/protocol/lufa/LUFA-git/LUFA/Drivers/USB/Core/AVR8/../AVR8/../AVR8/Endpoint_AVR8.h ****   Permission to use, copy, modify, distribute, and sell this
  13:./tmk_core/protocol/lufa/LUFA-git/LUFA/Drivers/USB/Core/AVR8/../AVR8/../AVR8/Endpoint_AVR8.h ****   software and its documentation for any purpose is hereby granted
  14:./tmk_core/protocol/lufa/LUFA-git/LUFA/Drivers/USB/Core/AVR8/../AVR8/../AVR8/Endpoint_AVR8.h ****   without fee, provided that the above copyright notice appear in
  15:./tmk_core/protocol/lufa/LUFA-git/LUFA/Drivers/USB/Core/AVR8/../AVR8/../AVR8/Endpoint_AVR8.h ****   all copies and that both that the copyright notice and this
  16:./tmk_core/protocol/lufa/LUFA-git/LUFA/Drivers/USB/Core/AVR8/../AVR8/../AVR8/Endpoint_AVR8.h ****   permission notice and warranty disclaimer appear in supporting
  17:./tmk_core/protocol/lufa/LUFA-git/LUFA/Drivers/USB/Core/AVR8/../AVR8/../AVR8/Endpoint_AVR8.h ****   documentation, and that the name of the author not be used in
  18:./tmk_core/protocol/lufa/LUFA-git/LUFA/Drivers/USB/Core/AVR8/../AVR8/../AVR8/Endpoint_AVR8.h ****   advertising or publicity pertaining to distribution of the
  19:./tmk_core/protocol/lufa/LUFA-git/LUFA/Drivers/USB/Core/AVR8/../AVR8/../AVR8/Endpoint_AVR8.h ****   software without specific, written prior permission.
  20:./tmk_core/protocol/lufa/LUFA-git/LUFA/Drivers/USB/Core/AVR8/../AVR8/../AVR8/Endpoint_AVR8.h **** 
  21:./tmk_core/protocol/lufa/LUFA-git/LUFA/Drivers/USB/Core/AVR8/../AVR8/../AVR8/Endpoint_AVR8.h ****   The author disclaims all warranties with regard to this
  22:./tmk_core/protocol/lufa/LUFA-git/LUFA/Drivers/USB/Core/AVR8/../AVR8/../AVR8/Endpoint_AVR8.h ****   software, including all implied warranties of merchantability
  23:./tmk_core/protocol/lufa/LUFA-git/LUFA/Drivers/USB/Core/AVR8/../AVR8/../AVR8/Endpoint_AVR8.h ****   and fitness.  In no event shall the author be liable for any
  24:./tmk_core/protocol/lufa/LUFA-git/LUFA/Drivers/USB/Core/AVR8/../AVR8/../AVR8/Endpoint_AVR8.h ****   special, indirect or consequential damages or any damages
  25:./tmk_core/protocol/lufa/LUFA-git/LUFA/Drivers/USB/Core/AVR8/../AVR8/../AVR8/Endpoint_AVR8.h ****   whatsoever resulting from loss of use, data or profits, whether
  26:./tmk_core/protocol/lufa/LUFA-git/LUFA/Drivers/USB/Core/AVR8/../AVR8/../AVR8/Endpoint_AVR8.h ****   in an action of contract, negligence or other tortious action,
  27:./tmk_core/protocol/lufa/LUFA-git/LUFA/Drivers/USB/Core/AVR8/../AVR8/../AVR8/Endpoint_AVR8.h ****   arising out of or in connection with the use or performance of
  28:./tmk_core/protocol/lufa/LUFA-git/LUFA/Drivers/USB/Core/AVR8/../AVR8/../AVR8/Endpoint_AVR8.h ****   this software.
  29:./tmk_core/protocol/lufa/LUFA-git/LUFA/Drivers/USB/Core/AVR8/../AVR8/../AVR8/Endpoint_AVR8.h **** */
  30:./tmk_core/protocol/lufa/LUFA-git/LUFA/Drivers/USB/Core/AVR8/../AVR8/../AVR8/Endpoint_AVR8.h **** 
  31:./tmk_core/protocol/lufa/LUFA-git/LUFA/Drivers/USB/Core/AVR8/../AVR8/../AVR8/Endpoint_AVR8.h **** /** \file
  32:./tmk_core/protocol/lufa/LUFA-git/LUFA/Drivers/USB/Core/AVR8/../AVR8/../AVR8/Endpoint_AVR8.h ****  *  \brief USB Endpoint definitions for the AVR8 microcontrollers.
  33:./tmk_core/protocol/lufa/LUFA-git/LUFA/Drivers/USB/Core/AVR8/../AVR8/../AVR8/Endpoint_AVR8.h ****  *  \copydetails Group_EndpointManagement_AVR8
  34:./tmk_core/protocol/lufa/LUFA-git/LUFA/Drivers/USB/Core/AVR8/../AVR8/../AVR8/Endpoint_AVR8.h ****  *
  35:./tmk_core/protocol/lufa/LUFA-git/LUFA/Drivers/USB/Core/AVR8/../AVR8/../AVR8/Endpoint_AVR8.h ****  *  \note This file should not be included directly. It is automatically included as needed by the 
  36:./tmk_core/protocol/lufa/LUFA-git/LUFA/Drivers/USB/Core/AVR8/../AVR8/../AVR8/Endpoint_AVR8.h ****  *        dispatch header located in LUFA/Drivers/USB/USB.h.
  37:./tmk_core/protocol/lufa/LUFA-git/LUFA/Drivers/USB/Core/AVR8/../AVR8/../AVR8/Endpoint_AVR8.h ****  */
  38:./tmk_core/protocol/lufa/LUFA-git/LUFA/Drivers/USB/Core/AVR8/../AVR8/../AVR8/Endpoint_AVR8.h **** 
  39:./tmk_core/protocol/lufa/LUFA-git/LUFA/Drivers/USB/Core/AVR8/../AVR8/../AVR8/Endpoint_AVR8.h **** /** \ingroup Group_EndpointRW
  40:./tmk_core/protocol/lufa/LUFA-git/LUFA/Drivers/USB/Core/AVR8/../AVR8/../AVR8/Endpoint_AVR8.h ****  *  \defgroup Group_EndpointRW_AVR8 Endpoint Data Reading and Writing (AVR8)
  41:./tmk_core/protocol/lufa/LUFA-git/LUFA/Drivers/USB/Core/AVR8/../AVR8/../AVR8/Endpoint_AVR8.h ****  *  \brief Endpoint data read/write definitions for the Atmel AVR8 architecture.
  42:./tmk_core/protocol/lufa/LUFA-git/LUFA/Drivers/USB/Core/AVR8/../AVR8/../AVR8/Endpoint_AVR8.h ****  *
  43:./tmk_core/protocol/lufa/LUFA-git/LUFA/Drivers/USB/Core/AVR8/../AVR8/../AVR8/Endpoint_AVR8.h ****  *  Functions, macros, variables, enums and types related to data reading and writing from and to e
  44:./tmk_core/protocol/lufa/LUFA-git/LUFA/Drivers/USB/Core/AVR8/../AVR8/../AVR8/Endpoint_AVR8.h ****  */
  45:./tmk_core/protocol/lufa/LUFA-git/LUFA/Drivers/USB/Core/AVR8/../AVR8/../AVR8/Endpoint_AVR8.h **** 
  46:./tmk_core/protocol/lufa/LUFA-git/LUFA/Drivers/USB/Core/AVR8/../AVR8/../AVR8/Endpoint_AVR8.h **** /** \ingroup Group_EndpointPrimitiveRW
  47:./tmk_core/protocol/lufa/LUFA-git/LUFA/Drivers/USB/Core/AVR8/../AVR8/../AVR8/Endpoint_AVR8.h ****  *  \defgroup Group_EndpointPrimitiveRW_AVR8 Read/Write of Primitive Data Types (AVR8)
  48:./tmk_core/protocol/lufa/LUFA-git/LUFA/Drivers/USB/Core/AVR8/../AVR8/../AVR8/Endpoint_AVR8.h ****  *  \brief Endpoint primitive read/write definitions for the Atmel AVR8 architecture.
  49:./tmk_core/protocol/lufa/LUFA-git/LUFA/Drivers/USB/Core/AVR8/../AVR8/../AVR8/Endpoint_AVR8.h ****  *
  50:./tmk_core/protocol/lufa/LUFA-git/LUFA/Drivers/USB/Core/AVR8/../AVR8/../AVR8/Endpoint_AVR8.h ****  *  Functions, macros, variables, enums and types related to data reading and writing of primitive 
  51:./tmk_core/protocol/lufa/LUFA-git/LUFA/Drivers/USB/Core/AVR8/../AVR8/../AVR8/Endpoint_AVR8.h ****  *  from and to endpoints.
  52:./tmk_core/protocol/lufa/LUFA-git/LUFA/Drivers/USB/Core/AVR8/../AVR8/../AVR8/Endpoint_AVR8.h ****  */
  53:./tmk_core/protocol/lufa/LUFA-git/LUFA/Drivers/USB/Core/AVR8/../AVR8/../AVR8/Endpoint_AVR8.h **** 
  54:./tmk_core/protocol/lufa/LUFA-git/LUFA/Drivers/USB/Core/AVR8/../AVR8/../AVR8/Endpoint_AVR8.h **** /** \ingroup Group_EndpointPacketManagement
  55:./tmk_core/protocol/lufa/LUFA-git/LUFA/Drivers/USB/Core/AVR8/../AVR8/../AVR8/Endpoint_AVR8.h ****  *  \defgroup Group_EndpointPacketManagement_AVR8 Endpoint Packet Management (AVR8)
  56:./tmk_core/protocol/lufa/LUFA-git/LUFA/Drivers/USB/Core/AVR8/../AVR8/../AVR8/Endpoint_AVR8.h ****  *  \brief Endpoint packet management definitions for the Atmel AVR8 architecture.
  57:./tmk_core/protocol/lufa/LUFA-git/LUFA/Drivers/USB/Core/AVR8/../AVR8/../AVR8/Endpoint_AVR8.h ****  *
  58:./tmk_core/protocol/lufa/LUFA-git/LUFA/Drivers/USB/Core/AVR8/../AVR8/../AVR8/Endpoint_AVR8.h ****  *  Functions, macros, variables, enums and types related to packet management of endpoints.
  59:./tmk_core/protocol/lufa/LUFA-git/LUFA/Drivers/USB/Core/AVR8/../AVR8/../AVR8/Endpoint_AVR8.h ****  */
  60:./tmk_core/protocol/lufa/LUFA-git/LUFA/Drivers/USB/Core/AVR8/../AVR8/../AVR8/Endpoint_AVR8.h **** 
  61:./tmk_core/protocol/lufa/LUFA-git/LUFA/Drivers/USB/Core/AVR8/../AVR8/../AVR8/Endpoint_AVR8.h **** /** \ingroup Group_EndpointManagement
  62:./tmk_core/protocol/lufa/LUFA-git/LUFA/Drivers/USB/Core/AVR8/../AVR8/../AVR8/Endpoint_AVR8.h ****  *  \defgroup Group_EndpointManagement_AVR8 Endpoint Management (AVR8)
  63:./tmk_core/protocol/lufa/LUFA-git/LUFA/Drivers/USB/Core/AVR8/../AVR8/../AVR8/Endpoint_AVR8.h ****  *  \brief Endpoint management definitions for the Atmel AVR8 architecture.
  64:./tmk_core/protocol/lufa/LUFA-git/LUFA/Drivers/USB/Core/AVR8/../AVR8/../AVR8/Endpoint_AVR8.h ****  *
  65:./tmk_core/protocol/lufa/LUFA-git/LUFA/Drivers/USB/Core/AVR8/../AVR8/../AVR8/Endpoint_AVR8.h ****  *  Functions, macros and enums related to endpoint management when in USB Device mode. This
  66:./tmk_core/protocol/lufa/LUFA-git/LUFA/Drivers/USB/Core/AVR8/../AVR8/../AVR8/Endpoint_AVR8.h ****  *  module contains the endpoint management macros, as well as endpoint interrupt and data
  67:./tmk_core/protocol/lufa/LUFA-git/LUFA/Drivers/USB/Core/AVR8/../AVR8/../AVR8/Endpoint_AVR8.h ****  *  send/receive functions for various data types.
  68:./tmk_core/protocol/lufa/LUFA-git/LUFA/Drivers/USB/Core/AVR8/../AVR8/../AVR8/Endpoint_AVR8.h ****  *
  69:./tmk_core/protocol/lufa/LUFA-git/LUFA/Drivers/USB/Core/AVR8/../AVR8/../AVR8/Endpoint_AVR8.h ****  *  @{
  70:./tmk_core/protocol/lufa/LUFA-git/LUFA/Drivers/USB/Core/AVR8/../AVR8/../AVR8/Endpoint_AVR8.h ****  */
  71:./tmk_core/protocol/lufa/LUFA-git/LUFA/Drivers/USB/Core/AVR8/../AVR8/../AVR8/Endpoint_AVR8.h **** 
  72:./tmk_core/protocol/lufa/LUFA-git/LUFA/Drivers/USB/Core/AVR8/../AVR8/../AVR8/Endpoint_AVR8.h **** #ifndef __ENDPOINT_AVR8_H__
  73:./tmk_core/protocol/lufa/LUFA-git/LUFA/Drivers/USB/Core/AVR8/../AVR8/../AVR8/Endpoint_AVR8.h **** #define __ENDPOINT_AVR8_H__
  74:./tmk_core/protocol/lufa/LUFA-git/LUFA/Drivers/USB/Core/AVR8/../AVR8/../AVR8/Endpoint_AVR8.h **** 
  75:./tmk_core/protocol/lufa/LUFA-git/LUFA/Drivers/USB/Core/AVR8/../AVR8/../AVR8/Endpoint_AVR8.h **** 	/* Includes: */
  76:./tmk_core/protocol/lufa/LUFA-git/LUFA/Drivers/USB/Core/AVR8/../AVR8/../AVR8/Endpoint_AVR8.h **** 		#include "../../../../Common/Common.h"
  77:./tmk_core/protocol/lufa/LUFA-git/LUFA/Drivers/USB/Core/AVR8/../AVR8/../AVR8/Endpoint_AVR8.h **** 		#include "../USBTask.h"
  78:./tmk_core/protocol/lufa/LUFA-git/LUFA/Drivers/USB/Core/AVR8/../AVR8/../AVR8/Endpoint_AVR8.h **** 		#include "../USBInterrupt.h"
  79:./tmk_core/protocol/lufa/LUFA-git/LUFA/Drivers/USB/Core/AVR8/../AVR8/../AVR8/Endpoint_AVR8.h **** 
  80:./tmk_core/protocol/lufa/LUFA-git/LUFA/Drivers/USB/Core/AVR8/../AVR8/../AVR8/Endpoint_AVR8.h **** 	/* Enable C linkage for C++ Compilers: */
  81:./tmk_core/protocol/lufa/LUFA-git/LUFA/Drivers/USB/Core/AVR8/../AVR8/../AVR8/Endpoint_AVR8.h **** 		#if defined(__cplusplus)
  82:./tmk_core/protocol/lufa/LUFA-git/LUFA/Drivers/USB/Core/AVR8/../AVR8/../AVR8/Endpoint_AVR8.h **** 			extern "C" {
  83:./tmk_core/protocol/lufa/LUFA-git/LUFA/Drivers/USB/Core/AVR8/../AVR8/../AVR8/Endpoint_AVR8.h **** 		#endif
  84:./tmk_core/protocol/lufa/LUFA-git/LUFA/Drivers/USB/Core/AVR8/../AVR8/../AVR8/Endpoint_AVR8.h **** 
  85:./tmk_core/protocol/lufa/LUFA-git/LUFA/Drivers/USB/Core/AVR8/../AVR8/../AVR8/Endpoint_AVR8.h **** 	/* Preprocessor Checks: */
  86:./tmk_core/protocol/lufa/LUFA-git/LUFA/Drivers/USB/Core/AVR8/../AVR8/../AVR8/Endpoint_AVR8.h **** 		#if !defined(__INCLUDE_FROM_USB_DRIVER)
  87:./tmk_core/protocol/lufa/LUFA-git/LUFA/Drivers/USB/Core/AVR8/../AVR8/../AVR8/Endpoint_AVR8.h **** 			#error Do not include this file directly. Include LUFA/Drivers/USB/USB.h instead.
  88:./tmk_core/protocol/lufa/LUFA-git/LUFA/Drivers/USB/Core/AVR8/../AVR8/../AVR8/Endpoint_AVR8.h **** 		#endif
  89:./tmk_core/protocol/lufa/LUFA-git/LUFA/Drivers/USB/Core/AVR8/../AVR8/../AVR8/Endpoint_AVR8.h **** 
  90:./tmk_core/protocol/lufa/LUFA-git/LUFA/Drivers/USB/Core/AVR8/../AVR8/../AVR8/Endpoint_AVR8.h **** 	/* Private Interface - For use in library only: */
  91:./tmk_core/protocol/lufa/LUFA-git/LUFA/Drivers/USB/Core/AVR8/../AVR8/../AVR8/Endpoint_AVR8.h **** 	#if !defined(__DOXYGEN__)
  92:./tmk_core/protocol/lufa/LUFA-git/LUFA/Drivers/USB/Core/AVR8/../AVR8/../AVR8/Endpoint_AVR8.h **** 		/* Inline Functions: */
  93:./tmk_core/protocol/lufa/LUFA-git/LUFA/Drivers/USB/Core/AVR8/../AVR8/../AVR8/Endpoint_AVR8.h **** 			static inline uint8_t Endpoint_BytesToEPSizeMask(const uint16_t Bytes) ATTR_WARN_UNUSED_RESULT A
  94:./tmk_core/protocol/lufa/LUFA-git/LUFA/Drivers/USB/Core/AVR8/../AVR8/../AVR8/Endpoint_AVR8.h **** 			                                                                       ATTR_ALWAYS_INLINE;
  95:./tmk_core/protocol/lufa/LUFA-git/LUFA/Drivers/USB/Core/AVR8/../AVR8/../AVR8/Endpoint_AVR8.h **** 			static inline uint8_t Endpoint_BytesToEPSizeMask(const uint16_t Bytes)
  96:./tmk_core/protocol/lufa/LUFA-git/LUFA/Drivers/USB/Core/AVR8/../AVR8/../AVR8/Endpoint_AVR8.h **** 			{
  97:./tmk_core/protocol/lufa/LUFA-git/LUFA/Drivers/USB/Core/AVR8/../AVR8/../AVR8/Endpoint_AVR8.h **** 				uint8_t  MaskVal    = 0;
  98:./tmk_core/protocol/lufa/LUFA-git/LUFA/Drivers/USB/Core/AVR8/../AVR8/../AVR8/Endpoint_AVR8.h **** 				uint16_t CheckBytes = 8;
  99:./tmk_core/protocol/lufa/LUFA-git/LUFA/Drivers/USB/Core/AVR8/../AVR8/../AVR8/Endpoint_AVR8.h **** 
 100:./tmk_core/protocol/lufa/LUFA-git/LUFA/Drivers/USB/Core/AVR8/../AVR8/../AVR8/Endpoint_AVR8.h **** 				while (CheckBytes < Bytes)
 101:./tmk_core/protocol/lufa/LUFA-git/LUFA/Drivers/USB/Core/AVR8/../AVR8/../AVR8/Endpoint_AVR8.h **** 				{
 102:./tmk_core/protocol/lufa/LUFA-git/LUFA/Drivers/USB/Core/AVR8/../AVR8/../AVR8/Endpoint_AVR8.h **** 					MaskVal++;
 103:./tmk_core/protocol/lufa/LUFA-git/LUFA/Drivers/USB/Core/AVR8/../AVR8/../AVR8/Endpoint_AVR8.h **** 					CheckBytes <<= 1;
 104:./tmk_core/protocol/lufa/LUFA-git/LUFA/Drivers/USB/Core/AVR8/../AVR8/../AVR8/Endpoint_AVR8.h **** 				}
 105:./tmk_core/protocol/lufa/LUFA-git/LUFA/Drivers/USB/Core/AVR8/../AVR8/../AVR8/Endpoint_AVR8.h **** 
 106:./tmk_core/protocol/lufa/LUFA-git/LUFA/Drivers/USB/Core/AVR8/../AVR8/../AVR8/Endpoint_AVR8.h **** 				return (MaskVal << EPSIZE0);
 107:./tmk_core/protocol/lufa/LUFA-git/LUFA/Drivers/USB/Core/AVR8/../AVR8/../AVR8/Endpoint_AVR8.h **** 			}
 108:./tmk_core/protocol/lufa/LUFA-git/LUFA/Drivers/USB/Core/AVR8/../AVR8/../AVR8/Endpoint_AVR8.h **** 
 109:./tmk_core/protocol/lufa/LUFA-git/LUFA/Drivers/USB/Core/AVR8/../AVR8/../AVR8/Endpoint_AVR8.h **** 		/* Function Prototypes: */
 110:./tmk_core/protocol/lufa/LUFA-git/LUFA/Drivers/USB/Core/AVR8/../AVR8/../AVR8/Endpoint_AVR8.h **** 			void Endpoint_ClearEndpoints(void);
 111:./tmk_core/protocol/lufa/LUFA-git/LUFA/Drivers/USB/Core/AVR8/../AVR8/../AVR8/Endpoint_AVR8.h **** 			bool Endpoint_ConfigureEndpoint_Prv(const uint8_t Number,
 112:./tmk_core/protocol/lufa/LUFA-git/LUFA/Drivers/USB/Core/AVR8/../AVR8/../AVR8/Endpoint_AVR8.h **** 			                                    const uint8_t UECFG0XData,
 113:./tmk_core/protocol/lufa/LUFA-git/LUFA/Drivers/USB/Core/AVR8/../AVR8/../AVR8/Endpoint_AVR8.h **** 			                                    const uint8_t UECFG1XData);
 114:./tmk_core/protocol/lufa/LUFA-git/LUFA/Drivers/USB/Core/AVR8/../AVR8/../AVR8/Endpoint_AVR8.h **** 
 115:./tmk_core/protocol/lufa/LUFA-git/LUFA/Drivers/USB/Core/AVR8/../AVR8/../AVR8/Endpoint_AVR8.h **** 	#endif
 116:./tmk_core/protocol/lufa/LUFA-git/LUFA/Drivers/USB/Core/AVR8/../AVR8/../AVR8/Endpoint_AVR8.h **** 
 117:./tmk_core/protocol/lufa/LUFA-git/LUFA/Drivers/USB/Core/AVR8/../AVR8/../AVR8/Endpoint_AVR8.h **** 	/* Public Interface - May be used in end-application: */
 118:./tmk_core/protocol/lufa/LUFA-git/LUFA/Drivers/USB/Core/AVR8/../AVR8/../AVR8/Endpoint_AVR8.h **** 		/* Macros: */
 119:./tmk_core/protocol/lufa/LUFA-git/LUFA/Drivers/USB/Core/AVR8/../AVR8/../AVR8/Endpoint_AVR8.h **** 			#if (!defined(FIXED_CONTROL_ENDPOINT_SIZE) || defined(__DOXYGEN__))
 120:./tmk_core/protocol/lufa/LUFA-git/LUFA/Drivers/USB/Core/AVR8/../AVR8/../AVR8/Endpoint_AVR8.h **** 				/** Default size of the default control endpoint's bank, until altered by the control endpoint 
 121:./tmk_core/protocol/lufa/LUFA-git/LUFA/Drivers/USB/Core/AVR8/../AVR8/../AVR8/Endpoint_AVR8.h **** 				 *  value in the device descriptor. Not available if the \c FIXED_CONTROL_ENDPOINT_SIZE token i
 122:./tmk_core/protocol/lufa/LUFA-git/LUFA/Drivers/USB/Core/AVR8/../AVR8/../AVR8/Endpoint_AVR8.h **** 				 */
 123:./tmk_core/protocol/lufa/LUFA-git/LUFA/Drivers/USB/Core/AVR8/../AVR8/../AVR8/Endpoint_AVR8.h **** 				#define ENDPOINT_CONTROLEP_DEFAULT_SIZE     8
 124:./tmk_core/protocol/lufa/LUFA-git/LUFA/Drivers/USB/Core/AVR8/../AVR8/../AVR8/Endpoint_AVR8.h **** 			#endif
 125:./tmk_core/protocol/lufa/LUFA-git/LUFA/Drivers/USB/Core/AVR8/../AVR8/../AVR8/Endpoint_AVR8.h **** 
 126:./tmk_core/protocol/lufa/LUFA-git/LUFA/Drivers/USB/Core/AVR8/../AVR8/../AVR8/Endpoint_AVR8.h **** 			#if !defined(CONTROL_ONLY_DEVICE) || defined(__DOXYGEN__)
 127:./tmk_core/protocol/lufa/LUFA-git/LUFA/Drivers/USB/Core/AVR8/../AVR8/../AVR8/Endpoint_AVR8.h **** 				#if defined(USB_SERIES_4_AVR) || defined(USB_SERIES_6_AVR) || defined(USB_SERIES_7_AVR) || defi
 128:./tmk_core/protocol/lufa/LUFA-git/LUFA/Drivers/USB/Core/AVR8/../AVR8/../AVR8/Endpoint_AVR8.h **** 					/** Total number of endpoints (including the default control endpoint at address 0) which may
 129:./tmk_core/protocol/lufa/LUFA-git/LUFA/Drivers/USB/Core/AVR8/../AVR8/../AVR8/Endpoint_AVR8.h **** 					 *  be used in the device. Different USB AVR models support different amounts of endpoints,
 130:./tmk_core/protocol/lufa/LUFA-git/LUFA/Drivers/USB/Core/AVR8/../AVR8/../AVR8/Endpoint_AVR8.h **** 					 *  this value reflects the maximum number of endpoints for the currently selected AVR model.
 131:./tmk_core/protocol/lufa/LUFA-git/LUFA/Drivers/USB/Core/AVR8/../AVR8/../AVR8/Endpoint_AVR8.h **** 					 */
 132:./tmk_core/protocol/lufa/LUFA-git/LUFA/Drivers/USB/Core/AVR8/../AVR8/../AVR8/Endpoint_AVR8.h **** 					#define ENDPOINT_TOTAL_ENDPOINTS        7
 133:./tmk_core/protocol/lufa/LUFA-git/LUFA/Drivers/USB/Core/AVR8/../AVR8/../AVR8/Endpoint_AVR8.h **** 				#else
 134:./tmk_core/protocol/lufa/LUFA-git/LUFA/Drivers/USB/Core/AVR8/../AVR8/../AVR8/Endpoint_AVR8.h **** 					#define ENDPOINT_TOTAL_ENDPOINTS        5
 135:./tmk_core/protocol/lufa/LUFA-git/LUFA/Drivers/USB/Core/AVR8/../AVR8/../AVR8/Endpoint_AVR8.h **** 				#endif
 136:./tmk_core/protocol/lufa/LUFA-git/LUFA/Drivers/USB/Core/AVR8/../AVR8/../AVR8/Endpoint_AVR8.h **** 			#else
 137:./tmk_core/protocol/lufa/LUFA-git/LUFA/Drivers/USB/Core/AVR8/../AVR8/../AVR8/Endpoint_AVR8.h **** 				#define ENDPOINT_TOTAL_ENDPOINTS            1
 138:./tmk_core/protocol/lufa/LUFA-git/LUFA/Drivers/USB/Core/AVR8/../AVR8/../AVR8/Endpoint_AVR8.h **** 			#endif
 139:./tmk_core/protocol/lufa/LUFA-git/LUFA/Drivers/USB/Core/AVR8/../AVR8/../AVR8/Endpoint_AVR8.h **** 
 140:./tmk_core/protocol/lufa/LUFA-git/LUFA/Drivers/USB/Core/AVR8/../AVR8/../AVR8/Endpoint_AVR8.h **** 		/* Enums: */
 141:./tmk_core/protocol/lufa/LUFA-git/LUFA/Drivers/USB/Core/AVR8/../AVR8/../AVR8/Endpoint_AVR8.h **** 			/** Enum for the possible error return codes of the \ref Endpoint_WaitUntilReady() function.
 142:./tmk_core/protocol/lufa/LUFA-git/LUFA/Drivers/USB/Core/AVR8/../AVR8/../AVR8/Endpoint_AVR8.h **** 			 *
 143:./tmk_core/protocol/lufa/LUFA-git/LUFA/Drivers/USB/Core/AVR8/../AVR8/../AVR8/Endpoint_AVR8.h **** 			 *  \ingroup Group_EndpointRW_AVR8
 144:./tmk_core/protocol/lufa/LUFA-git/LUFA/Drivers/USB/Core/AVR8/../AVR8/../AVR8/Endpoint_AVR8.h **** 			 */
 145:./tmk_core/protocol/lufa/LUFA-git/LUFA/Drivers/USB/Core/AVR8/../AVR8/../AVR8/Endpoint_AVR8.h **** 			enum Endpoint_WaitUntilReady_ErrorCodes_t
 146:./tmk_core/protocol/lufa/LUFA-git/LUFA/Drivers/USB/Core/AVR8/../AVR8/../AVR8/Endpoint_AVR8.h **** 			{
 147:./tmk_core/protocol/lufa/LUFA-git/LUFA/Drivers/USB/Core/AVR8/../AVR8/../AVR8/Endpoint_AVR8.h **** 				ENDPOINT_READYWAIT_NoError                 = 0, /**< Endpoint is ready for next packet, no erro
 148:./tmk_core/protocol/lufa/LUFA-git/LUFA/Drivers/USB/Core/AVR8/../AVR8/../AVR8/Endpoint_AVR8.h **** 				ENDPOINT_READYWAIT_EndpointStalled         = 1, /**< The endpoint was stalled during the stream
 149:./tmk_core/protocol/lufa/LUFA-git/LUFA/Drivers/USB/Core/AVR8/../AVR8/../AVR8/Endpoint_AVR8.h **** 				                                                 *   transfer by the host or device.
 150:./tmk_core/protocol/lufa/LUFA-git/LUFA/Drivers/USB/Core/AVR8/../AVR8/../AVR8/Endpoint_AVR8.h **** 				                                                 */
 151:./tmk_core/protocol/lufa/LUFA-git/LUFA/Drivers/USB/Core/AVR8/../AVR8/../AVR8/Endpoint_AVR8.h **** 				ENDPOINT_READYWAIT_DeviceDisconnected      = 2,	/**< Device was disconnected from the host whil
 152:./tmk_core/protocol/lufa/LUFA-git/LUFA/Drivers/USB/Core/AVR8/../AVR8/../AVR8/Endpoint_AVR8.h **** 				                                                 *   waiting for the endpoint to become ready.
 153:./tmk_core/protocol/lufa/LUFA-git/LUFA/Drivers/USB/Core/AVR8/../AVR8/../AVR8/Endpoint_AVR8.h **** 				                                                 */
 154:./tmk_core/protocol/lufa/LUFA-git/LUFA/Drivers/USB/Core/AVR8/../AVR8/../AVR8/Endpoint_AVR8.h **** 				ENDPOINT_READYWAIT_BusSuspended            = 3, /**< The USB bus has been suspended by the host
 155:./tmk_core/protocol/lufa/LUFA-git/LUFA/Drivers/USB/Core/AVR8/../AVR8/../AVR8/Endpoint_AVR8.h **** 				                                                 *   no USB endpoint traffic can occur until th
 156:./tmk_core/protocol/lufa/LUFA-git/LUFA/Drivers/USB/Core/AVR8/../AVR8/../AVR8/Endpoint_AVR8.h **** 				                                                 *   has resumed.
 157:./tmk_core/protocol/lufa/LUFA-git/LUFA/Drivers/USB/Core/AVR8/../AVR8/../AVR8/Endpoint_AVR8.h **** 				                                                 */
 158:./tmk_core/protocol/lufa/LUFA-git/LUFA/Drivers/USB/Core/AVR8/../AVR8/../AVR8/Endpoint_AVR8.h **** 				ENDPOINT_READYWAIT_Timeout                 = 4, /**< The host failed to accept or send the next
 159:./tmk_core/protocol/lufa/LUFA-git/LUFA/Drivers/USB/Core/AVR8/../AVR8/../AVR8/Endpoint_AVR8.h **** 				                                                 *   within the software timeout period set by 
 160:./tmk_core/protocol/lufa/LUFA-git/LUFA/Drivers/USB/Core/AVR8/../AVR8/../AVR8/Endpoint_AVR8.h **** 				                                                 *   \ref USB_STREAM_TIMEOUT_MS macro.
 161:./tmk_core/protocol/lufa/LUFA-git/LUFA/Drivers/USB/Core/AVR8/../AVR8/../AVR8/Endpoint_AVR8.h **** 				                                                 */
 162:./tmk_core/protocol/lufa/LUFA-git/LUFA/Drivers/USB/Core/AVR8/../AVR8/../AVR8/Endpoint_AVR8.h **** 			};
 163:./tmk_core/protocol/lufa/LUFA-git/LUFA/Drivers/USB/Core/AVR8/../AVR8/../AVR8/Endpoint_AVR8.h **** 
 164:./tmk_core/protocol/lufa/LUFA-git/LUFA/Drivers/USB/Core/AVR8/../AVR8/../AVR8/Endpoint_AVR8.h **** 		/* Inline Functions: */
 165:./tmk_core/protocol/lufa/LUFA-git/LUFA/Drivers/USB/Core/AVR8/../AVR8/../AVR8/Endpoint_AVR8.h **** 			/** Configures the specified endpoint address with the given endpoint type, bank size and number
 166:./tmk_core/protocol/lufa/LUFA-git/LUFA/Drivers/USB/Core/AVR8/../AVR8/../AVR8/Endpoint_AVR8.h **** 			 *  banks. Once configured, the endpoint may be read from or written to, depending on its direct
 167:./tmk_core/protocol/lufa/LUFA-git/LUFA/Drivers/USB/Core/AVR8/../AVR8/../AVR8/Endpoint_AVR8.h **** 			 *
 168:./tmk_core/protocol/lufa/LUFA-git/LUFA/Drivers/USB/Core/AVR8/../AVR8/../AVR8/Endpoint_AVR8.h **** 			 *  \param[in] Address    Endpoint address to configure.
 169:./tmk_core/protocol/lufa/LUFA-git/LUFA/Drivers/USB/Core/AVR8/../AVR8/../AVR8/Endpoint_AVR8.h **** 			 *
 170:./tmk_core/protocol/lufa/LUFA-git/LUFA/Drivers/USB/Core/AVR8/../AVR8/../AVR8/Endpoint_AVR8.h **** 			 *  \param[in] Type       Type of endpoint to configure, a \c EP_TYPE_* mask. Not all endpoint t
 171:./tmk_core/protocol/lufa/LUFA-git/LUFA/Drivers/USB/Core/AVR8/../AVR8/../AVR8/Endpoint_AVR8.h **** 			 *                        are available on Low Speed USB devices - refer to the USB 2.0 specific
 172:./tmk_core/protocol/lufa/LUFA-git/LUFA/Drivers/USB/Core/AVR8/../AVR8/../AVR8/Endpoint_AVR8.h **** 			 *
 173:./tmk_core/protocol/lufa/LUFA-git/LUFA/Drivers/USB/Core/AVR8/../AVR8/../AVR8/Endpoint_AVR8.h **** 			 *  \param[in] Size       Size of the endpoint's bank, where packets are stored before they are 
 174:./tmk_core/protocol/lufa/LUFA-git/LUFA/Drivers/USB/Core/AVR8/../AVR8/../AVR8/Endpoint_AVR8.h **** 			 *                        to the USB host, or after they have been received from the USB host (d
 175:./tmk_core/protocol/lufa/LUFA-git/LUFA/Drivers/USB/Core/AVR8/../AVR8/../AVR8/Endpoint_AVR8.h **** 			 *                        the endpoint's data direction). The bank size must indicate the maximu
 176:./tmk_core/protocol/lufa/LUFA-git/LUFA/Drivers/USB/Core/AVR8/../AVR8/../AVR8/Endpoint_AVR8.h **** 			 *                        that the endpoint can handle.
 177:./tmk_core/protocol/lufa/LUFA-git/LUFA/Drivers/USB/Core/AVR8/../AVR8/../AVR8/Endpoint_AVR8.h **** 			 *
 178:./tmk_core/protocol/lufa/LUFA-git/LUFA/Drivers/USB/Core/AVR8/../AVR8/../AVR8/Endpoint_AVR8.h **** 			 *  \param[in] Banks      Number of banks to use for the endpoint being configured.
 179:./tmk_core/protocol/lufa/LUFA-git/LUFA/Drivers/USB/Core/AVR8/../AVR8/../AVR8/Endpoint_AVR8.h **** 			 *
 180:./tmk_core/protocol/lufa/LUFA-git/LUFA/Drivers/USB/Core/AVR8/../AVR8/../AVR8/Endpoint_AVR8.h **** 			 *  \attention When the \c ORDERED_EP_CONFIG compile time option is used, Endpoints <b>must</b> 
 181:./tmk_core/protocol/lufa/LUFA-git/LUFA/Drivers/USB/Core/AVR8/../AVR8/../AVR8/Endpoint_AVR8.h **** 			 *             ascending order, or bank corruption will occur.
 182:./tmk_core/protocol/lufa/LUFA-git/LUFA/Drivers/USB/Core/AVR8/../AVR8/../AVR8/Endpoint_AVR8.h **** 			 *
 183:./tmk_core/protocol/lufa/LUFA-git/LUFA/Drivers/USB/Core/AVR8/../AVR8/../AVR8/Endpoint_AVR8.h **** 			 *  \note Different endpoints may have different maximum packet sizes based on the endpoint's in
 184:./tmk_core/protocol/lufa/LUFA-git/LUFA/Drivers/USB/Core/AVR8/../AVR8/../AVR8/Endpoint_AVR8.h **** 			 *        refer to the chosen microcontroller model's datasheet to determine the maximum bank si
 185:./tmk_core/protocol/lufa/LUFA-git/LUFA/Drivers/USB/Core/AVR8/../AVR8/../AVR8/Endpoint_AVR8.h **** 			 *        \n\n
 186:./tmk_core/protocol/lufa/LUFA-git/LUFA/Drivers/USB/Core/AVR8/../AVR8/../AVR8/Endpoint_AVR8.h **** 			 *
 187:./tmk_core/protocol/lufa/LUFA-git/LUFA/Drivers/USB/Core/AVR8/../AVR8/../AVR8/Endpoint_AVR8.h **** 			 *  \note The default control endpoint should not be manually configured by the user application
 188:./tmk_core/protocol/lufa/LUFA-git/LUFA/Drivers/USB/Core/AVR8/../AVR8/../AVR8/Endpoint_AVR8.h **** 			 *        it is automatically configured by the library internally.
 189:./tmk_core/protocol/lufa/LUFA-git/LUFA/Drivers/USB/Core/AVR8/../AVR8/../AVR8/Endpoint_AVR8.h **** 			 *        \n\n
 190:./tmk_core/protocol/lufa/LUFA-git/LUFA/Drivers/USB/Core/AVR8/../AVR8/../AVR8/Endpoint_AVR8.h **** 			 *
 191:./tmk_core/protocol/lufa/LUFA-git/LUFA/Drivers/USB/Core/AVR8/../AVR8/../AVR8/Endpoint_AVR8.h **** 			 *  \note This routine will automatically select the specified endpoint upon success. Upon failu
 192:./tmk_core/protocol/lufa/LUFA-git/LUFA/Drivers/USB/Core/AVR8/../AVR8/../AVR8/Endpoint_AVR8.h **** 			 *        which failed to reconfigure correctly will be selected.
 193:./tmk_core/protocol/lufa/LUFA-git/LUFA/Drivers/USB/Core/AVR8/../AVR8/../AVR8/Endpoint_AVR8.h **** 			 *
 194:./tmk_core/protocol/lufa/LUFA-git/LUFA/Drivers/USB/Core/AVR8/../AVR8/../AVR8/Endpoint_AVR8.h **** 			 *  \return Boolean \c true if the configuration succeeded, \c false otherwise.
 195:./tmk_core/protocol/lufa/LUFA-git/LUFA/Drivers/USB/Core/AVR8/../AVR8/../AVR8/Endpoint_AVR8.h **** 			 */
 196:./tmk_core/protocol/lufa/LUFA-git/LUFA/Drivers/USB/Core/AVR8/../AVR8/../AVR8/Endpoint_AVR8.h **** 			static inline bool Endpoint_ConfigureEndpoint(const uint8_t Address,
 197:./tmk_core/protocol/lufa/LUFA-git/LUFA/Drivers/USB/Core/AVR8/../AVR8/../AVR8/Endpoint_AVR8.h **** 			                                              const uint8_t Type,
 198:./tmk_core/protocol/lufa/LUFA-git/LUFA/Drivers/USB/Core/AVR8/../AVR8/../AVR8/Endpoint_AVR8.h **** 			                                              const uint16_t Size,
 199:./tmk_core/protocol/lufa/LUFA-git/LUFA/Drivers/USB/Core/AVR8/../AVR8/../AVR8/Endpoint_AVR8.h **** 			                                              const uint8_t Banks) ATTR_ALWAYS_INLINE;
 200:./tmk_core/protocol/lufa/LUFA-git/LUFA/Drivers/USB/Core/AVR8/../AVR8/../AVR8/Endpoint_AVR8.h **** 			static inline bool Endpoint_ConfigureEndpoint(const uint8_t Address,
 201:./tmk_core/protocol/lufa/LUFA-git/LUFA/Drivers/USB/Core/AVR8/../AVR8/../AVR8/Endpoint_AVR8.h **** 			                                              const uint8_t Type,
 202:./tmk_core/protocol/lufa/LUFA-git/LUFA/Drivers/USB/Core/AVR8/../AVR8/../AVR8/Endpoint_AVR8.h **** 			                                              const uint16_t Size,
 203:./tmk_core/protocol/lufa/LUFA-git/LUFA/Drivers/USB/Core/AVR8/../AVR8/../AVR8/Endpoint_AVR8.h **** 			                                              const uint8_t Banks)
 204:./tmk_core/protocol/lufa/LUFA-git/LUFA/Drivers/USB/Core/AVR8/../AVR8/../AVR8/Endpoint_AVR8.h **** 			{
 205:./tmk_core/protocol/lufa/LUFA-git/LUFA/Drivers/USB/Core/AVR8/../AVR8/../AVR8/Endpoint_AVR8.h **** 				uint8_t Number = (Address & ENDPOINT_EPNUM_MASK);
 206:./tmk_core/protocol/lufa/LUFA-git/LUFA/Drivers/USB/Core/AVR8/../AVR8/../AVR8/Endpoint_AVR8.h **** 
 207:./tmk_core/protocol/lufa/LUFA-git/LUFA/Drivers/USB/Core/AVR8/../AVR8/../AVR8/Endpoint_AVR8.h **** 				if (Number >= ENDPOINT_TOTAL_ENDPOINTS)
 208:./tmk_core/protocol/lufa/LUFA-git/LUFA/Drivers/USB/Core/AVR8/../AVR8/../AVR8/Endpoint_AVR8.h **** 				  return false;
 209:./tmk_core/protocol/lufa/LUFA-git/LUFA/Drivers/USB/Core/AVR8/../AVR8/../AVR8/Endpoint_AVR8.h **** 
 210:./tmk_core/protocol/lufa/LUFA-git/LUFA/Drivers/USB/Core/AVR8/../AVR8/../AVR8/Endpoint_AVR8.h **** 				return Endpoint_ConfigureEndpoint_Prv(Number,
 211:./tmk_core/protocol/lufa/LUFA-git/LUFA/Drivers/USB/Core/AVR8/../AVR8/../AVR8/Endpoint_AVR8.h **** 				                                      ((Type << EPTYPE0) | ((Address & ENDPOINT_DIR_IN) ? (1 <<
 212:./tmk_core/protocol/lufa/LUFA-git/LUFA/Drivers/USB/Core/AVR8/../AVR8/../AVR8/Endpoint_AVR8.h **** 				                                      ((1 << ALLOC) | ((Banks > 1) ? (1 << EPBK0) : 0) | Endpoi
 213:./tmk_core/protocol/lufa/LUFA-git/LUFA/Drivers/USB/Core/AVR8/../AVR8/../AVR8/Endpoint_AVR8.h **** 			}
 214:./tmk_core/protocol/lufa/LUFA-git/LUFA/Drivers/USB/Core/AVR8/../AVR8/../AVR8/Endpoint_AVR8.h **** 
 215:./tmk_core/protocol/lufa/LUFA-git/LUFA/Drivers/USB/Core/AVR8/../AVR8/../AVR8/Endpoint_AVR8.h **** 			/** Indicates the number of bytes currently stored in the current endpoint's selected bank.
 216:./tmk_core/protocol/lufa/LUFA-git/LUFA/Drivers/USB/Core/AVR8/../AVR8/../AVR8/Endpoint_AVR8.h **** 			 *
 217:./tmk_core/protocol/lufa/LUFA-git/LUFA/Drivers/USB/Core/AVR8/../AVR8/../AVR8/Endpoint_AVR8.h **** 			 *  \ingroup Group_EndpointRW_AVR8
 218:./tmk_core/protocol/lufa/LUFA-git/LUFA/Drivers/USB/Core/AVR8/../AVR8/../AVR8/Endpoint_AVR8.h **** 			 *
 219:./tmk_core/protocol/lufa/LUFA-git/LUFA/Drivers/USB/Core/AVR8/../AVR8/../AVR8/Endpoint_AVR8.h **** 			 *  \return Total number of bytes in the currently selected Endpoint's FIFO buffer.
 220:./tmk_core/protocol/lufa/LUFA-git/LUFA/Drivers/USB/Core/AVR8/../AVR8/../AVR8/Endpoint_AVR8.h **** 			 */
 221:./tmk_core/protocol/lufa/LUFA-git/LUFA/Drivers/USB/Core/AVR8/../AVR8/../AVR8/Endpoint_AVR8.h **** 			static inline uint16_t Endpoint_BytesInEndpoint(void) ATTR_WARN_UNUSED_RESULT ATTR_ALWAYS_INLINE
 222:./tmk_core/protocol/lufa/LUFA-git/LUFA/Drivers/USB/Core/AVR8/../AVR8/../AVR8/Endpoint_AVR8.h **** 			static inline uint16_t Endpoint_BytesInEndpoint(void)
 223:./tmk_core/protocol/lufa/LUFA-git/LUFA/Drivers/USB/Core/AVR8/../AVR8/../AVR8/Endpoint_AVR8.h **** 			{
 224:./tmk_core/protocol/lufa/LUFA-git/LUFA/Drivers/USB/Core/AVR8/../AVR8/../AVR8/Endpoint_AVR8.h **** 				#if (defined(USB_SERIES_6_AVR) || defined(USB_SERIES_7_AVR))
 225:./tmk_core/protocol/lufa/LUFA-git/LUFA/Drivers/USB/Core/AVR8/../AVR8/../AVR8/Endpoint_AVR8.h **** 					return UEBCX;
 226:./tmk_core/protocol/lufa/LUFA-git/LUFA/Drivers/USB/Core/AVR8/../AVR8/../AVR8/Endpoint_AVR8.h **** 				#elif defined(USB_SERIES_4_AVR)
 227:./tmk_core/protocol/lufa/LUFA-git/LUFA/Drivers/USB/Core/AVR8/../AVR8/../AVR8/Endpoint_AVR8.h **** 					return (((uint16_t)UEBCHX << 8) | UEBCLX);
 228:./tmk_core/protocol/lufa/LUFA-git/LUFA/Drivers/USB/Core/AVR8/../AVR8/../AVR8/Endpoint_AVR8.h **** 				#elif defined(USB_SERIES_2_AVR)
 229:./tmk_core/protocol/lufa/LUFA-git/LUFA/Drivers/USB/Core/AVR8/../AVR8/../AVR8/Endpoint_AVR8.h **** 					return UEBCLX;
 230:./tmk_core/protocol/lufa/LUFA-git/LUFA/Drivers/USB/Core/AVR8/../AVR8/../AVR8/Endpoint_AVR8.h **** 				#endif
 231:./tmk_core/protocol/lufa/LUFA-git/LUFA/Drivers/USB/Core/AVR8/../AVR8/../AVR8/Endpoint_AVR8.h **** 			}
 232:./tmk_core/protocol/lufa/LUFA-git/LUFA/Drivers/USB/Core/AVR8/../AVR8/../AVR8/Endpoint_AVR8.h **** 
 233:./tmk_core/protocol/lufa/LUFA-git/LUFA/Drivers/USB/Core/AVR8/../AVR8/../AVR8/Endpoint_AVR8.h **** 			/** Determines the currently selected endpoint's direction.
 234:./tmk_core/protocol/lufa/LUFA-git/LUFA/Drivers/USB/Core/AVR8/../AVR8/../AVR8/Endpoint_AVR8.h **** 			 *
 235:./tmk_core/protocol/lufa/LUFA-git/LUFA/Drivers/USB/Core/AVR8/../AVR8/../AVR8/Endpoint_AVR8.h **** 			 *  \return The currently selected endpoint's direction, as a \c ENDPOINT_DIR_* mask.
 236:./tmk_core/protocol/lufa/LUFA-git/LUFA/Drivers/USB/Core/AVR8/../AVR8/../AVR8/Endpoint_AVR8.h **** 			 */
 237:./tmk_core/protocol/lufa/LUFA-git/LUFA/Drivers/USB/Core/AVR8/../AVR8/../AVR8/Endpoint_AVR8.h **** 			static inline uint8_t Endpoint_GetEndpointDirection(void) ATTR_WARN_UNUSED_RESULT ATTR_ALWAYS_IN
 238:./tmk_core/protocol/lufa/LUFA-git/LUFA/Drivers/USB/Core/AVR8/../AVR8/../AVR8/Endpoint_AVR8.h **** 			static inline uint8_t Endpoint_GetEndpointDirection(void)
 239:./tmk_core/protocol/lufa/LUFA-git/LUFA/Drivers/USB/Core/AVR8/../AVR8/../AVR8/Endpoint_AVR8.h **** 			{
 240:./tmk_core/protocol/lufa/LUFA-git/LUFA/Drivers/USB/Core/AVR8/../AVR8/../AVR8/Endpoint_AVR8.h **** 				return (UECFG0X & (1 << EPDIR)) ? ENDPOINT_DIR_IN : ENDPOINT_DIR_OUT;
 241:./tmk_core/protocol/lufa/LUFA-git/LUFA/Drivers/USB/Core/AVR8/../AVR8/../AVR8/Endpoint_AVR8.h **** 			}
 242:./tmk_core/protocol/lufa/LUFA-git/LUFA/Drivers/USB/Core/AVR8/../AVR8/../AVR8/Endpoint_AVR8.h **** 
 243:./tmk_core/protocol/lufa/LUFA-git/LUFA/Drivers/USB/Core/AVR8/../AVR8/../AVR8/Endpoint_AVR8.h **** 			/** Get the endpoint address of the currently selected endpoint. This is typically used to save
 244:./tmk_core/protocol/lufa/LUFA-git/LUFA/Drivers/USB/Core/AVR8/../AVR8/../AVR8/Endpoint_AVR8.h **** 			 *  the currently selected endpoint so that it can be restored after another endpoint has been
 245:./tmk_core/protocol/lufa/LUFA-git/LUFA/Drivers/USB/Core/AVR8/../AVR8/../AVR8/Endpoint_AVR8.h **** 			 *  manipulated.
 246:./tmk_core/protocol/lufa/LUFA-git/LUFA/Drivers/USB/Core/AVR8/../AVR8/../AVR8/Endpoint_AVR8.h **** 			 *
 247:./tmk_core/protocol/lufa/LUFA-git/LUFA/Drivers/USB/Core/AVR8/../AVR8/../AVR8/Endpoint_AVR8.h **** 			 *  \return Index of the currently selected endpoint.
 248:./tmk_core/protocol/lufa/LUFA-git/LUFA/Drivers/USB/Core/AVR8/../AVR8/../AVR8/Endpoint_AVR8.h **** 			 */
 249:./tmk_core/protocol/lufa/LUFA-git/LUFA/Drivers/USB/Core/AVR8/../AVR8/../AVR8/Endpoint_AVR8.h **** 			static inline uint8_t Endpoint_GetCurrentEndpoint(void) ATTR_WARN_UNUSED_RESULT ATTR_ALWAYS_INLI
 250:./tmk_core/protocol/lufa/LUFA-git/LUFA/Drivers/USB/Core/AVR8/../AVR8/../AVR8/Endpoint_AVR8.h **** 			static inline uint8_t Endpoint_GetCurrentEndpoint(void)
 251:./tmk_core/protocol/lufa/LUFA-git/LUFA/Drivers/USB/Core/AVR8/../AVR8/../AVR8/Endpoint_AVR8.h **** 			{
 252:./tmk_core/protocol/lufa/LUFA-git/LUFA/Drivers/USB/Core/AVR8/../AVR8/../AVR8/Endpoint_AVR8.h **** 				#if !defined(CONTROL_ONLY_DEVICE)
 253:./tmk_core/protocol/lufa/LUFA-git/LUFA/Drivers/USB/Core/AVR8/../AVR8/../AVR8/Endpoint_AVR8.h **** 					return ((UENUM & ENDPOINT_EPNUM_MASK) | Endpoint_GetEndpointDirection());
 254:./tmk_core/protocol/lufa/LUFA-git/LUFA/Drivers/USB/Core/AVR8/../AVR8/../AVR8/Endpoint_AVR8.h **** 				#else
 255:./tmk_core/protocol/lufa/LUFA-git/LUFA/Drivers/USB/Core/AVR8/../AVR8/../AVR8/Endpoint_AVR8.h **** 					return ENDPOINT_CONTROLEP;
 256:./tmk_core/protocol/lufa/LUFA-git/LUFA/Drivers/USB/Core/AVR8/../AVR8/../AVR8/Endpoint_AVR8.h **** 				#endif
 257:./tmk_core/protocol/lufa/LUFA-git/LUFA/Drivers/USB/Core/AVR8/../AVR8/../AVR8/Endpoint_AVR8.h **** 			}
 258:./tmk_core/protocol/lufa/LUFA-git/LUFA/Drivers/USB/Core/AVR8/../AVR8/../AVR8/Endpoint_AVR8.h **** 
 259:./tmk_core/protocol/lufa/LUFA-git/LUFA/Drivers/USB/Core/AVR8/../AVR8/../AVR8/Endpoint_AVR8.h **** 			/** Selects the given endpoint address.
 260:./tmk_core/protocol/lufa/LUFA-git/LUFA/Drivers/USB/Core/AVR8/../AVR8/../AVR8/Endpoint_AVR8.h **** 			 *
 261:./tmk_core/protocol/lufa/LUFA-git/LUFA/Drivers/USB/Core/AVR8/../AVR8/../AVR8/Endpoint_AVR8.h **** 			 *  Any endpoint operations which do not require the endpoint address to be indicated will opera
 262:./tmk_core/protocol/lufa/LUFA-git/LUFA/Drivers/USB/Core/AVR8/../AVR8/../AVR8/Endpoint_AVR8.h **** 			 *  the currently selected endpoint.
 263:./tmk_core/protocol/lufa/LUFA-git/LUFA/Drivers/USB/Core/AVR8/../AVR8/../AVR8/Endpoint_AVR8.h **** 			 *
 264:./tmk_core/protocol/lufa/LUFA-git/LUFA/Drivers/USB/Core/AVR8/../AVR8/../AVR8/Endpoint_AVR8.h **** 			 *  \param[in] Address Endpoint address to select.
 265:./tmk_core/protocol/lufa/LUFA-git/LUFA/Drivers/USB/Core/AVR8/../AVR8/../AVR8/Endpoint_AVR8.h **** 			 */
 266:./tmk_core/protocol/lufa/LUFA-git/LUFA/Drivers/USB/Core/AVR8/../AVR8/../AVR8/Endpoint_AVR8.h **** 			static inline void Endpoint_SelectEndpoint(const uint8_t Address) ATTR_ALWAYS_INLINE;
 267:./tmk_core/protocol/lufa/LUFA-git/LUFA/Drivers/USB/Core/AVR8/../AVR8/../AVR8/Endpoint_AVR8.h **** 			static inline void Endpoint_SelectEndpoint(const uint8_t Address)
 268:./tmk_core/protocol/lufa/LUFA-git/LUFA/Drivers/USB/Core/AVR8/../AVR8/../AVR8/Endpoint_AVR8.h **** 			{
 269:./tmk_core/protocol/lufa/LUFA-git/LUFA/Drivers/USB/Core/AVR8/../AVR8/../AVR8/Endpoint_AVR8.h **** 				#if !defined(CONTROL_ONLY_DEVICE)
 270:./tmk_core/protocol/lufa/LUFA-git/LUFA/Drivers/USB/Core/AVR8/../AVR8/../AVR8/Endpoint_AVR8.h **** 					UENUM = (Address & ENDPOINT_EPNUM_MASK);
 271:./tmk_core/protocol/lufa/LUFA-git/LUFA/Drivers/USB/Core/AVR8/../AVR8/../AVR8/Endpoint_AVR8.h **** 				#endif
 272:./tmk_core/protocol/lufa/LUFA-git/LUFA/Drivers/USB/Core/AVR8/../AVR8/../AVR8/Endpoint_AVR8.h **** 			}
 273:./tmk_core/protocol/lufa/LUFA-git/LUFA/Drivers/USB/Core/AVR8/../AVR8/../AVR8/Endpoint_AVR8.h **** 
 274:./tmk_core/protocol/lufa/LUFA-git/LUFA/Drivers/USB/Core/AVR8/../AVR8/../AVR8/Endpoint_AVR8.h **** 			/** Resets the endpoint bank FIFO. This clears all the endpoint banks and resets the USB control
 275:./tmk_core/protocol/lufa/LUFA-git/LUFA/Drivers/USB/Core/AVR8/../AVR8/../AVR8/Endpoint_AVR8.h **** 			 *  data In and Out pointers to the bank's contents.
 276:./tmk_core/protocol/lufa/LUFA-git/LUFA/Drivers/USB/Core/AVR8/../AVR8/../AVR8/Endpoint_AVR8.h **** 			 *
 277:./tmk_core/protocol/lufa/LUFA-git/LUFA/Drivers/USB/Core/AVR8/../AVR8/../AVR8/Endpoint_AVR8.h **** 			 *  \param[in] Address  Endpoint address whose FIFO buffers are to be reset.
 278:./tmk_core/protocol/lufa/LUFA-git/LUFA/Drivers/USB/Core/AVR8/../AVR8/../AVR8/Endpoint_AVR8.h **** 			 */
 279:./tmk_core/protocol/lufa/LUFA-git/LUFA/Drivers/USB/Core/AVR8/../AVR8/../AVR8/Endpoint_AVR8.h **** 			static inline void Endpoint_ResetEndpoint(const uint8_t Address) ATTR_ALWAYS_INLINE;
 280:./tmk_core/protocol/lufa/LUFA-git/LUFA/Drivers/USB/Core/AVR8/../AVR8/../AVR8/Endpoint_AVR8.h **** 			static inline void Endpoint_ResetEndpoint(const uint8_t Address)
 281:./tmk_core/protocol/lufa/LUFA-git/LUFA/Drivers/USB/Core/AVR8/../AVR8/../AVR8/Endpoint_AVR8.h **** 			{
 282:./tmk_core/protocol/lufa/LUFA-git/LUFA/Drivers/USB/Core/AVR8/../AVR8/../AVR8/Endpoint_AVR8.h **** 				UERST = (1 << (Address & ENDPOINT_EPNUM_MASK));
 283:./tmk_core/protocol/lufa/LUFA-git/LUFA/Drivers/USB/Core/AVR8/../AVR8/../AVR8/Endpoint_AVR8.h **** 				UERST = 0;
 284:./tmk_core/protocol/lufa/LUFA-git/LUFA/Drivers/USB/Core/AVR8/../AVR8/../AVR8/Endpoint_AVR8.h **** 			}
 285:./tmk_core/protocol/lufa/LUFA-git/LUFA/Drivers/USB/Core/AVR8/../AVR8/../AVR8/Endpoint_AVR8.h **** 
 286:./tmk_core/protocol/lufa/LUFA-git/LUFA/Drivers/USB/Core/AVR8/../AVR8/../AVR8/Endpoint_AVR8.h **** 			/** Enables the currently selected endpoint so that data can be sent and received through it to
 287:./tmk_core/protocol/lufa/LUFA-git/LUFA/Drivers/USB/Core/AVR8/../AVR8/../AVR8/Endpoint_AVR8.h **** 			 *  and from a host.
 288:./tmk_core/protocol/lufa/LUFA-git/LUFA/Drivers/USB/Core/AVR8/../AVR8/../AVR8/Endpoint_AVR8.h **** 			 *
 289:./tmk_core/protocol/lufa/LUFA-git/LUFA/Drivers/USB/Core/AVR8/../AVR8/../AVR8/Endpoint_AVR8.h **** 			 *  \note Endpoints must first be configured properly via \ref Endpoint_ConfigureEndpoint().
 290:./tmk_core/protocol/lufa/LUFA-git/LUFA/Drivers/USB/Core/AVR8/../AVR8/../AVR8/Endpoint_AVR8.h **** 			 */
 291:./tmk_core/protocol/lufa/LUFA-git/LUFA/Drivers/USB/Core/AVR8/../AVR8/../AVR8/Endpoint_AVR8.h **** 			static inline void Endpoint_EnableEndpoint(void) ATTR_ALWAYS_INLINE;
 292:./tmk_core/protocol/lufa/LUFA-git/LUFA/Drivers/USB/Core/AVR8/../AVR8/../AVR8/Endpoint_AVR8.h **** 			static inline void Endpoint_EnableEndpoint(void)
 293:./tmk_core/protocol/lufa/LUFA-git/LUFA/Drivers/USB/Core/AVR8/../AVR8/../AVR8/Endpoint_AVR8.h **** 			{
 294:./tmk_core/protocol/lufa/LUFA-git/LUFA/Drivers/USB/Core/AVR8/../AVR8/../AVR8/Endpoint_AVR8.h **** 				UECONX |= (1 << EPEN);
 295:./tmk_core/protocol/lufa/LUFA-git/LUFA/Drivers/USB/Core/AVR8/../AVR8/../AVR8/Endpoint_AVR8.h **** 			}
 296:./tmk_core/protocol/lufa/LUFA-git/LUFA/Drivers/USB/Core/AVR8/../AVR8/../AVR8/Endpoint_AVR8.h **** 
 297:./tmk_core/protocol/lufa/LUFA-git/LUFA/Drivers/USB/Core/AVR8/../AVR8/../AVR8/Endpoint_AVR8.h **** 			/** Disables the currently selected endpoint so that data cannot be sent and received through it
 298:./tmk_core/protocol/lufa/LUFA-git/LUFA/Drivers/USB/Core/AVR8/../AVR8/../AVR8/Endpoint_AVR8.h **** 			 *  to and from a host.
 299:./tmk_core/protocol/lufa/LUFA-git/LUFA/Drivers/USB/Core/AVR8/../AVR8/../AVR8/Endpoint_AVR8.h **** 			 */
 300:./tmk_core/protocol/lufa/LUFA-git/LUFA/Drivers/USB/Core/AVR8/../AVR8/../AVR8/Endpoint_AVR8.h **** 			static inline void Endpoint_DisableEndpoint(void) ATTR_ALWAYS_INLINE;
 301:./tmk_core/protocol/lufa/LUFA-git/LUFA/Drivers/USB/Core/AVR8/../AVR8/../AVR8/Endpoint_AVR8.h **** 			static inline void Endpoint_DisableEndpoint(void)
 302:./tmk_core/protocol/lufa/LUFA-git/LUFA/Drivers/USB/Core/AVR8/../AVR8/../AVR8/Endpoint_AVR8.h **** 			{
 303:./tmk_core/protocol/lufa/LUFA-git/LUFA/Drivers/USB/Core/AVR8/../AVR8/../AVR8/Endpoint_AVR8.h **** 				UECONX &= ~(1 << EPEN);
 304:./tmk_core/protocol/lufa/LUFA-git/LUFA/Drivers/USB/Core/AVR8/../AVR8/../AVR8/Endpoint_AVR8.h **** 			}
 305:./tmk_core/protocol/lufa/LUFA-git/LUFA/Drivers/USB/Core/AVR8/../AVR8/../AVR8/Endpoint_AVR8.h **** 
 306:./tmk_core/protocol/lufa/LUFA-git/LUFA/Drivers/USB/Core/AVR8/../AVR8/../AVR8/Endpoint_AVR8.h **** 			/** Determines if the currently selected endpoint is enabled, but not necessarily configured.
 307:./tmk_core/protocol/lufa/LUFA-git/LUFA/Drivers/USB/Core/AVR8/../AVR8/../AVR8/Endpoint_AVR8.h **** 			 *
 308:./tmk_core/protocol/lufa/LUFA-git/LUFA/Drivers/USB/Core/AVR8/../AVR8/../AVR8/Endpoint_AVR8.h **** 			 * \return Boolean \c true if the currently selected endpoint is enabled, \c false otherwise.
 309:./tmk_core/protocol/lufa/LUFA-git/LUFA/Drivers/USB/Core/AVR8/../AVR8/../AVR8/Endpoint_AVR8.h **** 			 */
 310:./tmk_core/protocol/lufa/LUFA-git/LUFA/Drivers/USB/Core/AVR8/../AVR8/../AVR8/Endpoint_AVR8.h **** 			static inline bool Endpoint_IsEnabled(void) ATTR_WARN_UNUSED_RESULT ATTR_ALWAYS_INLINE;
 311:./tmk_core/protocol/lufa/LUFA-git/LUFA/Drivers/USB/Core/AVR8/../AVR8/../AVR8/Endpoint_AVR8.h **** 			static inline bool Endpoint_IsEnabled(void)
 312:./tmk_core/protocol/lufa/LUFA-git/LUFA/Drivers/USB/Core/AVR8/../AVR8/../AVR8/Endpoint_AVR8.h **** 			{
 313:./tmk_core/protocol/lufa/LUFA-git/LUFA/Drivers/USB/Core/AVR8/../AVR8/../AVR8/Endpoint_AVR8.h **** 				return ((UECONX & (1 << EPEN)) ? true : false);
 314:./tmk_core/protocol/lufa/LUFA-git/LUFA/Drivers/USB/Core/AVR8/../AVR8/../AVR8/Endpoint_AVR8.h **** 			}
 315:./tmk_core/protocol/lufa/LUFA-git/LUFA/Drivers/USB/Core/AVR8/../AVR8/../AVR8/Endpoint_AVR8.h **** 
 316:./tmk_core/protocol/lufa/LUFA-git/LUFA/Drivers/USB/Core/AVR8/../AVR8/../AVR8/Endpoint_AVR8.h **** 			/** Retrieves the number of busy banks in the currently selected endpoint, which have been queue
 317:./tmk_core/protocol/lufa/LUFA-git/LUFA/Drivers/USB/Core/AVR8/../AVR8/../AVR8/Endpoint_AVR8.h **** 			 *  transmission via the \ref Endpoint_ClearIN() command, or are awaiting acknowledgment via the
 318:./tmk_core/protocol/lufa/LUFA-git/LUFA/Drivers/USB/Core/AVR8/../AVR8/../AVR8/Endpoint_AVR8.h **** 			 *  \ref Endpoint_ClearOUT() command.
 319:./tmk_core/protocol/lufa/LUFA-git/LUFA/Drivers/USB/Core/AVR8/../AVR8/../AVR8/Endpoint_AVR8.h **** 			 *
 320:./tmk_core/protocol/lufa/LUFA-git/LUFA/Drivers/USB/Core/AVR8/../AVR8/../AVR8/Endpoint_AVR8.h **** 			 *  \ingroup Group_EndpointPacketManagement_AVR8
 321:./tmk_core/protocol/lufa/LUFA-git/LUFA/Drivers/USB/Core/AVR8/../AVR8/../AVR8/Endpoint_AVR8.h **** 			 *
 322:./tmk_core/protocol/lufa/LUFA-git/LUFA/Drivers/USB/Core/AVR8/../AVR8/../AVR8/Endpoint_AVR8.h **** 			 *  \return Total number of busy banks in the selected endpoint.
 323:./tmk_core/protocol/lufa/LUFA-git/LUFA/Drivers/USB/Core/AVR8/../AVR8/../AVR8/Endpoint_AVR8.h **** 			 */
 324:./tmk_core/protocol/lufa/LUFA-git/LUFA/Drivers/USB/Core/AVR8/../AVR8/../AVR8/Endpoint_AVR8.h **** 			static inline uint8_t Endpoint_GetBusyBanks(void) ATTR_ALWAYS_INLINE ATTR_WARN_UNUSED_RESULT;
 325:./tmk_core/protocol/lufa/LUFA-git/LUFA/Drivers/USB/Core/AVR8/../AVR8/../AVR8/Endpoint_AVR8.h **** 			static inline uint8_t Endpoint_GetBusyBanks(void)
 326:./tmk_core/protocol/lufa/LUFA-git/LUFA/Drivers/USB/Core/AVR8/../AVR8/../AVR8/Endpoint_AVR8.h **** 			{
 327:./tmk_core/protocol/lufa/LUFA-git/LUFA/Drivers/USB/Core/AVR8/../AVR8/../AVR8/Endpoint_AVR8.h **** 				return (UESTA0X & (0x03 << NBUSYBK0));
 328:./tmk_core/protocol/lufa/LUFA-git/LUFA/Drivers/USB/Core/AVR8/../AVR8/../AVR8/Endpoint_AVR8.h **** 			}
 329:./tmk_core/protocol/lufa/LUFA-git/LUFA/Drivers/USB/Core/AVR8/../AVR8/../AVR8/Endpoint_AVR8.h **** 
 330:./tmk_core/protocol/lufa/LUFA-git/LUFA/Drivers/USB/Core/AVR8/../AVR8/../AVR8/Endpoint_AVR8.h **** 			/** Aborts all pending IN transactions on the currently selected endpoint, once the bank
 331:./tmk_core/protocol/lufa/LUFA-git/LUFA/Drivers/USB/Core/AVR8/../AVR8/../AVR8/Endpoint_AVR8.h **** 			 *  has been queued for transmission to the host via \ref Endpoint_ClearIN(). This function
 332:./tmk_core/protocol/lufa/LUFA-git/LUFA/Drivers/USB/Core/AVR8/../AVR8/../AVR8/Endpoint_AVR8.h **** 			 *  will terminate all queued transactions, resetting the endpoint banks ready for a new
 333:./tmk_core/protocol/lufa/LUFA-git/LUFA/Drivers/USB/Core/AVR8/../AVR8/../AVR8/Endpoint_AVR8.h **** 			 *  packet.
 334:./tmk_core/protocol/lufa/LUFA-git/LUFA/Drivers/USB/Core/AVR8/../AVR8/../AVR8/Endpoint_AVR8.h **** 			 *
 335:./tmk_core/protocol/lufa/LUFA-git/LUFA/Drivers/USB/Core/AVR8/../AVR8/../AVR8/Endpoint_AVR8.h **** 			 *  \ingroup Group_EndpointPacketManagement_AVR8
 336:./tmk_core/protocol/lufa/LUFA-git/LUFA/Drivers/USB/Core/AVR8/../AVR8/../AVR8/Endpoint_AVR8.h **** 			 */
 337:./tmk_core/protocol/lufa/LUFA-git/LUFA/Drivers/USB/Core/AVR8/../AVR8/../AVR8/Endpoint_AVR8.h **** 			static inline void Endpoint_AbortPendingIN(void)
 338:./tmk_core/protocol/lufa/LUFA-git/LUFA/Drivers/USB/Core/AVR8/../AVR8/../AVR8/Endpoint_AVR8.h **** 			{
 339:./tmk_core/protocol/lufa/LUFA-git/LUFA/Drivers/USB/Core/AVR8/../AVR8/../AVR8/Endpoint_AVR8.h **** 				while (Endpoint_GetBusyBanks() != 0)
 340:./tmk_core/protocol/lufa/LUFA-git/LUFA/Drivers/USB/Core/AVR8/../AVR8/../AVR8/Endpoint_AVR8.h **** 				{
 341:./tmk_core/protocol/lufa/LUFA-git/LUFA/Drivers/USB/Core/AVR8/../AVR8/../AVR8/Endpoint_AVR8.h **** 					UEINTX |= (1 << RXOUTI);
 342:./tmk_core/protocol/lufa/LUFA-git/LUFA/Drivers/USB/Core/AVR8/../AVR8/../AVR8/Endpoint_AVR8.h **** 					while (UEINTX & (1 << RXOUTI));
 343:./tmk_core/protocol/lufa/LUFA-git/LUFA/Drivers/USB/Core/AVR8/../AVR8/../AVR8/Endpoint_AVR8.h **** 				}
 344:./tmk_core/protocol/lufa/LUFA-git/LUFA/Drivers/USB/Core/AVR8/../AVR8/../AVR8/Endpoint_AVR8.h **** 			}
 345:./tmk_core/protocol/lufa/LUFA-git/LUFA/Drivers/USB/Core/AVR8/../AVR8/../AVR8/Endpoint_AVR8.h **** 
 346:./tmk_core/protocol/lufa/LUFA-git/LUFA/Drivers/USB/Core/AVR8/../AVR8/../AVR8/Endpoint_AVR8.h **** 			/** Determines if the currently selected endpoint may be read from (if data is waiting in the en
 347:./tmk_core/protocol/lufa/LUFA-git/LUFA/Drivers/USB/Core/AVR8/../AVR8/../AVR8/Endpoint_AVR8.h **** 			 *  bank and the endpoint is an OUT direction, or if the bank is not yet full if the endpoint is
 348:./tmk_core/protocol/lufa/LUFA-git/LUFA/Drivers/USB/Core/AVR8/../AVR8/../AVR8/Endpoint_AVR8.h **** 			 *  direction). This function will return false if an error has occurred in the endpoint, if the
 349:./tmk_core/protocol/lufa/LUFA-git/LUFA/Drivers/USB/Core/AVR8/../AVR8/../AVR8/Endpoint_AVR8.h **** 			 *  is an OUT direction and no packet (or an empty packet) has been received, or if the endpoint
 350:./tmk_core/protocol/lufa/LUFA-git/LUFA/Drivers/USB/Core/AVR8/../AVR8/../AVR8/Endpoint_AVR8.h **** 			 *  direction and the endpoint bank is full.
 351:./tmk_core/protocol/lufa/LUFA-git/LUFA/Drivers/USB/Core/AVR8/../AVR8/../AVR8/Endpoint_AVR8.h **** 			 *
 352:./tmk_core/protocol/lufa/LUFA-git/LUFA/Drivers/USB/Core/AVR8/../AVR8/../AVR8/Endpoint_AVR8.h **** 			 *  \ingroup Group_EndpointPacketManagement_AVR8
 353:./tmk_core/protocol/lufa/LUFA-git/LUFA/Drivers/USB/Core/AVR8/../AVR8/../AVR8/Endpoint_AVR8.h **** 			 *
 354:./tmk_core/protocol/lufa/LUFA-git/LUFA/Drivers/USB/Core/AVR8/../AVR8/../AVR8/Endpoint_AVR8.h **** 			 *  \return Boolean \c true if the currently selected endpoint may be read from or written to, d
 355:./tmk_core/protocol/lufa/LUFA-git/LUFA/Drivers/USB/Core/AVR8/../AVR8/../AVR8/Endpoint_AVR8.h **** 			 *          on its direction.
 356:./tmk_core/protocol/lufa/LUFA-git/LUFA/Drivers/USB/Core/AVR8/../AVR8/../AVR8/Endpoint_AVR8.h **** 			 */
 357:./tmk_core/protocol/lufa/LUFA-git/LUFA/Drivers/USB/Core/AVR8/../AVR8/../AVR8/Endpoint_AVR8.h **** 			static inline bool Endpoint_IsReadWriteAllowed(void) ATTR_WARN_UNUSED_RESULT ATTR_ALWAYS_INLINE;
 358:./tmk_core/protocol/lufa/LUFA-git/LUFA/Drivers/USB/Core/AVR8/../AVR8/../AVR8/Endpoint_AVR8.h **** 			static inline bool Endpoint_IsReadWriteAllowed(void)
  94               		.loc 2 358 23 view .LVU15
  95               	.LBB269:
 359:./tmk_core/protocol/lufa/LUFA-git/LUFA/Drivers/USB/Core/AVR8/../AVR8/../AVR8/Endpoint_AVR8.h **** 			{
 360:./tmk_core/protocol/lufa/LUFA-git/LUFA/Drivers/USB/Core/AVR8/../AVR8/../AVR8/Endpoint_AVR8.h **** 				return ((UEINTX & (1 << RWAL)) ? true : false);
  96               		.loc 2 360 5 view .LVU16
  97               		.loc 2 360 14 is_stmt 0 view .LVU17
  98 0034 8091 E800 		lds r24,232
  99               	.LBE269:
 100               	.LBE268:
 101               		.loc 1 56 6 view .LVU18
 102 0038 85FD      		sbrc r24,5
 103 003a 00C0      		rjmp .L5
  57:./tmk_core/protocol/lufa/LUFA-git/LUFA/Drivers/USB/Core/AVR8/EndpointStream_AVR8.c **** 		{
  58:./tmk_core/protocol/lufa/LUFA-git/LUFA/Drivers/USB/Core/AVR8/EndpointStream_AVR8.c **** 			Endpoint_ClearOUT();
 104               		.loc 1 58 4 is_stmt 1 view .LVU19
 105               	.LBB270:
 106               	.LBI270:
 361:./tmk_core/protocol/lufa/LUFA-git/LUFA/Drivers/USB/Core/AVR8/../AVR8/../AVR8/Endpoint_AVR8.h **** 			}
 362:./tmk_core/protocol/lufa/LUFA-git/LUFA/Drivers/USB/Core/AVR8/../AVR8/../AVR8/Endpoint_AVR8.h **** 
 363:./tmk_core/protocol/lufa/LUFA-git/LUFA/Drivers/USB/Core/AVR8/../AVR8/../AVR8/Endpoint_AVR8.h **** 			/** Determines if the currently selected endpoint is configured.
 364:./tmk_core/protocol/lufa/LUFA-git/LUFA/Drivers/USB/Core/AVR8/../AVR8/../AVR8/Endpoint_AVR8.h **** 			 *
 365:./tmk_core/protocol/lufa/LUFA-git/LUFA/Drivers/USB/Core/AVR8/../AVR8/../AVR8/Endpoint_AVR8.h **** 			 *  \return Boolean \c true if the currently selected endpoint has been configured, \c false oth
 366:./tmk_core/protocol/lufa/LUFA-git/LUFA/Drivers/USB/Core/AVR8/../AVR8/../AVR8/Endpoint_AVR8.h **** 			 */
 367:./tmk_core/protocol/lufa/LUFA-git/LUFA/Drivers/USB/Core/AVR8/../AVR8/../AVR8/Endpoint_AVR8.h **** 			static inline bool Endpoint_IsConfigured(void) ATTR_WARN_UNUSED_RESULT ATTR_ALWAYS_INLINE;
 368:./tmk_core/protocol/lufa/LUFA-git/LUFA/Drivers/USB/Core/AVR8/../AVR8/../AVR8/Endpoint_AVR8.h **** 			static inline bool Endpoint_IsConfigured(void)
 369:./tmk_core/protocol/lufa/LUFA-git/LUFA/Drivers/USB/Core/AVR8/../AVR8/../AVR8/Endpoint_AVR8.h **** 			{
 370:./tmk_core/protocol/lufa/LUFA-git/LUFA/Drivers/USB/Core/AVR8/../AVR8/../AVR8/Endpoint_AVR8.h **** 				return ((UESTA0X & (1 << CFGOK)) ? true : false);
 371:./tmk_core/protocol/lufa/LUFA-git/LUFA/Drivers/USB/Core/AVR8/../AVR8/../AVR8/Endpoint_AVR8.h **** 			}
 372:./tmk_core/protocol/lufa/LUFA-git/LUFA/Drivers/USB/Core/AVR8/../AVR8/../AVR8/Endpoint_AVR8.h **** 
 373:./tmk_core/protocol/lufa/LUFA-git/LUFA/Drivers/USB/Core/AVR8/../AVR8/../AVR8/Endpoint_AVR8.h **** 			/** Returns a mask indicating which INTERRUPT type endpoints have interrupted - i.e. their
 374:./tmk_core/protocol/lufa/LUFA-git/LUFA/Drivers/USB/Core/AVR8/../AVR8/../AVR8/Endpoint_AVR8.h **** 			 *  interrupt duration has elapsed. Which endpoints have interrupted can be determined by
 375:./tmk_core/protocol/lufa/LUFA-git/LUFA/Drivers/USB/Core/AVR8/../AVR8/../AVR8/Endpoint_AVR8.h **** 			 *  masking the return value against <tt>(1 << <i>{Endpoint Number}</i>)</tt>.
 376:./tmk_core/protocol/lufa/LUFA-git/LUFA/Drivers/USB/Core/AVR8/../AVR8/../AVR8/Endpoint_AVR8.h **** 			 *
 377:./tmk_core/protocol/lufa/LUFA-git/LUFA/Drivers/USB/Core/AVR8/../AVR8/../AVR8/Endpoint_AVR8.h **** 			 *  \return Mask whose bits indicate which endpoints have interrupted.
 378:./tmk_core/protocol/lufa/LUFA-git/LUFA/Drivers/USB/Core/AVR8/../AVR8/../AVR8/Endpoint_AVR8.h **** 			 */
 379:./tmk_core/protocol/lufa/LUFA-git/LUFA/Drivers/USB/Core/AVR8/../AVR8/../AVR8/Endpoint_AVR8.h **** 			static inline uint8_t Endpoint_GetEndpointInterrupts(void) ATTR_WARN_UNUSED_RESULT ATTR_ALWAYS_I
 380:./tmk_core/protocol/lufa/LUFA-git/LUFA/Drivers/USB/Core/AVR8/../AVR8/../AVR8/Endpoint_AVR8.h **** 			static inline uint8_t Endpoint_GetEndpointInterrupts(void)
 381:./tmk_core/protocol/lufa/LUFA-git/LUFA/Drivers/USB/Core/AVR8/../AVR8/../AVR8/Endpoint_AVR8.h **** 			{
 382:./tmk_core/protocol/lufa/LUFA-git/LUFA/Drivers/USB/Core/AVR8/../AVR8/../AVR8/Endpoint_AVR8.h **** 				return UEINT;
 383:./tmk_core/protocol/lufa/LUFA-git/LUFA/Drivers/USB/Core/AVR8/../AVR8/../AVR8/Endpoint_AVR8.h **** 			}
 384:./tmk_core/protocol/lufa/LUFA-git/LUFA/Drivers/USB/Core/AVR8/../AVR8/../AVR8/Endpoint_AVR8.h **** 
 385:./tmk_core/protocol/lufa/LUFA-git/LUFA/Drivers/USB/Core/AVR8/../AVR8/../AVR8/Endpoint_AVR8.h **** 			/** Determines if the specified endpoint number has interrupted (valid only for INTERRUPT type
 386:./tmk_core/protocol/lufa/LUFA-git/LUFA/Drivers/USB/Core/AVR8/../AVR8/../AVR8/Endpoint_AVR8.h **** 			 *  endpoints).
 387:./tmk_core/protocol/lufa/LUFA-git/LUFA/Drivers/USB/Core/AVR8/../AVR8/../AVR8/Endpoint_AVR8.h **** 			 *
 388:./tmk_core/protocol/lufa/LUFA-git/LUFA/Drivers/USB/Core/AVR8/../AVR8/../AVR8/Endpoint_AVR8.h **** 			 *  \param[in] Address  Address of the endpoint whose interrupt flag should be tested.
 389:./tmk_core/protocol/lufa/LUFA-git/LUFA/Drivers/USB/Core/AVR8/../AVR8/../AVR8/Endpoint_AVR8.h **** 			 *
 390:./tmk_core/protocol/lufa/LUFA-git/LUFA/Drivers/USB/Core/AVR8/../AVR8/../AVR8/Endpoint_AVR8.h **** 			 *  \return Boolean \c true if the specified endpoint has interrupted, \c false otherwise.
 391:./tmk_core/protocol/lufa/LUFA-git/LUFA/Drivers/USB/Core/AVR8/../AVR8/../AVR8/Endpoint_AVR8.h **** 			 */
 392:./tmk_core/protocol/lufa/LUFA-git/LUFA/Drivers/USB/Core/AVR8/../AVR8/../AVR8/Endpoint_AVR8.h **** 			static inline bool Endpoint_HasEndpointInterrupted(const uint8_t Address) ATTR_WARN_UNUSED_RESUL
 393:./tmk_core/protocol/lufa/LUFA-git/LUFA/Drivers/USB/Core/AVR8/../AVR8/../AVR8/Endpoint_AVR8.h **** 			static inline bool Endpoint_HasEndpointInterrupted(const uint8_t Address)
 394:./tmk_core/protocol/lufa/LUFA-git/LUFA/Drivers/USB/Core/AVR8/../AVR8/../AVR8/Endpoint_AVR8.h **** 			{
 395:./tmk_core/protocol/lufa/LUFA-git/LUFA/Drivers/USB/Core/AVR8/../AVR8/../AVR8/Endpoint_AVR8.h **** 				return ((Endpoint_GetEndpointInterrupts() & (1 << (Address & ENDPOINT_EPNUM_MASK))) ? true : fa
 396:./tmk_core/protocol/lufa/LUFA-git/LUFA/Drivers/USB/Core/AVR8/../AVR8/../AVR8/Endpoint_AVR8.h **** 			}
 397:./tmk_core/protocol/lufa/LUFA-git/LUFA/Drivers/USB/Core/AVR8/../AVR8/../AVR8/Endpoint_AVR8.h **** 
 398:./tmk_core/protocol/lufa/LUFA-git/LUFA/Drivers/USB/Core/AVR8/../AVR8/../AVR8/Endpoint_AVR8.h **** 			/** Determines if the selected IN endpoint is ready for a new packet to be sent to the host.
 399:./tmk_core/protocol/lufa/LUFA-git/LUFA/Drivers/USB/Core/AVR8/../AVR8/../AVR8/Endpoint_AVR8.h **** 			 *
 400:./tmk_core/protocol/lufa/LUFA-git/LUFA/Drivers/USB/Core/AVR8/../AVR8/../AVR8/Endpoint_AVR8.h **** 			 *  \ingroup Group_EndpointPacketManagement_AVR8
 401:./tmk_core/protocol/lufa/LUFA-git/LUFA/Drivers/USB/Core/AVR8/../AVR8/../AVR8/Endpoint_AVR8.h **** 			 *
 402:./tmk_core/protocol/lufa/LUFA-git/LUFA/Drivers/USB/Core/AVR8/../AVR8/../AVR8/Endpoint_AVR8.h **** 			 *  \return Boolean \c true if the current endpoint is ready for an IN packet, \c false otherwis
 403:./tmk_core/protocol/lufa/LUFA-git/LUFA/Drivers/USB/Core/AVR8/../AVR8/../AVR8/Endpoint_AVR8.h **** 			 */
 404:./tmk_core/protocol/lufa/LUFA-git/LUFA/Drivers/USB/Core/AVR8/../AVR8/../AVR8/Endpoint_AVR8.h **** 			static inline bool Endpoint_IsINReady(void) ATTR_WARN_UNUSED_RESULT ATTR_ALWAYS_INLINE;
 405:./tmk_core/protocol/lufa/LUFA-git/LUFA/Drivers/USB/Core/AVR8/../AVR8/../AVR8/Endpoint_AVR8.h **** 			static inline bool Endpoint_IsINReady(void)
 406:./tmk_core/protocol/lufa/LUFA-git/LUFA/Drivers/USB/Core/AVR8/../AVR8/../AVR8/Endpoint_AVR8.h **** 			{
 407:./tmk_core/protocol/lufa/LUFA-git/LUFA/Drivers/USB/Core/AVR8/../AVR8/../AVR8/Endpoint_AVR8.h **** 				return ((UEINTX & (1 << TXINI)) ? true : false);
 408:./tmk_core/protocol/lufa/LUFA-git/LUFA/Drivers/USB/Core/AVR8/../AVR8/../AVR8/Endpoint_AVR8.h **** 			}
 409:./tmk_core/protocol/lufa/LUFA-git/LUFA/Drivers/USB/Core/AVR8/../AVR8/../AVR8/Endpoint_AVR8.h **** 
 410:./tmk_core/protocol/lufa/LUFA-git/LUFA/Drivers/USB/Core/AVR8/../AVR8/../AVR8/Endpoint_AVR8.h **** 			/** Determines if the selected OUT endpoint has received new packet from the host.
 411:./tmk_core/protocol/lufa/LUFA-git/LUFA/Drivers/USB/Core/AVR8/../AVR8/../AVR8/Endpoint_AVR8.h **** 			 *
 412:./tmk_core/protocol/lufa/LUFA-git/LUFA/Drivers/USB/Core/AVR8/../AVR8/../AVR8/Endpoint_AVR8.h **** 			 *  \ingroup Group_EndpointPacketManagement_AVR8
 413:./tmk_core/protocol/lufa/LUFA-git/LUFA/Drivers/USB/Core/AVR8/../AVR8/../AVR8/Endpoint_AVR8.h **** 			 *
 414:./tmk_core/protocol/lufa/LUFA-git/LUFA/Drivers/USB/Core/AVR8/../AVR8/../AVR8/Endpoint_AVR8.h **** 			 *  \return Boolean \c true if current endpoint is has received an OUT packet, \c false otherwis
 415:./tmk_core/protocol/lufa/LUFA-git/LUFA/Drivers/USB/Core/AVR8/../AVR8/../AVR8/Endpoint_AVR8.h **** 			 */
 416:./tmk_core/protocol/lufa/LUFA-git/LUFA/Drivers/USB/Core/AVR8/../AVR8/../AVR8/Endpoint_AVR8.h **** 			static inline bool Endpoint_IsOUTReceived(void) ATTR_WARN_UNUSED_RESULT ATTR_ALWAYS_INLINE;
 417:./tmk_core/protocol/lufa/LUFA-git/LUFA/Drivers/USB/Core/AVR8/../AVR8/../AVR8/Endpoint_AVR8.h **** 			static inline bool Endpoint_IsOUTReceived(void)
 418:./tmk_core/protocol/lufa/LUFA-git/LUFA/Drivers/USB/Core/AVR8/../AVR8/../AVR8/Endpoint_AVR8.h **** 			{
 419:./tmk_core/protocol/lufa/LUFA-git/LUFA/Drivers/USB/Core/AVR8/../AVR8/../AVR8/Endpoint_AVR8.h **** 				return ((UEINTX & (1 << RXOUTI)) ? true : false);
 420:./tmk_core/protocol/lufa/LUFA-git/LUFA/Drivers/USB/Core/AVR8/../AVR8/../AVR8/Endpoint_AVR8.h **** 			}
 421:./tmk_core/protocol/lufa/LUFA-git/LUFA/Drivers/USB/Core/AVR8/../AVR8/../AVR8/Endpoint_AVR8.h **** 
 422:./tmk_core/protocol/lufa/LUFA-git/LUFA/Drivers/USB/Core/AVR8/../AVR8/../AVR8/Endpoint_AVR8.h **** 			/** Determines if the current CONTROL type endpoint has received a SETUP packet.
 423:./tmk_core/protocol/lufa/LUFA-git/LUFA/Drivers/USB/Core/AVR8/../AVR8/../AVR8/Endpoint_AVR8.h **** 			 *
 424:./tmk_core/protocol/lufa/LUFA-git/LUFA/Drivers/USB/Core/AVR8/../AVR8/../AVR8/Endpoint_AVR8.h **** 			 *  \ingroup Group_EndpointPacketManagement_AVR8
 425:./tmk_core/protocol/lufa/LUFA-git/LUFA/Drivers/USB/Core/AVR8/../AVR8/../AVR8/Endpoint_AVR8.h **** 			 *
 426:./tmk_core/protocol/lufa/LUFA-git/LUFA/Drivers/USB/Core/AVR8/../AVR8/../AVR8/Endpoint_AVR8.h **** 			 *  \return Boolean \c true if the selected endpoint has received a SETUP packet, \c false other
 427:./tmk_core/protocol/lufa/LUFA-git/LUFA/Drivers/USB/Core/AVR8/../AVR8/../AVR8/Endpoint_AVR8.h **** 			 */
 428:./tmk_core/protocol/lufa/LUFA-git/LUFA/Drivers/USB/Core/AVR8/../AVR8/../AVR8/Endpoint_AVR8.h **** 			static inline bool Endpoint_IsSETUPReceived(void) ATTR_WARN_UNUSED_RESULT ATTR_ALWAYS_INLINE;
 429:./tmk_core/protocol/lufa/LUFA-git/LUFA/Drivers/USB/Core/AVR8/../AVR8/../AVR8/Endpoint_AVR8.h **** 			static inline bool Endpoint_IsSETUPReceived(void)
 430:./tmk_core/protocol/lufa/LUFA-git/LUFA/Drivers/USB/Core/AVR8/../AVR8/../AVR8/Endpoint_AVR8.h **** 			{
 431:./tmk_core/protocol/lufa/LUFA-git/LUFA/Drivers/USB/Core/AVR8/../AVR8/../AVR8/Endpoint_AVR8.h **** 				return ((UEINTX & (1 << RXSTPI)) ? true : false);
 432:./tmk_core/protocol/lufa/LUFA-git/LUFA/Drivers/USB/Core/AVR8/../AVR8/../AVR8/Endpoint_AVR8.h **** 			}
 433:./tmk_core/protocol/lufa/LUFA-git/LUFA/Drivers/USB/Core/AVR8/../AVR8/../AVR8/Endpoint_AVR8.h **** 
 434:./tmk_core/protocol/lufa/LUFA-git/LUFA/Drivers/USB/Core/AVR8/../AVR8/../AVR8/Endpoint_AVR8.h **** 			/** Clears a received SETUP packet on the currently selected CONTROL type endpoint, freeing up t
 435:./tmk_core/protocol/lufa/LUFA-git/LUFA/Drivers/USB/Core/AVR8/../AVR8/../AVR8/Endpoint_AVR8.h **** 			 *  endpoint for the next packet.
 436:./tmk_core/protocol/lufa/LUFA-git/LUFA/Drivers/USB/Core/AVR8/../AVR8/../AVR8/Endpoint_AVR8.h **** 			 *
 437:./tmk_core/protocol/lufa/LUFA-git/LUFA/Drivers/USB/Core/AVR8/../AVR8/../AVR8/Endpoint_AVR8.h **** 			 *  \ingroup Group_EndpointPacketManagement_AVR8
 438:./tmk_core/protocol/lufa/LUFA-git/LUFA/Drivers/USB/Core/AVR8/../AVR8/../AVR8/Endpoint_AVR8.h **** 			 *
 439:./tmk_core/protocol/lufa/LUFA-git/LUFA/Drivers/USB/Core/AVR8/../AVR8/../AVR8/Endpoint_AVR8.h **** 			 *  \note This is not applicable for non CONTROL type endpoints.
 440:./tmk_core/protocol/lufa/LUFA-git/LUFA/Drivers/USB/Core/AVR8/../AVR8/../AVR8/Endpoint_AVR8.h **** 			 */
 441:./tmk_core/protocol/lufa/LUFA-git/LUFA/Drivers/USB/Core/AVR8/../AVR8/../AVR8/Endpoint_AVR8.h **** 			static inline void Endpoint_ClearSETUP(void) ATTR_ALWAYS_INLINE;
 442:./tmk_core/protocol/lufa/LUFA-git/LUFA/Drivers/USB/Core/AVR8/../AVR8/../AVR8/Endpoint_AVR8.h **** 			static inline void Endpoint_ClearSETUP(void)
 443:./tmk_core/protocol/lufa/LUFA-git/LUFA/Drivers/USB/Core/AVR8/../AVR8/../AVR8/Endpoint_AVR8.h **** 			{
 444:./tmk_core/protocol/lufa/LUFA-git/LUFA/Drivers/USB/Core/AVR8/../AVR8/../AVR8/Endpoint_AVR8.h **** 				UEINTX &= ~(1 << RXSTPI);
 445:./tmk_core/protocol/lufa/LUFA-git/LUFA/Drivers/USB/Core/AVR8/../AVR8/../AVR8/Endpoint_AVR8.h **** 			}
 446:./tmk_core/protocol/lufa/LUFA-git/LUFA/Drivers/USB/Core/AVR8/../AVR8/../AVR8/Endpoint_AVR8.h **** 
 447:./tmk_core/protocol/lufa/LUFA-git/LUFA/Drivers/USB/Core/AVR8/../AVR8/../AVR8/Endpoint_AVR8.h **** 			/** Sends an IN packet to the host on the currently selected endpoint, freeing up the endpoint f
 448:./tmk_core/protocol/lufa/LUFA-git/LUFA/Drivers/USB/Core/AVR8/../AVR8/../AVR8/Endpoint_AVR8.h **** 			 *  next packet and switching to the alternative endpoint bank if double banked.
 449:./tmk_core/protocol/lufa/LUFA-git/LUFA/Drivers/USB/Core/AVR8/../AVR8/../AVR8/Endpoint_AVR8.h **** 			 *
 450:./tmk_core/protocol/lufa/LUFA-git/LUFA/Drivers/USB/Core/AVR8/../AVR8/../AVR8/Endpoint_AVR8.h **** 			 *  \ingroup Group_EndpointPacketManagement_AVR8
 451:./tmk_core/protocol/lufa/LUFA-git/LUFA/Drivers/USB/Core/AVR8/../AVR8/../AVR8/Endpoint_AVR8.h **** 			 */
 452:./tmk_core/protocol/lufa/LUFA-git/LUFA/Drivers/USB/Core/AVR8/../AVR8/../AVR8/Endpoint_AVR8.h **** 			static inline void Endpoint_ClearIN(void) ATTR_ALWAYS_INLINE;
 453:./tmk_core/protocol/lufa/LUFA-git/LUFA/Drivers/USB/Core/AVR8/../AVR8/../AVR8/Endpoint_AVR8.h **** 			static inline void Endpoint_ClearIN(void)
 454:./tmk_core/protocol/lufa/LUFA-git/LUFA/Drivers/USB/Core/AVR8/../AVR8/../AVR8/Endpoint_AVR8.h **** 			{
 455:./tmk_core/protocol/lufa/LUFA-git/LUFA/Drivers/USB/Core/AVR8/../AVR8/../AVR8/Endpoint_AVR8.h **** 				#if !defined(CONTROL_ONLY_DEVICE)
 456:./tmk_core/protocol/lufa/LUFA-git/LUFA/Drivers/USB/Core/AVR8/../AVR8/../AVR8/Endpoint_AVR8.h **** 					UEINTX &= ~((1 << TXINI) | (1 << FIFOCON));
 457:./tmk_core/protocol/lufa/LUFA-git/LUFA/Drivers/USB/Core/AVR8/../AVR8/../AVR8/Endpoint_AVR8.h **** 				#else
 458:./tmk_core/protocol/lufa/LUFA-git/LUFA/Drivers/USB/Core/AVR8/../AVR8/../AVR8/Endpoint_AVR8.h **** 					UEINTX &= ~(1 << TXINI);
 459:./tmk_core/protocol/lufa/LUFA-git/LUFA/Drivers/USB/Core/AVR8/../AVR8/../AVR8/Endpoint_AVR8.h **** 				#endif
 460:./tmk_core/protocol/lufa/LUFA-git/LUFA/Drivers/USB/Core/AVR8/../AVR8/../AVR8/Endpoint_AVR8.h **** 			}
 461:./tmk_core/protocol/lufa/LUFA-git/LUFA/Drivers/USB/Core/AVR8/../AVR8/../AVR8/Endpoint_AVR8.h **** 
 462:./tmk_core/protocol/lufa/LUFA-git/LUFA/Drivers/USB/Core/AVR8/../AVR8/../AVR8/Endpoint_AVR8.h **** 			/** Acknowledges an OUT packet to the host on the currently selected endpoint, freeing up the en
 463:./tmk_core/protocol/lufa/LUFA-git/LUFA/Drivers/USB/Core/AVR8/../AVR8/../AVR8/Endpoint_AVR8.h **** 			 *  for the next packet and switching to the alternative endpoint bank if double banked.
 464:./tmk_core/protocol/lufa/LUFA-git/LUFA/Drivers/USB/Core/AVR8/../AVR8/../AVR8/Endpoint_AVR8.h **** 			 *
 465:./tmk_core/protocol/lufa/LUFA-git/LUFA/Drivers/USB/Core/AVR8/../AVR8/../AVR8/Endpoint_AVR8.h **** 			 *  \ingroup Group_EndpointPacketManagement_AVR8
 466:./tmk_core/protocol/lufa/LUFA-git/LUFA/Drivers/USB/Core/AVR8/../AVR8/../AVR8/Endpoint_AVR8.h **** 			 */
 467:./tmk_core/protocol/lufa/LUFA-git/LUFA/Drivers/USB/Core/AVR8/../AVR8/../AVR8/Endpoint_AVR8.h **** 			static inline void Endpoint_ClearOUT(void) ATTR_ALWAYS_INLINE;
 468:./tmk_core/protocol/lufa/LUFA-git/LUFA/Drivers/USB/Core/AVR8/../AVR8/../AVR8/Endpoint_AVR8.h **** 			static inline void Endpoint_ClearOUT(void)
 107               		.loc 2 468 23 view .LVU20
 108               	.LBB271:
 469:./tmk_core/protocol/lufa/LUFA-git/LUFA/Drivers/USB/Core/AVR8/../AVR8/../AVR8/Endpoint_AVR8.h **** 			{
 470:./tmk_core/protocol/lufa/LUFA-git/LUFA/Drivers/USB/Core/AVR8/../AVR8/../AVR8/Endpoint_AVR8.h **** 				#if !defined(CONTROL_ONLY_DEVICE)
 471:./tmk_core/protocol/lufa/LUFA-git/LUFA/Drivers/USB/Core/AVR8/../AVR8/../AVR8/Endpoint_AVR8.h **** 					UEINTX &= ~((1 << RXOUTI) | (1 << FIFOCON));
 109               		.loc 2 471 6 view .LVU21
 110               		.loc 2 471 13 is_stmt 0 view .LVU22
 111 003c 8091 E800 		lds r24,232
 112 0040 8B77      		andi r24,lo8(123)
 113 0042 8093 E800 		sts 232,r24
 114               	.LBE271:
 115               	.LBE270:
  59:./tmk_core/protocol/lufa/LUFA-git/LUFA/Drivers/USB/Core/AVR8/EndpointStream_AVR8.c **** 
  60:./tmk_core/protocol/lufa/LUFA-git/LUFA/Drivers/USB/Core/AVR8/EndpointStream_AVR8.c **** 			if (BytesProcessed != NULL)
 116               		.loc 1 60 4 is_stmt 1 view .LVU23
 117               		.loc 1 60 7 is_stmt 0 view .LVU24
 118 0046 0115      		cp r16,__zero_reg__
 119 0048 1105      		cpc r17,__zero_reg__
 120 004a 01F0      		breq .L6
  61:./tmk_core/protocol/lufa/LUFA-git/LUFA/Drivers/USB/Core/AVR8/EndpointStream_AVR8.c **** 			{
  62:./tmk_core/protocol/lufa/LUFA-git/LUFA/Drivers/USB/Core/AVR8/EndpointStream_AVR8.c **** 				*BytesProcessed += BytesInTransfer;
 121               		.loc 1 62 5 is_stmt 1 view .LVU25
 122               		.loc 1 62 21 is_stmt 0 view .LVU26
 123 004c F801      		movw r30,r16
 124 004e 8081      		ld r24,Z
 125 0050 9181      		ldd r25,Z+1
 126 0052 C80E      		add r12,r24
 127 0054 D91E      		adc r13,r25
 128               	.LVL6:
 129               		.loc 1 62 21 view .LVU27
 130 0056 D182      		std Z+1,r13
 131 0058 C082      		st Z,r12
  63:./tmk_core/protocol/lufa/LUFA-git/LUFA/Drivers/USB/Core/AVR8/EndpointStream_AVR8.c **** 				return ENDPOINT_RWSTREAM_IncompleteTransfer;
 132               		.loc 1 63 5 is_stmt 1 view .LVU28
 133               		.loc 1 63 12 is_stmt 0 view .LVU29
 134 005a 85E0      		ldi r24,lo8(5)
 135 005c F82E      		mov r15,r24
 136               	.L1:
  64:./tmk_core/protocol/lufa/LUFA-git/LUFA/Drivers/USB/Core/AVR8/EndpointStream_AVR8.c **** 			}
  65:./tmk_core/protocol/lufa/LUFA-git/LUFA/Drivers/USB/Core/AVR8/EndpointStream_AVR8.c **** 
  66:./tmk_core/protocol/lufa/LUFA-git/LUFA/Drivers/USB/Core/AVR8/EndpointStream_AVR8.c **** 			if ((ErrorCode = Endpoint_WaitUntilReady()))
  67:./tmk_core/protocol/lufa/LUFA-git/LUFA/Drivers/USB/Core/AVR8/EndpointStream_AVR8.c **** 			  return ErrorCode;
  68:./tmk_core/protocol/lufa/LUFA-git/LUFA/Drivers/USB/Core/AVR8/EndpointStream_AVR8.c **** 		}
  69:./tmk_core/protocol/lufa/LUFA-git/LUFA/Drivers/USB/Core/AVR8/EndpointStream_AVR8.c **** 		else
  70:./tmk_core/protocol/lufa/LUFA-git/LUFA/Drivers/USB/Core/AVR8/EndpointStream_AVR8.c **** 		{
  71:./tmk_core/protocol/lufa/LUFA-git/LUFA/Drivers/USB/Core/AVR8/EndpointStream_AVR8.c **** 			Endpoint_Discard_8();
  72:./tmk_core/protocol/lufa/LUFA-git/LUFA/Drivers/USB/Core/AVR8/EndpointStream_AVR8.c **** 
  73:./tmk_core/protocol/lufa/LUFA-git/LUFA/Drivers/USB/Core/AVR8/EndpointStream_AVR8.c **** 			Length--;
  74:./tmk_core/protocol/lufa/LUFA-git/LUFA/Drivers/USB/Core/AVR8/EndpointStream_AVR8.c **** 			BytesInTransfer++;
  75:./tmk_core/protocol/lufa/LUFA-git/LUFA/Drivers/USB/Core/AVR8/EndpointStream_AVR8.c **** 		}
  76:./tmk_core/protocol/lufa/LUFA-git/LUFA/Drivers/USB/Core/AVR8/EndpointStream_AVR8.c **** 	}
  77:./tmk_core/protocol/lufa/LUFA-git/LUFA/Drivers/USB/Core/AVR8/EndpointStream_AVR8.c **** 
  78:./tmk_core/protocol/lufa/LUFA-git/LUFA/Drivers/USB/Core/AVR8/EndpointStream_AVR8.c **** 	return ENDPOINT_RWSTREAM_NoError;
  79:./tmk_core/protocol/lufa/LUFA-git/LUFA/Drivers/USB/Core/AVR8/EndpointStream_AVR8.c **** }
 137               		.loc 1 79 1 view .LVU30
 138 005e 8F2D      		mov r24,r15
 139               	/* epilogue start */
 140 0060 DF91      		pop r29
 141 0062 CF91      		pop r28
 142               	.LVL7:
 143               		.loc 1 79 1 view .LVU31
 144 0064 1F91      		pop r17
 145 0066 0F91      		pop r16
 146               	.LVL8:
 147               		.loc 1 79 1 view .LVU32
 148 0068 FF90      		pop r15
 149 006a DF90      		pop r13
 150 006c CF90      		pop r12
 151 006e 0895      		ret
 152               	.LVL9:
 153               	.L6:
  66:./tmk_core/protocol/lufa/LUFA-git/LUFA/Drivers/USB/Core/AVR8/EndpointStream_AVR8.c **** 			  return ErrorCode;
 154               		.loc 1 66 4 is_stmt 1 view .LVU33
  66:./tmk_core/protocol/lufa/LUFA-git/LUFA/Drivers/USB/Core/AVR8/EndpointStream_AVR8.c **** 			  return ErrorCode;
 155               		.loc 1 66 21 is_stmt 0 view .LVU34
 156 0070 0E94 0000 		call Endpoint_WaitUntilReady
 157               	.LVL10:
  66:./tmk_core/protocol/lufa/LUFA-git/LUFA/Drivers/USB/Core/AVR8/EndpointStream_AVR8.c **** 			  return ErrorCode;
 158               		.loc 1 66 7 view .LVU35
 159 0074 8823      		tst r24
 160 0076 01F0      		breq .L4
 161 0078 F82E      		mov r15,r24
 162 007a 00C0      		rjmp .L1
 163               	.LVL11:
 164               	.L5:
  71:./tmk_core/protocol/lufa/LUFA-git/LUFA/Drivers/USB/Core/AVR8/EndpointStream_AVR8.c **** 
 165               		.loc 1 71 4 is_stmt 1 view .LVU36
 166               	.LBB272:
 167               	.LBI272:
 472:./tmk_core/protocol/lufa/LUFA-git/LUFA/Drivers/USB/Core/AVR8/../AVR8/../AVR8/Endpoint_AVR8.h **** 				#else
 473:./tmk_core/protocol/lufa/LUFA-git/LUFA/Drivers/USB/Core/AVR8/../AVR8/../AVR8/Endpoint_AVR8.h **** 					UEINTX &= ~(1 << RXOUTI);
 474:./tmk_core/protocol/lufa/LUFA-git/LUFA/Drivers/USB/Core/AVR8/../AVR8/../AVR8/Endpoint_AVR8.h **** 				#endif
 475:./tmk_core/protocol/lufa/LUFA-git/LUFA/Drivers/USB/Core/AVR8/../AVR8/../AVR8/Endpoint_AVR8.h **** 			}
 476:./tmk_core/protocol/lufa/LUFA-git/LUFA/Drivers/USB/Core/AVR8/../AVR8/../AVR8/Endpoint_AVR8.h **** 
 477:./tmk_core/protocol/lufa/LUFA-git/LUFA/Drivers/USB/Core/AVR8/../AVR8/../AVR8/Endpoint_AVR8.h **** 			/** Stalls the current endpoint, indicating to the host that a logical problem occurred with the
 478:./tmk_core/protocol/lufa/LUFA-git/LUFA/Drivers/USB/Core/AVR8/../AVR8/../AVR8/Endpoint_AVR8.h **** 			 *  indicated endpoint and that the current transfer sequence should be aborted. This provides a
 479:./tmk_core/protocol/lufa/LUFA-git/LUFA/Drivers/USB/Core/AVR8/../AVR8/../AVR8/Endpoint_AVR8.h **** 			 *  way for devices to indicate invalid commands to the host so that the current transfer can be
 480:./tmk_core/protocol/lufa/LUFA-git/LUFA/Drivers/USB/Core/AVR8/../AVR8/../AVR8/Endpoint_AVR8.h **** 			 *  aborted and the host can begin its own recovery sequence.
 481:./tmk_core/protocol/lufa/LUFA-git/LUFA/Drivers/USB/Core/AVR8/../AVR8/../AVR8/Endpoint_AVR8.h **** 			 *
 482:./tmk_core/protocol/lufa/LUFA-git/LUFA/Drivers/USB/Core/AVR8/../AVR8/../AVR8/Endpoint_AVR8.h **** 			 *  The currently selected endpoint remains stalled until either the \ref Endpoint_ClearStall() 
 483:./tmk_core/protocol/lufa/LUFA-git/LUFA/Drivers/USB/Core/AVR8/../AVR8/../AVR8/Endpoint_AVR8.h **** 			 *  is called, or the host issues a CLEAR FEATURE request to the device for the currently select
 484:./tmk_core/protocol/lufa/LUFA-git/LUFA/Drivers/USB/Core/AVR8/../AVR8/../AVR8/Endpoint_AVR8.h **** 			 *  endpoint.
 485:./tmk_core/protocol/lufa/LUFA-git/LUFA/Drivers/USB/Core/AVR8/../AVR8/../AVR8/Endpoint_AVR8.h **** 			 *
 486:./tmk_core/protocol/lufa/LUFA-git/LUFA/Drivers/USB/Core/AVR8/../AVR8/../AVR8/Endpoint_AVR8.h **** 			 *  \ingroup Group_EndpointPacketManagement_AVR8
 487:./tmk_core/protocol/lufa/LUFA-git/LUFA/Drivers/USB/Core/AVR8/../AVR8/../AVR8/Endpoint_AVR8.h **** 			 */
 488:./tmk_core/protocol/lufa/LUFA-git/LUFA/Drivers/USB/Core/AVR8/../AVR8/../AVR8/Endpoint_AVR8.h **** 			static inline void Endpoint_StallTransaction(void) ATTR_ALWAYS_INLINE;
 489:./tmk_core/protocol/lufa/LUFA-git/LUFA/Drivers/USB/Core/AVR8/../AVR8/../AVR8/Endpoint_AVR8.h **** 			static inline void Endpoint_StallTransaction(void)
 490:./tmk_core/protocol/lufa/LUFA-git/LUFA/Drivers/USB/Core/AVR8/../AVR8/../AVR8/Endpoint_AVR8.h **** 			{
 491:./tmk_core/protocol/lufa/LUFA-git/LUFA/Drivers/USB/Core/AVR8/../AVR8/../AVR8/Endpoint_AVR8.h **** 				UECONX |= (1 << STALLRQ);
 492:./tmk_core/protocol/lufa/LUFA-git/LUFA/Drivers/USB/Core/AVR8/../AVR8/../AVR8/Endpoint_AVR8.h **** 			}
 493:./tmk_core/protocol/lufa/LUFA-git/LUFA/Drivers/USB/Core/AVR8/../AVR8/../AVR8/Endpoint_AVR8.h **** 
 494:./tmk_core/protocol/lufa/LUFA-git/LUFA/Drivers/USB/Core/AVR8/../AVR8/../AVR8/Endpoint_AVR8.h **** 			/** Clears the STALL condition on the currently selected endpoint.
 495:./tmk_core/protocol/lufa/LUFA-git/LUFA/Drivers/USB/Core/AVR8/../AVR8/../AVR8/Endpoint_AVR8.h **** 			 *
 496:./tmk_core/protocol/lufa/LUFA-git/LUFA/Drivers/USB/Core/AVR8/../AVR8/../AVR8/Endpoint_AVR8.h **** 			 *  \ingroup Group_EndpointPacketManagement_AVR8
 497:./tmk_core/protocol/lufa/LUFA-git/LUFA/Drivers/USB/Core/AVR8/../AVR8/../AVR8/Endpoint_AVR8.h **** 			 */
 498:./tmk_core/protocol/lufa/LUFA-git/LUFA/Drivers/USB/Core/AVR8/../AVR8/../AVR8/Endpoint_AVR8.h **** 			static inline void Endpoint_ClearStall(void) ATTR_ALWAYS_INLINE;
 499:./tmk_core/protocol/lufa/LUFA-git/LUFA/Drivers/USB/Core/AVR8/../AVR8/../AVR8/Endpoint_AVR8.h **** 			static inline void Endpoint_ClearStall(void)
 500:./tmk_core/protocol/lufa/LUFA-git/LUFA/Drivers/USB/Core/AVR8/../AVR8/../AVR8/Endpoint_AVR8.h **** 			{
 501:./tmk_core/protocol/lufa/LUFA-git/LUFA/Drivers/USB/Core/AVR8/../AVR8/../AVR8/Endpoint_AVR8.h **** 				UECONX |= (1 << STALLRQC);
 502:./tmk_core/protocol/lufa/LUFA-git/LUFA/Drivers/USB/Core/AVR8/../AVR8/../AVR8/Endpoint_AVR8.h **** 			}
 503:./tmk_core/protocol/lufa/LUFA-git/LUFA/Drivers/USB/Core/AVR8/../AVR8/../AVR8/Endpoint_AVR8.h **** 
 504:./tmk_core/protocol/lufa/LUFA-git/LUFA/Drivers/USB/Core/AVR8/../AVR8/../AVR8/Endpoint_AVR8.h **** 			/** Determines if the currently selected endpoint is stalled, \c false otherwise.
 505:./tmk_core/protocol/lufa/LUFA-git/LUFA/Drivers/USB/Core/AVR8/../AVR8/../AVR8/Endpoint_AVR8.h **** 			 *
 506:./tmk_core/protocol/lufa/LUFA-git/LUFA/Drivers/USB/Core/AVR8/../AVR8/../AVR8/Endpoint_AVR8.h **** 			 *  \ingroup Group_EndpointPacketManagement_AVR8
 507:./tmk_core/protocol/lufa/LUFA-git/LUFA/Drivers/USB/Core/AVR8/../AVR8/../AVR8/Endpoint_AVR8.h **** 			 *
 508:./tmk_core/protocol/lufa/LUFA-git/LUFA/Drivers/USB/Core/AVR8/../AVR8/../AVR8/Endpoint_AVR8.h **** 			 *  \return Boolean \c true if the currently selected endpoint is stalled, \c false otherwise.
 509:./tmk_core/protocol/lufa/LUFA-git/LUFA/Drivers/USB/Core/AVR8/../AVR8/../AVR8/Endpoint_AVR8.h **** 			 */
 510:./tmk_core/protocol/lufa/LUFA-git/LUFA/Drivers/USB/Core/AVR8/../AVR8/../AVR8/Endpoint_AVR8.h **** 			static inline bool Endpoint_IsStalled(void) ATTR_WARN_UNUSED_RESULT ATTR_ALWAYS_INLINE;
 511:./tmk_core/protocol/lufa/LUFA-git/LUFA/Drivers/USB/Core/AVR8/../AVR8/../AVR8/Endpoint_AVR8.h **** 			static inline bool Endpoint_IsStalled(void)
 512:./tmk_core/protocol/lufa/LUFA-git/LUFA/Drivers/USB/Core/AVR8/../AVR8/../AVR8/Endpoint_AVR8.h **** 			{
 513:./tmk_core/protocol/lufa/LUFA-git/LUFA/Drivers/USB/Core/AVR8/../AVR8/../AVR8/Endpoint_AVR8.h **** 				return ((UECONX & (1 << STALLRQ)) ? true : false);
 514:./tmk_core/protocol/lufa/LUFA-git/LUFA/Drivers/USB/Core/AVR8/../AVR8/../AVR8/Endpoint_AVR8.h **** 			}
 515:./tmk_core/protocol/lufa/LUFA-git/LUFA/Drivers/USB/Core/AVR8/../AVR8/../AVR8/Endpoint_AVR8.h **** 
 516:./tmk_core/protocol/lufa/LUFA-git/LUFA/Drivers/USB/Core/AVR8/../AVR8/../AVR8/Endpoint_AVR8.h **** 			/** Resets the data toggle of the currently selected endpoint. */
 517:./tmk_core/protocol/lufa/LUFA-git/LUFA/Drivers/USB/Core/AVR8/../AVR8/../AVR8/Endpoint_AVR8.h **** 			static inline void Endpoint_ResetDataToggle(void) ATTR_ALWAYS_INLINE;
 518:./tmk_core/protocol/lufa/LUFA-git/LUFA/Drivers/USB/Core/AVR8/../AVR8/../AVR8/Endpoint_AVR8.h **** 			static inline void Endpoint_ResetDataToggle(void)
 519:./tmk_core/protocol/lufa/LUFA-git/LUFA/Drivers/USB/Core/AVR8/../AVR8/../AVR8/Endpoint_AVR8.h **** 			{
 520:./tmk_core/protocol/lufa/LUFA-git/LUFA/Drivers/USB/Core/AVR8/../AVR8/../AVR8/Endpoint_AVR8.h **** 				UECONX |= (1 << RSTDT);
 521:./tmk_core/protocol/lufa/LUFA-git/LUFA/Drivers/USB/Core/AVR8/../AVR8/../AVR8/Endpoint_AVR8.h **** 			}
 522:./tmk_core/protocol/lufa/LUFA-git/LUFA/Drivers/USB/Core/AVR8/../AVR8/../AVR8/Endpoint_AVR8.h **** 
 523:./tmk_core/protocol/lufa/LUFA-git/LUFA/Drivers/USB/Core/AVR8/../AVR8/../AVR8/Endpoint_AVR8.h **** 			/** Sets the direction of the currently selected endpoint.
 524:./tmk_core/protocol/lufa/LUFA-git/LUFA/Drivers/USB/Core/AVR8/../AVR8/../AVR8/Endpoint_AVR8.h **** 			 *
 525:./tmk_core/protocol/lufa/LUFA-git/LUFA/Drivers/USB/Core/AVR8/../AVR8/../AVR8/Endpoint_AVR8.h **** 			 *  \param[in] DirectionMask  New endpoint direction, as a \c ENDPOINT_DIR_* mask.
 526:./tmk_core/protocol/lufa/LUFA-git/LUFA/Drivers/USB/Core/AVR8/../AVR8/../AVR8/Endpoint_AVR8.h **** 			 */
 527:./tmk_core/protocol/lufa/LUFA-git/LUFA/Drivers/USB/Core/AVR8/../AVR8/../AVR8/Endpoint_AVR8.h **** 			static inline void Endpoint_SetEndpointDirection(const uint8_t DirectionMask) ATTR_ALWAYS_INLINE
 528:./tmk_core/protocol/lufa/LUFA-git/LUFA/Drivers/USB/Core/AVR8/../AVR8/../AVR8/Endpoint_AVR8.h **** 			static inline void Endpoint_SetEndpointDirection(const uint8_t DirectionMask)
 529:./tmk_core/protocol/lufa/LUFA-git/LUFA/Drivers/USB/Core/AVR8/../AVR8/../AVR8/Endpoint_AVR8.h **** 			{
 530:./tmk_core/protocol/lufa/LUFA-git/LUFA/Drivers/USB/Core/AVR8/../AVR8/../AVR8/Endpoint_AVR8.h **** 				UECFG0X = ((UECFG0X & ~(1 << EPDIR)) | (DirectionMask ? (1 << EPDIR) : 0));
 531:./tmk_core/protocol/lufa/LUFA-git/LUFA/Drivers/USB/Core/AVR8/../AVR8/../AVR8/Endpoint_AVR8.h **** 			}
 532:./tmk_core/protocol/lufa/LUFA-git/LUFA/Drivers/USB/Core/AVR8/../AVR8/../AVR8/Endpoint_AVR8.h **** 
 533:./tmk_core/protocol/lufa/LUFA-git/LUFA/Drivers/USB/Core/AVR8/../AVR8/../AVR8/Endpoint_AVR8.h **** 			/** Reads one byte from the currently selected endpoint's bank, for OUT direction endpoints.
 534:./tmk_core/protocol/lufa/LUFA-git/LUFA/Drivers/USB/Core/AVR8/../AVR8/../AVR8/Endpoint_AVR8.h **** 			 *
 535:./tmk_core/protocol/lufa/LUFA-git/LUFA/Drivers/USB/Core/AVR8/../AVR8/../AVR8/Endpoint_AVR8.h **** 			 *  \ingroup Group_EndpointPrimitiveRW_AVR8
 536:./tmk_core/protocol/lufa/LUFA-git/LUFA/Drivers/USB/Core/AVR8/../AVR8/../AVR8/Endpoint_AVR8.h **** 			 *
 537:./tmk_core/protocol/lufa/LUFA-git/LUFA/Drivers/USB/Core/AVR8/../AVR8/../AVR8/Endpoint_AVR8.h **** 			 *  \return Next byte in the currently selected endpoint's FIFO buffer.
 538:./tmk_core/protocol/lufa/LUFA-git/LUFA/Drivers/USB/Core/AVR8/../AVR8/../AVR8/Endpoint_AVR8.h **** 			 */
 539:./tmk_core/protocol/lufa/LUFA-git/LUFA/Drivers/USB/Core/AVR8/../AVR8/../AVR8/Endpoint_AVR8.h **** 			static inline uint8_t Endpoint_Read_8(void) ATTR_WARN_UNUSED_RESULT ATTR_ALWAYS_INLINE;
 540:./tmk_core/protocol/lufa/LUFA-git/LUFA/Drivers/USB/Core/AVR8/../AVR8/../AVR8/Endpoint_AVR8.h **** 			static inline uint8_t Endpoint_Read_8(void)
 541:./tmk_core/protocol/lufa/LUFA-git/LUFA/Drivers/USB/Core/AVR8/../AVR8/../AVR8/Endpoint_AVR8.h **** 			{
 542:./tmk_core/protocol/lufa/LUFA-git/LUFA/Drivers/USB/Core/AVR8/../AVR8/../AVR8/Endpoint_AVR8.h **** 				return UEDATX;
 543:./tmk_core/protocol/lufa/LUFA-git/LUFA/Drivers/USB/Core/AVR8/../AVR8/../AVR8/Endpoint_AVR8.h **** 			}
 544:./tmk_core/protocol/lufa/LUFA-git/LUFA/Drivers/USB/Core/AVR8/../AVR8/../AVR8/Endpoint_AVR8.h **** 
 545:./tmk_core/protocol/lufa/LUFA-git/LUFA/Drivers/USB/Core/AVR8/../AVR8/../AVR8/Endpoint_AVR8.h **** 			/** Writes one byte to the currently selected endpoint's bank, for IN direction endpoints.
 546:./tmk_core/protocol/lufa/LUFA-git/LUFA/Drivers/USB/Core/AVR8/../AVR8/../AVR8/Endpoint_AVR8.h **** 			 *
 547:./tmk_core/protocol/lufa/LUFA-git/LUFA/Drivers/USB/Core/AVR8/../AVR8/../AVR8/Endpoint_AVR8.h **** 			 *  \ingroup Group_EndpointPrimitiveRW_AVR8
 548:./tmk_core/protocol/lufa/LUFA-git/LUFA/Drivers/USB/Core/AVR8/../AVR8/../AVR8/Endpoint_AVR8.h **** 			 *
 549:./tmk_core/protocol/lufa/LUFA-git/LUFA/Drivers/USB/Core/AVR8/../AVR8/../AVR8/Endpoint_AVR8.h **** 			 *  \param[in] Data  Data to write into the the currently selected endpoint's FIFO buffer.
 550:./tmk_core/protocol/lufa/LUFA-git/LUFA/Drivers/USB/Core/AVR8/../AVR8/../AVR8/Endpoint_AVR8.h **** 			 */
 551:./tmk_core/protocol/lufa/LUFA-git/LUFA/Drivers/USB/Core/AVR8/../AVR8/../AVR8/Endpoint_AVR8.h **** 			static inline void Endpoint_Write_8(const uint8_t Data) ATTR_ALWAYS_INLINE;
 552:./tmk_core/protocol/lufa/LUFA-git/LUFA/Drivers/USB/Core/AVR8/../AVR8/../AVR8/Endpoint_AVR8.h **** 			static inline void Endpoint_Write_8(const uint8_t Data)
 553:./tmk_core/protocol/lufa/LUFA-git/LUFA/Drivers/USB/Core/AVR8/../AVR8/../AVR8/Endpoint_AVR8.h **** 			{
 554:./tmk_core/protocol/lufa/LUFA-git/LUFA/Drivers/USB/Core/AVR8/../AVR8/../AVR8/Endpoint_AVR8.h **** 				UEDATX = Data;
 555:./tmk_core/protocol/lufa/LUFA-git/LUFA/Drivers/USB/Core/AVR8/../AVR8/../AVR8/Endpoint_AVR8.h **** 			}
 556:./tmk_core/protocol/lufa/LUFA-git/LUFA/Drivers/USB/Core/AVR8/../AVR8/../AVR8/Endpoint_AVR8.h **** 
 557:./tmk_core/protocol/lufa/LUFA-git/LUFA/Drivers/USB/Core/AVR8/../AVR8/../AVR8/Endpoint_AVR8.h **** 			/** Discards one byte from the currently selected endpoint's bank, for OUT direction endpoints.
 558:./tmk_core/protocol/lufa/LUFA-git/LUFA/Drivers/USB/Core/AVR8/../AVR8/../AVR8/Endpoint_AVR8.h **** 			 *
 559:./tmk_core/protocol/lufa/LUFA-git/LUFA/Drivers/USB/Core/AVR8/../AVR8/../AVR8/Endpoint_AVR8.h **** 			 *  \ingroup Group_EndpointPrimitiveRW_AVR8
 560:./tmk_core/protocol/lufa/LUFA-git/LUFA/Drivers/USB/Core/AVR8/../AVR8/../AVR8/Endpoint_AVR8.h **** 			 */
 561:./tmk_core/protocol/lufa/LUFA-git/LUFA/Drivers/USB/Core/AVR8/../AVR8/../AVR8/Endpoint_AVR8.h **** 			static inline void Endpoint_Discard_8(void) ATTR_ALWAYS_INLINE;
 562:./tmk_core/protocol/lufa/LUFA-git/LUFA/Drivers/USB/Core/AVR8/../AVR8/../AVR8/Endpoint_AVR8.h **** 			static inline void Endpoint_Discard_8(void)
 168               		.loc 2 562 23 view .LVU37
 169               	.LBB273:
 563:./tmk_core/protocol/lufa/LUFA-git/LUFA/Drivers/USB/Core/AVR8/../AVR8/../AVR8/Endpoint_AVR8.h **** 			{
 564:./tmk_core/protocol/lufa/LUFA-git/LUFA/Drivers/USB/Core/AVR8/../AVR8/../AVR8/Endpoint_AVR8.h **** 				uint8_t Dummy;
 170               		.loc 2 564 5 view .LVU38
 565:./tmk_core/protocol/lufa/LUFA-git/LUFA/Drivers/USB/Core/AVR8/../AVR8/../AVR8/Endpoint_AVR8.h **** 
 566:./tmk_core/protocol/lufa/LUFA-git/LUFA/Drivers/USB/Core/AVR8/../AVR8/../AVR8/Endpoint_AVR8.h **** 				Dummy = UEDATX;
 171               		.loc 2 566 5 view .LVU39
 172               		.loc 2 566 11 is_stmt 0 view .LVU40
 173 007c 8091 F100 		lds r24,241
 567:./tmk_core/protocol/lufa/LUFA-git/LUFA/Drivers/USB/Core/AVR8/../AVR8/../AVR8/Endpoint_AVR8.h **** 
 568:./tmk_core/protocol/lufa/LUFA-git/LUFA/Drivers/USB/Core/AVR8/../AVR8/../AVR8/Endpoint_AVR8.h **** 				(void)Dummy;
 174               		.loc 2 568 5 is_stmt 1 view .LVU41
 175               	.LBE273:
 176               	.LBE272:
  73:./tmk_core/protocol/lufa/LUFA-git/LUFA/Drivers/USB/Core/AVR8/EndpointStream_AVR8.c **** 			BytesInTransfer++;
 177               		.loc 1 73 4 view .LVU42
  73:./tmk_core/protocol/lufa/LUFA-git/LUFA/Drivers/USB/Core/AVR8/EndpointStream_AVR8.c **** 			BytesInTransfer++;
 178               		.loc 1 73 10 is_stmt 0 view .LVU43
 179 0080 2197      		sbiw r28,1
 180               	.LVL12:
  74:./tmk_core/protocol/lufa/LUFA-git/LUFA/Drivers/USB/Core/AVR8/EndpointStream_AVR8.c **** 		}
 181               		.loc 1 74 4 is_stmt 1 view .LVU44
  74:./tmk_core/protocol/lufa/LUFA-git/LUFA/Drivers/USB/Core/AVR8/EndpointStream_AVR8.c **** 		}
 182               		.loc 1 74 19 is_stmt 0 view .LVU45
 183 0082 FFEF      		ldi r31,-1
 184 0084 CF1A      		sub r12,r31
 185 0086 DF0A      		sbc r13,r31
 186               	.LVL13:
  74:./tmk_core/protocol/lufa/LUFA-git/LUFA/Drivers/USB/Core/AVR8/EndpointStream_AVR8.c **** 		}
 187               		.loc 1 74 19 view .LVU46
 188 0088 00C0      		rjmp .L4
 189               		.cfi_endproc
 190               	.LFE85:
 192               		.section	.text.Endpoint_Null_Stream,"ax",@progbits
 193               	.global	Endpoint_Null_Stream
 195               	Endpoint_Null_Stream:
 196               	.LVL14:
 197               	.LFB86:
  80:./tmk_core/protocol/lufa/LUFA-git/LUFA/Drivers/USB/Core/AVR8/EndpointStream_AVR8.c **** 
  81:./tmk_core/protocol/lufa/LUFA-git/LUFA/Drivers/USB/Core/AVR8/EndpointStream_AVR8.c **** uint8_t Endpoint_Null_Stream(uint16_t Length,
  82:./tmk_core/protocol/lufa/LUFA-git/LUFA/Drivers/USB/Core/AVR8/EndpointStream_AVR8.c ****                              uint16_t* const BytesProcessed)
  83:./tmk_core/protocol/lufa/LUFA-git/LUFA/Drivers/USB/Core/AVR8/EndpointStream_AVR8.c **** {
 198               		.loc 1 83 1 is_stmt 1 view -0
 199               		.cfi_startproc
 200               		.loc 1 83 1 is_stmt 0 view .LVU48
 201 0000 CF92      		push r12
 202               	.LCFI7:
 203               		.cfi_def_cfa_offset 3
 204               		.cfi_offset 12, -2
 205 0002 DF92      		push r13
 206               	.LCFI8:
 207               		.cfi_def_cfa_offset 4
 208               		.cfi_offset 13, -3
 209 0004 FF92      		push r15
 210               	.LCFI9:
 211               		.cfi_def_cfa_offset 5
 212               		.cfi_offset 15, -4
 213 0006 0F93      		push r16
 214               	.LCFI10:
 215               		.cfi_def_cfa_offset 6
 216               		.cfi_offset 16, -5
 217 0008 1F93      		push r17
 218               	.LCFI11:
 219               		.cfi_def_cfa_offset 7
 220               		.cfi_offset 17, -6
 221 000a CF93      		push r28
 222               	.LCFI12:
 223               		.cfi_def_cfa_offset 8
 224               		.cfi_offset 28, -7
 225 000c DF93      		push r29
 226               	.LCFI13:
 227               		.cfi_def_cfa_offset 9
 228               		.cfi_offset 29, -8
 229               	/* prologue: function */
 230               	/* frame size = 0 */
 231               	/* stack size = 7 */
 232               	.L__stack_usage = 7
 233 000e EC01      		movw r28,r24
 234 0010 8B01      		movw r16,r22
  84:./tmk_core/protocol/lufa/LUFA-git/LUFA/Drivers/USB/Core/AVR8/EndpointStream_AVR8.c **** 	uint8_t  ErrorCode;
 235               		.loc 1 84 2 is_stmt 1 view .LVU49
  85:./tmk_core/protocol/lufa/LUFA-git/LUFA/Drivers/USB/Core/AVR8/EndpointStream_AVR8.c **** 	uint16_t BytesInTransfer = 0;
 236               		.loc 1 85 2 view .LVU50
 237               	.LVL15:
  86:./tmk_core/protocol/lufa/LUFA-git/LUFA/Drivers/USB/Core/AVR8/EndpointStream_AVR8.c **** 
  87:./tmk_core/protocol/lufa/LUFA-git/LUFA/Drivers/USB/Core/AVR8/EndpointStream_AVR8.c **** 	if ((ErrorCode = Endpoint_WaitUntilReady()))
 238               		.loc 1 87 2 view .LVU51
 239               		.loc 1 87 19 is_stmt 0 view .LVU52
 240 0012 0E94 0000 		call Endpoint_WaitUntilReady
 241               	.LVL16:
 242               		.loc 1 87 19 view .LVU53
 243 0016 F82E      		mov r15,r24
 244               	.LVL17:
 245               		.loc 1 87 5 view .LVU54
 246 0018 8111      		cpse r24,__zero_reg__
 247 001a 00C0      		rjmp .L13
  88:./tmk_core/protocol/lufa/LUFA-git/LUFA/Drivers/USB/Core/AVR8/EndpointStream_AVR8.c **** 	  return ErrorCode;
  89:./tmk_core/protocol/lufa/LUFA-git/LUFA/Drivers/USB/Core/AVR8/EndpointStream_AVR8.c **** 
  90:./tmk_core/protocol/lufa/LUFA-git/LUFA/Drivers/USB/Core/AVR8/EndpointStream_AVR8.c **** 	if (BytesProcessed != NULL)
 248               		.loc 1 90 2 is_stmt 1 view .LVU55
 249               		.loc 1 90 5 is_stmt 0 view .LVU56
 250 001c 0115      		cp r16,__zero_reg__
 251 001e 1105      		cpc r17,__zero_reg__
 252 0020 01F0      		breq .L15
  91:./tmk_core/protocol/lufa/LUFA-git/LUFA/Drivers/USB/Core/AVR8/EndpointStream_AVR8.c **** 	  Length -= *BytesProcessed;
 253               		.loc 1 91 4 is_stmt 1 view .LVU57
 254               		.loc 1 91 11 is_stmt 0 view .LVU58
 255 0022 F801      		movw r30,r16
 256 0024 8081      		ld r24,Z
 257 0026 9181      		ldd r25,Z+1
 258 0028 C81B      		sub r28,r24
 259 002a D90B      		sbc r29,r25
 260               	.LVL18:
 261               	.L15:
  83:./tmk_core/protocol/lufa/LUFA-git/LUFA/Drivers/USB/Core/AVR8/EndpointStream_AVR8.c **** 	uint8_t  ErrorCode;
 262               		.loc 1 83 1 view .LVU59
 263 002c D12C      		mov r13,__zero_reg__
 264 002e C12C      		mov r12,__zero_reg__
 265               	.LVL19:
 266               	.L16:
  92:./tmk_core/protocol/lufa/LUFA-git/LUFA/Drivers/USB/Core/AVR8/EndpointStream_AVR8.c **** 
  93:./tmk_core/protocol/lufa/LUFA-git/LUFA/Drivers/USB/Core/AVR8/EndpointStream_AVR8.c **** 	while (Length)
 267               		.loc 1 93 8 is_stmt 1 view .LVU60
 268 0030 2097      		sbiw r28,0
 269 0032 01F0      		breq .L13
  94:./tmk_core/protocol/lufa/LUFA-git/LUFA/Drivers/USB/Core/AVR8/EndpointStream_AVR8.c **** 	{
  95:./tmk_core/protocol/lufa/LUFA-git/LUFA/Drivers/USB/Core/AVR8/EndpointStream_AVR8.c **** 		if (!(Endpoint_IsReadWriteAllowed()))
 270               		.loc 1 95 3 view .LVU61
 271               	.LBB274:
 272               	.LBI274:
 358:./tmk_core/protocol/lufa/LUFA-git/LUFA/Drivers/USB/Core/AVR8/../AVR8/../AVR8/Endpoint_AVR8.h **** 			{
 273               		.loc 2 358 23 view .LVU62
 274               	.LBB275:
 360:./tmk_core/protocol/lufa/LUFA-git/LUFA/Drivers/USB/Core/AVR8/../AVR8/../AVR8/Endpoint_AVR8.h **** 			}
 275               		.loc 2 360 5 view .LVU63
 360:./tmk_core/protocol/lufa/LUFA-git/LUFA/Drivers/USB/Core/AVR8/../AVR8/../AVR8/Endpoint_AVR8.h **** 			}
 276               		.loc 2 360 14 is_stmt 0 view .LVU64
 277 0034 8091 E800 		lds r24,232
 278               	.LBE275:
 279               	.LBE274:
 280               		.loc 1 95 6 view .LVU65
 281 0038 85FD      		sbrc r24,5
 282 003a 00C0      		rjmp .L17
  96:./tmk_core/protocol/lufa/LUFA-git/LUFA/Drivers/USB/Core/AVR8/EndpointStream_AVR8.c **** 		{
  97:./tmk_core/protocol/lufa/LUFA-git/LUFA/Drivers/USB/Core/AVR8/EndpointStream_AVR8.c **** 			Endpoint_ClearIN();
 283               		.loc 1 97 4 is_stmt 1 view .LVU66
 284               	.LBB276:
 285               	.LBI276:
 453:./tmk_core/protocol/lufa/LUFA-git/LUFA/Drivers/USB/Core/AVR8/../AVR8/../AVR8/Endpoint_AVR8.h **** 			{
 286               		.loc 2 453 23 view .LVU67
 287               	.LBB277:
 456:./tmk_core/protocol/lufa/LUFA-git/LUFA/Drivers/USB/Core/AVR8/../AVR8/../AVR8/Endpoint_AVR8.h **** 				#else
 288               		.loc 2 456 6 view .LVU68
 456:./tmk_core/protocol/lufa/LUFA-git/LUFA/Drivers/USB/Core/AVR8/../AVR8/../AVR8/Endpoint_AVR8.h **** 				#else
 289               		.loc 2 456 13 is_stmt 0 view .LVU69
 290 003c 8091 E800 		lds r24,232
 291 0040 8E77      		andi r24,lo8(126)
 292 0042 8093 E800 		sts 232,r24
 293               	.LBE277:
 294               	.LBE276:
  98:./tmk_core/protocol/lufa/LUFA-git/LUFA/Drivers/USB/Core/AVR8/EndpointStream_AVR8.c **** 
  99:./tmk_core/protocol/lufa/LUFA-git/LUFA/Drivers/USB/Core/AVR8/EndpointStream_AVR8.c **** 			if (BytesProcessed != NULL)
 295               		.loc 1 99 4 is_stmt 1 view .LVU70
 296               		.loc 1 99 7 is_stmt 0 view .LVU71
 297 0046 0115      		cp r16,__zero_reg__
 298 0048 1105      		cpc r17,__zero_reg__
 299 004a 01F0      		breq .L18
 100:./tmk_core/protocol/lufa/LUFA-git/LUFA/Drivers/USB/Core/AVR8/EndpointStream_AVR8.c **** 			{
 101:./tmk_core/protocol/lufa/LUFA-git/LUFA/Drivers/USB/Core/AVR8/EndpointStream_AVR8.c **** 				*BytesProcessed += BytesInTransfer;
 300               		.loc 1 101 5 is_stmt 1 view .LVU72
 301               		.loc 1 101 21 is_stmt 0 view .LVU73
 302 004c F801      		movw r30,r16
 303 004e 8081      		ld r24,Z
 304 0050 9181      		ldd r25,Z+1
 305 0052 C80E      		add r12,r24
 306 0054 D91E      		adc r13,r25
 307               	.LVL20:
 308               		.loc 1 101 21 view .LVU74
 309 0056 D182      		std Z+1,r13
 310 0058 C082      		st Z,r12
 102:./tmk_core/protocol/lufa/LUFA-git/LUFA/Drivers/USB/Core/AVR8/EndpointStream_AVR8.c **** 				return ENDPOINT_RWSTREAM_IncompleteTransfer;
 311               		.loc 1 102 5 is_stmt 1 view .LVU75
 312               		.loc 1 102 12 is_stmt 0 view .LVU76
 313 005a 85E0      		ldi r24,lo8(5)
 314 005c F82E      		mov r15,r24
 315               	.L13:
 103:./tmk_core/protocol/lufa/LUFA-git/LUFA/Drivers/USB/Core/AVR8/EndpointStream_AVR8.c **** 			}
 104:./tmk_core/protocol/lufa/LUFA-git/LUFA/Drivers/USB/Core/AVR8/EndpointStream_AVR8.c **** 
 105:./tmk_core/protocol/lufa/LUFA-git/LUFA/Drivers/USB/Core/AVR8/EndpointStream_AVR8.c **** 			if ((ErrorCode = Endpoint_WaitUntilReady()))
 106:./tmk_core/protocol/lufa/LUFA-git/LUFA/Drivers/USB/Core/AVR8/EndpointStream_AVR8.c **** 			  return ErrorCode;
 107:./tmk_core/protocol/lufa/LUFA-git/LUFA/Drivers/USB/Core/AVR8/EndpointStream_AVR8.c **** 		}
 108:./tmk_core/protocol/lufa/LUFA-git/LUFA/Drivers/USB/Core/AVR8/EndpointStream_AVR8.c **** 		else
 109:./tmk_core/protocol/lufa/LUFA-git/LUFA/Drivers/USB/Core/AVR8/EndpointStream_AVR8.c **** 		{
 110:./tmk_core/protocol/lufa/LUFA-git/LUFA/Drivers/USB/Core/AVR8/EndpointStream_AVR8.c **** 			Endpoint_Write_8(0);
 111:./tmk_core/protocol/lufa/LUFA-git/LUFA/Drivers/USB/Core/AVR8/EndpointStream_AVR8.c **** 
 112:./tmk_core/protocol/lufa/LUFA-git/LUFA/Drivers/USB/Core/AVR8/EndpointStream_AVR8.c **** 			Length--;
 113:./tmk_core/protocol/lufa/LUFA-git/LUFA/Drivers/USB/Core/AVR8/EndpointStream_AVR8.c **** 			BytesInTransfer++;
 114:./tmk_core/protocol/lufa/LUFA-git/LUFA/Drivers/USB/Core/AVR8/EndpointStream_AVR8.c **** 		}
 115:./tmk_core/protocol/lufa/LUFA-git/LUFA/Drivers/USB/Core/AVR8/EndpointStream_AVR8.c **** 	}
 116:./tmk_core/protocol/lufa/LUFA-git/LUFA/Drivers/USB/Core/AVR8/EndpointStream_AVR8.c **** 
 117:./tmk_core/protocol/lufa/LUFA-git/LUFA/Drivers/USB/Core/AVR8/EndpointStream_AVR8.c **** 	return ENDPOINT_RWSTREAM_NoError;
 118:./tmk_core/protocol/lufa/LUFA-git/LUFA/Drivers/USB/Core/AVR8/EndpointStream_AVR8.c **** }
 316               		.loc 1 118 1 view .LVU77
 317 005e 8F2D      		mov r24,r15
 318               	/* epilogue start */
 319 0060 DF91      		pop r29
 320 0062 CF91      		pop r28
 321               	.LVL21:
 322               		.loc 1 118 1 view .LVU78
 323 0064 1F91      		pop r17
 324 0066 0F91      		pop r16
 325               	.LVL22:
 326               		.loc 1 118 1 view .LVU79
 327 0068 FF90      		pop r15
 328 006a DF90      		pop r13
 329 006c CF90      		pop r12
 330 006e 0895      		ret
 331               	.LVL23:
 332               	.L18:
 105:./tmk_core/protocol/lufa/LUFA-git/LUFA/Drivers/USB/Core/AVR8/EndpointStream_AVR8.c **** 			  return ErrorCode;
 333               		.loc 1 105 4 is_stmt 1 view .LVU80
 105:./tmk_core/protocol/lufa/LUFA-git/LUFA/Drivers/USB/Core/AVR8/EndpointStream_AVR8.c **** 			  return ErrorCode;
 334               		.loc 1 105 21 is_stmt 0 view .LVU81
 335 0070 0E94 0000 		call Endpoint_WaitUntilReady
 336               	.LVL24:
 105:./tmk_core/protocol/lufa/LUFA-git/LUFA/Drivers/USB/Core/AVR8/EndpointStream_AVR8.c **** 			  return ErrorCode;
 337               		.loc 1 105 7 view .LVU82
 338 0074 8823      		tst r24
 339 0076 01F0      		breq .L16
 340 0078 F82E      		mov r15,r24
 341 007a 00C0      		rjmp .L13
 342               	.LVL25:
 343               	.L17:
 110:./tmk_core/protocol/lufa/LUFA-git/LUFA/Drivers/USB/Core/AVR8/EndpointStream_AVR8.c **** 
 344               		.loc 1 110 4 is_stmt 1 view .LVU83
 345               	.LBB278:
 346               	.LBI278:
 552:./tmk_core/protocol/lufa/LUFA-git/LUFA/Drivers/USB/Core/AVR8/../AVR8/../AVR8/Endpoint_AVR8.h **** 			{
 347               		.loc 2 552 23 view .LVU84
 348               	.LBB279:
 554:./tmk_core/protocol/lufa/LUFA-git/LUFA/Drivers/USB/Core/AVR8/../AVR8/../AVR8/Endpoint_AVR8.h **** 			}
 349               		.loc 2 554 5 view .LVU85
 554:./tmk_core/protocol/lufa/LUFA-git/LUFA/Drivers/USB/Core/AVR8/../AVR8/../AVR8/Endpoint_AVR8.h **** 			}
 350               		.loc 2 554 12 is_stmt 0 view .LVU86
 351 007c 1092 F100 		sts 241,__zero_reg__
 352               	.LVL26:
 554:./tmk_core/protocol/lufa/LUFA-git/LUFA/Drivers/USB/Core/AVR8/../AVR8/../AVR8/Endpoint_AVR8.h **** 			}
 353               		.loc 2 554 12 view .LVU87
 354               	.LBE279:
 355               	.LBE278:
 112:./tmk_core/protocol/lufa/LUFA-git/LUFA/Drivers/USB/Core/AVR8/EndpointStream_AVR8.c **** 			BytesInTransfer++;
 356               		.loc 1 112 4 is_stmt 1 view .LVU88
 112:./tmk_core/protocol/lufa/LUFA-git/LUFA/Drivers/USB/Core/AVR8/EndpointStream_AVR8.c **** 			BytesInTransfer++;
 357               		.loc 1 112 10 is_stmt 0 view .LVU89
 358 0080 2197      		sbiw r28,1
 359               	.LVL27:
 113:./tmk_core/protocol/lufa/LUFA-git/LUFA/Drivers/USB/Core/AVR8/EndpointStream_AVR8.c **** 		}
 360               		.loc 1 113 4 is_stmt 1 view .LVU90
 113:./tmk_core/protocol/lufa/LUFA-git/LUFA/Drivers/USB/Core/AVR8/EndpointStream_AVR8.c **** 		}
 361               		.loc 1 113 19 is_stmt 0 view .LVU91
 362 0082 FFEF      		ldi r31,-1
 363 0084 CF1A      		sub r12,r31
 364 0086 DF0A      		sbc r13,r31
 365               	.LVL28:
 113:./tmk_core/protocol/lufa/LUFA-git/LUFA/Drivers/USB/Core/AVR8/EndpointStream_AVR8.c **** 		}
 366               		.loc 1 113 19 view .LVU92
 367 0088 00C0      		rjmp .L16
 368               		.cfi_endproc
 369               	.LFE86:
 371               		.section	.text.Endpoint_Write_Stream_LE,"ax",@progbits
 372               	.global	Endpoint_Write_Stream_LE
 374               	Endpoint_Write_Stream_LE:
 375               	.LVL29:
 376               	.LFB87:
 377               		.file 3 "./tmk_core/protocol/lufa/LUFA-git/LUFA/Drivers/USB/Core/AVR8/Template/Template_Endpoint_R
   1:./tmk_core/protocol/lufa/LUFA-git/LUFA/Drivers/USB/Core/AVR8/Template/Template_Endpoint_RW.c **** /*
   2:./tmk_core/protocol/lufa/LUFA-git/LUFA/Drivers/USB/Core/AVR8/Template/Template_Endpoint_RW.c ****              LUFA Library
   3:./tmk_core/protocol/lufa/LUFA-git/LUFA/Drivers/USB/Core/AVR8/Template/Template_Endpoint_RW.c ****      Copyright (C) Dean Camera, 2014.
   4:./tmk_core/protocol/lufa/LUFA-git/LUFA/Drivers/USB/Core/AVR8/Template/Template_Endpoint_RW.c **** 
   5:./tmk_core/protocol/lufa/LUFA-git/LUFA/Drivers/USB/Core/AVR8/Template/Template_Endpoint_RW.c ****   dean [at] fourwalledcubicle [dot] com
   6:./tmk_core/protocol/lufa/LUFA-git/LUFA/Drivers/USB/Core/AVR8/Template/Template_Endpoint_RW.c ****            www.lufa-lib.org
   7:./tmk_core/protocol/lufa/LUFA-git/LUFA/Drivers/USB/Core/AVR8/Template/Template_Endpoint_RW.c **** */
   8:./tmk_core/protocol/lufa/LUFA-git/LUFA/Drivers/USB/Core/AVR8/Template/Template_Endpoint_RW.c **** 
   9:./tmk_core/protocol/lufa/LUFA-git/LUFA/Drivers/USB/Core/AVR8/Template/Template_Endpoint_RW.c **** /*
  10:./tmk_core/protocol/lufa/LUFA-git/LUFA/Drivers/USB/Core/AVR8/Template/Template_Endpoint_RW.c ****   Copyright 2014  Dean Camera (dean [at] fourwalledcubicle [dot] com)
  11:./tmk_core/protocol/lufa/LUFA-git/LUFA/Drivers/USB/Core/AVR8/Template/Template_Endpoint_RW.c **** 
  12:./tmk_core/protocol/lufa/LUFA-git/LUFA/Drivers/USB/Core/AVR8/Template/Template_Endpoint_RW.c ****   Permission to use, copy, modify, distribute, and sell this
  13:./tmk_core/protocol/lufa/LUFA-git/LUFA/Drivers/USB/Core/AVR8/Template/Template_Endpoint_RW.c ****   software and its documentation for any purpose is hereby granted
  14:./tmk_core/protocol/lufa/LUFA-git/LUFA/Drivers/USB/Core/AVR8/Template/Template_Endpoint_RW.c ****   without fee, provided that the above copyright notice appear in
  15:./tmk_core/protocol/lufa/LUFA-git/LUFA/Drivers/USB/Core/AVR8/Template/Template_Endpoint_RW.c ****   all copies and that both that the copyright notice and this
  16:./tmk_core/protocol/lufa/LUFA-git/LUFA/Drivers/USB/Core/AVR8/Template/Template_Endpoint_RW.c ****   permission notice and warranty disclaimer appear in supporting
  17:./tmk_core/protocol/lufa/LUFA-git/LUFA/Drivers/USB/Core/AVR8/Template/Template_Endpoint_RW.c ****   documentation, and that the name of the author not be used in
  18:./tmk_core/protocol/lufa/LUFA-git/LUFA/Drivers/USB/Core/AVR8/Template/Template_Endpoint_RW.c ****   advertising or publicity pertaining to distribution of the
  19:./tmk_core/protocol/lufa/LUFA-git/LUFA/Drivers/USB/Core/AVR8/Template/Template_Endpoint_RW.c ****   software without specific, written prior permission.
  20:./tmk_core/protocol/lufa/LUFA-git/LUFA/Drivers/USB/Core/AVR8/Template/Template_Endpoint_RW.c **** 
  21:./tmk_core/protocol/lufa/LUFA-git/LUFA/Drivers/USB/Core/AVR8/Template/Template_Endpoint_RW.c ****   The author disclaims all warranties with regard to this
  22:./tmk_core/protocol/lufa/LUFA-git/LUFA/Drivers/USB/Core/AVR8/Template/Template_Endpoint_RW.c ****   software, including all implied warranties of merchantability
  23:./tmk_core/protocol/lufa/LUFA-git/LUFA/Drivers/USB/Core/AVR8/Template/Template_Endpoint_RW.c ****   and fitness.  In no event shall the author be liable for any
  24:./tmk_core/protocol/lufa/LUFA-git/LUFA/Drivers/USB/Core/AVR8/Template/Template_Endpoint_RW.c ****   special, indirect or consequential damages or any damages
  25:./tmk_core/protocol/lufa/LUFA-git/LUFA/Drivers/USB/Core/AVR8/Template/Template_Endpoint_RW.c ****   whatsoever resulting from loss of use, data or profits, whether
  26:./tmk_core/protocol/lufa/LUFA-git/LUFA/Drivers/USB/Core/AVR8/Template/Template_Endpoint_RW.c ****   in an action of contract, negligence or other tortious action,
  27:./tmk_core/protocol/lufa/LUFA-git/LUFA/Drivers/USB/Core/AVR8/Template/Template_Endpoint_RW.c ****   arising out of or in connection with the use or performance of
  28:./tmk_core/protocol/lufa/LUFA-git/LUFA/Drivers/USB/Core/AVR8/Template/Template_Endpoint_RW.c ****   this software.
  29:./tmk_core/protocol/lufa/LUFA-git/LUFA/Drivers/USB/Core/AVR8/Template/Template_Endpoint_RW.c **** */
  30:./tmk_core/protocol/lufa/LUFA-git/LUFA/Drivers/USB/Core/AVR8/Template/Template_Endpoint_RW.c **** 
  31:./tmk_core/protocol/lufa/LUFA-git/LUFA/Drivers/USB/Core/AVR8/Template/Template_Endpoint_RW.c **** #if defined(TEMPLATE_FUNC_NAME)
  32:./tmk_core/protocol/lufa/LUFA-git/LUFA/Drivers/USB/Core/AVR8/Template/Template_Endpoint_RW.c **** 
  33:./tmk_core/protocol/lufa/LUFA-git/LUFA/Drivers/USB/Core/AVR8/Template/Template_Endpoint_RW.c **** uint8_t TEMPLATE_FUNC_NAME (TEMPLATE_BUFFER_TYPE const Buffer,
  34:./tmk_core/protocol/lufa/LUFA-git/LUFA/Drivers/USB/Core/AVR8/Template/Template_Endpoint_RW.c ****                             uint16_t Length,
  35:./tmk_core/protocol/lufa/LUFA-git/LUFA/Drivers/USB/Core/AVR8/Template/Template_Endpoint_RW.c ****                             uint16_t* const BytesProcessed)
  36:./tmk_core/protocol/lufa/LUFA-git/LUFA/Drivers/USB/Core/AVR8/Template/Template_Endpoint_RW.c **** {
 378               		.loc 3 36 1 is_stmt 1 view -0
 379               		.cfi_startproc
 380               		.loc 3 36 1 is_stmt 0 view .LVU94
 381 0000 AF92      		push r10
 382               	.LCFI14:
 383               		.cfi_def_cfa_offset 3
 384               		.cfi_offset 10, -2
 385 0002 BF92      		push r11
 386               	.LCFI15:
 387               		.cfi_def_cfa_offset 4
 388               		.cfi_offset 11, -3
 389 0004 CF92      		push r12
 390               	.LCFI16:
 391               		.cfi_def_cfa_offset 5
 392               		.cfi_offset 12, -4
 393 0006 DF92      		push r13
 394               	.LCFI17:
 395               		.cfi_def_cfa_offset 6
 396               		.cfi_offset 13, -5
 397 0008 FF92      		push r15
 398               	.LCFI18:
 399               		.cfi_def_cfa_offset 7
 400               		.cfi_offset 15, -6
 401 000a 0F93      		push r16
 402               	.LCFI19:
 403               		.cfi_def_cfa_offset 8
 404               		.cfi_offset 16, -7
 405 000c 1F93      		push r17
 406               	.LCFI20:
 407               		.cfi_def_cfa_offset 9
 408               		.cfi_offset 17, -8
 409 000e CF93      		push r28
 410               	.LCFI21:
 411               		.cfi_def_cfa_offset 10
 412               		.cfi_offset 28, -9
 413 0010 DF93      		push r29
 414               	.LCFI22:
 415               		.cfi_def_cfa_offset 11
 416               		.cfi_offset 29, -10
 417               	/* prologue: function */
 418               	/* frame size = 0 */
 419               	/* stack size = 9 */
 420               	.L__stack_usage = 9
 421 0012 6C01      		movw r12,r24
 422 0014 EB01      		movw r28,r22
 423 0016 8A01      		movw r16,r20
  37:./tmk_core/protocol/lufa/LUFA-git/LUFA/Drivers/USB/Core/AVR8/Template/Template_Endpoint_RW.c **** 	uint8_t* DataStream      = ((uint8_t*)Buffer + TEMPLATE_BUFFER_OFFSET(Length));
 424               		.loc 3 37 2 is_stmt 1 view .LVU95
 425               	.LVL30:
  38:./tmk_core/protocol/lufa/LUFA-git/LUFA/Drivers/USB/Core/AVR8/Template/Template_Endpoint_RW.c **** 	uint16_t BytesInTransfer = 0;
 426               		.loc 3 38 2 view .LVU96
  39:./tmk_core/protocol/lufa/LUFA-git/LUFA/Drivers/USB/Core/AVR8/Template/Template_Endpoint_RW.c **** 	uint8_t  ErrorCode;
 427               		.loc 3 39 2 view .LVU97
  40:./tmk_core/protocol/lufa/LUFA-git/LUFA/Drivers/USB/Core/AVR8/Template/Template_Endpoint_RW.c **** 
  41:./tmk_core/protocol/lufa/LUFA-git/LUFA/Drivers/USB/Core/AVR8/Template/Template_Endpoint_RW.c **** 	if ((ErrorCode = Endpoint_WaitUntilReady()))
 428               		.loc 3 41 2 view .LVU98
 429               		.loc 3 41 19 is_stmt 0 view .LVU99
 430 0018 0E94 0000 		call Endpoint_WaitUntilReady
 431               	.LVL31:
 432               		.loc 3 41 19 view .LVU100
 433 001c F82E      		mov r15,r24
 434               	.LVL32:
 435               		.loc 3 41 5 view .LVU101
 436 001e 8111      		cpse r24,__zero_reg__
 437 0020 00C0      		rjmp .L25
  42:./tmk_core/protocol/lufa/LUFA-git/LUFA/Drivers/USB/Core/AVR8/Template/Template_Endpoint_RW.c **** 	  return ErrorCode;
  43:./tmk_core/protocol/lufa/LUFA-git/LUFA/Drivers/USB/Core/AVR8/Template/Template_Endpoint_RW.c **** 
  44:./tmk_core/protocol/lufa/LUFA-git/LUFA/Drivers/USB/Core/AVR8/Template/Template_Endpoint_RW.c **** 	if (BytesProcessed != NULL)
 438               		.loc 3 44 2 is_stmt 1 view .LVU102
 439               		.loc 3 44 5 is_stmt 0 view .LVU103
 440 0022 0115      		cp r16,__zero_reg__
 441 0024 1105      		cpc r17,__zero_reg__
 442 0026 01F0      		breq .L27
  45:./tmk_core/protocol/lufa/LUFA-git/LUFA/Drivers/USB/Core/AVR8/Template/Template_Endpoint_RW.c **** 	{
  46:./tmk_core/protocol/lufa/LUFA-git/LUFA/Drivers/USB/Core/AVR8/Template/Template_Endpoint_RW.c **** 		Length -= *BytesProcessed;
 443               		.loc 3 46 3 is_stmt 1 view .LVU104
 444               		.loc 3 46 13 is_stmt 0 view .LVU105
 445 0028 F801      		movw r30,r16
 446 002a 8081      		ld r24,Z
 447 002c 9181      		ldd r25,Z+1
 448               		.loc 3 46 10 view .LVU106
 449 002e C81B      		sub r28,r24
 450 0030 D90B      		sbc r29,r25
 451               	.LVL33:
  47:./tmk_core/protocol/lufa/LUFA-git/LUFA/Drivers/USB/Core/AVR8/Template/Template_Endpoint_RW.c **** 		TEMPLATE_BUFFER_MOVE(DataStream, *BytesProcessed);
 452               		.loc 3 47 3 is_stmt 1 view .LVU107
 453 0032 C80E      		add r12,r24
 454 0034 D91E      		adc r13,r25
 455               	.LVL34:
 456               	.L27:
  36:./tmk_core/protocol/lufa/LUFA-git/LUFA/Drivers/USB/Core/AVR8/Template/Template_Endpoint_RW.c **** 	uint8_t* DataStream      = ((uint8_t*)Buffer + TEMPLATE_BUFFER_OFFSET(Length));
 457               		.loc 3 36 1 is_stmt 0 view .LVU108
 458 0036 B12C      		mov r11,__zero_reg__
 459 0038 A12C      		mov r10,__zero_reg__
 460               	.LVL35:
 461               	.L28:
  48:./tmk_core/protocol/lufa/LUFA-git/LUFA/Drivers/USB/Core/AVR8/Template/Template_Endpoint_RW.c **** 	}
  49:./tmk_core/protocol/lufa/LUFA-git/LUFA/Drivers/USB/Core/AVR8/Template/Template_Endpoint_RW.c **** 
  50:./tmk_core/protocol/lufa/LUFA-git/LUFA/Drivers/USB/Core/AVR8/Template/Template_Endpoint_RW.c **** 	while (Length)
 462               		.loc 3 50 8 is_stmt 1 view .LVU109
 463 003a 2097      		sbiw r28,0
 464 003c 01F0      		breq .L25
  51:./tmk_core/protocol/lufa/LUFA-git/LUFA/Drivers/USB/Core/AVR8/Template/Template_Endpoint_RW.c **** 	{
  52:./tmk_core/protocol/lufa/LUFA-git/LUFA/Drivers/USB/Core/AVR8/Template/Template_Endpoint_RW.c **** 		if (!(Endpoint_IsReadWriteAllowed()))
 465               		.loc 3 52 3 view .LVU110
 466               	.LBB280:
 467               	.LBI280:
 358:./tmk_core/protocol/lufa/LUFA-git/LUFA/Drivers/USB/Core/AVR8/../AVR8/../AVR8/Endpoint_AVR8.h **** 			{
 468               		.loc 2 358 23 view .LVU111
 469               	.LBB281:
 360:./tmk_core/protocol/lufa/LUFA-git/LUFA/Drivers/USB/Core/AVR8/../AVR8/../AVR8/Endpoint_AVR8.h **** 			}
 470               		.loc 2 360 5 view .LVU112
 360:./tmk_core/protocol/lufa/LUFA-git/LUFA/Drivers/USB/Core/AVR8/../AVR8/../AVR8/Endpoint_AVR8.h **** 			}
 471               		.loc 2 360 14 is_stmt 0 view .LVU113
 472 003e 8091 E800 		lds r24,232
 473               	.LBE281:
 474               	.LBE280:
 475               		.loc 3 52 6 view .LVU114
 476 0042 85FD      		sbrc r24,5
 477 0044 00C0      		rjmp .L29
  53:./tmk_core/protocol/lufa/LUFA-git/LUFA/Drivers/USB/Core/AVR8/Template/Template_Endpoint_RW.c **** 		{
  54:./tmk_core/protocol/lufa/LUFA-git/LUFA/Drivers/USB/Core/AVR8/Template/Template_Endpoint_RW.c **** 			TEMPLATE_CLEAR_ENDPOINT();
 478               		.loc 3 54 4 is_stmt 1 view .LVU115
 479               	.LBB282:
 480               	.LBI282:
 453:./tmk_core/protocol/lufa/LUFA-git/LUFA/Drivers/USB/Core/AVR8/../AVR8/../AVR8/Endpoint_AVR8.h **** 			{
 481               		.loc 2 453 23 view .LVU116
 482               	.LBB283:
 456:./tmk_core/protocol/lufa/LUFA-git/LUFA/Drivers/USB/Core/AVR8/../AVR8/../AVR8/Endpoint_AVR8.h **** 				#else
 483               		.loc 2 456 6 view .LVU117
 456:./tmk_core/protocol/lufa/LUFA-git/LUFA/Drivers/USB/Core/AVR8/../AVR8/../AVR8/Endpoint_AVR8.h **** 				#else
 484               		.loc 2 456 13 is_stmt 0 view .LVU118
 485 0046 8091 E800 		lds r24,232
 486 004a 8E77      		andi r24,lo8(126)
 487 004c 8093 E800 		sts 232,r24
 488               	.LBE283:
 489               	.LBE282:
  55:./tmk_core/protocol/lufa/LUFA-git/LUFA/Drivers/USB/Core/AVR8/Template/Template_Endpoint_RW.c **** 
  56:./tmk_core/protocol/lufa/LUFA-git/LUFA/Drivers/USB/Core/AVR8/Template/Template_Endpoint_RW.c **** 			#if !defined(INTERRUPT_CONTROL_ENDPOINT)
  57:./tmk_core/protocol/lufa/LUFA-git/LUFA/Drivers/USB/Core/AVR8/Template/Template_Endpoint_RW.c **** 			USB_USBTask();
  58:./tmk_core/protocol/lufa/LUFA-git/LUFA/Drivers/USB/Core/AVR8/Template/Template_Endpoint_RW.c **** 			#endif
  59:./tmk_core/protocol/lufa/LUFA-git/LUFA/Drivers/USB/Core/AVR8/Template/Template_Endpoint_RW.c **** 
  60:./tmk_core/protocol/lufa/LUFA-git/LUFA/Drivers/USB/Core/AVR8/Template/Template_Endpoint_RW.c **** 			if (BytesProcessed != NULL)
 490               		.loc 3 60 4 is_stmt 1 view .LVU119
 491               		.loc 3 60 7 is_stmt 0 view .LVU120
 492 0050 0115      		cp r16,__zero_reg__
 493 0052 1105      		cpc r17,__zero_reg__
 494 0054 01F0      		breq .L30
  61:./tmk_core/protocol/lufa/LUFA-git/LUFA/Drivers/USB/Core/AVR8/Template/Template_Endpoint_RW.c **** 			{
  62:./tmk_core/protocol/lufa/LUFA-git/LUFA/Drivers/USB/Core/AVR8/Template/Template_Endpoint_RW.c **** 				*BytesProcessed += BytesInTransfer;
 495               		.loc 3 62 5 is_stmt 1 view .LVU121
 496               		.loc 3 62 21 is_stmt 0 view .LVU122
 497 0056 F801      		movw r30,r16
 498 0058 8081      		ld r24,Z
 499 005a 9181      		ldd r25,Z+1
 500 005c A80E      		add r10,r24
 501 005e B91E      		adc r11,r25
 502               	.LVL36:
 503               		.loc 3 62 21 view .LVU123
 504 0060 B182      		std Z+1,r11
 505 0062 A082      		st Z,r10
  63:./tmk_core/protocol/lufa/LUFA-git/LUFA/Drivers/USB/Core/AVR8/Template/Template_Endpoint_RW.c **** 				return ENDPOINT_RWSTREAM_IncompleteTransfer;
 506               		.loc 3 63 5 is_stmt 1 view .LVU124
 507               		.loc 3 63 12 is_stmt 0 view .LVU125
 508 0064 85E0      		ldi r24,lo8(5)
 509 0066 F82E      		mov r15,r24
 510               	.L25:
  64:./tmk_core/protocol/lufa/LUFA-git/LUFA/Drivers/USB/Core/AVR8/Template/Template_Endpoint_RW.c **** 			}
  65:./tmk_core/protocol/lufa/LUFA-git/LUFA/Drivers/USB/Core/AVR8/Template/Template_Endpoint_RW.c **** 
  66:./tmk_core/protocol/lufa/LUFA-git/LUFA/Drivers/USB/Core/AVR8/Template/Template_Endpoint_RW.c **** 			if ((ErrorCode = Endpoint_WaitUntilReady()))
  67:./tmk_core/protocol/lufa/LUFA-git/LUFA/Drivers/USB/Core/AVR8/Template/Template_Endpoint_RW.c **** 			  return ErrorCode;
  68:./tmk_core/protocol/lufa/LUFA-git/LUFA/Drivers/USB/Core/AVR8/Template/Template_Endpoint_RW.c **** 		}
  69:./tmk_core/protocol/lufa/LUFA-git/LUFA/Drivers/USB/Core/AVR8/Template/Template_Endpoint_RW.c **** 		else
  70:./tmk_core/protocol/lufa/LUFA-git/LUFA/Drivers/USB/Core/AVR8/Template/Template_Endpoint_RW.c **** 		{
  71:./tmk_core/protocol/lufa/LUFA-git/LUFA/Drivers/USB/Core/AVR8/Template/Template_Endpoint_RW.c **** 			TEMPLATE_TRANSFER_BYTE(DataStream);
  72:./tmk_core/protocol/lufa/LUFA-git/LUFA/Drivers/USB/Core/AVR8/Template/Template_Endpoint_RW.c **** 			TEMPLATE_BUFFER_MOVE(DataStream, 1);
  73:./tmk_core/protocol/lufa/LUFA-git/LUFA/Drivers/USB/Core/AVR8/Template/Template_Endpoint_RW.c **** 			Length--;
  74:./tmk_core/protocol/lufa/LUFA-git/LUFA/Drivers/USB/Core/AVR8/Template/Template_Endpoint_RW.c **** 			BytesInTransfer++;
  75:./tmk_core/protocol/lufa/LUFA-git/LUFA/Drivers/USB/Core/AVR8/Template/Template_Endpoint_RW.c **** 		}
  76:./tmk_core/protocol/lufa/LUFA-git/LUFA/Drivers/USB/Core/AVR8/Template/Template_Endpoint_RW.c **** 	}
  77:./tmk_core/protocol/lufa/LUFA-git/LUFA/Drivers/USB/Core/AVR8/Template/Template_Endpoint_RW.c **** 
  78:./tmk_core/protocol/lufa/LUFA-git/LUFA/Drivers/USB/Core/AVR8/Template/Template_Endpoint_RW.c **** 	return ENDPOINT_RWSTREAM_NoError;
  79:./tmk_core/protocol/lufa/LUFA-git/LUFA/Drivers/USB/Core/AVR8/Template/Template_Endpoint_RW.c **** }
 511               		.loc 3 79 1 view .LVU126
 512 0068 8F2D      		mov r24,r15
 513               	/* epilogue start */
 514 006a DF91      		pop r29
 515 006c CF91      		pop r28
 516               	.LVL37:
 517               		.loc 3 79 1 view .LVU127
 518 006e 1F91      		pop r17
 519 0070 0F91      		pop r16
 520               	.LVL38:
 521               		.loc 3 79 1 view .LVU128
 522 0072 FF90      		pop r15
 523 0074 DF90      		pop r13
 524 0076 CF90      		pop r12
 525               	.LVL39:
 526               		.loc 3 79 1 view .LVU129
 527 0078 BF90      		pop r11
 528 007a AF90      		pop r10
 529 007c 0895      		ret
 530               	.LVL40:
 531               	.L30:
  66:./tmk_core/protocol/lufa/LUFA-git/LUFA/Drivers/USB/Core/AVR8/Template/Template_Endpoint_RW.c **** 			  return ErrorCode;
 532               		.loc 3 66 4 is_stmt 1 view .LVU130
  66:./tmk_core/protocol/lufa/LUFA-git/LUFA/Drivers/USB/Core/AVR8/Template/Template_Endpoint_RW.c **** 			  return ErrorCode;
 533               		.loc 3 66 21 is_stmt 0 view .LVU131
 534 007e 0E94 0000 		call Endpoint_WaitUntilReady
 535               	.LVL41:
  66:./tmk_core/protocol/lufa/LUFA-git/LUFA/Drivers/USB/Core/AVR8/Template/Template_Endpoint_RW.c **** 			  return ErrorCode;
 536               		.loc 3 66 7 view .LVU132
 537 0082 8823      		tst r24
 538 0084 01F0      		breq .L28
 539 0086 F82E      		mov r15,r24
 540 0088 00C0      		rjmp .L25
 541               	.LVL42:
 542               	.L29:
  71:./tmk_core/protocol/lufa/LUFA-git/LUFA/Drivers/USB/Core/AVR8/Template/Template_Endpoint_RW.c **** 			TEMPLATE_BUFFER_MOVE(DataStream, 1);
 543               		.loc 3 71 4 is_stmt 1 view .LVU133
 544 008a F601      		movw r30,r12
 545 008c 8191      		ld r24,Z+
 546 008e 6F01      		movw r12,r30
 547               	.LVL43:
 548               	.LBB284:
 549               	.LBI284:
 552:./tmk_core/protocol/lufa/LUFA-git/LUFA/Drivers/USB/Core/AVR8/../AVR8/../AVR8/Endpoint_AVR8.h **** 			{
 550               		.loc 2 552 23 view .LVU134
 551               	.LBB285:
 554:./tmk_core/protocol/lufa/LUFA-git/LUFA/Drivers/USB/Core/AVR8/../AVR8/../AVR8/Endpoint_AVR8.h **** 			}
 552               		.loc 2 554 5 view .LVU135
 554:./tmk_core/protocol/lufa/LUFA-git/LUFA/Drivers/USB/Core/AVR8/../AVR8/../AVR8/Endpoint_AVR8.h **** 			}
 553               		.loc 2 554 12 is_stmt 0 view .LVU136
 554 0090 8093 F100 		sts 241,r24
 555               	.LVL44:
 554:./tmk_core/protocol/lufa/LUFA-git/LUFA/Drivers/USB/Core/AVR8/../AVR8/../AVR8/Endpoint_AVR8.h **** 			}
 556               		.loc 2 554 12 view .LVU137
 557               	.LBE285:
 558               	.LBE284:
  72:./tmk_core/protocol/lufa/LUFA-git/LUFA/Drivers/USB/Core/AVR8/Template/Template_Endpoint_RW.c **** 			Length--;
 559               		.loc 3 72 4 is_stmt 1 view .LVU138
  73:./tmk_core/protocol/lufa/LUFA-git/LUFA/Drivers/USB/Core/AVR8/Template/Template_Endpoint_RW.c **** 			BytesInTransfer++;
 560               		.loc 3 73 4 view .LVU139
  73:./tmk_core/protocol/lufa/LUFA-git/LUFA/Drivers/USB/Core/AVR8/Template/Template_Endpoint_RW.c **** 			BytesInTransfer++;
 561               		.loc 3 73 10 is_stmt 0 view .LVU140
 562 0094 2197      		sbiw r28,1
 563               	.LVL45:
  74:./tmk_core/protocol/lufa/LUFA-git/LUFA/Drivers/USB/Core/AVR8/Template/Template_Endpoint_RW.c **** 		}
 564               		.loc 3 74 4 is_stmt 1 view .LVU141
  74:./tmk_core/protocol/lufa/LUFA-git/LUFA/Drivers/USB/Core/AVR8/Template/Template_Endpoint_RW.c **** 		}
 565               		.loc 3 74 19 is_stmt 0 view .LVU142
 566 0096 FFEF      		ldi r31,-1
 567 0098 AF1A      		sub r10,r31
 568 009a BF0A      		sbc r11,r31
 569               	.LVL46:
  74:./tmk_core/protocol/lufa/LUFA-git/LUFA/Drivers/USB/Core/AVR8/Template/Template_Endpoint_RW.c **** 		}
 570               		.loc 3 74 19 view .LVU143
 571 009c 00C0      		rjmp .L28
 572               		.cfi_endproc
 573               	.LFE87:
 575               		.section	.text.Endpoint_Write_Stream_BE,"ax",@progbits
 576               	.global	Endpoint_Write_Stream_BE
 578               	Endpoint_Write_Stream_BE:
 579               	.LVL47:
 580               	.LFB88:
  36:./tmk_core/protocol/lufa/LUFA-git/LUFA/Drivers/USB/Core/AVR8/Template/Template_Endpoint_RW.c **** 	uint8_t* DataStream      = ((uint8_t*)Buffer + TEMPLATE_BUFFER_OFFSET(Length));
 581               		.loc 3 36 1 is_stmt 1 view -0
 582               		.cfi_startproc
  36:./tmk_core/protocol/lufa/LUFA-git/LUFA/Drivers/USB/Core/AVR8/Template/Template_Endpoint_RW.c **** 	uint8_t* DataStream      = ((uint8_t*)Buffer + TEMPLATE_BUFFER_OFFSET(Length));
 583               		.loc 3 36 1 is_stmt 0 view .LVU145
 584 0000 AF92      		push r10
 585               	.LCFI23:
 586               		.cfi_def_cfa_offset 3
 587               		.cfi_offset 10, -2
 588 0002 BF92      		push r11
 589               	.LCFI24:
 590               		.cfi_def_cfa_offset 4
 591               		.cfi_offset 11, -3
 592 0004 DF92      		push r13
 593               	.LCFI25:
 594               		.cfi_def_cfa_offset 5
 595               		.cfi_offset 13, -4
 596 0006 EF92      		push r14
 597               	.LCFI26:
 598               		.cfi_def_cfa_offset 6
 599               		.cfi_offset 14, -5
 600 0008 FF92      		push r15
 601               	.LCFI27:
 602               		.cfi_def_cfa_offset 7
 603               		.cfi_offset 15, -6
 604 000a 0F93      		push r16
 605               	.LCFI28:
 606               		.cfi_def_cfa_offset 8
 607               		.cfi_offset 16, -7
 608 000c 1F93      		push r17
 609               	.LCFI29:
 610               		.cfi_def_cfa_offset 9
 611               		.cfi_offset 17, -8
 612 000e CF93      		push r28
 613               	.LCFI30:
 614               		.cfi_def_cfa_offset 10
 615               		.cfi_offset 28, -9
 616 0010 DF93      		push r29
 617               	.LCFI31:
 618               		.cfi_def_cfa_offset 11
 619               		.cfi_offset 29, -10
 620               	/* prologue: function */
 621               	/* frame size = 0 */
 622               	/* stack size = 9 */
 623               	.L__stack_usage = 9
 624 0012 EC01      		movw r28,r24
 625 0014 8B01      		movw r16,r22
 626 0016 7A01      		movw r14,r20
  37:./tmk_core/protocol/lufa/LUFA-git/LUFA/Drivers/USB/Core/AVR8/Template/Template_Endpoint_RW.c **** 	uint16_t BytesInTransfer = 0;
 627               		.loc 3 37 2 is_stmt 1 view .LVU146
 628               	.LVL48:
  38:./tmk_core/protocol/lufa/LUFA-git/LUFA/Drivers/USB/Core/AVR8/Template/Template_Endpoint_RW.c **** 	uint8_t  ErrorCode;
 629               		.loc 3 38 2 view .LVU147
  39:./tmk_core/protocol/lufa/LUFA-git/LUFA/Drivers/USB/Core/AVR8/Template/Template_Endpoint_RW.c **** 
 630               		.loc 3 39 2 view .LVU148
  41:./tmk_core/protocol/lufa/LUFA-git/LUFA/Drivers/USB/Core/AVR8/Template/Template_Endpoint_RW.c **** 	  return ErrorCode;
 631               		.loc 3 41 2 view .LVU149
  41:./tmk_core/protocol/lufa/LUFA-git/LUFA/Drivers/USB/Core/AVR8/Template/Template_Endpoint_RW.c **** 	  return ErrorCode;
 632               		.loc 3 41 19 is_stmt 0 view .LVU150
 633 0018 0E94 0000 		call Endpoint_WaitUntilReady
 634               	.LVL49:
  41:./tmk_core/protocol/lufa/LUFA-git/LUFA/Drivers/USB/Core/AVR8/Template/Template_Endpoint_RW.c **** 	  return ErrorCode;
 635               		.loc 3 41 19 view .LVU151
 636 001c D82E      		mov r13,r24
 637               	.LVL50:
  41:./tmk_core/protocol/lufa/LUFA-git/LUFA/Drivers/USB/Core/AVR8/Template/Template_Endpoint_RW.c **** 	  return ErrorCode;
 638               		.loc 3 41 5 view .LVU152
 639 001e 8111      		cpse r24,__zero_reg__
 640 0020 00C0      		rjmp .L37
  37:./tmk_core/protocol/lufa/LUFA-git/LUFA/Drivers/USB/Core/AVR8/Template/Template_Endpoint_RW.c **** 	uint16_t BytesInTransfer = 0;
 641               		.loc 3 37 47 view .LVU153
 642 0022 C801      		movw r24,r16
 643 0024 0197      		sbiw r24,1
 644               	.LVL51:
  37:./tmk_core/protocol/lufa/LUFA-git/LUFA/Drivers/USB/Core/AVR8/Template/Template_Endpoint_RW.c **** 	uint16_t BytesInTransfer = 0;
 645               		.loc 3 37 11 view .LVU154
 646 0026 C80F      		add r28,r24
 647 0028 D91F      		adc r29,r25
 648               	.LVL52:
  44:./tmk_core/protocol/lufa/LUFA-git/LUFA/Drivers/USB/Core/AVR8/Template/Template_Endpoint_RW.c **** 	{
 649               		.loc 3 44 2 is_stmt 1 view .LVU155
  44:./tmk_core/protocol/lufa/LUFA-git/LUFA/Drivers/USB/Core/AVR8/Template/Template_Endpoint_RW.c **** 	{
 650               		.loc 3 44 5 is_stmt 0 view .LVU156
 651 002a E114      		cp r14,__zero_reg__
 652 002c F104      		cpc r15,__zero_reg__
 653 002e 01F0      		breq .L39
  46:./tmk_core/protocol/lufa/LUFA-git/LUFA/Drivers/USB/Core/AVR8/Template/Template_Endpoint_RW.c **** 		TEMPLATE_BUFFER_MOVE(DataStream, *BytesProcessed);
 654               		.loc 3 46 3 is_stmt 1 view .LVU157
  46:./tmk_core/protocol/lufa/LUFA-git/LUFA/Drivers/USB/Core/AVR8/Template/Template_Endpoint_RW.c **** 		TEMPLATE_BUFFER_MOVE(DataStream, *BytesProcessed);
 655               		.loc 3 46 13 is_stmt 0 view .LVU158
 656 0030 F701      		movw r30,r14
 657 0032 8081      		ld r24,Z
 658 0034 9181      		ldd r25,Z+1
 659               	.LVL53:
  46:./tmk_core/protocol/lufa/LUFA-git/LUFA/Drivers/USB/Core/AVR8/Template/Template_Endpoint_RW.c **** 		TEMPLATE_BUFFER_MOVE(DataStream, *BytesProcessed);
 660               		.loc 3 46 10 view .LVU159
 661 0036 081B      		sub r16,r24
 662 0038 190B      		sbc r17,r25
 663               	.LVL54:
  47:./tmk_core/protocol/lufa/LUFA-git/LUFA/Drivers/USB/Core/AVR8/Template/Template_Endpoint_RW.c **** 	}
 664               		.loc 3 47 3 is_stmt 1 view .LVU160
 665 003a C81B      		sub r28,r24
 666 003c D90B      		sbc r29,r25
 667               	.LVL55:
 668               	.L39:
  36:./tmk_core/protocol/lufa/LUFA-git/LUFA/Drivers/USB/Core/AVR8/Template/Template_Endpoint_RW.c **** 	uint8_t* DataStream      = ((uint8_t*)Buffer + TEMPLATE_BUFFER_OFFSET(Length));
 669               		.loc 3 36 1 is_stmt 0 view .LVU161
 670 003e B12C      		mov r11,__zero_reg__
 671 0040 A12C      		mov r10,__zero_reg__
 672               	.LVL56:
 673               	.L40:
  50:./tmk_core/protocol/lufa/LUFA-git/LUFA/Drivers/USB/Core/AVR8/Template/Template_Endpoint_RW.c **** 	{
 674               		.loc 3 50 8 is_stmt 1 view .LVU162
 675 0042 0115      		cp r16,__zero_reg__
 676 0044 1105      		cpc r17,__zero_reg__
 677 0046 01F0      		breq .L37
  52:./tmk_core/protocol/lufa/LUFA-git/LUFA/Drivers/USB/Core/AVR8/Template/Template_Endpoint_RW.c **** 		{
 678               		.loc 3 52 3 view .LVU163
 679               	.LBB286:
 680               	.LBI286:
 358:./tmk_core/protocol/lufa/LUFA-git/LUFA/Drivers/USB/Core/AVR8/../AVR8/../AVR8/Endpoint_AVR8.h **** 			{
 681               		.loc 2 358 23 view .LVU164
 682               	.LBB287:
 360:./tmk_core/protocol/lufa/LUFA-git/LUFA/Drivers/USB/Core/AVR8/../AVR8/../AVR8/Endpoint_AVR8.h **** 			}
 683               		.loc 2 360 5 view .LVU165
 360:./tmk_core/protocol/lufa/LUFA-git/LUFA/Drivers/USB/Core/AVR8/../AVR8/../AVR8/Endpoint_AVR8.h **** 			}
 684               		.loc 2 360 14 is_stmt 0 view .LVU166
 685 0048 8091 E800 		lds r24,232
 686               	.LBE287:
 687               	.LBE286:
  52:./tmk_core/protocol/lufa/LUFA-git/LUFA/Drivers/USB/Core/AVR8/Template/Template_Endpoint_RW.c **** 		{
 688               		.loc 3 52 6 view .LVU167
 689 004c 85FD      		sbrc r24,5
 690 004e 00C0      		rjmp .L41
  54:./tmk_core/protocol/lufa/LUFA-git/LUFA/Drivers/USB/Core/AVR8/Template/Template_Endpoint_RW.c **** 
 691               		.loc 3 54 4 is_stmt 1 view .LVU168
 692               	.LBB288:
 693               	.LBI288:
 453:./tmk_core/protocol/lufa/LUFA-git/LUFA/Drivers/USB/Core/AVR8/../AVR8/../AVR8/Endpoint_AVR8.h **** 			{
 694               		.loc 2 453 23 view .LVU169
 695               	.LBB289:
 456:./tmk_core/protocol/lufa/LUFA-git/LUFA/Drivers/USB/Core/AVR8/../AVR8/../AVR8/Endpoint_AVR8.h **** 				#else
 696               		.loc 2 456 6 view .LVU170
 456:./tmk_core/protocol/lufa/LUFA-git/LUFA/Drivers/USB/Core/AVR8/../AVR8/../AVR8/Endpoint_AVR8.h **** 				#else
 697               		.loc 2 456 13 is_stmt 0 view .LVU171
 698 0050 8091 E800 		lds r24,232
 699 0054 8E77      		andi r24,lo8(126)
 700 0056 8093 E800 		sts 232,r24
 701               	.LBE289:
 702               	.LBE288:
  60:./tmk_core/protocol/lufa/LUFA-git/LUFA/Drivers/USB/Core/AVR8/Template/Template_Endpoint_RW.c **** 			{
 703               		.loc 3 60 4 is_stmt 1 view .LVU172
  60:./tmk_core/protocol/lufa/LUFA-git/LUFA/Drivers/USB/Core/AVR8/Template/Template_Endpoint_RW.c **** 			{
 704               		.loc 3 60 7 is_stmt 0 view .LVU173
 705 005a E114      		cp r14,__zero_reg__
 706 005c F104      		cpc r15,__zero_reg__
 707 005e 01F0      		breq .L42
  62:./tmk_core/protocol/lufa/LUFA-git/LUFA/Drivers/USB/Core/AVR8/Template/Template_Endpoint_RW.c **** 				return ENDPOINT_RWSTREAM_IncompleteTransfer;
 708               		.loc 3 62 5 is_stmt 1 view .LVU174
  62:./tmk_core/protocol/lufa/LUFA-git/LUFA/Drivers/USB/Core/AVR8/Template/Template_Endpoint_RW.c **** 				return ENDPOINT_RWSTREAM_IncompleteTransfer;
 709               		.loc 3 62 21 is_stmt 0 view .LVU175
 710 0060 F701      		movw r30,r14
 711 0062 8081      		ld r24,Z
 712 0064 9181      		ldd r25,Z+1
 713 0066 A80E      		add r10,r24
 714 0068 B91E      		adc r11,r25
 715               	.LVL57:
  62:./tmk_core/protocol/lufa/LUFA-git/LUFA/Drivers/USB/Core/AVR8/Template/Template_Endpoint_RW.c **** 				return ENDPOINT_RWSTREAM_IncompleteTransfer;
 716               		.loc 3 62 21 view .LVU176
 717 006a B182      		std Z+1,r11
 718 006c A082      		st Z,r10
  63:./tmk_core/protocol/lufa/LUFA-git/LUFA/Drivers/USB/Core/AVR8/Template/Template_Endpoint_RW.c **** 			}
 719               		.loc 3 63 5 is_stmt 1 view .LVU177
  63:./tmk_core/protocol/lufa/LUFA-git/LUFA/Drivers/USB/Core/AVR8/Template/Template_Endpoint_RW.c **** 			}
 720               		.loc 3 63 12 is_stmt 0 view .LVU178
 721 006e 85E0      		ldi r24,lo8(5)
 722 0070 D82E      		mov r13,r24
 723               	.LVL58:
 724               	.L37:
 725               		.loc 3 79 1 view .LVU179
 726 0072 8D2D      		mov r24,r13
 727               	/* epilogue start */
 728 0074 DF91      		pop r29
 729 0076 CF91      		pop r28
 730 0078 1F91      		pop r17
 731 007a 0F91      		pop r16
 732               	.LVL59:
 733               		.loc 3 79 1 view .LVU180
 734 007c FF90      		pop r15
 735 007e EF90      		pop r14
 736               	.LVL60:
 737               		.loc 3 79 1 view .LVU181
 738 0080 DF90      		pop r13
 739 0082 BF90      		pop r11
 740 0084 AF90      		pop r10
 741 0086 0895      		ret
 742               	.LVL61:
 743               	.L42:
  66:./tmk_core/protocol/lufa/LUFA-git/LUFA/Drivers/USB/Core/AVR8/Template/Template_Endpoint_RW.c **** 			  return ErrorCode;
 744               		.loc 3 66 4 is_stmt 1 view .LVU182
  66:./tmk_core/protocol/lufa/LUFA-git/LUFA/Drivers/USB/Core/AVR8/Template/Template_Endpoint_RW.c **** 			  return ErrorCode;
 745               		.loc 3 66 21 is_stmt 0 view .LVU183
 746 0088 0E94 0000 		call Endpoint_WaitUntilReady
 747               	.LVL62:
  66:./tmk_core/protocol/lufa/LUFA-git/LUFA/Drivers/USB/Core/AVR8/Template/Template_Endpoint_RW.c **** 			  return ErrorCode;
 748               		.loc 3 66 7 view .LVU184
 749 008c 8823      		tst r24
 750 008e 01F0      		breq .L40
 751 0090 D82E      		mov r13,r24
 752 0092 00C0      		rjmp .L37
 753               	.LVL63:
 754               	.L41:
  71:./tmk_core/protocol/lufa/LUFA-git/LUFA/Drivers/USB/Core/AVR8/Template/Template_Endpoint_RW.c **** 			TEMPLATE_BUFFER_MOVE(DataStream, 1);
 755               		.loc 3 71 4 is_stmt 1 view .LVU185
 756 0094 8881      		ld r24,Y
 757               	.LVL64:
 758               	.LBB290:
 759               	.LBI290:
 552:./tmk_core/protocol/lufa/LUFA-git/LUFA/Drivers/USB/Core/AVR8/../AVR8/../AVR8/Endpoint_AVR8.h **** 			{
 760               		.loc 2 552 23 view .LVU186
 761               	.LBB291:
 554:./tmk_core/protocol/lufa/LUFA-git/LUFA/Drivers/USB/Core/AVR8/../AVR8/../AVR8/Endpoint_AVR8.h **** 			}
 762               		.loc 2 554 5 view .LVU187
 554:./tmk_core/protocol/lufa/LUFA-git/LUFA/Drivers/USB/Core/AVR8/../AVR8/../AVR8/Endpoint_AVR8.h **** 			}
 763               		.loc 2 554 12 is_stmt 0 view .LVU188
 764 0096 8093 F100 		sts 241,r24
 765               	.LVL65:
 554:./tmk_core/protocol/lufa/LUFA-git/LUFA/Drivers/USB/Core/AVR8/../AVR8/../AVR8/Endpoint_AVR8.h **** 			}
 766               		.loc 2 554 12 view .LVU189
 767               	.LBE291:
 768               	.LBE290:
  72:./tmk_core/protocol/lufa/LUFA-git/LUFA/Drivers/USB/Core/AVR8/Template/Template_Endpoint_RW.c **** 			Length--;
 769               		.loc 3 72 4 is_stmt 1 view .LVU190
 770 009a 2197      		sbiw r28,1
 771               	.LVL66:
  73:./tmk_core/protocol/lufa/LUFA-git/LUFA/Drivers/USB/Core/AVR8/Template/Template_Endpoint_RW.c **** 			BytesInTransfer++;
 772               		.loc 3 73 4 view .LVU191
  73:./tmk_core/protocol/lufa/LUFA-git/LUFA/Drivers/USB/Core/AVR8/Template/Template_Endpoint_RW.c **** 			BytesInTransfer++;
 773               		.loc 3 73 10 is_stmt 0 view .LVU192
 774 009c 0150      		subi r16,1
 775 009e 1109      		sbc r17,__zero_reg__
 776               	.LVL67:
  74:./tmk_core/protocol/lufa/LUFA-git/LUFA/Drivers/USB/Core/AVR8/Template/Template_Endpoint_RW.c **** 		}
 777               		.loc 3 74 4 is_stmt 1 view .LVU193
  74:./tmk_core/protocol/lufa/LUFA-git/LUFA/Drivers/USB/Core/AVR8/Template/Template_Endpoint_RW.c **** 		}
 778               		.loc 3 74 19 is_stmt 0 view .LVU194
 779 00a0 FFEF      		ldi r31,-1
 780 00a2 AF1A      		sub r10,r31
 781 00a4 BF0A      		sbc r11,r31
 782               	.LVL68:
  74:./tmk_core/protocol/lufa/LUFA-git/LUFA/Drivers/USB/Core/AVR8/Template/Template_Endpoint_RW.c **** 		}
 783               		.loc 3 74 19 view .LVU195
 784 00a6 00C0      		rjmp .L40
 785               		.cfi_endproc
 786               	.LFE88:
 788               		.section	.text.Endpoint_Read_Stream_LE,"ax",@progbits
 789               	.global	Endpoint_Read_Stream_LE
 791               	Endpoint_Read_Stream_LE:
 792               	.LVL69:
 793               	.LFB89:
  36:./tmk_core/protocol/lufa/LUFA-git/LUFA/Drivers/USB/Core/AVR8/Template/Template_Endpoint_RW.c **** 	uint8_t* DataStream      = ((uint8_t*)Buffer + TEMPLATE_BUFFER_OFFSET(Length));
 794               		.loc 3 36 1 is_stmt 1 view -0
 795               		.cfi_startproc
  36:./tmk_core/protocol/lufa/LUFA-git/LUFA/Drivers/USB/Core/AVR8/Template/Template_Endpoint_RW.c **** 	uint8_t* DataStream      = ((uint8_t*)Buffer + TEMPLATE_BUFFER_OFFSET(Length));
 796               		.loc 3 36 1 is_stmt 0 view .LVU197
 797 0000 AF92      		push r10
 798               	.LCFI32:
 799               		.cfi_def_cfa_offset 3
 800               		.cfi_offset 10, -2
 801 0002 BF92      		push r11
 802               	.LCFI33:
 803               		.cfi_def_cfa_offset 4
 804               		.cfi_offset 11, -3
 805 0004 CF92      		push r12
 806               	.LCFI34:
 807               		.cfi_def_cfa_offset 5
 808               		.cfi_offset 12, -4
 809 0006 DF92      		push r13
 810               	.LCFI35:
 811               		.cfi_def_cfa_offset 6
 812               		.cfi_offset 13, -5
 813 0008 FF92      		push r15
 814               	.LCFI36:
 815               		.cfi_def_cfa_offset 7
 816               		.cfi_offset 15, -6
 817 000a 0F93      		push r16
 818               	.LCFI37:
 819               		.cfi_def_cfa_offset 8
 820               		.cfi_offset 16, -7
 821 000c 1F93      		push r17
 822               	.LCFI38:
 823               		.cfi_def_cfa_offset 9
 824               		.cfi_offset 17, -8
 825 000e CF93      		push r28
 826               	.LCFI39:
 827               		.cfi_def_cfa_offset 10
 828               		.cfi_offset 28, -9
 829 0010 DF93      		push r29
 830               	.LCFI40:
 831               		.cfi_def_cfa_offset 11
 832               		.cfi_offset 29, -10
 833               	/* prologue: function */
 834               	/* frame size = 0 */
 835               	/* stack size = 9 */
 836               	.L__stack_usage = 9
 837 0012 6C01      		movw r12,r24
 838 0014 EB01      		movw r28,r22
 839 0016 8A01      		movw r16,r20
  37:./tmk_core/protocol/lufa/LUFA-git/LUFA/Drivers/USB/Core/AVR8/Template/Template_Endpoint_RW.c **** 	uint16_t BytesInTransfer = 0;
 840               		.loc 3 37 2 is_stmt 1 view .LVU198
 841               	.LVL70:
  38:./tmk_core/protocol/lufa/LUFA-git/LUFA/Drivers/USB/Core/AVR8/Template/Template_Endpoint_RW.c **** 	uint8_t  ErrorCode;
 842               		.loc 3 38 2 view .LVU199
  39:./tmk_core/protocol/lufa/LUFA-git/LUFA/Drivers/USB/Core/AVR8/Template/Template_Endpoint_RW.c **** 
 843               		.loc 3 39 2 view .LVU200
  41:./tmk_core/protocol/lufa/LUFA-git/LUFA/Drivers/USB/Core/AVR8/Template/Template_Endpoint_RW.c **** 	  return ErrorCode;
 844               		.loc 3 41 2 view .LVU201
  41:./tmk_core/protocol/lufa/LUFA-git/LUFA/Drivers/USB/Core/AVR8/Template/Template_Endpoint_RW.c **** 	  return ErrorCode;
 845               		.loc 3 41 19 is_stmt 0 view .LVU202
 846 0018 0E94 0000 		call Endpoint_WaitUntilReady
 847               	.LVL71:
  41:./tmk_core/protocol/lufa/LUFA-git/LUFA/Drivers/USB/Core/AVR8/Template/Template_Endpoint_RW.c **** 	  return ErrorCode;
 848               		.loc 3 41 19 view .LVU203
 849 001c F82E      		mov r15,r24
 850               	.LVL72:
  41:./tmk_core/protocol/lufa/LUFA-git/LUFA/Drivers/USB/Core/AVR8/Template/Template_Endpoint_RW.c **** 	  return ErrorCode;
 851               		.loc 3 41 5 view .LVU204
 852 001e 8111      		cpse r24,__zero_reg__
 853 0020 00C0      		rjmp .L49
  44:./tmk_core/protocol/lufa/LUFA-git/LUFA/Drivers/USB/Core/AVR8/Template/Template_Endpoint_RW.c **** 	{
 854               		.loc 3 44 2 is_stmt 1 view .LVU205
  44:./tmk_core/protocol/lufa/LUFA-git/LUFA/Drivers/USB/Core/AVR8/Template/Template_Endpoint_RW.c **** 	{
 855               		.loc 3 44 5 is_stmt 0 view .LVU206
 856 0022 0115      		cp r16,__zero_reg__
 857 0024 1105      		cpc r17,__zero_reg__
 858 0026 01F0      		breq .L51
  46:./tmk_core/protocol/lufa/LUFA-git/LUFA/Drivers/USB/Core/AVR8/Template/Template_Endpoint_RW.c **** 		TEMPLATE_BUFFER_MOVE(DataStream, *BytesProcessed);
 859               		.loc 3 46 3 is_stmt 1 view .LVU207
  46:./tmk_core/protocol/lufa/LUFA-git/LUFA/Drivers/USB/Core/AVR8/Template/Template_Endpoint_RW.c **** 		TEMPLATE_BUFFER_MOVE(DataStream, *BytesProcessed);
 860               		.loc 3 46 13 is_stmt 0 view .LVU208
 861 0028 F801      		movw r30,r16
 862 002a 8081      		ld r24,Z
 863 002c 9181      		ldd r25,Z+1
  46:./tmk_core/protocol/lufa/LUFA-git/LUFA/Drivers/USB/Core/AVR8/Template/Template_Endpoint_RW.c **** 		TEMPLATE_BUFFER_MOVE(DataStream, *BytesProcessed);
 864               		.loc 3 46 10 view .LVU209
 865 002e C81B      		sub r28,r24
 866 0030 D90B      		sbc r29,r25
 867               	.LVL73:
  47:./tmk_core/protocol/lufa/LUFA-git/LUFA/Drivers/USB/Core/AVR8/Template/Template_Endpoint_RW.c **** 	}
 868               		.loc 3 47 3 is_stmt 1 view .LVU210
 869 0032 C80E      		add r12,r24
 870 0034 D91E      		adc r13,r25
 871               	.LVL74:
 872               	.L51:
  36:./tmk_core/protocol/lufa/LUFA-git/LUFA/Drivers/USB/Core/AVR8/Template/Template_Endpoint_RW.c **** 	uint8_t* DataStream      = ((uint8_t*)Buffer + TEMPLATE_BUFFER_OFFSET(Length));
 873               		.loc 3 36 1 is_stmt 0 view .LVU211
 874 0036 B12C      		mov r11,__zero_reg__
 875 0038 A12C      		mov r10,__zero_reg__
 876               	.LVL75:
 877               	.L52:
  50:./tmk_core/protocol/lufa/LUFA-git/LUFA/Drivers/USB/Core/AVR8/Template/Template_Endpoint_RW.c **** 	{
 878               		.loc 3 50 8 is_stmt 1 view .LVU212
 879 003a 2097      		sbiw r28,0
 880 003c 01F0      		breq .L49
  52:./tmk_core/protocol/lufa/LUFA-git/LUFA/Drivers/USB/Core/AVR8/Template/Template_Endpoint_RW.c **** 		{
 881               		.loc 3 52 3 view .LVU213
 882               	.LBB292:
 883               	.LBI292:
 358:./tmk_core/protocol/lufa/LUFA-git/LUFA/Drivers/USB/Core/AVR8/../AVR8/../AVR8/Endpoint_AVR8.h **** 			{
 884               		.loc 2 358 23 view .LVU214
 885               	.LBB293:
 360:./tmk_core/protocol/lufa/LUFA-git/LUFA/Drivers/USB/Core/AVR8/../AVR8/../AVR8/Endpoint_AVR8.h **** 			}
 886               		.loc 2 360 5 view .LVU215
 360:./tmk_core/protocol/lufa/LUFA-git/LUFA/Drivers/USB/Core/AVR8/../AVR8/../AVR8/Endpoint_AVR8.h **** 			}
 887               		.loc 2 360 14 is_stmt 0 view .LVU216
 888 003e 8091 E800 		lds r24,232
 889               	.LBE293:
 890               	.LBE292:
  52:./tmk_core/protocol/lufa/LUFA-git/LUFA/Drivers/USB/Core/AVR8/Template/Template_Endpoint_RW.c **** 		{
 891               		.loc 3 52 6 view .LVU217
 892 0042 85FD      		sbrc r24,5
 893 0044 00C0      		rjmp .L53
  54:./tmk_core/protocol/lufa/LUFA-git/LUFA/Drivers/USB/Core/AVR8/Template/Template_Endpoint_RW.c **** 
 894               		.loc 3 54 4 is_stmt 1 view .LVU218
 895               	.LBB294:
 896               	.LBI294:
 468:./tmk_core/protocol/lufa/LUFA-git/LUFA/Drivers/USB/Core/AVR8/../AVR8/../AVR8/Endpoint_AVR8.h **** 			{
 897               		.loc 2 468 23 view .LVU219
 898               	.LBB295:
 471:./tmk_core/protocol/lufa/LUFA-git/LUFA/Drivers/USB/Core/AVR8/../AVR8/../AVR8/Endpoint_AVR8.h **** 				#else
 899               		.loc 2 471 6 view .LVU220
 471:./tmk_core/protocol/lufa/LUFA-git/LUFA/Drivers/USB/Core/AVR8/../AVR8/../AVR8/Endpoint_AVR8.h **** 				#else
 900               		.loc 2 471 13 is_stmt 0 view .LVU221
 901 0046 8091 E800 		lds r24,232
 902 004a 8B77      		andi r24,lo8(123)
 903 004c 8093 E800 		sts 232,r24
 904               	.LBE295:
 905               	.LBE294:
  60:./tmk_core/protocol/lufa/LUFA-git/LUFA/Drivers/USB/Core/AVR8/Template/Template_Endpoint_RW.c **** 			{
 906               		.loc 3 60 4 is_stmt 1 view .LVU222
  60:./tmk_core/protocol/lufa/LUFA-git/LUFA/Drivers/USB/Core/AVR8/Template/Template_Endpoint_RW.c **** 			{
 907               		.loc 3 60 7 is_stmt 0 view .LVU223
 908 0050 0115      		cp r16,__zero_reg__
 909 0052 1105      		cpc r17,__zero_reg__
 910 0054 01F0      		breq .L54
  62:./tmk_core/protocol/lufa/LUFA-git/LUFA/Drivers/USB/Core/AVR8/Template/Template_Endpoint_RW.c **** 				return ENDPOINT_RWSTREAM_IncompleteTransfer;
 911               		.loc 3 62 5 is_stmt 1 view .LVU224
  62:./tmk_core/protocol/lufa/LUFA-git/LUFA/Drivers/USB/Core/AVR8/Template/Template_Endpoint_RW.c **** 				return ENDPOINT_RWSTREAM_IncompleteTransfer;
 912               		.loc 3 62 21 is_stmt 0 view .LVU225
 913 0056 F801      		movw r30,r16
 914 0058 8081      		ld r24,Z
 915 005a 9181      		ldd r25,Z+1
 916 005c A80E      		add r10,r24
 917 005e B91E      		adc r11,r25
 918               	.LVL76:
  62:./tmk_core/protocol/lufa/LUFA-git/LUFA/Drivers/USB/Core/AVR8/Template/Template_Endpoint_RW.c **** 				return ENDPOINT_RWSTREAM_IncompleteTransfer;
 919               		.loc 3 62 21 view .LVU226
 920 0060 B182      		std Z+1,r11
 921 0062 A082      		st Z,r10
  63:./tmk_core/protocol/lufa/LUFA-git/LUFA/Drivers/USB/Core/AVR8/Template/Template_Endpoint_RW.c **** 			}
 922               		.loc 3 63 5 is_stmt 1 view .LVU227
  63:./tmk_core/protocol/lufa/LUFA-git/LUFA/Drivers/USB/Core/AVR8/Template/Template_Endpoint_RW.c **** 			}
 923               		.loc 3 63 12 is_stmt 0 view .LVU228
 924 0064 85E0      		ldi r24,lo8(5)
 925 0066 F82E      		mov r15,r24
 926               	.L49:
 927               		.loc 3 79 1 view .LVU229
 928 0068 8F2D      		mov r24,r15
 929               	/* epilogue start */
 930 006a DF91      		pop r29
 931 006c CF91      		pop r28
 932               	.LVL77:
 933               		.loc 3 79 1 view .LVU230
 934 006e 1F91      		pop r17
 935 0070 0F91      		pop r16
 936               	.LVL78:
 937               		.loc 3 79 1 view .LVU231
 938 0072 FF90      		pop r15
 939 0074 DF90      		pop r13
 940 0076 CF90      		pop r12
 941               	.LVL79:
 942               		.loc 3 79 1 view .LVU232
 943 0078 BF90      		pop r11
 944 007a AF90      		pop r10
 945 007c 0895      		ret
 946               	.LVL80:
 947               	.L54:
  66:./tmk_core/protocol/lufa/LUFA-git/LUFA/Drivers/USB/Core/AVR8/Template/Template_Endpoint_RW.c **** 			  return ErrorCode;
 948               		.loc 3 66 4 is_stmt 1 view .LVU233
  66:./tmk_core/protocol/lufa/LUFA-git/LUFA/Drivers/USB/Core/AVR8/Template/Template_Endpoint_RW.c **** 			  return ErrorCode;
 949               		.loc 3 66 21 is_stmt 0 view .LVU234
 950 007e 0E94 0000 		call Endpoint_WaitUntilReady
 951               	.LVL81:
  66:./tmk_core/protocol/lufa/LUFA-git/LUFA/Drivers/USB/Core/AVR8/Template/Template_Endpoint_RW.c **** 			  return ErrorCode;
 952               		.loc 3 66 7 view .LVU235
 953 0082 8823      		tst r24
 954 0084 01F0      		breq .L52
 955 0086 F82E      		mov r15,r24
 956 0088 00C0      		rjmp .L49
 957               	.LVL82:
 958               	.L53:
  71:./tmk_core/protocol/lufa/LUFA-git/LUFA/Drivers/USB/Core/AVR8/Template/Template_Endpoint_RW.c **** 			TEMPLATE_BUFFER_MOVE(DataStream, 1);
 959               		.loc 3 71 4 is_stmt 1 view .LVU236
 960               	.LBB296:
 961               	.LBI296:
 540:./tmk_core/protocol/lufa/LUFA-git/LUFA/Drivers/USB/Core/AVR8/../AVR8/../AVR8/Endpoint_AVR8.h **** 			{
 962               		.loc 2 540 26 view .LVU237
 963               	.LBB297:
 542:./tmk_core/protocol/lufa/LUFA-git/LUFA/Drivers/USB/Core/AVR8/../AVR8/../AVR8/Endpoint_AVR8.h **** 			}
 964               		.loc 2 542 5 view .LVU238
 542:./tmk_core/protocol/lufa/LUFA-git/LUFA/Drivers/USB/Core/AVR8/../AVR8/../AVR8/Endpoint_AVR8.h **** 			}
 965               		.loc 2 542 12 is_stmt 0 view .LVU239
 966 008a 8091 F100 		lds r24,241
 967               	.LBE297:
 968               	.LBE296:
  71:./tmk_core/protocol/lufa/LUFA-git/LUFA/Drivers/USB/Core/AVR8/Template/Template_Endpoint_RW.c **** 			TEMPLATE_BUFFER_MOVE(DataStream, 1);
 969               		.loc 3 71 4 view .LVU240
 970 008e F601      		movw r30,r12
 971 0090 8193      		st Z+,r24
 972 0092 6F01      		movw r12,r30
 973               	.LVL83:
  72:./tmk_core/protocol/lufa/LUFA-git/LUFA/Drivers/USB/Core/AVR8/Template/Template_Endpoint_RW.c **** 			Length--;
 974               		.loc 3 72 4 is_stmt 1 view .LVU241
  73:./tmk_core/protocol/lufa/LUFA-git/LUFA/Drivers/USB/Core/AVR8/Template/Template_Endpoint_RW.c **** 			BytesInTransfer++;
 975               		.loc 3 73 4 view .LVU242
  73:./tmk_core/protocol/lufa/LUFA-git/LUFA/Drivers/USB/Core/AVR8/Template/Template_Endpoint_RW.c **** 			BytesInTransfer++;
 976               		.loc 3 73 10 is_stmt 0 view .LVU243
 977 0094 2197      		sbiw r28,1
 978               	.LVL84:
  74:./tmk_core/protocol/lufa/LUFA-git/LUFA/Drivers/USB/Core/AVR8/Template/Template_Endpoint_RW.c **** 		}
 979               		.loc 3 74 4 is_stmt 1 view .LVU244
  74:./tmk_core/protocol/lufa/LUFA-git/LUFA/Drivers/USB/Core/AVR8/Template/Template_Endpoint_RW.c **** 		}
 980               		.loc 3 74 19 is_stmt 0 view .LVU245
 981 0096 FFEF      		ldi r31,-1
 982 0098 AF1A      		sub r10,r31
 983 009a BF0A      		sbc r11,r31
 984               	.LVL85:
  74:./tmk_core/protocol/lufa/LUFA-git/LUFA/Drivers/USB/Core/AVR8/Template/Template_Endpoint_RW.c **** 		}
 985               		.loc 3 74 19 view .LVU246
 986 009c 00C0      		rjmp .L52
 987               		.cfi_endproc
 988               	.LFE89:
 990               		.section	.text.Endpoint_Read_Stream_BE,"ax",@progbits
 991               	.global	Endpoint_Read_Stream_BE
 993               	Endpoint_Read_Stream_BE:
 994               	.LVL86:
 995               	.LFB90:
  36:./tmk_core/protocol/lufa/LUFA-git/LUFA/Drivers/USB/Core/AVR8/Template/Template_Endpoint_RW.c **** 	uint8_t* DataStream      = ((uint8_t*)Buffer + TEMPLATE_BUFFER_OFFSET(Length));
 996               		.loc 3 36 1 is_stmt 1 view -0
 997               		.cfi_startproc
  36:./tmk_core/protocol/lufa/LUFA-git/LUFA/Drivers/USB/Core/AVR8/Template/Template_Endpoint_RW.c **** 	uint8_t* DataStream      = ((uint8_t*)Buffer + TEMPLATE_BUFFER_OFFSET(Length));
 998               		.loc 3 36 1 is_stmt 0 view .LVU248
 999 0000 AF92      		push r10
 1000               	.LCFI41:
 1001               		.cfi_def_cfa_offset 3
 1002               		.cfi_offset 10, -2
 1003 0002 BF92      		push r11
 1004               	.LCFI42:
 1005               		.cfi_def_cfa_offset 4
 1006               		.cfi_offset 11, -3
 1007 0004 DF92      		push r13
 1008               	.LCFI43:
 1009               		.cfi_def_cfa_offset 5
 1010               		.cfi_offset 13, -4
 1011 0006 EF92      		push r14
 1012               	.LCFI44:
 1013               		.cfi_def_cfa_offset 6
 1014               		.cfi_offset 14, -5
 1015 0008 FF92      		push r15
 1016               	.LCFI45:
 1017               		.cfi_def_cfa_offset 7
 1018               		.cfi_offset 15, -6
 1019 000a 0F93      		push r16
 1020               	.LCFI46:
 1021               		.cfi_def_cfa_offset 8
 1022               		.cfi_offset 16, -7
 1023 000c 1F93      		push r17
 1024               	.LCFI47:
 1025               		.cfi_def_cfa_offset 9
 1026               		.cfi_offset 17, -8
 1027 000e CF93      		push r28
 1028               	.LCFI48:
 1029               		.cfi_def_cfa_offset 10
 1030               		.cfi_offset 28, -9
 1031 0010 DF93      		push r29
 1032               	.LCFI49:
 1033               		.cfi_def_cfa_offset 11
 1034               		.cfi_offset 29, -10
 1035               	/* prologue: function */
 1036               	/* frame size = 0 */
 1037               	/* stack size = 9 */
 1038               	.L__stack_usage = 9
 1039 0012 EC01      		movw r28,r24
 1040 0014 8B01      		movw r16,r22
 1041 0016 7A01      		movw r14,r20
  37:./tmk_core/protocol/lufa/LUFA-git/LUFA/Drivers/USB/Core/AVR8/Template/Template_Endpoint_RW.c **** 	uint16_t BytesInTransfer = 0;
 1042               		.loc 3 37 2 is_stmt 1 view .LVU249
 1043               	.LVL87:
  38:./tmk_core/protocol/lufa/LUFA-git/LUFA/Drivers/USB/Core/AVR8/Template/Template_Endpoint_RW.c **** 	uint8_t  ErrorCode;
 1044               		.loc 3 38 2 view .LVU250
  39:./tmk_core/protocol/lufa/LUFA-git/LUFA/Drivers/USB/Core/AVR8/Template/Template_Endpoint_RW.c **** 
 1045               		.loc 3 39 2 view .LVU251
  41:./tmk_core/protocol/lufa/LUFA-git/LUFA/Drivers/USB/Core/AVR8/Template/Template_Endpoint_RW.c **** 	  return ErrorCode;
 1046               		.loc 3 41 2 view .LVU252
  41:./tmk_core/protocol/lufa/LUFA-git/LUFA/Drivers/USB/Core/AVR8/Template/Template_Endpoint_RW.c **** 	  return ErrorCode;
 1047               		.loc 3 41 19 is_stmt 0 view .LVU253
 1048 0018 0E94 0000 		call Endpoint_WaitUntilReady
 1049               	.LVL88:
  41:./tmk_core/protocol/lufa/LUFA-git/LUFA/Drivers/USB/Core/AVR8/Template/Template_Endpoint_RW.c **** 	  return ErrorCode;
 1050               		.loc 3 41 19 view .LVU254
 1051 001c D82E      		mov r13,r24
 1052               	.LVL89:
  41:./tmk_core/protocol/lufa/LUFA-git/LUFA/Drivers/USB/Core/AVR8/Template/Template_Endpoint_RW.c **** 	  return ErrorCode;
 1053               		.loc 3 41 5 view .LVU255
 1054 001e 8111      		cpse r24,__zero_reg__
 1055 0020 00C0      		rjmp .L61
  37:./tmk_core/protocol/lufa/LUFA-git/LUFA/Drivers/USB/Core/AVR8/Template/Template_Endpoint_RW.c **** 	uint16_t BytesInTransfer = 0;
 1056               		.loc 3 37 47 view .LVU256
 1057 0022 C801      		movw r24,r16
 1058 0024 0197      		sbiw r24,1
 1059               	.LVL90:
  37:./tmk_core/protocol/lufa/LUFA-git/LUFA/Drivers/USB/Core/AVR8/Template/Template_Endpoint_RW.c **** 	uint16_t BytesInTransfer = 0;
 1060               		.loc 3 37 11 view .LVU257
 1061 0026 C80F      		add r28,r24
 1062 0028 D91F      		adc r29,r25
 1063               	.LVL91:
  44:./tmk_core/protocol/lufa/LUFA-git/LUFA/Drivers/USB/Core/AVR8/Template/Template_Endpoint_RW.c **** 	{
 1064               		.loc 3 44 2 is_stmt 1 view .LVU258
  44:./tmk_core/protocol/lufa/LUFA-git/LUFA/Drivers/USB/Core/AVR8/Template/Template_Endpoint_RW.c **** 	{
 1065               		.loc 3 44 5 is_stmt 0 view .LVU259
 1066 002a E114      		cp r14,__zero_reg__
 1067 002c F104      		cpc r15,__zero_reg__
 1068 002e 01F0      		breq .L63
  46:./tmk_core/protocol/lufa/LUFA-git/LUFA/Drivers/USB/Core/AVR8/Template/Template_Endpoint_RW.c **** 		TEMPLATE_BUFFER_MOVE(DataStream, *BytesProcessed);
 1069               		.loc 3 46 3 is_stmt 1 view .LVU260
  46:./tmk_core/protocol/lufa/LUFA-git/LUFA/Drivers/USB/Core/AVR8/Template/Template_Endpoint_RW.c **** 		TEMPLATE_BUFFER_MOVE(DataStream, *BytesProcessed);
 1070               		.loc 3 46 13 is_stmt 0 view .LVU261
 1071 0030 F701      		movw r30,r14
 1072 0032 8081      		ld r24,Z
 1073 0034 9181      		ldd r25,Z+1
 1074               	.LVL92:
  46:./tmk_core/protocol/lufa/LUFA-git/LUFA/Drivers/USB/Core/AVR8/Template/Template_Endpoint_RW.c **** 		TEMPLATE_BUFFER_MOVE(DataStream, *BytesProcessed);
 1075               		.loc 3 46 10 view .LVU262
 1076 0036 081B      		sub r16,r24
 1077 0038 190B      		sbc r17,r25
 1078               	.LVL93:
  47:./tmk_core/protocol/lufa/LUFA-git/LUFA/Drivers/USB/Core/AVR8/Template/Template_Endpoint_RW.c **** 	}
 1079               		.loc 3 47 3 is_stmt 1 view .LVU263
 1080 003a C81B      		sub r28,r24
 1081 003c D90B      		sbc r29,r25
 1082               	.LVL94:
 1083               	.L63:
  36:./tmk_core/protocol/lufa/LUFA-git/LUFA/Drivers/USB/Core/AVR8/Template/Template_Endpoint_RW.c **** 	uint8_t* DataStream      = ((uint8_t*)Buffer + TEMPLATE_BUFFER_OFFSET(Length));
 1084               		.loc 3 36 1 is_stmt 0 view .LVU264
 1085 003e B12C      		mov r11,__zero_reg__
 1086 0040 A12C      		mov r10,__zero_reg__
 1087               	.LVL95:
 1088               	.L64:
  50:./tmk_core/protocol/lufa/LUFA-git/LUFA/Drivers/USB/Core/AVR8/Template/Template_Endpoint_RW.c **** 	{
 1089               		.loc 3 50 8 is_stmt 1 view .LVU265
 1090 0042 0115      		cp r16,__zero_reg__
 1091 0044 1105      		cpc r17,__zero_reg__
 1092 0046 01F0      		breq .L61
  52:./tmk_core/protocol/lufa/LUFA-git/LUFA/Drivers/USB/Core/AVR8/Template/Template_Endpoint_RW.c **** 		{
 1093               		.loc 3 52 3 view .LVU266
 1094               	.LBB298:
 1095               	.LBI298:
 358:./tmk_core/protocol/lufa/LUFA-git/LUFA/Drivers/USB/Core/AVR8/../AVR8/../AVR8/Endpoint_AVR8.h **** 			{
 1096               		.loc 2 358 23 view .LVU267
 1097               	.LBB299:
 360:./tmk_core/protocol/lufa/LUFA-git/LUFA/Drivers/USB/Core/AVR8/../AVR8/../AVR8/Endpoint_AVR8.h **** 			}
 1098               		.loc 2 360 5 view .LVU268
 360:./tmk_core/protocol/lufa/LUFA-git/LUFA/Drivers/USB/Core/AVR8/../AVR8/../AVR8/Endpoint_AVR8.h **** 			}
 1099               		.loc 2 360 14 is_stmt 0 view .LVU269
 1100 0048 8091 E800 		lds r24,232
 1101               	.LBE299:
 1102               	.LBE298:
  52:./tmk_core/protocol/lufa/LUFA-git/LUFA/Drivers/USB/Core/AVR8/Template/Template_Endpoint_RW.c **** 		{
 1103               		.loc 3 52 6 view .LVU270
 1104 004c 85FD      		sbrc r24,5
 1105 004e 00C0      		rjmp .L65
  54:./tmk_core/protocol/lufa/LUFA-git/LUFA/Drivers/USB/Core/AVR8/Template/Template_Endpoint_RW.c **** 
 1106               		.loc 3 54 4 is_stmt 1 view .LVU271
 1107               	.LBB300:
 1108               	.LBI300:
 468:./tmk_core/protocol/lufa/LUFA-git/LUFA/Drivers/USB/Core/AVR8/../AVR8/../AVR8/Endpoint_AVR8.h **** 			{
 1109               		.loc 2 468 23 view .LVU272
 1110               	.LBB301:
 471:./tmk_core/protocol/lufa/LUFA-git/LUFA/Drivers/USB/Core/AVR8/../AVR8/../AVR8/Endpoint_AVR8.h **** 				#else
 1111               		.loc 2 471 6 view .LVU273
 471:./tmk_core/protocol/lufa/LUFA-git/LUFA/Drivers/USB/Core/AVR8/../AVR8/../AVR8/Endpoint_AVR8.h **** 				#else
 1112               		.loc 2 471 13 is_stmt 0 view .LVU274
 1113 0050 8091 E800 		lds r24,232
 1114 0054 8B77      		andi r24,lo8(123)
 1115 0056 8093 E800 		sts 232,r24
 1116               	.LBE301:
 1117               	.LBE300:
  60:./tmk_core/protocol/lufa/LUFA-git/LUFA/Drivers/USB/Core/AVR8/Template/Template_Endpoint_RW.c **** 			{
 1118               		.loc 3 60 4 is_stmt 1 view .LVU275
  60:./tmk_core/protocol/lufa/LUFA-git/LUFA/Drivers/USB/Core/AVR8/Template/Template_Endpoint_RW.c **** 			{
 1119               		.loc 3 60 7 is_stmt 0 view .LVU276
 1120 005a E114      		cp r14,__zero_reg__
 1121 005c F104      		cpc r15,__zero_reg__
 1122 005e 01F0      		breq .L66
  62:./tmk_core/protocol/lufa/LUFA-git/LUFA/Drivers/USB/Core/AVR8/Template/Template_Endpoint_RW.c **** 				return ENDPOINT_RWSTREAM_IncompleteTransfer;
 1123               		.loc 3 62 5 is_stmt 1 view .LVU277
  62:./tmk_core/protocol/lufa/LUFA-git/LUFA/Drivers/USB/Core/AVR8/Template/Template_Endpoint_RW.c **** 				return ENDPOINT_RWSTREAM_IncompleteTransfer;
 1124               		.loc 3 62 21 is_stmt 0 view .LVU278
 1125 0060 F701      		movw r30,r14
 1126 0062 8081      		ld r24,Z
 1127 0064 9181      		ldd r25,Z+1
 1128 0066 A80E      		add r10,r24
 1129 0068 B91E      		adc r11,r25
 1130               	.LVL96:
  62:./tmk_core/protocol/lufa/LUFA-git/LUFA/Drivers/USB/Core/AVR8/Template/Template_Endpoint_RW.c **** 				return ENDPOINT_RWSTREAM_IncompleteTransfer;
 1131               		.loc 3 62 21 view .LVU279
 1132 006a B182      		std Z+1,r11
 1133 006c A082      		st Z,r10
  63:./tmk_core/protocol/lufa/LUFA-git/LUFA/Drivers/USB/Core/AVR8/Template/Template_Endpoint_RW.c **** 			}
 1134               		.loc 3 63 5 is_stmt 1 view .LVU280
  63:./tmk_core/protocol/lufa/LUFA-git/LUFA/Drivers/USB/Core/AVR8/Template/Template_Endpoint_RW.c **** 			}
 1135               		.loc 3 63 12 is_stmt 0 view .LVU281
 1136 006e 85E0      		ldi r24,lo8(5)
 1137 0070 D82E      		mov r13,r24
 1138               	.LVL97:
 1139               	.L61:
 1140               		.loc 3 79 1 view .LVU282
 1141 0072 8D2D      		mov r24,r13
 1142               	/* epilogue start */
 1143 0074 DF91      		pop r29
 1144 0076 CF91      		pop r28
 1145 0078 1F91      		pop r17
 1146 007a 0F91      		pop r16
 1147               	.LVL98:
 1148               		.loc 3 79 1 view .LVU283
 1149 007c FF90      		pop r15
 1150 007e EF90      		pop r14
 1151               	.LVL99:
 1152               		.loc 3 79 1 view .LVU284
 1153 0080 DF90      		pop r13
 1154 0082 BF90      		pop r11
 1155 0084 AF90      		pop r10
 1156 0086 0895      		ret
 1157               	.LVL100:
 1158               	.L66:
  66:./tmk_core/protocol/lufa/LUFA-git/LUFA/Drivers/USB/Core/AVR8/Template/Template_Endpoint_RW.c **** 			  return ErrorCode;
 1159               		.loc 3 66 4 is_stmt 1 view .LVU285
  66:./tmk_core/protocol/lufa/LUFA-git/LUFA/Drivers/USB/Core/AVR8/Template/Template_Endpoint_RW.c **** 			  return ErrorCode;
 1160               		.loc 3 66 21 is_stmt 0 view .LVU286
 1161 0088 0E94 0000 		call Endpoint_WaitUntilReady
 1162               	.LVL101:
  66:./tmk_core/protocol/lufa/LUFA-git/LUFA/Drivers/USB/Core/AVR8/Template/Template_Endpoint_RW.c **** 			  return ErrorCode;
 1163               		.loc 3 66 7 view .LVU287
 1164 008c 8823      		tst r24
 1165 008e 01F0      		breq .L64
 1166 0090 D82E      		mov r13,r24
 1167 0092 00C0      		rjmp .L61
 1168               	.LVL102:
 1169               	.L65:
  71:./tmk_core/protocol/lufa/LUFA-git/LUFA/Drivers/USB/Core/AVR8/Template/Template_Endpoint_RW.c **** 			TEMPLATE_BUFFER_MOVE(DataStream, 1);
 1170               		.loc 3 71 4 is_stmt 1 view .LVU288
 1171               	.LBB302:
 1172               	.LBI302:
 540:./tmk_core/protocol/lufa/LUFA-git/LUFA/Drivers/USB/Core/AVR8/../AVR8/../AVR8/Endpoint_AVR8.h **** 			{
 1173               		.loc 2 540 26 view .LVU289
 1174               	.LBB303:
 542:./tmk_core/protocol/lufa/LUFA-git/LUFA/Drivers/USB/Core/AVR8/../AVR8/../AVR8/Endpoint_AVR8.h **** 			}
 1175               		.loc 2 542 5 view .LVU290
 542:./tmk_core/protocol/lufa/LUFA-git/LUFA/Drivers/USB/Core/AVR8/../AVR8/../AVR8/Endpoint_AVR8.h **** 			}
 1176               		.loc 2 542 12 is_stmt 0 view .LVU291
 1177 0094 8091 F100 		lds r24,241
 1178               	.LBE303:
 1179               	.LBE302:
  71:./tmk_core/protocol/lufa/LUFA-git/LUFA/Drivers/USB/Core/AVR8/Template/Template_Endpoint_RW.c **** 			TEMPLATE_BUFFER_MOVE(DataStream, 1);
 1180               		.loc 3 71 4 view .LVU292
 1181 0098 8883      		st Y,r24
  72:./tmk_core/protocol/lufa/LUFA-git/LUFA/Drivers/USB/Core/AVR8/Template/Template_Endpoint_RW.c **** 			Length--;
 1182               		.loc 3 72 4 is_stmt 1 view .LVU293
 1183 009a 2197      		sbiw r28,1
 1184               	.LVL103:
  73:./tmk_core/protocol/lufa/LUFA-git/LUFA/Drivers/USB/Core/AVR8/Template/Template_Endpoint_RW.c **** 			BytesInTransfer++;
 1185               		.loc 3 73 4 view .LVU294
  73:./tmk_core/protocol/lufa/LUFA-git/LUFA/Drivers/USB/Core/AVR8/Template/Template_Endpoint_RW.c **** 			BytesInTransfer++;
 1186               		.loc 3 73 10 is_stmt 0 view .LVU295
 1187 009c 0150      		subi r16,1
 1188 009e 1109      		sbc r17,__zero_reg__
 1189               	.LVL104:
  74:./tmk_core/protocol/lufa/LUFA-git/LUFA/Drivers/USB/Core/AVR8/Template/Template_Endpoint_RW.c **** 		}
 1190               		.loc 3 74 4 is_stmt 1 view .LVU296
  74:./tmk_core/protocol/lufa/LUFA-git/LUFA/Drivers/USB/Core/AVR8/Template/Template_Endpoint_RW.c **** 		}
 1191               		.loc 3 74 19 is_stmt 0 view .LVU297
 1192 00a0 FFEF      		ldi r31,-1
 1193 00a2 AF1A      		sub r10,r31
 1194 00a4 BF0A      		sbc r11,r31
 1195               	.LVL105:
  74:./tmk_core/protocol/lufa/LUFA-git/LUFA/Drivers/USB/Core/AVR8/Template/Template_Endpoint_RW.c **** 		}
 1196               		.loc 3 74 19 view .LVU298
 1197 00a6 00C0      		rjmp .L64
 1198               		.cfi_endproc
 1199               	.LFE90:
 1201               		.section	.text.Endpoint_Write_PStream_LE,"ax",@progbits
 1202               	.global	Endpoint_Write_PStream_LE
 1204               	Endpoint_Write_PStream_LE:
 1205               	.LVL106:
 1206               	.LFB91:
  36:./tmk_core/protocol/lufa/LUFA-git/LUFA/Drivers/USB/Core/AVR8/Template/Template_Endpoint_RW.c **** 	uint8_t* DataStream      = ((uint8_t*)Buffer + TEMPLATE_BUFFER_OFFSET(Length));
 1207               		.loc 3 36 1 is_stmt 1 view -0
 1208               		.cfi_startproc
  36:./tmk_core/protocol/lufa/LUFA-git/LUFA/Drivers/USB/Core/AVR8/Template/Template_Endpoint_RW.c **** 	uint8_t* DataStream      = ((uint8_t*)Buffer + TEMPLATE_BUFFER_OFFSET(Length));
 1209               		.loc 3 36 1 is_stmt 0 view .LVU300
 1210 0000 AF92      		push r10
 1211               	.LCFI50:
 1212               		.cfi_def_cfa_offset 3
 1213               		.cfi_offset 10, -2
 1214 0002 BF92      		push r11
 1215               	.LCFI51:
 1216               		.cfi_def_cfa_offset 4
 1217               		.cfi_offset 11, -3
 1218 0004 DF92      		push r13
 1219               	.LCFI52:
 1220               		.cfi_def_cfa_offset 5
 1221               		.cfi_offset 13, -4
 1222 0006 EF92      		push r14
 1223               	.LCFI53:
 1224               		.cfi_def_cfa_offset 6
 1225               		.cfi_offset 14, -5
 1226 0008 FF92      		push r15
 1227               	.LCFI54:
 1228               		.cfi_def_cfa_offset 7
 1229               		.cfi_offset 15, -6
 1230 000a 0F93      		push r16
 1231               	.LCFI55:
 1232               		.cfi_def_cfa_offset 8
 1233               		.cfi_offset 16, -7
 1234 000c 1F93      		push r17
 1235               	.LCFI56:
 1236               		.cfi_def_cfa_offset 9
 1237               		.cfi_offset 17, -8
 1238 000e CF93      		push r28
 1239               	.LCFI57:
 1240               		.cfi_def_cfa_offset 10
 1241               		.cfi_offset 28, -9
 1242 0010 DF93      		push r29
 1243               	.LCFI58:
 1244               		.cfi_def_cfa_offset 11
 1245               		.cfi_offset 29, -10
 1246               	/* prologue: function */
 1247               	/* frame size = 0 */
 1248               	/* stack size = 9 */
 1249               	.L__stack_usage = 9
 1250 0012 8C01      		movw r16,r24
 1251 0014 EB01      		movw r28,r22
 1252 0016 7A01      		movw r14,r20
  37:./tmk_core/protocol/lufa/LUFA-git/LUFA/Drivers/USB/Core/AVR8/Template/Template_Endpoint_RW.c **** 	uint16_t BytesInTransfer = 0;
 1253               		.loc 3 37 2 is_stmt 1 view .LVU301
 1254               	.LVL107:
  38:./tmk_core/protocol/lufa/LUFA-git/LUFA/Drivers/USB/Core/AVR8/Template/Template_Endpoint_RW.c **** 	uint8_t  ErrorCode;
 1255               		.loc 3 38 2 view .LVU302
  39:./tmk_core/protocol/lufa/LUFA-git/LUFA/Drivers/USB/Core/AVR8/Template/Template_Endpoint_RW.c **** 
 1256               		.loc 3 39 2 view .LVU303
  41:./tmk_core/protocol/lufa/LUFA-git/LUFA/Drivers/USB/Core/AVR8/Template/Template_Endpoint_RW.c **** 	  return ErrorCode;
 1257               		.loc 3 41 2 view .LVU304
  41:./tmk_core/protocol/lufa/LUFA-git/LUFA/Drivers/USB/Core/AVR8/Template/Template_Endpoint_RW.c **** 	  return ErrorCode;
 1258               		.loc 3 41 19 is_stmt 0 view .LVU305
 1259 0018 0E94 0000 		call Endpoint_WaitUntilReady
 1260               	.LVL108:
  41:./tmk_core/protocol/lufa/LUFA-git/LUFA/Drivers/USB/Core/AVR8/Template/Template_Endpoint_RW.c **** 	  return ErrorCode;
 1261               		.loc 3 41 19 view .LVU306
 1262 001c D82E      		mov r13,r24
 1263               	.LVL109:
  41:./tmk_core/protocol/lufa/LUFA-git/LUFA/Drivers/USB/Core/AVR8/Template/Template_Endpoint_RW.c **** 	  return ErrorCode;
 1264               		.loc 3 41 5 view .LVU307
 1265 001e 8111      		cpse r24,__zero_reg__
 1266 0020 00C0      		rjmp .L73
  44:./tmk_core/protocol/lufa/LUFA-git/LUFA/Drivers/USB/Core/AVR8/Template/Template_Endpoint_RW.c **** 	{
 1267               		.loc 3 44 2 is_stmt 1 view .LVU308
  44:./tmk_core/protocol/lufa/LUFA-git/LUFA/Drivers/USB/Core/AVR8/Template/Template_Endpoint_RW.c **** 	{
 1268               		.loc 3 44 5 is_stmt 0 view .LVU309
 1269 0022 E114      		cp r14,__zero_reg__
 1270 0024 F104      		cpc r15,__zero_reg__
 1271 0026 01F0      		breq .L75
  46:./tmk_core/protocol/lufa/LUFA-git/LUFA/Drivers/USB/Core/AVR8/Template/Template_Endpoint_RW.c **** 		TEMPLATE_BUFFER_MOVE(DataStream, *BytesProcessed);
 1272               		.loc 3 46 3 is_stmt 1 view .LVU310
  46:./tmk_core/protocol/lufa/LUFA-git/LUFA/Drivers/USB/Core/AVR8/Template/Template_Endpoint_RW.c **** 		TEMPLATE_BUFFER_MOVE(DataStream, *BytesProcessed);
 1273               		.loc 3 46 13 is_stmt 0 view .LVU311
 1274 0028 F701      		movw r30,r14
 1275 002a 8081      		ld r24,Z
 1276 002c 9181      		ldd r25,Z+1
  46:./tmk_core/protocol/lufa/LUFA-git/LUFA/Drivers/USB/Core/AVR8/Template/Template_Endpoint_RW.c **** 		TEMPLATE_BUFFER_MOVE(DataStream, *BytesProcessed);
 1277               		.loc 3 46 10 view .LVU312
 1278 002e C81B      		sub r28,r24
 1279 0030 D90B      		sbc r29,r25
 1280               	.LVL110:
  47:./tmk_core/protocol/lufa/LUFA-git/LUFA/Drivers/USB/Core/AVR8/Template/Template_Endpoint_RW.c **** 	}
 1281               		.loc 3 47 3 is_stmt 1 view .LVU313
 1282 0032 080F      		add r16,r24
 1283 0034 191F      		adc r17,r25
 1284               	.LVL111:
 1285               	.L75:
  36:./tmk_core/protocol/lufa/LUFA-git/LUFA/Drivers/USB/Core/AVR8/Template/Template_Endpoint_RW.c **** 	uint8_t* DataStream      = ((uint8_t*)Buffer + TEMPLATE_BUFFER_OFFSET(Length));
 1286               		.loc 3 36 1 is_stmt 0 view .LVU314
 1287 0036 B12C      		mov r11,__zero_reg__
 1288 0038 A12C      		mov r10,__zero_reg__
 1289               	.LVL112:
 1290               	.L76:
  50:./tmk_core/protocol/lufa/LUFA-git/LUFA/Drivers/USB/Core/AVR8/Template/Template_Endpoint_RW.c **** 	{
 1291               		.loc 3 50 8 is_stmt 1 view .LVU315
 1292 003a 2097      		sbiw r28,0
 1293 003c 01F0      		breq .L73
  52:./tmk_core/protocol/lufa/LUFA-git/LUFA/Drivers/USB/Core/AVR8/Template/Template_Endpoint_RW.c **** 		{
 1294               		.loc 3 52 3 view .LVU316
 1295               	.LBB304:
 1296               	.LBI304:
 358:./tmk_core/protocol/lufa/LUFA-git/LUFA/Drivers/USB/Core/AVR8/../AVR8/../AVR8/Endpoint_AVR8.h **** 			{
 1297               		.loc 2 358 23 view .LVU317
 1298               	.LBB305:
 360:./tmk_core/protocol/lufa/LUFA-git/LUFA/Drivers/USB/Core/AVR8/../AVR8/../AVR8/Endpoint_AVR8.h **** 			}
 1299               		.loc 2 360 5 view .LVU318
 360:./tmk_core/protocol/lufa/LUFA-git/LUFA/Drivers/USB/Core/AVR8/../AVR8/../AVR8/Endpoint_AVR8.h **** 			}
 1300               		.loc 2 360 14 is_stmt 0 view .LVU319
 1301 003e 8091 E800 		lds r24,232
 1302               	.LBE305:
 1303               	.LBE304:
  52:./tmk_core/protocol/lufa/LUFA-git/LUFA/Drivers/USB/Core/AVR8/Template/Template_Endpoint_RW.c **** 		{
 1304               		.loc 3 52 6 view .LVU320
 1305 0042 85FD      		sbrc r24,5
 1306 0044 00C0      		rjmp .L77
  54:./tmk_core/protocol/lufa/LUFA-git/LUFA/Drivers/USB/Core/AVR8/Template/Template_Endpoint_RW.c **** 
 1307               		.loc 3 54 4 is_stmt 1 view .LVU321
 1308               	.LBB306:
 1309               	.LBI306:
 453:./tmk_core/protocol/lufa/LUFA-git/LUFA/Drivers/USB/Core/AVR8/../AVR8/../AVR8/Endpoint_AVR8.h **** 			{
 1310               		.loc 2 453 23 view .LVU322
 1311               	.LBB307:
 456:./tmk_core/protocol/lufa/LUFA-git/LUFA/Drivers/USB/Core/AVR8/../AVR8/../AVR8/Endpoint_AVR8.h **** 				#else
 1312               		.loc 2 456 6 view .LVU323
 456:./tmk_core/protocol/lufa/LUFA-git/LUFA/Drivers/USB/Core/AVR8/../AVR8/../AVR8/Endpoint_AVR8.h **** 				#else
 1313               		.loc 2 456 13 is_stmt 0 view .LVU324
 1314 0046 8091 E800 		lds r24,232
 1315 004a 8E77      		andi r24,lo8(126)
 1316 004c 8093 E800 		sts 232,r24
 1317               	.LBE307:
 1318               	.LBE306:
  60:./tmk_core/protocol/lufa/LUFA-git/LUFA/Drivers/USB/Core/AVR8/Template/Template_Endpoint_RW.c **** 			{
 1319               		.loc 3 60 4 is_stmt 1 view .LVU325
  60:./tmk_core/protocol/lufa/LUFA-git/LUFA/Drivers/USB/Core/AVR8/Template/Template_Endpoint_RW.c **** 			{
 1320               		.loc 3 60 7 is_stmt 0 view .LVU326
 1321 0050 E114      		cp r14,__zero_reg__
 1322 0052 F104      		cpc r15,__zero_reg__
 1323 0054 01F0      		breq .L78
  62:./tmk_core/protocol/lufa/LUFA-git/LUFA/Drivers/USB/Core/AVR8/Template/Template_Endpoint_RW.c **** 				return ENDPOINT_RWSTREAM_IncompleteTransfer;
 1324               		.loc 3 62 5 is_stmt 1 view .LVU327
  62:./tmk_core/protocol/lufa/LUFA-git/LUFA/Drivers/USB/Core/AVR8/Template/Template_Endpoint_RW.c **** 				return ENDPOINT_RWSTREAM_IncompleteTransfer;
 1325               		.loc 3 62 21 is_stmt 0 view .LVU328
 1326 0056 F701      		movw r30,r14
 1327 0058 8081      		ld r24,Z
 1328 005a 9181      		ldd r25,Z+1
 1329 005c A80E      		add r10,r24
 1330 005e B91E      		adc r11,r25
 1331               	.LVL113:
  62:./tmk_core/protocol/lufa/LUFA-git/LUFA/Drivers/USB/Core/AVR8/Template/Template_Endpoint_RW.c **** 				return ENDPOINT_RWSTREAM_IncompleteTransfer;
 1332               		.loc 3 62 21 view .LVU329
 1333 0060 B182      		std Z+1,r11
 1334 0062 A082      		st Z,r10
  63:./tmk_core/protocol/lufa/LUFA-git/LUFA/Drivers/USB/Core/AVR8/Template/Template_Endpoint_RW.c **** 			}
 1335               		.loc 3 63 5 is_stmt 1 view .LVU330
  63:./tmk_core/protocol/lufa/LUFA-git/LUFA/Drivers/USB/Core/AVR8/Template/Template_Endpoint_RW.c **** 			}
 1336               		.loc 3 63 12 is_stmt 0 view .LVU331
 1337 0064 85E0      		ldi r24,lo8(5)
 1338 0066 D82E      		mov r13,r24
 1339               	.L73:
 1340               		.loc 3 79 1 view .LVU332
 1341 0068 8D2D      		mov r24,r13
 1342               	/* epilogue start */
 1343 006a DF91      		pop r29
 1344 006c CF91      		pop r28
 1345               	.LVL114:
 1346               		.loc 3 79 1 view .LVU333
 1347 006e 1F91      		pop r17
 1348 0070 0F91      		pop r16
 1349               	.LVL115:
 1350               		.loc 3 79 1 view .LVU334
 1351 0072 FF90      		pop r15
 1352 0074 EF90      		pop r14
 1353               	.LVL116:
 1354               		.loc 3 79 1 view .LVU335
 1355 0076 DF90      		pop r13
 1356 0078 BF90      		pop r11
 1357 007a AF90      		pop r10
 1358 007c 0895      		ret
 1359               	.LVL117:
 1360               	.L78:
  66:./tmk_core/protocol/lufa/LUFA-git/LUFA/Drivers/USB/Core/AVR8/Template/Template_Endpoint_RW.c **** 			  return ErrorCode;
 1361               		.loc 3 66 4 is_stmt 1 view .LVU336
  66:./tmk_core/protocol/lufa/LUFA-git/LUFA/Drivers/USB/Core/AVR8/Template/Template_Endpoint_RW.c **** 			  return ErrorCode;
 1362               		.loc 3 66 21 is_stmt 0 view .LVU337
 1363 007e 0E94 0000 		call Endpoint_WaitUntilReady
 1364               	.LVL118:
  66:./tmk_core/protocol/lufa/LUFA-git/LUFA/Drivers/USB/Core/AVR8/Template/Template_Endpoint_RW.c **** 			  return ErrorCode;
 1365               		.loc 3 66 7 view .LVU338
 1366 0082 8823      		tst r24
 1367 0084 01F0      		breq .L76
 1368 0086 D82E      		mov r13,r24
 1369 0088 00C0      		rjmp .L73
 1370               	.LVL119:
 1371               	.L77:
  71:./tmk_core/protocol/lufa/LUFA-git/LUFA/Drivers/USB/Core/AVR8/Template/Template_Endpoint_RW.c **** 			TEMPLATE_BUFFER_MOVE(DataStream, 1);
 1372               		.loc 3 71 4 is_stmt 1 view .LVU339
 1373               	.LBB308:
  71:./tmk_core/protocol/lufa/LUFA-git/LUFA/Drivers/USB/Core/AVR8/Template/Template_Endpoint_RW.c **** 			TEMPLATE_BUFFER_MOVE(DataStream, 1);
 1374               		.loc 3 71 4 view .LVU340
  71:./tmk_core/protocol/lufa/LUFA-git/LUFA/Drivers/USB/Core/AVR8/Template/Template_Endpoint_RW.c **** 			TEMPLATE_BUFFER_MOVE(DataStream, 1);
 1375               		.loc 3 71 4 view .LVU341
  71:./tmk_core/protocol/lufa/LUFA-git/LUFA/Drivers/USB/Core/AVR8/Template/Template_Endpoint_RW.c **** 			TEMPLATE_BUFFER_MOVE(DataStream, 1);
 1376               		.loc 3 71 4 view .LVU342
 1377 008a F801      		movw r30,r16
 1378               	/* #APP */
 1379               	 ;  71 "./tmk_core/protocol/lufa/LUFA-git/LUFA/Drivers/USB/Core/AVR8/Template/Template_Endpoint_RW.
 1380 008c 8491      		lpm r24, Z
 1381               		
 1382               	 ;  0 "" 2
 1383               	.LVL120:
  71:./tmk_core/protocol/lufa/LUFA-git/LUFA/Drivers/USB/Core/AVR8/Template/Template_Endpoint_RW.c **** 			TEMPLATE_BUFFER_MOVE(DataStream, 1);
 1384               		.loc 3 71 4 view .LVU343
  71:./tmk_core/protocol/lufa/LUFA-git/LUFA/Drivers/USB/Core/AVR8/Template/Template_Endpoint_RW.c **** 			TEMPLATE_BUFFER_MOVE(DataStream, 1);
 1385               		.loc 3 71 4 is_stmt 0 view .LVU344
 1386               	/* #NOAPP */
 1387               	.LBE308:
 1388               	.LBB309:
 1389               	.LBI309:
 552:./tmk_core/protocol/lufa/LUFA-git/LUFA/Drivers/USB/Core/AVR8/../AVR8/../AVR8/Endpoint_AVR8.h **** 			{
 1390               		.loc 2 552 23 is_stmt 1 view .LVU345
 1391               	.LBB310:
 554:./tmk_core/protocol/lufa/LUFA-git/LUFA/Drivers/USB/Core/AVR8/../AVR8/../AVR8/Endpoint_AVR8.h **** 			}
 1392               		.loc 2 554 5 view .LVU346
 554:./tmk_core/protocol/lufa/LUFA-git/LUFA/Drivers/USB/Core/AVR8/../AVR8/../AVR8/Endpoint_AVR8.h **** 			}
 1393               		.loc 2 554 12 is_stmt 0 view .LVU347
 1394 008e 8093 F100 		sts 241,r24
 1395               	.LVL121:
 554:./tmk_core/protocol/lufa/LUFA-git/LUFA/Drivers/USB/Core/AVR8/../AVR8/../AVR8/Endpoint_AVR8.h **** 			}
 1396               		.loc 2 554 12 view .LVU348
 1397               	.LBE310:
 1398               	.LBE309:
  72:./tmk_core/protocol/lufa/LUFA-git/LUFA/Drivers/USB/Core/AVR8/Template/Template_Endpoint_RW.c **** 			Length--;
 1399               		.loc 3 72 4 is_stmt 1 view .LVU349
 1400 0092 0F5F      		subi r16,-1
 1401 0094 1F4F      		sbci r17,-1
 1402               	.LVL122:
  73:./tmk_core/protocol/lufa/LUFA-git/LUFA/Drivers/USB/Core/AVR8/Template/Template_Endpoint_RW.c **** 			BytesInTransfer++;
 1403               		.loc 3 73 4 view .LVU350
  73:./tmk_core/protocol/lufa/LUFA-git/LUFA/Drivers/USB/Core/AVR8/Template/Template_Endpoint_RW.c **** 			BytesInTransfer++;
 1404               		.loc 3 73 10 is_stmt 0 view .LVU351
 1405 0096 2197      		sbiw r28,1
 1406               	.LVL123:
  74:./tmk_core/protocol/lufa/LUFA-git/LUFA/Drivers/USB/Core/AVR8/Template/Template_Endpoint_RW.c **** 		}
 1407               		.loc 3 74 4 is_stmt 1 view .LVU352
  74:./tmk_core/protocol/lufa/LUFA-git/LUFA/Drivers/USB/Core/AVR8/Template/Template_Endpoint_RW.c **** 		}
 1408               		.loc 3 74 19 is_stmt 0 view .LVU353
 1409 0098 FFEF      		ldi r31,-1
 1410 009a AF1A      		sub r10,r31
 1411 009c BF0A      		sbc r11,r31
 1412               	.LVL124:
  74:./tmk_core/protocol/lufa/LUFA-git/LUFA/Drivers/USB/Core/AVR8/Template/Template_Endpoint_RW.c **** 		}
 1413               		.loc 3 74 19 view .LVU354
 1414 009e 00C0      		rjmp .L76
 1415               		.cfi_endproc
 1416               	.LFE91:
 1418               		.section	.text.Endpoint_Write_PStream_BE,"ax",@progbits
 1419               	.global	Endpoint_Write_PStream_BE
 1421               	Endpoint_Write_PStream_BE:
 1422               	.LVL125:
 1423               	.LFB92:
  36:./tmk_core/protocol/lufa/LUFA-git/LUFA/Drivers/USB/Core/AVR8/Template/Template_Endpoint_RW.c **** 	uint8_t* DataStream      = ((uint8_t*)Buffer + TEMPLATE_BUFFER_OFFSET(Length));
 1424               		.loc 3 36 1 is_stmt 1 view -0
 1425               		.cfi_startproc
  36:./tmk_core/protocol/lufa/LUFA-git/LUFA/Drivers/USB/Core/AVR8/Template/Template_Endpoint_RW.c **** 	uint8_t* DataStream      = ((uint8_t*)Buffer + TEMPLATE_BUFFER_OFFSET(Length));
 1426               		.loc 3 36 1 is_stmt 0 view .LVU356
 1427 0000 AF92      		push r10
 1428               	.LCFI59:
 1429               		.cfi_def_cfa_offset 3
 1430               		.cfi_offset 10, -2
 1431 0002 BF92      		push r11
 1432               	.LCFI60:
 1433               		.cfi_def_cfa_offset 4
 1434               		.cfi_offset 11, -3
 1435 0004 DF92      		push r13
 1436               	.LCFI61:
 1437               		.cfi_def_cfa_offset 5
 1438               		.cfi_offset 13, -4
 1439 0006 EF92      		push r14
 1440               	.LCFI62:
 1441               		.cfi_def_cfa_offset 6
 1442               		.cfi_offset 14, -5
 1443 0008 FF92      		push r15
 1444               	.LCFI63:
 1445               		.cfi_def_cfa_offset 7
 1446               		.cfi_offset 15, -6
 1447 000a 0F93      		push r16
 1448               	.LCFI64:
 1449               		.cfi_def_cfa_offset 8
 1450               		.cfi_offset 16, -7
 1451 000c 1F93      		push r17
 1452               	.LCFI65:
 1453               		.cfi_def_cfa_offset 9
 1454               		.cfi_offset 17, -8
 1455 000e CF93      		push r28
 1456               	.LCFI66:
 1457               		.cfi_def_cfa_offset 10
 1458               		.cfi_offset 28, -9
 1459 0010 DF93      		push r29
 1460               	.LCFI67:
 1461               		.cfi_def_cfa_offset 11
 1462               		.cfi_offset 29, -10
 1463               	/* prologue: function */
 1464               	/* frame size = 0 */
 1465               	/* stack size = 9 */
 1466               	.L__stack_usage = 9
 1467 0012 EC01      		movw r28,r24
 1468 0014 8B01      		movw r16,r22
 1469 0016 7A01      		movw r14,r20
  37:./tmk_core/protocol/lufa/LUFA-git/LUFA/Drivers/USB/Core/AVR8/Template/Template_Endpoint_RW.c **** 	uint16_t BytesInTransfer = 0;
 1470               		.loc 3 37 2 is_stmt 1 view .LVU357
 1471               	.LVL126:
  38:./tmk_core/protocol/lufa/LUFA-git/LUFA/Drivers/USB/Core/AVR8/Template/Template_Endpoint_RW.c **** 	uint8_t  ErrorCode;
 1472               		.loc 3 38 2 view .LVU358
  39:./tmk_core/protocol/lufa/LUFA-git/LUFA/Drivers/USB/Core/AVR8/Template/Template_Endpoint_RW.c **** 
 1473               		.loc 3 39 2 view .LVU359
  41:./tmk_core/protocol/lufa/LUFA-git/LUFA/Drivers/USB/Core/AVR8/Template/Template_Endpoint_RW.c **** 	  return ErrorCode;
 1474               		.loc 3 41 2 view .LVU360
  41:./tmk_core/protocol/lufa/LUFA-git/LUFA/Drivers/USB/Core/AVR8/Template/Template_Endpoint_RW.c **** 	  return ErrorCode;
 1475               		.loc 3 41 19 is_stmt 0 view .LVU361
 1476 0018 0E94 0000 		call Endpoint_WaitUntilReady
 1477               	.LVL127:
  41:./tmk_core/protocol/lufa/LUFA-git/LUFA/Drivers/USB/Core/AVR8/Template/Template_Endpoint_RW.c **** 	  return ErrorCode;
 1478               		.loc 3 41 19 view .LVU362
 1479 001c D82E      		mov r13,r24
 1480               	.LVL128:
  41:./tmk_core/protocol/lufa/LUFA-git/LUFA/Drivers/USB/Core/AVR8/Template/Template_Endpoint_RW.c **** 	  return ErrorCode;
 1481               		.loc 3 41 5 view .LVU363
 1482 001e 8111      		cpse r24,__zero_reg__
 1483 0020 00C0      		rjmp .L85
  37:./tmk_core/protocol/lufa/LUFA-git/LUFA/Drivers/USB/Core/AVR8/Template/Template_Endpoint_RW.c **** 	uint16_t BytesInTransfer = 0;
 1484               		.loc 3 37 47 view .LVU364
 1485 0022 C801      		movw r24,r16
 1486 0024 0197      		sbiw r24,1
 1487               	.LVL129:
  37:./tmk_core/protocol/lufa/LUFA-git/LUFA/Drivers/USB/Core/AVR8/Template/Template_Endpoint_RW.c **** 	uint16_t BytesInTransfer = 0;
 1488               		.loc 3 37 11 view .LVU365
 1489 0026 C80F      		add r28,r24
 1490 0028 D91F      		adc r29,r25
 1491               	.LVL130:
  44:./tmk_core/protocol/lufa/LUFA-git/LUFA/Drivers/USB/Core/AVR8/Template/Template_Endpoint_RW.c **** 	{
 1492               		.loc 3 44 2 is_stmt 1 view .LVU366
  44:./tmk_core/protocol/lufa/LUFA-git/LUFA/Drivers/USB/Core/AVR8/Template/Template_Endpoint_RW.c **** 	{
 1493               		.loc 3 44 5 is_stmt 0 view .LVU367
 1494 002a E114      		cp r14,__zero_reg__
 1495 002c F104      		cpc r15,__zero_reg__
 1496 002e 01F0      		breq .L87
  46:./tmk_core/protocol/lufa/LUFA-git/LUFA/Drivers/USB/Core/AVR8/Template/Template_Endpoint_RW.c **** 		TEMPLATE_BUFFER_MOVE(DataStream, *BytesProcessed);
 1497               		.loc 3 46 3 is_stmt 1 view .LVU368
  46:./tmk_core/protocol/lufa/LUFA-git/LUFA/Drivers/USB/Core/AVR8/Template/Template_Endpoint_RW.c **** 		TEMPLATE_BUFFER_MOVE(DataStream, *BytesProcessed);
 1498               		.loc 3 46 13 is_stmt 0 view .LVU369
 1499 0030 F701      		movw r30,r14
 1500 0032 8081      		ld r24,Z
 1501 0034 9181      		ldd r25,Z+1
 1502               	.LVL131:
  46:./tmk_core/protocol/lufa/LUFA-git/LUFA/Drivers/USB/Core/AVR8/Template/Template_Endpoint_RW.c **** 		TEMPLATE_BUFFER_MOVE(DataStream, *BytesProcessed);
 1503               		.loc 3 46 10 view .LVU370
 1504 0036 081B      		sub r16,r24
 1505 0038 190B      		sbc r17,r25
 1506               	.LVL132:
  47:./tmk_core/protocol/lufa/LUFA-git/LUFA/Drivers/USB/Core/AVR8/Template/Template_Endpoint_RW.c **** 	}
 1507               		.loc 3 47 3 is_stmt 1 view .LVU371
 1508 003a C81B      		sub r28,r24
 1509 003c D90B      		sbc r29,r25
 1510               	.LVL133:
 1511               	.L87:
  36:./tmk_core/protocol/lufa/LUFA-git/LUFA/Drivers/USB/Core/AVR8/Template/Template_Endpoint_RW.c **** 	uint8_t* DataStream      = ((uint8_t*)Buffer + TEMPLATE_BUFFER_OFFSET(Length));
 1512               		.loc 3 36 1 is_stmt 0 view .LVU372
 1513 003e B12C      		mov r11,__zero_reg__
 1514 0040 A12C      		mov r10,__zero_reg__
 1515               	.LVL134:
 1516               	.L88:
  50:./tmk_core/protocol/lufa/LUFA-git/LUFA/Drivers/USB/Core/AVR8/Template/Template_Endpoint_RW.c **** 	{
 1517               		.loc 3 50 8 is_stmt 1 view .LVU373
 1518 0042 0115      		cp r16,__zero_reg__
 1519 0044 1105      		cpc r17,__zero_reg__
 1520 0046 01F0      		breq .L85
  52:./tmk_core/protocol/lufa/LUFA-git/LUFA/Drivers/USB/Core/AVR8/Template/Template_Endpoint_RW.c **** 		{
 1521               		.loc 3 52 3 view .LVU374
 1522               	.LBB311:
 1523               	.LBI311:
 358:./tmk_core/protocol/lufa/LUFA-git/LUFA/Drivers/USB/Core/AVR8/../AVR8/../AVR8/Endpoint_AVR8.h **** 			{
 1524               		.loc 2 358 23 view .LVU375
 1525               	.LBB312:
 360:./tmk_core/protocol/lufa/LUFA-git/LUFA/Drivers/USB/Core/AVR8/../AVR8/../AVR8/Endpoint_AVR8.h **** 			}
 1526               		.loc 2 360 5 view .LVU376
 360:./tmk_core/protocol/lufa/LUFA-git/LUFA/Drivers/USB/Core/AVR8/../AVR8/../AVR8/Endpoint_AVR8.h **** 			}
 1527               		.loc 2 360 14 is_stmt 0 view .LVU377
 1528 0048 8091 E800 		lds r24,232
 1529               	.LBE312:
 1530               	.LBE311:
  52:./tmk_core/protocol/lufa/LUFA-git/LUFA/Drivers/USB/Core/AVR8/Template/Template_Endpoint_RW.c **** 		{
 1531               		.loc 3 52 6 view .LVU378
 1532 004c 85FD      		sbrc r24,5
 1533 004e 00C0      		rjmp .L89
  54:./tmk_core/protocol/lufa/LUFA-git/LUFA/Drivers/USB/Core/AVR8/Template/Template_Endpoint_RW.c **** 
 1534               		.loc 3 54 4 is_stmt 1 view .LVU379
 1535               	.LBB313:
 1536               	.LBI313:
 453:./tmk_core/protocol/lufa/LUFA-git/LUFA/Drivers/USB/Core/AVR8/../AVR8/../AVR8/Endpoint_AVR8.h **** 			{
 1537               		.loc 2 453 23 view .LVU380
 1538               	.LBB314:
 456:./tmk_core/protocol/lufa/LUFA-git/LUFA/Drivers/USB/Core/AVR8/../AVR8/../AVR8/Endpoint_AVR8.h **** 				#else
 1539               		.loc 2 456 6 view .LVU381
 456:./tmk_core/protocol/lufa/LUFA-git/LUFA/Drivers/USB/Core/AVR8/../AVR8/../AVR8/Endpoint_AVR8.h **** 				#else
 1540               		.loc 2 456 13 is_stmt 0 view .LVU382
 1541 0050 8091 E800 		lds r24,232
 1542 0054 8E77      		andi r24,lo8(126)
 1543 0056 8093 E800 		sts 232,r24
 1544               	.LBE314:
 1545               	.LBE313:
  60:./tmk_core/protocol/lufa/LUFA-git/LUFA/Drivers/USB/Core/AVR8/Template/Template_Endpoint_RW.c **** 			{
 1546               		.loc 3 60 4 is_stmt 1 view .LVU383
  60:./tmk_core/protocol/lufa/LUFA-git/LUFA/Drivers/USB/Core/AVR8/Template/Template_Endpoint_RW.c **** 			{
 1547               		.loc 3 60 7 is_stmt 0 view .LVU384
 1548 005a E114      		cp r14,__zero_reg__
 1549 005c F104      		cpc r15,__zero_reg__
 1550 005e 01F0      		breq .L90
  62:./tmk_core/protocol/lufa/LUFA-git/LUFA/Drivers/USB/Core/AVR8/Template/Template_Endpoint_RW.c **** 				return ENDPOINT_RWSTREAM_IncompleteTransfer;
 1551               		.loc 3 62 5 is_stmt 1 view .LVU385
  62:./tmk_core/protocol/lufa/LUFA-git/LUFA/Drivers/USB/Core/AVR8/Template/Template_Endpoint_RW.c **** 				return ENDPOINT_RWSTREAM_IncompleteTransfer;
 1552               		.loc 3 62 21 is_stmt 0 view .LVU386
 1553 0060 F701      		movw r30,r14
 1554 0062 8081      		ld r24,Z
 1555 0064 9181      		ldd r25,Z+1
 1556 0066 A80E      		add r10,r24
 1557 0068 B91E      		adc r11,r25
 1558               	.LVL135:
  62:./tmk_core/protocol/lufa/LUFA-git/LUFA/Drivers/USB/Core/AVR8/Template/Template_Endpoint_RW.c **** 				return ENDPOINT_RWSTREAM_IncompleteTransfer;
 1559               		.loc 3 62 21 view .LVU387
 1560 006a B182      		std Z+1,r11
 1561 006c A082      		st Z,r10
  63:./tmk_core/protocol/lufa/LUFA-git/LUFA/Drivers/USB/Core/AVR8/Template/Template_Endpoint_RW.c **** 			}
 1562               		.loc 3 63 5 is_stmt 1 view .LVU388
  63:./tmk_core/protocol/lufa/LUFA-git/LUFA/Drivers/USB/Core/AVR8/Template/Template_Endpoint_RW.c **** 			}
 1563               		.loc 3 63 12 is_stmt 0 view .LVU389
 1564 006e 85E0      		ldi r24,lo8(5)
 1565 0070 D82E      		mov r13,r24
 1566               	.LVL136:
 1567               	.L85:
 1568               		.loc 3 79 1 view .LVU390
 1569 0072 8D2D      		mov r24,r13
 1570               	/* epilogue start */
 1571 0074 DF91      		pop r29
 1572 0076 CF91      		pop r28
 1573 0078 1F91      		pop r17
 1574 007a 0F91      		pop r16
 1575               	.LVL137:
 1576               		.loc 3 79 1 view .LVU391
 1577 007c FF90      		pop r15
 1578 007e EF90      		pop r14
 1579               	.LVL138:
 1580               		.loc 3 79 1 view .LVU392
 1581 0080 DF90      		pop r13
 1582 0082 BF90      		pop r11
 1583 0084 AF90      		pop r10
 1584 0086 0895      		ret
 1585               	.LVL139:
 1586               	.L90:
  66:./tmk_core/protocol/lufa/LUFA-git/LUFA/Drivers/USB/Core/AVR8/Template/Template_Endpoint_RW.c **** 			  return ErrorCode;
 1587               		.loc 3 66 4 is_stmt 1 view .LVU393
  66:./tmk_core/protocol/lufa/LUFA-git/LUFA/Drivers/USB/Core/AVR8/Template/Template_Endpoint_RW.c **** 			  return ErrorCode;
 1588               		.loc 3 66 21 is_stmt 0 view .LVU394
 1589 0088 0E94 0000 		call Endpoint_WaitUntilReady
 1590               	.LVL140:
  66:./tmk_core/protocol/lufa/LUFA-git/LUFA/Drivers/USB/Core/AVR8/Template/Template_Endpoint_RW.c **** 			  return ErrorCode;
 1591               		.loc 3 66 7 view .LVU395
 1592 008c 8823      		tst r24
 1593 008e 01F0      		breq .L88
 1594 0090 D82E      		mov r13,r24
 1595 0092 00C0      		rjmp .L85
 1596               	.LVL141:
 1597               	.L89:
  71:./tmk_core/protocol/lufa/LUFA-git/LUFA/Drivers/USB/Core/AVR8/Template/Template_Endpoint_RW.c **** 			TEMPLATE_BUFFER_MOVE(DataStream, 1);
 1598               		.loc 3 71 4 is_stmt 1 view .LVU396
 1599               	.LBB315:
  71:./tmk_core/protocol/lufa/LUFA-git/LUFA/Drivers/USB/Core/AVR8/Template/Template_Endpoint_RW.c **** 			TEMPLATE_BUFFER_MOVE(DataStream, 1);
 1600               		.loc 3 71 4 view .LVU397
  71:./tmk_core/protocol/lufa/LUFA-git/LUFA/Drivers/USB/Core/AVR8/Template/Template_Endpoint_RW.c **** 			TEMPLATE_BUFFER_MOVE(DataStream, 1);
 1601               		.loc 3 71 4 view .LVU398
  71:./tmk_core/protocol/lufa/LUFA-git/LUFA/Drivers/USB/Core/AVR8/Template/Template_Endpoint_RW.c **** 			TEMPLATE_BUFFER_MOVE(DataStream, 1);
 1602               		.loc 3 71 4 view .LVU399
 1603 0094 FE01      		movw r30,r28
 1604               	/* #APP */
 1605               	 ;  71 "./tmk_core/protocol/lufa/LUFA-git/LUFA/Drivers/USB/Core/AVR8/Template/Template_Endpoint_RW.
 1606 0096 8491      		lpm r24, Z
 1607               		
 1608               	 ;  0 "" 2
 1609               	.LVL142:
  71:./tmk_core/protocol/lufa/LUFA-git/LUFA/Drivers/USB/Core/AVR8/Template/Template_Endpoint_RW.c **** 			TEMPLATE_BUFFER_MOVE(DataStream, 1);
 1610               		.loc 3 71 4 view .LVU400
  71:./tmk_core/protocol/lufa/LUFA-git/LUFA/Drivers/USB/Core/AVR8/Template/Template_Endpoint_RW.c **** 			TEMPLATE_BUFFER_MOVE(DataStream, 1);
 1611               		.loc 3 71 4 is_stmt 0 view .LVU401
 1612               	/* #NOAPP */
 1613               	.LBE315:
 1614               	.LBB316:
 1615               	.LBI316:
 552:./tmk_core/protocol/lufa/LUFA-git/LUFA/Drivers/USB/Core/AVR8/../AVR8/../AVR8/Endpoint_AVR8.h **** 			{
 1616               		.loc 2 552 23 is_stmt 1 view .LVU402
 1617               	.LBB317:
 554:./tmk_core/protocol/lufa/LUFA-git/LUFA/Drivers/USB/Core/AVR8/../AVR8/../AVR8/Endpoint_AVR8.h **** 			}
 1618               		.loc 2 554 5 view .LVU403
 554:./tmk_core/protocol/lufa/LUFA-git/LUFA/Drivers/USB/Core/AVR8/../AVR8/../AVR8/Endpoint_AVR8.h **** 			}
 1619               		.loc 2 554 12 is_stmt 0 view .LVU404
 1620 0098 8093 F100 		sts 241,r24
 1621               	.LVL143:
 554:./tmk_core/protocol/lufa/LUFA-git/LUFA/Drivers/USB/Core/AVR8/../AVR8/../AVR8/Endpoint_AVR8.h **** 			}
 1622               		.loc 2 554 12 view .LVU405
 1623               	.LBE317:
 1624               	.LBE316:
  72:./tmk_core/protocol/lufa/LUFA-git/LUFA/Drivers/USB/Core/AVR8/Template/Template_Endpoint_RW.c **** 			Length--;
 1625               		.loc 3 72 4 is_stmt 1 view .LVU406
 1626 009c 2197      		sbiw r28,1
 1627               	.LVL144:
  73:./tmk_core/protocol/lufa/LUFA-git/LUFA/Drivers/USB/Core/AVR8/Template/Template_Endpoint_RW.c **** 			BytesInTransfer++;
 1628               		.loc 3 73 4 view .LVU407
  73:./tmk_core/protocol/lufa/LUFA-git/LUFA/Drivers/USB/Core/AVR8/Template/Template_Endpoint_RW.c **** 			BytesInTransfer++;
 1629               		.loc 3 73 10 is_stmt 0 view .LVU408
 1630 009e 0150      		subi r16,1
 1631 00a0 1109      		sbc r17,__zero_reg__
 1632               	.LVL145:
  74:./tmk_core/protocol/lufa/LUFA-git/LUFA/Drivers/USB/Core/AVR8/Template/Template_Endpoint_RW.c **** 		}
 1633               		.loc 3 74 4 is_stmt 1 view .LVU409
  74:./tmk_core/protocol/lufa/LUFA-git/LUFA/Drivers/USB/Core/AVR8/Template/Template_Endpoint_RW.c **** 		}
 1634               		.loc 3 74 19 is_stmt 0 view .LVU410
 1635 00a2 FFEF      		ldi r31,-1
 1636 00a4 AF1A      		sub r10,r31
 1637 00a6 BF0A      		sbc r11,r31
 1638               	.LVL146:
  74:./tmk_core/protocol/lufa/LUFA-git/LUFA/Drivers/USB/Core/AVR8/Template/Template_Endpoint_RW.c **** 		}
 1639               		.loc 3 74 19 view .LVU411
 1640 00a8 00C0      		rjmp .L88
 1641               		.cfi_endproc
 1642               	.LFE92:
 1644               		.section	.text.Endpoint_Write_EStream_LE,"ax",@progbits
 1645               	.global	Endpoint_Write_EStream_LE
 1647               	Endpoint_Write_EStream_LE:
 1648               	.LVL147:
 1649               	.LFB93:
  36:./tmk_core/protocol/lufa/LUFA-git/LUFA/Drivers/USB/Core/AVR8/Template/Template_Endpoint_RW.c **** 	uint8_t* DataStream      = ((uint8_t*)Buffer + TEMPLATE_BUFFER_OFFSET(Length));
 1650               		.loc 3 36 1 is_stmt 1 view -0
 1651               		.cfi_startproc
  36:./tmk_core/protocol/lufa/LUFA-git/LUFA/Drivers/USB/Core/AVR8/Template/Template_Endpoint_RW.c **** 	uint8_t* DataStream      = ((uint8_t*)Buffer + TEMPLATE_BUFFER_OFFSET(Length));
 1652               		.loc 3 36 1 is_stmt 0 view .LVU413
 1653 0000 AF92      		push r10
 1654               	.LCFI68:
 1655               		.cfi_def_cfa_offset 3
 1656               		.cfi_offset 10, -2
 1657 0002 BF92      		push r11
 1658               	.LCFI69:
 1659               		.cfi_def_cfa_offset 4
 1660               		.cfi_offset 11, -3
 1661 0004 DF92      		push r13
 1662               	.LCFI70:
 1663               		.cfi_def_cfa_offset 5
 1664               		.cfi_offset 13, -4
 1665 0006 EF92      		push r14
 1666               	.LCFI71:
 1667               		.cfi_def_cfa_offset 6
 1668               		.cfi_offset 14, -5
 1669 0008 FF92      		push r15
 1670               	.LCFI72:
 1671               		.cfi_def_cfa_offset 7
 1672               		.cfi_offset 15, -6
 1673 000a 0F93      		push r16
 1674               	.LCFI73:
 1675               		.cfi_def_cfa_offset 8
 1676               		.cfi_offset 16, -7
 1677 000c 1F93      		push r17
 1678               	.LCFI74:
 1679               		.cfi_def_cfa_offset 9
 1680               		.cfi_offset 17, -8
 1681 000e CF93      		push r28
 1682               	.LCFI75:
 1683               		.cfi_def_cfa_offset 10
 1684               		.cfi_offset 28, -9
 1685 0010 DF93      		push r29
 1686               	.LCFI76:
 1687               		.cfi_def_cfa_offset 11
 1688               		.cfi_offset 29, -10
 1689               	/* prologue: function */
 1690               	/* frame size = 0 */
 1691               	/* stack size = 9 */
 1692               	.L__stack_usage = 9
 1693 0012 8C01      		movw r16,r24
 1694 0014 EB01      		movw r28,r22
 1695 0016 7A01      		movw r14,r20
  37:./tmk_core/protocol/lufa/LUFA-git/LUFA/Drivers/USB/Core/AVR8/Template/Template_Endpoint_RW.c **** 	uint16_t BytesInTransfer = 0;
 1696               		.loc 3 37 2 is_stmt 1 view .LVU414
 1697               	.LVL148:
  38:./tmk_core/protocol/lufa/LUFA-git/LUFA/Drivers/USB/Core/AVR8/Template/Template_Endpoint_RW.c **** 	uint8_t  ErrorCode;
 1698               		.loc 3 38 2 view .LVU415
  39:./tmk_core/protocol/lufa/LUFA-git/LUFA/Drivers/USB/Core/AVR8/Template/Template_Endpoint_RW.c **** 
 1699               		.loc 3 39 2 view .LVU416
  41:./tmk_core/protocol/lufa/LUFA-git/LUFA/Drivers/USB/Core/AVR8/Template/Template_Endpoint_RW.c **** 	  return ErrorCode;
 1700               		.loc 3 41 2 view .LVU417
  41:./tmk_core/protocol/lufa/LUFA-git/LUFA/Drivers/USB/Core/AVR8/Template/Template_Endpoint_RW.c **** 	  return ErrorCode;
 1701               		.loc 3 41 19 is_stmt 0 view .LVU418
 1702 0018 0E94 0000 		call Endpoint_WaitUntilReady
 1703               	.LVL149:
  41:./tmk_core/protocol/lufa/LUFA-git/LUFA/Drivers/USB/Core/AVR8/Template/Template_Endpoint_RW.c **** 	  return ErrorCode;
 1704               		.loc 3 41 19 view .LVU419
 1705 001c D82E      		mov r13,r24
 1706               	.LVL150:
  41:./tmk_core/protocol/lufa/LUFA-git/LUFA/Drivers/USB/Core/AVR8/Template/Template_Endpoint_RW.c **** 	  return ErrorCode;
 1707               		.loc 3 41 5 view .LVU420
 1708 001e 8111      		cpse r24,__zero_reg__
 1709 0020 00C0      		rjmp .L97
  44:./tmk_core/protocol/lufa/LUFA-git/LUFA/Drivers/USB/Core/AVR8/Template/Template_Endpoint_RW.c **** 	{
 1710               		.loc 3 44 2 is_stmt 1 view .LVU421
  44:./tmk_core/protocol/lufa/LUFA-git/LUFA/Drivers/USB/Core/AVR8/Template/Template_Endpoint_RW.c **** 	{
 1711               		.loc 3 44 5 is_stmt 0 view .LVU422
 1712 0022 E114      		cp r14,__zero_reg__
 1713 0024 F104      		cpc r15,__zero_reg__
 1714 0026 01F0      		breq .L99
  46:./tmk_core/protocol/lufa/LUFA-git/LUFA/Drivers/USB/Core/AVR8/Template/Template_Endpoint_RW.c **** 		TEMPLATE_BUFFER_MOVE(DataStream, *BytesProcessed);
 1715               		.loc 3 46 3 is_stmt 1 view .LVU423
  46:./tmk_core/protocol/lufa/LUFA-git/LUFA/Drivers/USB/Core/AVR8/Template/Template_Endpoint_RW.c **** 		TEMPLATE_BUFFER_MOVE(DataStream, *BytesProcessed);
 1716               		.loc 3 46 13 is_stmt 0 view .LVU424
 1717 0028 F701      		movw r30,r14
 1718 002a 8081      		ld r24,Z
 1719 002c 9181      		ldd r25,Z+1
  46:./tmk_core/protocol/lufa/LUFA-git/LUFA/Drivers/USB/Core/AVR8/Template/Template_Endpoint_RW.c **** 		TEMPLATE_BUFFER_MOVE(DataStream, *BytesProcessed);
 1720               		.loc 3 46 10 view .LVU425
 1721 002e C81B      		sub r28,r24
 1722 0030 D90B      		sbc r29,r25
 1723               	.LVL151:
  47:./tmk_core/protocol/lufa/LUFA-git/LUFA/Drivers/USB/Core/AVR8/Template/Template_Endpoint_RW.c **** 	}
 1724               		.loc 3 47 3 is_stmt 1 view .LVU426
 1725 0032 080F      		add r16,r24
 1726 0034 191F      		adc r17,r25
 1727               	.LVL152:
 1728               	.L99:
  36:./tmk_core/protocol/lufa/LUFA-git/LUFA/Drivers/USB/Core/AVR8/Template/Template_Endpoint_RW.c **** 	uint8_t* DataStream      = ((uint8_t*)Buffer + TEMPLATE_BUFFER_OFFSET(Length));
 1729               		.loc 3 36 1 is_stmt 0 view .LVU427
 1730 0036 B12C      		mov r11,__zero_reg__
 1731 0038 A12C      		mov r10,__zero_reg__
 1732               	.LVL153:
 1733               	.L100:
  50:./tmk_core/protocol/lufa/LUFA-git/LUFA/Drivers/USB/Core/AVR8/Template/Template_Endpoint_RW.c **** 	{
 1734               		.loc 3 50 8 is_stmt 1 view .LVU428
 1735 003a 2097      		sbiw r28,0
 1736 003c 01F0      		breq .L97
  52:./tmk_core/protocol/lufa/LUFA-git/LUFA/Drivers/USB/Core/AVR8/Template/Template_Endpoint_RW.c **** 		{
 1737               		.loc 3 52 3 view .LVU429
 1738               	.LBB318:
 1739               	.LBI318:
 358:./tmk_core/protocol/lufa/LUFA-git/LUFA/Drivers/USB/Core/AVR8/../AVR8/../AVR8/Endpoint_AVR8.h **** 			{
 1740               		.loc 2 358 23 view .LVU430
 1741               	.LBB319:
 360:./tmk_core/protocol/lufa/LUFA-git/LUFA/Drivers/USB/Core/AVR8/../AVR8/../AVR8/Endpoint_AVR8.h **** 			}
 1742               		.loc 2 360 5 view .LVU431
 360:./tmk_core/protocol/lufa/LUFA-git/LUFA/Drivers/USB/Core/AVR8/../AVR8/../AVR8/Endpoint_AVR8.h **** 			}
 1743               		.loc 2 360 14 is_stmt 0 view .LVU432
 1744 003e 8091 E800 		lds r24,232
 1745               	.LBE319:
 1746               	.LBE318:
  52:./tmk_core/protocol/lufa/LUFA-git/LUFA/Drivers/USB/Core/AVR8/Template/Template_Endpoint_RW.c **** 		{
 1747               		.loc 3 52 6 view .LVU433
 1748 0042 85FD      		sbrc r24,5
 1749 0044 00C0      		rjmp .L101
  54:./tmk_core/protocol/lufa/LUFA-git/LUFA/Drivers/USB/Core/AVR8/Template/Template_Endpoint_RW.c **** 
 1750               		.loc 3 54 4 is_stmt 1 view .LVU434
 1751               	.LBB320:
 1752               	.LBI320:
 453:./tmk_core/protocol/lufa/LUFA-git/LUFA/Drivers/USB/Core/AVR8/../AVR8/../AVR8/Endpoint_AVR8.h **** 			{
 1753               		.loc 2 453 23 view .LVU435
 1754               	.LBB321:
 456:./tmk_core/protocol/lufa/LUFA-git/LUFA/Drivers/USB/Core/AVR8/../AVR8/../AVR8/Endpoint_AVR8.h **** 				#else
 1755               		.loc 2 456 6 view .LVU436
 456:./tmk_core/protocol/lufa/LUFA-git/LUFA/Drivers/USB/Core/AVR8/../AVR8/../AVR8/Endpoint_AVR8.h **** 				#else
 1756               		.loc 2 456 13 is_stmt 0 view .LVU437
 1757 0046 8091 E800 		lds r24,232
 1758 004a 8E77      		andi r24,lo8(126)
 1759 004c 8093 E800 		sts 232,r24
 1760               	.LBE321:
 1761               	.LBE320:
  60:./tmk_core/protocol/lufa/LUFA-git/LUFA/Drivers/USB/Core/AVR8/Template/Template_Endpoint_RW.c **** 			{
 1762               		.loc 3 60 4 is_stmt 1 view .LVU438
  60:./tmk_core/protocol/lufa/LUFA-git/LUFA/Drivers/USB/Core/AVR8/Template/Template_Endpoint_RW.c **** 			{
 1763               		.loc 3 60 7 is_stmt 0 view .LVU439
 1764 0050 E114      		cp r14,__zero_reg__
 1765 0052 F104      		cpc r15,__zero_reg__
 1766 0054 01F0      		breq .L102
  62:./tmk_core/protocol/lufa/LUFA-git/LUFA/Drivers/USB/Core/AVR8/Template/Template_Endpoint_RW.c **** 				return ENDPOINT_RWSTREAM_IncompleteTransfer;
 1767               		.loc 3 62 5 is_stmt 1 view .LVU440
  62:./tmk_core/protocol/lufa/LUFA-git/LUFA/Drivers/USB/Core/AVR8/Template/Template_Endpoint_RW.c **** 				return ENDPOINT_RWSTREAM_IncompleteTransfer;
 1768               		.loc 3 62 21 is_stmt 0 view .LVU441
 1769 0056 F701      		movw r30,r14
 1770 0058 8081      		ld r24,Z
 1771 005a 9181      		ldd r25,Z+1
 1772 005c A80E      		add r10,r24
 1773 005e B91E      		adc r11,r25
 1774               	.LVL154:
  62:./tmk_core/protocol/lufa/LUFA-git/LUFA/Drivers/USB/Core/AVR8/Template/Template_Endpoint_RW.c **** 				return ENDPOINT_RWSTREAM_IncompleteTransfer;
 1775               		.loc 3 62 21 view .LVU442
 1776 0060 B182      		std Z+1,r11
 1777 0062 A082      		st Z,r10
  63:./tmk_core/protocol/lufa/LUFA-git/LUFA/Drivers/USB/Core/AVR8/Template/Template_Endpoint_RW.c **** 			}
 1778               		.loc 3 63 5 is_stmt 1 view .LVU443
  63:./tmk_core/protocol/lufa/LUFA-git/LUFA/Drivers/USB/Core/AVR8/Template/Template_Endpoint_RW.c **** 			}
 1779               		.loc 3 63 12 is_stmt 0 view .LVU444
 1780 0064 85E0      		ldi r24,lo8(5)
 1781 0066 D82E      		mov r13,r24
 1782               	.L97:
 1783               		.loc 3 79 1 view .LVU445
 1784 0068 8D2D      		mov r24,r13
 1785               	/* epilogue start */
 1786 006a DF91      		pop r29
 1787 006c CF91      		pop r28
 1788               	.LVL155:
 1789               		.loc 3 79 1 view .LVU446
 1790 006e 1F91      		pop r17
 1791 0070 0F91      		pop r16
 1792               	.LVL156:
 1793               		.loc 3 79 1 view .LVU447
 1794 0072 FF90      		pop r15
 1795 0074 EF90      		pop r14
 1796               	.LVL157:
 1797               		.loc 3 79 1 view .LVU448
 1798 0076 DF90      		pop r13
 1799 0078 BF90      		pop r11
 1800 007a AF90      		pop r10
 1801 007c 0895      		ret
 1802               	.LVL158:
 1803               	.L102:
  66:./tmk_core/protocol/lufa/LUFA-git/LUFA/Drivers/USB/Core/AVR8/Template/Template_Endpoint_RW.c **** 			  return ErrorCode;
 1804               		.loc 3 66 4 is_stmt 1 view .LVU449
  66:./tmk_core/protocol/lufa/LUFA-git/LUFA/Drivers/USB/Core/AVR8/Template/Template_Endpoint_RW.c **** 			  return ErrorCode;
 1805               		.loc 3 66 21 is_stmt 0 view .LVU450
 1806 007e 0E94 0000 		call Endpoint_WaitUntilReady
 1807               	.LVL159:
  66:./tmk_core/protocol/lufa/LUFA-git/LUFA/Drivers/USB/Core/AVR8/Template/Template_Endpoint_RW.c **** 			  return ErrorCode;
 1808               		.loc 3 66 7 view .LVU451
 1809 0082 8823      		tst r24
 1810 0084 01F0      		breq .L100
 1811 0086 D82E      		mov r13,r24
 1812 0088 00C0      		rjmp .L97
 1813               	.LVL160:
 1814               	.L101:
  71:./tmk_core/protocol/lufa/LUFA-git/LUFA/Drivers/USB/Core/AVR8/Template/Template_Endpoint_RW.c **** 			TEMPLATE_BUFFER_MOVE(DataStream, 1);
 1815               		.loc 3 71 4 is_stmt 1 view .LVU452
 1816 008a C801      		movw r24,r16
 1817 008c 0E94 0000 		call eeprom_read_byte
 1818               	.LVL161:
 1819               	.LBB322:
 1820               	.LBI322:
 552:./tmk_core/protocol/lufa/LUFA-git/LUFA/Drivers/USB/Core/AVR8/../AVR8/../AVR8/Endpoint_AVR8.h **** 			{
 1821               		.loc 2 552 23 view .LVU453
 1822               	.LBB323:
 554:./tmk_core/protocol/lufa/LUFA-git/LUFA/Drivers/USB/Core/AVR8/../AVR8/../AVR8/Endpoint_AVR8.h **** 			}
 1823               		.loc 2 554 5 view .LVU454
 554:./tmk_core/protocol/lufa/LUFA-git/LUFA/Drivers/USB/Core/AVR8/../AVR8/../AVR8/Endpoint_AVR8.h **** 			}
 1824               		.loc 2 554 12 is_stmt 0 view .LVU455
 1825 0090 8093 F100 		sts 241,r24
 1826               	.LVL162:
 554:./tmk_core/protocol/lufa/LUFA-git/LUFA/Drivers/USB/Core/AVR8/../AVR8/../AVR8/Endpoint_AVR8.h **** 			}
 1827               		.loc 2 554 12 view .LVU456
 1828               	.LBE323:
 1829               	.LBE322:
  72:./tmk_core/protocol/lufa/LUFA-git/LUFA/Drivers/USB/Core/AVR8/Template/Template_Endpoint_RW.c **** 			Length--;
 1830               		.loc 3 72 4 is_stmt 1 view .LVU457
 1831 0094 0F5F      		subi r16,-1
 1832 0096 1F4F      		sbci r17,-1
 1833               	.LVL163:
  73:./tmk_core/protocol/lufa/LUFA-git/LUFA/Drivers/USB/Core/AVR8/Template/Template_Endpoint_RW.c **** 			BytesInTransfer++;
 1834               		.loc 3 73 4 view .LVU458
  73:./tmk_core/protocol/lufa/LUFA-git/LUFA/Drivers/USB/Core/AVR8/Template/Template_Endpoint_RW.c **** 			BytesInTransfer++;
 1835               		.loc 3 73 10 is_stmt 0 view .LVU459
 1836 0098 2197      		sbiw r28,1
 1837               	.LVL164:
  74:./tmk_core/protocol/lufa/LUFA-git/LUFA/Drivers/USB/Core/AVR8/Template/Template_Endpoint_RW.c **** 		}
 1838               		.loc 3 74 4 is_stmt 1 view .LVU460
  74:./tmk_core/protocol/lufa/LUFA-git/LUFA/Drivers/USB/Core/AVR8/Template/Template_Endpoint_RW.c **** 		}
 1839               		.loc 3 74 19 is_stmt 0 view .LVU461
 1840 009a FFEF      		ldi r31,-1
 1841 009c AF1A      		sub r10,r31
 1842 009e BF0A      		sbc r11,r31
 1843               	.LVL165:
  74:./tmk_core/protocol/lufa/LUFA-git/LUFA/Drivers/USB/Core/AVR8/Template/Template_Endpoint_RW.c **** 		}
 1844               		.loc 3 74 19 view .LVU462
 1845 00a0 00C0      		rjmp .L100
 1846               		.cfi_endproc
 1847               	.LFE93:
 1849               		.section	.text.Endpoint_Write_EStream_BE,"ax",@progbits
 1850               	.global	Endpoint_Write_EStream_BE
 1852               	Endpoint_Write_EStream_BE:
 1853               	.LVL166:
 1854               	.LFB94:
  36:./tmk_core/protocol/lufa/LUFA-git/LUFA/Drivers/USB/Core/AVR8/Template/Template_Endpoint_RW.c **** 	uint8_t* DataStream      = ((uint8_t*)Buffer + TEMPLATE_BUFFER_OFFSET(Length));
 1855               		.loc 3 36 1 is_stmt 1 view -0
 1856               		.cfi_startproc
  36:./tmk_core/protocol/lufa/LUFA-git/LUFA/Drivers/USB/Core/AVR8/Template/Template_Endpoint_RW.c **** 	uint8_t* DataStream      = ((uint8_t*)Buffer + TEMPLATE_BUFFER_OFFSET(Length));
 1857               		.loc 3 36 1 is_stmt 0 view .LVU464
 1858 0000 AF92      		push r10
 1859               	.LCFI77:
 1860               		.cfi_def_cfa_offset 3
 1861               		.cfi_offset 10, -2
 1862 0002 BF92      		push r11
 1863               	.LCFI78:
 1864               		.cfi_def_cfa_offset 4
 1865               		.cfi_offset 11, -3
 1866 0004 DF92      		push r13
 1867               	.LCFI79:
 1868               		.cfi_def_cfa_offset 5
 1869               		.cfi_offset 13, -4
 1870 0006 EF92      		push r14
 1871               	.LCFI80:
 1872               		.cfi_def_cfa_offset 6
 1873               		.cfi_offset 14, -5
 1874 0008 FF92      		push r15
 1875               	.LCFI81:
 1876               		.cfi_def_cfa_offset 7
 1877               		.cfi_offset 15, -6
 1878 000a 0F93      		push r16
 1879               	.LCFI82:
 1880               		.cfi_def_cfa_offset 8
 1881               		.cfi_offset 16, -7
 1882 000c 1F93      		push r17
 1883               	.LCFI83:
 1884               		.cfi_def_cfa_offset 9
 1885               		.cfi_offset 17, -8
 1886 000e CF93      		push r28
 1887               	.LCFI84:
 1888               		.cfi_def_cfa_offset 10
 1889               		.cfi_offset 28, -9
 1890 0010 DF93      		push r29
 1891               	.LCFI85:
 1892               		.cfi_def_cfa_offset 11
 1893               		.cfi_offset 29, -10
 1894               	/* prologue: function */
 1895               	/* frame size = 0 */
 1896               	/* stack size = 9 */
 1897               	.L__stack_usage = 9
 1898 0012 EC01      		movw r28,r24
 1899 0014 8B01      		movw r16,r22
 1900 0016 7A01      		movw r14,r20
  37:./tmk_core/protocol/lufa/LUFA-git/LUFA/Drivers/USB/Core/AVR8/Template/Template_Endpoint_RW.c **** 	uint16_t BytesInTransfer = 0;
 1901               		.loc 3 37 2 is_stmt 1 view .LVU465
 1902               	.LVL167:
  38:./tmk_core/protocol/lufa/LUFA-git/LUFA/Drivers/USB/Core/AVR8/Template/Template_Endpoint_RW.c **** 	uint8_t  ErrorCode;
 1903               		.loc 3 38 2 view .LVU466
  39:./tmk_core/protocol/lufa/LUFA-git/LUFA/Drivers/USB/Core/AVR8/Template/Template_Endpoint_RW.c **** 
 1904               		.loc 3 39 2 view .LVU467
  41:./tmk_core/protocol/lufa/LUFA-git/LUFA/Drivers/USB/Core/AVR8/Template/Template_Endpoint_RW.c **** 	  return ErrorCode;
 1905               		.loc 3 41 2 view .LVU468
  41:./tmk_core/protocol/lufa/LUFA-git/LUFA/Drivers/USB/Core/AVR8/Template/Template_Endpoint_RW.c **** 	  return ErrorCode;
 1906               		.loc 3 41 19 is_stmt 0 view .LVU469
 1907 0018 0E94 0000 		call Endpoint_WaitUntilReady
 1908               	.LVL168:
  41:./tmk_core/protocol/lufa/LUFA-git/LUFA/Drivers/USB/Core/AVR8/Template/Template_Endpoint_RW.c **** 	  return ErrorCode;
 1909               		.loc 3 41 19 view .LVU470
 1910 001c D82E      		mov r13,r24
 1911               	.LVL169:
  41:./tmk_core/protocol/lufa/LUFA-git/LUFA/Drivers/USB/Core/AVR8/Template/Template_Endpoint_RW.c **** 	  return ErrorCode;
 1912               		.loc 3 41 5 view .LVU471
 1913 001e 8111      		cpse r24,__zero_reg__
 1914 0020 00C0      		rjmp .L109
  37:./tmk_core/protocol/lufa/LUFA-git/LUFA/Drivers/USB/Core/AVR8/Template/Template_Endpoint_RW.c **** 	uint16_t BytesInTransfer = 0;
 1915               		.loc 3 37 47 view .LVU472
 1916 0022 C801      		movw r24,r16
 1917 0024 0197      		sbiw r24,1
 1918               	.LVL170:
  37:./tmk_core/protocol/lufa/LUFA-git/LUFA/Drivers/USB/Core/AVR8/Template/Template_Endpoint_RW.c **** 	uint16_t BytesInTransfer = 0;
 1919               		.loc 3 37 11 view .LVU473
 1920 0026 C80F      		add r28,r24
 1921 0028 D91F      		adc r29,r25
 1922               	.LVL171:
  44:./tmk_core/protocol/lufa/LUFA-git/LUFA/Drivers/USB/Core/AVR8/Template/Template_Endpoint_RW.c **** 	{
 1923               		.loc 3 44 2 is_stmt 1 view .LVU474
  44:./tmk_core/protocol/lufa/LUFA-git/LUFA/Drivers/USB/Core/AVR8/Template/Template_Endpoint_RW.c **** 	{
 1924               		.loc 3 44 5 is_stmt 0 view .LVU475
 1925 002a E114      		cp r14,__zero_reg__
 1926 002c F104      		cpc r15,__zero_reg__
 1927 002e 01F0      		breq .L111
  46:./tmk_core/protocol/lufa/LUFA-git/LUFA/Drivers/USB/Core/AVR8/Template/Template_Endpoint_RW.c **** 		TEMPLATE_BUFFER_MOVE(DataStream, *BytesProcessed);
 1928               		.loc 3 46 3 is_stmt 1 view .LVU476
  46:./tmk_core/protocol/lufa/LUFA-git/LUFA/Drivers/USB/Core/AVR8/Template/Template_Endpoint_RW.c **** 		TEMPLATE_BUFFER_MOVE(DataStream, *BytesProcessed);
 1929               		.loc 3 46 13 is_stmt 0 view .LVU477
 1930 0030 F701      		movw r30,r14
 1931 0032 8081      		ld r24,Z
 1932 0034 9181      		ldd r25,Z+1
 1933               	.LVL172:
  46:./tmk_core/protocol/lufa/LUFA-git/LUFA/Drivers/USB/Core/AVR8/Template/Template_Endpoint_RW.c **** 		TEMPLATE_BUFFER_MOVE(DataStream, *BytesProcessed);
 1934               		.loc 3 46 10 view .LVU478
 1935 0036 081B      		sub r16,r24
 1936 0038 190B      		sbc r17,r25
 1937               	.LVL173:
  47:./tmk_core/protocol/lufa/LUFA-git/LUFA/Drivers/USB/Core/AVR8/Template/Template_Endpoint_RW.c **** 	}
 1938               		.loc 3 47 3 is_stmt 1 view .LVU479
 1939 003a C81B      		sub r28,r24
 1940 003c D90B      		sbc r29,r25
 1941               	.LVL174:
 1942               	.L111:
  36:./tmk_core/protocol/lufa/LUFA-git/LUFA/Drivers/USB/Core/AVR8/Template/Template_Endpoint_RW.c **** 	uint8_t* DataStream      = ((uint8_t*)Buffer + TEMPLATE_BUFFER_OFFSET(Length));
 1943               		.loc 3 36 1 is_stmt 0 view .LVU480
 1944 003e B12C      		mov r11,__zero_reg__
 1945 0040 A12C      		mov r10,__zero_reg__
 1946               	.LVL175:
 1947               	.L112:
  50:./tmk_core/protocol/lufa/LUFA-git/LUFA/Drivers/USB/Core/AVR8/Template/Template_Endpoint_RW.c **** 	{
 1948               		.loc 3 50 8 is_stmt 1 view .LVU481
 1949 0042 0115      		cp r16,__zero_reg__
 1950 0044 1105      		cpc r17,__zero_reg__
 1951 0046 01F0      		breq .L109
  52:./tmk_core/protocol/lufa/LUFA-git/LUFA/Drivers/USB/Core/AVR8/Template/Template_Endpoint_RW.c **** 		{
 1952               		.loc 3 52 3 view .LVU482
 1953               	.LBB324:
 1954               	.LBI324:
 358:./tmk_core/protocol/lufa/LUFA-git/LUFA/Drivers/USB/Core/AVR8/../AVR8/../AVR8/Endpoint_AVR8.h **** 			{
 1955               		.loc 2 358 23 view .LVU483
 1956               	.LBB325:
 360:./tmk_core/protocol/lufa/LUFA-git/LUFA/Drivers/USB/Core/AVR8/../AVR8/../AVR8/Endpoint_AVR8.h **** 			}
 1957               		.loc 2 360 5 view .LVU484
 360:./tmk_core/protocol/lufa/LUFA-git/LUFA/Drivers/USB/Core/AVR8/../AVR8/../AVR8/Endpoint_AVR8.h **** 			}
 1958               		.loc 2 360 14 is_stmt 0 view .LVU485
 1959 0048 8091 E800 		lds r24,232
 1960               	.LBE325:
 1961               	.LBE324:
  52:./tmk_core/protocol/lufa/LUFA-git/LUFA/Drivers/USB/Core/AVR8/Template/Template_Endpoint_RW.c **** 		{
 1962               		.loc 3 52 6 view .LVU486
 1963 004c 85FD      		sbrc r24,5
 1964 004e 00C0      		rjmp .L113
  54:./tmk_core/protocol/lufa/LUFA-git/LUFA/Drivers/USB/Core/AVR8/Template/Template_Endpoint_RW.c **** 
 1965               		.loc 3 54 4 is_stmt 1 view .LVU487
 1966               	.LBB326:
 1967               	.LBI326:
 453:./tmk_core/protocol/lufa/LUFA-git/LUFA/Drivers/USB/Core/AVR8/../AVR8/../AVR8/Endpoint_AVR8.h **** 			{
 1968               		.loc 2 453 23 view .LVU488
 1969               	.LBB327:
 456:./tmk_core/protocol/lufa/LUFA-git/LUFA/Drivers/USB/Core/AVR8/../AVR8/../AVR8/Endpoint_AVR8.h **** 				#else
 1970               		.loc 2 456 6 view .LVU489
 456:./tmk_core/protocol/lufa/LUFA-git/LUFA/Drivers/USB/Core/AVR8/../AVR8/../AVR8/Endpoint_AVR8.h **** 				#else
 1971               		.loc 2 456 13 is_stmt 0 view .LVU490
 1972 0050 8091 E800 		lds r24,232
 1973 0054 8E77      		andi r24,lo8(126)
 1974 0056 8093 E800 		sts 232,r24
 1975               	.LBE327:
 1976               	.LBE326:
  60:./tmk_core/protocol/lufa/LUFA-git/LUFA/Drivers/USB/Core/AVR8/Template/Template_Endpoint_RW.c **** 			{
 1977               		.loc 3 60 4 is_stmt 1 view .LVU491
  60:./tmk_core/protocol/lufa/LUFA-git/LUFA/Drivers/USB/Core/AVR8/Template/Template_Endpoint_RW.c **** 			{
 1978               		.loc 3 60 7 is_stmt 0 view .LVU492
 1979 005a E114      		cp r14,__zero_reg__
 1980 005c F104      		cpc r15,__zero_reg__
 1981 005e 01F0      		breq .L114
  62:./tmk_core/protocol/lufa/LUFA-git/LUFA/Drivers/USB/Core/AVR8/Template/Template_Endpoint_RW.c **** 				return ENDPOINT_RWSTREAM_IncompleteTransfer;
 1982               		.loc 3 62 5 is_stmt 1 view .LVU493
  62:./tmk_core/protocol/lufa/LUFA-git/LUFA/Drivers/USB/Core/AVR8/Template/Template_Endpoint_RW.c **** 				return ENDPOINT_RWSTREAM_IncompleteTransfer;
 1983               		.loc 3 62 21 is_stmt 0 view .LVU494
 1984 0060 F701      		movw r30,r14
 1985 0062 8081      		ld r24,Z
 1986 0064 9181      		ldd r25,Z+1
 1987 0066 A80E      		add r10,r24
 1988 0068 B91E      		adc r11,r25
 1989               	.LVL176:
  62:./tmk_core/protocol/lufa/LUFA-git/LUFA/Drivers/USB/Core/AVR8/Template/Template_Endpoint_RW.c **** 				return ENDPOINT_RWSTREAM_IncompleteTransfer;
 1990               		.loc 3 62 21 view .LVU495
 1991 006a B182      		std Z+1,r11
 1992 006c A082      		st Z,r10
  63:./tmk_core/protocol/lufa/LUFA-git/LUFA/Drivers/USB/Core/AVR8/Template/Template_Endpoint_RW.c **** 			}
 1993               		.loc 3 63 5 is_stmt 1 view .LVU496
  63:./tmk_core/protocol/lufa/LUFA-git/LUFA/Drivers/USB/Core/AVR8/Template/Template_Endpoint_RW.c **** 			}
 1994               		.loc 3 63 12 is_stmt 0 view .LVU497
 1995 006e 85E0      		ldi r24,lo8(5)
 1996 0070 D82E      		mov r13,r24
 1997               	.LVL177:
 1998               	.L109:
 1999               		.loc 3 79 1 view .LVU498
 2000 0072 8D2D      		mov r24,r13
 2001               	/* epilogue start */
 2002 0074 DF91      		pop r29
 2003 0076 CF91      		pop r28
 2004 0078 1F91      		pop r17
 2005 007a 0F91      		pop r16
 2006               	.LVL178:
 2007               		.loc 3 79 1 view .LVU499
 2008 007c FF90      		pop r15
 2009 007e EF90      		pop r14
 2010               	.LVL179:
 2011               		.loc 3 79 1 view .LVU500
 2012 0080 DF90      		pop r13
 2013 0082 BF90      		pop r11
 2014 0084 AF90      		pop r10
 2015 0086 0895      		ret
 2016               	.LVL180:
 2017               	.L114:
  66:./tmk_core/protocol/lufa/LUFA-git/LUFA/Drivers/USB/Core/AVR8/Template/Template_Endpoint_RW.c **** 			  return ErrorCode;
 2018               		.loc 3 66 4 is_stmt 1 view .LVU501
  66:./tmk_core/protocol/lufa/LUFA-git/LUFA/Drivers/USB/Core/AVR8/Template/Template_Endpoint_RW.c **** 			  return ErrorCode;
 2019               		.loc 3 66 21 is_stmt 0 view .LVU502
 2020 0088 0E94 0000 		call Endpoint_WaitUntilReady
 2021               	.LVL181:
  66:./tmk_core/protocol/lufa/LUFA-git/LUFA/Drivers/USB/Core/AVR8/Template/Template_Endpoint_RW.c **** 			  return ErrorCode;
 2022               		.loc 3 66 7 view .LVU503
 2023 008c 8823      		tst r24
 2024 008e 01F0      		breq .L112
 2025 0090 D82E      		mov r13,r24
 2026 0092 00C0      		rjmp .L109
 2027               	.LVL182:
 2028               	.L113:
  71:./tmk_core/protocol/lufa/LUFA-git/LUFA/Drivers/USB/Core/AVR8/Template/Template_Endpoint_RW.c **** 			TEMPLATE_BUFFER_MOVE(DataStream, 1);
 2029               		.loc 3 71 4 is_stmt 1 view .LVU504
 2030 0094 CE01      		movw r24,r28
 2031 0096 0E94 0000 		call eeprom_read_byte
 2032               	.LVL183:
 2033               	.LBB328:
 2034               	.LBI328:
 552:./tmk_core/protocol/lufa/LUFA-git/LUFA/Drivers/USB/Core/AVR8/../AVR8/../AVR8/Endpoint_AVR8.h **** 			{
 2035               		.loc 2 552 23 view .LVU505
 2036               	.LBB329:
 554:./tmk_core/protocol/lufa/LUFA-git/LUFA/Drivers/USB/Core/AVR8/../AVR8/../AVR8/Endpoint_AVR8.h **** 			}
 2037               		.loc 2 554 5 view .LVU506
 554:./tmk_core/protocol/lufa/LUFA-git/LUFA/Drivers/USB/Core/AVR8/../AVR8/../AVR8/Endpoint_AVR8.h **** 			}
 2038               		.loc 2 554 12 is_stmt 0 view .LVU507
 2039 009a 8093 F100 		sts 241,r24
 2040               	.LVL184:
 554:./tmk_core/protocol/lufa/LUFA-git/LUFA/Drivers/USB/Core/AVR8/../AVR8/../AVR8/Endpoint_AVR8.h **** 			}
 2041               		.loc 2 554 12 view .LVU508
 2042               	.LBE329:
 2043               	.LBE328:
  72:./tmk_core/protocol/lufa/LUFA-git/LUFA/Drivers/USB/Core/AVR8/Template/Template_Endpoint_RW.c **** 			Length--;
 2044               		.loc 3 72 4 is_stmt 1 view .LVU509
 2045 009e 2197      		sbiw r28,1
 2046               	.LVL185:
  73:./tmk_core/protocol/lufa/LUFA-git/LUFA/Drivers/USB/Core/AVR8/Template/Template_Endpoint_RW.c **** 			BytesInTransfer++;
 2047               		.loc 3 73 4 view .LVU510
  73:./tmk_core/protocol/lufa/LUFA-git/LUFA/Drivers/USB/Core/AVR8/Template/Template_Endpoint_RW.c **** 			BytesInTransfer++;
 2048               		.loc 3 73 10 is_stmt 0 view .LVU511
 2049 00a0 0150      		subi r16,1
 2050 00a2 1109      		sbc r17,__zero_reg__
 2051               	.LVL186:
  74:./tmk_core/protocol/lufa/LUFA-git/LUFA/Drivers/USB/Core/AVR8/Template/Template_Endpoint_RW.c **** 		}
 2052               		.loc 3 74 4 is_stmt 1 view .LVU512
  74:./tmk_core/protocol/lufa/LUFA-git/LUFA/Drivers/USB/Core/AVR8/Template/Template_Endpoint_RW.c **** 		}
 2053               		.loc 3 74 19 is_stmt 0 view .LVU513
 2054 00a4 FFEF      		ldi r31,-1
 2055 00a6 AF1A      		sub r10,r31
 2056 00a8 BF0A      		sbc r11,r31
 2057               	.LVL187:
  74:./tmk_core/protocol/lufa/LUFA-git/LUFA/Drivers/USB/Core/AVR8/Template/Template_Endpoint_RW.c **** 		}
 2058               		.loc 3 74 19 view .LVU514
 2059 00aa 00C0      		rjmp .L112
 2060               		.cfi_endproc
 2061               	.LFE94:
 2063               		.section	.text.Endpoint_Read_EStream_LE,"ax",@progbits
 2064               	.global	Endpoint_Read_EStream_LE
 2066               	Endpoint_Read_EStream_LE:
 2067               	.LVL188:
 2068               	.LFB95:
  36:./tmk_core/protocol/lufa/LUFA-git/LUFA/Drivers/USB/Core/AVR8/Template/Template_Endpoint_RW.c **** 	uint8_t* DataStream      = ((uint8_t*)Buffer + TEMPLATE_BUFFER_OFFSET(Length));
 2069               		.loc 3 36 1 is_stmt 1 view -0
 2070               		.cfi_startproc
  36:./tmk_core/protocol/lufa/LUFA-git/LUFA/Drivers/USB/Core/AVR8/Template/Template_Endpoint_RW.c **** 	uint8_t* DataStream      = ((uint8_t*)Buffer + TEMPLATE_BUFFER_OFFSET(Length));
 2071               		.loc 3 36 1 is_stmt 0 view .LVU516
 2072 0000 AF92      		push r10
 2073               	.LCFI86:
 2074               		.cfi_def_cfa_offset 3
 2075               		.cfi_offset 10, -2
 2076 0002 BF92      		push r11
 2077               	.LCFI87:
 2078               		.cfi_def_cfa_offset 4
 2079               		.cfi_offset 11, -3
 2080 0004 DF92      		push r13
 2081               	.LCFI88:
 2082               		.cfi_def_cfa_offset 5
 2083               		.cfi_offset 13, -4
 2084 0006 EF92      		push r14
 2085               	.LCFI89:
 2086               		.cfi_def_cfa_offset 6
 2087               		.cfi_offset 14, -5
 2088 0008 FF92      		push r15
 2089               	.LCFI90:
 2090               		.cfi_def_cfa_offset 7
 2091               		.cfi_offset 15, -6
 2092 000a 0F93      		push r16
 2093               	.LCFI91:
 2094               		.cfi_def_cfa_offset 8
 2095               		.cfi_offset 16, -7
 2096 000c 1F93      		push r17
 2097               	.LCFI92:
 2098               		.cfi_def_cfa_offset 9
 2099               		.cfi_offset 17, -8
 2100 000e CF93      		push r28
 2101               	.LCFI93:
 2102               		.cfi_def_cfa_offset 10
 2103               		.cfi_offset 28, -9
 2104 0010 DF93      		push r29
 2105               	.LCFI94:
 2106               		.cfi_def_cfa_offset 11
 2107               		.cfi_offset 29, -10
 2108               	/* prologue: function */
 2109               	/* frame size = 0 */
 2110               	/* stack size = 9 */
 2111               	.L__stack_usage = 9
 2112 0012 8C01      		movw r16,r24
 2113 0014 EB01      		movw r28,r22
 2114 0016 7A01      		movw r14,r20
  37:./tmk_core/protocol/lufa/LUFA-git/LUFA/Drivers/USB/Core/AVR8/Template/Template_Endpoint_RW.c **** 	uint16_t BytesInTransfer = 0;
 2115               		.loc 3 37 2 is_stmt 1 view .LVU517
 2116               	.LVL189:
  38:./tmk_core/protocol/lufa/LUFA-git/LUFA/Drivers/USB/Core/AVR8/Template/Template_Endpoint_RW.c **** 	uint8_t  ErrorCode;
 2117               		.loc 3 38 2 view .LVU518
  39:./tmk_core/protocol/lufa/LUFA-git/LUFA/Drivers/USB/Core/AVR8/Template/Template_Endpoint_RW.c **** 
 2118               		.loc 3 39 2 view .LVU519
  41:./tmk_core/protocol/lufa/LUFA-git/LUFA/Drivers/USB/Core/AVR8/Template/Template_Endpoint_RW.c **** 	  return ErrorCode;
 2119               		.loc 3 41 2 view .LVU520
  41:./tmk_core/protocol/lufa/LUFA-git/LUFA/Drivers/USB/Core/AVR8/Template/Template_Endpoint_RW.c **** 	  return ErrorCode;
 2120               		.loc 3 41 19 is_stmt 0 view .LVU521
 2121 0018 0E94 0000 		call Endpoint_WaitUntilReady
 2122               	.LVL190:
  41:./tmk_core/protocol/lufa/LUFA-git/LUFA/Drivers/USB/Core/AVR8/Template/Template_Endpoint_RW.c **** 	  return ErrorCode;
 2123               		.loc 3 41 19 view .LVU522
 2124 001c D82E      		mov r13,r24
 2125               	.LVL191:
  41:./tmk_core/protocol/lufa/LUFA-git/LUFA/Drivers/USB/Core/AVR8/Template/Template_Endpoint_RW.c **** 	  return ErrorCode;
 2126               		.loc 3 41 5 view .LVU523
 2127 001e 8111      		cpse r24,__zero_reg__
 2128 0020 00C0      		rjmp .L121
  44:./tmk_core/protocol/lufa/LUFA-git/LUFA/Drivers/USB/Core/AVR8/Template/Template_Endpoint_RW.c **** 	{
 2129               		.loc 3 44 2 is_stmt 1 view .LVU524
  44:./tmk_core/protocol/lufa/LUFA-git/LUFA/Drivers/USB/Core/AVR8/Template/Template_Endpoint_RW.c **** 	{
 2130               		.loc 3 44 5 is_stmt 0 view .LVU525
 2131 0022 E114      		cp r14,__zero_reg__
 2132 0024 F104      		cpc r15,__zero_reg__
 2133 0026 01F0      		breq .L123
  46:./tmk_core/protocol/lufa/LUFA-git/LUFA/Drivers/USB/Core/AVR8/Template/Template_Endpoint_RW.c **** 		TEMPLATE_BUFFER_MOVE(DataStream, *BytesProcessed);
 2134               		.loc 3 46 3 is_stmt 1 view .LVU526
  46:./tmk_core/protocol/lufa/LUFA-git/LUFA/Drivers/USB/Core/AVR8/Template/Template_Endpoint_RW.c **** 		TEMPLATE_BUFFER_MOVE(DataStream, *BytesProcessed);
 2135               		.loc 3 46 13 is_stmt 0 view .LVU527
 2136 0028 F701      		movw r30,r14
 2137 002a 8081      		ld r24,Z
 2138 002c 9181      		ldd r25,Z+1
  46:./tmk_core/protocol/lufa/LUFA-git/LUFA/Drivers/USB/Core/AVR8/Template/Template_Endpoint_RW.c **** 		TEMPLATE_BUFFER_MOVE(DataStream, *BytesProcessed);
 2139               		.loc 3 46 10 view .LVU528
 2140 002e C81B      		sub r28,r24
 2141 0030 D90B      		sbc r29,r25
 2142               	.LVL192:
  47:./tmk_core/protocol/lufa/LUFA-git/LUFA/Drivers/USB/Core/AVR8/Template/Template_Endpoint_RW.c **** 	}
 2143               		.loc 3 47 3 is_stmt 1 view .LVU529
 2144 0032 080F      		add r16,r24
 2145 0034 191F      		adc r17,r25
 2146               	.LVL193:
 2147               	.L123:
  36:./tmk_core/protocol/lufa/LUFA-git/LUFA/Drivers/USB/Core/AVR8/Template/Template_Endpoint_RW.c **** 	uint8_t* DataStream      = ((uint8_t*)Buffer + TEMPLATE_BUFFER_OFFSET(Length));
 2148               		.loc 3 36 1 is_stmt 0 view .LVU530
 2149 0036 B12C      		mov r11,__zero_reg__
 2150 0038 A12C      		mov r10,__zero_reg__
 2151               	.LVL194:
 2152               	.L124:
  50:./tmk_core/protocol/lufa/LUFA-git/LUFA/Drivers/USB/Core/AVR8/Template/Template_Endpoint_RW.c **** 	{
 2153               		.loc 3 50 8 is_stmt 1 view .LVU531
 2154 003a 2097      		sbiw r28,0
 2155 003c 01F0      		breq .L121
  52:./tmk_core/protocol/lufa/LUFA-git/LUFA/Drivers/USB/Core/AVR8/Template/Template_Endpoint_RW.c **** 		{
 2156               		.loc 3 52 3 view .LVU532
 2157               	.LBB330:
 2158               	.LBI330:
 358:./tmk_core/protocol/lufa/LUFA-git/LUFA/Drivers/USB/Core/AVR8/../AVR8/../AVR8/Endpoint_AVR8.h **** 			{
 2159               		.loc 2 358 23 view .LVU533
 2160               	.LBB331:
 360:./tmk_core/protocol/lufa/LUFA-git/LUFA/Drivers/USB/Core/AVR8/../AVR8/../AVR8/Endpoint_AVR8.h **** 			}
 2161               		.loc 2 360 5 view .LVU534
 360:./tmk_core/protocol/lufa/LUFA-git/LUFA/Drivers/USB/Core/AVR8/../AVR8/../AVR8/Endpoint_AVR8.h **** 			}
 2162               		.loc 2 360 14 is_stmt 0 view .LVU535
 2163 003e 8091 E800 		lds r24,232
 2164               	.LBE331:
 2165               	.LBE330:
  52:./tmk_core/protocol/lufa/LUFA-git/LUFA/Drivers/USB/Core/AVR8/Template/Template_Endpoint_RW.c **** 		{
 2166               		.loc 3 52 6 view .LVU536
 2167 0042 85FD      		sbrc r24,5
 2168 0044 00C0      		rjmp .L125
  54:./tmk_core/protocol/lufa/LUFA-git/LUFA/Drivers/USB/Core/AVR8/Template/Template_Endpoint_RW.c **** 
 2169               		.loc 3 54 4 is_stmt 1 view .LVU537
 2170               	.LBB332:
 2171               	.LBI332:
 468:./tmk_core/protocol/lufa/LUFA-git/LUFA/Drivers/USB/Core/AVR8/../AVR8/../AVR8/Endpoint_AVR8.h **** 			{
 2172               		.loc 2 468 23 view .LVU538
 2173               	.LBB333:
 471:./tmk_core/protocol/lufa/LUFA-git/LUFA/Drivers/USB/Core/AVR8/../AVR8/../AVR8/Endpoint_AVR8.h **** 				#else
 2174               		.loc 2 471 6 view .LVU539
 471:./tmk_core/protocol/lufa/LUFA-git/LUFA/Drivers/USB/Core/AVR8/../AVR8/../AVR8/Endpoint_AVR8.h **** 				#else
 2175               		.loc 2 471 13 is_stmt 0 view .LVU540
 2176 0046 8091 E800 		lds r24,232
 2177 004a 8B77      		andi r24,lo8(123)
 2178 004c 8093 E800 		sts 232,r24
 2179               	.LBE333:
 2180               	.LBE332:
  60:./tmk_core/protocol/lufa/LUFA-git/LUFA/Drivers/USB/Core/AVR8/Template/Template_Endpoint_RW.c **** 			{
 2181               		.loc 3 60 4 is_stmt 1 view .LVU541
  60:./tmk_core/protocol/lufa/LUFA-git/LUFA/Drivers/USB/Core/AVR8/Template/Template_Endpoint_RW.c **** 			{
 2182               		.loc 3 60 7 is_stmt 0 view .LVU542
 2183 0050 E114      		cp r14,__zero_reg__
 2184 0052 F104      		cpc r15,__zero_reg__
 2185 0054 01F0      		breq .L126
  62:./tmk_core/protocol/lufa/LUFA-git/LUFA/Drivers/USB/Core/AVR8/Template/Template_Endpoint_RW.c **** 				return ENDPOINT_RWSTREAM_IncompleteTransfer;
 2186               		.loc 3 62 5 is_stmt 1 view .LVU543
  62:./tmk_core/protocol/lufa/LUFA-git/LUFA/Drivers/USB/Core/AVR8/Template/Template_Endpoint_RW.c **** 				return ENDPOINT_RWSTREAM_IncompleteTransfer;
 2187               		.loc 3 62 21 is_stmt 0 view .LVU544
 2188 0056 F701      		movw r30,r14
 2189 0058 8081      		ld r24,Z
 2190 005a 9181      		ldd r25,Z+1
 2191 005c A80E      		add r10,r24
 2192 005e B91E      		adc r11,r25
 2193               	.LVL195:
  62:./tmk_core/protocol/lufa/LUFA-git/LUFA/Drivers/USB/Core/AVR8/Template/Template_Endpoint_RW.c **** 				return ENDPOINT_RWSTREAM_IncompleteTransfer;
 2194               		.loc 3 62 21 view .LVU545
 2195 0060 B182      		std Z+1,r11
 2196 0062 A082      		st Z,r10
  63:./tmk_core/protocol/lufa/LUFA-git/LUFA/Drivers/USB/Core/AVR8/Template/Template_Endpoint_RW.c **** 			}
 2197               		.loc 3 63 5 is_stmt 1 view .LVU546
  63:./tmk_core/protocol/lufa/LUFA-git/LUFA/Drivers/USB/Core/AVR8/Template/Template_Endpoint_RW.c **** 			}
 2198               		.loc 3 63 12 is_stmt 0 view .LVU547
 2199 0064 85E0      		ldi r24,lo8(5)
 2200 0066 D82E      		mov r13,r24
 2201               	.L121:
 2202               		.loc 3 79 1 view .LVU548
 2203 0068 8D2D      		mov r24,r13
 2204               	/* epilogue start */
 2205 006a DF91      		pop r29
 2206 006c CF91      		pop r28
 2207               	.LVL196:
 2208               		.loc 3 79 1 view .LVU549
 2209 006e 1F91      		pop r17
 2210 0070 0F91      		pop r16
 2211               	.LVL197:
 2212               		.loc 3 79 1 view .LVU550
 2213 0072 FF90      		pop r15
 2214 0074 EF90      		pop r14
 2215               	.LVL198:
 2216               		.loc 3 79 1 view .LVU551
 2217 0076 DF90      		pop r13
 2218 0078 BF90      		pop r11
 2219 007a AF90      		pop r10
 2220 007c 0895      		ret
 2221               	.LVL199:
 2222               	.L126:
  66:./tmk_core/protocol/lufa/LUFA-git/LUFA/Drivers/USB/Core/AVR8/Template/Template_Endpoint_RW.c **** 			  return ErrorCode;
 2223               		.loc 3 66 4 is_stmt 1 view .LVU552
  66:./tmk_core/protocol/lufa/LUFA-git/LUFA/Drivers/USB/Core/AVR8/Template/Template_Endpoint_RW.c **** 			  return ErrorCode;
 2224               		.loc 3 66 21 is_stmt 0 view .LVU553
 2225 007e 0E94 0000 		call Endpoint_WaitUntilReady
 2226               	.LVL200:
  66:./tmk_core/protocol/lufa/LUFA-git/LUFA/Drivers/USB/Core/AVR8/Template/Template_Endpoint_RW.c **** 			  return ErrorCode;
 2227               		.loc 3 66 7 view .LVU554
 2228 0082 8823      		tst r24
 2229 0084 01F0      		breq .L124
 2230 0086 D82E      		mov r13,r24
 2231 0088 00C0      		rjmp .L121
 2232               	.LVL201:
 2233               	.L125:
  71:./tmk_core/protocol/lufa/LUFA-git/LUFA/Drivers/USB/Core/AVR8/Template/Template_Endpoint_RW.c **** 			TEMPLATE_BUFFER_MOVE(DataStream, 1);
 2234               		.loc 3 71 4 is_stmt 1 view .LVU555
 2235               	.LBB334:
 2236               	.LBI334:
 540:./tmk_core/protocol/lufa/LUFA-git/LUFA/Drivers/USB/Core/AVR8/../AVR8/../AVR8/Endpoint_AVR8.h **** 			{
 2237               		.loc 2 540 26 view .LVU556
 2238               	.LBB335:
 542:./tmk_core/protocol/lufa/LUFA-git/LUFA/Drivers/USB/Core/AVR8/../AVR8/../AVR8/Endpoint_AVR8.h **** 			}
 2239               		.loc 2 542 5 view .LVU557
 542:./tmk_core/protocol/lufa/LUFA-git/LUFA/Drivers/USB/Core/AVR8/../AVR8/../AVR8/Endpoint_AVR8.h **** 			}
 2240               		.loc 2 542 12 is_stmt 0 view .LVU558
 2241 008a 6091 F100 		lds r22,241
 2242               	.LBE335:
 2243               	.LBE334:
  71:./tmk_core/protocol/lufa/LUFA-git/LUFA/Drivers/USB/Core/AVR8/Template/Template_Endpoint_RW.c **** 			TEMPLATE_BUFFER_MOVE(DataStream, 1);
 2244               		.loc 3 71 4 view .LVU559
 2245 008e C801      		movw r24,r16
 2246 0090 0E94 0000 		call eeprom_update_byte
 2247               	.LVL202:
  72:./tmk_core/protocol/lufa/LUFA-git/LUFA/Drivers/USB/Core/AVR8/Template/Template_Endpoint_RW.c **** 			Length--;
 2248               		.loc 3 72 4 is_stmt 1 view .LVU560
 2249 0094 0F5F      		subi r16,-1
 2250 0096 1F4F      		sbci r17,-1
 2251               	.LVL203:
  73:./tmk_core/protocol/lufa/LUFA-git/LUFA/Drivers/USB/Core/AVR8/Template/Template_Endpoint_RW.c **** 			BytesInTransfer++;
 2252               		.loc 3 73 4 view .LVU561
  73:./tmk_core/protocol/lufa/LUFA-git/LUFA/Drivers/USB/Core/AVR8/Template/Template_Endpoint_RW.c **** 			BytesInTransfer++;
 2253               		.loc 3 73 10 is_stmt 0 view .LVU562
 2254 0098 2197      		sbiw r28,1
 2255               	.LVL204:
  74:./tmk_core/protocol/lufa/LUFA-git/LUFA/Drivers/USB/Core/AVR8/Template/Template_Endpoint_RW.c **** 		}
 2256               		.loc 3 74 4 is_stmt 1 view .LVU563
  74:./tmk_core/protocol/lufa/LUFA-git/LUFA/Drivers/USB/Core/AVR8/Template/Template_Endpoint_RW.c **** 		}
 2257               		.loc 3 74 19 is_stmt 0 view .LVU564
 2258 009a FFEF      		ldi r31,-1
 2259 009c AF1A      		sub r10,r31
 2260 009e BF0A      		sbc r11,r31
 2261               	.LVL205:
  74:./tmk_core/protocol/lufa/LUFA-git/LUFA/Drivers/USB/Core/AVR8/Template/Template_Endpoint_RW.c **** 		}
 2262               		.loc 3 74 19 view .LVU565
 2263 00a0 00C0      		rjmp .L124
 2264               		.cfi_endproc
 2265               	.LFE95:
 2267               		.section	.text.Endpoint_Read_EStream_BE,"ax",@progbits
 2268               	.global	Endpoint_Read_EStream_BE
 2270               	Endpoint_Read_EStream_BE:
 2271               	.LVL206:
 2272               	.LFB96:
  36:./tmk_core/protocol/lufa/LUFA-git/LUFA/Drivers/USB/Core/AVR8/Template/Template_Endpoint_RW.c **** 	uint8_t* DataStream      = ((uint8_t*)Buffer + TEMPLATE_BUFFER_OFFSET(Length));
 2273               		.loc 3 36 1 is_stmt 1 view -0
 2274               		.cfi_startproc
  36:./tmk_core/protocol/lufa/LUFA-git/LUFA/Drivers/USB/Core/AVR8/Template/Template_Endpoint_RW.c **** 	uint8_t* DataStream      = ((uint8_t*)Buffer + TEMPLATE_BUFFER_OFFSET(Length));
 2275               		.loc 3 36 1 is_stmt 0 view .LVU567
 2276 0000 AF92      		push r10
 2277               	.LCFI95:
 2278               		.cfi_def_cfa_offset 3
 2279               		.cfi_offset 10, -2
 2280 0002 BF92      		push r11
 2281               	.LCFI96:
 2282               		.cfi_def_cfa_offset 4
 2283               		.cfi_offset 11, -3
 2284 0004 DF92      		push r13
 2285               	.LCFI97:
 2286               		.cfi_def_cfa_offset 5
 2287               		.cfi_offset 13, -4
 2288 0006 EF92      		push r14
 2289               	.LCFI98:
 2290               		.cfi_def_cfa_offset 6
 2291               		.cfi_offset 14, -5
 2292 0008 FF92      		push r15
 2293               	.LCFI99:
 2294               		.cfi_def_cfa_offset 7
 2295               		.cfi_offset 15, -6
 2296 000a 0F93      		push r16
 2297               	.LCFI100:
 2298               		.cfi_def_cfa_offset 8
