   1               		.file	"keymap_common.c"
   2               	__SP_H__ = 0x3e
   3               	__SP_L__ = 0x3d
   4               	__SREG__ = 0x3f
   5               	__tmp_reg__ = 0
   6               	__zero_reg__ = 1
   7               		.text
   8               	.Ltext0:
   9               		.cfi_sections	.debug_frame
  10               		.section	.text.action_get_macro,"ax",@progbits
  11               		.weak	action_get_macro
  13               	action_get_macro:
  14               	.LVL0:
  15               	.LFB108:
  16               		.file 1 "quantum/keymap_common.c"
   1:quantum/keymap_common.c **** /*
   2:quantum/keymap_common.c **** Copyright 2012,2013 Jun Wako <wakojun@gmail.com>
   3:quantum/keymap_common.c **** 
   4:quantum/keymap_common.c **** This program is free software: you can redistribute it and/or modify
   5:quantum/keymap_common.c **** it under the terms of the GNU General Public License as published by
   6:quantum/keymap_common.c **** the Free Software Foundation, either version 2 of the License, or
   7:quantum/keymap_common.c **** (at your option) any later version.
   8:quantum/keymap_common.c **** 
   9:quantum/keymap_common.c **** This program is distributed in the hope that it will be useful,
  10:quantum/keymap_common.c **** but WITHOUT ANY WARRANTY; without even the implied warranty of
  11:quantum/keymap_common.c **** MERCHANTABILITY or FITNESS FOR A PARTICULAR PURPOSE.  See the
  12:quantum/keymap_common.c **** GNU General Public License for more details.
  13:quantum/keymap_common.c **** 
  14:quantum/keymap_common.c **** You should have received a copy of the GNU General Public License
  15:quantum/keymap_common.c **** along with this program.  If not, see <http://www.gnu.org/licenses/>.
  16:quantum/keymap_common.c **** */
  17:quantum/keymap_common.c **** 
  18:quantum/keymap_common.c **** #include "keymap.h"
  19:quantum/keymap_common.c **** #include "report.h"
  20:quantum/keymap_common.c **** #include "keycode.h"
  21:quantum/keymap_common.c **** #include "action_layer.h"
  22:quantum/keymap_common.c **** #if defined(__AVR__)
  23:quantum/keymap_common.c **** #include <util/delay.h>
  24:quantum/keymap_common.c **** #include <stdio.h>
  25:quantum/keymap_common.c **** #endif
  26:quantum/keymap_common.c **** #include "action.h"
  27:quantum/keymap_common.c **** #include "action_macro.h"
  28:quantum/keymap_common.c **** #include "debug.h"
  29:quantum/keymap_common.c **** #include "backlight.h"
  30:quantum/keymap_common.c **** #include "quantum.h"
  31:quantum/keymap_common.c **** 
  32:quantum/keymap_common.c **** #ifdef MIDI_ENABLE
  33:quantum/keymap_common.c **** 	#include "process_midi.h"
  34:quantum/keymap_common.c **** #endif
  35:quantum/keymap_common.c **** 
  36:quantum/keymap_common.c **** extern keymap_config_t keymap_config;
  37:quantum/keymap_common.c **** 
  38:quantum/keymap_common.c **** #include <inttypes.h>
  39:quantum/keymap_common.c **** 
  40:quantum/keymap_common.c **** /* converts key to action */
  41:quantum/keymap_common.c **** action_t action_for_key(uint8_t layer, keypos_t key)
  42:quantum/keymap_common.c **** {
  43:quantum/keymap_common.c ****     // 16bit keycodes - important
  44:quantum/keymap_common.c ****     uint16_t keycode = keymap_key_to_keycode(layer, key);
  45:quantum/keymap_common.c **** 
  46:quantum/keymap_common.c ****     // keycode remapping
  47:quantum/keymap_common.c ****     keycode = keycode_config(keycode);
  48:quantum/keymap_common.c **** 
  49:quantum/keymap_common.c ****     action_t action;
  50:quantum/keymap_common.c ****     uint8_t action_layer, when, mod;
  51:quantum/keymap_common.c **** 
  52:quantum/keymap_common.c ****     switch (keycode) {
  53:quantum/keymap_common.c ****         case KC_FN0 ... KC_FN31:
  54:quantum/keymap_common.c ****             action.code = keymap_function_id_to_action(FN_INDEX(keycode));
  55:quantum/keymap_common.c ****             break;
  56:quantum/keymap_common.c ****         case KC_A ... KC_EXSEL:
  57:quantum/keymap_common.c ****         case KC_LCTRL ... KC_RGUI:
  58:quantum/keymap_common.c ****             action.code = ACTION_KEY(keycode);
  59:quantum/keymap_common.c ****             break;
  60:quantum/keymap_common.c ****         case KC_SYSTEM_POWER ... KC_SYSTEM_WAKE:
  61:quantum/keymap_common.c ****             action.code = ACTION_USAGE_SYSTEM(KEYCODE2SYSTEM(keycode));
  62:quantum/keymap_common.c ****             break;
  63:quantum/keymap_common.c ****         case KC_AUDIO_MUTE ... KC_MEDIA_REWIND:
  64:quantum/keymap_common.c ****             action.code = ACTION_USAGE_CONSUMER(KEYCODE2CONSUMER(keycode));
  65:quantum/keymap_common.c ****             break;
  66:quantum/keymap_common.c ****         case KC_MS_UP ... KC_MS_ACCEL2:
  67:quantum/keymap_common.c ****             action.code = ACTION_MOUSEKEY(keycode);
  68:quantum/keymap_common.c ****             break;
  69:quantum/keymap_common.c ****         case KC_TRNS:
  70:quantum/keymap_common.c ****             action.code = ACTION_TRANSPARENT;
  71:quantum/keymap_common.c ****             break;
  72:quantum/keymap_common.c ****         case QK_MODS ... QK_MODS_MAX: ;
  73:quantum/keymap_common.c ****             // Has a modifier
  74:quantum/keymap_common.c ****             // Split it up
  75:quantum/keymap_common.c ****             action.code = ACTION_MODS_KEY(keycode >> 8, keycode & 0xFF); // adds modifier to key
  76:quantum/keymap_common.c ****             break;
  77:quantum/keymap_common.c ****         case QK_FUNCTION ... QK_FUNCTION_MAX: ;
  78:quantum/keymap_common.c ****             // Is a shortcut for function action_layer, pull last 12bits
  79:quantum/keymap_common.c ****             // This means we have 4,096 FN macros at our disposal
  80:quantum/keymap_common.c ****             action.code = keymap_function_id_to_action( (int)keycode & 0xFFF );
  81:quantum/keymap_common.c ****             break;
  82:quantum/keymap_common.c ****         case QK_MACRO ... QK_MACRO_MAX:
  83:quantum/keymap_common.c ****             action.code = ACTION_MACRO(keycode & 0xFF);
  84:quantum/keymap_common.c ****             break;
  85:quantum/keymap_common.c ****         case QK_LAYER_TAP ... QK_LAYER_TAP_MAX:
  86:quantum/keymap_common.c ****             action.code = ACTION_LAYER_TAP_KEY((keycode >> 0x8) & 0xF, keycode & 0xFF);
  87:quantum/keymap_common.c ****             break;
  88:quantum/keymap_common.c ****         case QK_TO ... QK_TO_MAX: ;
  89:quantum/keymap_common.c ****             // Layer set "GOTO"
  90:quantum/keymap_common.c ****             when = (keycode >> 0x4) & 0x3;
  91:quantum/keymap_common.c ****             action_layer = keycode & 0xF;
  92:quantum/keymap_common.c ****             action.code = ACTION_LAYER_SET(action_layer, when);
  93:quantum/keymap_common.c ****             break;
  94:quantum/keymap_common.c ****         case QK_MOMENTARY ... QK_MOMENTARY_MAX: ;
  95:quantum/keymap_common.c ****             // Momentary action_layer
  96:quantum/keymap_common.c ****             action_layer = keycode & 0xFF;
  97:quantum/keymap_common.c ****             action.code = ACTION_LAYER_MOMENTARY(action_layer);
  98:quantum/keymap_common.c ****             break;
  99:quantum/keymap_common.c ****         case QK_DEF_LAYER ... QK_DEF_LAYER_MAX: ;
 100:quantum/keymap_common.c ****             // Set default action_layer
 101:quantum/keymap_common.c ****             action_layer = keycode & 0xFF;
 102:quantum/keymap_common.c ****             action.code = ACTION_DEFAULT_LAYER_SET(action_layer);
 103:quantum/keymap_common.c ****             break;
 104:quantum/keymap_common.c ****         case QK_TOGGLE_LAYER ... QK_TOGGLE_LAYER_MAX: ;
 105:quantum/keymap_common.c ****             // Set toggle
 106:quantum/keymap_common.c ****             action_layer = keycode & 0xFF;
 107:quantum/keymap_common.c ****             action.code = ACTION_LAYER_TOGGLE(action_layer);
 108:quantum/keymap_common.c ****             break;
 109:quantum/keymap_common.c ****         case QK_ONE_SHOT_LAYER ... QK_ONE_SHOT_LAYER_MAX: ;
 110:quantum/keymap_common.c ****             // OSL(action_layer) - One-shot action_layer
 111:quantum/keymap_common.c ****             action_layer = keycode & 0xFF;
 112:quantum/keymap_common.c ****             action.code = ACTION_LAYER_ONESHOT(action_layer);
 113:quantum/keymap_common.c ****             break;
 114:quantum/keymap_common.c ****         case QK_ONE_SHOT_MOD ... QK_ONE_SHOT_MOD_MAX: ;
 115:quantum/keymap_common.c ****             // OSM(mod) - One-shot mod
 116:quantum/keymap_common.c ****             mod = keycode & 0xFF;
 117:quantum/keymap_common.c ****             action.code = ACTION_MODS_ONESHOT(mod);
 118:quantum/keymap_common.c ****             break;
 119:quantum/keymap_common.c ****         case QK_MOD_TAP ... QK_MOD_TAP_MAX:
 120:quantum/keymap_common.c ****             action.code = ACTION_MODS_TAP_KEY((keycode >> 0x8) & 0xF, keycode & 0xFF);
 121:quantum/keymap_common.c ****             break;
 122:quantum/keymap_common.c ****     #ifdef BACKLIGHT_ENABLE
 123:quantum/keymap_common.c ****         case BL_0 ... BL_15:
 124:quantum/keymap_common.c ****             action.code = ACTION_BACKLIGHT_LEVEL(keycode - BL_0);
 125:quantum/keymap_common.c ****             break;
 126:quantum/keymap_common.c ****         case BL_DEC:
 127:quantum/keymap_common.c ****             action.code = ACTION_BACKLIGHT_DECREASE();
 128:quantum/keymap_common.c ****             break;
 129:quantum/keymap_common.c ****         case BL_INC:
 130:quantum/keymap_common.c ****             action.code = ACTION_BACKLIGHT_INCREASE();
 131:quantum/keymap_common.c ****             break;
 132:quantum/keymap_common.c ****         case BL_TOGG:
 133:quantum/keymap_common.c ****             action.code = ACTION_BACKLIGHT_TOGGLE();
 134:quantum/keymap_common.c ****             break;
 135:quantum/keymap_common.c ****         case BL_STEP:
 136:quantum/keymap_common.c ****             action.code = ACTION_BACKLIGHT_STEP();
 137:quantum/keymap_common.c ****             break;
 138:quantum/keymap_common.c ****     #endif
 139:quantum/keymap_common.c ****         default:
 140:quantum/keymap_common.c ****             action.code = ACTION_NO;
 141:quantum/keymap_common.c ****             break;
 142:quantum/keymap_common.c ****     }
 143:quantum/keymap_common.c ****     return action;
 144:quantum/keymap_common.c **** }
 145:quantum/keymap_common.c **** 
 146:quantum/keymap_common.c **** __attribute__ ((weak))
 147:quantum/keymap_common.c **** const uint16_t PROGMEM fn_actions[] = {
 148:quantum/keymap_common.c **** 
 149:quantum/keymap_common.c **** };
 150:quantum/keymap_common.c **** 
 151:quantum/keymap_common.c **** /* Macro */
 152:quantum/keymap_common.c **** __attribute__ ((weak))
 153:quantum/keymap_common.c **** const macro_t *action_get_macro(keyrecord_t *record, uint8_t id, uint8_t opt)
 154:quantum/keymap_common.c **** {
  17               		.loc 1 154 1 view -0
  18               		.cfi_startproc
  19               	/* prologue: function */
  20               	/* frame size = 0 */
  21               	/* stack size = 0 */
  22               	.L__stack_usage = 0
 155:quantum/keymap_common.c ****     return MACRO_NONE;
  23               		.loc 1 155 5 view .LVU1
 156:quantum/keymap_common.c **** }
  24               		.loc 1 156 1 is_stmt 0 view .LVU2
  25 0000 90E0      		ldi r25,0
  26 0002 80E0      		ldi r24,0
  27               	.LVL1:
  28               	/* epilogue start */
  29               		.loc 1 156 1 view .LVU3
  30 0004 0895      		ret
  31               		.cfi_endproc
  32               	.LFE108:
  34               		.section	.text.action_function,"ax",@progbits
  35               		.weak	action_function
  37               	action_function:
  38               	.LVL2:
  39               	.LFB109:
 157:quantum/keymap_common.c **** 
 158:quantum/keymap_common.c **** /* Function */
 159:quantum/keymap_common.c **** __attribute__ ((weak))
 160:quantum/keymap_common.c **** void action_function(keyrecord_t *record, uint8_t id, uint8_t opt)
 161:quantum/keymap_common.c **** {
  40               		.loc 1 161 1 is_stmt 1 view -0
  41               		.cfi_startproc
  42               	/* prologue: function */
  43               	/* frame size = 0 */
  44               	/* stack size = 0 */
  45               	.L__stack_usage = 0
 162:quantum/keymap_common.c **** }
  46               		.loc 1 162 1 view .LVU5
  47               	/* epilogue start */
  48 0000 0895      		ret
  49               		.cfi_endproc
  50               	.LFE109:
  52               		.section	.text.keymap_key_to_keycode,"ax",@progbits
  53               		.weak	keymap_key_to_keycode
  55               	keymap_key_to_keycode:
  56               	.LVL3:
  57               	.LFB110:
 163:quantum/keymap_common.c **** 
 164:quantum/keymap_common.c **** // translates key to keycode
 165:quantum/keymap_common.c **** __attribute__ ((weak))
 166:quantum/keymap_common.c **** uint16_t keymap_key_to_keycode(uint8_t layer, keypos_t key)
 167:quantum/keymap_common.c **** {
  58               		.loc 1 167 1 view -0
  59               		.cfi_startproc
  60               	/* prologue: function */
  61               	/* frame size = 0 */
  62               	/* stack size = 0 */
  63               	.L__stack_usage = 0
  64               		.loc 1 167 1 is_stmt 0 view .LVU7
  65 0000 972F      		mov r25,r23
 168:quantum/keymap_common.c ****     // Read entire word (16bits)
 169:quantum/keymap_common.c ****     return pgm_read_word(&keymaps[(layer)][(key.row)][(key.col)]);
  66               		.loc 1 169 5 is_stmt 1 view .LVU8
  67               	.LBB2:
  68               		.loc 1 169 12 view .LVU9
  69 0002 70E0      		ldi r23,0
  70               		.loc 1 169 12 is_stmt 0 view .LVU10
  71 0004 23E0      		ldi r18,lo8(3)
  72 0006 929F      		mul r25,r18
  73 0008 600D      		add r22,r0
  74 000a 711D      		adc r23,r1
  75 000c 1124      		clr __zero_reg__
  76               	.LVL4:
  77               		.loc 1 169 12 view .LVU11
  78 000e FB01      		movw r30,r22
  79 0010 9AE2      		ldi r25,lo8(42)
  80 0012 899F      		mul r24,r25
  81 0014 E00D      		add r30,r0
  82 0016 F11D      		adc r31,r1
  83 0018 1124      		clr __zero_reg__
  84 001a EE0F      		lsl r30
  85 001c FF1F      		rol r31
  86               	.LVL5:
  87               		.loc 1 169 12 view .LVU12
  88 001e E050      		subi r30,lo8(-(keymaps))
  89 0020 F040      		sbci r31,hi8(-(keymaps))
  90               	.LVL6:
  91               		.loc 1 169 12 is_stmt 1 view .LVU13
  92               		.loc 1 169 12 view .LVU14
  93               	/* #APP */
  94               	 ;  169 "quantum/keymap_common.c" 1
  95 0022 8591      		lpm r24, Z+
  96 0024 9491      		lpm r25, Z
  97               		
  98               	 ;  0 "" 2
  99               	.LVL7:
 100               		.loc 1 169 12 view .LVU15
 101               	/* #NOAPP */
 102               	/* epilogue start */
 103               	.LBE2:
 170:quantum/keymap_common.c **** }
 104               		.loc 1 170 1 is_stmt 0 view .LVU16
 105 0026 0895      		ret
 106               		.cfi_endproc
 107               	.LFE110:
 109               		.section	.text.keymap_function_id_to_action,"ax",@progbits
 110               		.weak	keymap_function_id_to_action
 112               	keymap_function_id_to_action:
 113               	.LVL8:
 114               	.LFB111:
 171:quantum/keymap_common.c **** 
 172:quantum/keymap_common.c **** // translates function id to action
 173:quantum/keymap_common.c **** __attribute__ ((weak))
 174:quantum/keymap_common.c **** uint16_t keymap_function_id_to_action( uint16_t function_id )
 175:quantum/keymap_common.c **** {
 115               		.loc 1 175 1 is_stmt 1 view -0
 116               		.cfi_startproc
 117               	/* prologue: function */
 118               	/* frame size = 0 */
 119               	/* stack size = 0 */
 120               	.L__stack_usage = 0
 176:quantum/keymap_common.c **** 	return pgm_read_word(&fn_actions[function_id]);
 121               		.loc 1 176 2 view .LVU18
 122               	.LBB3:
 123               		.loc 1 176 9 view .LVU19
 124 0000 FC01      		movw r30,r24
 125 0002 EE0F      		lsl r30
 126 0004 FF1F      		rol r31
 127               	.LVL9:
 128               		.loc 1 176 9 is_stmt 0 view .LVU20
 129 0006 E050      		subi r30,lo8(-(fn_actions))
 130 0008 F040      		sbci r31,hi8(-(fn_actions))
 131               	.LVL10:
 132               		.loc 1 176 9 is_stmt 1 view .LVU21
 133               		.loc 1 176 9 view .LVU22
 134               	/* #APP */
 135               	 ;  176 "quantum/keymap_common.c" 1
 136 000a 8591      		lpm r24, Z+
 137 000c 9491      		lpm r25, Z
 138               		
 139               	 ;  0 "" 2
 140               	.LVL11:
 141               		.loc 1 176 9 view .LVU23
 142               	/* #NOAPP */
 143               	/* epilogue start */
 144               	.LBE3:
 177:quantum/keymap_common.c **** }
 145               		.loc 1 177 1 is_stmt 0 view .LVU24
 146 000e 0895      		ret
 147               		.cfi_endproc
 148               	.LFE111:
 150               		.section	.text.action_for_key,"ax",@progbits
 151               	.global	action_for_key
 153               	action_for_key:
 154               	.LVL12:
 155               	.LFB107:
  42:quantum/keymap_common.c ****     // 16bit keycodes - important
 156               		.loc 1 42 1 is_stmt 1 view -0
 157               		.cfi_startproc
 158               	/* prologue: function */
 159               	/* frame size = 0 */
 160               	/* stack size = 0 */
 161               	.L__stack_usage = 0
  44:quantum/keymap_common.c **** 
 162               		.loc 1 44 5 view .LVU26
  44:quantum/keymap_common.c **** 
 163               		.loc 1 44 24 is_stmt 0 view .LVU27
 164 0000 0E94 0000 		call keymap_key_to_keycode
 165               	.LVL13:
  47:quantum/keymap_common.c **** 
 166               		.loc 1 47 5 is_stmt 1 view .LVU28
  47:quantum/keymap_common.c **** 
 167               		.loc 1 47 15 is_stmt 0 view .LVU29
 168 0004 0E94 0000 		call keycode_config
 169               	.LVL14:
  47:quantum/keymap_common.c **** 
 170               		.loc 1 47 15 view .LVU30
 171 0008 9C01      		movw r18,r24
 172               	.LVL15:
  49:quantum/keymap_common.c ****     uint8_t action_layer, when, mod;
 173               		.loc 1 49 5 is_stmt 1 view .LVU31
  50:quantum/keymap_common.c **** 
 174               		.loc 1 50 5 view .LVU32
  52:quantum/keymap_common.c ****         case KC_FN0 ... KC_FN31:
 175               		.loc 1 52 5 view .LVU33
 176 000a 8115      		cp r24,__zero_reg__
 177 000c 9044      		sbci r25,64
 178 000e 00F0      		brlo .+2
 179 0010 00C0      		rjmp .L6
 180 0012 2115      		cp r18,__zero_reg__
 181 0014 80E3      		ldi r24,48
 182 0016 3807      		cpc r19,r24
 183 0018 00F0      		brlo .+2
 184 001a 00C0      		rjmp .L7
 185 001c 203E      		cpi r18,-32
 186 001e 3105      		cpc r19,__zero_reg__
 187 0020 00F0      		brlo .+2
 188 0022 00C0      		rjmp .L8
 189 0024 203C      		cpi r18,-64
 190 0026 3105      		cpc r19,__zero_reg__
 191 0028 00F0      		brlo .+2
 192 002a 00C0      		rjmp .L9
 193 002c 283A      		cpi r18,-88
 194 002e 3105      		cpc r19,__zero_reg__
 195 0030 00F4      		brsh .L10
 196 0032 253A      		cpi r18,-91
 197 0034 3105      		cpc r19,__zero_reg__
 198 0036 00F0      		brlo .+2
 199 0038 00C0      		rjmp .L11
 200 003a 2130      		cpi r18,1
 201 003c 3105      		cpc r19,__zero_reg__
 202 003e 01F4      		brne .+2
 203 0040 00C0      		rjmp .L12
 204 0042 C901      		movw r24,r18
 205 0044 0497      		sbiw r24,4
 206 0046 813A      		cpi r24,-95
 207 0048 9105      		cpc r25,__zero_reg__
 208 004a 00F4      		brsh .+2
 209 004c 00C0      		rjmp .L12
 210               	.LVL16:
 211               	.L26:
 140:quantum/keymap_common.c ****             break;
 212               		.loc 1 140 25 is_stmt 0 view .LVU34
 213 004e 30E0      		ldi r19,0
 214 0050 20E0      		ldi r18,0
 215 0052 00C0      		rjmp .L12
 216               	.LVL17:
 217               	.L10:
  52:quantum/keymap_common.c ****         case KC_FN0 ... KC_FN31:
 218               		.loc 1 52 5 view .LVU35
 219 0054 C901      		movw r24,r18
 220 0056 885A      		subi r24,-88
 221 0058 9109      		sbc r25,__zero_reg__
 222 005a 4597      		sbiw r24,21
 223 005c 00F4      		brsh .L26
  64:quantum/keymap_common.c ****             break;
 224               		.loc 1 64 13 is_stmt 1 view .LVU36
  64:quantum/keymap_common.c ****             break;
 225               		.loc 1 64 27 is_stmt 0 view .LVU37
 226 005e 283A      		cpi r18,-88
 227 0060 3105      		cpc r19,__zero_reg__
 228 0062 01F4      		brne .+2
 229 0064 00C0      		rjmp .L29
  64:quantum/keymap_common.c ****             break;
 230               		.loc 1 64 27 discriminator 1 view .LVU38
 231 0066 293A      		cpi r18,-87
 232 0068 3105      		cpc r19,__zero_reg__
 233 006a 01F4      		brne .+2
 234 006c 00C0      		rjmp .L30
  64:quantum/keymap_common.c ****             break;
 235               		.loc 1 64 27 discriminator 3 view .LVU39
 236 006e 2A3A      		cpi r18,-86
 237 0070 3105      		cpc r19,__zero_reg__
 238 0072 01F4      		brne .+2
 239 0074 00C0      		rjmp .L31
  64:quantum/keymap_common.c ****             break;
 240               		.loc 1 64 27 discriminator 5 view .LVU40
 241 0076 2B3A      		cpi r18,-85
 242 0078 3105      		cpc r19,__zero_reg__
 243 007a 01F4      		brne .+2
 244 007c 00C0      		rjmp .L32
  64:quantum/keymap_common.c ****             break;
 245               		.loc 1 64 27 discriminator 7 view .LVU41
 246 007e 2C3A      		cpi r18,-84
 247 0080 3105      		cpc r19,__zero_reg__
 248 0082 01F4      		brne .+2
 249 0084 00C0      		rjmp .L33
  64:quantum/keymap_common.c ****             break;
 250               		.loc 1 64 27 discriminator 9 view .LVU42
 251 0086 2B3B      		cpi r18,-69
 252 0088 3105      		cpc r19,__zero_reg__
 253 008a 01F4      		brne .+2
 254 008c 00C0      		rjmp .L34
  64:quantum/keymap_common.c ****             break;
 255               		.loc 1 64 27 discriminator 11 view .LVU43
 256 008e 2C3B      		cpi r18,-68
 257 0090 3105      		cpc r19,__zero_reg__
 258 0092 01F4      		brne .+2
 259 0094 00C0      		rjmp .L35
  64:quantum/keymap_common.c ****             break;
 260               		.loc 1 64 27 discriminator 13 view .LVU44
 261 0096 2D3A      		cpi r18,-83
 262 0098 3105      		cpc r19,__zero_reg__
 263 009a 01F4      		brne .+2
 264 009c 00C0      		rjmp .L36
  64:quantum/keymap_common.c ****             break;
 265               		.loc 1 64 27 discriminator 15 view .LVU45
 266 009e 203B      		cpi r18,-80
 267 00a0 3105      		cpc r19,__zero_reg__
 268 00a2 01F4      		brne .+2
 269 00a4 00C0      		rjmp .L37
  64:quantum/keymap_common.c ****             break;
 270               		.loc 1 64 27 discriminator 17 view .LVU46
 271 00a6 2E3A      		cpi r18,-82
 272 00a8 3105      		cpc r19,__zero_reg__
 273 00aa 01F4      		brne .+2
 274 00ac 00C0      		rjmp .L38
  64:quantum/keymap_common.c ****             break;
 275               		.loc 1 64 27 discriminator 19 view .LVU47
 276 00ae 2F3A      		cpi r18,-81
 277 00b0 3105      		cpc r19,__zero_reg__
 278 00b2 01F4      		brne .+2
 279 00b4 00C0      		rjmp .L39
  64:quantum/keymap_common.c ****             break;
 280               		.loc 1 64 27 discriminator 21 view .LVU48
 281 00b6 213B      		cpi r18,-79
 282 00b8 3105      		cpc r19,__zero_reg__
 283 00ba 01F4      		brne .+2
 284 00bc 00C0      		rjmp .L40
  64:quantum/keymap_common.c ****             break;
 285               		.loc 1 64 27 discriminator 23 view .LVU49
 286 00be 223B      		cpi r18,-78
 287 00c0 3105      		cpc r19,__zero_reg__
 288 00c2 01F4      		brne .+2
 289 00c4 00C0      		rjmp .L41
  64:quantum/keymap_common.c ****             break;
 290               		.loc 1 64 27 discriminator 25 view .LVU50
 291 00c6 233B      		cpi r18,-77
 292 00c8 3105      		cpc r19,__zero_reg__
 293 00ca 01F4      		brne .+2
 294 00cc 00C0      		rjmp .L42
  64:quantum/keymap_common.c ****             break;
 295               		.loc 1 64 27 discriminator 27 view .LVU51
 296 00ce 243B      		cpi r18,-76
 297 00d0 3105      		cpc r19,__zero_reg__
 298 00d2 01F4      		brne .+2
 299 00d4 00C0      		rjmp .L43
  64:quantum/keymap_common.c ****             break;
 300               		.loc 1 64 27 discriminator 29 view .LVU52
 301 00d6 253B      		cpi r18,-75
 302 00d8 3105      		cpc r19,__zero_reg__
 303 00da 01F4      		brne .+2
 304 00dc 00C0      		rjmp .L44
  64:quantum/keymap_common.c ****             break;
 305               		.loc 1 64 27 discriminator 31 view .LVU53
 306 00de 263B      		cpi r18,-74
 307 00e0 3105      		cpc r19,__zero_reg__
 308 00e2 01F4      		brne .+2
 309 00e4 00C0      		rjmp .L45
  64:quantum/keymap_common.c ****             break;
 310               		.loc 1 64 27 discriminator 33 view .LVU54
 311 00e6 273B      		cpi r18,-73
 312 00e8 3105      		cpc r19,__zero_reg__
 313 00ea 01F4      		brne .+2
 314 00ec 00C0      		rjmp .L46
  64:quantum/keymap_common.c ****             break;
 315               		.loc 1 64 27 discriminator 35 view .LVU55
 316 00ee 283B      		cpi r18,-72
 317 00f0 3105      		cpc r19,__zero_reg__
 318 00f2 01F4      		brne .+2
 319 00f4 00C0      		rjmp .L47
  64:quantum/keymap_common.c ****             break;
 320               		.loc 1 64 27 discriminator 37 view .LVU56
 321 00f6 293B      		cpi r18,-71
 322 00f8 3105      		cpc r19,__zero_reg__
 323 00fa 01F4      		brne .+2
 324 00fc 00C0      		rjmp .L48
  64:quantum/keymap_common.c ****             break;
 325               		.loc 1 64 27 discriminator 39 view .LVU57
 326 00fe 2A3B      		cpi r18,-70
 327 0100 3105      		cpc r19,__zero_reg__
 328 0102 01F4      		brne .+2
 329 0104 00C0      		rjmp .L49
 330               	.LVL18:
  64:quantum/keymap_common.c ****             break;
 331               		.loc 1 64 27 view .LVU58
 332 0106 20E0      		ldi r18,0
 333 0108 34E4      		ldi r19,lo8(68)
 334 010a 00C0      		rjmp .L12
 335               	.LVL19:
 336               	.L8:
  52:quantum/keymap_common.c ****         case KC_FN0 ... KC_FN31:
 337               		.loc 1 52 5 view .LVU59
 338 010c 2115      		cp r18,__zero_reg__
 339 010e 40E2      		ldi r20,32
 340 0110 3407      		cpc r19,r20
 341 0112 00F4      		brsh .L14
 342 0114 2F3F      		cpi r18,-1
 343 0116 3105      		cpc r19,__zero_reg__
 344 0118 01F0      		breq .+2
 345 011a 00F4      		brsh .L12
 346 011c 283E      		cpi r18,-24
 347 011e 3105      		cpc r19,__zero_reg__
 348 0120 00F0      		brlo .L12
 349 0122 C901      		movw r24,r18
 350 0124 805F      		subi r24,-16
 351 0126 9109      		sbc r25,__zero_reg__
  67:quantum/keymap_common.c ****             break;
 352               		.loc 1 67 27 view .LVU60
 353 0128 3065      		ori r19,80
 354               	.LVL20:
  52:quantum/keymap_common.c ****         case KC_FN0 ... KC_FN31:
 355               		.loc 1 52 5 view .LVU61
 356 012a 4097      		sbiw r24,16
 357 012c 00F0      		brlo .+2
 358 012e 00C0      		rjmp .L26
 359               	.LVL21:
 360               	.L12:
 143:quantum/keymap_common.c **** }
 361               		.loc 1 143 5 is_stmt 1 view .LVU62
 144:quantum/keymap_common.c **** 
 362               		.loc 1 144 1 is_stmt 0 view .LVU63
 363 0130 C901      		movw r24,r18
 364               	/* epilogue start */
 365 0132 0895      		ret
 366               	.LVL22:
 367               	.L14:
  77:quantum/keymap_common.c ****             // Is a shortcut for function action_layer, pull last 12bits
 368               		.loc 1 77 47 is_stmt 1 view .LVU64
  80:quantum/keymap_common.c ****             break;
 369               		.loc 1 80 13 view .LVU65
  80:quantum/keymap_common.c ****             break;
 370               		.loc 1 80 27 is_stmt 0 view .LVU66
 371 0134 C901      		movw r24,r18
 372 0136 9F70      		andi r25,15
 373               	.L57:
  54:quantum/keymap_common.c ****             break;
 374               		.loc 1 54 27 view .LVU67
 375 0138 0E94 0000 		call keymap_function_id_to_action
 376               	.LVL23:
  54:quantum/keymap_common.c ****             break;
 377               		.loc 1 54 27 view .LVU68
 378 013c 9C01      		movw r18,r24
 379               	.LVL24:
  55:quantum/keymap_common.c ****         case KC_A ... KC_EXSEL:
 380               		.loc 1 55 13 is_stmt 1 view .LVU69
 381 013e 00C0      		rjmp .L12
 382               	.LVL25:
 383               	.L6:
  52:quantum/keymap_common.c ****         case KC_FN0 ... KC_FN31:
 384               		.loc 1 52 5 is_stmt 0 view .LVU70
 385 0140 2115      		cp r18,__zero_reg__
 386 0142 84E5      		ldi r24,84
 387 0144 3807      		cpc r19,r24
 388 0146 00F0      		brlo .+2
 389 0148 00C0      		rjmp .L16
 390 014a 2115      		cp r18,__zero_reg__
 391 014c 43E5      		ldi r20,83
 392 014e 3407      		cpc r19,r20
 393 0150 00F0      		brlo .+2
 394 0152 00C0      		rjmp .L17
 395 0154 2115      		cp r18,__zero_reg__
 396 0156 82E5      		ldi r24,82
 397 0158 3807      		cpc r19,r24
 398 015a 00F4      		brsh .L18
 399 015c 2115      		cp r18,__zero_reg__
 400 015e 41E5      		ldi r20,81
 401 0160 3407      		cpc r19,r20
 402 0162 00F0      		brlo .+2
 403 0164 00C0      		rjmp .L19
 404 0166 2115      		cp r18,__zero_reg__
 405 0168 80E5      		ldi r24,80
 406 016a 3807      		cpc r19,r24
 407 016c 00F4      		brsh .+2
 408 016e 00C0      		rjmp .L20
  88:quantum/keymap_common.c ****             // Layer set "GOTO"
 409               		.loc 1 88 35 is_stmt 1 view .LVU71
  90:quantum/keymap_common.c ****             action_layer = keycode & 0xF;
 410               		.loc 1 90 13 view .LVU72
 411               	.LVL26:
  91:quantum/keymap_common.c ****             action.code = ACTION_LAYER_SET(action_layer, when);
 412               		.loc 1 91 13 view .LVU73
  92:quantum/keymap_common.c ****             break;
 413               		.loc 1 92 13 view .LVU74
  90:quantum/keymap_common.c ****             action_layer = keycode & 0xF;
 414               		.loc 1 90 29 is_stmt 0 view .LVU75
 415 0170 C901      		movw r24,r18
 416 0172 34E0      		ldi r19,4
 417               		1:
 418 0174 9695      		lsr r25
 419 0176 8795      		ror r24
 420 0178 3A95      		dec r19
 421 017a 01F4      		brne 1b
  90:quantum/keymap_common.c ****             action_layer = keycode & 0xF;
 422               		.loc 1 90 18 view .LVU76
 423 017c 382F      		mov r19,r24
 424 017e 3370      		andi r19,lo8(3)
  92:quantum/keymap_common.c ****             break;
 425               		.loc 1 92 27 view .LVU77
 426 0180 822F      		mov r24,r18
 427 0182 8695      		lsr r24
 428 0184 8695      		lsr r24
 429 0186 8370      		andi r24,lo8(3)
 430 0188 40E2      		ldi r20,lo8(32)
 431 018a 849F      		mul r24,r20
 432 018c C001      		movw r24,r0
 433 018e 1124      		clr __zero_reg__
 434 0190 932B      		or r25,r19
 435 0192 422F      		mov r20,r18
 436 0194 4370      		andi r20,lo8(3)
 437 0196 21E0      		ldi r18,lo8(1)
 438 0198 30E0      		ldi r19,0
 439               	.LVL27:
  92:quantum/keymap_common.c ****             break;
 440               		.loc 1 92 27 view .LVU78
 441 019a 00C0      		rjmp 2f
 442               		1:
 443 019c 220F      		lsl r18
 444 019e 331F      		rol r19
 445               		2:
 446 01a0 4A95      		dec r20
 447 01a2 02F4      		brpl 1b
 448               	.L58:
 102:quantum/keymap_common.c ****             break;
 449               		.loc 1 102 27 view .LVU79
 450 01a4 282B      		or r18,r24
 451 01a6 392B      		or r19,r25
 452               	.LVL28:
 102:quantum/keymap_common.c ****             break;
 453               		.loc 1 102 27 view .LVU80
 454 01a8 3C68      		ori r19,140
 455               	.LVL29:
 103:quantum/keymap_common.c ****         case QK_TOGGLE_LAYER ... QK_TOGGLE_LAYER_MAX: ;
 456               		.loc 1 103 13 is_stmt 1 view .LVU81
 457 01aa 00C0      		rjmp .L12
 458               	.LVL30:
 459               	.L18:
  99:quantum/keymap_common.c ****             // Set default action_layer
 460               		.loc 1 99 49 view .LVU82
 101:quantum/keymap_common.c ****             action.code = ACTION_DEFAULT_LAYER_SET(action_layer);
 461               		.loc 1 101 13 view .LVU83
 102:quantum/keymap_common.c ****             break;
 462               		.loc 1 102 13 view .LVU84
 102:quantum/keymap_common.c ****             break;
 463               		.loc 1 102 27 is_stmt 0 view .LVU85
 464 01ac A901      		movw r20,r18
 465 01ae 4370      		andi r20,3
 466 01b0 5527      		clr r21
 467 01b2 81E0      		ldi r24,lo8(1)
 468 01b4 90E0      		ldi r25,0
 469 01b6 00C0      		rjmp 2f
 470               		1:
 471 01b8 880F      		lsl r24
 472 01ba 991F      		rol r25
 473               		2:
 474 01bc 4A95      		dec r20
 475 01be 02F4      		brpl 1b
 476 01c0 2695      		lsr r18
 477 01c2 2695      		lsr r18
 478               	.LVL31:
 102:quantum/keymap_common.c ****             break;
 479               		.loc 1 102 27 view .LVU86
 480 01c4 40E2      		ldi r20,lo8(32)
 481 01c6 249F      		mul r18,r20
 482 01c8 9001      		movw r18,r0
 483 01ca 1124      		clr __zero_reg__
 484 01cc 00C0      		rjmp .L58
 485               	.LVL32:
 486               	.L16:
  52:quantum/keymap_common.c ****         case KC_FN0 ... KC_FN31:
 487               		.loc 1 52 5 view .LVU87
 488 01ce 2115      		cp r18,__zero_reg__
 489 01d0 86E5      		ldi r24,86
 490 01d2 3807      		cpc r19,r24
 491 01d4 00F4      		brsh .L21
 492 01d6 922F      		mov r25,r18
 493 01d8 8827      		clr r24
 494 01da 2115      		cp r18,__zero_reg__
 495 01dc 3545      		sbci r19,85
 496 01de 00F4      		brsh .L22
 109:quantum/keymap_common.c ****             // OSL(action_layer) - One-shot action_layer
 497               		.loc 1 109 59 is_stmt 1 view .LVU88
 111:quantum/keymap_common.c ****             action.code = ACTION_LAYER_ONESHOT(action_layer);
 498               		.loc 1 111 13 view .LVU89
 499               	.LVL33:
 112:quantum/keymap_common.c ****             break;
 500               		.loc 1 112 13 view .LVU90
 112:quantum/keymap_common.c ****             break;
 501               		.loc 1 112 27 is_stmt 0 view .LVU91
 502 01e0 9C01      		movw r18,r24
 503 01e2 246F      		ori r18,244
 504 01e4 306A      		ori r19,160
 505               	.LVL34:
 113:quantum/keymap_common.c ****         case QK_ONE_SHOT_MOD ... QK_ONE_SHOT_MOD_MAX: ;
 506               		.loc 1 113 13 is_stmt 1 view .LVU92
 507 01e6 00C0      		rjmp .L12
 508               	.LVL35:
 509               	.L21:
  52:quantum/keymap_common.c ****         case KC_FN0 ... KC_FN31:
 510               		.loc 1 52 5 is_stmt 0 view .LVU93
 511 01e8 C901      		movw r24,r18
 512 01ea 9056      		subi r25,96
 120:quantum/keymap_common.c ****             break;
 513               		.loc 1 120 27 view .LVU94
 514 01ec 3F70      		andi r19,15
 515               	.LVL36:
  52:quantum/keymap_common.c ****         case KC_FN0 ... KC_FN31:
 516               		.loc 1 52 5 view .LVU95
 517 01ee 8115      		cp r24,__zero_reg__
 518 01f0 9041      		sbci r25,16
 519 01f2 00F0      		brlo .+2
 520 01f4 00C0      		rjmp .L26
 521               	.LVL37:
 522               	.L56:
 120:quantum/keymap_common.c ****             break;
 523               		.loc 1 120 27 view .LVU96
 524 01f6 3062      		ori r19,32
 525               	.LVL38:
 121:quantum/keymap_common.c ****     #ifdef BACKLIGHT_ENABLE
 526               		.loc 1 121 13 is_stmt 1 view .LVU97
 527 01f8 00C0      		rjmp .L12
 528               	.LVL39:
 529               	.L9:
  54:quantum/keymap_common.c ****             break;
 530               		.loc 1 54 13 view .LVU98
  54:quantum/keymap_common.c ****             break;
 531               		.loc 1 54 27 is_stmt 0 view .LVU99
 532 01fa C901      		movw r24,r18
 533 01fc 805C      		subi r24,-64
 534 01fe 9109      		sbc r25,__zero_reg__
 535 0200 00C0      		rjmp .L57
 536               	.L11:
  61:quantum/keymap_common.c ****             break;
 537               		.loc 1 61 13 is_stmt 1 view .LVU100
  61:quantum/keymap_common.c ****             break;
 538               		.loc 1 61 27 is_stmt 0 view .LVU101
 539 0202 253A      		cpi r18,-91
 540 0204 3105      		cpc r19,__zero_reg__
 541 0206 01F0      		breq .L27
  61:quantum/keymap_common.c ****             break;
 542               		.loc 1 61 27 discriminator 1 view .LVU102
 543 0208 263A      		cpi r18,-90
 544 020a 3105      		cpc r19,__zero_reg__
 545 020c 01F4      		brne .L28
 546               	.LVL40:
  61:quantum/keymap_common.c ****             break;
 547               		.loc 1 61 27 view .LVU103
 548 020e 22E8      		ldi r18,lo8(-126)
 549 0210 30E4      		ldi r19,lo8(64)
 550 0212 00C0      		rjmp .L12
 551               	.LVL41:
 552               	.L7:
  83:quantum/keymap_common.c ****             break;
 553               		.loc 1 83 13 is_stmt 1 view .LVU104
  83:quantum/keymap_common.c ****             break;
 554               		.loc 1 83 27 is_stmt 0 view .LVU105
 555 0214 3327      		clr r19
 556               	.LVL42:
  83:quantum/keymap_common.c ****             break;
 557               		.loc 1 83 27 view .LVU106
 558 0216 306C      		ori r19,192
 559               	.LVL43:
  84:quantum/keymap_common.c ****         case QK_LAYER_TAP ... QK_LAYER_TAP_MAX:
 560               		.loc 1 84 13 is_stmt 1 view .LVU107
 561 0218 00C0      		rjmp .L12
 562               	.LVL44:
 563               	.L20:
  86:quantum/keymap_common.c ****             break;
 564               		.loc 1 86 13 view .LVU108
  86:quantum/keymap_common.c ****             break;
 565               		.loc 1 86 27 is_stmt 0 view .LVU109
 566 021a 3F70      		andi r19,15
 567               	.LVL45:
  86:quantum/keymap_common.c ****             break;
 568               		.loc 1 86 27 view .LVU110
 569 021c 306A      		ori r19,160
 570               	.LVL46:
  87:quantum/keymap_common.c ****         case QK_TO ... QK_TO_MAX: ;
 571               		.loc 1 87 13 is_stmt 1 view .LVU111
 572 021e 00C0      		rjmp .L12
 573               	.LVL47:
 574               	.L19:
  94:quantum/keymap_common.c ****             // Momentary action_layer
 575               		.loc 1 94 49 view .LVU112
  96:quantum/keymap_common.c ****             action.code = ACTION_LAYER_MOMENTARY(action_layer);
 576               		.loc 1 96 13 view .LVU113
  97:quantum/keymap_common.c ****             break;
 577               		.loc 1 97 13 view .LVU114
  97:quantum/keymap_common.c ****             break;
 578               		.loc 1 97 27 is_stmt 0 view .LVU115
 579 0220 322F      		mov r19,r18
 580 0222 2227      		clr r18
 581               	.LVL48:
  97:quantum/keymap_common.c ****             break;
 582               		.loc 1 97 27 view .LVU116
 583 0224 216F      		ori r18,241
 584 0226 306A      		ori r19,160
 585               	.LVL49:
  98:quantum/keymap_common.c ****         case QK_DEF_LAYER ... QK_DEF_LAYER_MAX: ;
 586               		.loc 1 98 13 is_stmt 1 view .LVU117
 587 0228 00C0      		rjmp .L12
 588               	.LVL50:
 589               	.L17:
 104:quantum/keymap_common.c ****             // Set toggle
 590               		.loc 1 104 55 view .LVU118
 106:quantum/keymap_common.c ****             action.code = ACTION_LAYER_TOGGLE(action_layer);
 591               		.loc 1 106 13 view .LVU119
 107:quantum/keymap_common.c ****             break;
 592               		.loc 1 107 13 view .LVU120
 107:quantum/keymap_common.c ****             break;
 593               		.loc 1 107 27 is_stmt 0 view .LVU121
 594 022a A901      		movw r20,r18
 595 022c 4370      		andi r20,3
 596 022e 5527      		clr r21
 597 0230 81E0      		ldi r24,lo8(1)
 598 0232 90E0      		ldi r25,0
 599 0234 00C0      		rjmp 2f
 600               		1:
 601 0236 880F      		lsl r24
 602 0238 991F      		rol r25
 603               		2:
 604 023a 4A95      		dec r20
 605 023c 02F4      		brpl 1b
 606 023e 2695      		lsr r18
 607 0240 2695      		lsr r18
 608               	.LVL51:
 107:quantum/keymap_common.c ****             break;
 609               		.loc 1 107 27 view .LVU122
 610 0242 40E2      		ldi r20,lo8(32)
 611 0244 249F      		mul r18,r20
 612 0246 9001      		movw r18,r0
 613 0248 1124      		clr __zero_reg__
 614 024a 282B      		or r18,r24
 615 024c 392B      		or r19,r25
 616               	.LVL52:
 107:quantum/keymap_common.c ****             break;
 617               		.loc 1 107 27 view .LVU123
 618 024e 3A68      		ori r19,138
 619               	.LVL53:
 108:quantum/keymap_common.c ****         case QK_ONE_SHOT_LAYER ... QK_ONE_SHOT_LAYER_MAX: ;
 620               		.loc 1 108 13 is_stmt 1 view .LVU124
 621 0250 00C0      		rjmp .L12
 622               	.LVL54:
 623               	.L22:
 114:quantum/keymap_common.c ****             // OSM(mod) - One-shot mod
 624               		.loc 1 114 55 view .LVU125
 116:quantum/keymap_common.c ****             action.code = ACTION_MODS_ONESHOT(mod);
 625               		.loc 1 116 13 view .LVU126
 117:quantum/keymap_common.c ****             break;
 626               		.loc 1 117 13 view .LVU127
 117:quantum/keymap_common.c ****             break;
 627               		.loc 1 117 27 is_stmt 0 view .LVU128
 628 0252 8827      		clr r24
 629 0254 9F71      		andi r25,31
 630               	.LVL55:
 117:quantum/keymap_common.c ****             break;
 631               		.loc 1 117 27 view .LVU129
 632 0256 9C01      		movw r18,r24
 633 0258 00C0      		rjmp .L56
 634               	.LVL56:
 635               	.L27:
  61:quantum/keymap_common.c ****             break;
 636               		.loc 1 61 27 view .LVU130
 637 025a 21E8      		ldi r18,lo8(-127)
 638 025c 30E4      		ldi r19,lo8(64)
 639 025e 00C0      		rjmp .L12
 640               	.LVL57:
 641               	.L28:
  61:quantum/keymap_common.c ****             break;
 642               		.loc 1 61 27 view .LVU131
 643 0260 23E8      		ldi r18,lo8(-125)
 644 0262 30E4      		ldi r19,lo8(64)
 645 0264 00C0      		rjmp .L12
 646               	.LVL58:
 647               	.L29:
  64:quantum/keymap_common.c ****             break;
 648               		.loc 1 64 27 view .LVU132
 649 0266 22EE      		ldi r18,lo8(-30)
 650 0268 34E4      		ldi r19,lo8(68)
 651 026a 00C0      		rjmp .L12
 652               	.LVL59:
 653               	.L30:
  64:quantum/keymap_common.c ****             break;
 654               		.loc 1 64 27 view .LVU133
 655 026c 29EE      		ldi r18,lo8(-23)
 656 026e 34E4      		ldi r19,lo8(68)
 657 0270 00C0      		rjmp .L12
 658               	.LVL60:
 659               	.L31:
  64:quantum/keymap_common.c ****             break;
 660               		.loc 1 64 27 view .LVU134
 661 0272 2AEE      		ldi r18,lo8(-22)
 662 0274 34E4      		ldi r19,lo8(68)
 663 0276 00C0      		rjmp .L12
 664               	.LVL61:
 665               	.L32:
  64:quantum/keymap_common.c ****             break;
 666               		.loc 1 64 27 view .LVU135
 667 0278 25EB      		ldi r18,lo8(-75)
 668 027a 34E4      		ldi r19,lo8(68)
 669 027c 00C0      		rjmp .L12
 670               	.LVL62:
 671               	.L33:
  64:quantum/keymap_common.c ****             break;
 672               		.loc 1 64 27 view .LVU136
 673 027e 26EB      		ldi r18,lo8(-74)
 674 0280 34E4      		ldi r19,lo8(68)
 675 0282 00C0      		rjmp .L12
 676               	.LVL63:
 677               	.L34:
  64:quantum/keymap_common.c ****             break;
 678               		.loc 1 64 27 view .LVU137
 679 0284 23EB      		ldi r18,lo8(-77)
 680 0286 34E4      		ldi r19,lo8(68)
 681 0288 00C0      		rjmp .L12
 682               	.LVL64:
 683               	.L35:
  64:quantum/keymap_common.c ****             break;
 684               		.loc 1 64 27 view .LVU138
 685 028a 24EB      		ldi r18,lo8(-76)
 686 028c 34E4      		ldi r19,lo8(68)
 687 028e 00C0      		rjmp .L12
 688               	.LVL65:
 689               	.L36:
  64:quantum/keymap_common.c ****             break;
 690               		.loc 1 64 27 view .LVU139
 691 0290 27EB      		ldi r18,lo8(-73)
 692 0292 34E4      		ldi r19,lo8(68)
 693 0294 00C0      		rjmp .L12
 694               	.LVL66:
 695               	.L37:
  64:quantum/keymap_common.c ****             break;
 696               		.loc 1 64 27 view .LVU140
 697 0296 2CEC      		ldi r18,lo8(-52)
 698 0298 34E4      		ldi r19,lo8(68)
 699 029a 00C0      		rjmp .L12
 700               	.LVL67:
 701               	.L38:
  64:quantum/keymap_common.c ****             break;
 702               		.loc 1 64 27 view .LVU141
 703 029c 2DEC      		ldi r18,lo8(-51)
 704 029e 34E4      		ldi r19,lo8(68)
 705 02a0 00C0      		rjmp .L12
 706               	.LVL68:
 707               	.L39:
  64:quantum/keymap_common.c ****             break;
 708               		.loc 1 64 27 view .LVU142
 709 02a2 23E8      		ldi r18,lo8(-125)
 710 02a4 35E4      		ldi r19,lo8(69)
 711 02a6 00C0      		rjmp .L12
 712               	.LVL69:
 713               	.L40:
  64:quantum/keymap_common.c ****             break;
 714               		.loc 1 64 27 view .LVU143
 715 02a8 2AE8      		ldi r18,lo8(-118)
 716 02aa 35E4      		ldi r19,lo8(69)
 717 02ac 00C0      		rjmp .L12
 718               	.LVL70:
 719               	.L41:
  64:quantum/keymap_common.c ****             break;
 720               		.loc 1 64 27 view .LVU144
 721 02ae 22E9      		ldi r18,lo8(-110)
 722 02b0 35E4      		ldi r19,lo8(69)
 723 02b2 00C0      		rjmp .L12
 724               	.LVL71:
 725               	.L42:
  64:quantum/keymap_common.c ****             break;
 726               		.loc 1 64 27 view .LVU145
 727 02b4 24E9      		ldi r18,lo8(-108)
 728 02b6 35E4      		ldi r19,lo8(69)
 729 02b8 00C0      		rjmp .L12
 730               	.LVL72:
 731               	.L43:
  64:quantum/keymap_common.c ****             break;
 732               		.loc 1 64 27 view .LVU146
 733 02ba 21E2      		ldi r18,lo8(33)
 734 02bc 36E4      		ldi r19,lo8(70)
 735 02be 00C0      		rjmp .L12
 736               	.LVL73:
 737               	.L44:
  64:quantum/keymap_common.c ****             break;
 738               		.loc 1 64 27 view .LVU147
 739 02c0 23E2      		ldi r18,lo8(35)
 740 02c2 36E4      		ldi r19,lo8(70)
 741 02c4 00C0      		rjmp .L12
 742               	.LVL74:
 743               	.L45:
  64:quantum/keymap_common.c ****             break;
 744               		.loc 1 64 27 view .LVU148
 745 02c6 24E2      		ldi r18,lo8(36)
 746 02c8 36E4      		ldi r19,lo8(70)
 747 02ca 00C0      		rjmp .L12
 748               	.LVL75:
 749               	.L46:
  64:quantum/keymap_common.c ****             break;
 750               		.loc 1 64 27 view .LVU149
 751 02cc 25E2      		ldi r18,lo8(37)
 752 02ce 36E4      		ldi r19,lo8(70)
 753 02d0 00C0      		rjmp .L12
 754               	.LVL76:
 755               	.L47:
  64:quantum/keymap_common.c ****             break;
 756               		.loc 1 64 27 view .LVU150
 757 02d2 26E2      		ldi r18,lo8(38)
 758 02d4 36E4      		ldi r19,lo8(70)
 759 02d6 00C0      		rjmp .L12
 760               	.LVL77:
 761               	.L48:
  64:quantum/keymap_common.c ****             break;
 762               		.loc 1 64 27 view .LVU151
 763 02d8 27E2      		ldi r18,lo8(39)
 764 02da 36E4      		ldi r19,lo8(70)
 765 02dc 00C0      		rjmp .L12
 766               	.LVL78:
 767               	.L49:
  64:quantum/keymap_common.c ****             break;
 768               		.loc 1 64 27 view .LVU152
 769 02de 2AE2      		ldi r18,lo8(42)
 770 02e0 36E4      		ldi r19,lo8(70)
 771 02e2 00C0      		rjmp .L12
 772               		.cfi_endproc
 773               	.LFE107:
 775               		.weak	fn_actions
 776               		.section	.progmem.data.fn_actions,"a"
 779               	fn_actions:
 780               		.text
 781               	.Letext0:
 782               		.file 2 "/usr/avr/include/stdint.h"
 783               		.file 3 "./tmk_core/common/keyboard.h"
 784               		.file 4 "./tmk_core/common/keycode.h"
 785               		.file 5 "./tmk_core/common/action_code.h"
 786               		.file 6 "./tmk_core/common/action_macro.h"
 787               		.file 7 "./tmk_core/common/action.h"
 788               		.file 8 "quantum/quantum_keycodes.h"
 789               		.file 9 "quantum/keymap.h"
 790               		.file 10 "quantum/keycode_config.h"
DEFINED SYMBOLS
                            *ABS*:0000000000000000 keymap_common.c
     /tmp/ccgHFQiL.s:2      *ABS*:000000000000003e __SP_H__
     /tmp/ccgHFQiL.s:3      *ABS*:000000000000003d __SP_L__
     /tmp/ccgHFQiL.s:4      *ABS*:000000000000003f __SREG__
     /tmp/ccgHFQiL.s:5      *ABS*:0000000000000000 __tmp_reg__
     /tmp/ccgHFQiL.s:6      *ABS*:0000000000000001 __zero_reg__
     /tmp/ccgHFQiL.s:13     .text.action_get_macro:0000000000000000 action_get_macro
     /tmp/ccgHFQiL.s:37     .text.action_function:0000000000000000 action_function
     /tmp/ccgHFQiL.s:55     .text.keymap_key_to_keycode:0000000000000000 keymap_key_to_keycode
     /tmp/ccgHFQiL.s:112    .text.keymap_function_id_to_action:0000000000000000 keymap_function_id_to_action
     /tmp/ccgHFQiL.s:779    .progmem.data.fn_actions:0000000000000000 fn_actions
     /tmp/ccgHFQiL.s:153    .text.action_for_key:0000000000000000 action_for_key

UNDEFINED SYMBOLS
keymaps
keycode_config
