   1               		.file	"keymap_common.c"
   2               	__SP_H__ = 0x3e
   3               	__SP_L__ = 0x3d
   4               	__SREG__ = 0x3f
   5               	__RAMPZ__ = 0x3b
   6               	__tmp_reg__ = 0
   7               	__zero_reg__ = 1
   8               		.text
   9               	.Ltext0:
  10               		.cfi_sections	.debug_frame
  11               		.section	.text.action_get_macro,"ax",@progbits
  12               		.weak	action_get_macro
  14               	action_get_macro:
  15               	.LVL0:
  16               	.LFB112:
  17               		.file 1 "quantum/keymap_common.c"
   1:quantum/keymap_common.c **** /*
   2:quantum/keymap_common.c **** Copyright 2012,2013 Jun Wako <wakojun@gmail.com>
   3:quantum/keymap_common.c **** 
   4:quantum/keymap_common.c **** This program is free software: you can redistribute it and/or modify
   5:quantum/keymap_common.c **** it under the terms of the GNU General Public License as published by
   6:quantum/keymap_common.c **** the Free Software Foundation, either version 2 of the License, or
   7:quantum/keymap_common.c **** (at your option) any later version.
   8:quantum/keymap_common.c **** 
   9:quantum/keymap_common.c **** This program is distributed in the hope that it will be useful,
  10:quantum/keymap_common.c **** but WITHOUT ANY WARRANTY; without even the implied warranty of
  11:quantum/keymap_common.c **** MERCHANTABILITY or FITNESS FOR A PARTICULAR PURPOSE.  See the
  12:quantum/keymap_common.c **** GNU General Public License for more details.
  13:quantum/keymap_common.c **** 
  14:quantum/keymap_common.c **** You should have received a copy of the GNU General Public License
  15:quantum/keymap_common.c **** along with this program.  If not, see <http://www.gnu.org/licenses/>.
  16:quantum/keymap_common.c **** */
  17:quantum/keymap_common.c **** 
  18:quantum/keymap_common.c **** #include "keymap.h"
  19:quantum/keymap_common.c **** #include "report.h"
  20:quantum/keymap_common.c **** #include "keycode.h"
  21:quantum/keymap_common.c **** #include "action_layer.h"
  22:quantum/keymap_common.c **** #if defined(__AVR__)
  23:quantum/keymap_common.c **** #include <util/delay.h>
  24:quantum/keymap_common.c **** #include <stdio.h>
  25:quantum/keymap_common.c **** #endif
  26:quantum/keymap_common.c **** #include "action.h"
  27:quantum/keymap_common.c **** #include "action_macro.h"
  28:quantum/keymap_common.c **** #include "debug.h"
  29:quantum/keymap_common.c **** #include "backlight.h"
  30:quantum/keymap_common.c **** #include "quantum.h"
  31:quantum/keymap_common.c **** 
  32:quantum/keymap_common.c **** #ifdef MIDI_ENABLE
  33:quantum/keymap_common.c **** 	#include "process_midi.h"
  34:quantum/keymap_common.c **** #endif
  35:quantum/keymap_common.c **** 
  36:quantum/keymap_common.c **** extern keymap_config_t keymap_config;
  37:quantum/keymap_common.c **** 
  38:quantum/keymap_common.c **** #include <inttypes.h>
  39:quantum/keymap_common.c **** 
  40:quantum/keymap_common.c **** /* converts key to action */
  41:quantum/keymap_common.c **** action_t action_for_key(uint8_t layer, keypos_t key)
  42:quantum/keymap_common.c **** {
  43:quantum/keymap_common.c ****     // 16bit keycodes - important
  44:quantum/keymap_common.c ****     uint16_t keycode = keymap_key_to_keycode(layer, key);
  45:quantum/keymap_common.c **** 
  46:quantum/keymap_common.c ****     // keycode remapping
  47:quantum/keymap_common.c ****     keycode = keycode_config(keycode);
  48:quantum/keymap_common.c **** 
  49:quantum/keymap_common.c ****     action_t action;
  50:quantum/keymap_common.c ****     uint8_t action_layer, when, mod;
  51:quantum/keymap_common.c **** 
  52:quantum/keymap_common.c ****     switch (keycode) {
  53:quantum/keymap_common.c ****         case KC_FN0 ... KC_FN31:
  54:quantum/keymap_common.c ****             action.code = keymap_function_id_to_action(FN_INDEX(keycode));
  55:quantum/keymap_common.c ****             break;
  56:quantum/keymap_common.c ****         case KC_A ... KC_EXSEL:
  57:quantum/keymap_common.c ****         case KC_LCTRL ... KC_RGUI:
  58:quantum/keymap_common.c ****             action.code = ACTION_KEY(keycode);
  59:quantum/keymap_common.c ****             break;
  60:quantum/keymap_common.c ****         case KC_SYSTEM_POWER ... KC_SYSTEM_WAKE:
  61:quantum/keymap_common.c ****             action.code = ACTION_USAGE_SYSTEM(KEYCODE2SYSTEM(keycode));
  62:quantum/keymap_common.c ****             break;
  63:quantum/keymap_common.c ****         case KC_AUDIO_MUTE ... KC_MEDIA_REWIND:
  64:quantum/keymap_common.c ****             action.code = ACTION_USAGE_CONSUMER(KEYCODE2CONSUMER(keycode));
  65:quantum/keymap_common.c ****             break;
  66:quantum/keymap_common.c ****         case KC_MS_UP ... KC_MS_ACCEL2:
  67:quantum/keymap_common.c ****             action.code = ACTION_MOUSEKEY(keycode);
  68:quantum/keymap_common.c ****             break;
  69:quantum/keymap_common.c ****         case KC_TRNS:
  70:quantum/keymap_common.c ****             action.code = ACTION_TRANSPARENT;
  71:quantum/keymap_common.c ****             break;
  72:quantum/keymap_common.c ****         case QK_MODS ... QK_MODS_MAX: ;
  73:quantum/keymap_common.c ****             // Has a modifier
  74:quantum/keymap_common.c ****             // Split it up
  75:quantum/keymap_common.c ****             action.code = ACTION_MODS_KEY(keycode >> 8, keycode & 0xFF); // adds modifier to key
  76:quantum/keymap_common.c ****             break;
  77:quantum/keymap_common.c ****         case QK_FUNCTION ... QK_FUNCTION_MAX: ;
  78:quantum/keymap_common.c ****             // Is a shortcut for function action_layer, pull last 12bits
  79:quantum/keymap_common.c ****             // This means we have 4,096 FN macros at our disposal
  80:quantum/keymap_common.c ****             action.code = keymap_function_id_to_action( (int)keycode & 0xFFF );
  81:quantum/keymap_common.c ****             break;
  82:quantum/keymap_common.c ****         case QK_MACRO ... QK_MACRO_MAX:
  83:quantum/keymap_common.c ****             action.code = ACTION_MACRO(keycode & 0xFF);
  84:quantum/keymap_common.c ****             break;
  85:quantum/keymap_common.c ****         case QK_LAYER_TAP ... QK_LAYER_TAP_MAX:
  86:quantum/keymap_common.c ****             action.code = ACTION_LAYER_TAP_KEY((keycode >> 0x8) & 0xF, keycode & 0xFF);
  87:quantum/keymap_common.c ****             break;
  88:quantum/keymap_common.c ****         case QK_TO ... QK_TO_MAX: ;
  89:quantum/keymap_common.c ****             // Layer set "GOTO"
  90:quantum/keymap_common.c ****             when = (keycode >> 0x4) & 0x3;
  91:quantum/keymap_common.c ****             action_layer = keycode & 0xF;
  92:quantum/keymap_common.c ****             action.code = ACTION_LAYER_SET(action_layer, when);
  93:quantum/keymap_common.c ****             break;
  94:quantum/keymap_common.c ****         case QK_MOMENTARY ... QK_MOMENTARY_MAX: ;
  95:quantum/keymap_common.c ****             // Momentary action_layer
  96:quantum/keymap_common.c ****             action_layer = keycode & 0xFF;
  97:quantum/keymap_common.c ****             action.code = ACTION_LAYER_MOMENTARY(action_layer);
  98:quantum/keymap_common.c ****             break;
  99:quantum/keymap_common.c ****         case QK_DEF_LAYER ... QK_DEF_LAYER_MAX: ;
 100:quantum/keymap_common.c ****             // Set default action_layer
 101:quantum/keymap_common.c ****             action_layer = keycode & 0xFF;
 102:quantum/keymap_common.c ****             action.code = ACTION_DEFAULT_LAYER_SET(action_layer);
 103:quantum/keymap_common.c ****             break;
 104:quantum/keymap_common.c ****         case QK_TOGGLE_LAYER ... QK_TOGGLE_LAYER_MAX: ;
 105:quantum/keymap_common.c ****             // Set toggle
 106:quantum/keymap_common.c ****             action_layer = keycode & 0xFF;
 107:quantum/keymap_common.c ****             action.code = ACTION_LAYER_TOGGLE(action_layer);
 108:quantum/keymap_common.c ****             break;
 109:quantum/keymap_common.c ****         case QK_ONE_SHOT_LAYER ... QK_ONE_SHOT_LAYER_MAX: ;
 110:quantum/keymap_common.c ****             // OSL(action_layer) - One-shot action_layer
 111:quantum/keymap_common.c ****             action_layer = keycode & 0xFF;
 112:quantum/keymap_common.c ****             action.code = ACTION_LAYER_ONESHOT(action_layer);
 113:quantum/keymap_common.c ****             break;
 114:quantum/keymap_common.c ****         case QK_ONE_SHOT_MOD ... QK_ONE_SHOT_MOD_MAX: ;
 115:quantum/keymap_common.c ****             // OSM(mod) - One-shot mod
 116:quantum/keymap_common.c ****             mod = keycode & 0xFF;
 117:quantum/keymap_common.c ****             action.code = ACTION_MODS_ONESHOT(mod);
 118:quantum/keymap_common.c ****             break;
 119:quantum/keymap_common.c ****         case QK_MOD_TAP ... QK_MOD_TAP_MAX:
 120:quantum/keymap_common.c ****             action.code = ACTION_MODS_TAP_KEY((keycode >> 0x8) & 0xF, keycode & 0xFF);
 121:quantum/keymap_common.c ****             break;
 122:quantum/keymap_common.c ****     #ifdef BACKLIGHT_ENABLE
 123:quantum/keymap_common.c ****         case BL_0 ... BL_15:
 124:quantum/keymap_common.c ****             action.code = ACTION_BACKLIGHT_LEVEL(keycode - BL_0);
 125:quantum/keymap_common.c ****             break;
 126:quantum/keymap_common.c ****         case BL_DEC:
 127:quantum/keymap_common.c ****             action.code = ACTION_BACKLIGHT_DECREASE();
 128:quantum/keymap_common.c ****             break;
 129:quantum/keymap_common.c ****         case BL_INC:
 130:quantum/keymap_common.c ****             action.code = ACTION_BACKLIGHT_INCREASE();
 131:quantum/keymap_common.c ****             break;
 132:quantum/keymap_common.c ****         case BL_TOGG:
 133:quantum/keymap_common.c ****             action.code = ACTION_BACKLIGHT_TOGGLE();
 134:quantum/keymap_common.c ****             break;
 135:quantum/keymap_common.c ****         case BL_STEP:
 136:quantum/keymap_common.c ****             action.code = ACTION_BACKLIGHT_STEP();
 137:quantum/keymap_common.c ****             break;
 138:quantum/keymap_common.c ****     #endif
 139:quantum/keymap_common.c ****         default:
 140:quantum/keymap_common.c ****             action.code = ACTION_NO;
 141:quantum/keymap_common.c ****             break;
 142:quantum/keymap_common.c ****     }
 143:quantum/keymap_common.c ****     return action;
 144:quantum/keymap_common.c **** }
 145:quantum/keymap_common.c **** 
 146:quantum/keymap_common.c **** __attribute__ ((weak))
 147:quantum/keymap_common.c **** const uint16_t PROGMEM fn_actions[] = {
 148:quantum/keymap_common.c **** 
 149:quantum/keymap_common.c **** };
 150:quantum/keymap_common.c **** 
 151:quantum/keymap_common.c **** /* Macro */
 152:quantum/keymap_common.c **** __attribute__ ((weak))
 153:quantum/keymap_common.c **** const macro_t *action_get_macro(keyrecord_t *record, uint8_t id, uint8_t opt)
 154:quantum/keymap_common.c **** {
  18               		.loc 1 154 1 view -0
  19               		.cfi_startproc
  20               	/* prologue: function */
  21               	/* frame size = 0 */
  22               	/* stack size = 0 */
  23               	.L__stack_usage = 0
 155:quantum/keymap_common.c ****     return MACRO_NONE;
  24               		.loc 1 155 5 view .LVU1
 156:quantum/keymap_common.c **** }
  25               		.loc 1 156 1 is_stmt 0 view .LVU2
  26 0000 90E0      		ldi r25,0
  27 0002 80E0      		ldi r24,0
  28               	.LVL1:
  29               	/* epilogue start */
  30               		.loc 1 156 1 view .LVU3
  31 0004 0895      		ret
  32               		.cfi_endproc
  33               	.LFE112:
  35               		.section	.text.action_function,"ax",@progbits
  36               		.weak	action_function
  38               	action_function:
  39               	.LVL2:
  40               	.LFB113:
 157:quantum/keymap_common.c **** 
 158:quantum/keymap_common.c **** /* Function */
 159:quantum/keymap_common.c **** __attribute__ ((weak))
 160:quantum/keymap_common.c **** void action_function(keyrecord_t *record, uint8_t id, uint8_t opt)
 161:quantum/keymap_common.c **** {
  41               		.loc 1 161 1 is_stmt 1 view -0
  42               		.cfi_startproc
  43               	/* prologue: function */
  44               	/* frame size = 0 */
  45               	/* stack size = 0 */
  46               	.L__stack_usage = 0
 162:quantum/keymap_common.c **** }
  47               		.loc 1 162 1 view .LVU5
  48               	/* epilogue start */
  49 0000 0895      		ret
  50               		.cfi_endproc
  51               	.LFE113:
  53               		.section	.text.keymap_key_to_keycode,"ax",@progbits
  54               		.weak	keymap_key_to_keycode
  56               	keymap_key_to_keycode:
  57               	.LVL3:
  58               	.LFB114:
 163:quantum/keymap_common.c **** 
 164:quantum/keymap_common.c **** // translates key to keycode
 165:quantum/keymap_common.c **** __attribute__ ((weak))
 166:quantum/keymap_common.c **** uint16_t keymap_key_to_keycode(uint8_t layer, keypos_t key)
 167:quantum/keymap_common.c **** {
  59               		.loc 1 167 1 view -0
  60               		.cfi_startproc
  61               	/* prologue: function */
  62               	/* frame size = 0 */
  63               	/* stack size = 0 */
  64               	.L__stack_usage = 0
  65               		.loc 1 167 1 is_stmt 0 view .LVU7
  66 0000 972F      		mov r25,r23
 168:quantum/keymap_common.c ****     // Read entire word (16bits)
 169:quantum/keymap_common.c ****     return pgm_read_word(&keymaps[(layer)][(key.row)][(key.col)]);
  67               		.loc 1 169 5 is_stmt 1 view .LVU8
  68               	.LBB2:
  69               		.loc 1 169 12 view .LVU9
  70 0002 70E0      		ldi r23,0
  71               		.loc 1 169 12 is_stmt 0 view .LVU10
  72 0004 29E1      		ldi r18,lo8(25)
  73 0006 929F      		mul r25,r18
  74 0008 600D      		add r22,r0
  75 000a 711D      		adc r23,r1
  76 000c 1124      		clr __zero_reg__
  77               	.LVL4:
  78               		.loc 1 169 12 view .LVU11
  79 000e FB01      		movw r30,r22
  80 0010 98EC      		ldi r25,lo8(-56)
  81 0012 899F      		mul r24,r25
  82 0014 E00D      		add r30,r0
  83 0016 F11D      		adc r31,r1
  84 0018 1124      		clr __zero_reg__
  85 001a EE0F      		lsl r30
  86 001c FF1F      		rol r31
  87               	.LVL5:
  88               		.loc 1 169 12 view .LVU12
  89 001e E050      		subi r30,lo8(-(keymaps))
  90 0020 F040      		sbci r31,hi8(-(keymaps))
  91               	.LVL6:
  92               		.loc 1 169 12 is_stmt 1 view .LVU13
  93               		.loc 1 169 12 view .LVU14
  94               	/* #APP */
  95               	 ;  169 "quantum/keymap_common.c" 1
  96 0022 8591      		lpm r24, Z+
  97 0024 9491      		lpm r25, Z
  98               		
  99               	 ;  0 "" 2
 100               	.LVL7:
 101               		.loc 1 169 12 view .LVU15
 102               	/* #NOAPP */
 103               	/* epilogue start */
 104               	.LBE2:
 170:quantum/keymap_common.c **** }
 105               		.loc 1 170 1 is_stmt 0 view .LVU16
 106 0026 0895      		ret
 107               		.cfi_endproc
 108               	.LFE114:
 110               		.section	.text.keymap_function_id_to_action,"ax",@progbits
 111               		.weak	keymap_function_id_to_action
 113               	keymap_function_id_to_action:
 114               	.LVL8:
 115               	.LFB115:
 171:quantum/keymap_common.c **** 
 172:quantum/keymap_common.c **** // translates function id to action
 173:quantum/keymap_common.c **** __attribute__ ((weak))
 174:quantum/keymap_common.c **** uint16_t keymap_function_id_to_action( uint16_t function_id )
 175:quantum/keymap_common.c **** {
 116               		.loc 1 175 1 is_stmt 1 view -0
 117               		.cfi_startproc
 118               	/* prologue: function */
 119               	/* frame size = 0 */
 120               	/* stack size = 0 */
 121               	.L__stack_usage = 0
 176:quantum/keymap_common.c **** 	return pgm_read_word(&fn_actions[function_id]);
 122               		.loc 1 176 2 view .LVU18
 123               	.LBB3:
 124               		.loc 1 176 9 view .LVU19
 125 0000 FC01      		movw r30,r24
 126 0002 EE0F      		lsl r30
 127 0004 FF1F      		rol r31
 128               	.LVL9:
 129               		.loc 1 176 9 is_stmt 0 view .LVU20
 130 0006 E050      		subi r30,lo8(-(fn_actions))
 131 0008 F040      		sbci r31,hi8(-(fn_actions))
 132               	.LVL10:
 133               		.loc 1 176 9 is_stmt 1 view .LVU21
 134               		.loc 1 176 9 view .LVU22
 135               	/* #APP */
 136               	 ;  176 "quantum/keymap_common.c" 1
 137 000a 8591      		lpm r24, Z+
 138 000c 9491      		lpm r25, Z
 139               		
 140               	 ;  0 "" 2
 141               	.LVL11:
 142               		.loc 1 176 9 view .LVU23
 143               	/* #NOAPP */
 144               	/* epilogue start */
 145               	.LBE3:
 177:quantum/keymap_common.c **** }
 146               		.loc 1 177 1 is_stmt 0 view .LVU24
 147 000e 0895      		ret
 148               		.cfi_endproc
 149               	.LFE115:
 151               		.section	.text.action_for_key,"ax",@progbits
 152               	.global	action_for_key
 154               	action_for_key:
 155               	.LVL12:
 156               	.LFB111:
  42:quantum/keymap_common.c ****     // 16bit keycodes - important
 157               		.loc 1 42 1 is_stmt 1 view -0
 158               		.cfi_startproc
 159               	/* prologue: function */
 160               	/* frame size = 0 */
 161               	/* stack size = 0 */
 162               	.L__stack_usage = 0
  44:quantum/keymap_common.c **** 
 163               		.loc 1 44 5 view .LVU26
  44:quantum/keymap_common.c **** 
 164               		.loc 1 44 24 is_stmt 0 view .LVU27
 165 0000 0E94 0000 		call keymap_key_to_keycode
 166               	.LVL13:
  47:quantum/keymap_common.c **** 
 167               		.loc 1 47 5 is_stmt 1 view .LVU28
  47:quantum/keymap_common.c **** 
 168               		.loc 1 47 15 is_stmt 0 view .LVU29
 169 0004 0E94 0000 		call keycode_config
 170               	.LVL14:
  47:quantum/keymap_common.c **** 
 171               		.loc 1 47 15 view .LVU30
 172 0008 9C01      		movw r18,r24
 173               	.LVL15:
  49:quantum/keymap_common.c ****     uint8_t action_layer, when, mod;
 174               		.loc 1 49 5 is_stmt 1 view .LVU31
  50:quantum/keymap_common.c **** 
 175               		.loc 1 50 5 view .LVU32
  52:quantum/keymap_common.c ****         case KC_FN0 ... KC_FN31:
 176               		.loc 1 52 5 view .LVU33
 177 000a 8115      		cp r24,__zero_reg__
 178 000c 9044      		sbci r25,64
 179 000e 00F4      		brsh .L6
 180 0010 2115      		cp r18,__zero_reg__
 181 0012 80E3      		ldi r24,48
 182 0014 3807      		cpc r19,r24
 183 0016 00F0      		brlo .+2
 184 0018 00C0      		rjmp .L7
 185 001a 203E      		cpi r18,-32
 186 001c 3105      		cpc r19,__zero_reg__
 187 001e 00F4      		brsh .L8
 188 0020 203C      		cpi r18,-64
 189 0022 3105      		cpc r19,__zero_reg__
 190 0024 00F0      		brlo .+2
 191 0026 00C0      		rjmp .L9
 192 0028 283A      		cpi r18,-88
 193 002a 3105      		cpc r19,__zero_reg__
 194 002c 00F4      		brsh .L10
 195 002e 253A      		cpi r18,-91
 196 0030 3105      		cpc r19,__zero_reg__
 197 0032 00F0      		brlo .+2
 198 0034 00C0      		rjmp .L11
 199 0036 2130      		cpi r18,1
 200 0038 3105      		cpc r19,__zero_reg__
 201 003a 01F0      		breq .L12
 202 003c C901      		movw r24,r18
 203 003e 0497      		sbiw r24,4
 204 0040 813A      		cpi r24,-95
 205 0042 9105      		cpc r25,__zero_reg__
 206 0044 00F4      		brsh .L27
 207               	.LVL16:
 208               	.L12:
 143:quantum/keymap_common.c **** }
 209               		.loc 1 143 5 view .LVU34
 144:quantum/keymap_common.c **** 
 210               		.loc 1 144 1 is_stmt 0 view .LVU35
 211 0046 C901      		movw r24,r18
 212               	/* epilogue start */
 213 0048 0895      		ret
 214               	.LVL17:
 215               	.L10:
  52:quantum/keymap_common.c ****         case KC_FN0 ... KC_FN31:
 216               		.loc 1 52 5 view .LVU36
 217 004a C901      		movw r24,r18
 218 004c 885A      		subi r24,-88
 219 004e 9109      		sbc r25,__zero_reg__
 220 0050 4597      		sbiw r24,21
 221 0052 00F4      		brsh .+2
 222 0054 00C0      		rjmp .L34
 223               	.LVL18:
 224               	.L27:
 140:quantum/keymap_common.c ****             break;
 225               		.loc 1 140 25 view .LVU37
 226 0056 30E0      		ldi r19,0
 227 0058 20E0      		ldi r18,0
 228 005a 00C0      		rjmp .L12
 229               	.LVL19:
 230               	.L8:
  52:quantum/keymap_common.c ****         case KC_FN0 ... KC_FN31:
 231               		.loc 1 52 5 view .LVU38
 232 005c 2115      		cp r18,__zero_reg__
 233 005e 40E2      		ldi r20,32
 234 0060 3407      		cpc r19,r20
 235 0062 00F4      		brsh .L14
 236 0064 2F3F      		cpi r18,-1
 237 0066 3105      		cpc r19,__zero_reg__
 238 0068 01F0      		breq .+2
 239 006a 00F4      		brsh .L12
 240 006c 283E      		cpi r18,-24
 241 006e 3105      		cpc r19,__zero_reg__
 242 0070 00F0      		brlo .L12
 243 0072 C901      		movw r24,r18
 244 0074 805F      		subi r24,-16
 245 0076 9109      		sbc r25,__zero_reg__
  67:quantum/keymap_common.c ****             break;
 246               		.loc 1 67 27 view .LVU39
 247 0078 3065      		ori r19,80
 248               	.LVL20:
  52:quantum/keymap_common.c ****         case KC_FN0 ... KC_FN31:
 249               		.loc 1 52 5 view .LVU40
 250 007a 4097      		sbiw r24,16
 251 007c 00F0      		brlo .L12
 252 007e 00C0      		rjmp .L27
 253               	.LVL21:
 254               	.L14:
  77:quantum/keymap_common.c ****             // Is a shortcut for function action_layer, pull last 12bits
 255               		.loc 1 77 47 is_stmt 1 view .LVU41
  80:quantum/keymap_common.c ****             break;
 256               		.loc 1 80 13 view .LVU42
  80:quantum/keymap_common.c ****             break;
 257               		.loc 1 80 27 is_stmt 0 view .LVU43
 258 0080 C901      		movw r24,r18
 259 0082 9F70      		andi r25,15
 260               	.L37:
  54:quantum/keymap_common.c ****             break;
 261               		.loc 1 54 27 view .LVU44
 262 0084 0E94 0000 		call keymap_function_id_to_action
 263               	.LVL22:
  54:quantum/keymap_common.c ****             break;
 264               		.loc 1 54 27 view .LVU45
 265 0088 9C01      		movw r18,r24
 266               	.LVL23:
  55:quantum/keymap_common.c ****         case KC_A ... KC_EXSEL:
 267               		.loc 1 55 13 is_stmt 1 view .LVU46
 268 008a 00C0      		rjmp .L12
 269               	.LVL24:
 270               	.L6:
  52:quantum/keymap_common.c ****         case KC_FN0 ... KC_FN31:
 271               		.loc 1 52 5 is_stmt 0 view .LVU47
 272 008c 2115      		cp r18,__zero_reg__
 273 008e 84E5      		ldi r24,84
 274 0090 3807      		cpc r19,r24
 275 0092 00F0      		brlo .+2
 276 0094 00C0      		rjmp .L16
 277 0096 2115      		cp r18,__zero_reg__
 278 0098 43E5      		ldi r20,83
 279 009a 3407      		cpc r19,r20
 280 009c 00F0      		brlo .+2
 281 009e 00C0      		rjmp .L17
 282 00a0 2115      		cp r18,__zero_reg__
 283 00a2 82E5      		ldi r24,82
 284 00a4 3807      		cpc r19,r24
 285 00a6 00F4      		brsh .L18
 286 00a8 2115      		cp r18,__zero_reg__
 287 00aa 41E5      		ldi r20,81
 288 00ac 3407      		cpc r19,r20
 289 00ae 00F0      		brlo .+2
 290 00b0 00C0      		rjmp .L19
 291 00b2 2115      		cp r18,__zero_reg__
 292 00b4 80E5      		ldi r24,80
 293 00b6 3807      		cpc r19,r24
 294 00b8 00F4      		brsh .+2
 295 00ba 00C0      		rjmp .L20
  88:quantum/keymap_common.c ****             // Layer set "GOTO"
 296               		.loc 1 88 35 is_stmt 1 view .LVU48
  90:quantum/keymap_common.c ****             action_layer = keycode & 0xF;
 297               		.loc 1 90 13 view .LVU49
 298               	.LVL25:
  91:quantum/keymap_common.c ****             action.code = ACTION_LAYER_SET(action_layer, when);
 299               		.loc 1 91 13 view .LVU50
  92:quantum/keymap_common.c ****             break;
 300               		.loc 1 92 13 view .LVU51
  90:quantum/keymap_common.c ****             action_layer = keycode & 0xF;
 301               		.loc 1 90 29 is_stmt 0 view .LVU52
 302 00bc C901      		movw r24,r18
 303 00be 54E0      		ldi r21,4
 304               		1:
 305 00c0 9695      		lsr r25
 306 00c2 8795      		ror r24
 307 00c4 5A95      		dec r21
 308 00c6 01F4      		brne 1b
  90:quantum/keymap_common.c ****             action_layer = keycode & 0xF;
 309               		.loc 1 90 18 view .LVU53
 310 00c8 382F      		mov r19,r24
 311 00ca 3370      		andi r19,lo8(3)
  92:quantum/keymap_common.c ****             break;
 312               		.loc 1 92 27 view .LVU54
 313 00cc 822F      		mov r24,r18
 314 00ce 8695      		lsr r24
 315 00d0 8695      		lsr r24
 316 00d2 8370      		andi r24,lo8(3)
 317 00d4 40E2      		ldi r20,lo8(32)
 318 00d6 849F      		mul r24,r20
 319 00d8 C001      		movw r24,r0
 320 00da 1124      		clr __zero_reg__
 321 00dc 932B      		or r25,r19
 322 00de 422F      		mov r20,r18
 323 00e0 4370      		andi r20,lo8(3)
 324 00e2 21E0      		ldi r18,lo8(1)
 325 00e4 30E0      		ldi r19,0
 326               	.LVL26:
  92:quantum/keymap_common.c ****             break;
 327               		.loc 1 92 27 view .LVU55
 328 00e6 00C0      		rjmp 2f
 329               		1:
 330 00e8 220F      		lsl r18
 331 00ea 331F      		rol r19
 332               		2:
 333 00ec 4A95      		dec r20
 334 00ee 02F4      		brpl 1b
 335               	.L38:
 102:quantum/keymap_common.c ****             break;
 336               		.loc 1 102 27 view .LVU56
 337 00f0 282B      		or r18,r24
 338 00f2 392B      		or r19,r25
 339               	.LVL27:
 102:quantum/keymap_common.c ****             break;
 340               		.loc 1 102 27 view .LVU57
 341 00f4 3C68      		ori r19,140
 342               	.LVL28:
 103:quantum/keymap_common.c ****         case QK_TOGGLE_LAYER ... QK_TOGGLE_LAYER_MAX: ;
 343               		.loc 1 103 13 is_stmt 1 view .LVU58
 344 00f6 00C0      		rjmp .L12
 345               	.LVL29:
 346               	.L18:
  99:quantum/keymap_common.c ****             // Set default action_layer
 347               		.loc 1 99 49 view .LVU59
 101:quantum/keymap_common.c ****             action.code = ACTION_DEFAULT_LAYER_SET(action_layer);
 348               		.loc 1 101 13 view .LVU60
 102:quantum/keymap_common.c ****             break;
 349               		.loc 1 102 13 view .LVU61
 102:quantum/keymap_common.c ****             break;
 350               		.loc 1 102 27 is_stmt 0 view .LVU62
 351 00f8 A901      		movw r20,r18
 352 00fa 4370      		andi r20,3
 353 00fc 5527      		clr r21
 354 00fe 81E0      		ldi r24,lo8(1)
 355 0100 90E0      		ldi r25,0
 356 0102 00C0      		rjmp 2f
 357               		1:
 358 0104 880F      		lsl r24
 359 0106 991F      		rol r25
 360               		2:
 361 0108 4A95      		dec r20
 362 010a 02F4      		brpl 1b
 363 010c 2695      		lsr r18
 364 010e 2695      		lsr r18
 365               	.LVL30:
 102:quantum/keymap_common.c ****             break;
 366               		.loc 1 102 27 view .LVU63
 367 0110 40E2      		ldi r20,lo8(32)
 368 0112 249F      		mul r18,r20
 369 0114 9001      		movw r18,r0
 370 0116 1124      		clr __zero_reg__
 371 0118 00C0      		rjmp .L38
 372               	.LVL31:
 373               	.L16:
  52:quantum/keymap_common.c ****         case KC_FN0 ... KC_FN31:
 374               		.loc 1 52 5 view .LVU64
 375 011a 2115      		cp r18,__zero_reg__
 376 011c 86E5      		ldi r24,86
 377 011e 3807      		cpc r19,r24
 378 0120 00F4      		brsh .L21
 379 0122 922F      		mov r25,r18
 380 0124 8827      		clr r24
 381 0126 2115      		cp r18,__zero_reg__
 382 0128 3545      		sbci r19,85
 383 012a 00F0      		brlo .+2
 384 012c 00C0      		rjmp .L22
 109:quantum/keymap_common.c ****             // OSL(action_layer) - One-shot action_layer
 385               		.loc 1 109 59 is_stmt 1 view .LVU65
 111:quantum/keymap_common.c ****             action.code = ACTION_LAYER_ONESHOT(action_layer);
 386               		.loc 1 111 13 view .LVU66
 387               	.LVL32:
 112:quantum/keymap_common.c ****             break;
 388               		.loc 1 112 13 view .LVU67
 112:quantum/keymap_common.c ****             break;
 389               		.loc 1 112 27 is_stmt 0 view .LVU68
 390 012e 9C01      		movw r18,r24
 391 0130 246F      		ori r18,244
 392 0132 306A      		ori r19,160
 393               	.LVL33:
 113:quantum/keymap_common.c ****         case QK_ONE_SHOT_MOD ... QK_ONE_SHOT_MOD_MAX: ;
 394               		.loc 1 113 13 is_stmt 1 view .LVU69
 395 0134 00C0      		rjmp .L12
 396               	.LVL34:
 397               	.L21:
  52:quantum/keymap_common.c ****         case KC_FN0 ... KC_FN31:
 398               		.loc 1 52 5 is_stmt 0 view .LVU70
 399 0136 C901      		movw r24,r18
 400 0138 9056      		subi r25,96
 120:quantum/keymap_common.c ****             break;
 401               		.loc 1 120 27 view .LVU71
 402 013a 3F70      		andi r19,15
 403               	.LVL35:
  52:quantum/keymap_common.c ****         case KC_FN0 ... KC_FN31:
 404               		.loc 1 52 5 view .LVU72
 405 013c 8115      		cp r24,__zero_reg__
 406 013e 9041      		sbci r25,16
 407 0140 00F0      		brlo .+2
 408 0142 00C0      		rjmp .L27
 409               	.LVL36:
 410               	.L39:
 120:quantum/keymap_common.c ****             break;
 411               		.loc 1 120 27 view .LVU73
 412 0144 3062      		ori r19,32
 413               	.LVL37:
 121:quantum/keymap_common.c ****     #ifdef BACKLIGHT_ENABLE
 414               		.loc 1 121 13 is_stmt 1 view .LVU74
 415 0146 00C0      		rjmp .L12
 416               	.LVL38:
 417               	.L9:
  54:quantum/keymap_common.c ****             break;
 418               		.loc 1 54 13 view .LVU75
  54:quantum/keymap_common.c ****             break;
 419               		.loc 1 54 27 is_stmt 0 view .LVU76
 420 0148 C901      		movw r24,r18
 421 014a 805C      		subi r24,-64
 422 014c 9109      		sbc r25,__zero_reg__
 423 014e 00C0      		rjmp .L37
 424               	.L11:
  61:quantum/keymap_common.c ****             break;
 425               		.loc 1 61 13 is_stmt 1 view .LVU77
  61:quantum/keymap_common.c ****             break;
 426               		.loc 1 61 27 is_stmt 0 view .LVU78
 427 0150 253A      		cpi r18,-91
 428 0152 3105      		cpc r19,__zero_reg__
 429 0154 01F0      		breq .L28
  61:quantum/keymap_common.c ****             break;
 430               		.loc 1 61 27 discriminator 1 view .LVU79
 431 0156 263A      		cpi r18,-90
 432 0158 3105      		cpc r19,__zero_reg__
 433 015a 01F0      		breq .L29
 434               	.LVL39:
  61:quantum/keymap_common.c ****             break;
 435               		.loc 1 61 27 view .LVU80
 436 015c 23E8      		ldi r18,lo8(-125)
 437 015e 30E4      		ldi r19,lo8(64)
 438 0160 00C0      		rjmp .L12
 439               	.LVL40:
 440               	.L34:
  64:quantum/keymap_common.c ****             break;
 441               		.loc 1 64 13 is_stmt 1 view .LVU81
  64:quantum/keymap_common.c ****             break;
 442               		.loc 1 64 27 is_stmt 0 view .LVU82
 443 0162 283A      		cpi r18,-88
 444 0164 3105      		cpc r19,__zero_reg__
 445 0166 01F0      		breq .L30
 446 0168 220F      		lsl r18
 447 016a 331F      		rol r19
 448               	.LVL41:
  64:quantum/keymap_common.c ****             break;
 449               		.loc 1 64 27 view .LVU83
 450 016c F901      		movw r30,r18
 451 016e E050      		subi r30,lo8(-(CSWTCH.30-338))
 452 0170 F040      		sbci r31,hi8(-(CSWTCH.30-338))
 453               	.LVL42:
  64:quantum/keymap_common.c ****             break;
 454               		.loc 1 64 27 view .LVU84
 455 0172 2081      		ld r18,Z
 456 0174 3181      		ldd r19,Z+1
 457 0176 00C0      		rjmp .L12
 458               	.LVL43:
 459               	.L7:
  83:quantum/keymap_common.c ****             break;
 460               		.loc 1 83 13 is_stmt 1 view .LVU85
  83:quantum/keymap_common.c ****             break;
 461               		.loc 1 83 27 is_stmt 0 view .LVU86
 462 0178 3327      		clr r19
 463               	.LVL44:
  83:quantum/keymap_common.c ****             break;
 464               		.loc 1 83 27 view .LVU87
 465 017a 306C      		ori r19,192
 466               	.LVL45:
  84:quantum/keymap_common.c ****         case QK_LAYER_TAP ... QK_LAYER_TAP_MAX:
 467               		.loc 1 84 13 is_stmt 1 view .LVU88
 468 017c 00C0      		rjmp .L12
 469               	.LVL46:
 470               	.L20:
  86:quantum/keymap_common.c ****             break;
 471               		.loc 1 86 13 view .LVU89
  86:quantum/keymap_common.c ****             break;
 472               		.loc 1 86 27 is_stmt 0 view .LVU90
 473 017e 3F70      		andi r19,15
 474               	.LVL47:
  86:quantum/keymap_common.c ****             break;
 475               		.loc 1 86 27 view .LVU91
 476 0180 306A      		ori r19,160
 477               	.LVL48:
  87:quantum/keymap_common.c ****         case QK_TO ... QK_TO_MAX: ;
 478               		.loc 1 87 13 is_stmt 1 view .LVU92
 479 0182 00C0      		rjmp .L12
 480               	.LVL49:
 481               	.L19:
  94:quantum/keymap_common.c ****             // Momentary action_layer
 482               		.loc 1 94 49 view .LVU93
  96:quantum/keymap_common.c ****             action.code = ACTION_LAYER_MOMENTARY(action_layer);
 483               		.loc 1 96 13 view .LVU94
  97:quantum/keymap_common.c ****             break;
 484               		.loc 1 97 13 view .LVU95
  97:quantum/keymap_common.c ****             break;
 485               		.loc 1 97 27 is_stmt 0 view .LVU96
 486 0184 322F      		mov r19,r18
 487 0186 2227      		clr r18
 488               	.LVL50:
  97:quantum/keymap_common.c ****             break;
 489               		.loc 1 97 27 view .LVU97
 490 0188 216F      		ori r18,241
 491 018a 306A      		ori r19,160
 492               	.LVL51:
  98:quantum/keymap_common.c ****         case QK_DEF_LAYER ... QK_DEF_LAYER_MAX: ;
 493               		.loc 1 98 13 is_stmt 1 view .LVU98
 494 018c 00C0      		rjmp .L12
 495               	.LVL52:
 496               	.L17:
 104:quantum/keymap_common.c ****             // Set toggle
 497               		.loc 1 104 55 view .LVU99
 106:quantum/keymap_common.c ****             action.code = ACTION_LAYER_TOGGLE(action_layer);
 498               		.loc 1 106 13 view .LVU100
 107:quantum/keymap_common.c ****             break;
 499               		.loc 1 107 13 view .LVU101
 107:quantum/keymap_common.c ****             break;
 500               		.loc 1 107 27 is_stmt 0 view .LVU102
 501 018e A901      		movw r20,r18
 502 0190 4370      		andi r20,3
 503 0192 5527      		clr r21
 504 0194 81E0      		ldi r24,lo8(1)
 505 0196 90E0      		ldi r25,0
 506 0198 00C0      		rjmp 2f
 507               		1:
 508 019a 880F      		lsl r24
 509 019c 991F      		rol r25
 510               		2:
 511 019e 4A95      		dec r20
 512 01a0 02F4      		brpl 1b
 513 01a2 2695      		lsr r18
 514 01a4 2695      		lsr r18
 515               	.LVL53:
 107:quantum/keymap_common.c ****             break;
 516               		.loc 1 107 27 view .LVU103
 517 01a6 40E2      		ldi r20,lo8(32)
 518 01a8 249F      		mul r18,r20
 519 01aa 9001      		movw r18,r0
 520 01ac 1124      		clr __zero_reg__
 521 01ae 282B      		or r18,r24
 522 01b0 392B      		or r19,r25
 523               	.LVL54:
 107:quantum/keymap_common.c ****             break;
 524               		.loc 1 107 27 view .LVU104
 525 01b2 3A68      		ori r19,138
 526               	.LVL55:
 108:quantum/keymap_common.c ****         case QK_ONE_SHOT_LAYER ... QK_ONE_SHOT_LAYER_MAX: ;
 527               		.loc 1 108 13 is_stmt 1 view .LVU105
 528 01b4 00C0      		rjmp .L12
 529               	.LVL56:
 530               	.L22:
 114:quantum/keymap_common.c ****             // OSM(mod) - One-shot mod
 531               		.loc 1 114 55 view .LVU106
 116:quantum/keymap_common.c ****             action.code = ACTION_MODS_ONESHOT(mod);
 532               		.loc 1 116 13 view .LVU107
 117:quantum/keymap_common.c ****             break;
 533               		.loc 1 117 13 view .LVU108
 117:quantum/keymap_common.c ****             break;
 534               		.loc 1 117 27 is_stmt 0 view .LVU109
 535 01b6 8827      		clr r24
 536 01b8 9F71      		andi r25,31
 537               	.LVL57:
 117:quantum/keymap_common.c ****             break;
 538               		.loc 1 117 27 view .LVU110
 539 01ba 9C01      		movw r18,r24
 540 01bc 00C0      		rjmp .L39
 541               	.LVL58:
 542               	.L28:
  61:quantum/keymap_common.c ****             break;
 543               		.loc 1 61 27 view .LVU111
 544 01be 21E8      		ldi r18,lo8(-127)
 545 01c0 30E4      		ldi r19,lo8(64)
 546 01c2 00C0      		rjmp .L12
 547               	.LVL59:
 548               	.L29:
  61:quantum/keymap_common.c ****             break;
 549               		.loc 1 61 27 view .LVU112
 550 01c4 22E8      		ldi r18,lo8(-126)
 551 01c6 30E4      		ldi r19,lo8(64)
 552 01c8 00C0      		rjmp .L12
 553               	.LVL60:
 554               	.L30:
  64:quantum/keymap_common.c ****             break;
 555               		.loc 1 64 27 view .LVU113
 556 01ca 22EE      		ldi r18,lo8(-30)
 557 01cc 34E4      		ldi r19,lo8(68)
 558 01ce 00C0      		rjmp .L12
 559               		.cfi_endproc
 560               	.LFE111:
 562               		.section	.rodata.CSWTCH.30,"a"
 565               	CSWTCH.30:
 566 0000 E944      		.word	17641
 567 0002 EA44      		.word	17642
 568 0004 B544      		.word	17589
 569 0006 B644      		.word	17590
 570 0008 B744      		.word	17591
 571 000a CD44      		.word	17613
 572 000c 8345      		.word	17795
 573 000e CC44      		.word	17612
 574 0010 8A45      		.word	17802
 575 0012 9245      		.word	17810
 576 0014 9445      		.word	17812
 577 0016 2146      		.word	17953
 578 0018 2346      		.word	17955
 579 001a 2446      		.word	17956
 580 001c 2546      		.word	17957
 581 001e 2646      		.word	17958
 582 0020 2746      		.word	17959
 583 0022 2A46      		.word	17962
 584 0024 B344      		.word	17587
 585 0026 B444      		.word	17588
 586               		.weak	fn_actions
 587               		.section	.progmem.data.fn_actions,"a"
 590               	fn_actions:
 591               		.text
 592               	.Letext0:
 593               		.file 2 "/usr/avr/include/stdint.h"
 594               		.file 3 "./tmk_core/common/keyboard.h"
 595               		.file 4 "./tmk_core/common/keycode.h"
 596               		.file 5 "./tmk_core/common/action_code.h"
 597               		.file 6 "./tmk_core/common/action_macro.h"
 598               		.file 7 "./tmk_core/common/action.h"
 599               		.file 8 "quantum/quantum_keycodes.h"
 600               		.file 9 "quantum/keymap.h"
 601               		.file 10 "quantum/keycode_config.h"
DEFINED SYMBOLS
                            *ABS*:0000000000000000 keymap_common.c
     /tmp/cc73zvR2.s:2      *ABS*:000000000000003e __SP_H__
     /tmp/cc73zvR2.s:3      *ABS*:000000000000003d __SP_L__
     /tmp/cc73zvR2.s:4      *ABS*:000000000000003f __SREG__
     /tmp/cc73zvR2.s:5      *ABS*:000000000000003b __RAMPZ__
     /tmp/cc73zvR2.s:6      *ABS*:0000000000000000 __tmp_reg__
     /tmp/cc73zvR2.s:7      *ABS*:0000000000000001 __zero_reg__
     /tmp/cc73zvR2.s:14     .text.action_get_macro:0000000000000000 action_get_macro
     /tmp/cc73zvR2.s:38     .text.action_function:0000000000000000 action_function
     /tmp/cc73zvR2.s:56     .text.keymap_key_to_keycode:0000000000000000 keymap_key_to_keycode
     /tmp/cc73zvR2.s:113    .text.keymap_function_id_to_action:0000000000000000 keymap_function_id_to_action
     /tmp/cc73zvR2.s:590    .progmem.data.fn_actions:0000000000000000 fn_actions
     /tmp/cc73zvR2.s:154    .text.action_for_key:0000000000000000 action_for_key
     /tmp/cc73zvR2.s:565    .rodata.CSWTCH.30:0000000000000000 CSWTCH.30

UNDEFINED SYMBOLS
keymaps
keycode_config
__do_copy_data
