   1               		.file	"HIDParser.c"
   2               	__SP_H__ = 0x3e
   3               	__SP_L__ = 0x3d
   4               	__SREG__ = 0x3f
   5               	__tmp_reg__ = 0
   6               	__zero_reg__ = 1
   7               		.text
   8               	.Ltext0:
   9               		.cfi_sections	.debug_frame
  10               		.section	.text.USB_ProcessHIDReport,"ax",@progbits
  11               	.global	USB_ProcessHIDReport
  13               	USB_ProcessHIDReport:
  14               	.LVL0:
  15               	.LFB16:
  16               		.file 1 "../../tmk_core/protocol/lufa/lufa-abcminiuser/LUFA/Drivers/USB/Class/Common/HIDParser.c"
   1:../../tmk_core/protocol/lufa/lufa-abcminiuser/LUFA/Drivers/USB/Class/Common/HIDParser.c **** /*
   2:../../tmk_core/protocol/lufa/lufa-abcminiuser/LUFA/Drivers/USB/Class/Common/HIDParser.c ****              LUFA Library
   3:../../tmk_core/protocol/lufa/lufa-abcminiuser/LUFA/Drivers/USB/Class/Common/HIDParser.c ****      Copyright (C) Dean Camera, 2019.
   4:../../tmk_core/protocol/lufa/lufa-abcminiuser/LUFA/Drivers/USB/Class/Common/HIDParser.c **** 
   5:../../tmk_core/protocol/lufa/lufa-abcminiuser/LUFA/Drivers/USB/Class/Common/HIDParser.c ****   dean [at] fourwalledcubicle [dot] com
   6:../../tmk_core/protocol/lufa/lufa-abcminiuser/LUFA/Drivers/USB/Class/Common/HIDParser.c ****            www.lufa-lib.org
   7:../../tmk_core/protocol/lufa/lufa-abcminiuser/LUFA/Drivers/USB/Class/Common/HIDParser.c **** */
   8:../../tmk_core/protocol/lufa/lufa-abcminiuser/LUFA/Drivers/USB/Class/Common/HIDParser.c **** 
   9:../../tmk_core/protocol/lufa/lufa-abcminiuser/LUFA/Drivers/USB/Class/Common/HIDParser.c **** /*
  10:../../tmk_core/protocol/lufa/lufa-abcminiuser/LUFA/Drivers/USB/Class/Common/HIDParser.c ****   Copyright 2019  Dean Camera (dean [at] fourwalledcubicle [dot] com)
  11:../../tmk_core/protocol/lufa/lufa-abcminiuser/LUFA/Drivers/USB/Class/Common/HIDParser.c **** 
  12:../../tmk_core/protocol/lufa/lufa-abcminiuser/LUFA/Drivers/USB/Class/Common/HIDParser.c ****   Permission to use, copy, modify, distribute, and sell this
  13:../../tmk_core/protocol/lufa/lufa-abcminiuser/LUFA/Drivers/USB/Class/Common/HIDParser.c ****   software and its documentation for any purpose is hereby granted
  14:../../tmk_core/protocol/lufa/lufa-abcminiuser/LUFA/Drivers/USB/Class/Common/HIDParser.c ****   without fee, provided that the above copyright notice appear in
  15:../../tmk_core/protocol/lufa/lufa-abcminiuser/LUFA/Drivers/USB/Class/Common/HIDParser.c ****   all copies and that both that the copyright notice and this
  16:../../tmk_core/protocol/lufa/lufa-abcminiuser/LUFA/Drivers/USB/Class/Common/HIDParser.c ****   permission notice and warranty disclaimer appear in supporting
  17:../../tmk_core/protocol/lufa/lufa-abcminiuser/LUFA/Drivers/USB/Class/Common/HIDParser.c ****   documentation, and that the name of the author not be used in
  18:../../tmk_core/protocol/lufa/lufa-abcminiuser/LUFA/Drivers/USB/Class/Common/HIDParser.c ****   advertising or publicity pertaining to distribution of the
  19:../../tmk_core/protocol/lufa/lufa-abcminiuser/LUFA/Drivers/USB/Class/Common/HIDParser.c ****   software without specific, written prior permission.
  20:../../tmk_core/protocol/lufa/lufa-abcminiuser/LUFA/Drivers/USB/Class/Common/HIDParser.c **** 
  21:../../tmk_core/protocol/lufa/lufa-abcminiuser/LUFA/Drivers/USB/Class/Common/HIDParser.c ****   The author disclaims all warranties with regard to this
  22:../../tmk_core/protocol/lufa/lufa-abcminiuser/LUFA/Drivers/USB/Class/Common/HIDParser.c ****   software, including all implied warranties of merchantability
  23:../../tmk_core/protocol/lufa/lufa-abcminiuser/LUFA/Drivers/USB/Class/Common/HIDParser.c ****   and fitness.  In no event shall the author be liable for any
  24:../../tmk_core/protocol/lufa/lufa-abcminiuser/LUFA/Drivers/USB/Class/Common/HIDParser.c ****   special, indirect or consequential damages or any damages
  25:../../tmk_core/protocol/lufa/lufa-abcminiuser/LUFA/Drivers/USB/Class/Common/HIDParser.c ****   whatsoever resulting from loss of use, data or profits, whether
  26:../../tmk_core/protocol/lufa/lufa-abcminiuser/LUFA/Drivers/USB/Class/Common/HIDParser.c ****   in an action of contract, negligence or other tortious action,
  27:../../tmk_core/protocol/lufa/lufa-abcminiuser/LUFA/Drivers/USB/Class/Common/HIDParser.c ****   arising out of or in connection with the use or performance of
  28:../../tmk_core/protocol/lufa/lufa-abcminiuser/LUFA/Drivers/USB/Class/Common/HIDParser.c ****   this software.
  29:../../tmk_core/protocol/lufa/lufa-abcminiuser/LUFA/Drivers/USB/Class/Common/HIDParser.c **** */
  30:../../tmk_core/protocol/lufa/lufa-abcminiuser/LUFA/Drivers/USB/Class/Common/HIDParser.c **** 
  31:../../tmk_core/protocol/lufa/lufa-abcminiuser/LUFA/Drivers/USB/Class/Common/HIDParser.c **** #define  __INCLUDE_FROM_USB_DRIVER
  32:../../tmk_core/protocol/lufa/lufa-abcminiuser/LUFA/Drivers/USB/Class/Common/HIDParser.c **** #define  __INCLUDE_FROM_HID_DRIVER
  33:../../tmk_core/protocol/lufa/lufa-abcminiuser/LUFA/Drivers/USB/Class/Common/HIDParser.c **** #include "HIDParser.h"
  34:../../tmk_core/protocol/lufa/lufa-abcminiuser/LUFA/Drivers/USB/Class/Common/HIDParser.c **** 
  35:../../tmk_core/protocol/lufa/lufa-abcminiuser/LUFA/Drivers/USB/Class/Common/HIDParser.c **** uint8_t USB_ProcessHIDReport(const uint8_t* ReportData,
  36:../../tmk_core/protocol/lufa/lufa-abcminiuser/LUFA/Drivers/USB/Class/Common/HIDParser.c ****                              uint16_t ReportSize,
  37:../../tmk_core/protocol/lufa/lufa-abcminiuser/LUFA/Drivers/USB/Class/Common/HIDParser.c ****                              HID_ReportInfo_t* const ParserData)
  38:../../tmk_core/protocol/lufa/lufa-abcminiuser/LUFA/Drivers/USB/Class/Common/HIDParser.c **** {
  17               		.loc 1 38 1 view -0
  18               		.cfi_startproc
  19               		.loc 1 38 1 is_stmt 0 view .LVU1
  20 0000 2F92      		push r2
  21               	.LCFI0:
  22               		.cfi_def_cfa_offset 3
  23               		.cfi_offset 2, -2
  24 0002 3F92      		push r3
  25               	.LCFI1:
  26               		.cfi_def_cfa_offset 4
  27               		.cfi_offset 3, -3
  28 0004 4F92      		push r4
  29               	.LCFI2:
  30               		.cfi_def_cfa_offset 5
  31               		.cfi_offset 4, -4
  32 0006 5F92      		push r5
  33               	.LCFI3:
  34               		.cfi_def_cfa_offset 6
  35               		.cfi_offset 5, -5
  36 0008 6F92      		push r6
  37               	.LCFI4:
  38               		.cfi_def_cfa_offset 7
  39               		.cfi_offset 6, -6
  40 000a 7F92      		push r7
  41               	.LCFI5:
  42               		.cfi_def_cfa_offset 8
  43               		.cfi_offset 7, -7
  44 000c 8F92      		push r8
  45               	.LCFI6:
  46               		.cfi_def_cfa_offset 9
  47               		.cfi_offset 8, -8
  48 000e 9F92      		push r9
  49               	.LCFI7:
  50               		.cfi_def_cfa_offset 10
  51               		.cfi_offset 9, -9
  52 0010 AF92      		push r10
  53               	.LCFI8:
  54               		.cfi_def_cfa_offset 11
  55               		.cfi_offset 10, -10
  56 0012 BF92      		push r11
  57               	.LCFI9:
  58               		.cfi_def_cfa_offset 12
  59               		.cfi_offset 11, -11
  60 0014 CF92      		push r12
  61               	.LCFI10:
  62               		.cfi_def_cfa_offset 13
  63               		.cfi_offset 12, -12
  64 0016 DF92      		push r13
  65               	.LCFI11:
  66               		.cfi_def_cfa_offset 14
  67               		.cfi_offset 13, -13
  68 0018 EF92      		push r14
  69               	.LCFI12:
  70               		.cfi_def_cfa_offset 15
  71               		.cfi_offset 14, -14
  72 001a FF92      		push r15
  73               	.LCFI13:
  74               		.cfi_def_cfa_offset 16
  75               		.cfi_offset 15, -15
  76 001c 0F93      		push r16
  77               	.LCFI14:
  78               		.cfi_def_cfa_offset 17
  79               		.cfi_offset 16, -16
  80 001e 1F93      		push r17
  81               	.LCFI15:
  82               		.cfi_def_cfa_offset 18
  83               		.cfi_offset 17, -17
  84 0020 CF93      		push r28
  85               	.LCFI16:
  86               		.cfi_def_cfa_offset 19
  87               		.cfi_offset 28, -18
  88 0022 DF93      		push r29
  89               	.LCFI17:
  90               		.cfi_def_cfa_offset 20
  91               		.cfi_offset 29, -19
  92 0024 CDB7      		in r28,__SP_L__
  93 0026 DEB7      		in r29,__SP_H__
  94               	.LCFI18:
  95               		.cfi_def_cfa_register 28
  96 0028 CA58      		subi r28,-118
  97 002a D109      		sbc r29,__zero_reg__
  98               	.LCFI19:
  99               		.cfi_def_cfa_offset 158
 100 002c 0FB6      		in __tmp_reg__,__SREG__
 101 002e F894      		cli
 102 0030 DEBF      		out __SP_H__,r29
 103 0032 0FBE      		out __SREG__,__tmp_reg__
 104 0034 CDBF      		out __SP_L__,r28
 105               	/* prologue: function */
 106               	/* frame size = 138 */
 107               	/* stack size = 156 */
 108               	.L__stack_usage = 156
 109 0036 1C01      		movw r2,r24
 110 0038 E696      		adiw r28,117-63
 111 003a 6FAF      		std Y+63,r22
 112 003c E697      		sbiw r28,117-63
 113 003e E796      		adiw r28,118-63
 114 0040 7FAF      		std Y+63,r23
 115 0042 E797      		sbiw r28,118-63
 116 0044 4A01      		movw r8,r20
  39:../../tmk_core/protocol/lufa/lufa-abcminiuser/LUFA/Drivers/USB/Class/Common/HIDParser.c **** 	HID_StateTable_t      StateTable[HID_STATETABLE_STACK_DEPTH];
 117               		.loc 1 39 2 is_stmt 1 view .LVU2
  40:../../tmk_core/protocol/lufa/lufa-abcminiuser/LUFA/Drivers/USB/Class/Common/HIDParser.c **** 	HID_StateTable_t*     CurrStateTable     = &StateTable[0];
 118               		.loc 1 40 2 view .LVU3
 119               	.LVL1:
  41:../../tmk_core/protocol/lufa/lufa-abcminiuser/LUFA/Drivers/USB/Class/Common/HIDParser.c **** 	HID_CollectionPath_t* CurrCollectionPath = NULL;
 120               		.loc 1 41 2 view .LVU4
  42:../../tmk_core/protocol/lufa/lufa-abcminiuser/LUFA/Drivers/USB/Class/Common/HIDParser.c **** 	HID_ReportSizeInfo_t* CurrReportIDInfo   = &ParserData->ReportIDSizes[0];
 121               		.loc 1 42 2 view .LVU5
 122               		.loc 1 42 24 is_stmt 0 view .LVU6
 123 0046 9A01      		movw r18,r20
 124 0048 2057      		subi r18,112
 125 004a 3C4F      		sbci r19,-4
 126 004c ED96      		adiw r28,123-62
 127 004e 3FAF      		std Y+63,r19
 128 0050 2EAF      		std Y+62,r18
 129 0052 ED97      		sbiw r28,123-62
 130               	.LVL2:
  43:../../tmk_core/protocol/lufa/lufa-abcminiuser/LUFA/Drivers/USB/Class/Common/HIDParser.c **** 	uint16_t              UsageList[HID_USAGE_STACK_DEPTH];
 131               		.loc 1 43 2 is_stmt 1 view .LVU7
  44:../../tmk_core/protocol/lufa/lufa-abcminiuser/LUFA/Drivers/USB/Class/Common/HIDParser.c **** 	uint8_t               UsageListSize      = 0;
 132               		.loc 1 44 2 view .LVU8
  45:../../tmk_core/protocol/lufa/lufa-abcminiuser/LUFA/Drivers/USB/Class/Common/HIDParser.c **** 	HID_MinMax_t          UsageMinMax        = {0, 0};
 133               		.loc 1 45 2 view .LVU9
  46:../../tmk_core/protocol/lufa/lufa-abcminiuser/LUFA/Drivers/USB/Class/Common/HIDParser.c **** 
  47:../../tmk_core/protocol/lufa/lufa-abcminiuser/LUFA/Drivers/USB/Class/Common/HIDParser.c **** 	memset(ParserData,       0x00, sizeof(HID_ReportInfo_t));
 134               		.loc 1 47 2 view .LVU10
 135 0054 89ED      		ldi r24,lo8(-39)
 136 0056 93E0      		ldi r25,lo8(3)
 137               	.LVL3:
 138               		.loc 1 47 2 is_stmt 0 view .LVU11
 139 0058 DA01      		movw r26,r20
 140 005a FC01      		movw r30,r24
 141               		0:
 142 005c 1D92      		st X+,__zero_reg__
 143 005e 3197      		sbiw r30,1
 144 0060 01F4      		brne 0b
  48:../../tmk_core/protocol/lufa/lufa-abcminiuser/LUFA/Drivers/USB/Class/Common/HIDParser.c **** 	memset(CurrStateTable,   0x00, sizeof(HID_StateTable_t));
 145               		.loc 1 48 2 is_stmt 1 view .LVU12
 146 0062 FE01      		movw r30,r28
 147 0064 3196      		adiw r30,1
 148               	.LVL4:
 149               		.loc 1 48 2 is_stmt 0 view .LVU13
 150 0066 8CE1      		ldi r24,lo8(28)
 151 0068 DF01      		movw r26,r30
 152               		0:
 153 006a 1D92      		st X+,__zero_reg__
 154 006c 8A95      		dec r24
 155 006e 01F4      		brne 0b
  49:../../tmk_core/protocol/lufa/lufa-abcminiuser/LUFA/Drivers/USB/Class/Common/HIDParser.c **** 	memset(CurrReportIDInfo, 0x00, sizeof(HID_ReportSizeInfo_t));
 156               		.loc 1 49 2 is_stmt 1 view .LVU14
 157 0070 87E0      		ldi r24,lo8(7)
 158 0072 D901      		movw r26,r18
 159               		0:
 160 0074 1D92      		st X+,__zero_reg__
 161 0076 8A95      		dec r24
 162 0078 01F4      		brne 0b
  50:../../tmk_core/protocol/lufa/lufa-abcminiuser/LUFA/Drivers/USB/Class/Common/HIDParser.c **** 
  51:../../tmk_core/protocol/lufa/lufa-abcminiuser/LUFA/Drivers/USB/Class/Common/HIDParser.c **** 	ParserData->TotalDeviceReports = 1;
 163               		.loc 1 51 2 view .LVU15
 164               		.loc 1 51 33 is_stmt 0 view .LVU16
 165 007a 2150      		subi r18,1
 166 007c 3109      		sbc r19,__zero_reg__
 167               	.LVL5:
 168               		.loc 1 51 33 view .LVU17
 169 007e C158      		subi r28,lo8(-127)
 170 0080 DF4F      		sbci r29,hi8(-127)
 171 0082 3983      		std Y+1,r19
 172 0084 2883      		st Y,r18
 173 0086 CF57      		subi r28,lo8(127)
 174 0088 D040      		sbci r29,hi8(127)
 175 008a 81E0      		ldi r24,lo8(1)
 176 008c D901      		movw r26,r18
 177 008e 8C93      		st X,r24
  52:../../tmk_core/protocol/lufa/lufa-abcminiuser/LUFA/Drivers/USB/Class/Common/HIDParser.c **** 
  53:../../tmk_core/protocol/lufa/lufa-abcminiuser/LUFA/Drivers/USB/Class/Common/HIDParser.c **** 	while (ReportSize)
 178               		.loc 1 53 2 is_stmt 1 view .LVU18
  45:../../tmk_core/protocol/lufa/lufa-abcminiuser/LUFA/Drivers/USB/Class/Common/HIDParser.c **** 
 179               		.loc 1 45 24 is_stmt 0 view .LVU19
 180 0090 EB96      		adiw r28,119-60
 181 0092 1CAE      		std Y+60,__zero_reg__
 182 0094 1DAE      		std Y+61,__zero_reg__
 183 0096 1EAE      		std Y+62,__zero_reg__
 184 0098 1FAE      		std Y+63,__zero_reg__
 185 009a EB97      		sbiw r28,119-60
 186 009c 412C      		mov r4,__zero_reg__
 187 009e 512C      		mov r5,__zero_reg__
 188 00a0 3201      		movw r6,r4
  44:../../tmk_core/protocol/lufa/lufa-abcminiuser/LUFA/Drivers/USB/Class/Common/HIDParser.c **** 	HID_MinMax_t          UsageMinMax        = {0, 0};
 189               		.loc 1 44 24 view .LVU20
 190 00a2 00E0      		ldi r16,0
  41:../../tmk_core/protocol/lufa/lufa-abcminiuser/LUFA/Drivers/USB/Class/Common/HIDParser.c **** 	HID_ReportSizeInfo_t* CurrReportIDInfo   = &ParserData->ReportIDSizes[0];
 191               		.loc 1 41 24 view .LVU21
 192 00a4 E596      		adiw r28,115-62
 193 00a6 1FAE      		std Y+63,__zero_reg__
 194 00a8 1EAE      		std Y+62,__zero_reg__
 195 00aa E597      		sbiw r28,115-62
  40:../../tmk_core/protocol/lufa/lufa-abcminiuser/LUFA/Drivers/USB/Class/Common/HIDParser.c **** 	HID_CollectionPath_t* CurrCollectionPath = NULL;
 196               		.loc 1 40 24 view .LVU22
 197 00ac 5F01      		movw r10,r30
 198               	.LBB2:
 199               	.LBB3:
  54:../../tmk_core/protocol/lufa/lufa-abcminiuser/LUFA/Drivers/USB/Class/Common/HIDParser.c **** 	{
  55:../../tmk_core/protocol/lufa/lufa-abcminiuser/LUFA/Drivers/USB/Class/Common/HIDParser.c **** 		uint8_t  HIDReportItem  = *ReportData;
  56:../../tmk_core/protocol/lufa/lufa-abcminiuser/LUFA/Drivers/USB/Class/Common/HIDParser.c **** 		uint32_t ReportItemData;
  57:../../tmk_core/protocol/lufa/lufa-abcminiuser/LUFA/Drivers/USB/Class/Common/HIDParser.c **** 
  58:../../tmk_core/protocol/lufa/lufa-abcminiuser/LUFA/Drivers/USB/Class/Common/HIDParser.c **** 		ReportData++;
  59:../../tmk_core/protocol/lufa/lufa-abcminiuser/LUFA/Drivers/USB/Class/Common/HIDParser.c **** 		ReportSize--;
  60:../../tmk_core/protocol/lufa/lufa-abcminiuser/LUFA/Drivers/USB/Class/Common/HIDParser.c **** 
  61:../../tmk_core/protocol/lufa/lufa-abcminiuser/LUFA/Drivers/USB/Class/Common/HIDParser.c **** 		switch (HIDReportItem & HID_RI_DATA_SIZE_MASK)
  62:../../tmk_core/protocol/lufa/lufa-abcminiuser/LUFA/Drivers/USB/Class/Common/HIDParser.c **** 		{
  63:../../tmk_core/protocol/lufa/lufa-abcminiuser/LUFA/Drivers/USB/Class/Common/HIDParser.c **** 			case HID_RI_DATA_BITS_32:
  64:../../tmk_core/protocol/lufa/lufa-abcminiuser/LUFA/Drivers/USB/Class/Common/HIDParser.c **** 				ReportItemData  = (((uint32_t)ReportData[3] << 24) | ((uint32_t)ReportData[2] << 16) |
  65:../../tmk_core/protocol/lufa/lufa-abcminiuser/LUFA/Drivers/USB/Class/Common/HIDParser.c **** 			                       ((uint16_t)ReportData[1] << 8)  | ReportData[0]);
  66:../../tmk_core/protocol/lufa/lufa-abcminiuser/LUFA/Drivers/USB/Class/Common/HIDParser.c **** 				ReportSize     -= 4;
  67:../../tmk_core/protocol/lufa/lufa-abcminiuser/LUFA/Drivers/USB/Class/Common/HIDParser.c **** 				ReportData     += 4;
  68:../../tmk_core/protocol/lufa/lufa-abcminiuser/LUFA/Drivers/USB/Class/Common/HIDParser.c **** 				break;
  69:../../tmk_core/protocol/lufa/lufa-abcminiuser/LUFA/Drivers/USB/Class/Common/HIDParser.c **** 
  70:../../tmk_core/protocol/lufa/lufa-abcminiuser/LUFA/Drivers/USB/Class/Common/HIDParser.c **** 			case HID_RI_DATA_BITS_16:
  71:../../tmk_core/protocol/lufa/lufa-abcminiuser/LUFA/Drivers/USB/Class/Common/HIDParser.c **** 				ReportItemData  = (((uint16_t)ReportData[1] << 8) | (ReportData[0]));
  72:../../tmk_core/protocol/lufa/lufa-abcminiuser/LUFA/Drivers/USB/Class/Common/HIDParser.c **** 				ReportSize     -= 2;
  73:../../tmk_core/protocol/lufa/lufa-abcminiuser/LUFA/Drivers/USB/Class/Common/HIDParser.c **** 				ReportData     += 2;
  74:../../tmk_core/protocol/lufa/lufa-abcminiuser/LUFA/Drivers/USB/Class/Common/HIDParser.c **** 				break;
  75:../../tmk_core/protocol/lufa/lufa-abcminiuser/LUFA/Drivers/USB/Class/Common/HIDParser.c **** 
  76:../../tmk_core/protocol/lufa/lufa-abcminiuser/LUFA/Drivers/USB/Class/Common/HIDParser.c **** 			case HID_RI_DATA_BITS_8:
  77:../../tmk_core/protocol/lufa/lufa-abcminiuser/LUFA/Drivers/USB/Class/Common/HIDParser.c **** 				ReportItemData  = ReportData[0];
  78:../../tmk_core/protocol/lufa/lufa-abcminiuser/LUFA/Drivers/USB/Class/Common/HIDParser.c **** 				ReportSize     -= 1;
  79:../../tmk_core/protocol/lufa/lufa-abcminiuser/LUFA/Drivers/USB/Class/Common/HIDParser.c **** 				ReportData     += 1;
  80:../../tmk_core/protocol/lufa/lufa-abcminiuser/LUFA/Drivers/USB/Class/Common/HIDParser.c **** 				break;
  81:../../tmk_core/protocol/lufa/lufa-abcminiuser/LUFA/Drivers/USB/Class/Common/HIDParser.c **** 
  82:../../tmk_core/protocol/lufa/lufa-abcminiuser/LUFA/Drivers/USB/Class/Common/HIDParser.c **** 			default:
  83:../../tmk_core/protocol/lufa/lufa-abcminiuser/LUFA/Drivers/USB/Class/Common/HIDParser.c **** 				ReportItemData  = 0;
  84:../../tmk_core/protocol/lufa/lufa-abcminiuser/LUFA/Drivers/USB/Class/Common/HIDParser.c **** 				break;
  85:../../tmk_core/protocol/lufa/lufa-abcminiuser/LUFA/Drivers/USB/Class/Common/HIDParser.c **** 		}
  86:../../tmk_core/protocol/lufa/lufa-abcminiuser/LUFA/Drivers/USB/Class/Common/HIDParser.c **** 
  87:../../tmk_core/protocol/lufa/lufa-abcminiuser/LUFA/Drivers/USB/Class/Common/HIDParser.c **** 		switch (HIDReportItem & (HID_RI_TYPE_MASK | HID_RI_TAG_MASK))
  88:../../tmk_core/protocol/lufa/lufa-abcminiuser/LUFA/Drivers/USB/Class/Common/HIDParser.c **** 		{
  89:../../tmk_core/protocol/lufa/lufa-abcminiuser/LUFA/Drivers/USB/Class/Common/HIDParser.c **** 			case HID_RI_PUSH(0):
  90:../../tmk_core/protocol/lufa/lufa-abcminiuser/LUFA/Drivers/USB/Class/Common/HIDParser.c **** 				if (CurrStateTable == &StateTable[HID_STATETABLE_STACK_DEPTH - 1])
  91:../../tmk_core/protocol/lufa/lufa-abcminiuser/LUFA/Drivers/USB/Class/Common/HIDParser.c **** 				  return HID_PARSE_HIDStackOverflow;
  92:../../tmk_core/protocol/lufa/lufa-abcminiuser/LUFA/Drivers/USB/Class/Common/HIDParser.c **** 
  93:../../tmk_core/protocol/lufa/lufa-abcminiuser/LUFA/Drivers/USB/Class/Common/HIDParser.c **** 				memcpy((CurrStateTable + 1),
  94:../../tmk_core/protocol/lufa/lufa-abcminiuser/LUFA/Drivers/USB/Class/Common/HIDParser.c **** 				       CurrStateTable,
  95:../../tmk_core/protocol/lufa/lufa-abcminiuser/LUFA/Drivers/USB/Class/Common/HIDParser.c **** 				       sizeof(HID_StateTable_t));
  96:../../tmk_core/protocol/lufa/lufa-abcminiuser/LUFA/Drivers/USB/Class/Common/HIDParser.c **** 
  97:../../tmk_core/protocol/lufa/lufa-abcminiuser/LUFA/Drivers/USB/Class/Common/HIDParser.c **** 				CurrStateTable++;
  98:../../tmk_core/protocol/lufa/lufa-abcminiuser/LUFA/Drivers/USB/Class/Common/HIDParser.c **** 				break;
  99:../../tmk_core/protocol/lufa/lufa-abcminiuser/LUFA/Drivers/USB/Class/Common/HIDParser.c **** 
 100:../../tmk_core/protocol/lufa/lufa-abcminiuser/LUFA/Drivers/USB/Class/Common/HIDParser.c **** 			case HID_RI_POP(0):
 101:../../tmk_core/protocol/lufa/lufa-abcminiuser/LUFA/Drivers/USB/Class/Common/HIDParser.c **** 				if (CurrStateTable == &StateTable[0])
 102:../../tmk_core/protocol/lufa/lufa-abcminiuser/LUFA/Drivers/USB/Class/Common/HIDParser.c **** 				  return HID_PARSE_HIDStackUnderflow;
 103:../../tmk_core/protocol/lufa/lufa-abcminiuser/LUFA/Drivers/USB/Class/Common/HIDParser.c **** 
 104:../../tmk_core/protocol/lufa/lufa-abcminiuser/LUFA/Drivers/USB/Class/Common/HIDParser.c **** 				CurrStateTable--;
 105:../../tmk_core/protocol/lufa/lufa-abcminiuser/LUFA/Drivers/USB/Class/Common/HIDParser.c **** 				break;
 106:../../tmk_core/protocol/lufa/lufa-abcminiuser/LUFA/Drivers/USB/Class/Common/HIDParser.c **** 
 107:../../tmk_core/protocol/lufa/lufa-abcminiuser/LUFA/Drivers/USB/Class/Common/HIDParser.c **** 			case HID_RI_USAGE_PAGE(0):
 108:../../tmk_core/protocol/lufa/lufa-abcminiuser/LUFA/Drivers/USB/Class/Common/HIDParser.c **** 				CurrStateTable->Attributes.Usage.Page       = ReportItemData;
 109:../../tmk_core/protocol/lufa/lufa-abcminiuser/LUFA/Drivers/USB/Class/Common/HIDParser.c **** 				break;
 110:../../tmk_core/protocol/lufa/lufa-abcminiuser/LUFA/Drivers/USB/Class/Common/HIDParser.c **** 
 111:../../tmk_core/protocol/lufa/lufa-abcminiuser/LUFA/Drivers/USB/Class/Common/HIDParser.c **** 			case HID_RI_LOGICAL_MINIMUM(0):
 112:../../tmk_core/protocol/lufa/lufa-abcminiuser/LUFA/Drivers/USB/Class/Common/HIDParser.c **** 				CurrStateTable->Attributes.Logical.Minimum  = ReportItemData;
 113:../../tmk_core/protocol/lufa/lufa-abcminiuser/LUFA/Drivers/USB/Class/Common/HIDParser.c **** 				break;
 114:../../tmk_core/protocol/lufa/lufa-abcminiuser/LUFA/Drivers/USB/Class/Common/HIDParser.c **** 
 115:../../tmk_core/protocol/lufa/lufa-abcminiuser/LUFA/Drivers/USB/Class/Common/HIDParser.c **** 			case HID_RI_LOGICAL_MAXIMUM(0):
 116:../../tmk_core/protocol/lufa/lufa-abcminiuser/LUFA/Drivers/USB/Class/Common/HIDParser.c **** 				CurrStateTable->Attributes.Logical.Maximum  = ReportItemData;
 117:../../tmk_core/protocol/lufa/lufa-abcminiuser/LUFA/Drivers/USB/Class/Common/HIDParser.c **** 				break;
 118:../../tmk_core/protocol/lufa/lufa-abcminiuser/LUFA/Drivers/USB/Class/Common/HIDParser.c **** 
 119:../../tmk_core/protocol/lufa/lufa-abcminiuser/LUFA/Drivers/USB/Class/Common/HIDParser.c **** 			case HID_RI_PHYSICAL_MINIMUM(0):
 120:../../tmk_core/protocol/lufa/lufa-abcminiuser/LUFA/Drivers/USB/Class/Common/HIDParser.c **** 				CurrStateTable->Attributes.Physical.Minimum = ReportItemData;
 121:../../tmk_core/protocol/lufa/lufa-abcminiuser/LUFA/Drivers/USB/Class/Common/HIDParser.c **** 				break;
 122:../../tmk_core/protocol/lufa/lufa-abcminiuser/LUFA/Drivers/USB/Class/Common/HIDParser.c **** 
 123:../../tmk_core/protocol/lufa/lufa-abcminiuser/LUFA/Drivers/USB/Class/Common/HIDParser.c **** 			case HID_RI_PHYSICAL_MAXIMUM(0):
 124:../../tmk_core/protocol/lufa/lufa-abcminiuser/LUFA/Drivers/USB/Class/Common/HIDParser.c **** 				CurrStateTable->Attributes.Physical.Maximum = ReportItemData;
 125:../../tmk_core/protocol/lufa/lufa-abcminiuser/LUFA/Drivers/USB/Class/Common/HIDParser.c **** 				break;
 126:../../tmk_core/protocol/lufa/lufa-abcminiuser/LUFA/Drivers/USB/Class/Common/HIDParser.c **** 
 127:../../tmk_core/protocol/lufa/lufa-abcminiuser/LUFA/Drivers/USB/Class/Common/HIDParser.c **** 			case HID_RI_UNIT_EXPONENT(0):
 128:../../tmk_core/protocol/lufa/lufa-abcminiuser/LUFA/Drivers/USB/Class/Common/HIDParser.c **** 				CurrStateTable->Attributes.Unit.Exponent    = ReportItemData;
 129:../../tmk_core/protocol/lufa/lufa-abcminiuser/LUFA/Drivers/USB/Class/Common/HIDParser.c **** 				break;
 130:../../tmk_core/protocol/lufa/lufa-abcminiuser/LUFA/Drivers/USB/Class/Common/HIDParser.c **** 
 131:../../tmk_core/protocol/lufa/lufa-abcminiuser/LUFA/Drivers/USB/Class/Common/HIDParser.c **** 			case HID_RI_UNIT(0):
 132:../../tmk_core/protocol/lufa/lufa-abcminiuser/LUFA/Drivers/USB/Class/Common/HIDParser.c **** 				CurrStateTable->Attributes.Unit.Type        = ReportItemData;
 133:../../tmk_core/protocol/lufa/lufa-abcminiuser/LUFA/Drivers/USB/Class/Common/HIDParser.c **** 				break;
 134:../../tmk_core/protocol/lufa/lufa-abcminiuser/LUFA/Drivers/USB/Class/Common/HIDParser.c **** 
 135:../../tmk_core/protocol/lufa/lufa-abcminiuser/LUFA/Drivers/USB/Class/Common/HIDParser.c **** 			case HID_RI_REPORT_SIZE(0):
 136:../../tmk_core/protocol/lufa/lufa-abcminiuser/LUFA/Drivers/USB/Class/Common/HIDParser.c **** 				CurrStateTable->Attributes.BitSize          = ReportItemData;
 137:../../tmk_core/protocol/lufa/lufa-abcminiuser/LUFA/Drivers/USB/Class/Common/HIDParser.c **** 				break;
 138:../../tmk_core/protocol/lufa/lufa-abcminiuser/LUFA/Drivers/USB/Class/Common/HIDParser.c **** 
 139:../../tmk_core/protocol/lufa/lufa-abcminiuser/LUFA/Drivers/USB/Class/Common/HIDParser.c **** 			case HID_RI_REPORT_COUNT(0):
 140:../../tmk_core/protocol/lufa/lufa-abcminiuser/LUFA/Drivers/USB/Class/Common/HIDParser.c **** 				CurrStateTable->ReportCount                 = ReportItemData;
 141:../../tmk_core/protocol/lufa/lufa-abcminiuser/LUFA/Drivers/USB/Class/Common/HIDParser.c **** 				break;
 142:../../tmk_core/protocol/lufa/lufa-abcminiuser/LUFA/Drivers/USB/Class/Common/HIDParser.c **** 
 143:../../tmk_core/protocol/lufa/lufa-abcminiuser/LUFA/Drivers/USB/Class/Common/HIDParser.c **** 			case HID_RI_REPORT_ID(0):
 144:../../tmk_core/protocol/lufa/lufa-abcminiuser/LUFA/Drivers/USB/Class/Common/HIDParser.c **** 				CurrStateTable->ReportID                    = ReportItemData;
 145:../../tmk_core/protocol/lufa/lufa-abcminiuser/LUFA/Drivers/USB/Class/Common/HIDParser.c **** 
 146:../../tmk_core/protocol/lufa/lufa-abcminiuser/LUFA/Drivers/USB/Class/Common/HIDParser.c **** 				if (ParserData->UsingReportIDs)
 147:../../tmk_core/protocol/lufa/lufa-abcminiuser/LUFA/Drivers/USB/Class/Common/HIDParser.c **** 				{
 148:../../tmk_core/protocol/lufa/lufa-abcminiuser/LUFA/Drivers/USB/Class/Common/HIDParser.c **** 					CurrReportIDInfo = NULL;
 149:../../tmk_core/protocol/lufa/lufa-abcminiuser/LUFA/Drivers/USB/Class/Common/HIDParser.c **** 
 150:../../tmk_core/protocol/lufa/lufa-abcminiuser/LUFA/Drivers/USB/Class/Common/HIDParser.c **** 					for (uint8_t i = 0; i < ParserData->TotalDeviceReports; i++)
 151:../../tmk_core/protocol/lufa/lufa-abcminiuser/LUFA/Drivers/USB/Class/Common/HIDParser.c **** 					{
 152:../../tmk_core/protocol/lufa/lufa-abcminiuser/LUFA/Drivers/USB/Class/Common/HIDParser.c **** 						if (ParserData->ReportIDSizes[i].ReportID == CurrStateTable->ReportID)
 153:../../tmk_core/protocol/lufa/lufa-abcminiuser/LUFA/Drivers/USB/Class/Common/HIDParser.c **** 						{
 154:../../tmk_core/protocol/lufa/lufa-abcminiuser/LUFA/Drivers/USB/Class/Common/HIDParser.c **** 							CurrReportIDInfo = &ParserData->ReportIDSizes[i];
 155:../../tmk_core/protocol/lufa/lufa-abcminiuser/LUFA/Drivers/USB/Class/Common/HIDParser.c **** 							break;
 156:../../tmk_core/protocol/lufa/lufa-abcminiuser/LUFA/Drivers/USB/Class/Common/HIDParser.c **** 						}
 157:../../tmk_core/protocol/lufa/lufa-abcminiuser/LUFA/Drivers/USB/Class/Common/HIDParser.c **** 					}
 158:../../tmk_core/protocol/lufa/lufa-abcminiuser/LUFA/Drivers/USB/Class/Common/HIDParser.c **** 
 159:../../tmk_core/protocol/lufa/lufa-abcminiuser/LUFA/Drivers/USB/Class/Common/HIDParser.c **** 					if (CurrReportIDInfo == NULL)
 160:../../tmk_core/protocol/lufa/lufa-abcminiuser/LUFA/Drivers/USB/Class/Common/HIDParser.c **** 					{
 161:../../tmk_core/protocol/lufa/lufa-abcminiuser/LUFA/Drivers/USB/Class/Common/HIDParser.c **** 						if (ParserData->TotalDeviceReports == HID_MAX_REPORT_IDS)
 162:../../tmk_core/protocol/lufa/lufa-abcminiuser/LUFA/Drivers/USB/Class/Common/HIDParser.c **** 						  return HID_PARSE_InsufficientReportIDItems;
 163:../../tmk_core/protocol/lufa/lufa-abcminiuser/LUFA/Drivers/USB/Class/Common/HIDParser.c **** 
 164:../../tmk_core/protocol/lufa/lufa-abcminiuser/LUFA/Drivers/USB/Class/Common/HIDParser.c **** 						CurrReportIDInfo = &ParserData->ReportIDSizes[ParserData->TotalDeviceReports++];
 165:../../tmk_core/protocol/lufa/lufa-abcminiuser/LUFA/Drivers/USB/Class/Common/HIDParser.c **** 						memset(CurrReportIDInfo, 0x00, sizeof(HID_ReportSizeInfo_t));
 166:../../tmk_core/protocol/lufa/lufa-abcminiuser/LUFA/Drivers/USB/Class/Common/HIDParser.c **** 					}
 167:../../tmk_core/protocol/lufa/lufa-abcminiuser/LUFA/Drivers/USB/Class/Common/HIDParser.c **** 				}
 168:../../tmk_core/protocol/lufa/lufa-abcminiuser/LUFA/Drivers/USB/Class/Common/HIDParser.c **** 
 169:../../tmk_core/protocol/lufa/lufa-abcminiuser/LUFA/Drivers/USB/Class/Common/HIDParser.c **** 				ParserData->UsingReportIDs = true;
 170:../../tmk_core/protocol/lufa/lufa-abcminiuser/LUFA/Drivers/USB/Class/Common/HIDParser.c **** 
 171:../../tmk_core/protocol/lufa/lufa-abcminiuser/LUFA/Drivers/USB/Class/Common/HIDParser.c **** 				CurrReportIDInfo->ReportID = CurrStateTable->ReportID;
 172:../../tmk_core/protocol/lufa/lufa-abcminiuser/LUFA/Drivers/USB/Class/Common/HIDParser.c **** 				break;
 173:../../tmk_core/protocol/lufa/lufa-abcminiuser/LUFA/Drivers/USB/Class/Common/HIDParser.c **** 
 174:../../tmk_core/protocol/lufa/lufa-abcminiuser/LUFA/Drivers/USB/Class/Common/HIDParser.c **** 			case HID_RI_USAGE(0):
 175:../../tmk_core/protocol/lufa/lufa-abcminiuser/LUFA/Drivers/USB/Class/Common/HIDParser.c **** 				if (UsageListSize == HID_USAGE_STACK_DEPTH)
 176:../../tmk_core/protocol/lufa/lufa-abcminiuser/LUFA/Drivers/USB/Class/Common/HIDParser.c **** 				  return HID_PARSE_UsageListOverflow;
 177:../../tmk_core/protocol/lufa/lufa-abcminiuser/LUFA/Drivers/USB/Class/Common/HIDParser.c **** 
 178:../../tmk_core/protocol/lufa/lufa-abcminiuser/LUFA/Drivers/USB/Class/Common/HIDParser.c **** 				if ((HIDReportItem & HID_RI_DATA_SIZE_MASK) == HID_RI_DATA_BITS_32)
 179:../../tmk_core/protocol/lufa/lufa-abcminiuser/LUFA/Drivers/USB/Class/Common/HIDParser.c **** 				  CurrStateTable->Attributes.Usage.Page = (ReportItemData >> 16);
 180:../../tmk_core/protocol/lufa/lufa-abcminiuser/LUFA/Drivers/USB/Class/Common/HIDParser.c **** 
 181:../../tmk_core/protocol/lufa/lufa-abcminiuser/LUFA/Drivers/USB/Class/Common/HIDParser.c **** 				UsageList[UsageListSize++] = ReportItemData;
 182:../../tmk_core/protocol/lufa/lufa-abcminiuser/LUFA/Drivers/USB/Class/Common/HIDParser.c **** 				break;
 183:../../tmk_core/protocol/lufa/lufa-abcminiuser/LUFA/Drivers/USB/Class/Common/HIDParser.c **** 
 184:../../tmk_core/protocol/lufa/lufa-abcminiuser/LUFA/Drivers/USB/Class/Common/HIDParser.c **** 			case HID_RI_USAGE_MINIMUM(0):
 185:../../tmk_core/protocol/lufa/lufa-abcminiuser/LUFA/Drivers/USB/Class/Common/HIDParser.c **** 				UsageMinMax.Minimum = ReportItemData;
 186:../../tmk_core/protocol/lufa/lufa-abcminiuser/LUFA/Drivers/USB/Class/Common/HIDParser.c **** 				break;
 187:../../tmk_core/protocol/lufa/lufa-abcminiuser/LUFA/Drivers/USB/Class/Common/HIDParser.c **** 
 188:../../tmk_core/protocol/lufa/lufa-abcminiuser/LUFA/Drivers/USB/Class/Common/HIDParser.c **** 			case HID_RI_USAGE_MAXIMUM(0):
 189:../../tmk_core/protocol/lufa/lufa-abcminiuser/LUFA/Drivers/USB/Class/Common/HIDParser.c **** 				UsageMinMax.Maximum = ReportItemData;
 190:../../tmk_core/protocol/lufa/lufa-abcminiuser/LUFA/Drivers/USB/Class/Common/HIDParser.c **** 				break;
 191:../../tmk_core/protocol/lufa/lufa-abcminiuser/LUFA/Drivers/USB/Class/Common/HIDParser.c **** 
 192:../../tmk_core/protocol/lufa/lufa-abcminiuser/LUFA/Drivers/USB/Class/Common/HIDParser.c **** 			case HID_RI_COLLECTION(0):
 193:../../tmk_core/protocol/lufa/lufa-abcminiuser/LUFA/Drivers/USB/Class/Common/HIDParser.c **** 				if (CurrCollectionPath == NULL)
 194:../../tmk_core/protocol/lufa/lufa-abcminiuser/LUFA/Drivers/USB/Class/Common/HIDParser.c **** 				{
 195:../../tmk_core/protocol/lufa/lufa-abcminiuser/LUFA/Drivers/USB/Class/Common/HIDParser.c **** 					CurrCollectionPath = &ParserData->CollectionPaths[0];
 196:../../tmk_core/protocol/lufa/lufa-abcminiuser/LUFA/Drivers/USB/Class/Common/HIDParser.c **** 				}
 197:../../tmk_core/protocol/lufa/lufa-abcminiuser/LUFA/Drivers/USB/Class/Common/HIDParser.c **** 				else
 198:../../tmk_core/protocol/lufa/lufa-abcminiuser/LUFA/Drivers/USB/Class/Common/HIDParser.c **** 				{
 199:../../tmk_core/protocol/lufa/lufa-abcminiuser/LUFA/Drivers/USB/Class/Common/HIDParser.c **** 					HID_CollectionPath_t* ParentCollectionPath = CurrCollectionPath;
 200:../../tmk_core/protocol/lufa/lufa-abcminiuser/LUFA/Drivers/USB/Class/Common/HIDParser.c **** 
 201:../../tmk_core/protocol/lufa/lufa-abcminiuser/LUFA/Drivers/USB/Class/Common/HIDParser.c **** 					CurrCollectionPath = &ParserData->CollectionPaths[1];
 202:../../tmk_core/protocol/lufa/lufa-abcminiuser/LUFA/Drivers/USB/Class/Common/HIDParser.c **** 
 203:../../tmk_core/protocol/lufa/lufa-abcminiuser/LUFA/Drivers/USB/Class/Common/HIDParser.c **** 					while (CurrCollectionPath->Parent != NULL)
 204:../../tmk_core/protocol/lufa/lufa-abcminiuser/LUFA/Drivers/USB/Class/Common/HIDParser.c **** 					{
 205:../../tmk_core/protocol/lufa/lufa-abcminiuser/LUFA/Drivers/USB/Class/Common/HIDParser.c **** 						if (CurrCollectionPath == &ParserData->CollectionPaths[HID_MAX_COLLECTIONS - 1])
 206:../../tmk_core/protocol/lufa/lufa-abcminiuser/LUFA/Drivers/USB/Class/Common/HIDParser.c **** 						  return HID_PARSE_InsufficientCollectionPaths;
 207:../../tmk_core/protocol/lufa/lufa-abcminiuser/LUFA/Drivers/USB/Class/Common/HIDParser.c **** 
 208:../../tmk_core/protocol/lufa/lufa-abcminiuser/LUFA/Drivers/USB/Class/Common/HIDParser.c **** 						CurrCollectionPath++;
 209:../../tmk_core/protocol/lufa/lufa-abcminiuser/LUFA/Drivers/USB/Class/Common/HIDParser.c **** 					}
 210:../../tmk_core/protocol/lufa/lufa-abcminiuser/LUFA/Drivers/USB/Class/Common/HIDParser.c **** 
 211:../../tmk_core/protocol/lufa/lufa-abcminiuser/LUFA/Drivers/USB/Class/Common/HIDParser.c **** 					CurrCollectionPath->Parent = ParentCollectionPath;
 212:../../tmk_core/protocol/lufa/lufa-abcminiuser/LUFA/Drivers/USB/Class/Common/HIDParser.c **** 				}
 213:../../tmk_core/protocol/lufa/lufa-abcminiuser/LUFA/Drivers/USB/Class/Common/HIDParser.c **** 
 214:../../tmk_core/protocol/lufa/lufa-abcminiuser/LUFA/Drivers/USB/Class/Common/HIDParser.c **** 				CurrCollectionPath->Type       = ReportItemData;
 215:../../tmk_core/protocol/lufa/lufa-abcminiuser/LUFA/Drivers/USB/Class/Common/HIDParser.c **** 				CurrCollectionPath->Usage.Page = CurrStateTable->Attributes.Usage.Page;
 216:../../tmk_core/protocol/lufa/lufa-abcminiuser/LUFA/Drivers/USB/Class/Common/HIDParser.c **** 
 217:../../tmk_core/protocol/lufa/lufa-abcminiuser/LUFA/Drivers/USB/Class/Common/HIDParser.c **** 				if (UsageListSize)
 218:../../tmk_core/protocol/lufa/lufa-abcminiuser/LUFA/Drivers/USB/Class/Common/HIDParser.c **** 				{
 219:../../tmk_core/protocol/lufa/lufa-abcminiuser/LUFA/Drivers/USB/Class/Common/HIDParser.c **** 					CurrCollectionPath->Usage.Usage = UsageList[0];
 220:../../tmk_core/protocol/lufa/lufa-abcminiuser/LUFA/Drivers/USB/Class/Common/HIDParser.c **** 
 221:../../tmk_core/protocol/lufa/lufa-abcminiuser/LUFA/Drivers/USB/Class/Common/HIDParser.c **** 					for (uint8_t i = 1; i < UsageListSize; i++)
 222:../../tmk_core/protocol/lufa/lufa-abcminiuser/LUFA/Drivers/USB/Class/Common/HIDParser.c **** 					  UsageList[i - 1] = UsageList[i];
 200               		.loc 1 222 25 view .LVU23
 201 00ae E3E6      		ldi r30,lo8(99)
 202 00b0 F0E0      		ldi r31,0
 203               	.LVL6:
 204               		.loc 1 222 25 view .LVU24
 205 00b2 EC0F      		add r30,r28
 206 00b4 FD1F      		adc r31,r29
 207 00b6 3296      		adiw r30,2
 208 00b8 CF57      		subi r28,lo8(-129)
 209 00ba DF4F      		sbci r29,hi8(-129)
 210 00bc F983      		std Y+1,r31
 211 00be E883      		st Y,r30
 212 00c0 C158      		subi r28,lo8(129)
 213 00c2 D040      		sbci r29,hi8(129)
 214               	.LBE3:
 215               	.LBB4:
 216               	.LBB5:
 223:../../tmk_core/protocol/lufa/lufa-abcminiuser/LUFA/Drivers/USB/Class/Common/HIDParser.c **** 
 224:../../tmk_core/protocol/lufa/lufa-abcminiuser/LUFA/Drivers/USB/Class/Common/HIDParser.c **** 					UsageListSize--;
 225:../../tmk_core/protocol/lufa/lufa-abcminiuser/LUFA/Drivers/USB/Class/Common/HIDParser.c **** 				}
 226:../../tmk_core/protocol/lufa/lufa-abcminiuser/LUFA/Drivers/USB/Class/Common/HIDParser.c **** 				else if (UsageMinMax.Minimum <= UsageMinMax.Maximum)
 227:../../tmk_core/protocol/lufa/lufa-abcminiuser/LUFA/Drivers/USB/Class/Common/HIDParser.c **** 				{
 228:../../tmk_core/protocol/lufa/lufa-abcminiuser/LUFA/Drivers/USB/Class/Common/HIDParser.c **** 					CurrCollectionPath->Usage.Usage = UsageMinMax.Minimum++;
 229:../../tmk_core/protocol/lufa/lufa-abcminiuser/LUFA/Drivers/USB/Class/Common/HIDParser.c **** 				}
 230:../../tmk_core/protocol/lufa/lufa-abcminiuser/LUFA/Drivers/USB/Class/Common/HIDParser.c **** 
 231:../../tmk_core/protocol/lufa/lufa-abcminiuser/LUFA/Drivers/USB/Class/Common/HIDParser.c **** 				break;
 232:../../tmk_core/protocol/lufa/lufa-abcminiuser/LUFA/Drivers/USB/Class/Common/HIDParser.c **** 
 233:../../tmk_core/protocol/lufa/lufa-abcminiuser/LUFA/Drivers/USB/Class/Common/HIDParser.c **** 			case HID_RI_END_COLLECTION(0):
 234:../../tmk_core/protocol/lufa/lufa-abcminiuser/LUFA/Drivers/USB/Class/Common/HIDParser.c **** 				if (CurrCollectionPath == NULL)
 235:../../tmk_core/protocol/lufa/lufa-abcminiuser/LUFA/Drivers/USB/Class/Common/HIDParser.c **** 				  return HID_PARSE_UnexpectedEndCollection;
 236:../../tmk_core/protocol/lufa/lufa-abcminiuser/LUFA/Drivers/USB/Class/Common/HIDParser.c **** 
 237:../../tmk_core/protocol/lufa/lufa-abcminiuser/LUFA/Drivers/USB/Class/Common/HIDParser.c **** 				CurrCollectionPath = CurrCollectionPath->Parent;
 238:../../tmk_core/protocol/lufa/lufa-abcminiuser/LUFA/Drivers/USB/Class/Common/HIDParser.c **** 				break;
 239:../../tmk_core/protocol/lufa/lufa-abcminiuser/LUFA/Drivers/USB/Class/Common/HIDParser.c **** 
 240:../../tmk_core/protocol/lufa/lufa-abcminiuser/LUFA/Drivers/USB/Class/Common/HIDParser.c **** 			case HID_RI_INPUT(0):
 241:../../tmk_core/protocol/lufa/lufa-abcminiuser/LUFA/Drivers/USB/Class/Common/HIDParser.c **** 			case HID_RI_OUTPUT(0):
 242:../../tmk_core/protocol/lufa/lufa-abcminiuser/LUFA/Drivers/USB/Class/Common/HIDParser.c **** 			case HID_RI_FEATURE(0):
 243:../../tmk_core/protocol/lufa/lufa-abcminiuser/LUFA/Drivers/USB/Class/Common/HIDParser.c **** 				for (uint8_t ReportItemNum = 0; ReportItemNum < CurrStateTable->ReportCount; ReportItemNum++)
 244:../../tmk_core/protocol/lufa/lufa-abcminiuser/LUFA/Drivers/USB/Class/Common/HIDParser.c **** 				{
 245:../../tmk_core/protocol/lufa/lufa-abcminiuser/LUFA/Drivers/USB/Class/Common/HIDParser.c **** 					HID_ReportItem_t NewReportItem;
 246:../../tmk_core/protocol/lufa/lufa-abcminiuser/LUFA/Drivers/USB/Class/Common/HIDParser.c **** 
 247:../../tmk_core/protocol/lufa/lufa-abcminiuser/LUFA/Drivers/USB/Class/Common/HIDParser.c **** 					memcpy(&NewReportItem.Attributes,
 248:../../tmk_core/protocol/lufa/lufa-abcminiuser/LUFA/Drivers/USB/Class/Common/HIDParser.c **** 					       &CurrStateTable->Attributes,
 249:../../tmk_core/protocol/lufa/lufa-abcminiuser/LUFA/Drivers/USB/Class/Common/HIDParser.c **** 					       sizeof(HID_ReportItem_Attributes_t));
 250:../../tmk_core/protocol/lufa/lufa-abcminiuser/LUFA/Drivers/USB/Class/Common/HIDParser.c **** 
 251:../../tmk_core/protocol/lufa/lufa-abcminiuser/LUFA/Drivers/USB/Class/Common/HIDParser.c **** 					NewReportItem.ItemFlags      = ReportItemData;
 252:../../tmk_core/protocol/lufa/lufa-abcminiuser/LUFA/Drivers/USB/Class/Common/HIDParser.c **** 					NewReportItem.CollectionPath = CurrCollectionPath;
 253:../../tmk_core/protocol/lufa/lufa-abcminiuser/LUFA/Drivers/USB/Class/Common/HIDParser.c **** 					NewReportItem.ReportID       = CurrStateTable->ReportID;
 254:../../tmk_core/protocol/lufa/lufa-abcminiuser/LUFA/Drivers/USB/Class/Common/HIDParser.c **** 
 255:../../tmk_core/protocol/lufa/lufa-abcminiuser/LUFA/Drivers/USB/Class/Common/HIDParser.c **** 					if (UsageListSize)
 256:../../tmk_core/protocol/lufa/lufa-abcminiuser/LUFA/Drivers/USB/Class/Common/HIDParser.c **** 					{
 257:../../tmk_core/protocol/lufa/lufa-abcminiuser/LUFA/Drivers/USB/Class/Common/HIDParser.c **** 						NewReportItem.Attributes.Usage.Usage = UsageList[0];
 258:../../tmk_core/protocol/lufa/lufa-abcminiuser/LUFA/Drivers/USB/Class/Common/HIDParser.c **** 
 259:../../tmk_core/protocol/lufa/lufa-abcminiuser/LUFA/Drivers/USB/Class/Common/HIDParser.c **** 						for (uint8_t i = 1; i < UsageListSize; i++)
 260:../../tmk_core/protocol/lufa/lufa-abcminiuser/LUFA/Drivers/USB/Class/Common/HIDParser.c **** 						  UsageList[i - 1] = UsageList[i];
 261:../../tmk_core/protocol/lufa/lufa-abcminiuser/LUFA/Drivers/USB/Class/Common/HIDParser.c **** 
 262:../../tmk_core/protocol/lufa/lufa-abcminiuser/LUFA/Drivers/USB/Class/Common/HIDParser.c **** 						UsageListSize--;
 263:../../tmk_core/protocol/lufa/lufa-abcminiuser/LUFA/Drivers/USB/Class/Common/HIDParser.c **** 					}
 264:../../tmk_core/protocol/lufa/lufa-abcminiuser/LUFA/Drivers/USB/Class/Common/HIDParser.c **** 					else if (UsageMinMax.Minimum <= UsageMinMax.Maximum)
 265:../../tmk_core/protocol/lufa/lufa-abcminiuser/LUFA/Drivers/USB/Class/Common/HIDParser.c **** 					{
 266:../../tmk_core/protocol/lufa/lufa-abcminiuser/LUFA/Drivers/USB/Class/Common/HIDParser.c **** 						NewReportItem.Attributes.Usage.Usage = UsageMinMax.Minimum++;
 267:../../tmk_core/protocol/lufa/lufa-abcminiuser/LUFA/Drivers/USB/Class/Common/HIDParser.c **** 					}
 268:../../tmk_core/protocol/lufa/lufa-abcminiuser/LUFA/Drivers/USB/Class/Common/HIDParser.c **** 
 269:../../tmk_core/protocol/lufa/lufa-abcminiuser/LUFA/Drivers/USB/Class/Common/HIDParser.c **** 					uint8_t ItemTypeTag = (HIDReportItem & (HID_RI_TYPE_MASK | HID_RI_TAG_MASK));
 270:../../tmk_core/protocol/lufa/lufa-abcminiuser/LUFA/Drivers/USB/Class/Common/HIDParser.c **** 
 271:../../tmk_core/protocol/lufa/lufa-abcminiuser/LUFA/Drivers/USB/Class/Common/HIDParser.c **** 					if (ItemTypeTag == HID_RI_INPUT(0))
 272:../../tmk_core/protocol/lufa/lufa-abcminiuser/LUFA/Drivers/USB/Class/Common/HIDParser.c **** 					  NewReportItem.ItemType = HID_REPORT_ITEM_In;
 273:../../tmk_core/protocol/lufa/lufa-abcminiuser/LUFA/Drivers/USB/Class/Common/HIDParser.c **** 					else if (ItemTypeTag == HID_RI_OUTPUT(0))
 274:../../tmk_core/protocol/lufa/lufa-abcminiuser/LUFA/Drivers/USB/Class/Common/HIDParser.c **** 					  NewReportItem.ItemType = HID_REPORT_ITEM_Out;
 275:../../tmk_core/protocol/lufa/lufa-abcminiuser/LUFA/Drivers/USB/Class/Common/HIDParser.c **** 					else
 276:../../tmk_core/protocol/lufa/lufa-abcminiuser/LUFA/Drivers/USB/Class/Common/HIDParser.c **** 					  NewReportItem.ItemType = HID_REPORT_ITEM_Feature;
 277:../../tmk_core/protocol/lufa/lufa-abcminiuser/LUFA/Drivers/USB/Class/Common/HIDParser.c **** 
 278:../../tmk_core/protocol/lufa/lufa-abcminiuser/LUFA/Drivers/USB/Class/Common/HIDParser.c **** 					NewReportItem.BitOffset = CurrReportIDInfo->ReportSizeBits[NewReportItem.ItemType];
 279:../../tmk_core/protocol/lufa/lufa-abcminiuser/LUFA/Drivers/USB/Class/Common/HIDParser.c **** 
 280:../../tmk_core/protocol/lufa/lufa-abcminiuser/LUFA/Drivers/USB/Class/Common/HIDParser.c **** 					CurrReportIDInfo->ReportSizeBits[NewReportItem.ItemType] += CurrStateTable->Attributes.BitSize
 281:../../tmk_core/protocol/lufa/lufa-abcminiuser/LUFA/Drivers/USB/Class/Common/HIDParser.c **** 
 282:../../tmk_core/protocol/lufa/lufa-abcminiuser/LUFA/Drivers/USB/Class/Common/HIDParser.c **** 					ParserData->LargestReportSizeBits = MAX(ParserData->LargestReportSizeBits, CurrReportIDInfo->R
 217               		.loc 1 282 40 view .LVU25
 218 00c4 295B      		subi r18,-71
 219 00c6 3F4F      		sbci r19,-1
 220               	.LVL7:
 221               		.loc 1 282 40 view .LVU26
 222 00c8 CD57      		subi r28,lo8(-131)
 223 00ca DF4F      		sbci r29,hi8(-131)
 224 00cc 3983      		std Y+1,r19
 225 00ce 2883      		st Y,r18
 226 00d0 C358      		subi r28,lo8(131)
 227 00d2 D040      		sbci r29,hi8(131)
 228               	.LBE5:
 229               	.LBE4:
 146:../../tmk_core/protocol/lufa/lufa-abcminiuser/LUFA/Drivers/USB/Class/Common/HIDParser.c **** 				{
 230               		.loc 1 146 19 view .LVU27
 231 00d4 CA01      		movw r24,r20
 232 00d6 8852      		subi r24,40
 233 00d8 9C4F      		sbci r25,-4
 234 00da CB57      		subi r28,lo8(-133)
 235 00dc DF4F      		sbci r29,hi8(-133)
 236 00de 9983      		std Y+1,r25
 237 00e0 8883      		st Y,r24
 238 00e2 C558      		subi r28,lo8(133)
 239 00e4 D040      		sbci r29,hi8(133)
 240               	.LVL8:
 241               	.L2:
 146:../../tmk_core/protocol/lufa/lufa-abcminiuser/LUFA/Drivers/USB/Class/Common/HIDParser.c **** 				{
 242               		.loc 1 146 19 view .LVU28
 243               	.LBE2:
  53:../../tmk_core/protocol/lufa/lufa-abcminiuser/LUFA/Drivers/USB/Class/Common/HIDParser.c **** 	{
 244               		.loc 1 53 8 is_stmt 1 view .LVU29
 245 00e6 E796      		adiw r28,117-62
 246 00e8 EEAD      		ldd r30,Y+62
 247 00ea FFAD      		ldd r31,Y+63
 248 00ec E797      		sbiw r28,117-62
 249               	.LVL9:
  53:../../tmk_core/protocol/lufa/lufa-abcminiuser/LUFA/Drivers/USB/Class/Common/HIDParser.c **** 	{
 250               		.loc 1 53 8 is_stmt 0 view .LVU30
 251 00ee EF2B      		or r30,r31
 252 00f0 01F4      		brne .L54
 283:../../tmk_core/protocol/lufa/lufa-abcminiuser/LUFA/Drivers/USB/Class/Common/HIDParser.c **** 
 284:../../tmk_core/protocol/lufa/lufa-abcminiuser/LUFA/Drivers/USB/Class/Common/HIDParser.c **** 					if (ParserData->TotalReportItems == HID_MAX_REPORTITEMS)
 285:../../tmk_core/protocol/lufa/lufa-abcminiuser/LUFA/Drivers/USB/Class/Common/HIDParser.c **** 					  return HID_PARSE_InsufficientReportItems;
 286:../../tmk_core/protocol/lufa/lufa-abcminiuser/LUFA/Drivers/USB/Class/Common/HIDParser.c **** 
 287:../../tmk_core/protocol/lufa/lufa-abcminiuser/LUFA/Drivers/USB/Class/Common/HIDParser.c **** 					memcpy(&ParserData->ReportItems[ParserData->TotalReportItems],
 288:../../tmk_core/protocol/lufa/lufa-abcminiuser/LUFA/Drivers/USB/Class/Common/HIDParser.c **** 					       &NewReportItem, sizeof(HID_ReportItem_t));
 289:../../tmk_core/protocol/lufa/lufa-abcminiuser/LUFA/Drivers/USB/Class/Common/HIDParser.c **** 
 290:../../tmk_core/protocol/lufa/lufa-abcminiuser/LUFA/Drivers/USB/Class/Common/HIDParser.c **** 					if (!(ReportItemData & HID_IOF_CONSTANT) && CALLBACK_HIDParser_FilterHIDReportItem(&NewReportI
 291:../../tmk_core/protocol/lufa/lufa-abcminiuser/LUFA/Drivers/USB/Class/Common/HIDParser.c **** 					  ParserData->TotalReportItems++;
 292:../../tmk_core/protocol/lufa/lufa-abcminiuser/LUFA/Drivers/USB/Class/Common/HIDParser.c **** 				}
 293:../../tmk_core/protocol/lufa/lufa-abcminiuser/LUFA/Drivers/USB/Class/Common/HIDParser.c **** 
 294:../../tmk_core/protocol/lufa/lufa-abcminiuser/LUFA/Drivers/USB/Class/Common/HIDParser.c **** 				break;
 295:../../tmk_core/protocol/lufa/lufa-abcminiuser/LUFA/Drivers/USB/Class/Common/HIDParser.c **** 
 296:../../tmk_core/protocol/lufa/lufa-abcminiuser/LUFA/Drivers/USB/Class/Common/HIDParser.c **** 			default:
 297:../../tmk_core/protocol/lufa/lufa-abcminiuser/LUFA/Drivers/USB/Class/Common/HIDParser.c **** 				break;
 298:../../tmk_core/protocol/lufa/lufa-abcminiuser/LUFA/Drivers/USB/Class/Common/HIDParser.c **** 		}
 299:../../tmk_core/protocol/lufa/lufa-abcminiuser/LUFA/Drivers/USB/Class/Common/HIDParser.c **** 
 300:../../tmk_core/protocol/lufa/lufa-abcminiuser/LUFA/Drivers/USB/Class/Common/HIDParser.c **** 		if ((HIDReportItem & HID_RI_TYPE_MASK) == HID_RI_TYPE_MAIN)
 301:../../tmk_core/protocol/lufa/lufa-abcminiuser/LUFA/Drivers/USB/Class/Common/HIDParser.c **** 		{
 302:../../tmk_core/protocol/lufa/lufa-abcminiuser/LUFA/Drivers/USB/Class/Common/HIDParser.c **** 			UsageMinMax.Minimum = 0;
 303:../../tmk_core/protocol/lufa/lufa-abcminiuser/LUFA/Drivers/USB/Class/Common/HIDParser.c **** 			UsageMinMax.Maximum = 0;
 304:../../tmk_core/protocol/lufa/lufa-abcminiuser/LUFA/Drivers/USB/Class/Common/HIDParser.c **** 			UsageListSize       = 0;
 305:../../tmk_core/protocol/lufa/lufa-abcminiuser/LUFA/Drivers/USB/Class/Common/HIDParser.c **** 		}
 306:../../tmk_core/protocol/lufa/lufa-abcminiuser/LUFA/Drivers/USB/Class/Common/HIDParser.c **** 	}
 307:../../tmk_core/protocol/lufa/lufa-abcminiuser/LUFA/Drivers/USB/Class/Common/HIDParser.c **** 
 308:../../tmk_core/protocol/lufa/lufa-abcminiuser/LUFA/Drivers/USB/Class/Common/HIDParser.c **** 	if (!(ParserData->TotalReportItems))
 253               		.loc 1 308 2 is_stmt 1 view .LVU31
 254               		.loc 1 308 5 is_stmt 0 view .LVU32
 255 00f2 D401      		movw r26,r8
 256 00f4 8C91      		ld r24,X
 257 00f6 8111      		cpse r24,__zero_reg__
 258 00f8 00C0      		rjmp .L67
 309:../../tmk_core/protocol/lufa/lufa-abcminiuser/LUFA/Drivers/USB/Class/Common/HIDParser.c **** 	  return HID_PARSE_NoUnfilteredReportItems;
 259               		.loc 1 309 11 view .LVU33
 260 00fa 88E0      		ldi r24,lo8(8)
 261 00fc 00C0      		rjmp .L1
 262               	.L54:
 263               	.LBB18:
  55:../../tmk_core/protocol/lufa/lufa-abcminiuser/LUFA/Drivers/USB/Class/Common/HIDParser.c **** 		uint32_t ReportItemData;
 264               		.loc 1 55 3 is_stmt 1 view .LVU34
  55:../../tmk_core/protocol/lufa/lufa-abcminiuser/LUFA/Drivers/USB/Class/Common/HIDParser.c **** 		uint32_t ReportItemData;
 265               		.loc 1 55 12 is_stmt 0 view .LVU35
 266 00fe D101      		movw r26,r2
 267 0100 BC91      		ld r27,X
 268 0102 EF96      		adiw r28,126-63
 269 0104 BFAF      		std Y+63,r27
 270 0106 EF97      		sbiw r28,126-63
 271               	.LVL10:
  56:../../tmk_core/protocol/lufa/lufa-abcminiuser/LUFA/Drivers/USB/Class/Common/HIDParser.c **** 
 272               		.loc 1 56 3 is_stmt 1 view .LVU36
  58:../../tmk_core/protocol/lufa/lufa-abcminiuser/LUFA/Drivers/USB/Class/Common/HIDParser.c **** 		ReportSize--;
 273               		.loc 1 58 3 view .LVU37
  59:../../tmk_core/protocol/lufa/lufa-abcminiuser/LUFA/Drivers/USB/Class/Common/HIDParser.c **** 
 274               		.loc 1 59 3 view .LVU38
  61:../../tmk_core/protocol/lufa/lufa-abcminiuser/LUFA/Drivers/USB/Class/Common/HIDParser.c **** 		{
 275               		.loc 1 61 3 view .LVU39
 276 0108 8B2F      		mov r24,r27
 277 010a 8370      		andi r24,lo8(3)
 278 010c 8230      		cpi r24,lo8(2)
 279 010e 01F4      		brne .+2
 280 0110 00C0      		rjmp .L3
 281               	.LVL11:
  61:../../tmk_core/protocol/lufa/lufa-abcminiuser/LUFA/Drivers/USB/Class/Common/HIDParser.c **** 		{
 282               		.loc 1 61 3 is_stmt 0 view .LVU40
 283 0112 8330      		cpi r24,lo8(3)
 284 0114 01F4      		brne .+2
 285 0116 00C0      		rjmp .L4
 286 0118 8130      		cpi r24,lo8(1)
 287 011a 01F4      		brne .+2
 288 011c 00C0      		rjmp .L5
  58:../../tmk_core/protocol/lufa/lufa-abcminiuser/LUFA/Drivers/USB/Class/Common/HIDParser.c **** 		ReportSize--;
 289               		.loc 1 58 13 view .LVU41
 290 011e EFEF      		ldi r30,-1
 291 0120 2E1A      		sub r2,r30
 292 0122 3E0A      		sbc r3,r30
 293               	.LVL12:
  59:../../tmk_core/protocol/lufa/lufa-abcminiuser/LUFA/Drivers/USB/Class/Common/HIDParser.c **** 
 294               		.loc 1 59 13 view .LVU42
 295 0124 E796      		adiw r28,117-62
 296 0126 2EAD      		ldd r18,Y+62
 297 0128 3FAD      		ldd r19,Y+63
 298 012a E797      		sbiw r28,117-62
 299               	.LVL13:
  59:../../tmk_core/protocol/lufa/lufa-abcminiuser/LUFA/Drivers/USB/Class/Common/HIDParser.c **** 
 300               		.loc 1 59 13 view .LVU43
 301 012c 2150      		subi r18,1
 302 012e 3109      		sbc r19,__zero_reg__
 303               	.LVL14:
  59:../../tmk_core/protocol/lufa/lufa-abcminiuser/LUFA/Drivers/USB/Class/Common/HIDParser.c **** 
 304               		.loc 1 59 13 view .LVU44
 305 0130 E796      		adiw r28,117-62
 306 0132 3FAF      		std Y+63,r19
 307 0134 2EAF      		std Y+62,r18
 308 0136 E797      		sbiw r28,117-62
  83:../../tmk_core/protocol/lufa/lufa-abcminiuser/LUFA/Drivers/USB/Class/Common/HIDParser.c **** 				break;
 309               		.loc 1 83 21 view .LVU45
 310 0138 C12C      		mov r12,__zero_reg__
 311 013a D12C      		mov r13,__zero_reg__
 312 013c E12C      		mov r14,__zero_reg__
 313 013e F12C      		mov r15,__zero_reg__
 314               	.LVL15:
 315               	.L6:
  87:../../tmk_core/protocol/lufa/lufa-abcminiuser/LUFA/Drivers/USB/Class/Common/HIDParser.c **** 		{
 316               		.loc 1 87 3 is_stmt 1 view .LVU46
 317 0140 EF96      		adiw r28,126-63
 318 0142 1FAD      		ldd r17,Y+63
 319 0144 EF97      		sbiw r28,126-63
 320 0146 1C7F      		andi r17,lo8(-4)
 321 0148 1436      		cpi r17,lo8(100)
 322 014a 01F4      		brne .+2
 323 014c 00C0      		rjmp .L7
  87:../../tmk_core/protocol/lufa/lufa-abcminiuser/LUFA/Drivers/USB/Class/Common/HIDParser.c **** 		{
 324               		.loc 1 87 3 is_stmt 0 view .LVU47
 325 014e 00F0      		brlo .+2
 326 0150 00C0      		rjmp .L8
 327 0152 1432      		cpi r17,lo8(36)
 328 0154 01F4      		brne .+2
 329 0156 00C0      		rjmp .L9
 330 0158 00F0      		brlo .+2
 331 015a 00C0      		rjmp .L10
 332 015c 1431      		cpi r17,lo8(20)
 333 015e 01F4      		brne .+2
 334 0160 00C0      		rjmp .L11
 335 0162 00F0      		brlo .+2
 336 0164 00C0      		rjmp .L12
 337 0166 1430      		cpi r17,lo8(4)
 338 0168 01F4      		brne .+2
 339 016a 00C0      		rjmp .L13
 340 016c 1830      		cpi r17,lo8(8)
 341 016e 01F4      		brne .+2
 342 0170 00C0      		rjmp .L14
 343               	.LVL16:
 344               	.L15:
 300:../../tmk_core/protocol/lufa/lufa-abcminiuser/LUFA/Drivers/USB/Class/Common/HIDParser.c **** 		{
 345               		.loc 1 300 3 is_stmt 1 view .LVU48
 346 0172 EF96      		adiw r28,126-63
 347 0174 8FAD      		ldd r24,Y+63
 348 0176 EF97      		sbiw r28,126-63
 349 0178 8C70      		andi r24,lo8(12)
 300:../../tmk_core/protocol/lufa/lufa-abcminiuser/LUFA/Drivers/USB/Class/Common/HIDParser.c **** 		{
 350               		.loc 1 300 6 is_stmt 0 view .LVU49
 351 017a 01F0      		breq .+2
 352 017c 00C0      		rjmp .L2
 304:../../tmk_core/protocol/lufa/lufa-abcminiuser/LUFA/Drivers/USB/Class/Common/HIDParser.c **** 		}
 353               		.loc 1 304 24 view .LVU50
 354 017e 00E0      		ldi r16,0
 355               	.LVL17:
 303:../../tmk_core/protocol/lufa/lufa-abcminiuser/LUFA/Drivers/USB/Class/Common/HIDParser.c **** 			UsageListSize       = 0;
 356               		.loc 1 303 24 view .LVU51
 357 0180 E896      		adiw r28,119-63
 358 0182 1FAE      		std Y+63,__zero_reg__
 359 0184 E897      		sbiw r28,119-63
 303:../../tmk_core/protocol/lufa/lufa-abcminiuser/LUFA/Drivers/USB/Class/Common/HIDParser.c **** 			UsageListSize       = 0;
 360               		.loc 1 303 24 view .LVU52
 361 0186 E996      		adiw r28,120-63
 362 0188 1FAE      		std Y+63,__zero_reg__
 363 018a E997      		sbiw r28,120-63
 364 018c EA96      		adiw r28,121-63
 365 018e 1FAE      		std Y+63,__zero_reg__
 366 0190 EA97      		sbiw r28,121-63
 367 0192 EB96      		adiw r28,122-63
 368 0194 1FAE      		std Y+63,__zero_reg__
 369 0196 EB97      		sbiw r28,122-63
 302:../../tmk_core/protocol/lufa/lufa-abcminiuser/LUFA/Drivers/USB/Class/Common/HIDParser.c **** 			UsageMinMax.Maximum = 0;
 370               		.loc 1 302 24 view .LVU53
 371 0198 412C      		mov r4,__zero_reg__
 372               	.LVL18:
 302:../../tmk_core/protocol/lufa/lufa-abcminiuser/LUFA/Drivers/USB/Class/Common/HIDParser.c **** 			UsageMinMax.Maximum = 0;
 373               		.loc 1 302 24 view .LVU54
 374 019a 512C      		mov r5,__zero_reg__
 375 019c 612C      		mov r6,__zero_reg__
 376 019e 712C      		mov r7,__zero_reg__
 302:../../tmk_core/protocol/lufa/lufa-abcminiuser/LUFA/Drivers/USB/Class/Common/HIDParser.c **** 			UsageMinMax.Maximum = 0;
 377               		.loc 1 302 24 view .LVU55
 378 01a0 00C0      		rjmp .L2
 379               	.LVL19:
 380               	.L4:
  64:../../tmk_core/protocol/lufa/lufa-abcminiuser/LUFA/Drivers/USB/Class/Common/HIDParser.c **** 			                       ((uint16_t)ReportData[1] << 8)  | ReportData[0]);
 381               		.loc 1 64 5 is_stmt 1 view .LVU56
  64:../../tmk_core/protocol/lufa/lufa-abcminiuser/LUFA/Drivers/USB/Class/Common/HIDParser.c **** 			                       ((uint16_t)ReportData[1] << 8)  | ReportData[0]);
 382               		.loc 1 64 21 is_stmt 0 view .LVU57
 383 01a2 D101      		movw r26,r2
 384 01a4 1196      		adiw r26,1
 385 01a6 CD90      		ld r12,X+
 386 01a8 DD90      		ld r13,X+
 387 01aa ED90      		ld r14,X+
 388 01ac FC90      		ld r15,X
 389 01ae 1497      		sbiw r26,1+3
 390               	.LVL20:
  66:../../tmk_core/protocol/lufa/lufa-abcminiuser/LUFA/Drivers/USB/Class/Common/HIDParser.c **** 				ReportData     += 4;
 391               		.loc 1 66 5 is_stmt 1 view .LVU58
  66:../../tmk_core/protocol/lufa/lufa-abcminiuser/LUFA/Drivers/USB/Class/Common/HIDParser.c **** 				ReportData     += 4;
 392               		.loc 1 66 20 is_stmt 0 view .LVU59
 393 01b0 E796      		adiw r28,117-62
 394 01b2 EEAD      		ldd r30,Y+62
 395 01b4 FFAD      		ldd r31,Y+63
 396 01b6 E797      		sbiw r28,117-62
 397 01b8 3597      		sbiw r30,5
 398 01ba E796      		adiw r28,117-62
 399 01bc FFAF      		std Y+63,r31
 400 01be EEAF      		std Y+62,r30
 401 01c0 E797      		sbiw r28,117-62
 402               	.LVL21:
  67:../../tmk_core/protocol/lufa/lufa-abcminiuser/LUFA/Drivers/USB/Class/Common/HIDParser.c **** 				break;
 403               		.loc 1 67 5 is_stmt 1 view .LVU60
  67:../../tmk_core/protocol/lufa/lufa-abcminiuser/LUFA/Drivers/USB/Class/Common/HIDParser.c **** 				break;
 404               		.loc 1 67 20 is_stmt 0 view .LVU61
 405 01c2 F5E0      		ldi r31,5
 406 01c4 2F0E      		add r2,r31
 407 01c6 311C      		adc r3,__zero_reg__
 408               	.LVL22:
  68:../../tmk_core/protocol/lufa/lufa-abcminiuser/LUFA/Drivers/USB/Class/Common/HIDParser.c **** 
 409               		.loc 1 68 5 is_stmt 1 view .LVU62
 410 01c8 00C0      		rjmp .L6
 411               	.LVL23:
 412               	.L3:
  71:../../tmk_core/protocol/lufa/lufa-abcminiuser/LUFA/Drivers/USB/Class/Common/HIDParser.c **** 				ReportSize     -= 2;
 413               		.loc 1 71 5 view .LVU63
  71:../../tmk_core/protocol/lufa/lufa-abcminiuser/LUFA/Drivers/USB/Class/Common/HIDParser.c **** 				ReportSize     -= 2;
 414               		.loc 1 71 21 is_stmt 0 view .LVU64
 415 01ca D101      		movw r26,r2
 416 01cc 1196      		adiw r26,1
 417 01ce CD90      		ld r12,X+
 418 01d0 DC90      		ld r13,X
 419 01d2 F12C      		mov r15,__zero_reg__
 420 01d4 E12C      		mov r14,__zero_reg__
 421               	.LVL24:
  72:../../tmk_core/protocol/lufa/lufa-abcminiuser/LUFA/Drivers/USB/Class/Common/HIDParser.c **** 				ReportData     += 2;
 422               		.loc 1 72 5 is_stmt 1 view .LVU65
  72:../../tmk_core/protocol/lufa/lufa-abcminiuser/LUFA/Drivers/USB/Class/Common/HIDParser.c **** 				ReportData     += 2;
 423               		.loc 1 72 20 is_stmt 0 view .LVU66
 424 01d6 E796      		adiw r28,117-62
 425 01d8 EEAD      		ldd r30,Y+62
 426 01da FFAD      		ldd r31,Y+63
 427 01dc E797      		sbiw r28,117-62
 428 01de 3397      		sbiw r30,3
 429 01e0 E796      		adiw r28,117-62
 430 01e2 FFAF      		std Y+63,r31
 431 01e4 EEAF      		std Y+62,r30
 432 01e6 E797      		sbiw r28,117-62
 433               	.LVL25:
  73:../../tmk_core/protocol/lufa/lufa-abcminiuser/LUFA/Drivers/USB/Class/Common/HIDParser.c **** 				break;
 434               		.loc 1 73 5 is_stmt 1 view .LVU67
  73:../../tmk_core/protocol/lufa/lufa-abcminiuser/LUFA/Drivers/USB/Class/Common/HIDParser.c **** 				break;
 435               		.loc 1 73 20 is_stmt 0 view .LVU68
 436 01e8 F3E0      		ldi r31,3
 437 01ea 2F0E      		add r2,r31
 438 01ec 311C      		adc r3,__zero_reg__
 439               	.LVL26:
  74:../../tmk_core/protocol/lufa/lufa-abcminiuser/LUFA/Drivers/USB/Class/Common/HIDParser.c **** 
 440               		.loc 1 74 5 is_stmt 1 view .LVU69
 441 01ee 00C0      		rjmp .L6
 442               	.LVL27:
 443               	.L5:
  77:../../tmk_core/protocol/lufa/lufa-abcminiuser/LUFA/Drivers/USB/Class/Common/HIDParser.c **** 				ReportSize     -= 1;
 444               		.loc 1 77 5 view .LVU70
  77:../../tmk_core/protocol/lufa/lufa-abcminiuser/LUFA/Drivers/USB/Class/Common/HIDParser.c **** 				ReportSize     -= 1;
 445               		.loc 1 77 21 is_stmt 0 view .LVU71
 446 01f0 D101      		movw r26,r2
 447 01f2 1196      		adiw r26,1
 448 01f4 CC90      		ld r12,X
 449 01f6 D12C      		mov r13,__zero_reg__
 450 01f8 F12C      		mov r15,__zero_reg__
 451 01fa E12C      		mov r14,__zero_reg__
 452               	.LVL28:
  78:../../tmk_core/protocol/lufa/lufa-abcminiuser/LUFA/Drivers/USB/Class/Common/HIDParser.c **** 				ReportData     += 1;
 453               		.loc 1 78 5 is_stmt 1 view .LVU72
  78:../../tmk_core/protocol/lufa/lufa-abcminiuser/LUFA/Drivers/USB/Class/Common/HIDParser.c **** 				ReportData     += 1;
 454               		.loc 1 78 20 is_stmt 0 view .LVU73
 455 01fc E796      		adiw r28,117-62
 456 01fe EEAD      		ldd r30,Y+62
 457 0200 FFAD      		ldd r31,Y+63
 458 0202 E797      		sbiw r28,117-62
 459 0204 3297      		sbiw r30,2
 460 0206 E796      		adiw r28,117-62
 461 0208 FFAF      		std Y+63,r31
 462 020a EEAF      		std Y+62,r30
 463 020c E797      		sbiw r28,117-62
 464               	.LVL29:
  79:../../tmk_core/protocol/lufa/lufa-abcminiuser/LUFA/Drivers/USB/Class/Common/HIDParser.c **** 				break;
 465               		.loc 1 79 5 is_stmt 1 view .LVU74
  79:../../tmk_core/protocol/lufa/lufa-abcminiuser/LUFA/Drivers/USB/Class/Common/HIDParser.c **** 				break;
 466               		.loc 1 79 20 is_stmt 0 view .LVU75
 467 020e F2E0      		ldi r31,2
 468 0210 2F0E      		add r2,r31
 469 0212 311C      		adc r3,__zero_reg__
 470               	.LVL30:
  80:../../tmk_core/protocol/lufa/lufa-abcminiuser/LUFA/Drivers/USB/Class/Common/HIDParser.c **** 
 471               		.loc 1 80 5 is_stmt 1 view .LVU76
 472 0214 00C0      		rjmp .L6
 473               	.LVL31:
 474               	.L12:
  87:../../tmk_core/protocol/lufa/lufa-abcminiuser/LUFA/Drivers/USB/Class/Common/HIDParser.c **** 		{
 475               		.loc 1 87 3 is_stmt 0 view .LVU77
 476 0216 1831      		cpi r17,lo8(24)
 477 0218 01F0      		breq .+2
 478 021a 00C0      		rjmp .L15
 479 021c 2601      		movw r4,r12
 480               	.LVL32:
  87:../../tmk_core/protocol/lufa/lufa-abcminiuser/LUFA/Drivers/USB/Class/Common/HIDParser.c **** 		{
 481               		.loc 1 87 3 view .LVU78
 482 021e 3701      		movw r6,r14
 483 0220 00C0      		rjmp .L15
 484               	.LVL33:
 485               	.L10:
  87:../../tmk_core/protocol/lufa/lufa-abcminiuser/LUFA/Drivers/USB/Class/Common/HIDParser.c **** 		{
 486               		.loc 1 87 3 view .LVU79
 487 0222 1434      		cpi r17,lo8(68)
 488 0224 01F4      		brne .+2
 489 0226 00C0      		rjmp .L16
 490 0228 00F4      		brsh .L17
 491 022a 1832      		cpi r17,lo8(40)
 492 022c 01F4      		brne .+2
 493 022e 00C0      		rjmp .L56
 494 0230 1433      		cpi r17,lo8(52)
 495 0232 01F0      		breq .+2
 496 0234 00C0      		rjmp .L15
 120:../../tmk_core/protocol/lufa/lufa-abcminiuser/LUFA/Drivers/USB/Class/Common/HIDParser.c **** 				break;
 497               		.loc 1 120 5 is_stmt 1 view .LVU80
 120:../../tmk_core/protocol/lufa/lufa-abcminiuser/LUFA/Drivers/USB/Class/Common/HIDParser.c **** 				break;
 498               		.loc 1 120 49 is_stmt 0 view .LVU81
 499 0236 F501      		movw r30,r10
 500 0238 C28A      		std Z+18,r12
 501 023a D38A      		std Z+19,r13
 502 023c E48A      		std Z+20,r14
 503 023e F58A      		std Z+21,r15
 121:../../tmk_core/protocol/lufa/lufa-abcminiuser/LUFA/Drivers/USB/Class/Common/HIDParser.c **** 
 504               		.loc 1 121 5 is_stmt 1 view .LVU82
 505 0240 00C0      		rjmp .L15
 506               	.L17:
  87:../../tmk_core/protocol/lufa/lufa-abcminiuser/LUFA/Drivers/USB/Class/Common/HIDParser.c **** 		{
 507               		.loc 1 87 3 is_stmt 0 view .LVU83
 508 0242 1435      		cpi r17,lo8(84)
 509 0244 01F0      		breq .+2
 510 0246 00C0      		rjmp .L15
 128:../../tmk_core/protocol/lufa/lufa-abcminiuser/LUFA/Drivers/USB/Class/Common/HIDParser.c **** 				break;
 511               		.loc 1 128 5 is_stmt 1 view .LVU84
 128:../../tmk_core/protocol/lufa/lufa-abcminiuser/LUFA/Drivers/USB/Class/Common/HIDParser.c **** 				break;
 512               		.loc 1 128 49 is_stmt 0 view .LVU85
 513 0248 F501      		movw r30,r10
 514 024a C186      		std Z+9,r12
 129:../../tmk_core/protocol/lufa/lufa-abcminiuser/LUFA/Drivers/USB/Class/Common/HIDParser.c **** 
 515               		.loc 1 129 5 is_stmt 1 view .LVU86
 516 024c 00C0      		rjmp .L15
 517               	.L8:
  87:../../tmk_core/protocol/lufa/lufa-abcminiuser/LUFA/Drivers/USB/Class/Common/HIDParser.c **** 		{
 518               		.loc 1 87 3 is_stmt 0 view .LVU87
 519 024e 103A      		cpi r17,lo8(-96)
 520 0250 01F4      		brne .+2
 521 0252 00C0      		rjmp .L20
 522 0254 00F4      		brsh .L21
 523 0256 1438      		cpi r17,lo8(-124)
 524 0258 01F4      		brne .+2
 525 025a 00C0      		rjmp .L22
 526 025c 00F4      		brsh .L23
 527 025e 1437      		cpi r17,lo8(116)
 528 0260 01F4      		brne .+2
 529 0262 00C0      		rjmp .L24
 530 0264 1038      		cpi r17,lo8(-128)
 531 0266 01F0      		breq .+2
 532 0268 00C0      		rjmp .L15
 533               	.L59:
 534 026a EE96      		adiw r28,125-63
 535 026c 1FAE      		std Y+63,__zero_reg__
 536 026e EE97      		sbiw r28,125-63
 537               	.LBB10:
 538               	.LBB7:
 290:../../tmk_core/protocol/lufa/lufa-abcminiuser/LUFA/Drivers/USB/Class/Common/HIDParser.c **** 					  ParserData->TotalReportItems++;
 539               		.loc 1 290 27 view .LVU88
 540 0270 D701      		movw r26,r14
 541 0272 C601      		movw r24,r12
 542 0274 8170      		andi r24,1
 543 0276 9927      		clr r25
 544 0278 AA27      		clr r26
 545 027a BB27      		clr r27
 546 027c C957      		subi r28,lo8(-135)
 547 027e DF4F      		sbci r29,hi8(-135)
 548 0280 8883      		st Y,r24
 549 0282 9983      		std Y+1,r25
 550 0284 AA83      		std Y+2,r26
 551 0286 BB83      		std Y+3,r27
 552 0288 C758      		subi r28,lo8(135)
 553 028a D040      		sbci r29,hi8(135)
 554 028c 00C0      		rjmp .L51
 555               	.L23:
 556               	.LBE7:
 557               	.LBE10:
  87:../../tmk_core/protocol/lufa/lufa-abcminiuser/LUFA/Drivers/USB/Class/Common/HIDParser.c **** 		{
 558               		.loc 1 87 3 view .LVU89
 559 028e 1039      		cpi r17,lo8(-112)
 560 0290 01F0      		breq .L59
 561 0292 1439      		cpi r17,lo8(-108)
 562 0294 01F0      		breq .+2
 563 0296 00C0      		rjmp .L15
 140:../../tmk_core/protocol/lufa/lufa-abcminiuser/LUFA/Drivers/USB/Class/Common/HIDParser.c **** 				break;
 564               		.loc 1 140 5 is_stmt 1 view .LVU90
 140:../../tmk_core/protocol/lufa/lufa-abcminiuser/LUFA/Drivers/USB/Class/Common/HIDParser.c **** 				break;
 565               		.loc 1 140 49 is_stmt 0 view .LVU91
 566 0298 D501      		movw r26,r10
 567 029a 5A96      		adiw r26,26
 568 029c CC92      		st X,r12
 141:../../tmk_core/protocol/lufa/lufa-abcminiuser/LUFA/Drivers/USB/Class/Common/HIDParser.c **** 
 569               		.loc 1 141 5 is_stmt 1 view .LVU92
 570 029e 00C0      		rjmp .L15
 571               	.L21:
  87:../../tmk_core/protocol/lufa/lufa-abcminiuser/LUFA/Drivers/USB/Class/Common/HIDParser.c **** 		{
 572               		.loc 1 87 3 is_stmt 0 view .LVU93
 573 02a0 143B      		cpi r17,lo8(-76)
 574 02a2 01F0      		breq .L27
 575 02a4 00F4      		brsh .L28
 576 02a6 143A      		cpi r17,lo8(-92)
 577 02a8 01F0      		breq .L29
 578 02aa 103B      		cpi r17,lo8(-80)
 579 02ac 01F0      		breq .L59
 580 02ae 00C0      		rjmp .L15
 581               	.L28:
 582 02b0 103C      		cpi r17,lo8(-64)
 583 02b2 01F0      		breq .+2
 584 02b4 00C0      		rjmp .L15
 234:../../tmk_core/protocol/lufa/lufa-abcminiuser/LUFA/Drivers/USB/Class/Common/HIDParser.c **** 				  return HID_PARSE_UnexpectedEndCollection;
 585               		.loc 1 234 5 is_stmt 1 view .LVU94
 234:../../tmk_core/protocol/lufa/lufa-abcminiuser/LUFA/Drivers/USB/Class/Common/HIDParser.c **** 				  return HID_PARSE_UnexpectedEndCollection;
 586               		.loc 1 234 8 is_stmt 0 view .LVU95
 587 02b6 E596      		adiw r28,115-62
 588 02b8 EEAD      		ldd r30,Y+62
 589 02ba FFAD      		ldd r31,Y+63
 590 02bc E597      		sbiw r28,115-62
 591 02be 3097      		sbiw r30,0
 592 02c0 01F4      		brne .+2
 593 02c2 00C0      		rjmp .L66
 237:../../tmk_core/protocol/lufa/lufa-abcminiuser/LUFA/Drivers/USB/Class/Common/HIDParser.c **** 				break;
 594               		.loc 1 237 5 is_stmt 1 view .LVU96
 237:../../tmk_core/protocol/lufa/lufa-abcminiuser/LUFA/Drivers/USB/Class/Common/HIDParser.c **** 				break;
 595               		.loc 1 237 24 is_stmt 0 view .LVU97
 596 02c4 2581      		ldd r18,Z+5
 597 02c6 3681      		ldd r19,Z+6
 598 02c8 E596      		adiw r28,115-62
 599 02ca 3FAF      		std Y+63,r19
 600 02cc 2EAF      		std Y+62,r18
 601 02ce E597      		sbiw r28,115-62
 602               	.LVL34:
 238:../../tmk_core/protocol/lufa/lufa-abcminiuser/LUFA/Drivers/USB/Class/Common/HIDParser.c **** 
 603               		.loc 1 238 5 is_stmt 1 view .LVU98
 604 02d0 00C0      		rjmp .L15
 605               	.LVL35:
 606               	.L29:
  90:../../tmk_core/protocol/lufa/lufa-abcminiuser/LUFA/Drivers/USB/Class/Common/HIDParser.c **** 				  return HID_PARSE_HIDStackOverflow;
 607               		.loc 1 90 5 view .LVU99
  90:../../tmk_core/protocol/lufa/lufa-abcminiuser/LUFA/Drivers/USB/Class/Common/HIDParser.c **** 				  return HID_PARSE_HIDStackOverflow;
 608               		.loc 1 90 8 is_stmt 0 view .LVU100
 609 02d2 CE01      		movw r24,r28
 610 02d4 4D96      		adiw r24,29
 611 02d6 A816      		cp r10,r24
 612 02d8 B906      		cpc r11,r25
 613 02da 01F4      		brne .+2
 614 02dc 00C0      		rjmp .L60
  93:../../tmk_core/protocol/lufa/lufa-abcminiuser/LUFA/Drivers/USB/Class/Common/HIDParser.c **** 				       CurrStateTable,
 615               		.loc 1 93 5 is_stmt 1 view .LVU101
  93:../../tmk_core/protocol/lufa/lufa-abcminiuser/LUFA/Drivers/USB/Class/Common/HIDParser.c **** 				       CurrStateTable,
 616               		.loc 1 93 28 is_stmt 0 view .LVU102
 617 02de C501      		movw r24,r10
 618 02e0 4C96      		adiw r24,28
  93:../../tmk_core/protocol/lufa/lufa-abcminiuser/LUFA/Drivers/USB/Class/Common/HIDParser.c **** 				       CurrStateTable,
 619               		.loc 1 93 5 view .LVU103
 620 02e2 2CE1      		ldi r18,lo8(28)
 621 02e4 F501      		movw r30,r10
 622 02e6 DC01      		movw r26,r24
 623               		0:
 624 02e8 0190      		ld r0,Z+
 625 02ea 0D92      		st X+,r0
 626 02ec 2A95      		dec r18
 627 02ee 01F4      		brne 0b
  97:../../tmk_core/protocol/lufa/lufa-abcminiuser/LUFA/Drivers/USB/Class/Common/HIDParser.c **** 				break;
 628               		.loc 1 97 5 is_stmt 1 view .LVU104
 629               	.LVL36:
  98:../../tmk_core/protocol/lufa/lufa-abcminiuser/LUFA/Drivers/USB/Class/Common/HIDParser.c **** 
 630               		.loc 1 98 5 view .LVU105
  97:../../tmk_core/protocol/lufa/lufa-abcminiuser/LUFA/Drivers/USB/Class/Common/HIDParser.c **** 				break;
 631               		.loc 1 97 19 is_stmt 0 view .LVU106
 632 02f0 5C01      		movw r10,r24
  98:../../tmk_core/protocol/lufa/lufa-abcminiuser/LUFA/Drivers/USB/Class/Common/HIDParser.c **** 
 633               		.loc 1 98 5 view .LVU107
 634 02f2 00C0      		rjmp .L15
 635               	.LVL37:
 636               	.L27:
 101:../../tmk_core/protocol/lufa/lufa-abcminiuser/LUFA/Drivers/USB/Class/Common/HIDParser.c **** 				  return HID_PARSE_HIDStackUnderflow;
 637               		.loc 1 101 5 is_stmt 1 view .LVU108
 101:../../tmk_core/protocol/lufa/lufa-abcminiuser/LUFA/Drivers/USB/Class/Common/HIDParser.c **** 				  return HID_PARSE_HIDStackUnderflow;
 638               		.loc 1 101 8 is_stmt 0 view .LVU109
 639 02f4 CE01      		movw r24,r28
 640 02f6 0196      		adiw r24,1
 641 02f8 8A15      		cp r24,r10
 642 02fa 9B05      		cpc r25,r11
 643 02fc 01F4      		brne .+2
 644 02fe 00C0      		rjmp .L61
 104:../../tmk_core/protocol/lufa/lufa-abcminiuser/LUFA/Drivers/USB/Class/Common/HIDParser.c **** 				break;
 645               		.loc 1 104 5 is_stmt 1 view .LVU110
 104:../../tmk_core/protocol/lufa/lufa-abcminiuser/LUFA/Drivers/USB/Class/Common/HIDParser.c **** 				break;
 646               		.loc 1 104 19 is_stmt 0 view .LVU111
 647 0300 2CE1      		ldi r18,28
 648 0302 A21A      		sub r10,r18
 649 0304 B108      		sbc r11,__zero_reg__
 650               	.LVL38:
 105:../../tmk_core/protocol/lufa/lufa-abcminiuser/LUFA/Drivers/USB/Class/Common/HIDParser.c **** 
 651               		.loc 1 105 5 is_stmt 1 view .LVU112
 652 0306 00C0      		rjmp .L15
 653               	.L13:
 108:../../tmk_core/protocol/lufa/lufa-abcminiuser/LUFA/Drivers/USB/Class/Common/HIDParser.c **** 				break;
 654               		.loc 1 108 5 view .LVU113
 108:../../tmk_core/protocol/lufa/lufa-abcminiuser/LUFA/Drivers/USB/Class/Common/HIDParser.c **** 				break;
 655               		.loc 1 108 49 is_stmt 0 view .LVU114
 656 0308 D501      		movw r26,r10
 657 030a 1296      		adiw r26,1+1
 658 030c DC92      		st X,r13
 659 030e CE92      		st -X,r12
 660 0310 1197      		sbiw r26,1
 109:../../tmk_core/protocol/lufa/lufa-abcminiuser/LUFA/Drivers/USB/Class/Common/HIDParser.c **** 
 661               		.loc 1 109 5 is_stmt 1 view .LVU115
 662 0312 00C0      		rjmp .L15
 663               	.L11:
 112:../../tmk_core/protocol/lufa/lufa-abcminiuser/LUFA/Drivers/USB/Class/Common/HIDParser.c **** 				break;
 664               		.loc 1 112 5 view .LVU116
 112:../../tmk_core/protocol/lufa/lufa-abcminiuser/LUFA/Drivers/USB/Class/Common/HIDParser.c **** 				break;
 665               		.loc 1 112 49 is_stmt 0 view .LVU117
 666 0314 F501      		movw r30,r10
 667 0316 C286      		std Z+10,r12
 668 0318 D386      		std Z+11,r13
 669 031a E486      		std Z+12,r14
 670 031c F586      		std Z+13,r15
 113:../../tmk_core/protocol/lufa/lufa-abcminiuser/LUFA/Drivers/USB/Class/Common/HIDParser.c **** 
 671               		.loc 1 113 5 is_stmt 1 view .LVU118
 672 031e 00C0      		rjmp .L15
 673               	.L9:
 116:../../tmk_core/protocol/lufa/lufa-abcminiuser/LUFA/Drivers/USB/Class/Common/HIDParser.c **** 				break;
 674               		.loc 1 116 5 view .LVU119
 116:../../tmk_core/protocol/lufa/lufa-abcminiuser/LUFA/Drivers/USB/Class/Common/HIDParser.c **** 				break;
 675               		.loc 1 116 49 is_stmt 0 view .LVU120
 676 0320 D501      		movw r26,r10
 677 0322 1E96      		adiw r26,14
 678 0324 CD92      		st X+,r12
 679 0326 DD92      		st X+,r13
 680 0328 ED92      		st X+,r14
 681 032a FC92      		st X,r15
 682 032c 5197      		sbiw r26,14+3
 117:../../tmk_core/protocol/lufa/lufa-abcminiuser/LUFA/Drivers/USB/Class/Common/HIDParser.c **** 
 683               		.loc 1 117 5 is_stmt 1 view .LVU121
 684 032e 00C0      		rjmp .L15
 685               	.L16:
 124:../../tmk_core/protocol/lufa/lufa-abcminiuser/LUFA/Drivers/USB/Class/Common/HIDParser.c **** 				break;
 686               		.loc 1 124 5 view .LVU122
 124:../../tmk_core/protocol/lufa/lufa-abcminiuser/LUFA/Drivers/USB/Class/Common/HIDParser.c **** 				break;
 687               		.loc 1 124 49 is_stmt 0 view .LVU123
 688 0330 D501      		movw r26,r10
 689 0332 5696      		adiw r26,22
 690 0334 CD92      		st X+,r12
 691 0336 DD92      		st X+,r13
 692 0338 ED92      		st X+,r14
 693 033a FC92      		st X,r15
 694 033c 5997      		sbiw r26,22+3
 125:../../tmk_core/protocol/lufa/lufa-abcminiuser/LUFA/Drivers/USB/Class/Common/HIDParser.c **** 
 695               		.loc 1 125 5 is_stmt 1 view .LVU124
 696 033e 00C0      		rjmp .L15
 697               	.L7:
 132:../../tmk_core/protocol/lufa/lufa-abcminiuser/LUFA/Drivers/USB/Class/Common/HIDParser.c **** 				break;
 698               		.loc 1 132 5 view .LVU125
 132:../../tmk_core/protocol/lufa/lufa-abcminiuser/LUFA/Drivers/USB/Class/Common/HIDParser.c **** 				break;
 699               		.loc 1 132 49 is_stmt 0 view .LVU126
 700 0340 D501      		movw r26,r10
 701 0342 1596      		adiw r26,5
 702 0344 CD92      		st X+,r12
 703 0346 DD92      		st X+,r13
 704 0348 ED92      		st X+,r14
 705 034a FC92      		st X,r15
 706 034c 1897      		sbiw r26,5+3
 133:../../tmk_core/protocol/lufa/lufa-abcminiuser/LUFA/Drivers/USB/Class/Common/HIDParser.c **** 
 707               		.loc 1 133 5 is_stmt 1 view .LVU127
 708 034e 00C0      		rjmp .L15
 709               	.L24:
 136:../../tmk_core/protocol/lufa/lufa-abcminiuser/LUFA/Drivers/USB/Class/Common/HIDParser.c **** 				break;
 710               		.loc 1 136 5 view .LVU128
 136:../../tmk_core/protocol/lufa/lufa-abcminiuser/LUFA/Drivers/USB/Class/Common/HIDParser.c **** 				break;
 711               		.loc 1 136 49 is_stmt 0 view .LVU129
 712 0350 F501      		movw r30,r10
 713 0352 C082      		st Z,r12
 137:../../tmk_core/protocol/lufa/lufa-abcminiuser/LUFA/Drivers/USB/Class/Common/HIDParser.c **** 
 714               		.loc 1 137 5 is_stmt 1 view .LVU130
 715 0354 00C0      		rjmp .L15
 716               	.L22:
 144:../../tmk_core/protocol/lufa/lufa-abcminiuser/LUFA/Drivers/USB/Class/Common/HIDParser.c **** 
 717               		.loc 1 144 5 view .LVU131
 144:../../tmk_core/protocol/lufa/lufa-abcminiuser/LUFA/Drivers/USB/Class/Common/HIDParser.c **** 
 718               		.loc 1 144 49 is_stmt 0 view .LVU132
 719 0356 8C2D      		mov r24,r12
 720 0358 F501      		movw r30,r10
 721 035a C38E      		std Z+27,r12
 146:../../tmk_core/protocol/lufa/lufa-abcminiuser/LUFA/Drivers/USB/Class/Common/HIDParser.c **** 				{
 722               		.loc 1 146 5 is_stmt 1 view .LVU133
 146:../../tmk_core/protocol/lufa/lufa-abcminiuser/LUFA/Drivers/USB/Class/Common/HIDParser.c **** 				{
 723               		.loc 1 146 8 is_stmt 0 view .LVU134
 724 035c CB57      		subi r28,lo8(-133)
 725 035e DF4F      		sbci r29,hi8(-133)
 726 0360 A881      		ld r26,Y
 727 0362 B981      		ldd r27,Y+1
 728 0364 C558      		subi r28,lo8(133)
 729 0366 D040      		sbci r29,hi8(133)
 730 0368 9C91      		ld r25,X
 731 036a 9923      		tst r25
 732 036c 01F4      		brne .+2
 733 036e 00C0      		rjmp .L32
 734               	.LBB11:
 150:../../tmk_core/protocol/lufa/lufa-abcminiuser/LUFA/Drivers/USB/Class/Common/HIDParser.c **** 					{
 735               		.loc 1 150 40 view .LVU135
 736 0370 C158      		subi r28,lo8(-127)
 737 0372 DF4F      		sbci r29,hi8(-127)
 738 0374 E881      		ld r30,Y
 739 0376 F981      		ldd r31,Y+1
 740 0378 CF57      		subi r28,lo8(127)
 741 037a D040      		sbci r29,hi8(127)
 742 037c 9081      		ld r25,Z
 743 037e F401      		movw r30,r8
 744 0380 E057      		subi r30,112
 745 0382 FC4F      		sbci r31,-4
 746 0384 30E0      		ldi r19,0
 747 0386 20E0      		ldi r18,0
 748               	.L33:
 749               	.LVL39:
 150:../../tmk_core/protocol/lufa/lufa-abcminiuser/LUFA/Drivers/USB/Class/Common/HIDParser.c **** 					{
 750               		.loc 1 150 26 is_stmt 1 discriminator 1 view .LVU136
 150:../../tmk_core/protocol/lufa/lufa-abcminiuser/LUFA/Drivers/USB/Class/Common/HIDParser.c **** 					{
 751               		.loc 1 150 6 is_stmt 0 discriminator 1 view .LVU137
 752 0388 2917      		cp r18,r25
 753 038a 00F0      		brlo .L34
 754               	.LBE11:
 161:../../tmk_core/protocol/lufa/lufa-abcminiuser/LUFA/Drivers/USB/Class/Common/HIDParser.c **** 						  return HID_PARSE_InsufficientReportIDItems;
 755               		.loc 1 161 7 is_stmt 1 view .LVU138
 161:../../tmk_core/protocol/lufa/lufa-abcminiuser/LUFA/Drivers/USB/Class/Common/HIDParser.c **** 						  return HID_PARSE_InsufficientReportIDItems;
 756               		.loc 1 161 10 is_stmt 0 view .LVU139
 757 038c 9A30      		cpi r25,lo8(10)
 758 038e 01F4      		brne .+2
 759 0390 00C0      		rjmp .L63
 164:../../tmk_core/protocol/lufa/lufa-abcminiuser/LUFA/Drivers/USB/Class/Common/HIDParser.c **** 						memset(CurrReportIDInfo, 0x00, sizeof(HID_ReportSizeInfo_t));
 760               		.loc 1 164 7 is_stmt 1 view .LVU140
 164:../../tmk_core/protocol/lufa/lufa-abcminiuser/LUFA/Drivers/USB/Class/Common/HIDParser.c **** 						memset(CurrReportIDInfo, 0x00, sizeof(HID_ReportSizeInfo_t));
 761               		.loc 1 164 83 is_stmt 0 view .LVU141
 762 0392 81E0      		ldi r24,lo8(1)
 763 0394 890F      		add r24,r25
 764 0396 C158      		subi r28,lo8(-127)
 765 0398 DF4F      		sbci r29,hi8(-127)
 766 039a A881      		ld r26,Y
 767 039c B981      		ldd r27,Y+1
 768 039e CF57      		subi r28,lo8(127)
 769 03a0 D040      		sbci r29,hi8(127)
 770 03a2 8C93      		st X,r24
 164:../../tmk_core/protocol/lufa/lufa-abcminiuser/LUFA/Drivers/USB/Class/Common/HIDParser.c **** 						memset(CurrReportIDInfo, 0x00, sizeof(HID_ReportSizeInfo_t));
 771               		.loc 1 164 24 view .LVU142
 772 03a4 892F      		mov r24,r25
 773 03a6 90E0      		ldi r25,0
 774 03a8 67E0      		ldi r22,lo8(7)
 775 03aa 70E0      		ldi r23,0
 776 03ac 0E94 0000 		call __mulhi3
 777 03b0 8057      		subi r24,112
 778 03b2 9C4F      		sbci r25,-4
 779 03b4 F401      		movw r30,r8
 780 03b6 E80F      		add r30,r24
 781 03b8 F91F      		adc r31,r25
 782 03ba ED96      		adiw r28,123-62
 783 03bc FFAF      		std Y+63,r31
 784 03be EEAF      		std Y+62,r30
 785 03c0 ED97      		sbiw r28,123-62
 786               	.LVL40:
 165:../../tmk_core/protocol/lufa/lufa-abcminiuser/LUFA/Drivers/USB/Class/Common/HIDParser.c **** 					}
 787               		.loc 1 165 7 is_stmt 1 view .LVU143
 788 03c2 87E0      		ldi r24,lo8(7)
 789               		0:
 790 03c4 1192      		st Z+,__zero_reg__
 791 03c6 8A95      		dec r24
 792 03c8 01F4      		brne 0b
 793               	.LVL41:
 165:../../tmk_core/protocol/lufa/lufa-abcminiuser/LUFA/Drivers/USB/Class/Common/HIDParser.c **** 					}
 794               		.loc 1 165 7 is_stmt 0 view .LVU144
 795 03ca 00C0      		rjmp .L32
 796               	.L34:
 797               	.LBB12:
 152:../../tmk_core/protocol/lufa/lufa-abcminiuser/LUFA/Drivers/USB/Class/Common/HIDParser.c **** 						{
 798               		.loc 1 152 7 is_stmt 1 view .LVU145
 152:../../tmk_core/protocol/lufa/lufa-abcminiuser/LUFA/Drivers/USB/Class/Common/HIDParser.c **** 						{
 799               		.loc 1 152 39 is_stmt 0 view .LVU146
 800 03cc 6081      		ld r22,Z
 152:../../tmk_core/protocol/lufa/lufa-abcminiuser/LUFA/Drivers/USB/Class/Common/HIDParser.c **** 						{
 801               		.loc 1 152 10 view .LVU147
 802 03ce A901      		movw r20,r18
 803 03d0 4F5F      		subi r20,-1
 804 03d2 5F4F      		sbci r21,-1
 805 03d4 3796      		adiw r30,7
 806 03d6 8613      		cpse r24,r22
 807 03d8 00C0      		rjmp .L62
 154:../../tmk_core/protocol/lufa/lufa-abcminiuser/LUFA/Drivers/USB/Class/Common/HIDParser.c **** 							break;
 808               		.loc 1 154 8 is_stmt 1 view .LVU148
 154:../../tmk_core/protocol/lufa/lufa-abcminiuser/LUFA/Drivers/USB/Class/Common/HIDParser.c **** 							break;
 809               		.loc 1 154 25 is_stmt 0 view .LVU149
 810 03da C901      		movw r24,r18
 811 03dc 67E0      		ldi r22,lo8(7)
 812 03de 70E0      		ldi r23,0
 813 03e0 0E94 0000 		call __mulhi3
 814 03e4 8057      		subi r24,112
 815 03e6 9C4F      		sbci r25,-4
 816 03e8 9401      		movw r18,r8
 817               	.LVL42:
 154:../../tmk_core/protocol/lufa/lufa-abcminiuser/LUFA/Drivers/USB/Class/Common/HIDParser.c **** 							break;
 818               		.loc 1 154 25 view .LVU150
 819 03ea 280F      		add r18,r24
 820 03ec 391F      		adc r19,r25
 821 03ee ED96      		adiw r28,123-62
 822 03f0 3FAF      		std Y+63,r19
 823 03f2 2EAF      		std Y+62,r18
 824 03f4 ED97      		sbiw r28,123-62
 825               	.LVL43:
 155:../../tmk_core/protocol/lufa/lufa-abcminiuser/LUFA/Drivers/USB/Class/Common/HIDParser.c **** 						}
 826               		.loc 1 155 8 is_stmt 1 view .LVU151
 155:../../tmk_core/protocol/lufa/lufa-abcminiuser/LUFA/Drivers/USB/Class/Common/HIDParser.c **** 						}
 827               		.loc 1 155 8 is_stmt 0 view .LVU152
 828               	.LBE12:
 159:../../tmk_core/protocol/lufa/lufa-abcminiuser/LUFA/Drivers/USB/Class/Common/HIDParser.c **** 					{
 829               		.loc 1 159 6 is_stmt 1 view .LVU153
 830               	.L32:
 169:../../tmk_core/protocol/lufa/lufa-abcminiuser/LUFA/Drivers/USB/Class/Common/HIDParser.c **** 
 831               		.loc 1 169 5 view .LVU154
 169:../../tmk_core/protocol/lufa/lufa-abcminiuser/LUFA/Drivers/USB/Class/Common/HIDParser.c **** 
 832               		.loc 1 169 32 is_stmt 0 view .LVU155
 833 03f6 81E0      		ldi r24,lo8(1)
 834 03f8 CB57      		subi r28,lo8(-133)
 835 03fa DF4F      		sbci r29,hi8(-133)
 836 03fc A881      		ld r26,Y
 837 03fe B981      		ldd r27,Y+1
 838 0400 C558      		subi r28,lo8(133)
 839 0402 D040      		sbci r29,hi8(133)
 840 0404 8C93      		st X,r24
 171:../../tmk_core/protocol/lufa/lufa-abcminiuser/LUFA/Drivers/USB/Class/Common/HIDParser.c **** 				break;
 841               		.loc 1 171 5 is_stmt 1 view .LVU156
 171:../../tmk_core/protocol/lufa/lufa-abcminiuser/LUFA/Drivers/USB/Class/Common/HIDParser.c **** 				break;
 842               		.loc 1 171 48 is_stmt 0 view .LVU157
 843 0406 F501      		movw r30,r10
 844 0408 838D      		ldd r24,Z+27
 171:../../tmk_core/protocol/lufa/lufa-abcminiuser/LUFA/Drivers/USB/Class/Common/HIDParser.c **** 				break;
 845               		.loc 1 171 32 view .LVU158
 846 040a ED96      		adiw r28,123-62
 847 040c AEAD      		ldd r26,Y+62
 848 040e BFAD      		ldd r27,Y+63
 849 0410 ED97      		sbiw r28,123-62
 850               	.LVL44:
 171:../../tmk_core/protocol/lufa/lufa-abcminiuser/LUFA/Drivers/USB/Class/Common/HIDParser.c **** 				break;
 851               		.loc 1 171 32 view .LVU159
 852 0412 8C93      		st X,r24
 172:../../tmk_core/protocol/lufa/lufa-abcminiuser/LUFA/Drivers/USB/Class/Common/HIDParser.c **** 
 853               		.loc 1 172 5 is_stmt 1 view .LVU160
 854 0414 00C0      		rjmp .L15
 855               	.LVL45:
 856               	.L62:
 857               	.LBB13:
 172:../../tmk_core/protocol/lufa/lufa-abcminiuser/LUFA/Drivers/USB/Class/Common/HIDParser.c **** 
 858               		.loc 1 172 5 is_stmt 0 view .LVU161
 859 0416 9A01      		movw r18,r20
 860               	.LVL46:
 172:../../tmk_core/protocol/lufa/lufa-abcminiuser/LUFA/Drivers/USB/Class/Common/HIDParser.c **** 
 861               		.loc 1 172 5 view .LVU162
 862 0418 00C0      		rjmp .L33
 863               	.LVL47:
 864               	.L14:
 172:../../tmk_core/protocol/lufa/lufa-abcminiuser/LUFA/Drivers/USB/Class/Common/HIDParser.c **** 
 865               		.loc 1 172 5 view .LVU163
 866               	.LBE13:
 175:../../tmk_core/protocol/lufa/lufa-abcminiuser/LUFA/Drivers/USB/Class/Common/HIDParser.c **** 				  return HID_PARSE_UsageListOverflow;
 867               		.loc 1 175 5 is_stmt 1 view .LVU164
 175:../../tmk_core/protocol/lufa/lufa-abcminiuser/LUFA/Drivers/USB/Class/Common/HIDParser.c **** 				  return HID_PARSE_UsageListOverflow;
 868               		.loc 1 175 8 is_stmt 0 view .LVU165
 869 041a 0830      		cpi r16,lo8(8)
 870 041c 01F4      		brne .+2
 871 041e 00C0      		rjmp .L64
 178:../../tmk_core/protocol/lufa/lufa-abcminiuser/LUFA/Drivers/USB/Class/Common/HIDParser.c **** 				  CurrStateTable->Attributes.Usage.Page = (ReportItemData >> 16);
 872               		.loc 1 178 5 is_stmt 1 view .LVU166
 178:../../tmk_core/protocol/lufa/lufa-abcminiuser/LUFA/Drivers/USB/Class/Common/HIDParser.c **** 				  CurrStateTable->Attributes.Usage.Page = (ReportItemData >> 16);
 873               		.loc 1 178 8 is_stmt 0 view .LVU167
 874 0420 8330      		cpi r24,lo8(3)
 875 0422 01F4      		brne .L35
 179:../../tmk_core/protocol/lufa/lufa-abcminiuser/LUFA/Drivers/USB/Class/Common/HIDParser.c **** 
 876               		.loc 1 179 7 is_stmt 1 view .LVU168
 179:../../tmk_core/protocol/lufa/lufa-abcminiuser/LUFA/Drivers/USB/Class/Common/HIDParser.c **** 
 877               		.loc 1 179 45 is_stmt 0 view .LVU169
 878 0424 F501      		movw r30,r10
 879 0426 F282      		std Z+2,r15
 880 0428 E182      		std Z+1,r14
 881               	.L35:
 181:../../tmk_core/protocol/lufa/lufa-abcminiuser/LUFA/Drivers/USB/Class/Common/HIDParser.c **** 				break;
 882               		.loc 1 181 5 is_stmt 1 view .LVU170
 883               	.LVL48:
 181:../../tmk_core/protocol/lufa/lufa-abcminiuser/LUFA/Drivers/USB/Class/Common/HIDParser.c **** 				break;
 884               		.loc 1 181 28 is_stmt 0 view .LVU171
 885 042a E02F      		mov r30,r16
 886 042c F0E0      		ldi r31,0
 181:../../tmk_core/protocol/lufa/lufa-abcminiuser/LUFA/Drivers/USB/Class/Common/HIDParser.c **** 				break;
 887               		.loc 1 181 32 view .LVU172
 888 042e EE0F      		lsl r30
 889 0430 FF1F      		rol r31
 890 0432 23E6      		ldi r18,lo8(99)
 891 0434 30E0      		ldi r19,0
 892 0436 2C0F      		add r18,r28
 893 0438 3D1F      		adc r19,r29
 894 043a E20F      		add r30,r18
 895 043c F31F      		adc r31,r19
 896 043e D182      		std Z+1,r13
 897 0440 C082      		st Z,r12
 182:../../tmk_core/protocol/lufa/lufa-abcminiuser/LUFA/Drivers/USB/Class/Common/HIDParser.c **** 
 898               		.loc 1 182 5 is_stmt 1 view .LVU173
 181:../../tmk_core/protocol/lufa/lufa-abcminiuser/LUFA/Drivers/USB/Class/Common/HIDParser.c **** 				break;
 899               		.loc 1 181 28 is_stmt 0 view .LVU174
 900 0442 0F5F      		subi r16,lo8(-(1))
 901               	.LVL49:
 182:../../tmk_core/protocol/lufa/lufa-abcminiuser/LUFA/Drivers/USB/Class/Common/HIDParser.c **** 
 902               		.loc 1 182 5 view .LVU175
 903 0444 00C0      		rjmp .L15
 904               	.L20:
 193:../../tmk_core/protocol/lufa/lufa-abcminiuser/LUFA/Drivers/USB/Class/Common/HIDParser.c **** 				{
 905               		.loc 1 193 5 is_stmt 1 view .LVU176
 193:../../tmk_core/protocol/lufa/lufa-abcminiuser/LUFA/Drivers/USB/Class/Common/HIDParser.c **** 				{
 906               		.loc 1 193 8 is_stmt 0 view .LVU177
 907 0446 E596      		adiw r28,115-62
 908 0448 8EAD      		ldd r24,Y+62
 909 044a 9FAD      		ldd r25,Y+63
 910 044c E597      		sbiw r28,115-62
 911 044e 892B      		or r24,r25
 912 0450 01F4      		brne .L36
 195:../../tmk_core/protocol/lufa/lufa-abcminiuser/LUFA/Drivers/USB/Class/Common/HIDParser.c **** 				}
 913               		.loc 1 195 6 is_stmt 1 view .LVU178
 195:../../tmk_core/protocol/lufa/lufa-abcminiuser/LUFA/Drivers/USB/Class/Common/HIDParser.c **** 				}
 914               		.loc 1 195 25 is_stmt 0 view .LVU179
 915 0452 D401      		movw r26,r8
 916 0454 A75B      		subi r26,-73
 917 0456 BC4F      		sbci r27,-4
 918 0458 E596      		adiw r28,115-62
 919 045a BFAF      		std Y+63,r27
 920 045c AEAF      		std Y+62,r26
 921 045e E597      		sbiw r28,115-62
 922               	.LVL50:
 923               	.L37:
 214:../../tmk_core/protocol/lufa/lufa-abcminiuser/LUFA/Drivers/USB/Class/Common/HIDParser.c **** 				CurrCollectionPath->Usage.Page = CurrStateTable->Attributes.Usage.Page;
 924               		.loc 1 214 5 is_stmt 1 view .LVU180
 214:../../tmk_core/protocol/lufa/lufa-abcminiuser/LUFA/Drivers/USB/Class/Common/HIDParser.c **** 				CurrCollectionPath->Usage.Page = CurrStateTable->Attributes.Usage.Page;
 925               		.loc 1 214 36 is_stmt 0 view .LVU181
 926 0460 E596      		adiw r28,115-62
 927 0462 AEAD      		ldd r26,Y+62
 928 0464 BFAD      		ldd r27,Y+63
 929 0466 E597      		sbiw r28,115-62
 930               	.LVL51:
 214:../../tmk_core/protocol/lufa/lufa-abcminiuser/LUFA/Drivers/USB/Class/Common/HIDParser.c **** 				CurrCollectionPath->Usage.Page = CurrStateTable->Attributes.Usage.Page;
 931               		.loc 1 214 36 view .LVU182
 932 0468 CC92      		st X,r12
 215:../../tmk_core/protocol/lufa/lufa-abcminiuser/LUFA/Drivers/USB/Class/Common/HIDParser.c **** 
 933               		.loc 1 215 5 is_stmt 1 view .LVU183
 215:../../tmk_core/protocol/lufa/lufa-abcminiuser/LUFA/Drivers/USB/Class/Common/HIDParser.c **** 
 934               		.loc 1 215 70 is_stmt 0 view .LVU184
 935 046a F501      		movw r30,r10
 936 046c 8181      		ldd r24,Z+1
 937 046e 9281      		ldd r25,Z+2
 215:../../tmk_core/protocol/lufa/lufa-abcminiuser/LUFA/Drivers/USB/Class/Common/HIDParser.c **** 
 938               		.loc 1 215 36 view .LVU185
 939 0470 1296      		adiw r26,1+1
 940 0472 9C93      		st X,r25
 941 0474 8E93      		st -X,r24
 942 0476 1197      		sbiw r26,1
 217:../../tmk_core/protocol/lufa/lufa-abcminiuser/LUFA/Drivers/USB/Class/Common/HIDParser.c **** 				{
 943               		.loc 1 217 5 is_stmt 1 view .LVU186
 217:../../tmk_core/protocol/lufa/lufa-abcminiuser/LUFA/Drivers/USB/Class/Common/HIDParser.c **** 				{
 944               		.loc 1 217 8 is_stmt 0 view .LVU187
 945 0478 0023      		tst r16
 946 047a 01F0      		breq .L40
 219:../../tmk_core/protocol/lufa/lufa-abcminiuser/LUFA/Drivers/USB/Class/Common/HIDParser.c **** 
 947               		.loc 1 219 6 is_stmt 1 view .LVU188
 219:../../tmk_core/protocol/lufa/lufa-abcminiuser/LUFA/Drivers/USB/Class/Common/HIDParser.c **** 
 948               		.loc 1 219 38 is_stmt 0 view .LVU189
 949 047c A596      		adiw r28,99-62
 950 047e 8EAD      		ldd r24,Y+62
 951 0480 9FAD      		ldd r25,Y+63
 952 0482 A597      		sbiw r28,99-62
 953 0484 1496      		adiw r26,3+1
 954 0486 9C93      		st X,r25
 955 0488 8E93      		st -X,r24
 956 048a 1397      		sbiw r26,3
 221:../../tmk_core/protocol/lufa/lufa-abcminiuser/LUFA/Drivers/USB/Class/Common/HIDParser.c **** 					  UsageList[i - 1] = UsageList[i];
 957               		.loc 1 221 6 is_stmt 1 view .LVU190
 958               	.LBB14:
 221:../../tmk_core/protocol/lufa/lufa-abcminiuser/LUFA/Drivers/USB/Class/Common/HIDParser.c **** 					  UsageList[i - 1] = UsageList[i];
 959               		.loc 1 221 11 view .LVU191
 960               	.LVL52:
 222:../../tmk_core/protocol/lufa/lufa-abcminiuser/LUFA/Drivers/USB/Class/Common/HIDParser.c **** 
 961               		.loc 1 222 25 is_stmt 0 view .LVU192
 962 048c 0150      		subi r16,lo8(-(-1))
 963               	.LVL53:
 222:../../tmk_core/protocol/lufa/lufa-abcminiuser/LUFA/Drivers/USB/Class/Common/HIDParser.c **** 
 964               		.loc 1 222 25 view .LVU193
 965 048e 402F      		mov r20,r16
 966 0490 50E0      		ldi r21,0
 967 0492 440F      		lsl r20
 968 0494 551F      		rol r21
 969 0496 CF57      		subi r28,lo8(-129)
 970 0498 DF4F      		sbci r29,hi8(-129)
 971 049a 6881      		ld r22,Y
 972 049c 7981      		ldd r23,Y+1
 973 049e C158      		subi r28,lo8(129)
 974 04a0 D040      		sbci r29,hi8(129)
 975 04a2 CE01      		movw r24,r28
 976 04a4 8D59      		subi r24,-99
 977 04a6 9F4F      		sbci r25,-1
 978 04a8 0E94 0000 		call memmove
 979               	.LVL54:
 222:../../tmk_core/protocol/lufa/lufa-abcminiuser/LUFA/Drivers/USB/Class/Common/HIDParser.c **** 
 980               		.loc 1 222 25 view .LVU194
 981               	.LBE14:
 224:../../tmk_core/protocol/lufa/lufa-abcminiuser/LUFA/Drivers/USB/Class/Common/HIDParser.c **** 				}
 982               		.loc 1 224 6 is_stmt 1 view .LVU195
 224:../../tmk_core/protocol/lufa/lufa-abcminiuser/LUFA/Drivers/USB/Class/Common/HIDParser.c **** 				}
 983               		.loc 1 224 6 is_stmt 0 view .LVU196
 984 04ac 00C0      		rjmp .L15
 985               	.LVL55:
 986               	.L36:
 987               	.LBB15:
 199:../../tmk_core/protocol/lufa/lufa-abcminiuser/LUFA/Drivers/USB/Class/Common/HIDParser.c **** 
 988               		.loc 1 199 6 is_stmt 1 view .LVU197
 201:../../tmk_core/protocol/lufa/lufa-abcminiuser/LUFA/Drivers/USB/Class/Common/HIDParser.c **** 
 989               		.loc 1 201 6 view .LVU198
 201:../../tmk_core/protocol/lufa/lufa-abcminiuser/LUFA/Drivers/USB/Class/Common/HIDParser.c **** 
 990               		.loc 1 201 25 is_stmt 0 view .LVU199
 991 04ae F401      		movw r30,r8
 992 04b0 E05B      		subi r30,-80
 993 04b2 FC4F      		sbci r31,-4
 994               	.LVL56:
 203:../../tmk_core/protocol/lufa/lufa-abcminiuser/LUFA/Drivers/USB/Class/Common/HIDParser.c **** 					{
 995               		.loc 1 203 6 is_stmt 1 view .LVU200
 996 04b4 9401      		movw r18,r8
 997 04b6 2857      		subi r18,120
 998 04b8 3C4F      		sbci r19,-4
 999               	.L38:
 203:../../tmk_core/protocol/lufa/lufa-abcminiuser/LUFA/Drivers/USB/Class/Common/HIDParser.c **** 					{
 1000               		.loc 1 203 12 view .LVU201
 1001 04ba 8581      		ldd r24,Z+5
 1002 04bc 9681      		ldd r25,Z+6
 1003 04be 892B      		or r24,r25
 1004 04c0 01F4      		brne .L39
 211:../../tmk_core/protocol/lufa/lufa-abcminiuser/LUFA/Drivers/USB/Class/Common/HIDParser.c **** 				}
 1005               		.loc 1 211 6 view .LVU202
 211:../../tmk_core/protocol/lufa/lufa-abcminiuser/LUFA/Drivers/USB/Class/Common/HIDParser.c **** 				}
 1006               		.loc 1 211 33 is_stmt 0 view .LVU203
 1007 04c2 E596      		adiw r28,115-62
 1008 04c4 2EAD      		ldd r18,Y+62
 1009 04c6 3FAD      		ldd r19,Y+63
 1010 04c8 E597      		sbiw r28,115-62
 1011 04ca 3683      		std Z+6,r19
 1012 04cc 2583      		std Z+5,r18
 1013 04ce E596      		adiw r28,115-62
 1014 04d0 FFAF      		std Y+63,r31
 1015 04d2 EEAF      		std Y+62,r30
 1016 04d4 E597      		sbiw r28,115-62
 1017               	.LVL57:
 211:../../tmk_core/protocol/lufa/lufa-abcminiuser/LUFA/Drivers/USB/Class/Common/HIDParser.c **** 				}
 1018               		.loc 1 211 33 view .LVU204
 1019 04d6 00C0      		rjmp .L37
 1020               	.LVL58:
 1021               	.L39:
 205:../../tmk_core/protocol/lufa/lufa-abcminiuser/LUFA/Drivers/USB/Class/Common/HIDParser.c **** 						  return HID_PARSE_InsufficientCollectionPaths;
 1022               		.loc 1 205 7 is_stmt 1 view .LVU205
 205:../../tmk_core/protocol/lufa/lufa-abcminiuser/LUFA/Drivers/USB/Class/Common/HIDParser.c **** 						  return HID_PARSE_InsufficientCollectionPaths;
 1023               		.loc 1 205 10 is_stmt 0 view .LVU206
 1024 04d8 E217      		cp r30,r18
 1025 04da F307      		cpc r31,r19
 1026 04dc 01F4      		brne .+2
 1027 04de 00C0      		rjmp .L65
 208:../../tmk_core/protocol/lufa/lufa-abcminiuser/LUFA/Drivers/USB/Class/Common/HIDParser.c **** 					}
 1028               		.loc 1 208 7 is_stmt 1 view .LVU207
 208:../../tmk_core/protocol/lufa/lufa-abcminiuser/LUFA/Drivers/USB/Class/Common/HIDParser.c **** 					}
 1029               		.loc 1 208 25 is_stmt 0 view .LVU208
 1030 04e0 3796      		adiw r30,7
 1031               	.LVL59:
 208:../../tmk_core/protocol/lufa/lufa-abcminiuser/LUFA/Drivers/USB/Class/Common/HIDParser.c **** 					}
 1032               		.loc 1 208 25 view .LVU209
 1033 04e2 00C0      		rjmp .L38
 1034               	.LVL60:
 1035               	.L40:
 208:../../tmk_core/protocol/lufa/lufa-abcminiuser/LUFA/Drivers/USB/Class/Common/HIDParser.c **** 					}
 1036               		.loc 1 208 25 view .LVU210
 1037               	.LBE15:
 226:../../tmk_core/protocol/lufa/lufa-abcminiuser/LUFA/Drivers/USB/Class/Common/HIDParser.c **** 				{
 1038               		.loc 1 226 10 is_stmt 1 view .LVU211
 226:../../tmk_core/protocol/lufa/lufa-abcminiuser/LUFA/Drivers/USB/Class/Common/HIDParser.c **** 				{
 1039               		.loc 1 226 13 is_stmt 0 view .LVU212
 1040 04e4 EB96      		adiw r28,119-60
 1041 04e6 8CAD      		ldd r24,Y+60
 1042 04e8 9DAD      		ldd r25,Y+61
 1043 04ea AEAD      		ldd r26,Y+62
 1044 04ec BFAD      		ldd r27,Y+63
 1045 04ee EB97      		sbiw r28,119-60
 1046 04f0 8415      		cp r24,r4
 1047 04f2 9505      		cpc r25,r5
 1048 04f4 A605      		cpc r26,r6
 1049 04f6 B705      		cpc r27,r7
 1050 04f8 00F4      		brsh .+2
 1051 04fa 00C0      		rjmp .L15
 228:../../tmk_core/protocol/lufa/lufa-abcminiuser/LUFA/Drivers/USB/Class/Common/HIDParser.c **** 				}
 1052               		.loc 1 228 6 is_stmt 1 view .LVU213
 1053               	.LVL61:
 228:../../tmk_core/protocol/lufa/lufa-abcminiuser/LUFA/Drivers/USB/Class/Common/HIDParser.c **** 				}
 1054               		.loc 1 228 38 is_stmt 0 view .LVU214
 1055 04fc E596      		adiw r28,115-62
 1056 04fe AEAD      		ldd r26,Y+62
 1057 0500 BFAD      		ldd r27,Y+63
 1058 0502 E597      		sbiw r28,115-62
 1059               	.LVL62:
 228:../../tmk_core/protocol/lufa/lufa-abcminiuser/LUFA/Drivers/USB/Class/Common/HIDParser.c **** 				}
 1060               		.loc 1 228 38 view .LVU215
 1061 0504 1496      		adiw r26,3+1
 1062 0506 5C92      		st X,r5
 1063 0508 4E92      		st -X,r4
 1064 050a 1397      		sbiw r26,3
 228:../../tmk_core/protocol/lufa/lufa-abcminiuser/LUFA/Drivers/USB/Class/Common/HIDParser.c **** 				}
 1065               		.loc 1 228 59 view .LVU216
 1066 050c BFEF      		ldi r27,-1
 1067 050e 4B1A      		sub r4,r27
 1068 0510 5B0A      		sbc r5,r27
 1069 0512 6B0A      		sbc r6,r27
 1070 0514 7B0A      		sbc r7,r27
 1071               	.LVL63:
 228:../../tmk_core/protocol/lufa/lufa-abcminiuser/LUFA/Drivers/USB/Class/Common/HIDParser.c **** 				}
 1072               		.loc 1 228 59 view .LVU217
 1073 0516 00C0      		rjmp .L15
 1074               	.LVL64:
 1075               	.L41:
 1076               	.LBB16:
 1077               	.LBB8:
 264:../../tmk_core/protocol/lufa/lufa-abcminiuser/LUFA/Drivers/USB/Class/Common/HIDParser.c **** 					{
 1078               		.loc 1 264 11 is_stmt 1 view .LVU218
 264:../../tmk_core/protocol/lufa/lufa-abcminiuser/LUFA/Drivers/USB/Class/Common/HIDParser.c **** 					{
 1079               		.loc 1 264 14 is_stmt 0 view .LVU219
 1080 0518 EB96      		adiw r28,119-60
 1081 051a 8CAD      		ldd r24,Y+60
 1082 051c 9DAD      		ldd r25,Y+61
 1083 051e AEAD      		ldd r26,Y+62
 1084 0520 BFAD      		ldd r27,Y+63
 1085 0522 EB97      		sbiw r28,119-60
 1086 0524 8415      		cp r24,r4
 1087 0526 9505      		cpc r25,r5
 1088 0528 A605      		cpc r26,r6
 1089 052a B705      		cpc r27,r7
 1090 052c 00F4      		brsh .+2
 1091 052e 00C0      		rjmp .L42
 266:../../tmk_core/protocol/lufa/lufa-abcminiuser/LUFA/Drivers/USB/Class/Common/HIDParser.c **** 					}
 1092               		.loc 1 266 7 is_stmt 1 view .LVU220
 1093               	.LVL65:
 266:../../tmk_core/protocol/lufa/lufa-abcminiuser/LUFA/Drivers/USB/Class/Common/HIDParser.c **** 					}
 1094               		.loc 1 266 44 is_stmt 0 view .LVU221
 1095 0530 2696      		adiw r28,68-62
 1096 0532 5FAE      		std Y+63,r5
 1097 0534 4EAE      		std Y+62,r4
 1098 0536 2697      		sbiw r28,68-62
 266:../../tmk_core/protocol/lufa/lufa-abcminiuser/LUFA/Drivers/USB/Class/Common/HIDParser.c **** 					}
 1099               		.loc 1 266 65 view .LVU222
 1100 0538 9FEF      		ldi r25,-1
 1101 053a 491A      		sub r4,r25
 1102 053c 590A      		sbc r5,r25
 1103 053e 690A      		sbc r6,r25
 1104 0540 790A      		sbc r7,r25
 1105               	.LVL66:
 266:../../tmk_core/protocol/lufa/lufa-abcminiuser/LUFA/Drivers/USB/Class/Common/HIDParser.c **** 					}
 1106               		.loc 1 266 65 view .LVU223
 1107 0542 00C0      		rjmp .L42
 1108               	.LVL67:
 1109               	.L43:
 273:../../tmk_core/protocol/lufa/lufa-abcminiuser/LUFA/Drivers/USB/Class/Common/HIDParser.c **** 					  NewReportItem.ItemType = HID_REPORT_ITEM_Out;
 1110               		.loc 1 273 11 is_stmt 1 view .LVU224
 273:../../tmk_core/protocol/lufa/lufa-abcminiuser/LUFA/Drivers/USB/Class/Common/HIDParser.c **** 					  NewReportItem.ItemType = HID_REPORT_ITEM_Out;
 1111               		.loc 1 273 14 is_stmt 0 view .LVU225
 1112 0544 1039      		cpi r17,lo8(-112)
 1113 0546 01F4      		brne .L45
 274:../../tmk_core/protocol/lufa/lufa-abcminiuser/LUFA/Drivers/USB/Class/Common/HIDParser.c **** 					else
 1114               		.loc 1 274 8 is_stmt 1 view .LVU226
 274:../../tmk_core/protocol/lufa/lufa-abcminiuser/LUFA/Drivers/USB/Class/Common/HIDParser.c **** 					else
 1115               		.loc 1 274 31 is_stmt 0 view .LVU227
 1116 0548 A1E0      		ldi r26,lo8(1)
 1117 054a ABAF      		std Y+59,r26
 1118 054c 00C0      		rjmp .L44
 1119               	.L45:
 276:../../tmk_core/protocol/lufa/lufa-abcminiuser/LUFA/Drivers/USB/Class/Common/HIDParser.c **** 
 1120               		.loc 1 276 8 is_stmt 1 view .LVU228
 276:../../tmk_core/protocol/lufa/lufa-abcminiuser/LUFA/Drivers/USB/Class/Common/HIDParser.c **** 
 1121               		.loc 1 276 31 is_stmt 0 view .LVU229
 1122 054e B2E0      		ldi r27,lo8(2)
 1123 0550 BBAF      		std Y+59,r27
 1124 0552 00C0      		rjmp .L44
 1125               	.L47:
 287:../../tmk_core/protocol/lufa/lufa-abcminiuser/LUFA/Drivers/USB/Class/Common/HIDParser.c **** 					       &NewReportItem, sizeof(HID_ReportItem_t));
 1126               		.loc 1 287 6 is_stmt 1 view .LVU230
 1127 0554 90E0      		ldi r25,0
 1128 0556 6AE2      		ldi r22,lo8(42)
 1129 0558 70E0      		ldi r23,0
 1130 055a 0E94 0000 		call __mulhi3
 1131 055e A80F      		add r26,r24
 1132 0560 B91F      		adc r27,r25
 1133 0562 1196      		adiw r26,1
 1134 0564 8AE2      		ldi r24,lo8(42)
 1135 0566 FE01      		movw r30,r28
 1136 0568 F996      		adiw r30,57
 1137               		0:
 1138 056a 0190      		ld r0,Z+
 1139 056c 0D92      		st X+,r0
 1140 056e 8A95      		dec r24
 1141 0570 01F4      		brne 0b
 290:../../tmk_core/protocol/lufa/lufa-abcminiuser/LUFA/Drivers/USB/Class/Common/HIDParser.c **** 					  ParserData->TotalReportItems++;
 1142               		.loc 1 290 6 view .LVU231
 290:../../tmk_core/protocol/lufa/lufa-abcminiuser/LUFA/Drivers/USB/Class/Common/HIDParser.c **** 					  ParserData->TotalReportItems++;
 1143               		.loc 1 290 9 is_stmt 0 view .LVU232
 1144 0572 C957      		subi r28,lo8(-135)
 1145 0574 DF4F      		sbci r29,hi8(-135)
 1146 0576 8881      		ld r24,Y
 1147 0578 9981      		ldd r25,Y+1
 1148 057a AA81      		ldd r26,Y+2
 1149 057c BB81      		ldd r27,Y+3
 1150 057e C758      		subi r28,lo8(135)
 1151 0580 D040      		sbci r29,hi8(135)
 1152 0582 892B      		or r24,r25
 1153 0584 8A2B      		or r24,r26
 1154 0586 8B2B      		or r24,r27
 1155 0588 01F4      		brne .L49
 290:../../tmk_core/protocol/lufa/lufa-abcminiuser/LUFA/Drivers/USB/Class/Common/HIDParser.c **** 					  ParserData->TotalReportItems++;
 1156               		.loc 1 290 50 discriminator 1 view .LVU233
 1157 058a CE01      		movw r24,r28
 1158 058c C996      		adiw r24,57
 1159 058e 0E94 0000 		call CALLBACK_HIDParser_FilterHIDReportItem
 1160               	.LVL68:
 290:../../tmk_core/protocol/lufa/lufa-abcminiuser/LUFA/Drivers/USB/Class/Common/HIDParser.c **** 					  ParserData->TotalReportItems++;
 1161               		.loc 1 290 47 discriminator 1 view .LVU234
 1162 0592 8823      		tst r24
 1163 0594 01F0      		breq .L49
 291:../../tmk_core/protocol/lufa/lufa-abcminiuser/LUFA/Drivers/USB/Class/Common/HIDParser.c **** 				}
 1164               		.loc 1 291 8 is_stmt 1 view .LVU235
 291:../../tmk_core/protocol/lufa/lufa-abcminiuser/LUFA/Drivers/USB/Class/Common/HIDParser.c **** 				}
 1165               		.loc 1 291 36 is_stmt 0 view .LVU236
 1166 0596 D401      		movw r26,r8
 1167 0598 8C91      		ld r24,X
 1168 059a 8F5F      		subi r24,lo8(-(1))
 1169 059c 8C93      		st X,r24
 1170               	.L49:
 291:../../tmk_core/protocol/lufa/lufa-abcminiuser/LUFA/Drivers/USB/Class/Common/HIDParser.c **** 				}
 1171               		.loc 1 291 36 view .LVU237
 1172               	.LBE8:
 243:../../tmk_core/protocol/lufa/lufa-abcminiuser/LUFA/Drivers/USB/Class/Common/HIDParser.c **** 				{
 1173               		.loc 1 243 82 is_stmt 1 view .LVU238
 243:../../tmk_core/protocol/lufa/lufa-abcminiuser/LUFA/Drivers/USB/Class/Common/HIDParser.c **** 				{
 1174               		.loc 1 243 95 is_stmt 0 view .LVU239
 1175 059e EE96      		adiw r28,125-63
 1176 05a0 BFAD      		ldd r27,Y+63
 1177 05a2 EE97      		sbiw r28,125-63
 1178 05a4 BF5F      		subi r27,lo8(-(1))
 1179 05a6 EE96      		adiw r28,125-63
 1180 05a8 BFAF      		std Y+63,r27
 1181 05aa EE97      		sbiw r28,125-63
 1182               	.LVL69:
 1183               	.L51:
 243:../../tmk_core/protocol/lufa/lufa-abcminiuser/LUFA/Drivers/USB/Class/Common/HIDParser.c **** 				{
 1184               		.loc 1 243 37 is_stmt 1 discriminator 1 view .LVU240
 243:../../tmk_core/protocol/lufa/lufa-abcminiuser/LUFA/Drivers/USB/Class/Common/HIDParser.c **** 				{
 1185               		.loc 1 243 5 is_stmt 0 discriminator 1 view .LVU241
 1186 05ac D501      		movw r26,r10
 1187 05ae 5A96      		adiw r26,26
 1188 05b0 8C91      		ld r24,X
 1189 05b2 EE96      		adiw r28,125-63
 1190 05b4 BFAD      		ldd r27,Y+63
 1191 05b6 EE97      		sbiw r28,125-63
 1192 05b8 B817      		cp r27,r24
 1193 05ba 00F0      		brlo .+2
 1194 05bc 00C0      		rjmp .L15
 1195               	.LBB9:
 245:../../tmk_core/protocol/lufa/lufa-abcminiuser/LUFA/Drivers/USB/Class/Common/HIDParser.c **** 
 1196               		.loc 1 245 6 is_stmt 1 view .LVU242
 247:../../tmk_core/protocol/lufa/lufa-abcminiuser/LUFA/Drivers/USB/Class/Common/HIDParser.c **** 					       &CurrStateTable->Attributes,
 1197               		.loc 1 247 6 view .LVU243
 1198 05be 8AE1      		ldi r24,lo8(26)
 1199 05c0 F501      		movw r30,r10
 1200 05c2 DE01      		movw r26,r28
 1201 05c4 AF5B      		subi r26,-65
 1202 05c6 BF4F      		sbci r27,-1
 1203               		0:
 1204 05c8 0190      		ld r0,Z+
 1205 05ca 0D92      		st X+,r0
 1206 05cc 8A95      		dec r24
 1207 05ce 01F4      		brne 0b
 251:../../tmk_core/protocol/lufa/lufa-abcminiuser/LUFA/Drivers/USB/Class/Common/HIDParser.c **** 					NewReportItem.CollectionPath = CurrCollectionPath;
 1208               		.loc 1 251 6 view .LVU244
 251:../../tmk_core/protocol/lufa/lufa-abcminiuser/LUFA/Drivers/USB/Class/Common/HIDParser.c **** 					NewReportItem.CollectionPath = CurrCollectionPath;
 1209               		.loc 1 251 35 is_stmt 0 view .LVU245
 1210 05d0 DDAE      		std Y+61,r13
 1211 05d2 CCAE      		std Y+60,r12
 252:../../tmk_core/protocol/lufa/lufa-abcminiuser/LUFA/Drivers/USB/Class/Common/HIDParser.c **** 					NewReportItem.ReportID       = CurrStateTable->ReportID;
 1212               		.loc 1 252 6 is_stmt 1 view .LVU246
 252:../../tmk_core/protocol/lufa/lufa-abcminiuser/LUFA/Drivers/USB/Class/Common/HIDParser.c **** 					NewReportItem.ReportID       = CurrStateTable->ReportID;
 1213               		.loc 1 252 35 is_stmt 0 view .LVU247
 1214 05d4 E596      		adiw r28,115-62
 1215 05d6 8EAD      		ldd r24,Y+62
 1216 05d8 9FAD      		ldd r25,Y+63
 1217 05da E597      		sbiw r28,115-62
 1218 05dc 2196      		adiw r28,63-62
 1219 05de 9FAF      		std Y+63,r25
 1220 05e0 8EAF      		std Y+62,r24
 1221 05e2 2197      		sbiw r28,63-62
 253:../../tmk_core/protocol/lufa/lufa-abcminiuser/LUFA/Drivers/USB/Class/Common/HIDParser.c **** 
 1222               		.loc 1 253 6 is_stmt 1 view .LVU248
 253:../../tmk_core/protocol/lufa/lufa-abcminiuser/LUFA/Drivers/USB/Class/Common/HIDParser.c **** 
 1223               		.loc 1 253 35 is_stmt 0 view .LVU249
 1224 05e4 D501      		movw r26,r10
 1225 05e6 5B96      		adiw r26,27
 1226 05e8 8C91      		ld r24,X
 1227 05ea 8EAF      		std Y+62,r24
 255:../../tmk_core/protocol/lufa/lufa-abcminiuser/LUFA/Drivers/USB/Class/Common/HIDParser.c **** 					{
 1228               		.loc 1 255 6 is_stmt 1 view .LVU250
 255:../../tmk_core/protocol/lufa/lufa-abcminiuser/LUFA/Drivers/USB/Class/Common/HIDParser.c **** 					{
 1229               		.loc 1 255 9 is_stmt 0 view .LVU251
 1230 05ec 0023      		tst r16
 1231 05ee 01F4      		brne .+2
 1232 05f0 00C0      		rjmp .L41
 257:../../tmk_core/protocol/lufa/lufa-abcminiuser/LUFA/Drivers/USB/Class/Common/HIDParser.c **** 
 1233               		.loc 1 257 7 is_stmt 1 view .LVU252
 257:../../tmk_core/protocol/lufa/lufa-abcminiuser/LUFA/Drivers/USB/Class/Common/HIDParser.c **** 
 1234               		.loc 1 257 44 is_stmt 0 view .LVU253
 1235 05f2 A596      		adiw r28,99-62
 1236 05f4 8EAD      		ldd r24,Y+62
 1237 05f6 9FAD      		ldd r25,Y+63
 1238 05f8 A597      		sbiw r28,99-62
 1239 05fa 2696      		adiw r28,68-62
 1240 05fc 9FAF      		std Y+63,r25
 1241 05fe 8EAF      		std Y+62,r24
 1242 0600 2697      		sbiw r28,68-62
 259:../../tmk_core/protocol/lufa/lufa-abcminiuser/LUFA/Drivers/USB/Class/Common/HIDParser.c **** 						  UsageList[i - 1] = UsageList[i];
 1243               		.loc 1 259 7 is_stmt 1 view .LVU254
 1244               	.LBB6:
 259:../../tmk_core/protocol/lufa/lufa-abcminiuser/LUFA/Drivers/USB/Class/Common/HIDParser.c **** 						  UsageList[i - 1] = UsageList[i];
 1245               		.loc 1 259 12 view .LVU255
 1246               	.LVL70:
 260:../../tmk_core/protocol/lufa/lufa-abcminiuser/LUFA/Drivers/USB/Class/Common/HIDParser.c **** 
 1247               		.loc 1 260 26 is_stmt 0 view .LVU256
 1248 0602 0150      		subi r16,lo8(-(-1))
 1249               	.LVL71:
 260:../../tmk_core/protocol/lufa/lufa-abcminiuser/LUFA/Drivers/USB/Class/Common/HIDParser.c **** 
 1250               		.loc 1 260 26 view .LVU257
 1251 0604 402F      		mov r20,r16
 1252 0606 50E0      		ldi r21,0
 1253 0608 440F      		lsl r20
 1254 060a 551F      		rol r21
 1255 060c CF57      		subi r28,lo8(-129)
 1256 060e DF4F      		sbci r29,hi8(-129)
 1257 0610 6881      		ld r22,Y
 1258 0612 7981      		ldd r23,Y+1
 1259 0614 C158      		subi r28,lo8(129)
 1260 0616 D040      		sbci r29,hi8(129)
 1261 0618 CE01      		movw r24,r28
 1262 061a 8D59      		subi r24,-99
 1263 061c 9F4F      		sbci r25,-1
 1264 061e 0E94 0000 		call memmove
 1265               	.LVL72:
 260:../../tmk_core/protocol/lufa/lufa-abcminiuser/LUFA/Drivers/USB/Class/Common/HIDParser.c **** 
 1266               		.loc 1 260 26 view .LVU258
 1267               	.LBE6:
 262:../../tmk_core/protocol/lufa/lufa-abcminiuser/LUFA/Drivers/USB/Class/Common/HIDParser.c **** 					}
 1268               		.loc 1 262 7 is_stmt 1 view .LVU259
 1269               	.L42:
 269:../../tmk_core/protocol/lufa/lufa-abcminiuser/LUFA/Drivers/USB/Class/Common/HIDParser.c **** 
 1270               		.loc 1 269 6 view .LVU260
 271:../../tmk_core/protocol/lufa/lufa-abcminiuser/LUFA/Drivers/USB/Class/Common/HIDParser.c **** 					  NewReportItem.ItemType = HID_REPORT_ITEM_In;
 1271               		.loc 1 271 6 view .LVU261
 271:../../tmk_core/protocol/lufa/lufa-abcminiuser/LUFA/Drivers/USB/Class/Common/HIDParser.c **** 					  NewReportItem.ItemType = HID_REPORT_ITEM_In;
 1272               		.loc 1 271 9 is_stmt 0 view .LVU262
 1273 0622 1038      		cpi r17,lo8(-128)
 1274 0624 01F0      		breq .+2
 1275 0626 00C0      		rjmp .L43
 272:../../tmk_core/protocol/lufa/lufa-abcminiuser/LUFA/Drivers/USB/Class/Common/HIDParser.c **** 					else if (ItemTypeTag == HID_RI_OUTPUT(0))
 1276               		.loc 1 272 8 is_stmt 1 view .LVU263
 272:../../tmk_core/protocol/lufa/lufa-abcminiuser/LUFA/Drivers/USB/Class/Common/HIDParser.c **** 					else if (ItemTypeTag == HID_RI_OUTPUT(0))
 1277               		.loc 1 272 31 is_stmt 0 view .LVU264
 1278 0628 1BAE      		std Y+59,__zero_reg__
 1279               	.L44:
 278:../../tmk_core/protocol/lufa/lufa-abcminiuser/LUFA/Drivers/USB/Class/Common/HIDParser.c **** 
 1280               		.loc 1 278 6 is_stmt 1 view .LVU265
 278:../../tmk_core/protocol/lufa/lufa-abcminiuser/LUFA/Drivers/USB/Class/Common/HIDParser.c **** 
 1281               		.loc 1 278 78 is_stmt 0 view .LVU266
 1282 062a EBAD      		ldd r30,Y+59
 1283 062c F0E0      		ldi r31,0
 278:../../tmk_core/protocol/lufa/lufa-abcminiuser/LUFA/Drivers/USB/Class/Common/HIDParser.c **** 
 1284               		.loc 1 278 64 view .LVU267
 1285 062e EE0F      		lsl r30
 1286 0630 FF1F      		rol r31
 1287 0632 ED96      		adiw r28,123-62
 1288 0634 2EAD      		ldd r18,Y+62
 1289 0636 3FAD      		ldd r19,Y+63
 1290 0638 ED97      		sbiw r28,123-62
 1291 063a E20F      		add r30,r18
 1292 063c F31F      		adc r31,r19
 1293 063e 8181      		ldd r24,Z+1
 1294 0640 9281      		ldd r25,Z+2
 278:../../tmk_core/protocol/lufa/lufa-abcminiuser/LUFA/Drivers/USB/Class/Common/HIDParser.c **** 
 1295               		.loc 1 278 30 view .LVU268
 1296 0642 9AAF      		std Y+58,r25
 1297 0644 89AF      		std Y+57,r24
 280:../../tmk_core/protocol/lufa/lufa-abcminiuser/LUFA/Drivers/USB/Class/Common/HIDParser.c **** 
 1298               		.loc 1 280 6 is_stmt 1 view .LVU269
 280:../../tmk_core/protocol/lufa/lufa-abcminiuser/LUFA/Drivers/USB/Class/Common/HIDParser.c **** 
 1299               		.loc 1 280 92 is_stmt 0 view .LVU270
 1300 0646 D501      		movw r26,r10
 1301 0648 2C91      		ld r18,X
 280:../../tmk_core/protocol/lufa/lufa-abcminiuser/LUFA/Drivers/USB/Class/Common/HIDParser.c **** 
 1302               		.loc 1 280 63 view .LVU271
 1303 064a 8181      		ldd r24,Z+1
 1304 064c 9281      		ldd r25,Z+2
 1305 064e 820F      		add r24,r18
 1306 0650 911D      		adc r25,__zero_reg__
 1307 0652 9283      		std Z+2,r25
 1308 0654 8183      		std Z+1,r24
 282:../../tmk_core/protocol/lufa/lufa-abcminiuser/LUFA/Drivers/USB/Class/Common/HIDParser.c **** 
 1309               		.loc 1 282 6 is_stmt 1 view .LVU272
 282:../../tmk_core/protocol/lufa/lufa-abcminiuser/LUFA/Drivers/USB/Class/Common/HIDParser.c **** 
 1310               		.loc 1 282 42 is_stmt 0 view .LVU273
 1311 0656 EBAD      		ldd r30,Y+59
 1312 0658 F0E0      		ldi r31,0
 1313 065a EE0F      		lsl r30
 1314 065c FF1F      		rol r31
 1315 065e ED96      		adiw r28,123-62
 1316 0660 2EAD      		ldd r18,Y+62
 1317 0662 3FAD      		ldd r19,Y+63
 1318 0664 ED97      		sbiw r28,123-62
 1319 0666 E20F      		add r30,r18
 1320 0668 F31F      		adc r31,r19
 1321 066a CD57      		subi r28,lo8(-131)
 1322 066c DF4F      		sbci r29,hi8(-131)
 1323 066e A881      		ld r26,Y
 1324 0670 B981      		ldd r27,Y+1
 1325 0672 C358      		subi r28,lo8(131)
 1326 0674 D040      		sbci r29,hi8(131)
 1327 0676 2D91      		ld r18,X+
 1328 0678 3C91      		ld r19,X
 1329 067a 8181      		ldd r24,Z+1
 1330 067c 9281      		ldd r25,Z+2
 1331 067e 8217      		cp r24,r18
 1332 0680 9307      		cpc r25,r19
 1333 0682 00F4      		brsh .L46
 1334 0684 C901      		movw r24,r18
 1335               	.L46:
 282:../../tmk_core/protocol/lufa/lufa-abcminiuser/LUFA/Drivers/USB/Class/Common/HIDParser.c **** 
 1336               		.loc 1 282 40 view .LVU274
 1337 0686 CD57      		subi r28,lo8(-131)
 1338 0688 DF4F      		sbci r29,hi8(-131)
 1339 068a E881      		ld r30,Y
 1340 068c F981      		ldd r31,Y+1
 1341 068e C358      		subi r28,lo8(131)
 1342 0690 D040      		sbci r29,hi8(131)
 1343 0692 9183      		std Z+1,r25
 1344 0694 8083      		st Z,r24
 284:../../tmk_core/protocol/lufa/lufa-abcminiuser/LUFA/Drivers/USB/Class/Common/HIDParser.c **** 					  return HID_PARSE_InsufficientReportItems;
 1345               		.loc 1 284 6 is_stmt 1 view .LVU275
 284:../../tmk_core/protocol/lufa/lufa-abcminiuser/LUFA/Drivers/USB/Class/Common/HIDParser.c **** 					  return HID_PARSE_InsufficientReportItems;
 1346               		.loc 1 284 20 is_stmt 0 view .LVU276
 1347 0696 D401      		movw r26,r8
 1348 0698 8C91      		ld r24,X
 284:../../tmk_core/protocol/lufa/lufa-abcminiuser/LUFA/Drivers/USB/Class/Common/HIDParser.c **** 					  return HID_PARSE_InsufficientReportItems;
 1349               		.loc 1 284 9 view .LVU277
 1350 069a 8431      		cpi r24,lo8(20)
 1351 069c 01F0      		breq .+2
 1352 069e 00C0      		rjmp .L47
 285:../../tmk_core/protocol/lufa/lufa-abcminiuser/LUFA/Drivers/USB/Class/Common/HIDParser.c **** 
 1353               		.loc 1 285 8 is_stmt 1 view .LVU278
 285:../../tmk_core/protocol/lufa/lufa-abcminiuser/LUFA/Drivers/USB/Class/Common/HIDParser.c **** 
 1354               		.loc 1 285 15 is_stmt 0 view .LVU279
 1355 06a0 83E0      		ldi r24,lo8(3)
 1356               	.LVL73:
 1357               	.L1:
 1358               	/* epilogue start */
 285:../../tmk_core/protocol/lufa/lufa-abcminiuser/LUFA/Drivers/USB/Class/Common/HIDParser.c **** 
 1359               		.loc 1 285 15 view .LVU280
 1360               	.LBE9:
 1361               	.LBE16:
 1362               	.LBE18:
 310:../../tmk_core/protocol/lufa/lufa-abcminiuser/LUFA/Drivers/USB/Class/Common/HIDParser.c **** 
 311:../../tmk_core/protocol/lufa/lufa-abcminiuser/LUFA/Drivers/USB/Class/Common/HIDParser.c **** 	return HID_PARSE_Successful;
 312:../../tmk_core/protocol/lufa/lufa-abcminiuser/LUFA/Drivers/USB/Class/Common/HIDParser.c **** }
 1363               		.loc 1 312 1 view .LVU281
 1364 06a2 C657      		subi r28,118
 1365 06a4 DF4F      		sbci r29,-1
 1366 06a6 0FB6      		in __tmp_reg__,__SREG__
 1367 06a8 F894      		cli
 1368 06aa DEBF      		out __SP_H__,r29
 1369 06ac 0FBE      		out __SREG__,__tmp_reg__
 1370 06ae CDBF      		out __SP_L__,r28
 1371 06b0 DF91      		pop r29
 1372 06b2 CF91      		pop r28
 1373 06b4 1F91      		pop r17
 1374 06b6 0F91      		pop r16
 1375               	.LVL74:
 1376               		.loc 1 312 1 view .LVU282
 1377 06b8 FF90      		pop r15
 1378 06ba EF90      		pop r14
 1379 06bc DF90      		pop r13
 1380 06be CF90      		pop r12
 1381 06c0 BF90      		pop r11
 1382 06c2 AF90      		pop r10
 1383               	.LVL75:
 1384               		.loc 1 312 1 view .LVU283
 1385 06c4 9F90      		pop r9
 1386 06c6 8F90      		pop r8
 1387               	.LVL76:
 1388               		.loc 1 312 1 view .LVU284
 1389 06c8 7F90      		pop r7
 1390 06ca 6F90      		pop r6
 1391 06cc 5F90      		pop r5
 1392 06ce 4F90      		pop r4
 1393               	.LVL77:
 1394               		.loc 1 312 1 view .LVU285
 1395 06d0 3F90      		pop r3
 1396 06d2 2F90      		pop r2
 1397               	.LVL78:
 1398               		.loc 1 312 1 view .LVU286
 1399 06d4 0895      		ret
 1400               	.LVL79:
 1401               	.L56:
 1402               	.LBB19:
 189:../../tmk_core/protocol/lufa/lufa-abcminiuser/LUFA/Drivers/USB/Class/Common/HIDParser.c **** 				break;
 1403               		.loc 1 189 25 view .LVU287
 1404 06d6 EB96      		adiw r28,119-60
 1405 06d8 CCAE      		std Y+60,r12
 1406 06da DDAE      		std Y+61,r13
 1407 06dc EEAE      		std Y+62,r14
 1408 06de FFAE      		std Y+63,r15
 1409 06e0 EB97      		sbiw r28,119-60
 189:../../tmk_core/protocol/lufa/lufa-abcminiuser/LUFA/Drivers/USB/Class/Common/HIDParser.c **** 				break;
 1410               		.loc 1 189 25 view .LVU288
 1411 06e2 00C0      		rjmp .L15
 1412               	.L60:
  91:../../tmk_core/protocol/lufa/lufa-abcminiuser/LUFA/Drivers/USB/Class/Common/HIDParser.c **** 
 1413               		.loc 1 91 14 view .LVU289
 1414 06e4 81E0      		ldi r24,lo8(1)
 1415 06e6 00C0      		rjmp .L1
 1416               	.L61:
 102:../../tmk_core/protocol/lufa/lufa-abcminiuser/LUFA/Drivers/USB/Class/Common/HIDParser.c **** 
 1417               		.loc 1 102 14 view .LVU290
 1418 06e8 82E0      		ldi r24,lo8(2)
 1419 06ea 00C0      		rjmp .L1
 1420               	.LVL80:
 1421               	.L63:
 162:../../tmk_core/protocol/lufa/lufa-abcminiuser/LUFA/Drivers/USB/Class/Common/HIDParser.c **** 
 1422               		.loc 1 162 16 view .LVU291
 1423 06ec 87E0      		ldi r24,lo8(7)
 1424 06ee 00C0      		rjmp .L1
 1425               	.LVL81:
 1426               	.L64:
 176:../../tmk_core/protocol/lufa/lufa-abcminiuser/LUFA/Drivers/USB/Class/Common/HIDParser.c **** 
 1427               		.loc 1 176 14 view .LVU292
 1428 06f0 86E0      		ldi r24,lo8(6)
 1429 06f2 00C0      		rjmp .L1
 1430               	.LVL82:
 1431               	.L65:
 1432               	.LBB17:
 206:../../tmk_core/protocol/lufa/lufa-abcminiuser/LUFA/Drivers/USB/Class/Common/HIDParser.c **** 
 1433               		.loc 1 206 16 view .LVU293
 1434 06f4 85E0      		ldi r24,lo8(5)
 1435 06f6 00C0      		rjmp .L1
 1436               	.LVL83:
 1437               	.L66:
 206:../../tmk_core/protocol/lufa/lufa-abcminiuser/LUFA/Drivers/USB/Class/Common/HIDParser.c **** 
 1438               		.loc 1 206 16 view .LVU294
 1439               	.LBE17:
 235:../../tmk_core/protocol/lufa/lufa-abcminiuser/LUFA/Drivers/USB/Class/Common/HIDParser.c **** 
 1440               		.loc 1 235 14 view .LVU295
 1441 06f8 84E0      		ldi r24,lo8(4)
 1442 06fa 00C0      		rjmp .L1
 1443               	.LVL84:
 1444               	.L67:
 235:../../tmk_core/protocol/lufa/lufa-abcminiuser/LUFA/Drivers/USB/Class/Common/HIDParser.c **** 
 1445               		.loc 1 235 14 view .LVU296
 1446               	.LBE19:
 311:../../tmk_core/protocol/lufa/lufa-abcminiuser/LUFA/Drivers/USB/Class/Common/HIDParser.c **** }
 1447               		.loc 1 311 9 view .LVU297
 1448 06fc 80E0      		ldi r24,0
 1449 06fe 00C0      		rjmp .L1
 1450               		.cfi_endproc
 1451               	.LFE16:
 1453               		.section	.text.USB_GetHIDReportItemInfo,"ax",@progbits
 1454               	.global	USB_GetHIDReportItemInfo
 1456               	USB_GetHIDReportItemInfo:
 1457               	.LVL85:
 1458               	.LFB17:
 313:../../tmk_core/protocol/lufa/lufa-abcminiuser/LUFA/Drivers/USB/Class/Common/HIDParser.c **** 
 314:../../tmk_core/protocol/lufa/lufa-abcminiuser/LUFA/Drivers/USB/Class/Common/HIDParser.c **** bool USB_GetHIDReportItemInfo(const uint8_t* ReportData,
 315:../../tmk_core/protocol/lufa/lufa-abcminiuser/LUFA/Drivers/USB/Class/Common/HIDParser.c ****                               HID_ReportItem_t* const ReportItem)
 316:../../tmk_core/protocol/lufa/lufa-abcminiuser/LUFA/Drivers/USB/Class/Common/HIDParser.c **** {
 1459               		.loc 1 316 1 is_stmt 1 view -0
 1460               		.cfi_startproc
 1461               		.loc 1 316 1 is_stmt 0 view .LVU299
 1462 0000 CF92      		push r12
 1463               	.LCFI20:
 1464               		.cfi_def_cfa_offset 3
 1465               		.cfi_offset 12, -2
 1466 0002 DF92      		push r13
 1467               	.LCFI21:
 1468               		.cfi_def_cfa_offset 4
 1469               		.cfi_offset 13, -3
 1470 0004 EF92      		push r14
 1471               	.LCFI22:
 1472               		.cfi_def_cfa_offset 5
 1473               		.cfi_offset 14, -4
 1474 0006 FF92      		push r15
 1475               	.LCFI23:
 1476               		.cfi_def_cfa_offset 6
 1477               		.cfi_offset 15, -5
 1478 0008 CF93      		push r28
 1479               	.LCFI24:
 1480               		.cfi_def_cfa_offset 7
 1481               		.cfi_offset 28, -6
 1482 000a DF93      		push r29
 1483               	.LCFI25:
 1484               		.cfi_def_cfa_offset 8
 1485               		.cfi_offset 29, -7
 1486               	/* prologue: function */
 1487               	/* frame size = 0 */
 1488               	/* stack size = 6 */
 1489               	.L__stack_usage = 6
 1490 000c DC01      		movw r26,r24
 1491 000e FB01      		movw r30,r22
 317:../../tmk_core/protocol/lufa/lufa-abcminiuser/LUFA/Drivers/USB/Class/Common/HIDParser.c **** 	if (ReportItem == NULL)
 1492               		.loc 1 317 2 is_stmt 1 view .LVU300
 1493               		.loc 1 317 5 is_stmt 0 view .LVU301
 1494 0010 3097      		sbiw r30,0
 1495 0012 01F4      		brne .+2
 1496 0014 00C0      		rjmp .L81
 318:../../tmk_core/protocol/lufa/lufa-abcminiuser/LUFA/Drivers/USB/Class/Common/HIDParser.c **** 	  return false;
 319:../../tmk_core/protocol/lufa/lufa-abcminiuser/LUFA/Drivers/USB/Class/Common/HIDParser.c **** 
 320:../../tmk_core/protocol/lufa/lufa-abcminiuser/LUFA/Drivers/USB/Class/Common/HIDParser.c **** 	uint16_t DataBitsRem  = ReportItem->Attributes.BitSize;
 1497               		.loc 1 320 2 is_stmt 1 view .LVU302
 1498               		.loc 1 320 11 is_stmt 0 view .LVU303
 1499 0016 2085      		ldd r18,Z+8
 1500 0018 30E0      		ldi r19,0
 1501               	.LVL86:
 321:../../tmk_core/protocol/lufa/lufa-abcminiuser/LUFA/Drivers/USB/Class/Common/HIDParser.c **** 	uint16_t CurrentBit   = ReportItem->BitOffset;
 1502               		.loc 1 321 2 is_stmt 1 view .LVU304
 322:../../tmk_core/protocol/lufa/lufa-abcminiuser/LUFA/Drivers/USB/Class/Common/HIDParser.c **** 	uint32_t BitMask      = (1 << 0);
 1503               		.loc 1 322 2 view .LVU305
 323:../../tmk_core/protocol/lufa/lufa-abcminiuser/LUFA/Drivers/USB/Class/Common/HIDParser.c **** 
 324:../../tmk_core/protocol/lufa/lufa-abcminiuser/LUFA/Drivers/USB/Class/Common/HIDParser.c **** 	if (ReportItem->ReportID)
 1504               		.loc 1 324 2 view .LVU306
 1505               		.loc 1 324 16 is_stmt 0 view .LVU307
 1506 001a 8581      		ldd r24,Z+5
 1507               	.LVL87:
 1508               		.loc 1 324 5 view .LVU308
 1509 001c 8823      		tst r24
 1510 001e 01F0      		breq .L76
 325:../../tmk_core/protocol/lufa/lufa-abcminiuser/LUFA/Drivers/USB/Class/Common/HIDParser.c **** 	{
 326:../../tmk_core/protocol/lufa/lufa-abcminiuser/LUFA/Drivers/USB/Class/Common/HIDParser.c **** 		if (ReportItem->ReportID != ReportData[0])
 1511               		.loc 1 326 3 is_stmt 1 view .LVU309
 1512               		.loc 1 326 6 is_stmt 0 view .LVU310
 1513 0020 9C91      		ld r25,X
 1514 0022 8913      		cpse r24,r25
 1515 0024 00C0      		rjmp .L81
 327:../../tmk_core/protocol/lufa/lufa-abcminiuser/LUFA/Drivers/USB/Class/Common/HIDParser.c **** 		  return false;
 328:../../tmk_core/protocol/lufa/lufa-abcminiuser/LUFA/Drivers/USB/Class/Common/HIDParser.c **** 
 329:../../tmk_core/protocol/lufa/lufa-abcminiuser/LUFA/Drivers/USB/Class/Common/HIDParser.c **** 		ReportData++;
 1516               		.loc 1 329 3 is_stmt 1 view .LVU311
 1517               		.loc 1 329 13 is_stmt 0 view .LVU312
 1518 0026 1196      		adiw r26,1
 1519               	.LVL88:
 1520               	.L76:
 321:../../tmk_core/protocol/lufa/lufa-abcminiuser/LUFA/Drivers/USB/Class/Common/HIDParser.c **** 	uint32_t BitMask      = (1 << 0);
 1521               		.loc 1 321 11 view .LVU313
 1522 0028 8081      		ld r24,Z
 1523 002a 9181      		ldd r25,Z+1
 330:../../tmk_core/protocol/lufa/lufa-abcminiuser/LUFA/Drivers/USB/Class/Common/HIDParser.c **** 	}
 331:../../tmk_core/protocol/lufa/lufa-abcminiuser/LUFA/Drivers/USB/Class/Common/HIDParser.c **** 
 332:../../tmk_core/protocol/lufa/lufa-abcminiuser/LUFA/Drivers/USB/Class/Common/HIDParser.c **** 	ReportItem->PreviousValue = ReportItem->Value;
 1524               		.loc 1 332 2 is_stmt 1 view .LVU314
 1525               		.loc 1 332 28 is_stmt 0 view .LVU315
 1526 002c 42A1      		ldd r20,Z+34
 1527 002e 53A1      		ldd r21,Z+35
 1528 0030 64A1      		ldd r22,Z+36
 1529 0032 75A1      		ldd r23,Z+37
 1530 0034 46A3      		std Z+38,r20
 1531 0036 57A3      		std Z+39,r21
 1532 0038 60A7      		std Z+40,r22
 1533 003a 71A7      		std Z+41,r23
 333:../../tmk_core/protocol/lufa/lufa-abcminiuser/LUFA/Drivers/USB/Class/Common/HIDParser.c **** 	ReportItem->Value = 0;
 1534               		.loc 1 333 2 is_stmt 1 view .LVU316
 1535               		.loc 1 333 20 is_stmt 0 view .LVU317
 1536 003c 12A2      		std Z+34,__zero_reg__
 1537 003e 13A2      		std Z+35,__zero_reg__
 1538 0040 14A2      		std Z+36,__zero_reg__
 1539 0042 15A2      		std Z+37,__zero_reg__
 334:../../tmk_core/protocol/lufa/lufa-abcminiuser/LUFA/Drivers/USB/Class/Common/HIDParser.c **** 
 335:../../tmk_core/protocol/lufa/lufa-abcminiuser/LUFA/Drivers/USB/Class/Common/HIDParser.c **** 	while (DataBitsRem--)
 1540               		.loc 1 335 2 is_stmt 1 view .LVU318
 1541 0044 280F      		add r18,r24
 1542 0046 391F      		adc r19,r25
 1543               	.LVL89:
 322:../../tmk_core/protocol/lufa/lufa-abcminiuser/LUFA/Drivers/USB/Class/Common/HIDParser.c **** 
 1544               		.loc 1 322 11 is_stmt 0 view .LVU319
 1545 0048 C12C      		mov r12,__zero_reg__
 1546 004a D12C      		mov r13,__zero_reg__
 1547 004c 7601      		movw r14,r12
 1548 004e C394      		inc r12
 1549               	.LVL90:
 1550               	.L77:
 1551               		.loc 1 335 8 is_stmt 1 view .LVU320
 1552               		.loc 1 335 8 is_stmt 0 view .LVU321
 1553 0050 8217      		cp r24,r18
 1554 0052 9307      		cpc r25,r19
 1555 0054 01F4      		brne .L79
 336:../../tmk_core/protocol/lufa/lufa-abcminiuser/LUFA/Drivers/USB/Class/Common/HIDParser.c **** 	{
 337:../../tmk_core/protocol/lufa/lufa-abcminiuser/LUFA/Drivers/USB/Class/Common/HIDParser.c **** 		if (ReportData[CurrentBit / 8] & (1 << (CurrentBit % 8)))
 338:../../tmk_core/protocol/lufa/lufa-abcminiuser/LUFA/Drivers/USB/Class/Common/HIDParser.c **** 		  ReportItem->Value |= BitMask;
 339:../../tmk_core/protocol/lufa/lufa-abcminiuser/LUFA/Drivers/USB/Class/Common/HIDParser.c **** 
 340:../../tmk_core/protocol/lufa/lufa-abcminiuser/LUFA/Drivers/USB/Class/Common/HIDParser.c **** 		CurrentBit++;
 341:../../tmk_core/protocol/lufa/lufa-abcminiuser/LUFA/Drivers/USB/Class/Common/HIDParser.c **** 		BitMask <<= 1;
 342:../../tmk_core/protocol/lufa/lufa-abcminiuser/LUFA/Drivers/USB/Class/Common/HIDParser.c **** 	}
 343:../../tmk_core/protocol/lufa/lufa-abcminiuser/LUFA/Drivers/USB/Class/Common/HIDParser.c **** 
 344:../../tmk_core/protocol/lufa/lufa-abcminiuser/LUFA/Drivers/USB/Class/Common/HIDParser.c **** 	return true;
 1556               		.loc 1 344 9 view .LVU322
 1557 0056 81E0      		ldi r24,lo8(1)
 1558               	.LVL91:
 1559               	.L74:
 1560               	/* epilogue start */
 345:../../tmk_core/protocol/lufa/lufa-abcminiuser/LUFA/Drivers/USB/Class/Common/HIDParser.c **** }
 1561               		.loc 1 345 1 view .LVU323
 1562 0058 DF91      		pop r29
 1563 005a CF91      		pop r28
 1564 005c FF90      		pop r15
 1565 005e EF90      		pop r14
 1566 0060 DF90      		pop r13
 1567 0062 CF90      		pop r12
 1568 0064 0895      		ret
 1569               	.LVL92:
 1570               	.L79:
 337:../../tmk_core/protocol/lufa/lufa-abcminiuser/LUFA/Drivers/USB/Class/Common/HIDParser.c **** 		  ReportItem->Value |= BitMask;
 1571               		.loc 1 337 3 is_stmt 1 view .LVU324
 337:../../tmk_core/protocol/lufa/lufa-abcminiuser/LUFA/Drivers/USB/Class/Common/HIDParser.c **** 		  ReportItem->Value |= BitMask;
 1572               		.loc 1 337 29 is_stmt 0 view .LVU325
 1573 0066 EC01      		movw r28,r24
 1574 0068 53E0      		ldi r21,3
 1575               		1:
 1576 006a D695      		lsr r29
 1577 006c C795      		ror r28
 1578 006e 5A95      		dec r21
 1579 0070 01F4      		brne 1b
 337:../../tmk_core/protocol/lufa/lufa-abcminiuser/LUFA/Drivers/USB/Class/Common/HIDParser.c **** 		  ReportItem->Value |= BitMask;
 1580               		.loc 1 337 17 view .LVU326
 1581 0072 CA0F      		add r28,r26
 1582 0074 DB1F      		adc r29,r27
 1583 0076 4881      		ld r20,Y
 1584 0078 50E0      		ldi r21,0
 337:../../tmk_core/protocol/lufa/lufa-abcminiuser/LUFA/Drivers/USB/Class/Common/HIDParser.c **** 		  ReportItem->Value |= BitMask;
 1585               		.loc 1 337 54 view .LVU327
 1586 007a BC01      		movw r22,r24
 1587 007c 6770      		andi r22,7
 1588 007e 7727      		clr r23
 337:../../tmk_core/protocol/lufa/lufa-abcminiuser/LUFA/Drivers/USB/Class/Common/HIDParser.c **** 		  ReportItem->Value |= BitMask;
 1589               		.loc 1 337 7 view .LVU328
 1590 0080 00C0      		rjmp 2f
 1591               		1:
 1592 0082 5595      		asr r21
 1593 0084 4795      		ror r20
 1594               		2:
 1595 0086 6A95      		dec r22
 1596 0088 02F4      		brpl 1b
 337:../../tmk_core/protocol/lufa/lufa-abcminiuser/LUFA/Drivers/USB/Class/Common/HIDParser.c **** 		  ReportItem->Value |= BitMask;
 1597               		.loc 1 337 6 view .LVU329
 1598 008a 40FF      		sbrs r20,0
 1599 008c 00C0      		rjmp .L78
 338:../../tmk_core/protocol/lufa/lufa-abcminiuser/LUFA/Drivers/USB/Class/Common/HIDParser.c **** 
 1600               		.loc 1 338 5 is_stmt 1 view .LVU330
 338:../../tmk_core/protocol/lufa/lufa-abcminiuser/LUFA/Drivers/USB/Class/Common/HIDParser.c **** 
 1601               		.loc 1 338 23 is_stmt 0 view .LVU331
 1602 008e 42A1      		ldd r20,Z+34
 1603 0090 53A1      		ldd r21,Z+35
 1604 0092 64A1      		ldd r22,Z+36
 1605 0094 75A1      		ldd r23,Z+37
 1606 0096 4C29      		or r20,r12
 1607 0098 5D29      		or r21,r13
 1608 009a 6E29      		or r22,r14
 1609 009c 7F29      		or r23,r15
 1610 009e 42A3      		std Z+34,r20
 1611 00a0 53A3      		std Z+35,r21
 1612 00a2 64A3      		std Z+36,r22
 1613 00a4 75A3      		std Z+37,r23
 1614               	.L78:
 340:../../tmk_core/protocol/lufa/lufa-abcminiuser/LUFA/Drivers/USB/Class/Common/HIDParser.c **** 		BitMask <<= 1;
 1615               		.loc 1 340 3 is_stmt 1 view .LVU332
 340:../../tmk_core/protocol/lufa/lufa-abcminiuser/LUFA/Drivers/USB/Class/Common/HIDParser.c **** 		BitMask <<= 1;
 1616               		.loc 1 340 13 is_stmt 0 view .LVU333
 1617 00a6 0196      		adiw r24,1
 1618               	.LVL93:
 341:../../tmk_core/protocol/lufa/lufa-abcminiuser/LUFA/Drivers/USB/Class/Common/HIDParser.c **** 	}
 1619               		.loc 1 341 3 is_stmt 1 view .LVU334
 341:../../tmk_core/protocol/lufa/lufa-abcminiuser/LUFA/Drivers/USB/Class/Common/HIDParser.c **** 	}
 1620               		.loc 1 341 11 is_stmt 0 view .LVU335
 1621 00a8 CC0C      		lsl r12
 1622 00aa DD1C      		rol r13
 1623 00ac EE1C      		rol r14
 1624 00ae FF1C      		rol r15
 1625               	.LVL94:
 341:../../tmk_core/protocol/lufa/lufa-abcminiuser/LUFA/Drivers/USB/Class/Common/HIDParser.c **** 	}
 1626               		.loc 1 341 11 view .LVU336
 1627 00b0 00C0      		rjmp .L77
 1628               	.LVL95:
 1629               	.L81:
 318:../../tmk_core/protocol/lufa/lufa-abcminiuser/LUFA/Drivers/USB/Class/Common/HIDParser.c **** 
 1630               		.loc 1 318 11 view .LVU337
 1631 00b2 80E0      		ldi r24,0
 1632 00b4 00C0      		rjmp .L74
 1633               		.cfi_endproc
 1634               	.LFE17:
 1636               		.section	.text.USB_SetHIDReportItemInfo,"ax",@progbits
 1637               	.global	USB_SetHIDReportItemInfo
 1639               	USB_SetHIDReportItemInfo:
 1640               	.LVL96:
 1641               	.LFB18:
 346:../../tmk_core/protocol/lufa/lufa-abcminiuser/LUFA/Drivers/USB/Class/Common/HIDParser.c **** 
 347:../../tmk_core/protocol/lufa/lufa-abcminiuser/LUFA/Drivers/USB/Class/Common/HIDParser.c **** void USB_SetHIDReportItemInfo(uint8_t* ReportData,
 348:../../tmk_core/protocol/lufa/lufa-abcminiuser/LUFA/Drivers/USB/Class/Common/HIDParser.c ****                               HID_ReportItem_t* const ReportItem)
 349:../../tmk_core/protocol/lufa/lufa-abcminiuser/LUFA/Drivers/USB/Class/Common/HIDParser.c **** {
 1642               		.loc 1 349 1 is_stmt 1 view -0
 1643               		.cfi_startproc
 1644               		.loc 1 349 1 is_stmt 0 view .LVU339
 1645 0000 8F92      		push r8
 1646               	.LCFI26:
 1647               		.cfi_def_cfa_offset 3
 1648               		.cfi_offset 8, -2
 1649 0002 9F92      		push r9
 1650               	.LCFI27:
 1651               		.cfi_def_cfa_offset 4
 1652               		.cfi_offset 9, -3
 1653 0004 AF92      		push r10
 1654               	.LCFI28:
 1655               		.cfi_def_cfa_offset 5
 1656               		.cfi_offset 10, -4
 1657 0006 BF92      		push r11
 1658               	.LCFI29:
 1659               		.cfi_def_cfa_offset 6
 1660               		.cfi_offset 11, -5
 1661 0008 EF92      		push r14
 1662               	.LCFI30:
 1663               		.cfi_def_cfa_offset 7
 1664               		.cfi_offset 14, -6
 1665 000a FF92      		push r15
 1666               	.LCFI31:
 1667               		.cfi_def_cfa_offset 8
 1668               		.cfi_offset 15, -7
 1669 000c 0F93      		push r16
 1670               	.LCFI32:
 1671               		.cfi_def_cfa_offset 9
 1672               		.cfi_offset 16, -8
 1673 000e 1F93      		push r17
 1674               	.LCFI33:
 1675               		.cfi_def_cfa_offset 10
 1676               		.cfi_offset 17, -9
 1677 0010 CF93      		push r28
 1678               	.LCFI34:
 1679               		.cfi_def_cfa_offset 11
 1680               		.cfi_offset 28, -10
 1681 0012 DF93      		push r29
 1682               	.LCFI35:
 1683               		.cfi_def_cfa_offset 12
 1684               		.cfi_offset 29, -11
 1685               	/* prologue: function */
 1686               	/* frame size = 0 */
 1687               	/* stack size = 10 */
 1688               	.L__stack_usage = 10
 1689 0014 DC01      		movw r26,r24
 1690 0016 FB01      		movw r30,r22
 350:../../tmk_core/protocol/lufa/lufa-abcminiuser/LUFA/Drivers/USB/Class/Common/HIDParser.c **** 	if (ReportItem == NULL)
 1691               		.loc 1 350 2 is_stmt 1 view .LVU340
 1692               		.loc 1 350 5 is_stmt 0 view .LVU341
 1693 0018 3097      		sbiw r30,0
 1694 001a 01F0      		breq .L88
 351:../../tmk_core/protocol/lufa/lufa-abcminiuser/LUFA/Drivers/USB/Class/Common/HIDParser.c **** 	  return;
 352:../../tmk_core/protocol/lufa/lufa-abcminiuser/LUFA/Drivers/USB/Class/Common/HIDParser.c **** 
 353:../../tmk_core/protocol/lufa/lufa-abcminiuser/LUFA/Drivers/USB/Class/Common/HIDParser.c **** 	uint16_t DataBitsRem  = ReportItem->Attributes.BitSize;
 1695               		.loc 1 353 2 is_stmt 1 view .LVU342
 1696               		.loc 1 353 11 is_stmt 0 view .LVU343
 1697 001c 2085      		ldd r18,Z+8
 1698 001e 30E0      		ldi r19,0
 1699               	.LVL97:
 354:../../tmk_core/protocol/lufa/lufa-abcminiuser/LUFA/Drivers/USB/Class/Common/HIDParser.c **** 	uint16_t CurrentBit   = ReportItem->BitOffset;
 1700               		.loc 1 354 2 is_stmt 1 view .LVU344
 1701               		.loc 1 354 11 is_stmt 0 view .LVU345
 1702 0020 8081      		ld r24,Z
 1703 0022 9181      		ldd r25,Z+1
 1704               	.LVL98:
 355:../../tmk_core/protocol/lufa/lufa-abcminiuser/LUFA/Drivers/USB/Class/Common/HIDParser.c **** 	uint32_t BitMask      = (1 << 0);
 1705               		.loc 1 355 2 is_stmt 1 view .LVU346
 356:../../tmk_core/protocol/lufa/lufa-abcminiuser/LUFA/Drivers/USB/Class/Common/HIDParser.c **** 
 357:../../tmk_core/protocol/lufa/lufa-abcminiuser/LUFA/Drivers/USB/Class/Common/HIDParser.c **** 	if (ReportItem->ReportID)
 1706               		.loc 1 357 2 view .LVU347
 1707               		.loc 1 357 16 is_stmt 0 view .LVU348
 1708 0024 4581      		ldd r20,Z+5
 1709               		.loc 1 357 5 view .LVU349
 1710 0026 4111      		cpse r20,__zero_reg__
 358:../../tmk_core/protocol/lufa/lufa-abcminiuser/LUFA/Drivers/USB/Class/Common/HIDParser.c **** 	{
 359:../../tmk_core/protocol/lufa/lufa-abcminiuser/LUFA/Drivers/USB/Class/Common/HIDParser.c **** 		ReportData[0] = ReportItem->ReportID;
 1711               		.loc 1 359 3 is_stmt 1 view .LVU350
 1712               		.loc 1 359 17 is_stmt 0 view .LVU351
 1713 0028 4D93      		st X+,r20
 1714               	.LVL99:
 360:../../tmk_core/protocol/lufa/lufa-abcminiuser/LUFA/Drivers/USB/Class/Common/HIDParser.c **** 		ReportData++;
 1715               		.loc 1 360 3 is_stmt 1 view .LVU352
 1716               	.L90:
 361:../../tmk_core/protocol/lufa/lufa-abcminiuser/LUFA/Drivers/USB/Class/Common/HIDParser.c **** 	}
 362:../../tmk_core/protocol/lufa/lufa-abcminiuser/LUFA/Drivers/USB/Class/Common/HIDParser.c **** 
 363:../../tmk_core/protocol/lufa/lufa-abcminiuser/LUFA/Drivers/USB/Class/Common/HIDParser.c **** 	ReportItem->PreviousValue = ReportItem->Value;
 1717               		.loc 1 363 2 view .LVU353
 1718               		.loc 1 363 28 is_stmt 0 view .LVU354
 1719 002a 42A1      		ldd r20,Z+34
 1720 002c 53A1      		ldd r21,Z+35
 1721 002e 64A1      		ldd r22,Z+36
 1722 0030 75A1      		ldd r23,Z+37
 1723 0032 46A3      		std Z+38,r20
 1724 0034 57A3      		std Z+39,r21
 1725 0036 60A7      		std Z+40,r22
 1726 0038 71A7      		std Z+41,r23
 364:../../tmk_core/protocol/lufa/lufa-abcminiuser/LUFA/Drivers/USB/Class/Common/HIDParser.c **** 
 365:../../tmk_core/protocol/lufa/lufa-abcminiuser/LUFA/Drivers/USB/Class/Common/HIDParser.c **** 	while (DataBitsRem--)
 1727               		.loc 1 365 2 is_stmt 1 view .LVU355
 1728 003a 280F      		add r18,r24
 1729 003c 391F      		adc r19,r25
 1730               	.LVL100:
 355:../../tmk_core/protocol/lufa/lufa-abcminiuser/LUFA/Drivers/USB/Class/Common/HIDParser.c **** 
 1731               		.loc 1 355 11 is_stmt 0 view .LVU356
 1732 003e 41E0      		ldi r20,lo8(1)
 1733 0040 50E0      		ldi r21,0
 1734 0042 60E0      		ldi r22,0
 1735 0044 70E0      		ldi r23,0
 366:../../tmk_core/protocol/lufa/lufa-abcminiuser/LUFA/Drivers/USB/Class/Common/HIDParser.c **** 	{
 367:../../tmk_core/protocol/lufa/lufa-abcminiuser/LUFA/Drivers/USB/Class/Common/HIDParser.c **** 		if (ReportItem->Value & BitMask)
 368:../../tmk_core/protocol/lufa/lufa-abcminiuser/LUFA/Drivers/USB/Class/Common/HIDParser.c **** 		  ReportData[CurrentBit / 8] |= (1 << (CurrentBit % 8));
 1736               		.loc 1 368 38 view .LVU357
 1737 0046 EE24      		clr r14
 1738 0048 E394      		inc r14
 1739 004a F12C      		mov r15,__zero_reg__
 1740               	.LVL101:
 1741               	.L91:
 365:../../tmk_core/protocol/lufa/lufa-abcminiuser/LUFA/Drivers/USB/Class/Common/HIDParser.c **** 	{
 1742               		.loc 1 365 8 is_stmt 1 view .LVU358
 365:../../tmk_core/protocol/lufa/lufa-abcminiuser/LUFA/Drivers/USB/Class/Common/HIDParser.c **** 	{
 1743               		.loc 1 365 8 is_stmt 0 view .LVU359
 1744 004c 8217      		cp r24,r18
 1745 004e 9307      		cpc r25,r19
 1746 0050 01F4      		brne .L93
 1747               	.LVL102:
 1748               	.L88:
 1749               	/* epilogue start */
 369:../../tmk_core/protocol/lufa/lufa-abcminiuser/LUFA/Drivers/USB/Class/Common/HIDParser.c **** 
 370:../../tmk_core/protocol/lufa/lufa-abcminiuser/LUFA/Drivers/USB/Class/Common/HIDParser.c **** 		CurrentBit++;
 371:../../tmk_core/protocol/lufa/lufa-abcminiuser/LUFA/Drivers/USB/Class/Common/HIDParser.c **** 		BitMask <<= 1;
 372:../../tmk_core/protocol/lufa/lufa-abcminiuser/LUFA/Drivers/USB/Class/Common/HIDParser.c **** 	}
 373:../../tmk_core/protocol/lufa/lufa-abcminiuser/LUFA/Drivers/USB/Class/Common/HIDParser.c **** }
 1750               		.loc 1 373 1 view .LVU360
 1751 0052 DF91      		pop r29
 1752 0054 CF91      		pop r28
 1753 0056 1F91      		pop r17
 1754 0058 0F91      		pop r16
 1755 005a FF90      		pop r15
 1756 005c EF90      		pop r14
 1757 005e BF90      		pop r11
 1758 0060 AF90      		pop r10
 1759 0062 9F90      		pop r9
 1760 0064 8F90      		pop r8
 1761 0066 0895      		ret
 1762               	.LVL103:
 1763               	.L93:
 367:../../tmk_core/protocol/lufa/lufa-abcminiuser/LUFA/Drivers/USB/Class/Common/HIDParser.c **** 		  ReportData[CurrentBit / 8] |= (1 << (CurrentBit % 8));
 1764               		.loc 1 367 3 is_stmt 1 view .LVU361
 367:../../tmk_core/protocol/lufa/lufa-abcminiuser/LUFA/Drivers/USB/Class/Common/HIDParser.c **** 		  ReportData[CurrentBit / 8] |= (1 << (CurrentBit % 8));
 1765               		.loc 1 367 25 is_stmt 0 view .LVU362
 1766 0068 82A0      		ldd r8,Z+34
 1767 006a 93A0      		ldd r9,Z+35
 1768 006c A4A0      		ldd r10,Z+36
 1769 006e B5A0      		ldd r11,Z+37
 1770 0070 8422      		and r8,r20
 1771 0072 9522      		and r9,r21
 1772 0074 A622      		and r10,r22
 1773 0076 B722      		and r11,r23
 367:../../tmk_core/protocol/lufa/lufa-abcminiuser/LUFA/Drivers/USB/Class/Common/HIDParser.c **** 		  ReportData[CurrentBit / 8] |= (1 << (CurrentBit % 8));
 1774               		.loc 1 367 6 view .LVU363
 1775 0078 8928      		or r8,r9
 1776 007a 8A28      		or r8,r10
 1777 007c 8B28      		or r8,r11
 1778 007e 01F0      		breq .L92
 368:../../tmk_core/protocol/lufa/lufa-abcminiuser/LUFA/Drivers/USB/Class/Common/HIDParser.c **** 
 1779               		.loc 1 368 5 is_stmt 1 view .LVU364
 368:../../tmk_core/protocol/lufa/lufa-abcminiuser/LUFA/Drivers/USB/Class/Common/HIDParser.c **** 
 1780               		.loc 1 368 27 is_stmt 0 view .LVU365
 1781 0080 EC01      		movw r28,r24
 1782 0082 13E0      		ldi r17,3
 1783               		1:
 1784 0084 D695      		lsr r29
 1785 0086 C795      		ror r28
 1786 0088 1A95      		dec r17
 1787 008a 01F4      		brne 1b
 368:../../tmk_core/protocol/lufa/lufa-abcminiuser/LUFA/Drivers/USB/Class/Common/HIDParser.c **** 
 1788               		.loc 1 368 32 view .LVU366
 1789 008c CA0F      		add r28,r26
 1790 008e DB1F      		adc r29,r27
 368:../../tmk_core/protocol/lufa/lufa-abcminiuser/LUFA/Drivers/USB/Class/Common/HIDParser.c **** 
 1791               		.loc 1 368 53 view .LVU367
 1792 0090 5C01      		movw r10,r24
 1793 0092 07E0      		ldi r16,7
 1794 0094 A022      		and r10,r16
 1795 0096 BB24      		clr r11
 368:../../tmk_core/protocol/lufa/lufa-abcminiuser/LUFA/Drivers/USB/Class/Common/HIDParser.c **** 
 1796               		.loc 1 368 38 view .LVU368
 1797 0098 8701      		movw r16,r14
 1798 009a 00C0      		rjmp 2f
 1799               		1:
 1800 009c 000F      		lsl r16
 1801 009e 111F      		rol r17
 1802               		2:
 1803 00a0 AA94      		dec r10
 1804 00a2 02F4      		brpl 1b
 1805 00a4 5801      		movw r10,r16
 368:../../tmk_core/protocol/lufa/lufa-abcminiuser/LUFA/Drivers/USB/Class/Common/HIDParser.c **** 
 1806               		.loc 1 368 32 view .LVU369
 1807 00a6 1881      		ld r17,Y
 1808 00a8 1A29      		or r17,r10
 1809 00aa 1883      		st Y,r17
 1810               	.L92:
 370:../../tmk_core/protocol/lufa/lufa-abcminiuser/LUFA/Drivers/USB/Class/Common/HIDParser.c **** 		BitMask <<= 1;
 1811               		.loc 1 370 3 is_stmt 1 view .LVU370
 370:../../tmk_core/protocol/lufa/lufa-abcminiuser/LUFA/Drivers/USB/Class/Common/HIDParser.c **** 		BitMask <<= 1;
 1812               		.loc 1 370 13 is_stmt 0 view .LVU371
 1813 00ac 0196      		adiw r24,1
 1814               	.LVL104:
 371:../../tmk_core/protocol/lufa/lufa-abcminiuser/LUFA/Drivers/USB/Class/Common/HIDParser.c **** 	}
 1815               		.loc 1 371 3 is_stmt 1 view .LVU372
 371:../../tmk_core/protocol/lufa/lufa-abcminiuser/LUFA/Drivers/USB/Class/Common/HIDParser.c **** 	}
 1816               		.loc 1 371 11 is_stmt 0 view .LVU373
 1817 00ae 440F      		lsl r20
 1818 00b0 551F      		rol r21
 1819 00b2 661F      		rol r22
 1820 00b4 771F      		rol r23
 1821               	.LVL105:
 371:../../tmk_core/protocol/lufa/lufa-abcminiuser/LUFA/Drivers/USB/Class/Common/HIDParser.c **** 	}
 1822               		.loc 1 371 11 view .LVU374
 1823 00b6 00C0      		rjmp .L91
 1824               		.cfi_endproc
 1825               	.LFE18:
 1827               		.section	.text.USB_GetHIDReportSize,"ax",@progbits
 1828               	.global	USB_GetHIDReportSize
 1830               	USB_GetHIDReportSize:
 1831               	.LVL106:
 1832               	.LFB19:
 374:../../tmk_core/protocol/lufa/lufa-abcminiuser/LUFA/Drivers/USB/Class/Common/HIDParser.c **** 
 375:../../tmk_core/protocol/lufa/lufa-abcminiuser/LUFA/Drivers/USB/Class/Common/HIDParser.c **** uint16_t USB_GetHIDReportSize(HID_ReportInfo_t* const ParserData,
 376:../../tmk_core/protocol/lufa/lufa-abcminiuser/LUFA/Drivers/USB/Class/Common/HIDParser.c ****                               const uint8_t ReportID,
 377:../../tmk_core/protocol/lufa/lufa-abcminiuser/LUFA/Drivers/USB/Class/Common/HIDParser.c ****                               const uint8_t ReportType)
 378:../../tmk_core/protocol/lufa/lufa-abcminiuser/LUFA/Drivers/USB/Class/Common/HIDParser.c **** {
 1833               		.loc 1 378 1 is_stmt 1 view -0
 1834               		.cfi_startproc
 1835               	/* prologue: function */
 1836               	/* frame size = 0 */
 1837               	/* stack size = 0 */
 1838               	.L__stack_usage = 0
 1839               		.loc 1 378 1 is_stmt 0 view .LVU376
 1840 0000 9C01      		movw r18,r24
 379:../../tmk_core/protocol/lufa/lufa-abcminiuser/LUFA/Drivers/USB/Class/Common/HIDParser.c **** 	for (uint8_t i = 0; i < HID_MAX_REPORT_IDS; i++)
 1841               		.loc 1 379 2 is_stmt 1 view .LVU377
 1842               	.LBB20:
 1843               		.loc 1 379 7 view .LVU378
 1844               	.LVL107:
 1845               		.loc 1 379 22 view .LVU379
 1846 0002 FC01      		movw r30,r24
 1847 0004 E057      		subi r30,112
 1848 0006 FC4F      		sbci r31,-4
 1849 0008 2A52      		subi r18,42
 1850 000a 3C4F      		sbci r19,-4
 1851 000c 50E0      		ldi r21,0
 1852 000e 440F      		lsl r20
 1853 0010 551F      		rol r21
 1854               	.LVL108:
 1855               	.L105:
 1856               	.LBB21:
 380:../../tmk_core/protocol/lufa/lufa-abcminiuser/LUFA/Drivers/USB/Class/Common/HIDParser.c **** 	{
 381:../../tmk_core/protocol/lufa/lufa-abcminiuser/LUFA/Drivers/USB/Class/Common/HIDParser.c **** 		uint16_t ReportSizeBits = ParserData->ReportIDSizes[i].ReportSizeBits[ReportType];
 1857               		.loc 1 381 3 view .LVU380
 1858               		.loc 1 381 12 is_stmt 0 view .LVU381
 1859 0012 DF01      		movw r26,r30
 1860 0014 A40F      		add r26,r20
 1861 0016 B51F      		adc r27,r21
 1862 0018 1196      		adiw r26,1
 1863 001a 0D90      		ld __tmp_reg__,X+
 1864 001c BC91      		ld r27,X
 1865 001e A02D      		mov r26,__tmp_reg__
 1866               	.LVL109:
 382:../../tmk_core/protocol/lufa/lufa-abcminiuser/LUFA/Drivers/USB/Class/Common/HIDParser.c **** 
 383:../../tmk_core/protocol/lufa/lufa-abcminiuser/LUFA/Drivers/USB/Class/Common/HIDParser.c **** 		if (ParserData->ReportIDSizes[i].ReportID == ReportID)
 1867               		.loc 1 383 3 is_stmt 1 view .LVU382
 1868               		.loc 1 383 6 is_stmt 0 view .LVU383
 1869 0020 8081      		ld r24,Z
 1870 0022 8613      		cpse r24,r22
 1871 0024 00C0      		rjmp .L102
 384:../../tmk_core/protocol/lufa/lufa-abcminiuser/LUFA/Drivers/USB/Class/Common/HIDParser.c **** 		  return (ReportSizeBits / 8) + ((ReportSizeBits % 8) ? 1 : 0);
 1872               		.loc 1 384 5 is_stmt 1 view .LVU384
 1873               		.loc 1 384 61 is_stmt 0 view .LVU385
 1874 0026 81E0      		ldi r24,lo8(1)
 1875 0028 90E0      		ldi r25,0
 1876 002a 9D01      		movw r18,r26
 1877               	.LVL110:
 1878               		.loc 1 384 61 view .LVU386
 1879 002c 2770      		andi r18,7
 1880 002e 3327      		clr r19
 1881 0030 232B      		or r18,r19
 1882 0032 01F4      		brne .L103
 1883 0034 90E0      		ldi r25,0
 1884 0036 80E0      		ldi r24,0
 1885               	.L103:
 1886               		.loc 1 384 28 view .LVU387
 1887 0038 23E0      		ldi r18,3
 1888               		1:
 1889 003a B695      		lsr r27
 1890 003c A795      		ror r26
 1891 003e 2A95      		dec r18
 1892 0040 01F4      		brne 1b
 1893               	.LVL111:
 1894               		.loc 1 384 33 view .LVU388
 1895 0042 8A0F      		add r24,r26
 1896 0044 9B1F      		adc r25,r27
 1897 0046 0895      		ret
 1898               	.LVL112:
 1899               	.L102:
 1900               		.loc 1 384 33 view .LVU389
 1901               	.LBE21:
 379:../../tmk_core/protocol/lufa/lufa-abcminiuser/LUFA/Drivers/USB/Class/Common/HIDParser.c **** 	{
 1902               		.loc 1 379 46 is_stmt 1 discriminator 2 view .LVU390
 379:../../tmk_core/protocol/lufa/lufa-abcminiuser/LUFA/Drivers/USB/Class/Common/HIDParser.c **** 	{
 1903               		.loc 1 379 22 discriminator 2 view .LVU391
 379:../../tmk_core/protocol/lufa/lufa-abcminiuser/LUFA/Drivers/USB/Class/Common/HIDParser.c **** 	{
 1904               		.loc 1 379 2 is_stmt 0 discriminator 2 view .LVU392
 1905 0048 3796      		adiw r30,7
 1906               	.LVL113:
 379:../../tmk_core/protocol/lufa/lufa-abcminiuser/LUFA/Drivers/USB/Class/Common/HIDParser.c **** 	{
 1907               		.loc 1 379 2 discriminator 2 view .LVU393
 1908 004a E217      		cp r30,r18
 1909 004c F307      		cpc r31,r19
 1910 004e 01F4      		brne .L105
 1911               	.LBE20:
 385:../../tmk_core/protocol/lufa/lufa-abcminiuser/LUFA/Drivers/USB/Class/Common/HIDParser.c **** 	}
 386:../../tmk_core/protocol/lufa/lufa-abcminiuser/LUFA/Drivers/USB/Class/Common/HIDParser.c **** 
 387:../../tmk_core/protocol/lufa/lufa-abcminiuser/LUFA/Drivers/USB/Class/Common/HIDParser.c **** 	return 0;
 1912               		.loc 1 387 9 view .LVU394
 1913 0050 90E0      		ldi r25,0
 1914 0052 80E0      		ldi r24,0
 1915               	/* epilogue start */
 388:../../tmk_core/protocol/lufa/lufa-abcminiuser/LUFA/Drivers/USB/Class/Common/HIDParser.c **** }
 1916               		.loc 1 388 1 view .LVU395
 1917 0054 0895      		ret
 1918               		.cfi_endproc
 1919               	.LFE19:
 1921               		.text
 1922               	.Letext0:
 1923               		.file 2 "/usr/avr/include/stdint.h"
 1924               		.file 3 "../../tmk_core/protocol/lufa/lufa-abcminiuser/LUFA/Drivers/USB/Class/Common/HIDClassCommo
 1925               		.file 4 "../../tmk_core/protocol/lufa/lufa-abcminiuser/LUFA/Drivers/USB/Class/Common/HIDParser.h"
 1926               		.file 5 "<built-in>"