   1               		.file	"lufa.c"
   2               	__SP_H__ = 0x3e
   3               	__SP_L__ = 0x3d
   4               	__SREG__ = 0x3f
   5               	__RAMPZ__ = 0x3b
   6               	__tmp_reg__ = 0
   7               	__zero_reg__ = 1
   8               		.text
   9               	.Ltext0:
  10               		.cfi_sections	.debug_frame
  11               		.file 1 "./tmk_core/protocol/lufa/lufa.c"
  12               		.section	.text.keyboard_leds,"ax",@progbits
  14               	keyboard_leds:
  15               	.LFB128:
   1:./tmk_core/protocol/lufa/lufa.c **** /*
   2:./tmk_core/protocol/lufa/lufa.c ****  * Copyright 2012 Jun Wako <wakojun@gmail.com>
   3:./tmk_core/protocol/lufa/lufa.c ****  * This file is based on:
   4:./tmk_core/protocol/lufa/lufa.c ****  *     LUFA-120219/Demos/Device/Lowlevel/KeyboardMouse
   5:./tmk_core/protocol/lufa/lufa.c ****  *     LUFA-120219/Demos/Device/Lowlevel/GenericHID
   6:./tmk_core/protocol/lufa/lufa.c ****  */
   7:./tmk_core/protocol/lufa/lufa.c **** 
   8:./tmk_core/protocol/lufa/lufa.c **** /*
   9:./tmk_core/protocol/lufa/lufa.c ****              LUFA Library
  10:./tmk_core/protocol/lufa/lufa.c ****      Copyright (C) Dean Camera, 2012.
  11:./tmk_core/protocol/lufa/lufa.c **** 
  12:./tmk_core/protocol/lufa/lufa.c ****   dean [at] fourwalledcubicle [dot] com
  13:./tmk_core/protocol/lufa/lufa.c ****            www.lufa-lib.org
  14:./tmk_core/protocol/lufa/lufa.c **** */
  15:./tmk_core/protocol/lufa/lufa.c **** 
  16:./tmk_core/protocol/lufa/lufa.c **** /*
  17:./tmk_core/protocol/lufa/lufa.c ****   Copyright 2012  Dean Camera (dean [at] fourwalledcubicle [dot] com)
  18:./tmk_core/protocol/lufa/lufa.c ****   Copyright 2010  Denver Gingerich (denver [at] ossguy [dot] com)
  19:./tmk_core/protocol/lufa/lufa.c **** 
  20:./tmk_core/protocol/lufa/lufa.c ****   Permission to use, copy, modify, distribute, and sell this
  21:./tmk_core/protocol/lufa/lufa.c ****   software and its documentation for any purpose is hereby granted
  22:./tmk_core/protocol/lufa/lufa.c ****   without fee, provided that the above copyright notice appear in
  23:./tmk_core/protocol/lufa/lufa.c ****   all copies and that both that the copyright notice and this
  24:./tmk_core/protocol/lufa/lufa.c ****   permission notice and warranty disclaimer appear in supporting
  25:./tmk_core/protocol/lufa/lufa.c ****   documentation, and that the name of the author not be used in
  26:./tmk_core/protocol/lufa/lufa.c ****   advertising or publicity pertaining to distribution of the
  27:./tmk_core/protocol/lufa/lufa.c ****   software without specific, written prior permission.
  28:./tmk_core/protocol/lufa/lufa.c **** 
  29:./tmk_core/protocol/lufa/lufa.c ****   The author disclaim all warranties with regard to this
  30:./tmk_core/protocol/lufa/lufa.c ****   software, including all implied warranties of merchantability
  31:./tmk_core/protocol/lufa/lufa.c ****   and fitness.  In no event shall the author be liable for any
  32:./tmk_core/protocol/lufa/lufa.c ****   special, indirect or consequential damages or any damages
  33:./tmk_core/protocol/lufa/lufa.c ****   whatsoever resulting from loss of use, data or profits, whether
  34:./tmk_core/protocol/lufa/lufa.c ****   in an action of contract, negligence or other tortious action,
  35:./tmk_core/protocol/lufa/lufa.c ****   arising out of or in connection with the use or performance of
  36:./tmk_core/protocol/lufa/lufa.c ****   this software.
  37:./tmk_core/protocol/lufa/lufa.c **** */
  38:./tmk_core/protocol/lufa/lufa.c **** 
  39:./tmk_core/protocol/lufa/lufa.c **** #include "report.h"
  40:./tmk_core/protocol/lufa/lufa.c **** #include "host.h"
  41:./tmk_core/protocol/lufa/lufa.c **** #include "host_driver.h"
  42:./tmk_core/protocol/lufa/lufa.c **** #include "keyboard.h"
  43:./tmk_core/protocol/lufa/lufa.c **** #include "action.h"
  44:./tmk_core/protocol/lufa/lufa.c **** #include "led.h"
  45:./tmk_core/protocol/lufa/lufa.c **** #include "sendchar.h"
  46:./tmk_core/protocol/lufa/lufa.c **** #include "debug.h"
  47:./tmk_core/protocol/lufa/lufa.c **** #ifdef SLEEP_LED_ENABLE
  48:./tmk_core/protocol/lufa/lufa.c **** #include "sleep_led.h"
  49:./tmk_core/protocol/lufa/lufa.c **** #endif
  50:./tmk_core/protocol/lufa/lufa.c **** #include "suspend.h"
  51:./tmk_core/protocol/lufa/lufa.c **** 
  52:./tmk_core/protocol/lufa/lufa.c **** #include "descriptor.h"
  53:./tmk_core/protocol/lufa/lufa.c **** #include "lufa.h"
  54:./tmk_core/protocol/lufa/lufa.c **** #include "quantum.h"
  55:./tmk_core/protocol/lufa/lufa.c **** #include <util/atomic.h>
  56:./tmk_core/protocol/lufa/lufa.c **** 
  57:./tmk_core/protocol/lufa/lufa.c **** #ifdef NKRO_ENABLE
  58:./tmk_core/protocol/lufa/lufa.c ****   #include "keycode_config.h"
  59:./tmk_core/protocol/lufa/lufa.c **** 
  60:./tmk_core/protocol/lufa/lufa.c ****   extern keymap_config_t keymap_config;
  61:./tmk_core/protocol/lufa/lufa.c **** #endif
  62:./tmk_core/protocol/lufa/lufa.c **** 
  63:./tmk_core/protocol/lufa/lufa.c **** 
  64:./tmk_core/protocol/lufa/lufa.c **** #ifdef AUDIO_ENABLE
  65:./tmk_core/protocol/lufa/lufa.c ****     #include <audio.h>
  66:./tmk_core/protocol/lufa/lufa.c **** #endif
  67:./tmk_core/protocol/lufa/lufa.c **** 
  68:./tmk_core/protocol/lufa/lufa.c **** #ifdef BLUETOOTH_ENABLE
  69:./tmk_core/protocol/lufa/lufa.c ****     #include "bluetooth.h"
  70:./tmk_core/protocol/lufa/lufa.c **** #endif
  71:./tmk_core/protocol/lufa/lufa.c **** #ifdef ADAFRUIT_BLE_ENABLE
  72:./tmk_core/protocol/lufa/lufa.c ****     #include "adafruit_ble.h"
  73:./tmk_core/protocol/lufa/lufa.c **** #endif
  74:./tmk_core/protocol/lufa/lufa.c **** 
  75:./tmk_core/protocol/lufa/lufa.c **** #ifdef VIRTSER_ENABLE
  76:./tmk_core/protocol/lufa/lufa.c ****     #include "virtser.h"
  77:./tmk_core/protocol/lufa/lufa.c **** #endif
  78:./tmk_core/protocol/lufa/lufa.c **** 
  79:./tmk_core/protocol/lufa/lufa.c **** #if (defined(RGB_MIDI) | defined(RGBLIGHT_ANIMATIONS)) & defined(RGBLIGHT_ENABLE)
  80:./tmk_core/protocol/lufa/lufa.c ****     #include "rgblight.h"
  81:./tmk_core/protocol/lufa/lufa.c **** #endif
  82:./tmk_core/protocol/lufa/lufa.c **** 
  83:./tmk_core/protocol/lufa/lufa.c **** #ifdef MIDI_ENABLE
  84:./tmk_core/protocol/lufa/lufa.c ****   #include "sysex_tools.h"
  85:./tmk_core/protocol/lufa/lufa.c **** #endif
  86:./tmk_core/protocol/lufa/lufa.c **** 
  87:./tmk_core/protocol/lufa/lufa.c **** #ifdef RAW_ENABLE
  88:./tmk_core/protocol/lufa/lufa.c **** 	#include "raw_hid.h"
  89:./tmk_core/protocol/lufa/lufa.c **** #endif
  90:./tmk_core/protocol/lufa/lufa.c **** 
  91:./tmk_core/protocol/lufa/lufa.c **** uint8_t keyboard_idle = 0;
  92:./tmk_core/protocol/lufa/lufa.c **** /* 0: Boot Protocol, 1: Report Protocol(default) */
  93:./tmk_core/protocol/lufa/lufa.c **** uint8_t keyboard_protocol = 1;
  94:./tmk_core/protocol/lufa/lufa.c **** static uint8_t keyboard_led_stats = 0;
  95:./tmk_core/protocol/lufa/lufa.c **** 
  96:./tmk_core/protocol/lufa/lufa.c **** static report_keyboard_t keyboard_report_sent;
  97:./tmk_core/protocol/lufa/lufa.c **** 
  98:./tmk_core/protocol/lufa/lufa.c **** #ifdef MIDI_ENABLE
  99:./tmk_core/protocol/lufa/lufa.c **** static void usb_send_func(MidiDevice * device, uint16_t cnt, uint8_t byte0, uint8_t byte1, uint8_t 
 100:./tmk_core/protocol/lufa/lufa.c **** static void usb_get_midi(MidiDevice * device);
 101:./tmk_core/protocol/lufa/lufa.c **** static void midi_usb_init(MidiDevice * device);
 102:./tmk_core/protocol/lufa/lufa.c **** #endif
 103:./tmk_core/protocol/lufa/lufa.c **** 
 104:./tmk_core/protocol/lufa/lufa.c **** /* Host driver */
 105:./tmk_core/protocol/lufa/lufa.c **** static uint8_t keyboard_leds(void);
 106:./tmk_core/protocol/lufa/lufa.c **** static void send_keyboard(report_keyboard_t *report);
 107:./tmk_core/protocol/lufa/lufa.c **** static void send_mouse(report_mouse_t *report);
 108:./tmk_core/protocol/lufa/lufa.c **** static void send_system(uint16_t data);
 109:./tmk_core/protocol/lufa/lufa.c **** static void send_consumer(uint16_t data);
 110:./tmk_core/protocol/lufa/lufa.c **** host_driver_t lufa_driver = {
 111:./tmk_core/protocol/lufa/lufa.c ****     keyboard_leds,
 112:./tmk_core/protocol/lufa/lufa.c ****     send_keyboard,
 113:./tmk_core/protocol/lufa/lufa.c ****     send_mouse,
 114:./tmk_core/protocol/lufa/lufa.c ****     send_system,
 115:./tmk_core/protocol/lufa/lufa.c ****     send_consumer,
 116:./tmk_core/protocol/lufa/lufa.c **** #ifdef MIDI_ENABLE
 117:./tmk_core/protocol/lufa/lufa.c ****     usb_send_func,
 118:./tmk_core/protocol/lufa/lufa.c ****     usb_get_midi,
 119:./tmk_core/protocol/lufa/lufa.c ****     midi_usb_init
 120:./tmk_core/protocol/lufa/lufa.c **** #endif
 121:./tmk_core/protocol/lufa/lufa.c **** };
 122:./tmk_core/protocol/lufa/lufa.c **** 
 123:./tmk_core/protocol/lufa/lufa.c **** /*******************************************************************************
 124:./tmk_core/protocol/lufa/lufa.c ****  * MIDI
 125:./tmk_core/protocol/lufa/lufa.c ****  ******************************************************************************/
 126:./tmk_core/protocol/lufa/lufa.c **** 
 127:./tmk_core/protocol/lufa/lufa.c **** #ifdef MIDI_ENABLE
 128:./tmk_core/protocol/lufa/lufa.c **** USB_ClassInfo_MIDI_Device_t USB_MIDI_Interface =
 129:./tmk_core/protocol/lufa/lufa.c **** {
 130:./tmk_core/protocol/lufa/lufa.c ****   .Config =
 131:./tmk_core/protocol/lufa/lufa.c ****   {
 132:./tmk_core/protocol/lufa/lufa.c ****     .StreamingInterfaceNumber = AS_INTERFACE,
 133:./tmk_core/protocol/lufa/lufa.c ****     .DataINEndpoint           =
 134:./tmk_core/protocol/lufa/lufa.c ****     {
 135:./tmk_core/protocol/lufa/lufa.c ****       .Address          = MIDI_STREAM_IN_EPADDR,
 136:./tmk_core/protocol/lufa/lufa.c ****       .Size             = MIDI_STREAM_EPSIZE,
 137:./tmk_core/protocol/lufa/lufa.c ****       .Banks            = 1,
 138:./tmk_core/protocol/lufa/lufa.c ****     },
 139:./tmk_core/protocol/lufa/lufa.c ****     .DataOUTEndpoint          =
 140:./tmk_core/protocol/lufa/lufa.c ****     {
 141:./tmk_core/protocol/lufa/lufa.c ****       .Address          = MIDI_STREAM_OUT_EPADDR,
 142:./tmk_core/protocol/lufa/lufa.c ****       .Size             = MIDI_STREAM_EPSIZE,
 143:./tmk_core/protocol/lufa/lufa.c ****       .Banks            = 1,
 144:./tmk_core/protocol/lufa/lufa.c ****     },
 145:./tmk_core/protocol/lufa/lufa.c ****   },
 146:./tmk_core/protocol/lufa/lufa.c **** };
 147:./tmk_core/protocol/lufa/lufa.c **** 
 148:./tmk_core/protocol/lufa/lufa.c **** #define SYSEX_START_OR_CONT 0x40
 149:./tmk_core/protocol/lufa/lufa.c **** #define SYSEX_ENDS_IN_1 0x50
 150:./tmk_core/protocol/lufa/lufa.c **** #define SYSEX_ENDS_IN_2 0x60
 151:./tmk_core/protocol/lufa/lufa.c **** #define SYSEX_ENDS_IN_3 0x70
 152:./tmk_core/protocol/lufa/lufa.c **** 
 153:./tmk_core/protocol/lufa/lufa.c **** #define SYS_COMMON_1 0x50
 154:./tmk_core/protocol/lufa/lufa.c **** #define SYS_COMMON_2 0x20
 155:./tmk_core/protocol/lufa/lufa.c **** #define SYS_COMMON_3 0x30
 156:./tmk_core/protocol/lufa/lufa.c **** #endif
 157:./tmk_core/protocol/lufa/lufa.c **** 
 158:./tmk_core/protocol/lufa/lufa.c **** #ifdef VIRTSER_ENABLE
 159:./tmk_core/protocol/lufa/lufa.c **** USB_ClassInfo_CDC_Device_t cdc_device =
 160:./tmk_core/protocol/lufa/lufa.c **** {
 161:./tmk_core/protocol/lufa/lufa.c ****   .Config =
 162:./tmk_core/protocol/lufa/lufa.c ****   {
 163:./tmk_core/protocol/lufa/lufa.c ****     .ControlInterfaceNumber = CCI_INTERFACE,
 164:./tmk_core/protocol/lufa/lufa.c ****     .DataINEndpoint         =
 165:./tmk_core/protocol/lufa/lufa.c ****     {
 166:./tmk_core/protocol/lufa/lufa.c ****       .Address		= CDC_IN_EPADDR,
 167:./tmk_core/protocol/lufa/lufa.c ****       .Size		= CDC_EPSIZE,
 168:./tmk_core/protocol/lufa/lufa.c ****       .Banks		= 1,
 169:./tmk_core/protocol/lufa/lufa.c ****     },
 170:./tmk_core/protocol/lufa/lufa.c ****     .DataOUTEndpoint	    =
 171:./tmk_core/protocol/lufa/lufa.c ****     {
 172:./tmk_core/protocol/lufa/lufa.c ****       .Address		= CDC_OUT_EPADDR,
 173:./tmk_core/protocol/lufa/lufa.c ****       .Size		= CDC_EPSIZE,
 174:./tmk_core/protocol/lufa/lufa.c ****       .Banks		= 1,
 175:./tmk_core/protocol/lufa/lufa.c ****     },
 176:./tmk_core/protocol/lufa/lufa.c ****     .NotificationEndpoint   =
 177:./tmk_core/protocol/lufa/lufa.c ****     {
 178:./tmk_core/protocol/lufa/lufa.c ****       .Address		= CDC_NOTIFICATION_EPADDR,
 179:./tmk_core/protocol/lufa/lufa.c ****       .Size		= CDC_NOTIFICATION_EPSIZE,
 180:./tmk_core/protocol/lufa/lufa.c ****       .Banks		= 1,
 181:./tmk_core/protocol/lufa/lufa.c ****     },
 182:./tmk_core/protocol/lufa/lufa.c ****   },
 183:./tmk_core/protocol/lufa/lufa.c **** };
 184:./tmk_core/protocol/lufa/lufa.c **** #endif
 185:./tmk_core/protocol/lufa/lufa.c **** 
 186:./tmk_core/protocol/lufa/lufa.c **** #ifdef RAW_ENABLE
 187:./tmk_core/protocol/lufa/lufa.c **** 
 188:./tmk_core/protocol/lufa/lufa.c **** void raw_hid_send( uint8_t *data, uint8_t length )
 189:./tmk_core/protocol/lufa/lufa.c **** {
 190:./tmk_core/protocol/lufa/lufa.c **** 	// TODO: implement variable size packet
 191:./tmk_core/protocol/lufa/lufa.c **** 	if ( length != RAW_EPSIZE )
 192:./tmk_core/protocol/lufa/lufa.c **** 	{
 193:./tmk_core/protocol/lufa/lufa.c **** 		return;
 194:./tmk_core/protocol/lufa/lufa.c **** 	}
 195:./tmk_core/protocol/lufa/lufa.c **** 
 196:./tmk_core/protocol/lufa/lufa.c **** 	if (USB_DeviceState != DEVICE_STATE_Configured)
 197:./tmk_core/protocol/lufa/lufa.c **** 	{
 198:./tmk_core/protocol/lufa/lufa.c **** 		return;
 199:./tmk_core/protocol/lufa/lufa.c **** 	}
 200:./tmk_core/protocol/lufa/lufa.c **** 
 201:./tmk_core/protocol/lufa/lufa.c **** 	// TODO: decide if we allow calls to raw_hid_send() in the middle
 202:./tmk_core/protocol/lufa/lufa.c **** 	// of other endpoint usage.
 203:./tmk_core/protocol/lufa/lufa.c **** 	uint8_t ep = Endpoint_GetCurrentEndpoint();
 204:./tmk_core/protocol/lufa/lufa.c **** 
 205:./tmk_core/protocol/lufa/lufa.c **** 	Endpoint_SelectEndpoint(RAW_IN_EPNUM);
 206:./tmk_core/protocol/lufa/lufa.c **** 
 207:./tmk_core/protocol/lufa/lufa.c **** 	// Check to see if the host is ready to accept another packet
 208:./tmk_core/protocol/lufa/lufa.c **** 	if (Endpoint_IsINReady())
 209:./tmk_core/protocol/lufa/lufa.c **** 	{
 210:./tmk_core/protocol/lufa/lufa.c **** 		// Write data
 211:./tmk_core/protocol/lufa/lufa.c **** 		Endpoint_Write_Stream_LE(data, RAW_EPSIZE, NULL);
 212:./tmk_core/protocol/lufa/lufa.c **** 		// Finalize the stream transfer to send the last packet
 213:./tmk_core/protocol/lufa/lufa.c **** 		Endpoint_ClearIN();
 214:./tmk_core/protocol/lufa/lufa.c **** 	}
 215:./tmk_core/protocol/lufa/lufa.c **** 
 216:./tmk_core/protocol/lufa/lufa.c **** 	Endpoint_SelectEndpoint(ep);
 217:./tmk_core/protocol/lufa/lufa.c **** }
 218:./tmk_core/protocol/lufa/lufa.c **** 
 219:./tmk_core/protocol/lufa/lufa.c **** __attribute__ ((weak))
 220:./tmk_core/protocol/lufa/lufa.c **** void raw_hid_receive( uint8_t *data, uint8_t length )
 221:./tmk_core/protocol/lufa/lufa.c **** {
 222:./tmk_core/protocol/lufa/lufa.c **** 	// Users should #include "raw_hid.h" in their own code
 223:./tmk_core/protocol/lufa/lufa.c **** 	// and implement this function there. Leave this as weak linkage
 224:./tmk_core/protocol/lufa/lufa.c **** 	// so users can opt to not handle data coming in.
 225:./tmk_core/protocol/lufa/lufa.c **** }
 226:./tmk_core/protocol/lufa/lufa.c **** 
 227:./tmk_core/protocol/lufa/lufa.c **** static void raw_hid_task(void)
 228:./tmk_core/protocol/lufa/lufa.c **** {
 229:./tmk_core/protocol/lufa/lufa.c **** 	// Create a temporary buffer to hold the read in data from the host
 230:./tmk_core/protocol/lufa/lufa.c **** 	uint8_t data[RAW_EPSIZE];
 231:./tmk_core/protocol/lufa/lufa.c **** 	bool data_read = false;
 232:./tmk_core/protocol/lufa/lufa.c **** 
 233:./tmk_core/protocol/lufa/lufa.c **** 	// Device must be connected and configured for the task to run
 234:./tmk_core/protocol/lufa/lufa.c **** 	if (USB_DeviceState != DEVICE_STATE_Configured)
 235:./tmk_core/protocol/lufa/lufa.c **** 	return;
 236:./tmk_core/protocol/lufa/lufa.c **** 
 237:./tmk_core/protocol/lufa/lufa.c **** 	Endpoint_SelectEndpoint(RAW_OUT_EPNUM);
 238:./tmk_core/protocol/lufa/lufa.c **** 
 239:./tmk_core/protocol/lufa/lufa.c **** 	// Check to see if a packet has been sent from the host
 240:./tmk_core/protocol/lufa/lufa.c **** 	if (Endpoint_IsOUTReceived())
 241:./tmk_core/protocol/lufa/lufa.c **** 	{
 242:./tmk_core/protocol/lufa/lufa.c **** 		// Check to see if the packet contains data
 243:./tmk_core/protocol/lufa/lufa.c **** 		if (Endpoint_IsReadWriteAllowed())
 244:./tmk_core/protocol/lufa/lufa.c **** 		{
 245:./tmk_core/protocol/lufa/lufa.c **** 			/* Read data */
 246:./tmk_core/protocol/lufa/lufa.c **** 			Endpoint_Read_Stream_LE(data, sizeof(data), NULL);
 247:./tmk_core/protocol/lufa/lufa.c **** 			data_read = true;
 248:./tmk_core/protocol/lufa/lufa.c **** 		}
 249:./tmk_core/protocol/lufa/lufa.c **** 
 250:./tmk_core/protocol/lufa/lufa.c **** 		// Finalize the stream transfer to receive the last packet
 251:./tmk_core/protocol/lufa/lufa.c **** 		Endpoint_ClearOUT();
 252:./tmk_core/protocol/lufa/lufa.c **** 
 253:./tmk_core/protocol/lufa/lufa.c **** 		if ( data_read )
 254:./tmk_core/protocol/lufa/lufa.c **** 		{
 255:./tmk_core/protocol/lufa/lufa.c **** 			raw_hid_receive( data, sizeof(data) );
 256:./tmk_core/protocol/lufa/lufa.c **** 		}
 257:./tmk_core/protocol/lufa/lufa.c **** 	}
 258:./tmk_core/protocol/lufa/lufa.c **** }
 259:./tmk_core/protocol/lufa/lufa.c **** #endif
 260:./tmk_core/protocol/lufa/lufa.c **** 
 261:./tmk_core/protocol/lufa/lufa.c **** /*******************************************************************************
 262:./tmk_core/protocol/lufa/lufa.c ****  * Console
 263:./tmk_core/protocol/lufa/lufa.c ****  ******************************************************************************/
 264:./tmk_core/protocol/lufa/lufa.c **** #ifdef CONSOLE_ENABLE
 265:./tmk_core/protocol/lufa/lufa.c **** static void Console_Task(void)
 266:./tmk_core/protocol/lufa/lufa.c **** {
 267:./tmk_core/protocol/lufa/lufa.c ****     /* Device must be connected and configured for the task to run */
 268:./tmk_core/protocol/lufa/lufa.c ****     if (USB_DeviceState != DEVICE_STATE_Configured)
 269:./tmk_core/protocol/lufa/lufa.c ****         return;
 270:./tmk_core/protocol/lufa/lufa.c **** 
 271:./tmk_core/protocol/lufa/lufa.c ****     uint8_t ep = Endpoint_GetCurrentEndpoint();
 272:./tmk_core/protocol/lufa/lufa.c **** 
 273:./tmk_core/protocol/lufa/lufa.c **** #if 0
 274:./tmk_core/protocol/lufa/lufa.c ****     // TODO: impl receivechar()/recvchar()
 275:./tmk_core/protocol/lufa/lufa.c ****     Endpoint_SelectEndpoint(CONSOLE_OUT_EPNUM);
 276:./tmk_core/protocol/lufa/lufa.c **** 
 277:./tmk_core/protocol/lufa/lufa.c ****     /* Check to see if a packet has been sent from the host */
 278:./tmk_core/protocol/lufa/lufa.c ****     if (Endpoint_IsOUTReceived())
 279:./tmk_core/protocol/lufa/lufa.c ****     {
 280:./tmk_core/protocol/lufa/lufa.c ****         /* Check to see if the packet contains data */
 281:./tmk_core/protocol/lufa/lufa.c ****         if (Endpoint_IsReadWriteAllowed())
 282:./tmk_core/protocol/lufa/lufa.c ****         {
 283:./tmk_core/protocol/lufa/lufa.c ****             /* Create a temporary buffer to hold the read in report from the host */
 284:./tmk_core/protocol/lufa/lufa.c ****             uint8_t ConsoleData[CONSOLE_EPSIZE];
 285:./tmk_core/protocol/lufa/lufa.c **** 
 286:./tmk_core/protocol/lufa/lufa.c ****             /* Read Console Report Data */
 287:./tmk_core/protocol/lufa/lufa.c ****             Endpoint_Read_Stream_LE(&ConsoleData, sizeof(ConsoleData), NULL);
 288:./tmk_core/protocol/lufa/lufa.c **** 
 289:./tmk_core/protocol/lufa/lufa.c ****             /* Process Console Report Data */
 290:./tmk_core/protocol/lufa/lufa.c ****             //ProcessConsoleHIDReport(ConsoleData);
 291:./tmk_core/protocol/lufa/lufa.c ****         }
 292:./tmk_core/protocol/lufa/lufa.c **** 
 293:./tmk_core/protocol/lufa/lufa.c ****         /* Finalize the stream transfer to send the last packet */
 294:./tmk_core/protocol/lufa/lufa.c ****         Endpoint_ClearOUT();
 295:./tmk_core/protocol/lufa/lufa.c ****     }
 296:./tmk_core/protocol/lufa/lufa.c **** #endif
 297:./tmk_core/protocol/lufa/lufa.c **** 
 298:./tmk_core/protocol/lufa/lufa.c ****     /* IN packet */
 299:./tmk_core/protocol/lufa/lufa.c ****     Endpoint_SelectEndpoint(CONSOLE_IN_EPNUM);
 300:./tmk_core/protocol/lufa/lufa.c ****     if (!Endpoint_IsEnabled() || !Endpoint_IsConfigured()) {
 301:./tmk_core/protocol/lufa/lufa.c ****         Endpoint_SelectEndpoint(ep);
 302:./tmk_core/protocol/lufa/lufa.c ****         return;
 303:./tmk_core/protocol/lufa/lufa.c ****     }
 304:./tmk_core/protocol/lufa/lufa.c **** 
 305:./tmk_core/protocol/lufa/lufa.c ****     // fill empty bank
 306:./tmk_core/protocol/lufa/lufa.c ****     while (Endpoint_IsReadWriteAllowed())
 307:./tmk_core/protocol/lufa/lufa.c ****         Endpoint_Write_8(0);
 308:./tmk_core/protocol/lufa/lufa.c **** 
 309:./tmk_core/protocol/lufa/lufa.c ****     // flash senchar packet
 310:./tmk_core/protocol/lufa/lufa.c ****     if (Endpoint_IsINReady()) {
 311:./tmk_core/protocol/lufa/lufa.c ****         Endpoint_ClearIN();
 312:./tmk_core/protocol/lufa/lufa.c ****     }
 313:./tmk_core/protocol/lufa/lufa.c **** 
 314:./tmk_core/protocol/lufa/lufa.c ****     Endpoint_SelectEndpoint(ep);
 315:./tmk_core/protocol/lufa/lufa.c **** }
 316:./tmk_core/protocol/lufa/lufa.c **** #endif
 317:./tmk_core/protocol/lufa/lufa.c **** 
 318:./tmk_core/protocol/lufa/lufa.c **** 
 319:./tmk_core/protocol/lufa/lufa.c **** /*******************************************************************************
 320:./tmk_core/protocol/lufa/lufa.c ****  * USB Events
 321:./tmk_core/protocol/lufa/lufa.c ****  ******************************************************************************/
 322:./tmk_core/protocol/lufa/lufa.c **** /*
 323:./tmk_core/protocol/lufa/lufa.c ****  * Event Order of Plug in:
 324:./tmk_core/protocol/lufa/lufa.c ****  * 0) EVENT_USB_Device_Connect
 325:./tmk_core/protocol/lufa/lufa.c ****  * 1) EVENT_USB_Device_Suspend
 326:./tmk_core/protocol/lufa/lufa.c ****  * 2) EVENT_USB_Device_Reset
 327:./tmk_core/protocol/lufa/lufa.c ****  * 3) EVENT_USB_Device_Wake
 328:./tmk_core/protocol/lufa/lufa.c **** */
 329:./tmk_core/protocol/lufa/lufa.c **** void EVENT_USB_Device_Connect(void)
 330:./tmk_core/protocol/lufa/lufa.c **** {
 331:./tmk_core/protocol/lufa/lufa.c ****     print("[C]");
 332:./tmk_core/protocol/lufa/lufa.c ****     /* For battery powered device */
 333:./tmk_core/protocol/lufa/lufa.c ****     if (!USB_IsInitialized) {
 334:./tmk_core/protocol/lufa/lufa.c ****         USB_Disable();
 335:./tmk_core/protocol/lufa/lufa.c ****         USB_Init();
 336:./tmk_core/protocol/lufa/lufa.c ****         USB_Device_EnableSOFEvents();
 337:./tmk_core/protocol/lufa/lufa.c ****     }
 338:./tmk_core/protocol/lufa/lufa.c **** }
 339:./tmk_core/protocol/lufa/lufa.c **** 
 340:./tmk_core/protocol/lufa/lufa.c **** void EVENT_USB_Device_Disconnect(void)
 341:./tmk_core/protocol/lufa/lufa.c **** {
 342:./tmk_core/protocol/lufa/lufa.c ****     print("[D]");
 343:./tmk_core/protocol/lufa/lufa.c ****     /* For battery powered device */
 344:./tmk_core/protocol/lufa/lufa.c ****     USB_IsInitialized = false;
 345:./tmk_core/protocol/lufa/lufa.c **** /* TODO: This doesn't work. After several plug in/outs can not be enumerated.
 346:./tmk_core/protocol/lufa/lufa.c ****     if (USB_IsInitialized) {
 347:./tmk_core/protocol/lufa/lufa.c ****         USB_Disable();  // Disable all interrupts
 348:./tmk_core/protocol/lufa/lufa.c **** 	USB_Controller_Enable();
 349:./tmk_core/protocol/lufa/lufa.c ****         USB_INT_Enable(USB_INT_VBUSTI);
 350:./tmk_core/protocol/lufa/lufa.c ****     }
 351:./tmk_core/protocol/lufa/lufa.c **** */
 352:./tmk_core/protocol/lufa/lufa.c **** }
 353:./tmk_core/protocol/lufa/lufa.c **** 
 354:./tmk_core/protocol/lufa/lufa.c **** void EVENT_USB_Device_Reset(void)
 355:./tmk_core/protocol/lufa/lufa.c **** {
 356:./tmk_core/protocol/lufa/lufa.c ****     print("[R]");
 357:./tmk_core/protocol/lufa/lufa.c **** }
 358:./tmk_core/protocol/lufa/lufa.c **** 
 359:./tmk_core/protocol/lufa/lufa.c **** void EVENT_USB_Device_Suspend()
 360:./tmk_core/protocol/lufa/lufa.c **** {
 361:./tmk_core/protocol/lufa/lufa.c ****     print("[S]");
 362:./tmk_core/protocol/lufa/lufa.c **** #ifdef SLEEP_LED_ENABLE
 363:./tmk_core/protocol/lufa/lufa.c ****     sleep_led_enable();
 364:./tmk_core/protocol/lufa/lufa.c **** #endif
 365:./tmk_core/protocol/lufa/lufa.c **** }
 366:./tmk_core/protocol/lufa/lufa.c **** 
 367:./tmk_core/protocol/lufa/lufa.c **** void EVENT_USB_Device_WakeUp()
 368:./tmk_core/protocol/lufa/lufa.c **** {
 369:./tmk_core/protocol/lufa/lufa.c ****     print("[W]");
 370:./tmk_core/protocol/lufa/lufa.c ****     suspend_wakeup_init();
 371:./tmk_core/protocol/lufa/lufa.c **** 
 372:./tmk_core/protocol/lufa/lufa.c **** #ifdef SLEEP_LED_ENABLE
 373:./tmk_core/protocol/lufa/lufa.c ****     sleep_led_disable();
 374:./tmk_core/protocol/lufa/lufa.c ****     // NOTE: converters may not accept this
 375:./tmk_core/protocol/lufa/lufa.c ****     led_set(host_keyboard_leds());
 376:./tmk_core/protocol/lufa/lufa.c **** #endif
 377:./tmk_core/protocol/lufa/lufa.c **** }
 378:./tmk_core/protocol/lufa/lufa.c **** 
 379:./tmk_core/protocol/lufa/lufa.c **** 
 380:./tmk_core/protocol/lufa/lufa.c **** 
 381:./tmk_core/protocol/lufa/lufa.c **** #ifdef CONSOLE_ENABLE
 382:./tmk_core/protocol/lufa/lufa.c **** static bool console_flush = false;
 383:./tmk_core/protocol/lufa/lufa.c **** #define CONSOLE_FLUSH_SET(b)   do { \
 384:./tmk_core/protocol/lufa/lufa.c ****   ATOMIC_BLOCK(ATOMIC_RESTORESTATE) {\
 385:./tmk_core/protocol/lufa/lufa.c ****     console_flush = b; \
 386:./tmk_core/protocol/lufa/lufa.c ****   } \
 387:./tmk_core/protocol/lufa/lufa.c **** } while (0)
 388:./tmk_core/protocol/lufa/lufa.c **** 
 389:./tmk_core/protocol/lufa/lufa.c **** // called every 1ms
 390:./tmk_core/protocol/lufa/lufa.c **** void EVENT_USB_Device_StartOfFrame(void)
 391:./tmk_core/protocol/lufa/lufa.c **** {
 392:./tmk_core/protocol/lufa/lufa.c ****     static uint8_t count;
 393:./tmk_core/protocol/lufa/lufa.c ****     if (++count % 50) return;
 394:./tmk_core/protocol/lufa/lufa.c ****     count = 0;
 395:./tmk_core/protocol/lufa/lufa.c **** 
 396:./tmk_core/protocol/lufa/lufa.c ****     if (!console_flush) return;
 397:./tmk_core/protocol/lufa/lufa.c ****     Console_Task();
 398:./tmk_core/protocol/lufa/lufa.c ****     console_flush = false;
 399:./tmk_core/protocol/lufa/lufa.c **** }
 400:./tmk_core/protocol/lufa/lufa.c **** 
 401:./tmk_core/protocol/lufa/lufa.c **** #endif
 402:./tmk_core/protocol/lufa/lufa.c **** 
 403:./tmk_core/protocol/lufa/lufa.c **** /** Event handler for the USB_ConfigurationChanged event.
 404:./tmk_core/protocol/lufa/lufa.c ****  * This is fired when the host sets the current configuration of the USB device after enumeration.
 405:./tmk_core/protocol/lufa/lufa.c ****  *
 406:./tmk_core/protocol/lufa/lufa.c ****  * ATMega32u2 supports dual bank(ping-pong mode) only on endpoint 3 and 4,
 407:./tmk_core/protocol/lufa/lufa.c ****  * it is safe to use singl bank for all endpoints.
 408:./tmk_core/protocol/lufa/lufa.c ****  */
 409:./tmk_core/protocol/lufa/lufa.c **** void EVENT_USB_Device_ConfigurationChanged(void)
 410:./tmk_core/protocol/lufa/lufa.c **** {
 411:./tmk_core/protocol/lufa/lufa.c ****     bool ConfigSuccess = true;
 412:./tmk_core/protocol/lufa/lufa.c **** 
 413:./tmk_core/protocol/lufa/lufa.c ****     /* Setup Keyboard HID Report Endpoints */
 414:./tmk_core/protocol/lufa/lufa.c ****     ConfigSuccess &= ENDPOINT_CONFIG(KEYBOARD_IN_EPNUM, EP_TYPE_INTERRUPT, ENDPOINT_DIR_IN,
 415:./tmk_core/protocol/lufa/lufa.c ****                                      KEYBOARD_EPSIZE, ENDPOINT_BANK_SINGLE);
 416:./tmk_core/protocol/lufa/lufa.c **** 
 417:./tmk_core/protocol/lufa/lufa.c **** #ifdef MOUSE_ENABLE
 418:./tmk_core/protocol/lufa/lufa.c ****     /* Setup Mouse HID Report Endpoint */
 419:./tmk_core/protocol/lufa/lufa.c ****     ConfigSuccess &= ENDPOINT_CONFIG(MOUSE_IN_EPNUM, EP_TYPE_INTERRUPT, ENDPOINT_DIR_IN,
 420:./tmk_core/protocol/lufa/lufa.c ****                                      MOUSE_EPSIZE, ENDPOINT_BANK_SINGLE);
 421:./tmk_core/protocol/lufa/lufa.c **** #endif
 422:./tmk_core/protocol/lufa/lufa.c **** 
 423:./tmk_core/protocol/lufa/lufa.c **** #ifdef EXTRAKEY_ENABLE
 424:./tmk_core/protocol/lufa/lufa.c ****     /* Setup Extra HID Report Endpoint */
 425:./tmk_core/protocol/lufa/lufa.c ****     ConfigSuccess &= ENDPOINT_CONFIG(EXTRAKEY_IN_EPNUM, EP_TYPE_INTERRUPT, ENDPOINT_DIR_IN,
 426:./tmk_core/protocol/lufa/lufa.c ****                                      EXTRAKEY_EPSIZE, ENDPOINT_BANK_SINGLE);
 427:./tmk_core/protocol/lufa/lufa.c **** #endif
 428:./tmk_core/protocol/lufa/lufa.c **** 
 429:./tmk_core/protocol/lufa/lufa.c **** #ifdef RAW_ENABLE
 430:./tmk_core/protocol/lufa/lufa.c ****     /* Setup Raw HID Report Endpoints */
 431:./tmk_core/protocol/lufa/lufa.c ****     ConfigSuccess &= ENDPOINT_CONFIG(RAW_IN_EPNUM, EP_TYPE_INTERRUPT, ENDPOINT_DIR_IN,
 432:./tmk_core/protocol/lufa/lufa.c **** 									 RAW_EPSIZE, ENDPOINT_BANK_SINGLE);
 433:./tmk_core/protocol/lufa/lufa.c ****     ConfigSuccess &= ENDPOINT_CONFIG(RAW_OUT_EPNUM, EP_TYPE_INTERRUPT, ENDPOINT_DIR_OUT,
 434:./tmk_core/protocol/lufa/lufa.c **** 									 RAW_EPSIZE, ENDPOINT_BANK_SINGLE);
 435:./tmk_core/protocol/lufa/lufa.c **** #endif
 436:./tmk_core/protocol/lufa/lufa.c **** 
 437:./tmk_core/protocol/lufa/lufa.c **** #ifdef CONSOLE_ENABLE
 438:./tmk_core/protocol/lufa/lufa.c ****     /* Setup Console HID Report Endpoints */
 439:./tmk_core/protocol/lufa/lufa.c ****     ConfigSuccess &= ENDPOINT_CONFIG(CONSOLE_IN_EPNUM, EP_TYPE_INTERRUPT, ENDPOINT_DIR_IN,
 440:./tmk_core/protocol/lufa/lufa.c ****                                      CONSOLE_EPSIZE, ENDPOINT_BANK_SINGLE);
 441:./tmk_core/protocol/lufa/lufa.c **** #if 0
 442:./tmk_core/protocol/lufa/lufa.c ****     ConfigSuccess &= ENDPOINT_CONFIG(CONSOLE_OUT_EPNUM, EP_TYPE_INTERRUPT, ENDPOINT_DIR_OUT,
 443:./tmk_core/protocol/lufa/lufa.c ****                                      CONSOLE_EPSIZE, ENDPOINT_BANK_SINGLE);
 444:./tmk_core/protocol/lufa/lufa.c **** #endif
 445:./tmk_core/protocol/lufa/lufa.c **** #endif
 446:./tmk_core/protocol/lufa/lufa.c **** 
 447:./tmk_core/protocol/lufa/lufa.c **** #ifdef NKRO_ENABLE
 448:./tmk_core/protocol/lufa/lufa.c ****     /* Setup NKRO HID Report Endpoints */
 449:./tmk_core/protocol/lufa/lufa.c ****     ConfigSuccess &= ENDPOINT_CONFIG(NKRO_IN_EPNUM, EP_TYPE_INTERRUPT, ENDPOINT_DIR_IN,
 450:./tmk_core/protocol/lufa/lufa.c ****                                      NKRO_EPSIZE, ENDPOINT_BANK_SINGLE);
 451:./tmk_core/protocol/lufa/lufa.c **** #endif
 452:./tmk_core/protocol/lufa/lufa.c **** 
 453:./tmk_core/protocol/lufa/lufa.c **** #ifdef MIDI_ENABLE
 454:./tmk_core/protocol/lufa/lufa.c ****     ConfigSuccess &= Endpoint_ConfigureEndpoint(MIDI_STREAM_IN_EPADDR, EP_TYPE_BULK, MIDI_STREAM_EP
 455:./tmk_core/protocol/lufa/lufa.c ****     ConfigSuccess &= Endpoint_ConfigureEndpoint(MIDI_STREAM_OUT_EPADDR, EP_TYPE_BULK, MIDI_STREAM_E
 456:./tmk_core/protocol/lufa/lufa.c **** #endif
 457:./tmk_core/protocol/lufa/lufa.c **** 
 458:./tmk_core/protocol/lufa/lufa.c **** #ifdef VIRTSER_ENABLE
 459:./tmk_core/protocol/lufa/lufa.c ****     ConfigSuccess &= Endpoint_ConfigureEndpoint(CDC_NOTIFICATION_EPADDR, EP_TYPE_INTERRUPT, CDC_NOT
 460:./tmk_core/protocol/lufa/lufa.c ****     ConfigSuccess &= Endpoint_ConfigureEndpoint(CDC_OUT_EPADDR, EP_TYPE_BULK, CDC_EPSIZE, ENDPOINT_
 461:./tmk_core/protocol/lufa/lufa.c ****     ConfigSuccess &= Endpoint_ConfigureEndpoint(CDC_IN_EPADDR, EP_TYPE_BULK, CDC_EPSIZE, ENDPOINT_B
 462:./tmk_core/protocol/lufa/lufa.c **** #endif
 463:./tmk_core/protocol/lufa/lufa.c **** }
 464:./tmk_core/protocol/lufa/lufa.c **** 
 465:./tmk_core/protocol/lufa/lufa.c **** /*
 466:./tmk_core/protocol/lufa/lufa.c **** Appendix G: HID Request Support Requirements
 467:./tmk_core/protocol/lufa/lufa.c **** 
 468:./tmk_core/protocol/lufa/lufa.c **** The following table enumerates the requests that need to be supported by various types of HID class
 469:./tmk_core/protocol/lufa/lufa.c **** 
 470:./tmk_core/protocol/lufa/lufa.c **** Device type     GetReport   SetReport   GetIdle     SetIdle     GetProtocol SetProtocol
 471:./tmk_core/protocol/lufa/lufa.c **** ------------------------------------------------------------------------------------------
 472:./tmk_core/protocol/lufa/lufa.c **** Boot Mouse      Required    Optional    Optional    Optional    Required    Required
 473:./tmk_core/protocol/lufa/lufa.c **** Non-Boot Mouse  Required    Optional    Optional    Optional    Optional    Optional
 474:./tmk_core/protocol/lufa/lufa.c **** Boot Keyboard   Required    Optional    Required    Required    Required    Required
 475:./tmk_core/protocol/lufa/lufa.c **** Non-Boot Keybrd Required    Optional    Required    Required    Optional    Optional
 476:./tmk_core/protocol/lufa/lufa.c **** Other Device    Required    Optional    Optional    Optional    Optional    Optional
 477:./tmk_core/protocol/lufa/lufa.c **** */
 478:./tmk_core/protocol/lufa/lufa.c **** /** Event handler for the USB_ControlRequest event.
 479:./tmk_core/protocol/lufa/lufa.c ****  *  This is fired before passing along unhandled control requests to the library for processing int
 480:./tmk_core/protocol/lufa/lufa.c ****  */
 481:./tmk_core/protocol/lufa/lufa.c **** void EVENT_USB_Device_ControlRequest(void)
 482:./tmk_core/protocol/lufa/lufa.c **** {
 483:./tmk_core/protocol/lufa/lufa.c ****     uint8_t* ReportData = NULL;
 484:./tmk_core/protocol/lufa/lufa.c ****     uint8_t  ReportSize = 0;
 485:./tmk_core/protocol/lufa/lufa.c **** 
 486:./tmk_core/protocol/lufa/lufa.c ****     /* Handle HID Class specific requests */
 487:./tmk_core/protocol/lufa/lufa.c ****     switch (USB_ControlRequest.bRequest)
 488:./tmk_core/protocol/lufa/lufa.c ****     {
 489:./tmk_core/protocol/lufa/lufa.c ****         case HID_REQ_GetReport:
 490:./tmk_core/protocol/lufa/lufa.c ****             if (USB_ControlRequest.bmRequestType == (REQDIR_DEVICETOHOST | REQTYPE_CLASS | REQREC_I
 491:./tmk_core/protocol/lufa/lufa.c ****             {
 492:./tmk_core/protocol/lufa/lufa.c ****                 Endpoint_ClearSETUP();
 493:./tmk_core/protocol/lufa/lufa.c **** 
 494:./tmk_core/protocol/lufa/lufa.c ****                 // Interface
 495:./tmk_core/protocol/lufa/lufa.c ****                 switch (USB_ControlRequest.wIndex) {
 496:./tmk_core/protocol/lufa/lufa.c ****                 case KEYBOARD_INTERFACE:
 497:./tmk_core/protocol/lufa/lufa.c ****                     // TODO: test/check
 498:./tmk_core/protocol/lufa/lufa.c ****                     ReportData = (uint8_t*)&keyboard_report_sent;
 499:./tmk_core/protocol/lufa/lufa.c ****                     ReportSize = sizeof(keyboard_report_sent);
 500:./tmk_core/protocol/lufa/lufa.c ****                     break;
 501:./tmk_core/protocol/lufa/lufa.c ****                 }
 502:./tmk_core/protocol/lufa/lufa.c **** 
 503:./tmk_core/protocol/lufa/lufa.c ****                 /* Write the report data to the control endpoint */
 504:./tmk_core/protocol/lufa/lufa.c ****                 Endpoint_Write_Control_Stream_LE(ReportData, ReportSize);
 505:./tmk_core/protocol/lufa/lufa.c ****                 Endpoint_ClearOUT();
 506:./tmk_core/protocol/lufa/lufa.c ****             }
 507:./tmk_core/protocol/lufa/lufa.c **** 
 508:./tmk_core/protocol/lufa/lufa.c ****             break;
 509:./tmk_core/protocol/lufa/lufa.c ****         case HID_REQ_SetReport:
 510:./tmk_core/protocol/lufa/lufa.c ****             if (USB_ControlRequest.bmRequestType == (REQDIR_HOSTTODEVICE | REQTYPE_CLASS | REQREC_I
 511:./tmk_core/protocol/lufa/lufa.c ****             {
 512:./tmk_core/protocol/lufa/lufa.c **** 
 513:./tmk_core/protocol/lufa/lufa.c ****                 // Interface
 514:./tmk_core/protocol/lufa/lufa.c ****                 switch (USB_ControlRequest.wIndex) {
 515:./tmk_core/protocol/lufa/lufa.c ****                 case KEYBOARD_INTERFACE:
 516:./tmk_core/protocol/lufa/lufa.c **** #ifdef NKRO_ENABLE
 517:./tmk_core/protocol/lufa/lufa.c ****                 case NKRO_INTERFACE:
 518:./tmk_core/protocol/lufa/lufa.c **** #endif
 519:./tmk_core/protocol/lufa/lufa.c ****                     Endpoint_ClearSETUP();
 520:./tmk_core/protocol/lufa/lufa.c **** 
 521:./tmk_core/protocol/lufa/lufa.c ****                     while (!(Endpoint_IsOUTReceived())) {
 522:./tmk_core/protocol/lufa/lufa.c ****                         if (USB_DeviceState == DEVICE_STATE_Unattached)
 523:./tmk_core/protocol/lufa/lufa.c ****                           return;
 524:./tmk_core/protocol/lufa/lufa.c ****                     }
 525:./tmk_core/protocol/lufa/lufa.c ****                     keyboard_led_stats = Endpoint_Read_8();
 526:./tmk_core/protocol/lufa/lufa.c **** 
 527:./tmk_core/protocol/lufa/lufa.c ****                     Endpoint_ClearOUT();
 528:./tmk_core/protocol/lufa/lufa.c ****                     Endpoint_ClearStatusStage();
 529:./tmk_core/protocol/lufa/lufa.c ****                     break;
 530:./tmk_core/protocol/lufa/lufa.c ****                 }
 531:./tmk_core/protocol/lufa/lufa.c **** 
 532:./tmk_core/protocol/lufa/lufa.c ****             }
 533:./tmk_core/protocol/lufa/lufa.c **** 
 534:./tmk_core/protocol/lufa/lufa.c ****             break;
 535:./tmk_core/protocol/lufa/lufa.c **** 
 536:./tmk_core/protocol/lufa/lufa.c ****         case HID_REQ_GetProtocol:
 537:./tmk_core/protocol/lufa/lufa.c ****             if (USB_ControlRequest.bmRequestType == (REQDIR_DEVICETOHOST | REQTYPE_CLASS | REQREC_I
 538:./tmk_core/protocol/lufa/lufa.c ****             {
 539:./tmk_core/protocol/lufa/lufa.c ****                 if (USB_ControlRequest.wIndex == KEYBOARD_INTERFACE) {
 540:./tmk_core/protocol/lufa/lufa.c ****                     Endpoint_ClearSETUP();
 541:./tmk_core/protocol/lufa/lufa.c ****                     while (!(Endpoint_IsINReady()));
 542:./tmk_core/protocol/lufa/lufa.c ****                     Endpoint_Write_8(keyboard_protocol);
 543:./tmk_core/protocol/lufa/lufa.c ****                     Endpoint_ClearIN();
 544:./tmk_core/protocol/lufa/lufa.c ****                     Endpoint_ClearStatusStage();
 545:./tmk_core/protocol/lufa/lufa.c ****                 }
 546:./tmk_core/protocol/lufa/lufa.c ****             }
 547:./tmk_core/protocol/lufa/lufa.c **** 
 548:./tmk_core/protocol/lufa/lufa.c ****             break;
 549:./tmk_core/protocol/lufa/lufa.c ****         case HID_REQ_SetProtocol:
 550:./tmk_core/protocol/lufa/lufa.c ****             if (USB_ControlRequest.bmRequestType == (REQDIR_HOSTTODEVICE | REQTYPE_CLASS | REQREC_I
 551:./tmk_core/protocol/lufa/lufa.c ****             {
 552:./tmk_core/protocol/lufa/lufa.c ****                 if (USB_ControlRequest.wIndex == KEYBOARD_INTERFACE) {
 553:./tmk_core/protocol/lufa/lufa.c ****                     Endpoint_ClearSETUP();
 554:./tmk_core/protocol/lufa/lufa.c ****                     Endpoint_ClearStatusStage();
 555:./tmk_core/protocol/lufa/lufa.c **** 
 556:./tmk_core/protocol/lufa/lufa.c ****                     keyboard_protocol = (USB_ControlRequest.wValue & 0xFF);
 557:./tmk_core/protocol/lufa/lufa.c ****                     clear_keyboard();
 558:./tmk_core/protocol/lufa/lufa.c ****                 }
 559:./tmk_core/protocol/lufa/lufa.c ****             }
 560:./tmk_core/protocol/lufa/lufa.c **** 
 561:./tmk_core/protocol/lufa/lufa.c ****             break;
 562:./tmk_core/protocol/lufa/lufa.c ****         case HID_REQ_SetIdle:
 563:./tmk_core/protocol/lufa/lufa.c ****             if (USB_ControlRequest.bmRequestType == (REQDIR_HOSTTODEVICE | REQTYPE_CLASS | REQREC_I
 564:./tmk_core/protocol/lufa/lufa.c ****             {
 565:./tmk_core/protocol/lufa/lufa.c ****                 Endpoint_ClearSETUP();
 566:./tmk_core/protocol/lufa/lufa.c ****                 Endpoint_ClearStatusStage();
 567:./tmk_core/protocol/lufa/lufa.c **** 
 568:./tmk_core/protocol/lufa/lufa.c ****                 keyboard_idle = ((USB_ControlRequest.wValue & 0xFF00) >> 8);
 569:./tmk_core/protocol/lufa/lufa.c ****             }
 570:./tmk_core/protocol/lufa/lufa.c **** 
 571:./tmk_core/protocol/lufa/lufa.c ****             break;
 572:./tmk_core/protocol/lufa/lufa.c ****         case HID_REQ_GetIdle:
 573:./tmk_core/protocol/lufa/lufa.c ****             if (USB_ControlRequest.bmRequestType == (REQDIR_DEVICETOHOST | REQTYPE_CLASS | REQREC_I
 574:./tmk_core/protocol/lufa/lufa.c ****             {
 575:./tmk_core/protocol/lufa/lufa.c ****                 Endpoint_ClearSETUP();
 576:./tmk_core/protocol/lufa/lufa.c ****                 while (!(Endpoint_IsINReady()));
 577:./tmk_core/protocol/lufa/lufa.c ****                 Endpoint_Write_8(keyboard_idle);
 578:./tmk_core/protocol/lufa/lufa.c ****                 Endpoint_ClearIN();
 579:./tmk_core/protocol/lufa/lufa.c ****                 Endpoint_ClearStatusStage();
 580:./tmk_core/protocol/lufa/lufa.c ****             }
 581:./tmk_core/protocol/lufa/lufa.c **** 
 582:./tmk_core/protocol/lufa/lufa.c ****             break;
 583:./tmk_core/protocol/lufa/lufa.c ****     }
 584:./tmk_core/protocol/lufa/lufa.c **** 
 585:./tmk_core/protocol/lufa/lufa.c **** #ifdef VIRTSER_ENABLE
 586:./tmk_core/protocol/lufa/lufa.c ****     CDC_Device_ProcessControlRequest(&cdc_device);
 587:./tmk_core/protocol/lufa/lufa.c **** #endif
 588:./tmk_core/protocol/lufa/lufa.c **** }
 589:./tmk_core/protocol/lufa/lufa.c **** 
 590:./tmk_core/protocol/lufa/lufa.c **** /*******************************************************************************
 591:./tmk_core/protocol/lufa/lufa.c ****  * Host driver
 592:./tmk_core/protocol/lufa/lufa.c **** p
 593:./tmk_core/protocol/lufa/lufa.c ****  ******************************************************************************/
 594:./tmk_core/protocol/lufa/lufa.c **** static uint8_t keyboard_leds(void)
 595:./tmk_core/protocol/lufa/lufa.c **** {
  16               		.loc 1 595 1 view -0
  17               		.cfi_startproc
  18               	/* prologue: function */
  19               	/* frame size = 0 */
  20               	/* stack size = 0 */
  21               	.L__stack_usage = 0
 596:./tmk_core/protocol/lufa/lufa.c ****     return keyboard_led_stats;
  22               		.loc 1 596 5 view .LVU1
 597:./tmk_core/protocol/lufa/lufa.c **** }
  23               		.loc 1 597 1 is_stmt 0 view .LVU2
  24 0000 8091 0000 		lds r24,keyboard_led_stats
  25               	/* epilogue start */
  26 0004 0895      		ret
  27               		.cfi_endproc
  28               	.LFE128:
  30               		.section	.text.send_consumer,"ax",@progbits
  32               	send_consumer:
  33               	.LVL0:
  34               	.LFB133:
 598:./tmk_core/protocol/lufa/lufa.c **** 
 599:./tmk_core/protocol/lufa/lufa.c **** #define SendToUSB 1
 600:./tmk_core/protocol/lufa/lufa.c **** #define SendToBT  2
 601:./tmk_core/protocol/lufa/lufa.c **** #define SendToBLE 4
 602:./tmk_core/protocol/lufa/lufa.c **** 
 603:./tmk_core/protocol/lufa/lufa.c **** static inline uint8_t where_to_send(void) {
 604:./tmk_core/protocol/lufa/lufa.c **** #ifdef ADAFRUIT_BLE_ENABLE
 605:./tmk_core/protocol/lufa/lufa.c **** #if 0
 606:./tmk_core/protocol/lufa/lufa.c ****   if (adafruit_ble_is_connected()) {
 607:./tmk_core/protocol/lufa/lufa.c ****     // For testing, send to BLE as a priority
 608:./tmk_core/protocol/lufa/lufa.c ****     return SendToBLE;
 609:./tmk_core/protocol/lufa/lufa.c ****   }
 610:./tmk_core/protocol/lufa/lufa.c **** #endif
 611:./tmk_core/protocol/lufa/lufa.c **** 
 612:./tmk_core/protocol/lufa/lufa.c ****   // This is the real policy
 613:./tmk_core/protocol/lufa/lufa.c ****   if (USB_DeviceState != DEVICE_STATE_Configured) {
 614:./tmk_core/protocol/lufa/lufa.c ****     if (adafruit_ble_is_connected()) {
 615:./tmk_core/protocol/lufa/lufa.c ****       return SendToBLE;
 616:./tmk_core/protocol/lufa/lufa.c ****     }
 617:./tmk_core/protocol/lufa/lufa.c ****   }
 618:./tmk_core/protocol/lufa/lufa.c **** #endif
 619:./tmk_core/protocol/lufa/lufa.c ****   return ((USB_DeviceState == DEVICE_STATE_Configured) ? SendToUSB : 0)
 620:./tmk_core/protocol/lufa/lufa.c **** #ifdef BLUETOOTH_ENABLE
 621:./tmk_core/protocol/lufa/lufa.c ****     || SendToBT
 622:./tmk_core/protocol/lufa/lufa.c **** #endif
 623:./tmk_core/protocol/lufa/lufa.c ****     ;
 624:./tmk_core/protocol/lufa/lufa.c **** }
 625:./tmk_core/protocol/lufa/lufa.c **** 
 626:./tmk_core/protocol/lufa/lufa.c **** static void send_keyboard(report_keyboard_t *report)
 627:./tmk_core/protocol/lufa/lufa.c **** {
 628:./tmk_core/protocol/lufa/lufa.c **** #ifdef BLUETOOTH_ENABLE
 629:./tmk_core/protocol/lufa/lufa.c ****     bluefruit_serial_send(0xFD);
 630:./tmk_core/protocol/lufa/lufa.c ****     for (uint8_t i = 0; i < KEYBOARD_EPSIZE; i++) {
 631:./tmk_core/protocol/lufa/lufa.c ****         bluefruit_serial_send(report->raw[i]);
 632:./tmk_core/protocol/lufa/lufa.c ****     }
 633:./tmk_core/protocol/lufa/lufa.c **** #endif
 634:./tmk_core/protocol/lufa/lufa.c **** 
 635:./tmk_core/protocol/lufa/lufa.c ****     uint8_t timeout = 255;
 636:./tmk_core/protocol/lufa/lufa.c ****     uint8_t where = where_to_send();
 637:./tmk_core/protocol/lufa/lufa.c **** 
 638:./tmk_core/protocol/lufa/lufa.c **** #ifdef ADAFRUIT_BLE_ENABLE
 639:./tmk_core/protocol/lufa/lufa.c ****     if (where & SendToBLE) {
 640:./tmk_core/protocol/lufa/lufa.c ****       adafruit_ble_send_keys(report->mods, report->keys, sizeof(report->keys));
 641:./tmk_core/protocol/lufa/lufa.c ****     }
 642:./tmk_core/protocol/lufa/lufa.c **** #endif
 643:./tmk_core/protocol/lufa/lufa.c **** 
 644:./tmk_core/protocol/lufa/lufa.c ****     if (!(where & SendToUSB)) {
 645:./tmk_core/protocol/lufa/lufa.c ****       return;
 646:./tmk_core/protocol/lufa/lufa.c ****     }
 647:./tmk_core/protocol/lufa/lufa.c **** 
 648:./tmk_core/protocol/lufa/lufa.c ****     /* Select the Keyboard Report Endpoint */
 649:./tmk_core/protocol/lufa/lufa.c **** #ifdef NKRO_ENABLE
 650:./tmk_core/protocol/lufa/lufa.c ****     if (keyboard_protocol && keymap_config.nkro) {
 651:./tmk_core/protocol/lufa/lufa.c ****         /* Report protocol - NKRO */
 652:./tmk_core/protocol/lufa/lufa.c ****         Endpoint_SelectEndpoint(NKRO_IN_EPNUM);
 653:./tmk_core/protocol/lufa/lufa.c **** 
 654:./tmk_core/protocol/lufa/lufa.c ****         /* Check if write ready for a polling interval around 1ms */
 655:./tmk_core/protocol/lufa/lufa.c ****         while (timeout-- && !Endpoint_IsReadWriteAllowed()) _delay_us(4);
 656:./tmk_core/protocol/lufa/lufa.c ****         if (!Endpoint_IsReadWriteAllowed()) return;
 657:./tmk_core/protocol/lufa/lufa.c **** 
 658:./tmk_core/protocol/lufa/lufa.c ****         /* Write Keyboard Report Data */
 659:./tmk_core/protocol/lufa/lufa.c ****         Endpoint_Write_Stream_LE(report, NKRO_EPSIZE, NULL);
 660:./tmk_core/protocol/lufa/lufa.c ****     }
 661:./tmk_core/protocol/lufa/lufa.c ****     else
 662:./tmk_core/protocol/lufa/lufa.c **** #endif
 663:./tmk_core/protocol/lufa/lufa.c ****     {
 664:./tmk_core/protocol/lufa/lufa.c ****         /* Boot protocol */
 665:./tmk_core/protocol/lufa/lufa.c ****         Endpoint_SelectEndpoint(KEYBOARD_IN_EPNUM);
 666:./tmk_core/protocol/lufa/lufa.c **** 
 667:./tmk_core/protocol/lufa/lufa.c ****         /* Check if write ready for a polling interval around 10ms */
 668:./tmk_core/protocol/lufa/lufa.c ****         while (timeout-- && !Endpoint_IsReadWriteAllowed()) _delay_us(40);
 669:./tmk_core/protocol/lufa/lufa.c ****         if (!Endpoint_IsReadWriteAllowed()) return;
 670:./tmk_core/protocol/lufa/lufa.c **** 
 671:./tmk_core/protocol/lufa/lufa.c ****         /* Write Keyboard Report Data */
 672:./tmk_core/protocol/lufa/lufa.c ****         Endpoint_Write_Stream_LE(report, KEYBOARD_EPSIZE, NULL);
 673:./tmk_core/protocol/lufa/lufa.c ****     }
 674:./tmk_core/protocol/lufa/lufa.c **** 
 675:./tmk_core/protocol/lufa/lufa.c ****     /* Finalize the stream transfer to send the last packet */
 676:./tmk_core/protocol/lufa/lufa.c ****     Endpoint_ClearIN();
 677:./tmk_core/protocol/lufa/lufa.c **** 
 678:./tmk_core/protocol/lufa/lufa.c ****     keyboard_report_sent = *report;
 679:./tmk_core/protocol/lufa/lufa.c **** }
 680:./tmk_core/protocol/lufa/lufa.c **** 
 681:./tmk_core/protocol/lufa/lufa.c **** static void send_mouse(report_mouse_t *report)
 682:./tmk_core/protocol/lufa/lufa.c **** {
 683:./tmk_core/protocol/lufa/lufa.c **** #ifdef MOUSE_ENABLE
 684:./tmk_core/protocol/lufa/lufa.c **** 
 685:./tmk_core/protocol/lufa/lufa.c **** #ifdef BLUETOOTH_ENABLE
 686:./tmk_core/protocol/lufa/lufa.c ****     bluefruit_serial_send(0xFD);
 687:./tmk_core/protocol/lufa/lufa.c ****     bluefruit_serial_send(0x00);
 688:./tmk_core/protocol/lufa/lufa.c ****     bluefruit_serial_send(0x03);
 689:./tmk_core/protocol/lufa/lufa.c ****     bluefruit_serial_send(report->buttons);
 690:./tmk_core/protocol/lufa/lufa.c ****     bluefruit_serial_send(report->x);
 691:./tmk_core/protocol/lufa/lufa.c ****     bluefruit_serial_send(report->y);
 692:./tmk_core/protocol/lufa/lufa.c ****     bluefruit_serial_send(report->v); // should try sending the wheel v here
 693:./tmk_core/protocol/lufa/lufa.c ****     bluefruit_serial_send(report->h); // should try sending the wheel h here
 694:./tmk_core/protocol/lufa/lufa.c ****     bluefruit_serial_send(0x00);
 695:./tmk_core/protocol/lufa/lufa.c **** #endif
 696:./tmk_core/protocol/lufa/lufa.c **** 
 697:./tmk_core/protocol/lufa/lufa.c ****     uint8_t timeout = 255;
 698:./tmk_core/protocol/lufa/lufa.c **** 
 699:./tmk_core/protocol/lufa/lufa.c ****     uint8_t where = where_to_send();
 700:./tmk_core/protocol/lufa/lufa.c **** 
 701:./tmk_core/protocol/lufa/lufa.c **** #ifdef ADAFRUIT_BLE_ENABLE
 702:./tmk_core/protocol/lufa/lufa.c ****     if (where & SendToBLE) {
 703:./tmk_core/protocol/lufa/lufa.c ****       // FIXME: mouse buttons
 704:./tmk_core/protocol/lufa/lufa.c ****       adafruit_ble_send_mouse_move(report->x, report->y, report->v, report->h);
 705:./tmk_core/protocol/lufa/lufa.c ****     }
 706:./tmk_core/protocol/lufa/lufa.c **** #endif
 707:./tmk_core/protocol/lufa/lufa.c ****     if (!(where & SendToUSB)) {
 708:./tmk_core/protocol/lufa/lufa.c ****       return;
 709:./tmk_core/protocol/lufa/lufa.c ****     }
 710:./tmk_core/protocol/lufa/lufa.c **** 
 711:./tmk_core/protocol/lufa/lufa.c ****     /* Select the Mouse Report Endpoint */
 712:./tmk_core/protocol/lufa/lufa.c ****     Endpoint_SelectEndpoint(MOUSE_IN_EPNUM);
 713:./tmk_core/protocol/lufa/lufa.c **** 
 714:./tmk_core/protocol/lufa/lufa.c ****     /* Check if write ready for a polling interval around 10ms */
 715:./tmk_core/protocol/lufa/lufa.c ****     while (timeout-- && !Endpoint_IsReadWriteAllowed()) _delay_us(40);
 716:./tmk_core/protocol/lufa/lufa.c ****     if (!Endpoint_IsReadWriteAllowed()) return;
 717:./tmk_core/protocol/lufa/lufa.c **** 
 718:./tmk_core/protocol/lufa/lufa.c ****     /* Write Mouse Report Data */
 719:./tmk_core/protocol/lufa/lufa.c ****     Endpoint_Write_Stream_LE(report, sizeof(report_mouse_t), NULL);
 720:./tmk_core/protocol/lufa/lufa.c **** 
 721:./tmk_core/protocol/lufa/lufa.c ****     /* Finalize the stream transfer to send the last packet */
 722:./tmk_core/protocol/lufa/lufa.c ****     Endpoint_ClearIN();
 723:./tmk_core/protocol/lufa/lufa.c **** #endif
 724:./tmk_core/protocol/lufa/lufa.c **** }
 725:./tmk_core/protocol/lufa/lufa.c **** 
 726:./tmk_core/protocol/lufa/lufa.c **** static void send_system(uint16_t data)
 727:./tmk_core/protocol/lufa/lufa.c **** {
 728:./tmk_core/protocol/lufa/lufa.c ****     uint8_t timeout = 255;
 729:./tmk_core/protocol/lufa/lufa.c **** 
 730:./tmk_core/protocol/lufa/lufa.c ****     if (USB_DeviceState != DEVICE_STATE_Configured)
 731:./tmk_core/protocol/lufa/lufa.c ****         return;
 732:./tmk_core/protocol/lufa/lufa.c **** 
 733:./tmk_core/protocol/lufa/lufa.c ****     report_extra_t r = {
 734:./tmk_core/protocol/lufa/lufa.c ****         .report_id = REPORT_ID_SYSTEM,
 735:./tmk_core/protocol/lufa/lufa.c ****         .usage = data - SYSTEM_POWER_DOWN + 1
 736:./tmk_core/protocol/lufa/lufa.c ****     };
 737:./tmk_core/protocol/lufa/lufa.c ****     Endpoint_SelectEndpoint(EXTRAKEY_IN_EPNUM);
 738:./tmk_core/protocol/lufa/lufa.c **** 
 739:./tmk_core/protocol/lufa/lufa.c ****     /* Check if write ready for a polling interval around 10ms */
 740:./tmk_core/protocol/lufa/lufa.c ****     while (timeout-- && !Endpoint_IsReadWriteAllowed()) _delay_us(40);
 741:./tmk_core/protocol/lufa/lufa.c ****     if (!Endpoint_IsReadWriteAllowed()) return;
 742:./tmk_core/protocol/lufa/lufa.c **** 
 743:./tmk_core/protocol/lufa/lufa.c ****     Endpoint_Write_Stream_LE(&r, sizeof(report_extra_t), NULL);
 744:./tmk_core/protocol/lufa/lufa.c ****     Endpoint_ClearIN();
 745:./tmk_core/protocol/lufa/lufa.c **** }
 746:./tmk_core/protocol/lufa/lufa.c **** 
 747:./tmk_core/protocol/lufa/lufa.c **** static void send_consumer(uint16_t data)
 748:./tmk_core/protocol/lufa/lufa.c **** {
  35               		.loc 1 748 1 is_stmt 1 view -0
  36               		.cfi_startproc
  37               		.loc 1 748 1 is_stmt 0 view .LVU4
  38 0000 CF93      		push r28
  39               	.LCFI0:
  40               		.cfi_def_cfa_offset 3
  41               		.cfi_offset 28, -2
  42 0002 DF93      		push r29
  43               	.LCFI1:
  44               		.cfi_def_cfa_offset 4
  45               		.cfi_offset 29, -3
  46 0004 00D0      		rcall .
  47 0006 0F92      		push __tmp_reg__
  48               	.LCFI2:
  49               		.cfi_def_cfa_offset 7
  50 0008 CDB7      		in r28,__SP_L__
  51 000a DEB7      		in r29,__SP_H__
  52               	.LCFI3:
  53               		.cfi_def_cfa_register 28
  54               	/* prologue: function */
  55               	/* frame size = 3 */
  56               	/* stack size = 5 */
  57               	.L__stack_usage = 5
 749:./tmk_core/protocol/lufa/lufa.c **** 
 750:./tmk_core/protocol/lufa/lufa.c **** #ifdef BLUETOOTH_ENABLE
 751:./tmk_core/protocol/lufa/lufa.c ****     static uint16_t last_data = 0;
 752:./tmk_core/protocol/lufa/lufa.c ****     if (data == last_data) return;
 753:./tmk_core/protocol/lufa/lufa.c ****     last_data = data;
 754:./tmk_core/protocol/lufa/lufa.c ****     uint16_t bitmap = CONSUMER2BLUEFRUIT(data);
 755:./tmk_core/protocol/lufa/lufa.c ****     bluefruit_serial_send(0xFD);
 756:./tmk_core/protocol/lufa/lufa.c ****     bluefruit_serial_send(0x00);
 757:./tmk_core/protocol/lufa/lufa.c ****     bluefruit_serial_send(0x02);
 758:./tmk_core/protocol/lufa/lufa.c ****     bluefruit_serial_send((bitmap>>8)&0xFF);
 759:./tmk_core/protocol/lufa/lufa.c ****     bluefruit_serial_send(bitmap&0xFF);
 760:./tmk_core/protocol/lufa/lufa.c ****     bluefruit_serial_send(0x00);
 761:./tmk_core/protocol/lufa/lufa.c ****     bluefruit_serial_send(0x00);
 762:./tmk_core/protocol/lufa/lufa.c ****     bluefruit_serial_send(0x00);
 763:./tmk_core/protocol/lufa/lufa.c ****     bluefruit_serial_send(0x00);
 764:./tmk_core/protocol/lufa/lufa.c **** #endif
 765:./tmk_core/protocol/lufa/lufa.c **** 
 766:./tmk_core/protocol/lufa/lufa.c ****     uint8_t timeout = 255;
  58               		.loc 1 766 5 is_stmt 1 view .LVU5
  59               	.LVL1:
 767:./tmk_core/protocol/lufa/lufa.c ****     uint8_t where = where_to_send();
  60               		.loc 1 767 5 view .LVU6
  61               	.LBB177:
  62               	.LBI177:
 603:./tmk_core/protocol/lufa/lufa.c **** #ifdef ADAFRUIT_BLE_ENABLE
  63               		.loc 1 603 23 view .LVU7
  64               	.LBB178:
 619:./tmk_core/protocol/lufa/lufa.c **** #ifdef BLUETOOTH_ENABLE
  65               		.loc 1 619 3 view .LVU8
 619:./tmk_core/protocol/lufa/lufa.c **** #ifdef BLUETOOTH_ENABLE
  66               		.loc 1 619 68 is_stmt 0 view .LVU9
  67 000c 2091 0000 		lds r18,USB_DeviceState
  68               	.LVL2:
 619:./tmk_core/protocol/lufa/lufa.c **** #ifdef BLUETOOTH_ENABLE
  69               		.loc 1 619 68 view .LVU10
  70               	.LBE178:
  71               	.LBE177:
 768:./tmk_core/protocol/lufa/lufa.c **** 
 769:./tmk_core/protocol/lufa/lufa.c **** #ifdef ADAFRUIT_BLE_ENABLE
 770:./tmk_core/protocol/lufa/lufa.c ****     if (where & SendToBLE) {
 771:./tmk_core/protocol/lufa/lufa.c ****       adafruit_ble_send_consumer_key(data, 0);
 772:./tmk_core/protocol/lufa/lufa.c ****     }
 773:./tmk_core/protocol/lufa/lufa.c **** #endif
 774:./tmk_core/protocol/lufa/lufa.c ****     if (!(where & SendToUSB)) {
  72               		.loc 1 774 5 is_stmt 1 view .LVU11
  73               		.loc 1 774 8 is_stmt 0 view .LVU12
  74 0010 2430      		cpi r18,lo8(4)
  75 0012 01F4      		brne .L2
 775:./tmk_core/protocol/lufa/lufa.c ****       return;
 776:./tmk_core/protocol/lufa/lufa.c ****     }
 777:./tmk_core/protocol/lufa/lufa.c **** 
 778:./tmk_core/protocol/lufa/lufa.c ****     report_extra_t r = {
  76               		.loc 1 778 5 is_stmt 1 view .LVU13
  77               		.loc 1 778 20 is_stmt 0 view .LVU14
  78 0014 23E0      		ldi r18,lo8(3)
  79               	.LVL3:
  80               		.loc 1 778 20 view .LVU15
  81 0016 2983      		std Y+1,r18
  82 0018 8A83      		std Y+2,r24
  83 001a 9B83      		std Y+3,r25
 779:./tmk_core/protocol/lufa/lufa.c ****         .report_id = REPORT_ID_CONSUMER,
 780:./tmk_core/protocol/lufa/lufa.c ****         .usage = data
 781:./tmk_core/protocol/lufa/lufa.c ****     };
 782:./tmk_core/protocol/lufa/lufa.c ****     Endpoint_SelectEndpoint(EXTRAKEY_IN_EPNUM);
  84               		.loc 1 782 5 is_stmt 1 view .LVU16
  85               	.LVL4:
  86               	.LBB179:
  87               	.LBI179:
  88               		.file 2 "./tmk_core/protocol/lufa/LUFA-git/LUFA/Drivers/USB/Core/AVR8/../AVR8/Endpoint_AVR8.h"
   1:./tmk_core/protocol/lufa/LUFA-git/LUFA/Drivers/USB/Core/AVR8/../AVR8/Endpoint_AVR8.h **** /*
   2:./tmk_core/protocol/lufa/LUFA-git/LUFA/Drivers/USB/Core/AVR8/../AVR8/Endpoint_AVR8.h ****              LUFA Library
   3:./tmk_core/protocol/lufa/LUFA-git/LUFA/Drivers/USB/Core/AVR8/../AVR8/Endpoint_AVR8.h ****      Copyright (C) Dean Camera, 2014.
   4:./tmk_core/protocol/lufa/LUFA-git/LUFA/Drivers/USB/Core/AVR8/../AVR8/Endpoint_AVR8.h **** 
   5:./tmk_core/protocol/lufa/LUFA-git/LUFA/Drivers/USB/Core/AVR8/../AVR8/Endpoint_AVR8.h ****   dean [at] fourwalledcubicle [dot] com
   6:./tmk_core/protocol/lufa/LUFA-git/LUFA/Drivers/USB/Core/AVR8/../AVR8/Endpoint_AVR8.h ****            www.lufa-lib.org
   7:./tmk_core/protocol/lufa/LUFA-git/LUFA/Drivers/USB/Core/AVR8/../AVR8/Endpoint_AVR8.h **** */
   8:./tmk_core/protocol/lufa/LUFA-git/LUFA/Drivers/USB/Core/AVR8/../AVR8/Endpoint_AVR8.h **** 
   9:./tmk_core/protocol/lufa/LUFA-git/LUFA/Drivers/USB/Core/AVR8/../AVR8/Endpoint_AVR8.h **** /*
  10:./tmk_core/protocol/lufa/LUFA-git/LUFA/Drivers/USB/Core/AVR8/../AVR8/Endpoint_AVR8.h ****   Copyright 2014  Dean Camera (dean [at] fourwalledcubicle [dot] com)
  11:./tmk_core/protocol/lufa/LUFA-git/LUFA/Drivers/USB/Core/AVR8/../AVR8/Endpoint_AVR8.h **** 
  12:./tmk_core/protocol/lufa/LUFA-git/LUFA/Drivers/USB/Core/AVR8/../AVR8/Endpoint_AVR8.h ****   Permission to use, copy, modify, distribute, and sell this
  13:./tmk_core/protocol/lufa/LUFA-git/LUFA/Drivers/USB/Core/AVR8/../AVR8/Endpoint_AVR8.h ****   software and its documentation for any purpose is hereby granted
  14:./tmk_core/protocol/lufa/LUFA-git/LUFA/Drivers/USB/Core/AVR8/../AVR8/Endpoint_AVR8.h ****   without fee, provided that the above copyright notice appear in
  15:./tmk_core/protocol/lufa/LUFA-git/LUFA/Drivers/USB/Core/AVR8/../AVR8/Endpoint_AVR8.h ****   all copies and that both that the copyright notice and this
  16:./tmk_core/protocol/lufa/LUFA-git/LUFA/Drivers/USB/Core/AVR8/../AVR8/Endpoint_AVR8.h ****   permission notice and warranty disclaimer appear in supporting
  17:./tmk_core/protocol/lufa/LUFA-git/LUFA/Drivers/USB/Core/AVR8/../AVR8/Endpoint_AVR8.h ****   documentation, and that the name of the author not be used in
  18:./tmk_core/protocol/lufa/LUFA-git/LUFA/Drivers/USB/Core/AVR8/../AVR8/Endpoint_AVR8.h ****   advertising or publicity pertaining to distribution of the
  19:./tmk_core/protocol/lufa/LUFA-git/LUFA/Drivers/USB/Core/AVR8/../AVR8/Endpoint_AVR8.h ****   software without specific, written prior permission.
  20:./tmk_core/protocol/lufa/LUFA-git/LUFA/Drivers/USB/Core/AVR8/../AVR8/Endpoint_AVR8.h **** 
  21:./tmk_core/protocol/lufa/LUFA-git/LUFA/Drivers/USB/Core/AVR8/../AVR8/Endpoint_AVR8.h ****   The author disclaims all warranties with regard to this
  22:./tmk_core/protocol/lufa/LUFA-git/LUFA/Drivers/USB/Core/AVR8/../AVR8/Endpoint_AVR8.h ****   software, including all implied warranties of merchantability
  23:./tmk_core/protocol/lufa/LUFA-git/LUFA/Drivers/USB/Core/AVR8/../AVR8/Endpoint_AVR8.h ****   and fitness.  In no event shall the author be liable for any
  24:./tmk_core/protocol/lufa/LUFA-git/LUFA/Drivers/USB/Core/AVR8/../AVR8/Endpoint_AVR8.h ****   special, indirect or consequential damages or any damages
  25:./tmk_core/protocol/lufa/LUFA-git/LUFA/Drivers/USB/Core/AVR8/../AVR8/Endpoint_AVR8.h ****   whatsoever resulting from loss of use, data or profits, whether
  26:./tmk_core/protocol/lufa/LUFA-git/LUFA/Drivers/USB/Core/AVR8/../AVR8/Endpoint_AVR8.h ****   in an action of contract, negligence or other tortious action,
  27:./tmk_core/protocol/lufa/LUFA-git/LUFA/Drivers/USB/Core/AVR8/../AVR8/Endpoint_AVR8.h ****   arising out of or in connection with the use or performance of
  28:./tmk_core/protocol/lufa/LUFA-git/LUFA/Drivers/USB/Core/AVR8/../AVR8/Endpoint_AVR8.h ****   this software.
  29:./tmk_core/protocol/lufa/LUFA-git/LUFA/Drivers/USB/Core/AVR8/../AVR8/Endpoint_AVR8.h **** */
  30:./tmk_core/protocol/lufa/LUFA-git/LUFA/Drivers/USB/Core/AVR8/../AVR8/Endpoint_AVR8.h **** 
  31:./tmk_core/protocol/lufa/LUFA-git/LUFA/Drivers/USB/Core/AVR8/../AVR8/Endpoint_AVR8.h **** /** \file
  32:./tmk_core/protocol/lufa/LUFA-git/LUFA/Drivers/USB/Core/AVR8/../AVR8/Endpoint_AVR8.h ****  *  \brief USB Endpoint definitions for the AVR8 microcontrollers.
  33:./tmk_core/protocol/lufa/LUFA-git/LUFA/Drivers/USB/Core/AVR8/../AVR8/Endpoint_AVR8.h ****  *  \copydetails Group_EndpointManagement_AVR8
  34:./tmk_core/protocol/lufa/LUFA-git/LUFA/Drivers/USB/Core/AVR8/../AVR8/Endpoint_AVR8.h ****  *
  35:./tmk_core/protocol/lufa/LUFA-git/LUFA/Drivers/USB/Core/AVR8/../AVR8/Endpoint_AVR8.h ****  *  \note This file should not be included directly. It is automatically included as needed by the 
  36:./tmk_core/protocol/lufa/LUFA-git/LUFA/Drivers/USB/Core/AVR8/../AVR8/Endpoint_AVR8.h ****  *        dispatch header located in LUFA/Drivers/USB/USB.h.
  37:./tmk_core/protocol/lufa/LUFA-git/LUFA/Drivers/USB/Core/AVR8/../AVR8/Endpoint_AVR8.h ****  */
  38:./tmk_core/protocol/lufa/LUFA-git/LUFA/Drivers/USB/Core/AVR8/../AVR8/Endpoint_AVR8.h **** 
  39:./tmk_core/protocol/lufa/LUFA-git/LUFA/Drivers/USB/Core/AVR8/../AVR8/Endpoint_AVR8.h **** /** \ingroup Group_EndpointRW
  40:./tmk_core/protocol/lufa/LUFA-git/LUFA/Drivers/USB/Core/AVR8/../AVR8/Endpoint_AVR8.h ****  *  \defgroup Group_EndpointRW_AVR8 Endpoint Data Reading and Writing (AVR8)
  41:./tmk_core/protocol/lufa/LUFA-git/LUFA/Drivers/USB/Core/AVR8/../AVR8/Endpoint_AVR8.h ****  *  \brief Endpoint data read/write definitions for the Atmel AVR8 architecture.
  42:./tmk_core/protocol/lufa/LUFA-git/LUFA/Drivers/USB/Core/AVR8/../AVR8/Endpoint_AVR8.h ****  *
  43:./tmk_core/protocol/lufa/LUFA-git/LUFA/Drivers/USB/Core/AVR8/../AVR8/Endpoint_AVR8.h ****  *  Functions, macros, variables, enums and types related to data reading and writing from and to e
  44:./tmk_core/protocol/lufa/LUFA-git/LUFA/Drivers/USB/Core/AVR8/../AVR8/Endpoint_AVR8.h ****  */
  45:./tmk_core/protocol/lufa/LUFA-git/LUFA/Drivers/USB/Core/AVR8/../AVR8/Endpoint_AVR8.h **** 
  46:./tmk_core/protocol/lufa/LUFA-git/LUFA/Drivers/USB/Core/AVR8/../AVR8/Endpoint_AVR8.h **** /** \ingroup Group_EndpointPrimitiveRW
  47:./tmk_core/protocol/lufa/LUFA-git/LUFA/Drivers/USB/Core/AVR8/../AVR8/Endpoint_AVR8.h ****  *  \defgroup Group_EndpointPrimitiveRW_AVR8 Read/Write of Primitive Data Types (AVR8)
  48:./tmk_core/protocol/lufa/LUFA-git/LUFA/Drivers/USB/Core/AVR8/../AVR8/Endpoint_AVR8.h ****  *  \brief Endpoint primitive read/write definitions for the Atmel AVR8 architecture.
  49:./tmk_core/protocol/lufa/LUFA-git/LUFA/Drivers/USB/Core/AVR8/../AVR8/Endpoint_AVR8.h ****  *
  50:./tmk_core/protocol/lufa/LUFA-git/LUFA/Drivers/USB/Core/AVR8/../AVR8/Endpoint_AVR8.h ****  *  Functions, macros, variables, enums and types related to data reading and writing of primitive 
  51:./tmk_core/protocol/lufa/LUFA-git/LUFA/Drivers/USB/Core/AVR8/../AVR8/Endpoint_AVR8.h ****  *  from and to endpoints.
  52:./tmk_core/protocol/lufa/LUFA-git/LUFA/Drivers/USB/Core/AVR8/../AVR8/Endpoint_AVR8.h ****  */
  53:./tmk_core/protocol/lufa/LUFA-git/LUFA/Drivers/USB/Core/AVR8/../AVR8/Endpoint_AVR8.h **** 
  54:./tmk_core/protocol/lufa/LUFA-git/LUFA/Drivers/USB/Core/AVR8/../AVR8/Endpoint_AVR8.h **** /** \ingroup Group_EndpointPacketManagement
  55:./tmk_core/protocol/lufa/LUFA-git/LUFA/Drivers/USB/Core/AVR8/../AVR8/Endpoint_AVR8.h ****  *  \defgroup Group_EndpointPacketManagement_AVR8 Endpoint Packet Management (AVR8)
  56:./tmk_core/protocol/lufa/LUFA-git/LUFA/Drivers/USB/Core/AVR8/../AVR8/Endpoint_AVR8.h ****  *  \brief Endpoint packet management definitions for the Atmel AVR8 architecture.
  57:./tmk_core/protocol/lufa/LUFA-git/LUFA/Drivers/USB/Core/AVR8/../AVR8/Endpoint_AVR8.h ****  *
  58:./tmk_core/protocol/lufa/LUFA-git/LUFA/Drivers/USB/Core/AVR8/../AVR8/Endpoint_AVR8.h ****  *  Functions, macros, variables, enums and types related to packet management of endpoints.
  59:./tmk_core/protocol/lufa/LUFA-git/LUFA/Drivers/USB/Core/AVR8/../AVR8/Endpoint_AVR8.h ****  */
  60:./tmk_core/protocol/lufa/LUFA-git/LUFA/Drivers/USB/Core/AVR8/../AVR8/Endpoint_AVR8.h **** 
  61:./tmk_core/protocol/lufa/LUFA-git/LUFA/Drivers/USB/Core/AVR8/../AVR8/Endpoint_AVR8.h **** /** \ingroup Group_EndpointManagement
  62:./tmk_core/protocol/lufa/LUFA-git/LUFA/Drivers/USB/Core/AVR8/../AVR8/Endpoint_AVR8.h ****  *  \defgroup Group_EndpointManagement_AVR8 Endpoint Management (AVR8)
  63:./tmk_core/protocol/lufa/LUFA-git/LUFA/Drivers/USB/Core/AVR8/../AVR8/Endpoint_AVR8.h ****  *  \brief Endpoint management definitions for the Atmel AVR8 architecture.
  64:./tmk_core/protocol/lufa/LUFA-git/LUFA/Drivers/USB/Core/AVR8/../AVR8/Endpoint_AVR8.h ****  *
  65:./tmk_core/protocol/lufa/LUFA-git/LUFA/Drivers/USB/Core/AVR8/../AVR8/Endpoint_AVR8.h ****  *  Functions, macros and enums related to endpoint management when in USB Device mode. This
  66:./tmk_core/protocol/lufa/LUFA-git/LUFA/Drivers/USB/Core/AVR8/../AVR8/Endpoint_AVR8.h ****  *  module contains the endpoint management macros, as well as endpoint interrupt and data
  67:./tmk_core/protocol/lufa/LUFA-git/LUFA/Drivers/USB/Core/AVR8/../AVR8/Endpoint_AVR8.h ****  *  send/receive functions for various data types.
  68:./tmk_core/protocol/lufa/LUFA-git/LUFA/Drivers/USB/Core/AVR8/../AVR8/Endpoint_AVR8.h ****  *
  69:./tmk_core/protocol/lufa/LUFA-git/LUFA/Drivers/USB/Core/AVR8/../AVR8/Endpoint_AVR8.h ****  *  @{
  70:./tmk_core/protocol/lufa/LUFA-git/LUFA/Drivers/USB/Core/AVR8/../AVR8/Endpoint_AVR8.h ****  */
  71:./tmk_core/protocol/lufa/LUFA-git/LUFA/Drivers/USB/Core/AVR8/../AVR8/Endpoint_AVR8.h **** 
  72:./tmk_core/protocol/lufa/LUFA-git/LUFA/Drivers/USB/Core/AVR8/../AVR8/Endpoint_AVR8.h **** #ifndef __ENDPOINT_AVR8_H__
  73:./tmk_core/protocol/lufa/LUFA-git/LUFA/Drivers/USB/Core/AVR8/../AVR8/Endpoint_AVR8.h **** #define __ENDPOINT_AVR8_H__
  74:./tmk_core/protocol/lufa/LUFA-git/LUFA/Drivers/USB/Core/AVR8/../AVR8/Endpoint_AVR8.h **** 
  75:./tmk_core/protocol/lufa/LUFA-git/LUFA/Drivers/USB/Core/AVR8/../AVR8/Endpoint_AVR8.h **** 	/* Includes: */
  76:./tmk_core/protocol/lufa/LUFA-git/LUFA/Drivers/USB/Core/AVR8/../AVR8/Endpoint_AVR8.h **** 		#include "../../../../Common/Common.h"
  77:./tmk_core/protocol/lufa/LUFA-git/LUFA/Drivers/USB/Core/AVR8/../AVR8/Endpoint_AVR8.h **** 		#include "../USBTask.h"
  78:./tmk_core/protocol/lufa/LUFA-git/LUFA/Drivers/USB/Core/AVR8/../AVR8/Endpoint_AVR8.h **** 		#include "../USBInterrupt.h"
  79:./tmk_core/protocol/lufa/LUFA-git/LUFA/Drivers/USB/Core/AVR8/../AVR8/Endpoint_AVR8.h **** 
  80:./tmk_core/protocol/lufa/LUFA-git/LUFA/Drivers/USB/Core/AVR8/../AVR8/Endpoint_AVR8.h **** 	/* Enable C linkage for C++ Compilers: */
  81:./tmk_core/protocol/lufa/LUFA-git/LUFA/Drivers/USB/Core/AVR8/../AVR8/Endpoint_AVR8.h **** 		#if defined(__cplusplus)
  82:./tmk_core/protocol/lufa/LUFA-git/LUFA/Drivers/USB/Core/AVR8/../AVR8/Endpoint_AVR8.h **** 			extern "C" {
  83:./tmk_core/protocol/lufa/LUFA-git/LUFA/Drivers/USB/Core/AVR8/../AVR8/Endpoint_AVR8.h **** 		#endif
  84:./tmk_core/protocol/lufa/LUFA-git/LUFA/Drivers/USB/Core/AVR8/../AVR8/Endpoint_AVR8.h **** 
  85:./tmk_core/protocol/lufa/LUFA-git/LUFA/Drivers/USB/Core/AVR8/../AVR8/Endpoint_AVR8.h **** 	/* Preprocessor Checks: */
  86:./tmk_core/protocol/lufa/LUFA-git/LUFA/Drivers/USB/Core/AVR8/../AVR8/Endpoint_AVR8.h **** 		#if !defined(__INCLUDE_FROM_USB_DRIVER)
  87:./tmk_core/protocol/lufa/LUFA-git/LUFA/Drivers/USB/Core/AVR8/../AVR8/Endpoint_AVR8.h **** 			#error Do not include this file directly. Include LUFA/Drivers/USB/USB.h instead.
  88:./tmk_core/protocol/lufa/LUFA-git/LUFA/Drivers/USB/Core/AVR8/../AVR8/Endpoint_AVR8.h **** 		#endif
  89:./tmk_core/protocol/lufa/LUFA-git/LUFA/Drivers/USB/Core/AVR8/../AVR8/Endpoint_AVR8.h **** 
  90:./tmk_core/protocol/lufa/LUFA-git/LUFA/Drivers/USB/Core/AVR8/../AVR8/Endpoint_AVR8.h **** 	/* Private Interface - For use in library only: */
  91:./tmk_core/protocol/lufa/LUFA-git/LUFA/Drivers/USB/Core/AVR8/../AVR8/Endpoint_AVR8.h **** 	#if !defined(__DOXYGEN__)
  92:./tmk_core/protocol/lufa/LUFA-git/LUFA/Drivers/USB/Core/AVR8/../AVR8/Endpoint_AVR8.h **** 		/* Inline Functions: */
  93:./tmk_core/protocol/lufa/LUFA-git/LUFA/Drivers/USB/Core/AVR8/../AVR8/Endpoint_AVR8.h **** 			static inline uint8_t Endpoint_BytesToEPSizeMask(const uint16_t Bytes) ATTR_WARN_UNUSED_RESULT A
  94:./tmk_core/protocol/lufa/LUFA-git/LUFA/Drivers/USB/Core/AVR8/../AVR8/Endpoint_AVR8.h **** 			                                                                       ATTR_ALWAYS_INLINE;
  95:./tmk_core/protocol/lufa/LUFA-git/LUFA/Drivers/USB/Core/AVR8/../AVR8/Endpoint_AVR8.h **** 			static inline uint8_t Endpoint_BytesToEPSizeMask(const uint16_t Bytes)
  96:./tmk_core/protocol/lufa/LUFA-git/LUFA/Drivers/USB/Core/AVR8/../AVR8/Endpoint_AVR8.h **** 			{
  97:./tmk_core/protocol/lufa/LUFA-git/LUFA/Drivers/USB/Core/AVR8/../AVR8/Endpoint_AVR8.h **** 				uint8_t  MaskVal    = 0;
  98:./tmk_core/protocol/lufa/LUFA-git/LUFA/Drivers/USB/Core/AVR8/../AVR8/Endpoint_AVR8.h **** 				uint16_t CheckBytes = 8;
  99:./tmk_core/protocol/lufa/LUFA-git/LUFA/Drivers/USB/Core/AVR8/../AVR8/Endpoint_AVR8.h **** 
 100:./tmk_core/protocol/lufa/LUFA-git/LUFA/Drivers/USB/Core/AVR8/../AVR8/Endpoint_AVR8.h **** 				while (CheckBytes < Bytes)
 101:./tmk_core/protocol/lufa/LUFA-git/LUFA/Drivers/USB/Core/AVR8/../AVR8/Endpoint_AVR8.h **** 				{
 102:./tmk_core/protocol/lufa/LUFA-git/LUFA/Drivers/USB/Core/AVR8/../AVR8/Endpoint_AVR8.h **** 					MaskVal++;
 103:./tmk_core/protocol/lufa/LUFA-git/LUFA/Drivers/USB/Core/AVR8/../AVR8/Endpoint_AVR8.h **** 					CheckBytes <<= 1;
 104:./tmk_core/protocol/lufa/LUFA-git/LUFA/Drivers/USB/Core/AVR8/../AVR8/Endpoint_AVR8.h **** 				}
 105:./tmk_core/protocol/lufa/LUFA-git/LUFA/Drivers/USB/Core/AVR8/../AVR8/Endpoint_AVR8.h **** 
 106:./tmk_core/protocol/lufa/LUFA-git/LUFA/Drivers/USB/Core/AVR8/../AVR8/Endpoint_AVR8.h **** 				return (MaskVal << EPSIZE0);
 107:./tmk_core/protocol/lufa/LUFA-git/LUFA/Drivers/USB/Core/AVR8/../AVR8/Endpoint_AVR8.h **** 			}
 108:./tmk_core/protocol/lufa/LUFA-git/LUFA/Drivers/USB/Core/AVR8/../AVR8/Endpoint_AVR8.h **** 
 109:./tmk_core/protocol/lufa/LUFA-git/LUFA/Drivers/USB/Core/AVR8/../AVR8/Endpoint_AVR8.h **** 		/* Function Prototypes: */
 110:./tmk_core/protocol/lufa/LUFA-git/LUFA/Drivers/USB/Core/AVR8/../AVR8/Endpoint_AVR8.h **** 			void Endpoint_ClearEndpoints(void);
 111:./tmk_core/protocol/lufa/LUFA-git/LUFA/Drivers/USB/Core/AVR8/../AVR8/Endpoint_AVR8.h **** 			bool Endpoint_ConfigureEndpoint_Prv(const uint8_t Number,
 112:./tmk_core/protocol/lufa/LUFA-git/LUFA/Drivers/USB/Core/AVR8/../AVR8/Endpoint_AVR8.h **** 			                                    const uint8_t UECFG0XData,
 113:./tmk_core/protocol/lufa/LUFA-git/LUFA/Drivers/USB/Core/AVR8/../AVR8/Endpoint_AVR8.h **** 			                                    const uint8_t UECFG1XData);
 114:./tmk_core/protocol/lufa/LUFA-git/LUFA/Drivers/USB/Core/AVR8/../AVR8/Endpoint_AVR8.h **** 
 115:./tmk_core/protocol/lufa/LUFA-git/LUFA/Drivers/USB/Core/AVR8/../AVR8/Endpoint_AVR8.h **** 	#endif
 116:./tmk_core/protocol/lufa/LUFA-git/LUFA/Drivers/USB/Core/AVR8/../AVR8/Endpoint_AVR8.h **** 
 117:./tmk_core/protocol/lufa/LUFA-git/LUFA/Drivers/USB/Core/AVR8/../AVR8/Endpoint_AVR8.h **** 	/* Public Interface - May be used in end-application: */
 118:./tmk_core/protocol/lufa/LUFA-git/LUFA/Drivers/USB/Core/AVR8/../AVR8/Endpoint_AVR8.h **** 		/* Macros: */
 119:./tmk_core/protocol/lufa/LUFA-git/LUFA/Drivers/USB/Core/AVR8/../AVR8/Endpoint_AVR8.h **** 			#if (!defined(FIXED_CONTROL_ENDPOINT_SIZE) || defined(__DOXYGEN__))
 120:./tmk_core/protocol/lufa/LUFA-git/LUFA/Drivers/USB/Core/AVR8/../AVR8/Endpoint_AVR8.h **** 				/** Default size of the default control endpoint's bank, until altered by the control endpoint 
 121:./tmk_core/protocol/lufa/LUFA-git/LUFA/Drivers/USB/Core/AVR8/../AVR8/Endpoint_AVR8.h **** 				 *  value in the device descriptor. Not available if the \c FIXED_CONTROL_ENDPOINT_SIZE token i
 122:./tmk_core/protocol/lufa/LUFA-git/LUFA/Drivers/USB/Core/AVR8/../AVR8/Endpoint_AVR8.h **** 				 */
 123:./tmk_core/protocol/lufa/LUFA-git/LUFA/Drivers/USB/Core/AVR8/../AVR8/Endpoint_AVR8.h **** 				#define ENDPOINT_CONTROLEP_DEFAULT_SIZE     8
 124:./tmk_core/protocol/lufa/LUFA-git/LUFA/Drivers/USB/Core/AVR8/../AVR8/Endpoint_AVR8.h **** 			#endif
 125:./tmk_core/protocol/lufa/LUFA-git/LUFA/Drivers/USB/Core/AVR8/../AVR8/Endpoint_AVR8.h **** 
 126:./tmk_core/protocol/lufa/LUFA-git/LUFA/Drivers/USB/Core/AVR8/../AVR8/Endpoint_AVR8.h **** 			#if !defined(CONTROL_ONLY_DEVICE) || defined(__DOXYGEN__)
 127:./tmk_core/protocol/lufa/LUFA-git/LUFA/Drivers/USB/Core/AVR8/../AVR8/Endpoint_AVR8.h **** 				#if defined(USB_SERIES_4_AVR) || defined(USB_SERIES_6_AVR) || defined(USB_SERIES_7_AVR) || defi
 128:./tmk_core/protocol/lufa/LUFA-git/LUFA/Drivers/USB/Core/AVR8/../AVR8/Endpoint_AVR8.h **** 					/** Total number of endpoints (including the default control endpoint at address 0) which may
 129:./tmk_core/protocol/lufa/LUFA-git/LUFA/Drivers/USB/Core/AVR8/../AVR8/Endpoint_AVR8.h **** 					 *  be used in the device. Different USB AVR models support different amounts of endpoints,
 130:./tmk_core/protocol/lufa/LUFA-git/LUFA/Drivers/USB/Core/AVR8/../AVR8/Endpoint_AVR8.h **** 					 *  this value reflects the maximum number of endpoints for the currently selected AVR model.
 131:./tmk_core/protocol/lufa/LUFA-git/LUFA/Drivers/USB/Core/AVR8/../AVR8/Endpoint_AVR8.h **** 					 */
 132:./tmk_core/protocol/lufa/LUFA-git/LUFA/Drivers/USB/Core/AVR8/../AVR8/Endpoint_AVR8.h **** 					#define ENDPOINT_TOTAL_ENDPOINTS        7
 133:./tmk_core/protocol/lufa/LUFA-git/LUFA/Drivers/USB/Core/AVR8/../AVR8/Endpoint_AVR8.h **** 				#else
 134:./tmk_core/protocol/lufa/LUFA-git/LUFA/Drivers/USB/Core/AVR8/../AVR8/Endpoint_AVR8.h **** 					#define ENDPOINT_TOTAL_ENDPOINTS        5
 135:./tmk_core/protocol/lufa/LUFA-git/LUFA/Drivers/USB/Core/AVR8/../AVR8/Endpoint_AVR8.h **** 				#endif
 136:./tmk_core/protocol/lufa/LUFA-git/LUFA/Drivers/USB/Core/AVR8/../AVR8/Endpoint_AVR8.h **** 			#else
 137:./tmk_core/protocol/lufa/LUFA-git/LUFA/Drivers/USB/Core/AVR8/../AVR8/Endpoint_AVR8.h **** 				#define ENDPOINT_TOTAL_ENDPOINTS            1
 138:./tmk_core/protocol/lufa/LUFA-git/LUFA/Drivers/USB/Core/AVR8/../AVR8/Endpoint_AVR8.h **** 			#endif
 139:./tmk_core/protocol/lufa/LUFA-git/LUFA/Drivers/USB/Core/AVR8/../AVR8/Endpoint_AVR8.h **** 
 140:./tmk_core/protocol/lufa/LUFA-git/LUFA/Drivers/USB/Core/AVR8/../AVR8/Endpoint_AVR8.h **** 		/* Enums: */
 141:./tmk_core/protocol/lufa/LUFA-git/LUFA/Drivers/USB/Core/AVR8/../AVR8/Endpoint_AVR8.h **** 			/** Enum for the possible error return codes of the \ref Endpoint_WaitUntilReady() function.
 142:./tmk_core/protocol/lufa/LUFA-git/LUFA/Drivers/USB/Core/AVR8/../AVR8/Endpoint_AVR8.h **** 			 *
 143:./tmk_core/protocol/lufa/LUFA-git/LUFA/Drivers/USB/Core/AVR8/../AVR8/Endpoint_AVR8.h **** 			 *  \ingroup Group_EndpointRW_AVR8
 144:./tmk_core/protocol/lufa/LUFA-git/LUFA/Drivers/USB/Core/AVR8/../AVR8/Endpoint_AVR8.h **** 			 */
 145:./tmk_core/protocol/lufa/LUFA-git/LUFA/Drivers/USB/Core/AVR8/../AVR8/Endpoint_AVR8.h **** 			enum Endpoint_WaitUntilReady_ErrorCodes_t
 146:./tmk_core/protocol/lufa/LUFA-git/LUFA/Drivers/USB/Core/AVR8/../AVR8/Endpoint_AVR8.h **** 			{
 147:./tmk_core/protocol/lufa/LUFA-git/LUFA/Drivers/USB/Core/AVR8/../AVR8/Endpoint_AVR8.h **** 				ENDPOINT_READYWAIT_NoError                 = 0, /**< Endpoint is ready for next packet, no erro
 148:./tmk_core/protocol/lufa/LUFA-git/LUFA/Drivers/USB/Core/AVR8/../AVR8/Endpoint_AVR8.h **** 				ENDPOINT_READYWAIT_EndpointStalled         = 1, /**< The endpoint was stalled during the stream
 149:./tmk_core/protocol/lufa/LUFA-git/LUFA/Drivers/USB/Core/AVR8/../AVR8/Endpoint_AVR8.h **** 				                                                 *   transfer by the host or device.
 150:./tmk_core/protocol/lufa/LUFA-git/LUFA/Drivers/USB/Core/AVR8/../AVR8/Endpoint_AVR8.h **** 				                                                 */
 151:./tmk_core/protocol/lufa/LUFA-git/LUFA/Drivers/USB/Core/AVR8/../AVR8/Endpoint_AVR8.h **** 				ENDPOINT_READYWAIT_DeviceDisconnected      = 2,	/**< Device was disconnected from the host whil
 152:./tmk_core/protocol/lufa/LUFA-git/LUFA/Drivers/USB/Core/AVR8/../AVR8/Endpoint_AVR8.h **** 				                                                 *   waiting for the endpoint to become ready.
 153:./tmk_core/protocol/lufa/LUFA-git/LUFA/Drivers/USB/Core/AVR8/../AVR8/Endpoint_AVR8.h **** 				                                                 */
 154:./tmk_core/protocol/lufa/LUFA-git/LUFA/Drivers/USB/Core/AVR8/../AVR8/Endpoint_AVR8.h **** 				ENDPOINT_READYWAIT_BusSuspended            = 3, /**< The USB bus has been suspended by the host
 155:./tmk_core/protocol/lufa/LUFA-git/LUFA/Drivers/USB/Core/AVR8/../AVR8/Endpoint_AVR8.h **** 				                                                 *   no USB endpoint traffic can occur until th
 156:./tmk_core/protocol/lufa/LUFA-git/LUFA/Drivers/USB/Core/AVR8/../AVR8/Endpoint_AVR8.h **** 				                                                 *   has resumed.
 157:./tmk_core/protocol/lufa/LUFA-git/LUFA/Drivers/USB/Core/AVR8/../AVR8/Endpoint_AVR8.h **** 				                                                 */
 158:./tmk_core/protocol/lufa/LUFA-git/LUFA/Drivers/USB/Core/AVR8/../AVR8/Endpoint_AVR8.h **** 				ENDPOINT_READYWAIT_Timeout                 = 4, /**< The host failed to accept or send the next
 159:./tmk_core/protocol/lufa/LUFA-git/LUFA/Drivers/USB/Core/AVR8/../AVR8/Endpoint_AVR8.h **** 				                                                 *   within the software timeout period set by 
 160:./tmk_core/protocol/lufa/LUFA-git/LUFA/Drivers/USB/Core/AVR8/../AVR8/Endpoint_AVR8.h **** 				                                                 *   \ref USB_STREAM_TIMEOUT_MS macro.
 161:./tmk_core/protocol/lufa/LUFA-git/LUFA/Drivers/USB/Core/AVR8/../AVR8/Endpoint_AVR8.h **** 				                                                 */
 162:./tmk_core/protocol/lufa/LUFA-git/LUFA/Drivers/USB/Core/AVR8/../AVR8/Endpoint_AVR8.h **** 			};
 163:./tmk_core/protocol/lufa/LUFA-git/LUFA/Drivers/USB/Core/AVR8/../AVR8/Endpoint_AVR8.h **** 
 164:./tmk_core/protocol/lufa/LUFA-git/LUFA/Drivers/USB/Core/AVR8/../AVR8/Endpoint_AVR8.h **** 		/* Inline Functions: */
 165:./tmk_core/protocol/lufa/LUFA-git/LUFA/Drivers/USB/Core/AVR8/../AVR8/Endpoint_AVR8.h **** 			/** Configures the specified endpoint address with the given endpoint type, bank size and number
 166:./tmk_core/protocol/lufa/LUFA-git/LUFA/Drivers/USB/Core/AVR8/../AVR8/Endpoint_AVR8.h **** 			 *  banks. Once configured, the endpoint may be read from or written to, depending on its direct
 167:./tmk_core/protocol/lufa/LUFA-git/LUFA/Drivers/USB/Core/AVR8/../AVR8/Endpoint_AVR8.h **** 			 *
 168:./tmk_core/protocol/lufa/LUFA-git/LUFA/Drivers/USB/Core/AVR8/../AVR8/Endpoint_AVR8.h **** 			 *  \param[in] Address    Endpoint address to configure.
 169:./tmk_core/protocol/lufa/LUFA-git/LUFA/Drivers/USB/Core/AVR8/../AVR8/Endpoint_AVR8.h **** 			 *
 170:./tmk_core/protocol/lufa/LUFA-git/LUFA/Drivers/USB/Core/AVR8/../AVR8/Endpoint_AVR8.h **** 			 *  \param[in] Type       Type of endpoint to configure, a \c EP_TYPE_* mask. Not all endpoint t
 171:./tmk_core/protocol/lufa/LUFA-git/LUFA/Drivers/USB/Core/AVR8/../AVR8/Endpoint_AVR8.h **** 			 *                        are available on Low Speed USB devices - refer to the USB 2.0 specific
 172:./tmk_core/protocol/lufa/LUFA-git/LUFA/Drivers/USB/Core/AVR8/../AVR8/Endpoint_AVR8.h **** 			 *
 173:./tmk_core/protocol/lufa/LUFA-git/LUFA/Drivers/USB/Core/AVR8/../AVR8/Endpoint_AVR8.h **** 			 *  \param[in] Size       Size of the endpoint's bank, where packets are stored before they are 
 174:./tmk_core/protocol/lufa/LUFA-git/LUFA/Drivers/USB/Core/AVR8/../AVR8/Endpoint_AVR8.h **** 			 *                        to the USB host, or after they have been received from the USB host (d
 175:./tmk_core/protocol/lufa/LUFA-git/LUFA/Drivers/USB/Core/AVR8/../AVR8/Endpoint_AVR8.h **** 			 *                        the endpoint's data direction). The bank size must indicate the maximu
 176:./tmk_core/protocol/lufa/LUFA-git/LUFA/Drivers/USB/Core/AVR8/../AVR8/Endpoint_AVR8.h **** 			 *                        that the endpoint can handle.
 177:./tmk_core/protocol/lufa/LUFA-git/LUFA/Drivers/USB/Core/AVR8/../AVR8/Endpoint_AVR8.h **** 			 *
 178:./tmk_core/protocol/lufa/LUFA-git/LUFA/Drivers/USB/Core/AVR8/../AVR8/Endpoint_AVR8.h **** 			 *  \param[in] Banks      Number of banks to use for the endpoint being configured.
 179:./tmk_core/protocol/lufa/LUFA-git/LUFA/Drivers/USB/Core/AVR8/../AVR8/Endpoint_AVR8.h **** 			 *
 180:./tmk_core/protocol/lufa/LUFA-git/LUFA/Drivers/USB/Core/AVR8/../AVR8/Endpoint_AVR8.h **** 			 *  \attention When the \c ORDERED_EP_CONFIG compile time option is used, Endpoints <b>must</b> 
 181:./tmk_core/protocol/lufa/LUFA-git/LUFA/Drivers/USB/Core/AVR8/../AVR8/Endpoint_AVR8.h **** 			 *             ascending order, or bank corruption will occur.
 182:./tmk_core/protocol/lufa/LUFA-git/LUFA/Drivers/USB/Core/AVR8/../AVR8/Endpoint_AVR8.h **** 			 *
 183:./tmk_core/protocol/lufa/LUFA-git/LUFA/Drivers/USB/Core/AVR8/../AVR8/Endpoint_AVR8.h **** 			 *  \note Different endpoints may have different maximum packet sizes based on the endpoint's in
 184:./tmk_core/protocol/lufa/LUFA-git/LUFA/Drivers/USB/Core/AVR8/../AVR8/Endpoint_AVR8.h **** 			 *        refer to the chosen microcontroller model's datasheet to determine the maximum bank si
 185:./tmk_core/protocol/lufa/LUFA-git/LUFA/Drivers/USB/Core/AVR8/../AVR8/Endpoint_AVR8.h **** 			 *        \n\n
 186:./tmk_core/protocol/lufa/LUFA-git/LUFA/Drivers/USB/Core/AVR8/../AVR8/Endpoint_AVR8.h **** 			 *
 187:./tmk_core/protocol/lufa/LUFA-git/LUFA/Drivers/USB/Core/AVR8/../AVR8/Endpoint_AVR8.h **** 			 *  \note The default control endpoint should not be manually configured by the user application
 188:./tmk_core/protocol/lufa/LUFA-git/LUFA/Drivers/USB/Core/AVR8/../AVR8/Endpoint_AVR8.h **** 			 *        it is automatically configured by the library internally.
 189:./tmk_core/protocol/lufa/LUFA-git/LUFA/Drivers/USB/Core/AVR8/../AVR8/Endpoint_AVR8.h **** 			 *        \n\n
 190:./tmk_core/protocol/lufa/LUFA-git/LUFA/Drivers/USB/Core/AVR8/../AVR8/Endpoint_AVR8.h **** 			 *
 191:./tmk_core/protocol/lufa/LUFA-git/LUFA/Drivers/USB/Core/AVR8/../AVR8/Endpoint_AVR8.h **** 			 *  \note This routine will automatically select the specified endpoint upon success. Upon failu
 192:./tmk_core/protocol/lufa/LUFA-git/LUFA/Drivers/USB/Core/AVR8/../AVR8/Endpoint_AVR8.h **** 			 *        which failed to reconfigure correctly will be selected.
 193:./tmk_core/protocol/lufa/LUFA-git/LUFA/Drivers/USB/Core/AVR8/../AVR8/Endpoint_AVR8.h **** 			 *
 194:./tmk_core/protocol/lufa/LUFA-git/LUFA/Drivers/USB/Core/AVR8/../AVR8/Endpoint_AVR8.h **** 			 *  \return Boolean \c true if the configuration succeeded, \c false otherwise.
 195:./tmk_core/protocol/lufa/LUFA-git/LUFA/Drivers/USB/Core/AVR8/../AVR8/Endpoint_AVR8.h **** 			 */
 196:./tmk_core/protocol/lufa/LUFA-git/LUFA/Drivers/USB/Core/AVR8/../AVR8/Endpoint_AVR8.h **** 			static inline bool Endpoint_ConfigureEndpoint(const uint8_t Address,
 197:./tmk_core/protocol/lufa/LUFA-git/LUFA/Drivers/USB/Core/AVR8/../AVR8/Endpoint_AVR8.h **** 			                                              const uint8_t Type,
 198:./tmk_core/protocol/lufa/LUFA-git/LUFA/Drivers/USB/Core/AVR8/../AVR8/Endpoint_AVR8.h **** 			                                              const uint16_t Size,
 199:./tmk_core/protocol/lufa/LUFA-git/LUFA/Drivers/USB/Core/AVR8/../AVR8/Endpoint_AVR8.h **** 			                                              const uint8_t Banks) ATTR_ALWAYS_INLINE;
 200:./tmk_core/protocol/lufa/LUFA-git/LUFA/Drivers/USB/Core/AVR8/../AVR8/Endpoint_AVR8.h **** 			static inline bool Endpoint_ConfigureEndpoint(const uint8_t Address,
 201:./tmk_core/protocol/lufa/LUFA-git/LUFA/Drivers/USB/Core/AVR8/../AVR8/Endpoint_AVR8.h **** 			                                              const uint8_t Type,
 202:./tmk_core/protocol/lufa/LUFA-git/LUFA/Drivers/USB/Core/AVR8/../AVR8/Endpoint_AVR8.h **** 			                                              const uint16_t Size,
 203:./tmk_core/protocol/lufa/LUFA-git/LUFA/Drivers/USB/Core/AVR8/../AVR8/Endpoint_AVR8.h **** 			                                              const uint8_t Banks)
 204:./tmk_core/protocol/lufa/LUFA-git/LUFA/Drivers/USB/Core/AVR8/../AVR8/Endpoint_AVR8.h **** 			{
 205:./tmk_core/protocol/lufa/LUFA-git/LUFA/Drivers/USB/Core/AVR8/../AVR8/Endpoint_AVR8.h **** 				uint8_t Number = (Address & ENDPOINT_EPNUM_MASK);
 206:./tmk_core/protocol/lufa/LUFA-git/LUFA/Drivers/USB/Core/AVR8/../AVR8/Endpoint_AVR8.h **** 
 207:./tmk_core/protocol/lufa/LUFA-git/LUFA/Drivers/USB/Core/AVR8/../AVR8/Endpoint_AVR8.h **** 				if (Number >= ENDPOINT_TOTAL_ENDPOINTS)
 208:./tmk_core/protocol/lufa/LUFA-git/LUFA/Drivers/USB/Core/AVR8/../AVR8/Endpoint_AVR8.h **** 				  return false;
 209:./tmk_core/protocol/lufa/LUFA-git/LUFA/Drivers/USB/Core/AVR8/../AVR8/Endpoint_AVR8.h **** 
 210:./tmk_core/protocol/lufa/LUFA-git/LUFA/Drivers/USB/Core/AVR8/../AVR8/Endpoint_AVR8.h **** 				return Endpoint_ConfigureEndpoint_Prv(Number,
 211:./tmk_core/protocol/lufa/LUFA-git/LUFA/Drivers/USB/Core/AVR8/../AVR8/Endpoint_AVR8.h **** 				                                      ((Type << EPTYPE0) | ((Address & ENDPOINT_DIR_IN) ? (1 <<
 212:./tmk_core/protocol/lufa/LUFA-git/LUFA/Drivers/USB/Core/AVR8/../AVR8/Endpoint_AVR8.h **** 				                                      ((1 << ALLOC) | ((Banks > 1) ? (1 << EPBK0) : 0) | Endpoi
 213:./tmk_core/protocol/lufa/LUFA-git/LUFA/Drivers/USB/Core/AVR8/../AVR8/Endpoint_AVR8.h **** 			}
 214:./tmk_core/protocol/lufa/LUFA-git/LUFA/Drivers/USB/Core/AVR8/../AVR8/Endpoint_AVR8.h **** 
 215:./tmk_core/protocol/lufa/LUFA-git/LUFA/Drivers/USB/Core/AVR8/../AVR8/Endpoint_AVR8.h **** 			/** Indicates the number of bytes currently stored in the current endpoint's selected bank.
 216:./tmk_core/protocol/lufa/LUFA-git/LUFA/Drivers/USB/Core/AVR8/../AVR8/Endpoint_AVR8.h **** 			 *
 217:./tmk_core/protocol/lufa/LUFA-git/LUFA/Drivers/USB/Core/AVR8/../AVR8/Endpoint_AVR8.h **** 			 *  \ingroup Group_EndpointRW_AVR8
 218:./tmk_core/protocol/lufa/LUFA-git/LUFA/Drivers/USB/Core/AVR8/../AVR8/Endpoint_AVR8.h **** 			 *
 219:./tmk_core/protocol/lufa/LUFA-git/LUFA/Drivers/USB/Core/AVR8/../AVR8/Endpoint_AVR8.h **** 			 *  \return Total number of bytes in the currently selected Endpoint's FIFO buffer.
 220:./tmk_core/protocol/lufa/LUFA-git/LUFA/Drivers/USB/Core/AVR8/../AVR8/Endpoint_AVR8.h **** 			 */
 221:./tmk_core/protocol/lufa/LUFA-git/LUFA/Drivers/USB/Core/AVR8/../AVR8/Endpoint_AVR8.h **** 			static inline uint16_t Endpoint_BytesInEndpoint(void) ATTR_WARN_UNUSED_RESULT ATTR_ALWAYS_INLINE
 222:./tmk_core/protocol/lufa/LUFA-git/LUFA/Drivers/USB/Core/AVR8/../AVR8/Endpoint_AVR8.h **** 			static inline uint16_t Endpoint_BytesInEndpoint(void)
 223:./tmk_core/protocol/lufa/LUFA-git/LUFA/Drivers/USB/Core/AVR8/../AVR8/Endpoint_AVR8.h **** 			{
 224:./tmk_core/protocol/lufa/LUFA-git/LUFA/Drivers/USB/Core/AVR8/../AVR8/Endpoint_AVR8.h **** 				#if (defined(USB_SERIES_6_AVR) || defined(USB_SERIES_7_AVR))
 225:./tmk_core/protocol/lufa/LUFA-git/LUFA/Drivers/USB/Core/AVR8/../AVR8/Endpoint_AVR8.h **** 					return UEBCX;
 226:./tmk_core/protocol/lufa/LUFA-git/LUFA/Drivers/USB/Core/AVR8/../AVR8/Endpoint_AVR8.h **** 				#elif defined(USB_SERIES_4_AVR)
 227:./tmk_core/protocol/lufa/LUFA-git/LUFA/Drivers/USB/Core/AVR8/../AVR8/Endpoint_AVR8.h **** 					return (((uint16_t)UEBCHX << 8) | UEBCLX);
 228:./tmk_core/protocol/lufa/LUFA-git/LUFA/Drivers/USB/Core/AVR8/../AVR8/Endpoint_AVR8.h **** 				#elif defined(USB_SERIES_2_AVR)
 229:./tmk_core/protocol/lufa/LUFA-git/LUFA/Drivers/USB/Core/AVR8/../AVR8/Endpoint_AVR8.h **** 					return UEBCLX;
 230:./tmk_core/protocol/lufa/LUFA-git/LUFA/Drivers/USB/Core/AVR8/../AVR8/Endpoint_AVR8.h **** 				#endif
 231:./tmk_core/protocol/lufa/LUFA-git/LUFA/Drivers/USB/Core/AVR8/../AVR8/Endpoint_AVR8.h **** 			}
 232:./tmk_core/protocol/lufa/LUFA-git/LUFA/Drivers/USB/Core/AVR8/../AVR8/Endpoint_AVR8.h **** 
 233:./tmk_core/protocol/lufa/LUFA-git/LUFA/Drivers/USB/Core/AVR8/../AVR8/Endpoint_AVR8.h **** 			/** Determines the currently selected endpoint's direction.
 234:./tmk_core/protocol/lufa/LUFA-git/LUFA/Drivers/USB/Core/AVR8/../AVR8/Endpoint_AVR8.h **** 			 *
 235:./tmk_core/protocol/lufa/LUFA-git/LUFA/Drivers/USB/Core/AVR8/../AVR8/Endpoint_AVR8.h **** 			 *  \return The currently selected endpoint's direction, as a \c ENDPOINT_DIR_* mask.
 236:./tmk_core/protocol/lufa/LUFA-git/LUFA/Drivers/USB/Core/AVR8/../AVR8/Endpoint_AVR8.h **** 			 */
 237:./tmk_core/protocol/lufa/LUFA-git/LUFA/Drivers/USB/Core/AVR8/../AVR8/Endpoint_AVR8.h **** 			static inline uint8_t Endpoint_GetEndpointDirection(void) ATTR_WARN_UNUSED_RESULT ATTR_ALWAYS_IN
 238:./tmk_core/protocol/lufa/LUFA-git/LUFA/Drivers/USB/Core/AVR8/../AVR8/Endpoint_AVR8.h **** 			static inline uint8_t Endpoint_GetEndpointDirection(void)
 239:./tmk_core/protocol/lufa/LUFA-git/LUFA/Drivers/USB/Core/AVR8/../AVR8/Endpoint_AVR8.h **** 			{
 240:./tmk_core/protocol/lufa/LUFA-git/LUFA/Drivers/USB/Core/AVR8/../AVR8/Endpoint_AVR8.h **** 				return (UECFG0X & (1 << EPDIR)) ? ENDPOINT_DIR_IN : ENDPOINT_DIR_OUT;
 241:./tmk_core/protocol/lufa/LUFA-git/LUFA/Drivers/USB/Core/AVR8/../AVR8/Endpoint_AVR8.h **** 			}
 242:./tmk_core/protocol/lufa/LUFA-git/LUFA/Drivers/USB/Core/AVR8/../AVR8/Endpoint_AVR8.h **** 
 243:./tmk_core/protocol/lufa/LUFA-git/LUFA/Drivers/USB/Core/AVR8/../AVR8/Endpoint_AVR8.h **** 			/** Get the endpoint address of the currently selected endpoint. This is typically used to save
 244:./tmk_core/protocol/lufa/LUFA-git/LUFA/Drivers/USB/Core/AVR8/../AVR8/Endpoint_AVR8.h **** 			 *  the currently selected endpoint so that it can be restored after another endpoint has been
 245:./tmk_core/protocol/lufa/LUFA-git/LUFA/Drivers/USB/Core/AVR8/../AVR8/Endpoint_AVR8.h **** 			 *  manipulated.
 246:./tmk_core/protocol/lufa/LUFA-git/LUFA/Drivers/USB/Core/AVR8/../AVR8/Endpoint_AVR8.h **** 			 *
 247:./tmk_core/protocol/lufa/LUFA-git/LUFA/Drivers/USB/Core/AVR8/../AVR8/Endpoint_AVR8.h **** 			 *  \return Index of the currently selected endpoint.
 248:./tmk_core/protocol/lufa/LUFA-git/LUFA/Drivers/USB/Core/AVR8/../AVR8/Endpoint_AVR8.h **** 			 */
 249:./tmk_core/protocol/lufa/LUFA-git/LUFA/Drivers/USB/Core/AVR8/../AVR8/Endpoint_AVR8.h **** 			static inline uint8_t Endpoint_GetCurrentEndpoint(void) ATTR_WARN_UNUSED_RESULT ATTR_ALWAYS_INLI
 250:./tmk_core/protocol/lufa/LUFA-git/LUFA/Drivers/USB/Core/AVR8/../AVR8/Endpoint_AVR8.h **** 			static inline uint8_t Endpoint_GetCurrentEndpoint(void)
 251:./tmk_core/protocol/lufa/LUFA-git/LUFA/Drivers/USB/Core/AVR8/../AVR8/Endpoint_AVR8.h **** 			{
 252:./tmk_core/protocol/lufa/LUFA-git/LUFA/Drivers/USB/Core/AVR8/../AVR8/Endpoint_AVR8.h **** 				#if !defined(CONTROL_ONLY_DEVICE)
 253:./tmk_core/protocol/lufa/LUFA-git/LUFA/Drivers/USB/Core/AVR8/../AVR8/Endpoint_AVR8.h **** 					return ((UENUM & ENDPOINT_EPNUM_MASK) | Endpoint_GetEndpointDirection());
 254:./tmk_core/protocol/lufa/LUFA-git/LUFA/Drivers/USB/Core/AVR8/../AVR8/Endpoint_AVR8.h **** 				#else
 255:./tmk_core/protocol/lufa/LUFA-git/LUFA/Drivers/USB/Core/AVR8/../AVR8/Endpoint_AVR8.h **** 					return ENDPOINT_CONTROLEP;
 256:./tmk_core/protocol/lufa/LUFA-git/LUFA/Drivers/USB/Core/AVR8/../AVR8/Endpoint_AVR8.h **** 				#endif
 257:./tmk_core/protocol/lufa/LUFA-git/LUFA/Drivers/USB/Core/AVR8/../AVR8/Endpoint_AVR8.h **** 			}
 258:./tmk_core/protocol/lufa/LUFA-git/LUFA/Drivers/USB/Core/AVR8/../AVR8/Endpoint_AVR8.h **** 
 259:./tmk_core/protocol/lufa/LUFA-git/LUFA/Drivers/USB/Core/AVR8/../AVR8/Endpoint_AVR8.h **** 			/** Selects the given endpoint address.
 260:./tmk_core/protocol/lufa/LUFA-git/LUFA/Drivers/USB/Core/AVR8/../AVR8/Endpoint_AVR8.h **** 			 *
 261:./tmk_core/protocol/lufa/LUFA-git/LUFA/Drivers/USB/Core/AVR8/../AVR8/Endpoint_AVR8.h **** 			 *  Any endpoint operations which do not require the endpoint address to be indicated will opera
 262:./tmk_core/protocol/lufa/LUFA-git/LUFA/Drivers/USB/Core/AVR8/../AVR8/Endpoint_AVR8.h **** 			 *  the currently selected endpoint.
 263:./tmk_core/protocol/lufa/LUFA-git/LUFA/Drivers/USB/Core/AVR8/../AVR8/Endpoint_AVR8.h **** 			 *
 264:./tmk_core/protocol/lufa/LUFA-git/LUFA/Drivers/USB/Core/AVR8/../AVR8/Endpoint_AVR8.h **** 			 *  \param[in] Address Endpoint address to select.
 265:./tmk_core/protocol/lufa/LUFA-git/LUFA/Drivers/USB/Core/AVR8/../AVR8/Endpoint_AVR8.h **** 			 */
 266:./tmk_core/protocol/lufa/LUFA-git/LUFA/Drivers/USB/Core/AVR8/../AVR8/Endpoint_AVR8.h **** 			static inline void Endpoint_SelectEndpoint(const uint8_t Address) ATTR_ALWAYS_INLINE;
 267:./tmk_core/protocol/lufa/LUFA-git/LUFA/Drivers/USB/Core/AVR8/../AVR8/Endpoint_AVR8.h **** 			static inline void Endpoint_SelectEndpoint(const uint8_t Address)
  89               		.loc 2 267 23 view .LVU17
  90               	.LBB180:
 268:./tmk_core/protocol/lufa/LUFA-git/LUFA/Drivers/USB/Core/AVR8/../AVR8/Endpoint_AVR8.h **** 			{
 269:./tmk_core/protocol/lufa/LUFA-git/LUFA/Drivers/USB/Core/AVR8/../AVR8/Endpoint_AVR8.h **** 				#if !defined(CONTROL_ONLY_DEVICE)
 270:./tmk_core/protocol/lufa/LUFA-git/LUFA/Drivers/USB/Core/AVR8/../AVR8/Endpoint_AVR8.h **** 					UENUM = (Address & ENDPOINT_EPNUM_MASK);
  91               		.loc 2 270 6 view .LVU18
  92               		.loc 2 270 12 is_stmt 0 view .LVU19
  93 001c 2093 E900 		sts 233,r18
  94               	.LVL5:
  95               		.loc 2 270 12 view .LVU20
  96               	.LBE180:
  97               	.LBE179:
 783:./tmk_core/protocol/lufa/lufa.c **** 
 784:./tmk_core/protocol/lufa/lufa.c ****     /* Check if write ready for a polling interval around 10ms */
 785:./tmk_core/protocol/lufa/lufa.c ****     while (timeout-- && !Endpoint_IsReadWriteAllowed()) _delay_us(40);
  98               		.loc 1 785 22 is_stmt 1 view .LVU21
  99               	.LBB182:
 100               	.LBB181:
 101               		.loc 2 270 12 is_stmt 0 view .LVU22
 102 0020 8FEF      		ldi r24,lo8(-1)
 103               	.LVL6:
 104               	.L4:
 105               		.loc 2 270 12 view .LVU23
 106               	.LBE181:
 107               	.LBE182:
 108               	.LBB183:
 109               	.LBI183:
 271:./tmk_core/protocol/lufa/LUFA-git/LUFA/Drivers/USB/Core/AVR8/../AVR8/Endpoint_AVR8.h **** 				#endif
 272:./tmk_core/protocol/lufa/LUFA-git/LUFA/Drivers/USB/Core/AVR8/../AVR8/Endpoint_AVR8.h **** 			}
 273:./tmk_core/protocol/lufa/LUFA-git/LUFA/Drivers/USB/Core/AVR8/../AVR8/Endpoint_AVR8.h **** 
 274:./tmk_core/protocol/lufa/LUFA-git/LUFA/Drivers/USB/Core/AVR8/../AVR8/Endpoint_AVR8.h **** 			/** Resets the endpoint bank FIFO. This clears all the endpoint banks and resets the USB control
 275:./tmk_core/protocol/lufa/LUFA-git/LUFA/Drivers/USB/Core/AVR8/../AVR8/Endpoint_AVR8.h **** 			 *  data In and Out pointers to the bank's contents.
 276:./tmk_core/protocol/lufa/LUFA-git/LUFA/Drivers/USB/Core/AVR8/../AVR8/Endpoint_AVR8.h **** 			 *
 277:./tmk_core/protocol/lufa/LUFA-git/LUFA/Drivers/USB/Core/AVR8/../AVR8/Endpoint_AVR8.h **** 			 *  \param[in] Address  Endpoint address whose FIFO buffers are to be reset.
 278:./tmk_core/protocol/lufa/LUFA-git/LUFA/Drivers/USB/Core/AVR8/../AVR8/Endpoint_AVR8.h **** 			 */
 279:./tmk_core/protocol/lufa/LUFA-git/LUFA/Drivers/USB/Core/AVR8/../AVR8/Endpoint_AVR8.h **** 			static inline void Endpoint_ResetEndpoint(const uint8_t Address) ATTR_ALWAYS_INLINE;
 280:./tmk_core/protocol/lufa/LUFA-git/LUFA/Drivers/USB/Core/AVR8/../AVR8/Endpoint_AVR8.h **** 			static inline void Endpoint_ResetEndpoint(const uint8_t Address)
 281:./tmk_core/protocol/lufa/LUFA-git/LUFA/Drivers/USB/Core/AVR8/../AVR8/Endpoint_AVR8.h **** 			{
 282:./tmk_core/protocol/lufa/LUFA-git/LUFA/Drivers/USB/Core/AVR8/../AVR8/Endpoint_AVR8.h **** 				UERST = (1 << (Address & ENDPOINT_EPNUM_MASK));
 283:./tmk_core/protocol/lufa/LUFA-git/LUFA/Drivers/USB/Core/AVR8/../AVR8/Endpoint_AVR8.h **** 				UERST = 0;
 284:./tmk_core/protocol/lufa/LUFA-git/LUFA/Drivers/USB/Core/AVR8/../AVR8/Endpoint_AVR8.h **** 			}
 285:./tmk_core/protocol/lufa/LUFA-git/LUFA/Drivers/USB/Core/AVR8/../AVR8/Endpoint_AVR8.h **** 
 286:./tmk_core/protocol/lufa/LUFA-git/LUFA/Drivers/USB/Core/AVR8/../AVR8/Endpoint_AVR8.h **** 			/** Enables the currently selected endpoint so that data can be sent and received through it to
 287:./tmk_core/protocol/lufa/LUFA-git/LUFA/Drivers/USB/Core/AVR8/../AVR8/Endpoint_AVR8.h **** 			 *  and from a host.
 288:./tmk_core/protocol/lufa/LUFA-git/LUFA/Drivers/USB/Core/AVR8/../AVR8/Endpoint_AVR8.h **** 			 *
 289:./tmk_core/protocol/lufa/LUFA-git/LUFA/Drivers/USB/Core/AVR8/../AVR8/Endpoint_AVR8.h **** 			 *  \note Endpoints must first be configured properly via \ref Endpoint_ConfigureEndpoint().
 290:./tmk_core/protocol/lufa/LUFA-git/LUFA/Drivers/USB/Core/AVR8/../AVR8/Endpoint_AVR8.h **** 			 */
 291:./tmk_core/protocol/lufa/LUFA-git/LUFA/Drivers/USB/Core/AVR8/../AVR8/Endpoint_AVR8.h **** 			static inline void Endpoint_EnableEndpoint(void) ATTR_ALWAYS_INLINE;
 292:./tmk_core/protocol/lufa/LUFA-git/LUFA/Drivers/USB/Core/AVR8/../AVR8/Endpoint_AVR8.h **** 			static inline void Endpoint_EnableEndpoint(void)
 293:./tmk_core/protocol/lufa/LUFA-git/LUFA/Drivers/USB/Core/AVR8/../AVR8/Endpoint_AVR8.h **** 			{
 294:./tmk_core/protocol/lufa/LUFA-git/LUFA/Drivers/USB/Core/AVR8/../AVR8/Endpoint_AVR8.h **** 				UECONX |= (1 << EPEN);
 295:./tmk_core/protocol/lufa/LUFA-git/LUFA/Drivers/USB/Core/AVR8/../AVR8/Endpoint_AVR8.h **** 			}
 296:./tmk_core/protocol/lufa/LUFA-git/LUFA/Drivers/USB/Core/AVR8/../AVR8/Endpoint_AVR8.h **** 
 297:./tmk_core/protocol/lufa/LUFA-git/LUFA/Drivers/USB/Core/AVR8/../AVR8/Endpoint_AVR8.h **** 			/** Disables the currently selected endpoint so that data cannot be sent and received through it
 298:./tmk_core/protocol/lufa/LUFA-git/LUFA/Drivers/USB/Core/AVR8/../AVR8/Endpoint_AVR8.h **** 			 *  to and from a host.
 299:./tmk_core/protocol/lufa/LUFA-git/LUFA/Drivers/USB/Core/AVR8/../AVR8/Endpoint_AVR8.h **** 			 */
 300:./tmk_core/protocol/lufa/LUFA-git/LUFA/Drivers/USB/Core/AVR8/../AVR8/Endpoint_AVR8.h **** 			static inline void Endpoint_DisableEndpoint(void) ATTR_ALWAYS_INLINE;
 301:./tmk_core/protocol/lufa/LUFA-git/LUFA/Drivers/USB/Core/AVR8/../AVR8/Endpoint_AVR8.h **** 			static inline void Endpoint_DisableEndpoint(void)
 302:./tmk_core/protocol/lufa/LUFA-git/LUFA/Drivers/USB/Core/AVR8/../AVR8/Endpoint_AVR8.h **** 			{
 303:./tmk_core/protocol/lufa/LUFA-git/LUFA/Drivers/USB/Core/AVR8/../AVR8/Endpoint_AVR8.h **** 				UECONX &= ~(1 << EPEN);
 304:./tmk_core/protocol/lufa/LUFA-git/LUFA/Drivers/USB/Core/AVR8/../AVR8/Endpoint_AVR8.h **** 			}
 305:./tmk_core/protocol/lufa/LUFA-git/LUFA/Drivers/USB/Core/AVR8/../AVR8/Endpoint_AVR8.h **** 
 306:./tmk_core/protocol/lufa/LUFA-git/LUFA/Drivers/USB/Core/AVR8/../AVR8/Endpoint_AVR8.h **** 			/** Determines if the currently selected endpoint is enabled, but not necessarily configured.
 307:./tmk_core/protocol/lufa/LUFA-git/LUFA/Drivers/USB/Core/AVR8/../AVR8/Endpoint_AVR8.h **** 			 *
 308:./tmk_core/protocol/lufa/LUFA-git/LUFA/Drivers/USB/Core/AVR8/../AVR8/Endpoint_AVR8.h **** 			 * \return Boolean \c true if the currently selected endpoint is enabled, \c false otherwise.
 309:./tmk_core/protocol/lufa/LUFA-git/LUFA/Drivers/USB/Core/AVR8/../AVR8/Endpoint_AVR8.h **** 			 */
 310:./tmk_core/protocol/lufa/LUFA-git/LUFA/Drivers/USB/Core/AVR8/../AVR8/Endpoint_AVR8.h **** 			static inline bool Endpoint_IsEnabled(void) ATTR_WARN_UNUSED_RESULT ATTR_ALWAYS_INLINE;
 311:./tmk_core/protocol/lufa/LUFA-git/LUFA/Drivers/USB/Core/AVR8/../AVR8/Endpoint_AVR8.h **** 			static inline bool Endpoint_IsEnabled(void)
 312:./tmk_core/protocol/lufa/LUFA-git/LUFA/Drivers/USB/Core/AVR8/../AVR8/Endpoint_AVR8.h **** 			{
 313:./tmk_core/protocol/lufa/LUFA-git/LUFA/Drivers/USB/Core/AVR8/../AVR8/Endpoint_AVR8.h **** 				return ((UECONX & (1 << EPEN)) ? true : false);
 314:./tmk_core/protocol/lufa/LUFA-git/LUFA/Drivers/USB/Core/AVR8/../AVR8/Endpoint_AVR8.h **** 			}
 315:./tmk_core/protocol/lufa/LUFA-git/LUFA/Drivers/USB/Core/AVR8/../AVR8/Endpoint_AVR8.h **** 
 316:./tmk_core/protocol/lufa/LUFA-git/LUFA/Drivers/USB/Core/AVR8/../AVR8/Endpoint_AVR8.h **** 			/** Retrieves the number of busy banks in the currently selected endpoint, which have been queue
 317:./tmk_core/protocol/lufa/LUFA-git/LUFA/Drivers/USB/Core/AVR8/../AVR8/Endpoint_AVR8.h **** 			 *  transmission via the \ref Endpoint_ClearIN() command, or are awaiting acknowledgment via the
 318:./tmk_core/protocol/lufa/LUFA-git/LUFA/Drivers/USB/Core/AVR8/../AVR8/Endpoint_AVR8.h **** 			 *  \ref Endpoint_ClearOUT() command.
 319:./tmk_core/protocol/lufa/LUFA-git/LUFA/Drivers/USB/Core/AVR8/../AVR8/Endpoint_AVR8.h **** 			 *
 320:./tmk_core/protocol/lufa/LUFA-git/LUFA/Drivers/USB/Core/AVR8/../AVR8/Endpoint_AVR8.h **** 			 *  \ingroup Group_EndpointPacketManagement_AVR8
 321:./tmk_core/protocol/lufa/LUFA-git/LUFA/Drivers/USB/Core/AVR8/../AVR8/Endpoint_AVR8.h **** 			 *
 322:./tmk_core/protocol/lufa/LUFA-git/LUFA/Drivers/USB/Core/AVR8/../AVR8/Endpoint_AVR8.h **** 			 *  \return Total number of busy banks in the selected endpoint.
 323:./tmk_core/protocol/lufa/LUFA-git/LUFA/Drivers/USB/Core/AVR8/../AVR8/Endpoint_AVR8.h **** 			 */
 324:./tmk_core/protocol/lufa/LUFA-git/LUFA/Drivers/USB/Core/AVR8/../AVR8/Endpoint_AVR8.h **** 			static inline uint8_t Endpoint_GetBusyBanks(void) ATTR_ALWAYS_INLINE ATTR_WARN_UNUSED_RESULT;
 325:./tmk_core/protocol/lufa/LUFA-git/LUFA/Drivers/USB/Core/AVR8/../AVR8/Endpoint_AVR8.h **** 			static inline uint8_t Endpoint_GetBusyBanks(void)
 326:./tmk_core/protocol/lufa/LUFA-git/LUFA/Drivers/USB/Core/AVR8/../AVR8/Endpoint_AVR8.h **** 			{
 327:./tmk_core/protocol/lufa/LUFA-git/LUFA/Drivers/USB/Core/AVR8/../AVR8/Endpoint_AVR8.h **** 				return (UESTA0X & (0x03 << NBUSYBK0));
 328:./tmk_core/protocol/lufa/LUFA-git/LUFA/Drivers/USB/Core/AVR8/../AVR8/Endpoint_AVR8.h **** 			}
 329:./tmk_core/protocol/lufa/LUFA-git/LUFA/Drivers/USB/Core/AVR8/../AVR8/Endpoint_AVR8.h **** 
 330:./tmk_core/protocol/lufa/LUFA-git/LUFA/Drivers/USB/Core/AVR8/../AVR8/Endpoint_AVR8.h **** 			/** Aborts all pending IN transactions on the currently selected endpoint, once the bank
 331:./tmk_core/protocol/lufa/LUFA-git/LUFA/Drivers/USB/Core/AVR8/../AVR8/Endpoint_AVR8.h **** 			 *  has been queued for transmission to the host via \ref Endpoint_ClearIN(). This function
 332:./tmk_core/protocol/lufa/LUFA-git/LUFA/Drivers/USB/Core/AVR8/../AVR8/Endpoint_AVR8.h **** 			 *  will terminate all queued transactions, resetting the endpoint banks ready for a new
 333:./tmk_core/protocol/lufa/LUFA-git/LUFA/Drivers/USB/Core/AVR8/../AVR8/Endpoint_AVR8.h **** 			 *  packet.
 334:./tmk_core/protocol/lufa/LUFA-git/LUFA/Drivers/USB/Core/AVR8/../AVR8/Endpoint_AVR8.h **** 			 *
 335:./tmk_core/protocol/lufa/LUFA-git/LUFA/Drivers/USB/Core/AVR8/../AVR8/Endpoint_AVR8.h **** 			 *  \ingroup Group_EndpointPacketManagement_AVR8
 336:./tmk_core/protocol/lufa/LUFA-git/LUFA/Drivers/USB/Core/AVR8/../AVR8/Endpoint_AVR8.h **** 			 */
 337:./tmk_core/protocol/lufa/LUFA-git/LUFA/Drivers/USB/Core/AVR8/../AVR8/Endpoint_AVR8.h **** 			static inline void Endpoint_AbortPendingIN(void)
 338:./tmk_core/protocol/lufa/LUFA-git/LUFA/Drivers/USB/Core/AVR8/../AVR8/Endpoint_AVR8.h **** 			{
 339:./tmk_core/protocol/lufa/LUFA-git/LUFA/Drivers/USB/Core/AVR8/../AVR8/Endpoint_AVR8.h **** 				while (Endpoint_GetBusyBanks() != 0)
 340:./tmk_core/protocol/lufa/LUFA-git/LUFA/Drivers/USB/Core/AVR8/../AVR8/Endpoint_AVR8.h **** 				{
 341:./tmk_core/protocol/lufa/LUFA-git/LUFA/Drivers/USB/Core/AVR8/../AVR8/Endpoint_AVR8.h **** 					UEINTX |= (1 << RXOUTI);
 342:./tmk_core/protocol/lufa/LUFA-git/LUFA/Drivers/USB/Core/AVR8/../AVR8/Endpoint_AVR8.h **** 					while (UEINTX & (1 << RXOUTI));
 343:./tmk_core/protocol/lufa/LUFA-git/LUFA/Drivers/USB/Core/AVR8/../AVR8/Endpoint_AVR8.h **** 				}
 344:./tmk_core/protocol/lufa/LUFA-git/LUFA/Drivers/USB/Core/AVR8/../AVR8/Endpoint_AVR8.h **** 			}
 345:./tmk_core/protocol/lufa/LUFA-git/LUFA/Drivers/USB/Core/AVR8/../AVR8/Endpoint_AVR8.h **** 
 346:./tmk_core/protocol/lufa/LUFA-git/LUFA/Drivers/USB/Core/AVR8/../AVR8/Endpoint_AVR8.h **** 			/** Determines if the currently selected endpoint may be read from (if data is waiting in the en
 347:./tmk_core/protocol/lufa/LUFA-git/LUFA/Drivers/USB/Core/AVR8/../AVR8/Endpoint_AVR8.h **** 			 *  bank and the endpoint is an OUT direction, or if the bank is not yet full if the endpoint is
 348:./tmk_core/protocol/lufa/LUFA-git/LUFA/Drivers/USB/Core/AVR8/../AVR8/Endpoint_AVR8.h **** 			 *  direction). This function will return false if an error has occurred in the endpoint, if the
 349:./tmk_core/protocol/lufa/LUFA-git/LUFA/Drivers/USB/Core/AVR8/../AVR8/Endpoint_AVR8.h **** 			 *  is an OUT direction and no packet (or an empty packet) has been received, or if the endpoint
 350:./tmk_core/protocol/lufa/LUFA-git/LUFA/Drivers/USB/Core/AVR8/../AVR8/Endpoint_AVR8.h **** 			 *  direction and the endpoint bank is full.
 351:./tmk_core/protocol/lufa/LUFA-git/LUFA/Drivers/USB/Core/AVR8/../AVR8/Endpoint_AVR8.h **** 			 *
 352:./tmk_core/protocol/lufa/LUFA-git/LUFA/Drivers/USB/Core/AVR8/../AVR8/Endpoint_AVR8.h **** 			 *  \ingroup Group_EndpointPacketManagement_AVR8
 353:./tmk_core/protocol/lufa/LUFA-git/LUFA/Drivers/USB/Core/AVR8/../AVR8/Endpoint_AVR8.h **** 			 *
 354:./tmk_core/protocol/lufa/LUFA-git/LUFA/Drivers/USB/Core/AVR8/../AVR8/Endpoint_AVR8.h **** 			 *  \return Boolean \c true if the currently selected endpoint may be read from or written to, d
 355:./tmk_core/protocol/lufa/LUFA-git/LUFA/Drivers/USB/Core/AVR8/../AVR8/Endpoint_AVR8.h **** 			 *          on its direction.
 356:./tmk_core/protocol/lufa/LUFA-git/LUFA/Drivers/USB/Core/AVR8/../AVR8/Endpoint_AVR8.h **** 			 */
 357:./tmk_core/protocol/lufa/LUFA-git/LUFA/Drivers/USB/Core/AVR8/../AVR8/Endpoint_AVR8.h **** 			static inline bool Endpoint_IsReadWriteAllowed(void) ATTR_WARN_UNUSED_RESULT ATTR_ALWAYS_INLINE;
 358:./tmk_core/protocol/lufa/LUFA-git/LUFA/Drivers/USB/Core/AVR8/../AVR8/Endpoint_AVR8.h **** 			static inline bool Endpoint_IsReadWriteAllowed(void)
 110               		.loc 2 358 23 is_stmt 1 view .LVU24
 111               	.LBB184:
 359:./tmk_core/protocol/lufa/LUFA-git/LUFA/Drivers/USB/Core/AVR8/../AVR8/Endpoint_AVR8.h **** 			{
 360:./tmk_core/protocol/lufa/LUFA-git/LUFA/Drivers/USB/Core/AVR8/../AVR8/Endpoint_AVR8.h **** 				return ((UEINTX & (1 << RWAL)) ? true : false);
 112               		.loc 2 360 5 view .LVU25
 113               		.loc 2 360 14 is_stmt 0 view .LVU26
 114 0022 9091 E800 		lds r25,232
 115               	.LBE184:
 116               	.LBE183:
 117               		.loc 1 785 22 view .LVU27
 118 0026 95FD      		sbrc r25,5
 119 0028 00C0      		rjmp .L7
 120               		.loc 1 785 57 is_stmt 1 view .LVU28
 121               	.LVL7:
 122               	.LBB185:
 123               	.LBI185:
 124               		.file 3 "/usr/avr/include/util/delay.h"
   1:/usr/avr/include/util/delay.h **** /* Copyright (c) 2002, Marek Michalkiewicz
   2:/usr/avr/include/util/delay.h ****    Copyright (c) 2004,2005,2007 Joerg Wunsch
   3:/usr/avr/include/util/delay.h ****    Copyright (c) 2007  Florin-Viorel Petrov
   4:/usr/avr/include/util/delay.h ****    All rights reserved.
   5:/usr/avr/include/util/delay.h **** 
   6:/usr/avr/include/util/delay.h ****    Redistribution and use in source and binary forms, with or without
   7:/usr/avr/include/util/delay.h ****    modification, are permitted provided that the following conditions are met:
   8:/usr/avr/include/util/delay.h **** 
   9:/usr/avr/include/util/delay.h ****    * Redistributions of source code must retain the above copyright
  10:/usr/avr/include/util/delay.h ****      notice, this list of conditions and the following disclaimer.
  11:/usr/avr/include/util/delay.h **** 
  12:/usr/avr/include/util/delay.h ****    * Redistributions in binary form must reproduce the above copyright
  13:/usr/avr/include/util/delay.h ****      notice, this list of conditions and the following disclaimer in
  14:/usr/avr/include/util/delay.h ****      the documentation and/or other materials provided with the
  15:/usr/avr/include/util/delay.h ****      distribution.
  16:/usr/avr/include/util/delay.h **** 
  17:/usr/avr/include/util/delay.h ****    * Neither the name of the copyright holders nor the names of
  18:/usr/avr/include/util/delay.h ****      contributors may be used to endorse or promote products derived
  19:/usr/avr/include/util/delay.h ****      from this software without specific prior written permission.
  20:/usr/avr/include/util/delay.h **** 
  21:/usr/avr/include/util/delay.h ****   THIS SOFTWARE IS PROVIDED BY THE COPYRIGHT HOLDERS AND CONTRIBUTORS "AS IS"
  22:/usr/avr/include/util/delay.h ****   AND ANY EXPRESS OR IMPLIED WARRANTIES, INCLUDING, BUT NOT LIMITED TO, THE
  23:/usr/avr/include/util/delay.h ****   IMPLIED WARRANTIES OF MERCHANTABILITY AND FITNESS FOR A PARTICULAR PURPOSE
  24:/usr/avr/include/util/delay.h ****   ARE DISCLAIMED. IN NO EVENT SHALL THE COPYRIGHT OWNER OR CONTRIBUTORS BE
  25:/usr/avr/include/util/delay.h ****   LIABLE FOR ANY DIRECT, INDIRECT, INCIDENTAL, SPECIAL, EXEMPLARY, OR
  26:/usr/avr/include/util/delay.h ****   CONSEQUENTIAL DAMAGES (INCLUDING, BUT NOT LIMITED TO, PROCUREMENT OF
  27:/usr/avr/include/util/delay.h ****   SUBSTITUTE GOODS OR SERVICES; LOSS OF USE, DATA, OR PROFITS; OR BUSINESS
  28:/usr/avr/include/util/delay.h ****   INTERRUPTION) HOWEVER CAUSED AND ON ANY THEORY OF LIABILITY, WHETHER IN
  29:/usr/avr/include/util/delay.h ****   CONTRACT, STRICT LIABILITY, OR TORT (INCLUDING NEGLIGENCE OR OTHERWISE)
  30:/usr/avr/include/util/delay.h ****   ARISING IN ANY WAY OUT OF THE USE OF THIS SOFTWARE, EVEN IF ADVISED OF THE
  31:/usr/avr/include/util/delay.h ****   POSSIBILITY OF SUCH DAMAGE. */
  32:/usr/avr/include/util/delay.h **** 
  33:/usr/avr/include/util/delay.h **** /* $Id: delay.h.in 2551 2020-10-10 20:33:35Z joerg_wunsch $ */
  34:/usr/avr/include/util/delay.h **** 
  35:/usr/avr/include/util/delay.h **** #ifndef _UTIL_DELAY_H_
  36:/usr/avr/include/util/delay.h **** #define _UTIL_DELAY_H_ 1
  37:/usr/avr/include/util/delay.h **** 
  38:/usr/avr/include/util/delay.h **** #ifndef __DOXYGEN__
  39:/usr/avr/include/util/delay.h **** #  ifndef __HAS_DELAY_CYCLES
  40:/usr/avr/include/util/delay.h **** #    define __HAS_DELAY_CYCLES 1
  41:/usr/avr/include/util/delay.h **** #  endif
  42:/usr/avr/include/util/delay.h **** #endif  /* __DOXYGEN__ */
  43:/usr/avr/include/util/delay.h **** 
  44:/usr/avr/include/util/delay.h **** #include <inttypes.h>
  45:/usr/avr/include/util/delay.h **** #include <util/delay_basic.h>
  46:/usr/avr/include/util/delay.h **** #include <math.h>
  47:/usr/avr/include/util/delay.h **** 
  48:/usr/avr/include/util/delay.h **** /** \file */
  49:/usr/avr/include/util/delay.h **** /** \defgroup util_delay <util/delay.h>: Convenience functions for busy-wait delay loops
  50:/usr/avr/include/util/delay.h ****     \code
  51:/usr/avr/include/util/delay.h ****     #define F_CPU 1000000UL  // 1 MHz
  52:/usr/avr/include/util/delay.h ****     //#define F_CPU 14.7456E6
  53:/usr/avr/include/util/delay.h ****     #include <util/delay.h>
  54:/usr/avr/include/util/delay.h ****     \endcode
  55:/usr/avr/include/util/delay.h **** 
  56:/usr/avr/include/util/delay.h ****     \note As an alternative method, it is possible to pass the
  57:/usr/avr/include/util/delay.h ****     F_CPU macro down to the compiler from the Makefile.
  58:/usr/avr/include/util/delay.h ****     Obviously, in that case, no \c \#define statement should be
  59:/usr/avr/include/util/delay.h ****     used.
  60:/usr/avr/include/util/delay.h **** 
  61:/usr/avr/include/util/delay.h ****     The functions in this header file are wrappers around the basic
  62:/usr/avr/include/util/delay.h ****     busy-wait functions from <util/delay_basic.h>.  They are meant as
  63:/usr/avr/include/util/delay.h ****     convenience functions where actual time values can be specified
  64:/usr/avr/include/util/delay.h ****     rather than a number of cycles to wait for.  The idea behind is
  65:/usr/avr/include/util/delay.h ****     that compile-time constant expressions will be eliminated by
  66:/usr/avr/include/util/delay.h ****     compiler optimization so floating-point expressions can be used
  67:/usr/avr/include/util/delay.h ****     to calculate the number of delay cycles needed based on the CPU
  68:/usr/avr/include/util/delay.h ****     frequency passed by the macro F_CPU.
  69:/usr/avr/include/util/delay.h **** 
  70:/usr/avr/include/util/delay.h ****     \note In order for these functions to work as intended, compiler
  71:/usr/avr/include/util/delay.h ****     optimizations <em>must</em> be enabled, and the delay time
  72:/usr/avr/include/util/delay.h ****     <em>must</em> be an expression that is a known constant at
  73:/usr/avr/include/util/delay.h ****     compile-time.  If these requirements are not met, the resulting
  74:/usr/avr/include/util/delay.h ****     delay will be much longer (and basically unpredictable), and
  75:/usr/avr/include/util/delay.h ****     applications that otherwise do not use floating-point calculations
  76:/usr/avr/include/util/delay.h ****     will experience severe code bloat by the floating-point library
  77:/usr/avr/include/util/delay.h ****     routines linked into the application.
  78:/usr/avr/include/util/delay.h **** 
  79:/usr/avr/include/util/delay.h ****     The functions available allow the specification of microsecond, and
  80:/usr/avr/include/util/delay.h ****     millisecond delays directly, using the application-supplied macro
  81:/usr/avr/include/util/delay.h ****     F_CPU as the CPU clock frequency (in Hertz).
  82:/usr/avr/include/util/delay.h **** 
  83:/usr/avr/include/util/delay.h **** */
  84:/usr/avr/include/util/delay.h **** 
  85:/usr/avr/include/util/delay.h **** #if !defined(__DOXYGEN__)
  86:/usr/avr/include/util/delay.h **** static __inline__ void _delay_us(double __us) __attribute__((__always_inline__));
  87:/usr/avr/include/util/delay.h **** static __inline__ void _delay_ms(double __ms) __attribute__((__always_inline__));
  88:/usr/avr/include/util/delay.h **** #endif
  89:/usr/avr/include/util/delay.h **** 
  90:/usr/avr/include/util/delay.h **** #ifndef F_CPU
  91:/usr/avr/include/util/delay.h **** /* prevent compiler error by supplying a default */
  92:/usr/avr/include/util/delay.h **** # warning "F_CPU not defined for <util/delay.h>"
  93:/usr/avr/include/util/delay.h **** /** \ingroup util_delay
  94:/usr/avr/include/util/delay.h ****     \def F_CPU
  95:/usr/avr/include/util/delay.h ****     \brief CPU frequency in Hz
  96:/usr/avr/include/util/delay.h **** 
  97:/usr/avr/include/util/delay.h ****     The macro F_CPU specifies the CPU frequency to be considered by
  98:/usr/avr/include/util/delay.h ****     the delay macros.  This macro is normally supplied by the
  99:/usr/avr/include/util/delay.h ****     environment (e.g. from within a project header, or the project's
 100:/usr/avr/include/util/delay.h ****     Makefile).  The value 1 MHz here is only provided as a "vanilla"
 101:/usr/avr/include/util/delay.h ****     fallback if no such user-provided definition could be found.
 102:/usr/avr/include/util/delay.h **** 
 103:/usr/avr/include/util/delay.h ****     In terms of the delay functions, the CPU frequency can be given as
 104:/usr/avr/include/util/delay.h ****     a floating-point constant (e.g. 3.6864E6 for 3.6864 MHz).
 105:/usr/avr/include/util/delay.h ****     However, the macros in <util/setbaud.h> require it to be an
 106:/usr/avr/include/util/delay.h ****     integer value.
 107:/usr/avr/include/util/delay.h ****  */
 108:/usr/avr/include/util/delay.h **** # define F_CPU 1000000UL
 109:/usr/avr/include/util/delay.h **** #endif
 110:/usr/avr/include/util/delay.h **** 
 111:/usr/avr/include/util/delay.h **** #ifndef __OPTIMIZE__
 112:/usr/avr/include/util/delay.h **** # warning "Compiler optimizations disabled; functions from <util/delay.h> won't work as designed"
 113:/usr/avr/include/util/delay.h **** #endif
 114:/usr/avr/include/util/delay.h **** 
 115:/usr/avr/include/util/delay.h **** #if __HAS_DELAY_CYCLES && defined(__OPTIMIZE__) && \
 116:/usr/avr/include/util/delay.h ****   !defined(__DELAY_BACKWARD_COMPATIBLE__) &&	   \
 117:/usr/avr/include/util/delay.h ****   __STDC_HOSTED__
 118:/usr/avr/include/util/delay.h **** #  include <math.h>
 119:/usr/avr/include/util/delay.h **** #endif
 120:/usr/avr/include/util/delay.h **** 
 121:/usr/avr/include/util/delay.h **** /**
 122:/usr/avr/include/util/delay.h ****    \ingroup util_delay
 123:/usr/avr/include/util/delay.h **** 
 124:/usr/avr/include/util/delay.h ****    Perform a delay of \c __ms milliseconds, using _delay_loop_2().
 125:/usr/avr/include/util/delay.h **** 
 126:/usr/avr/include/util/delay.h ****    The macro F_CPU is supposed to be defined to a
 127:/usr/avr/include/util/delay.h ****    constant defining the CPU clock frequency (in Hertz).
 128:/usr/avr/include/util/delay.h **** 
 129:/usr/avr/include/util/delay.h ****    The maximal possible delay is 262.14 ms / F_CPU in MHz.
 130:/usr/avr/include/util/delay.h **** 
 131:/usr/avr/include/util/delay.h ****    When the user request delay which exceed the maximum possible one,
 132:/usr/avr/include/util/delay.h ****    _delay_ms() provides a decreased resolution functionality. In this
 133:/usr/avr/include/util/delay.h ****    mode _delay_ms() will work with a resolution of 1/10 ms, providing
 134:/usr/avr/include/util/delay.h ****    delays up to 6.5535 seconds (independent from CPU frequency).  The
 135:/usr/avr/include/util/delay.h ****    user will not be informed about decreased resolution.
 136:/usr/avr/include/util/delay.h **** 
 137:/usr/avr/include/util/delay.h ****    If the avr-gcc toolchain has __builtin_avr_delay_cycles()
 138:/usr/avr/include/util/delay.h ****    support, maximal possible delay is 4294967.295 ms/ F_CPU in MHz. For
 139:/usr/avr/include/util/delay.h ****    values greater than the maximal possible delay, overflows results in
 140:/usr/avr/include/util/delay.h ****    no delay i.e., 0ms.
 141:/usr/avr/include/util/delay.h **** 
 142:/usr/avr/include/util/delay.h ****    Conversion of \c __ms into clock cycles may not always result in
 143:/usr/avr/include/util/delay.h ****    integer.  By default, the clock cycles rounded up to next
 144:/usr/avr/include/util/delay.h ****    integer. This ensures that the user gets at least \c __ms
 145:/usr/avr/include/util/delay.h ****    microseconds of delay.
 146:/usr/avr/include/util/delay.h **** 
 147:/usr/avr/include/util/delay.h ****    Alternatively, by defining the macro \c __DELAY_ROUND_DOWN__, or
 148:/usr/avr/include/util/delay.h ****    \c __DELAY_ROUND_CLOSEST__, before including this header file, the
 149:/usr/avr/include/util/delay.h ****    algorithm can be made to round down, or round to closest integer,
 150:/usr/avr/include/util/delay.h ****    respectively.
 151:/usr/avr/include/util/delay.h **** 
 152:/usr/avr/include/util/delay.h ****    \note
 153:/usr/avr/include/util/delay.h **** 
 154:/usr/avr/include/util/delay.h ****    The implementation of _delay_ms() based on
 155:/usr/avr/include/util/delay.h ****    __builtin_avr_delay_cycles() is not backward compatible with older
 156:/usr/avr/include/util/delay.h ****    implementations.  In order to get functionality backward compatible
 157:/usr/avr/include/util/delay.h ****    with previous versions, the macro \c "__DELAY_BACKWARD_COMPATIBLE__"
 158:/usr/avr/include/util/delay.h ****    must be defined before including this header file. Also, the
 159:/usr/avr/include/util/delay.h ****    backward compatible algorithm will be chosen if the code is
 160:/usr/avr/include/util/delay.h ****    compiled in a <em>freestanding environment</em> (GCC option
 161:/usr/avr/include/util/delay.h ****    \c -ffreestanding), as the math functions required for rounding are
 162:/usr/avr/include/util/delay.h ****    not available to the compiler then.
 163:/usr/avr/include/util/delay.h **** 
 164:/usr/avr/include/util/delay.h ****  */
 165:/usr/avr/include/util/delay.h **** void
 166:/usr/avr/include/util/delay.h **** _delay_ms(double __ms)
 167:/usr/avr/include/util/delay.h **** {
 168:/usr/avr/include/util/delay.h **** 	double __tmp ;
 169:/usr/avr/include/util/delay.h **** #if __HAS_DELAY_CYCLES && defined(__OPTIMIZE__) && \
 170:/usr/avr/include/util/delay.h ****   !defined(__DELAY_BACKWARD_COMPATIBLE__) &&	   \
 171:/usr/avr/include/util/delay.h ****   __STDC_HOSTED__
 172:/usr/avr/include/util/delay.h **** 	uint32_t __ticks_dc;
 173:/usr/avr/include/util/delay.h **** 	extern void __builtin_avr_delay_cycles(unsigned long);
 174:/usr/avr/include/util/delay.h **** 	__tmp = ((F_CPU) / 1e3) * __ms;
 175:/usr/avr/include/util/delay.h **** 
 176:/usr/avr/include/util/delay.h **** 	#if defined(__DELAY_ROUND_DOWN__)
 177:/usr/avr/include/util/delay.h **** 		__ticks_dc = (uint32_t)fabs(__tmp);
 178:/usr/avr/include/util/delay.h **** 
 179:/usr/avr/include/util/delay.h **** 	#elif defined(__DELAY_ROUND_CLOSEST__)
 180:/usr/avr/include/util/delay.h **** 		__ticks_dc = (uint32_t)(fabs(__tmp)+0.5);
 181:/usr/avr/include/util/delay.h **** 
 182:/usr/avr/include/util/delay.h **** 	#else
 183:/usr/avr/include/util/delay.h **** 		//round up by default
 184:/usr/avr/include/util/delay.h **** 		__ticks_dc = (uint32_t)(ceil(fabs(__tmp)));
 185:/usr/avr/include/util/delay.h **** 	#endif
 186:/usr/avr/include/util/delay.h **** 
 187:/usr/avr/include/util/delay.h **** 	__builtin_avr_delay_cycles(__ticks_dc);
 188:/usr/avr/include/util/delay.h **** 
 189:/usr/avr/include/util/delay.h **** #else
 190:/usr/avr/include/util/delay.h **** 	uint16_t __ticks;
 191:/usr/avr/include/util/delay.h **** 	__tmp = ((F_CPU) / 4e3) * __ms;
 192:/usr/avr/include/util/delay.h **** 	if (__tmp < 1.0)
 193:/usr/avr/include/util/delay.h **** 		__ticks = 1;
 194:/usr/avr/include/util/delay.h **** 	else if (__tmp > 65535)
 195:/usr/avr/include/util/delay.h **** 	{
 196:/usr/avr/include/util/delay.h **** 		//	__ticks = requested delay in 1/10 ms
 197:/usr/avr/include/util/delay.h **** 		__ticks = (uint16_t) (__ms * 10.0);
 198:/usr/avr/include/util/delay.h **** 		while(__ticks)
 199:/usr/avr/include/util/delay.h **** 		{
 200:/usr/avr/include/util/delay.h **** 			// wait 1/10 ms
 201:/usr/avr/include/util/delay.h **** 			_delay_loop_2(((F_CPU) / 4e3) / 10);
 202:/usr/avr/include/util/delay.h **** 			__ticks --;
 203:/usr/avr/include/util/delay.h **** 		}
 204:/usr/avr/include/util/delay.h **** 		return;
 205:/usr/avr/include/util/delay.h **** 	}
 206:/usr/avr/include/util/delay.h **** 	else
 207:/usr/avr/include/util/delay.h **** 		__ticks = (uint16_t)__tmp;
 208:/usr/avr/include/util/delay.h **** 	_delay_loop_2(__ticks);
 209:/usr/avr/include/util/delay.h **** #endif
 210:/usr/avr/include/util/delay.h **** }
 211:/usr/avr/include/util/delay.h **** 
 212:/usr/avr/include/util/delay.h **** /**
 213:/usr/avr/include/util/delay.h ****    \ingroup util_delay
 214:/usr/avr/include/util/delay.h **** 
 215:/usr/avr/include/util/delay.h ****    Perform a delay of \c __us microseconds, using _delay_loop_1().
 216:/usr/avr/include/util/delay.h **** 
 217:/usr/avr/include/util/delay.h ****    The macro F_CPU is supposed to be defined to a
 218:/usr/avr/include/util/delay.h ****    constant defining the CPU clock frequency (in Hertz).
 219:/usr/avr/include/util/delay.h **** 
 220:/usr/avr/include/util/delay.h ****    The maximal possible delay is 768 us / F_CPU in MHz.
 221:/usr/avr/include/util/delay.h **** 
 222:/usr/avr/include/util/delay.h ****    If the user requests a delay greater than the maximal possible one,
 223:/usr/avr/include/util/delay.h ****    _delay_us() will automatically call _delay_ms() instead.  The user
 224:/usr/avr/include/util/delay.h ****    will not be informed about this case.
 225:/usr/avr/include/util/delay.h **** 
 226:/usr/avr/include/util/delay.h ****    If the avr-gcc toolchain has __builtin_avr_delay_cycles()
 227:/usr/avr/include/util/delay.h ****    support, maximal possible delay is 4294967.295 us/ F_CPU in MHz. For
 228:/usr/avr/include/util/delay.h ****    values greater than the maximal possible delay, overflow results in
 229:/usr/avr/include/util/delay.h ****    no delay i.e., 0us.
 230:/usr/avr/include/util/delay.h **** 
 231:/usr/avr/include/util/delay.h ****    Conversion of \c __us into clock cycles may not always result in
 232:/usr/avr/include/util/delay.h ****    integer.  By default, the clock cycles rounded up to next
 233:/usr/avr/include/util/delay.h ****    integer. This ensures that the user gets at least \c __us
 234:/usr/avr/include/util/delay.h ****    microseconds of delay.
 235:/usr/avr/include/util/delay.h **** 
 236:/usr/avr/include/util/delay.h ****    Alternatively, by defining the macro \c __DELAY_ROUND_DOWN__, or
 237:/usr/avr/include/util/delay.h ****    \c __DELAY_ROUND_CLOSEST__, before including this header file, the
 238:/usr/avr/include/util/delay.h ****    algorithm can be made to round down, or round to closest integer,
 239:/usr/avr/include/util/delay.h ****    respectively.
 240:/usr/avr/include/util/delay.h **** 
 241:/usr/avr/include/util/delay.h ****    \note
 242:/usr/avr/include/util/delay.h **** 
 243:/usr/avr/include/util/delay.h ****    The implementation of _delay_ms() based on
 244:/usr/avr/include/util/delay.h ****    __builtin_avr_delay_cycles() is not backward compatible with older
 245:/usr/avr/include/util/delay.h ****    implementations.  In order to get functionality backward compatible
 246:/usr/avr/include/util/delay.h ****    with previous versions, the macro \c __DELAY_BACKWARD_COMPATIBLE__
 247:/usr/avr/include/util/delay.h ****    must be defined before including this header file. Also, the
 248:/usr/avr/include/util/delay.h ****    backward compatible algorithm will be chosen if the code is
 249:/usr/avr/include/util/delay.h ****    compiled in a <em>freestanding environment</em> (GCC option
 250:/usr/avr/include/util/delay.h ****    \c -ffreestanding), as the math functions required for rounding are
 251:/usr/avr/include/util/delay.h ****    not available to the compiler then.
 252:/usr/avr/include/util/delay.h **** 
 253:/usr/avr/include/util/delay.h ****  */
 254:/usr/avr/include/util/delay.h **** void
 255:/usr/avr/include/util/delay.h **** _delay_us(double __us)
 125               		.loc 3 255 1 view .LVU29
 126               	.LBB186:
 256:/usr/avr/include/util/delay.h **** {
 257:/usr/avr/include/util/delay.h **** 	double __tmp ;
 127               		.loc 3 257 2 view .LVU30
 258:/usr/avr/include/util/delay.h **** #if __HAS_DELAY_CYCLES && defined(__OPTIMIZE__) && \
 259:/usr/avr/include/util/delay.h ****   !defined(__DELAY_BACKWARD_COMPATIBLE__) &&	   \
 260:/usr/avr/include/util/delay.h ****   __STDC_HOSTED__
 261:/usr/avr/include/util/delay.h **** 	uint32_t __ticks_dc;
 128               		.loc 3 261 2 view .LVU31
 262:/usr/avr/include/util/delay.h **** 	extern void __builtin_avr_delay_cycles(unsigned long);
 129               		.loc 3 262 2 view .LVU32
 263:/usr/avr/include/util/delay.h **** 	__tmp = ((F_CPU) / 1e6) * __us;
 130               		.loc 3 263 2 view .LVU33
 264:/usr/avr/include/util/delay.h **** 
 265:/usr/avr/include/util/delay.h **** 	#if defined(__DELAY_ROUND_DOWN__)
 266:/usr/avr/include/util/delay.h **** 		__ticks_dc = (uint32_t)fabs(__tmp);
 267:/usr/avr/include/util/delay.h **** 
 268:/usr/avr/include/util/delay.h **** 	#elif defined(__DELAY_ROUND_CLOSEST__)
 269:/usr/avr/include/util/delay.h **** 		__ticks_dc = (uint32_t)(fabs(__tmp)+0.5);
 270:/usr/avr/include/util/delay.h **** 
 271:/usr/avr/include/util/delay.h **** 	#else
 272:/usr/avr/include/util/delay.h **** 		//round up by default
 273:/usr/avr/include/util/delay.h **** 		__ticks_dc = (uint32_t)(ceil(fabs(__tmp)));
 131               		.loc 3 273 3 view .LVU34
 274:/usr/avr/include/util/delay.h **** 	#endif
 275:/usr/avr/include/util/delay.h **** 
 276:/usr/avr/include/util/delay.h **** 	__builtin_avr_delay_cycles(__ticks_dc);
 132               		.loc 3 276 2 view .LVU35
 133 002a 95ED      		ldi r25,lo8(-43)
 134 002c 9A95      	1:	dec r25
 135 002e 01F4      		brne 1b
 136 0030 0000      		nop
 137               	.LVL8:
 138               		.loc 3 276 2 is_stmt 0 view .LVU36
 139               	.LBE186:
 140               	.LBE185:
 141               		.loc 1 785 22 is_stmt 1 view .LVU37
 142               		.loc 1 785 22 is_stmt 0 view .LVU38
 143 0032 8150      		subi r24,lo8(-(-1))
 144               	.LVL9:
 145               		.loc 1 785 22 view .LVU39
 146 0034 8111      		cpse r24,__zero_reg__
 147 0036 00C0      		rjmp .L4
 148               	.LVL10:
 149               	.L7:
 786:./tmk_core/protocol/lufa/lufa.c ****     if (!Endpoint_IsReadWriteAllowed()) return;
 150               		.loc 1 786 5 is_stmt 1 view .LVU40
 151               	.LBB187:
 152               	.LBI187:
 358:./tmk_core/protocol/lufa/LUFA-git/LUFA/Drivers/USB/Core/AVR8/../AVR8/Endpoint_AVR8.h **** 			{
 153               		.loc 2 358 23 view .LVU41
 154               	.LBB188:
 155               		.loc 2 360 5 view .LVU42
 156               		.loc 2 360 14 is_stmt 0 view .LVU43
 157 0038 8091 E800 		lds r24,232
 158               	.LBE188:
 159               	.LBE187:
 160               		.loc 1 786 8 view .LVU44
 161 003c 85FF      		sbrs r24,5
 162 003e 00C0      		rjmp .L2
 787:./tmk_core/protocol/lufa/lufa.c **** 
 788:./tmk_core/protocol/lufa/lufa.c ****     Endpoint_Write_Stream_LE(&r, sizeof(report_extra_t), NULL);
 163               		.loc 1 788 5 is_stmt 1 view .LVU45
 164 0040 40E0      		ldi r20,0
 165 0042 50E0      		ldi r21,0
 166 0044 63E0      		ldi r22,lo8(3)
 167 0046 70E0      		ldi r23,0
 168 0048 CE01      		movw r24,r28
 169 004a 0196      		adiw r24,1
 170 004c 0E94 0000 		call Endpoint_Write_Stream_LE
 171               	.LVL11:
 789:./tmk_core/protocol/lufa/lufa.c ****     Endpoint_ClearIN();
 172               		.loc 1 789 5 view .LVU46
 173               	.LBB189:
 174               	.LBI189:
 361:./tmk_core/protocol/lufa/LUFA-git/LUFA/Drivers/USB/Core/AVR8/../AVR8/Endpoint_AVR8.h **** 			}
 362:./tmk_core/protocol/lufa/LUFA-git/LUFA/Drivers/USB/Core/AVR8/../AVR8/Endpoint_AVR8.h **** 
 363:./tmk_core/protocol/lufa/LUFA-git/LUFA/Drivers/USB/Core/AVR8/../AVR8/Endpoint_AVR8.h **** 			/** Determines if the currently selected endpoint is configured.
 364:./tmk_core/protocol/lufa/LUFA-git/LUFA/Drivers/USB/Core/AVR8/../AVR8/Endpoint_AVR8.h **** 			 *
 365:./tmk_core/protocol/lufa/LUFA-git/LUFA/Drivers/USB/Core/AVR8/../AVR8/Endpoint_AVR8.h **** 			 *  \return Boolean \c true if the currently selected endpoint has been configured, \c false oth
 366:./tmk_core/protocol/lufa/LUFA-git/LUFA/Drivers/USB/Core/AVR8/../AVR8/Endpoint_AVR8.h **** 			 */
 367:./tmk_core/protocol/lufa/LUFA-git/LUFA/Drivers/USB/Core/AVR8/../AVR8/Endpoint_AVR8.h **** 			static inline bool Endpoint_IsConfigured(void) ATTR_WARN_UNUSED_RESULT ATTR_ALWAYS_INLINE;
 368:./tmk_core/protocol/lufa/LUFA-git/LUFA/Drivers/USB/Core/AVR8/../AVR8/Endpoint_AVR8.h **** 			static inline bool Endpoint_IsConfigured(void)
 369:./tmk_core/protocol/lufa/LUFA-git/LUFA/Drivers/USB/Core/AVR8/../AVR8/Endpoint_AVR8.h **** 			{
 370:./tmk_core/protocol/lufa/LUFA-git/LUFA/Drivers/USB/Core/AVR8/../AVR8/Endpoint_AVR8.h **** 				return ((UESTA0X & (1 << CFGOK)) ? true : false);
 371:./tmk_core/protocol/lufa/LUFA-git/LUFA/Drivers/USB/Core/AVR8/../AVR8/Endpoint_AVR8.h **** 			}
 372:./tmk_core/protocol/lufa/LUFA-git/LUFA/Drivers/USB/Core/AVR8/../AVR8/Endpoint_AVR8.h **** 
 373:./tmk_core/protocol/lufa/LUFA-git/LUFA/Drivers/USB/Core/AVR8/../AVR8/Endpoint_AVR8.h **** 			/** Returns a mask indicating which INTERRUPT type endpoints have interrupted - i.e. their
 374:./tmk_core/protocol/lufa/LUFA-git/LUFA/Drivers/USB/Core/AVR8/../AVR8/Endpoint_AVR8.h **** 			 *  interrupt duration has elapsed. Which endpoints have interrupted can be determined by
 375:./tmk_core/protocol/lufa/LUFA-git/LUFA/Drivers/USB/Core/AVR8/../AVR8/Endpoint_AVR8.h **** 			 *  masking the return value against <tt>(1 << <i>{Endpoint Number}</i>)</tt>.
 376:./tmk_core/protocol/lufa/LUFA-git/LUFA/Drivers/USB/Core/AVR8/../AVR8/Endpoint_AVR8.h **** 			 *
 377:./tmk_core/protocol/lufa/LUFA-git/LUFA/Drivers/USB/Core/AVR8/../AVR8/Endpoint_AVR8.h **** 			 *  \return Mask whose bits indicate which endpoints have interrupted.
 378:./tmk_core/protocol/lufa/LUFA-git/LUFA/Drivers/USB/Core/AVR8/../AVR8/Endpoint_AVR8.h **** 			 */
 379:./tmk_core/protocol/lufa/LUFA-git/LUFA/Drivers/USB/Core/AVR8/../AVR8/Endpoint_AVR8.h **** 			static inline uint8_t Endpoint_GetEndpointInterrupts(void) ATTR_WARN_UNUSED_RESULT ATTR_ALWAYS_I
 380:./tmk_core/protocol/lufa/LUFA-git/LUFA/Drivers/USB/Core/AVR8/../AVR8/Endpoint_AVR8.h **** 			static inline uint8_t Endpoint_GetEndpointInterrupts(void)
 381:./tmk_core/protocol/lufa/LUFA-git/LUFA/Drivers/USB/Core/AVR8/../AVR8/Endpoint_AVR8.h **** 			{
 382:./tmk_core/protocol/lufa/LUFA-git/LUFA/Drivers/USB/Core/AVR8/../AVR8/Endpoint_AVR8.h **** 				return UEINT;
 383:./tmk_core/protocol/lufa/LUFA-git/LUFA/Drivers/USB/Core/AVR8/../AVR8/Endpoint_AVR8.h **** 			}
 384:./tmk_core/protocol/lufa/LUFA-git/LUFA/Drivers/USB/Core/AVR8/../AVR8/Endpoint_AVR8.h **** 
 385:./tmk_core/protocol/lufa/LUFA-git/LUFA/Drivers/USB/Core/AVR8/../AVR8/Endpoint_AVR8.h **** 			/** Determines if the specified endpoint number has interrupted (valid only for INTERRUPT type
 386:./tmk_core/protocol/lufa/LUFA-git/LUFA/Drivers/USB/Core/AVR8/../AVR8/Endpoint_AVR8.h **** 			 *  endpoints).
 387:./tmk_core/protocol/lufa/LUFA-git/LUFA/Drivers/USB/Core/AVR8/../AVR8/Endpoint_AVR8.h **** 			 *
 388:./tmk_core/protocol/lufa/LUFA-git/LUFA/Drivers/USB/Core/AVR8/../AVR8/Endpoint_AVR8.h **** 			 *  \param[in] Address  Address of the endpoint whose interrupt flag should be tested.
 389:./tmk_core/protocol/lufa/LUFA-git/LUFA/Drivers/USB/Core/AVR8/../AVR8/Endpoint_AVR8.h **** 			 *
 390:./tmk_core/protocol/lufa/LUFA-git/LUFA/Drivers/USB/Core/AVR8/../AVR8/Endpoint_AVR8.h **** 			 *  \return Boolean \c true if the specified endpoint has interrupted, \c false otherwise.
 391:./tmk_core/protocol/lufa/LUFA-git/LUFA/Drivers/USB/Core/AVR8/../AVR8/Endpoint_AVR8.h **** 			 */
 392:./tmk_core/protocol/lufa/LUFA-git/LUFA/Drivers/USB/Core/AVR8/../AVR8/Endpoint_AVR8.h **** 			static inline bool Endpoint_HasEndpointInterrupted(const uint8_t Address) ATTR_WARN_UNUSED_RESUL
 393:./tmk_core/protocol/lufa/LUFA-git/LUFA/Drivers/USB/Core/AVR8/../AVR8/Endpoint_AVR8.h **** 			static inline bool Endpoint_HasEndpointInterrupted(const uint8_t Address)
 394:./tmk_core/protocol/lufa/LUFA-git/LUFA/Drivers/USB/Core/AVR8/../AVR8/Endpoint_AVR8.h **** 			{
 395:./tmk_core/protocol/lufa/LUFA-git/LUFA/Drivers/USB/Core/AVR8/../AVR8/Endpoint_AVR8.h **** 				return ((Endpoint_GetEndpointInterrupts() & (1 << (Address & ENDPOINT_EPNUM_MASK))) ? true : fa
 396:./tmk_core/protocol/lufa/LUFA-git/LUFA/Drivers/USB/Core/AVR8/../AVR8/Endpoint_AVR8.h **** 			}
 397:./tmk_core/protocol/lufa/LUFA-git/LUFA/Drivers/USB/Core/AVR8/../AVR8/Endpoint_AVR8.h **** 
 398:./tmk_core/protocol/lufa/LUFA-git/LUFA/Drivers/USB/Core/AVR8/../AVR8/Endpoint_AVR8.h **** 			/** Determines if the selected IN endpoint is ready for a new packet to be sent to the host.
 399:./tmk_core/protocol/lufa/LUFA-git/LUFA/Drivers/USB/Core/AVR8/../AVR8/Endpoint_AVR8.h **** 			 *
 400:./tmk_core/protocol/lufa/LUFA-git/LUFA/Drivers/USB/Core/AVR8/../AVR8/Endpoint_AVR8.h **** 			 *  \ingroup Group_EndpointPacketManagement_AVR8
 401:./tmk_core/protocol/lufa/LUFA-git/LUFA/Drivers/USB/Core/AVR8/../AVR8/Endpoint_AVR8.h **** 			 *
 402:./tmk_core/protocol/lufa/LUFA-git/LUFA/Drivers/USB/Core/AVR8/../AVR8/Endpoint_AVR8.h **** 			 *  \return Boolean \c true if the current endpoint is ready for an IN packet, \c false otherwis
 403:./tmk_core/protocol/lufa/LUFA-git/LUFA/Drivers/USB/Core/AVR8/../AVR8/Endpoint_AVR8.h **** 			 */
 404:./tmk_core/protocol/lufa/LUFA-git/LUFA/Drivers/USB/Core/AVR8/../AVR8/Endpoint_AVR8.h **** 			static inline bool Endpoint_IsINReady(void) ATTR_WARN_UNUSED_RESULT ATTR_ALWAYS_INLINE;
 405:./tmk_core/protocol/lufa/LUFA-git/LUFA/Drivers/USB/Core/AVR8/../AVR8/Endpoint_AVR8.h **** 			static inline bool Endpoint_IsINReady(void)
 406:./tmk_core/protocol/lufa/LUFA-git/LUFA/Drivers/USB/Core/AVR8/../AVR8/Endpoint_AVR8.h **** 			{
 407:./tmk_core/protocol/lufa/LUFA-git/LUFA/Drivers/USB/Core/AVR8/../AVR8/Endpoint_AVR8.h **** 				return ((UEINTX & (1 << TXINI)) ? true : false);
 408:./tmk_core/protocol/lufa/LUFA-git/LUFA/Drivers/USB/Core/AVR8/../AVR8/Endpoint_AVR8.h **** 			}
 409:./tmk_core/protocol/lufa/LUFA-git/LUFA/Drivers/USB/Core/AVR8/../AVR8/Endpoint_AVR8.h **** 
 410:./tmk_core/protocol/lufa/LUFA-git/LUFA/Drivers/USB/Core/AVR8/../AVR8/Endpoint_AVR8.h **** 			/** Determines if the selected OUT endpoint has received new packet from the host.
 411:./tmk_core/protocol/lufa/LUFA-git/LUFA/Drivers/USB/Core/AVR8/../AVR8/Endpoint_AVR8.h **** 			 *
 412:./tmk_core/protocol/lufa/LUFA-git/LUFA/Drivers/USB/Core/AVR8/../AVR8/Endpoint_AVR8.h **** 			 *  \ingroup Group_EndpointPacketManagement_AVR8
 413:./tmk_core/protocol/lufa/LUFA-git/LUFA/Drivers/USB/Core/AVR8/../AVR8/Endpoint_AVR8.h **** 			 *
 414:./tmk_core/protocol/lufa/LUFA-git/LUFA/Drivers/USB/Core/AVR8/../AVR8/Endpoint_AVR8.h **** 			 *  \return Boolean \c true if current endpoint is has received an OUT packet, \c false otherwis
 415:./tmk_core/protocol/lufa/LUFA-git/LUFA/Drivers/USB/Core/AVR8/../AVR8/Endpoint_AVR8.h **** 			 */
 416:./tmk_core/protocol/lufa/LUFA-git/LUFA/Drivers/USB/Core/AVR8/../AVR8/Endpoint_AVR8.h **** 			static inline bool Endpoint_IsOUTReceived(void) ATTR_WARN_UNUSED_RESULT ATTR_ALWAYS_INLINE;
 417:./tmk_core/protocol/lufa/LUFA-git/LUFA/Drivers/USB/Core/AVR8/../AVR8/Endpoint_AVR8.h **** 			static inline bool Endpoint_IsOUTReceived(void)
 418:./tmk_core/protocol/lufa/LUFA-git/LUFA/Drivers/USB/Core/AVR8/../AVR8/Endpoint_AVR8.h **** 			{
 419:./tmk_core/protocol/lufa/LUFA-git/LUFA/Drivers/USB/Core/AVR8/../AVR8/Endpoint_AVR8.h **** 				return ((UEINTX & (1 << RXOUTI)) ? true : false);
 420:./tmk_core/protocol/lufa/LUFA-git/LUFA/Drivers/USB/Core/AVR8/../AVR8/Endpoint_AVR8.h **** 			}
 421:./tmk_core/protocol/lufa/LUFA-git/LUFA/Drivers/USB/Core/AVR8/../AVR8/Endpoint_AVR8.h **** 
 422:./tmk_core/protocol/lufa/LUFA-git/LUFA/Drivers/USB/Core/AVR8/../AVR8/Endpoint_AVR8.h **** 			/** Determines if the current CONTROL type endpoint has received a SETUP packet.
 423:./tmk_core/protocol/lufa/LUFA-git/LUFA/Drivers/USB/Core/AVR8/../AVR8/Endpoint_AVR8.h **** 			 *
 424:./tmk_core/protocol/lufa/LUFA-git/LUFA/Drivers/USB/Core/AVR8/../AVR8/Endpoint_AVR8.h **** 			 *  \ingroup Group_EndpointPacketManagement_AVR8
 425:./tmk_core/protocol/lufa/LUFA-git/LUFA/Drivers/USB/Core/AVR8/../AVR8/Endpoint_AVR8.h **** 			 *
 426:./tmk_core/protocol/lufa/LUFA-git/LUFA/Drivers/USB/Core/AVR8/../AVR8/Endpoint_AVR8.h **** 			 *  \return Boolean \c true if the selected endpoint has received a SETUP packet, \c false other
 427:./tmk_core/protocol/lufa/LUFA-git/LUFA/Drivers/USB/Core/AVR8/../AVR8/Endpoint_AVR8.h **** 			 */
 428:./tmk_core/protocol/lufa/LUFA-git/LUFA/Drivers/USB/Core/AVR8/../AVR8/Endpoint_AVR8.h **** 			static inline bool Endpoint_IsSETUPReceived(void) ATTR_WARN_UNUSED_RESULT ATTR_ALWAYS_INLINE;
 429:./tmk_core/protocol/lufa/LUFA-git/LUFA/Drivers/USB/Core/AVR8/../AVR8/Endpoint_AVR8.h **** 			static inline bool Endpoint_IsSETUPReceived(void)
 430:./tmk_core/protocol/lufa/LUFA-git/LUFA/Drivers/USB/Core/AVR8/../AVR8/Endpoint_AVR8.h **** 			{
 431:./tmk_core/protocol/lufa/LUFA-git/LUFA/Drivers/USB/Core/AVR8/../AVR8/Endpoint_AVR8.h **** 				return ((UEINTX & (1 << RXSTPI)) ? true : false);
 432:./tmk_core/protocol/lufa/LUFA-git/LUFA/Drivers/USB/Core/AVR8/../AVR8/Endpoint_AVR8.h **** 			}
 433:./tmk_core/protocol/lufa/LUFA-git/LUFA/Drivers/USB/Core/AVR8/../AVR8/Endpoint_AVR8.h **** 
 434:./tmk_core/protocol/lufa/LUFA-git/LUFA/Drivers/USB/Core/AVR8/../AVR8/Endpoint_AVR8.h **** 			/** Clears a received SETUP packet on the currently selected CONTROL type endpoint, freeing up t
 435:./tmk_core/protocol/lufa/LUFA-git/LUFA/Drivers/USB/Core/AVR8/../AVR8/Endpoint_AVR8.h **** 			 *  endpoint for the next packet.
 436:./tmk_core/protocol/lufa/LUFA-git/LUFA/Drivers/USB/Core/AVR8/../AVR8/Endpoint_AVR8.h **** 			 *
 437:./tmk_core/protocol/lufa/LUFA-git/LUFA/Drivers/USB/Core/AVR8/../AVR8/Endpoint_AVR8.h **** 			 *  \ingroup Group_EndpointPacketManagement_AVR8
 438:./tmk_core/protocol/lufa/LUFA-git/LUFA/Drivers/USB/Core/AVR8/../AVR8/Endpoint_AVR8.h **** 			 *
 439:./tmk_core/protocol/lufa/LUFA-git/LUFA/Drivers/USB/Core/AVR8/../AVR8/Endpoint_AVR8.h **** 			 *  \note This is not applicable for non CONTROL type endpoints.
 440:./tmk_core/protocol/lufa/LUFA-git/LUFA/Drivers/USB/Core/AVR8/../AVR8/Endpoint_AVR8.h **** 			 */
 441:./tmk_core/protocol/lufa/LUFA-git/LUFA/Drivers/USB/Core/AVR8/../AVR8/Endpoint_AVR8.h **** 			static inline void Endpoint_ClearSETUP(void) ATTR_ALWAYS_INLINE;
 442:./tmk_core/protocol/lufa/LUFA-git/LUFA/Drivers/USB/Core/AVR8/../AVR8/Endpoint_AVR8.h **** 			static inline void Endpoint_ClearSETUP(void)
 443:./tmk_core/protocol/lufa/LUFA-git/LUFA/Drivers/USB/Core/AVR8/../AVR8/Endpoint_AVR8.h **** 			{
 444:./tmk_core/protocol/lufa/LUFA-git/LUFA/Drivers/USB/Core/AVR8/../AVR8/Endpoint_AVR8.h **** 				UEINTX &= ~(1 << RXSTPI);
 445:./tmk_core/protocol/lufa/LUFA-git/LUFA/Drivers/USB/Core/AVR8/../AVR8/Endpoint_AVR8.h **** 			}
 446:./tmk_core/protocol/lufa/LUFA-git/LUFA/Drivers/USB/Core/AVR8/../AVR8/Endpoint_AVR8.h **** 
 447:./tmk_core/protocol/lufa/LUFA-git/LUFA/Drivers/USB/Core/AVR8/../AVR8/Endpoint_AVR8.h **** 			/** Sends an IN packet to the host on the currently selected endpoint, freeing up the endpoint f
 448:./tmk_core/protocol/lufa/LUFA-git/LUFA/Drivers/USB/Core/AVR8/../AVR8/Endpoint_AVR8.h **** 			 *  next packet and switching to the alternative endpoint bank if double banked.
 449:./tmk_core/protocol/lufa/LUFA-git/LUFA/Drivers/USB/Core/AVR8/../AVR8/Endpoint_AVR8.h **** 			 *
 450:./tmk_core/protocol/lufa/LUFA-git/LUFA/Drivers/USB/Core/AVR8/../AVR8/Endpoint_AVR8.h **** 			 *  \ingroup Group_EndpointPacketManagement_AVR8
 451:./tmk_core/protocol/lufa/LUFA-git/LUFA/Drivers/USB/Core/AVR8/../AVR8/Endpoint_AVR8.h **** 			 */
 452:./tmk_core/protocol/lufa/LUFA-git/LUFA/Drivers/USB/Core/AVR8/../AVR8/Endpoint_AVR8.h **** 			static inline void Endpoint_ClearIN(void) ATTR_ALWAYS_INLINE;
 453:./tmk_core/protocol/lufa/LUFA-git/LUFA/Drivers/USB/Core/AVR8/../AVR8/Endpoint_AVR8.h **** 			static inline void Endpoint_ClearIN(void)
 175               		.loc 2 453 23 view .LVU47
 176               	.LBB190:
 454:./tmk_core/protocol/lufa/LUFA-git/LUFA/Drivers/USB/Core/AVR8/../AVR8/Endpoint_AVR8.h **** 			{
 455:./tmk_core/protocol/lufa/LUFA-git/LUFA/Drivers/USB/Core/AVR8/../AVR8/Endpoint_AVR8.h **** 				#if !defined(CONTROL_ONLY_DEVICE)
 456:./tmk_core/protocol/lufa/LUFA-git/LUFA/Drivers/USB/Core/AVR8/../AVR8/Endpoint_AVR8.h **** 					UEINTX &= ~((1 << TXINI) | (1 << FIFOCON));
 177               		.loc 2 456 6 view .LVU48
 178               		.loc 2 456 13 is_stmt 0 view .LVU49
 179 0050 8091 E800 		lds r24,232
 180 0054 8E77      		andi r24,lo8(126)
 181 0056 8093 E800 		sts 232,r24
 182               	.L2:
 183               	/* epilogue start */
 184               	.LBE190:
 185               	.LBE189:
 790:./tmk_core/protocol/lufa/lufa.c **** }
 186               		.loc 1 790 1 view .LVU50
 187 005a 0F90      		pop __tmp_reg__
 188 005c 0F90      		pop __tmp_reg__
 189 005e 0F90      		pop __tmp_reg__
 190 0060 DF91      		pop r29
 191 0062 CF91      		pop r28
 192 0064 0895      		ret
 193               		.cfi_endproc
 194               	.LFE133:
 196               		.section	.text.send_system,"ax",@progbits
 198               	send_system:
 199               	.LVL12:
 200               	.LFB132:
 727:./tmk_core/protocol/lufa/lufa.c ****     uint8_t timeout = 255;
 201               		.loc 1 727 1 is_stmt 1 view -0
 202               		.cfi_startproc
 727:./tmk_core/protocol/lufa/lufa.c ****     uint8_t timeout = 255;
 203               		.loc 1 727 1 is_stmt 0 view .LVU52
 204 0000 CF93      		push r28
 205               	.LCFI4:
 206               		.cfi_def_cfa_offset 3
 207               		.cfi_offset 28, -2
 208 0002 DF93      		push r29
 209               	.LCFI5:
 210               		.cfi_def_cfa_offset 4
 211               		.cfi_offset 29, -3
 212 0004 00D0      		rcall .
 213 0006 0F92      		push __tmp_reg__
 214               	.LCFI6:
 215               		.cfi_def_cfa_offset 7
 216 0008 CDB7      		in r28,__SP_L__
 217 000a DEB7      		in r29,__SP_H__
 218               	.LCFI7:
 219               		.cfi_def_cfa_register 28
 220               	/* prologue: function */
 221               	/* frame size = 3 */
 222               	/* stack size = 5 */
 223               	.L__stack_usage = 5
 224 000c 9C01      		movw r18,r24
 728:./tmk_core/protocol/lufa/lufa.c **** 
 225               		.loc 1 728 5 is_stmt 1 view .LVU53
 226               	.LVL13:
 730:./tmk_core/protocol/lufa/lufa.c ****         return;
 227               		.loc 1 730 5 view .LVU54
 730:./tmk_core/protocol/lufa/lufa.c ****         return;
 228               		.loc 1 730 25 is_stmt 0 view .LVU55
 229 000e 8091 0000 		lds r24,USB_DeviceState
 230               	.LVL14:
 730:./tmk_core/protocol/lufa/lufa.c ****         return;
 231               		.loc 1 730 8 view .LVU56
 232 0012 8430      		cpi r24,lo8(4)
 233 0014 01F4      		brne .L14
 733:./tmk_core/protocol/lufa/lufa.c ****         .report_id = REPORT_ID_SYSTEM,
 234               		.loc 1 733 5 is_stmt 1 view .LVU57
 733:./tmk_core/protocol/lufa/lufa.c ****         .report_id = REPORT_ID_SYSTEM,
 235               		.loc 1 733 20 is_stmt 0 view .LVU58
 236 0016 82E0      		ldi r24,lo8(2)
 237 0018 8983      		std Y+1,r24
 735:./tmk_core/protocol/lufa/lufa.c ****     };
 238               		.loc 1 735 43 view .LVU59
 239 001a 2058      		subi r18,-128
 240 001c 3109      		sbc r19,__zero_reg__
 241               	.LVL15:
 733:./tmk_core/protocol/lufa/lufa.c ****         .report_id = REPORT_ID_SYSTEM,
 242               		.loc 1 733 20 view .LVU60
 243 001e 3B83      		std Y+3,r19
 244 0020 2A83      		std Y+2,r18
 737:./tmk_core/protocol/lufa/lufa.c **** 
 245               		.loc 1 737 5 is_stmt 1 view .LVU61
 246               	.LVL16:
 247               	.LBB191:
 248               	.LBI191:
 267:./tmk_core/protocol/lufa/LUFA-git/LUFA/Drivers/USB/Core/AVR8/../AVR8/Endpoint_AVR8.h **** 			{
 249               		.loc 2 267 23 view .LVU62
 250               	.LBB192:
 270:./tmk_core/protocol/lufa/LUFA-git/LUFA/Drivers/USB/Core/AVR8/../AVR8/Endpoint_AVR8.h **** 				#endif
 251               		.loc 2 270 6 view .LVU63
 270:./tmk_core/protocol/lufa/LUFA-git/LUFA/Drivers/USB/Core/AVR8/../AVR8/Endpoint_AVR8.h **** 				#endif
 252               		.loc 2 270 12 is_stmt 0 view .LVU64
 253 0022 83E0      		ldi r24,lo8(3)
 254 0024 8093 E900 		sts 233,r24
 255               	.LVL17:
 270:./tmk_core/protocol/lufa/LUFA-git/LUFA/Drivers/USB/Core/AVR8/../AVR8/Endpoint_AVR8.h **** 				#endif
 256               		.loc 2 270 12 view .LVU65
 257               	.LBE192:
 258               	.LBE191:
 740:./tmk_core/protocol/lufa/lufa.c ****     if (!Endpoint_IsReadWriteAllowed()) return;
 259               		.loc 1 740 22 is_stmt 1 view .LVU66
 260               	.LBB194:
 261               	.LBB193:
 270:./tmk_core/protocol/lufa/LUFA-git/LUFA/Drivers/USB/Core/AVR8/../AVR8/Endpoint_AVR8.h **** 				#endif
 262               		.loc 2 270 12 is_stmt 0 view .LVU67
 263 0028 8FEF      		ldi r24,lo8(-1)
 264               	.LVL18:
 265               	.L16:
 270:./tmk_core/protocol/lufa/LUFA-git/LUFA/Drivers/USB/Core/AVR8/../AVR8/Endpoint_AVR8.h **** 				#endif
 266               		.loc 2 270 12 view .LVU68
 267               	.LBE193:
 268               	.LBE194:
 269               	.LBB195:
 270               	.LBI195:
 358:./tmk_core/protocol/lufa/LUFA-git/LUFA/Drivers/USB/Core/AVR8/../AVR8/Endpoint_AVR8.h **** 			{
 271               		.loc 2 358 23 is_stmt 1 view .LVU69
 272               	.LBB196:
 360:./tmk_core/protocol/lufa/LUFA-git/LUFA/Drivers/USB/Core/AVR8/../AVR8/Endpoint_AVR8.h **** 			}
 273               		.loc 2 360 5 view .LVU70
 360:./tmk_core/protocol/lufa/LUFA-git/LUFA/Drivers/USB/Core/AVR8/../AVR8/Endpoint_AVR8.h **** 			}
 274               		.loc 2 360 14 is_stmt 0 view .LVU71
 275 002a 9091 E800 		lds r25,232
 276               	.LBE196:
 277               	.LBE195:
 740:./tmk_core/protocol/lufa/lufa.c ****     if (!Endpoint_IsReadWriteAllowed()) return;
 278               		.loc 1 740 22 view .LVU72
 279 002e 95FD      		sbrc r25,5
 280 0030 00C0      		rjmp .L19
 740:./tmk_core/protocol/lufa/lufa.c ****     if (!Endpoint_IsReadWriteAllowed()) return;
 281               		.loc 1 740 57 is_stmt 1 view .LVU73
 282               	.LVL19:
 283               	.LBB197:
 284               	.LBI197:
 255:/usr/avr/include/util/delay.h **** {
 285               		.loc 3 255 1 view .LVU74
 286               	.LBB198:
 257:/usr/avr/include/util/delay.h **** #if __HAS_DELAY_CYCLES && defined(__OPTIMIZE__) && \
 287               		.loc 3 257 2 view .LVU75
 261:/usr/avr/include/util/delay.h **** 	extern void __builtin_avr_delay_cycles(unsigned long);
 288               		.loc 3 261 2 view .LVU76
 262:/usr/avr/include/util/delay.h **** 	__tmp = ((F_CPU) / 1e6) * __us;
 289               		.loc 3 262 2 view .LVU77
 263:/usr/avr/include/util/delay.h **** 
 290               		.loc 3 263 2 view .LVU78
 273:/usr/avr/include/util/delay.h **** 	#endif
 291               		.loc 3 273 3 view .LVU79
 292               		.loc 3 276 2 view .LVU80
 293 0032 95ED      		ldi r25,lo8(-43)
 294 0034 9A95      	1:	dec r25
 295 0036 01F4      		brne 1b
 296 0038 0000      		nop
 297               	.LVL20:
 298               		.loc 3 276 2 is_stmt 0 view .LVU81
 299               	.LBE198:
 300               	.LBE197:
 740:./tmk_core/protocol/lufa/lufa.c ****     if (!Endpoint_IsReadWriteAllowed()) return;
 301               		.loc 1 740 22 is_stmt 1 view .LVU82
 740:./tmk_core/protocol/lufa/lufa.c ****     if (!Endpoint_IsReadWriteAllowed()) return;
 302               		.loc 1 740 22 is_stmt 0 view .LVU83
 303 003a 8150      		subi r24,lo8(-(-1))
 304               	.LVL21:
 740:./tmk_core/protocol/lufa/lufa.c ****     if (!Endpoint_IsReadWriteAllowed()) return;
 305               		.loc 1 740 22 view .LVU84
 306 003c 8111      		cpse r24,__zero_reg__
 307 003e 00C0      		rjmp .L16
 308               	.LVL22:
 309               	.L19:
 741:./tmk_core/protocol/lufa/lufa.c **** 
 310               		.loc 1 741 5 is_stmt 1 view .LVU85
 311               	.LBB199:
 312               	.LBI199:
 358:./tmk_core/protocol/lufa/LUFA-git/LUFA/Drivers/USB/Core/AVR8/../AVR8/Endpoint_AVR8.h **** 			{
 313               		.loc 2 358 23 view .LVU86
 314               	.LBB200:
 360:./tmk_core/protocol/lufa/LUFA-git/LUFA/Drivers/USB/Core/AVR8/../AVR8/Endpoint_AVR8.h **** 			}
 315               		.loc 2 360 5 view .LVU87
 360:./tmk_core/protocol/lufa/LUFA-git/LUFA/Drivers/USB/Core/AVR8/../AVR8/Endpoint_AVR8.h **** 			}
 316               		.loc 2 360 14 is_stmt 0 view .LVU88
 317 0040 8091 E800 		lds r24,232
 318               	.LBE200:
 319               	.LBE199:
 741:./tmk_core/protocol/lufa/lufa.c **** 
 320               		.loc 1 741 8 view .LVU89
 321 0044 85FF      		sbrs r24,5
 322 0046 00C0      		rjmp .L14
 743:./tmk_core/protocol/lufa/lufa.c ****     Endpoint_ClearIN();
 323               		.loc 1 743 5 is_stmt 1 view .LVU90
 324 0048 40E0      		ldi r20,0
 325 004a 50E0      		ldi r21,0
 326 004c 63E0      		ldi r22,lo8(3)
 327 004e 70E0      		ldi r23,0
 328 0050 CE01      		movw r24,r28
 329 0052 0196      		adiw r24,1
 330 0054 0E94 0000 		call Endpoint_Write_Stream_LE
 331               	.LVL23:
 744:./tmk_core/protocol/lufa/lufa.c **** }
 332               		.loc 1 744 5 view .LVU91
 333               	.LBB201:
 334               	.LBI201:
 453:./tmk_core/protocol/lufa/LUFA-git/LUFA/Drivers/USB/Core/AVR8/../AVR8/Endpoint_AVR8.h **** 			{
 335               		.loc 2 453 23 view .LVU92
 336               	.LBB202:
 337               		.loc 2 456 6 view .LVU93
 338               		.loc 2 456 13 is_stmt 0 view .LVU94
 339 0058 8091 E800 		lds r24,232
 340 005c 8E77      		andi r24,lo8(126)
 341 005e 8093 E800 		sts 232,r24
 342               	.L14:
 343               	/* epilogue start */
 344               	.LBE202:
 345               	.LBE201:
 745:./tmk_core/protocol/lufa/lufa.c **** 
 346               		.loc 1 745 1 view .LVU95
 347 0062 0F90      		pop __tmp_reg__
 348 0064 0F90      		pop __tmp_reg__
 349 0066 0F90      		pop __tmp_reg__
 350 0068 DF91      		pop r29
 351 006a CF91      		pop r28
 352 006c 0895      		ret
 353               		.cfi_endproc
 354               	.LFE132:
 356               		.section	.text.send_mouse,"ax",@progbits
 358               	send_mouse:
 359               	.LVL24:
 360               	.LFB131:
 682:./tmk_core/protocol/lufa/lufa.c **** #ifdef MOUSE_ENABLE
 361               		.loc 1 682 1 is_stmt 1 view -0
 362               		.cfi_startproc
 363               	/* prologue: function */
 364               	/* frame size = 0 */
 365               	/* stack size = 0 */
 366               	.L__stack_usage = 0
 697:./tmk_core/protocol/lufa/lufa.c **** 
 367               		.loc 1 697 5 view .LVU97
 699:./tmk_core/protocol/lufa/lufa.c **** 
 368               		.loc 1 699 5 view .LVU98
 369               	.LBB203:
 370               	.LBI203:
 603:./tmk_core/protocol/lufa/lufa.c **** #ifdef ADAFRUIT_BLE_ENABLE
 371               		.loc 1 603 23 view .LVU99
 372               	.LBB204:
 619:./tmk_core/protocol/lufa/lufa.c **** #ifdef BLUETOOTH_ENABLE
 373               		.loc 1 619 3 view .LVU100
 619:./tmk_core/protocol/lufa/lufa.c **** #ifdef BLUETOOTH_ENABLE
 374               		.loc 1 619 68 is_stmt 0 view .LVU101
 375 0000 2091 0000 		lds r18,USB_DeviceState
 376               	.LVL25:
 619:./tmk_core/protocol/lufa/lufa.c **** #ifdef BLUETOOTH_ENABLE
 377               		.loc 1 619 68 view .LVU102
 378               	.LBE204:
 379               	.LBE203:
 707:./tmk_core/protocol/lufa/lufa.c ****       return;
 380               		.loc 1 707 5 is_stmt 1 view .LVU103
 707:./tmk_core/protocol/lufa/lufa.c ****       return;
 381               		.loc 1 707 8 is_stmt 0 view .LVU104
 382 0004 2430      		cpi r18,lo8(4)
 383 0006 01F4      		brne .L26
 712:./tmk_core/protocol/lufa/lufa.c **** 
 384               		.loc 1 712 5 is_stmt 1 view .LVU105
 385               	.LVL26:
 386               	.LBB205:
 387               	.LBI205:
 267:./tmk_core/protocol/lufa/LUFA-git/LUFA/Drivers/USB/Core/AVR8/../AVR8/Endpoint_AVR8.h **** 			{
 388               		.loc 2 267 23 view .LVU106
 389               	.LBB206:
 270:./tmk_core/protocol/lufa/LUFA-git/LUFA/Drivers/USB/Core/AVR8/../AVR8/Endpoint_AVR8.h **** 				#endif
 390               		.loc 2 270 6 view .LVU107
 270:./tmk_core/protocol/lufa/LUFA-git/LUFA/Drivers/USB/Core/AVR8/../AVR8/Endpoint_AVR8.h **** 				#endif
 391               		.loc 2 270 12 is_stmt 0 view .LVU108
 392 0008 22E0      		ldi r18,lo8(2)
 393               	.LVL27:
 270:./tmk_core/protocol/lufa/LUFA-git/LUFA/Drivers/USB/Core/AVR8/../AVR8/Endpoint_AVR8.h **** 				#endif
 394               		.loc 2 270 12 view .LVU109
 395 000a 2093 E900 		sts 233,r18
 396               	.LVL28:
 270:./tmk_core/protocol/lufa/LUFA-git/LUFA/Drivers/USB/Core/AVR8/../AVR8/Endpoint_AVR8.h **** 				#endif
 397               		.loc 2 270 12 view .LVU110
 398               	.LBE206:
 399               	.LBE205:
 715:./tmk_core/protocol/lufa/lufa.c ****     if (!Endpoint_IsReadWriteAllowed()) return;
 400               		.loc 1 715 22 is_stmt 1 view .LVU111
 401               	.LBB208:
 402               	.LBB207:
 270:./tmk_core/protocol/lufa/LUFA-git/LUFA/Drivers/USB/Core/AVR8/../AVR8/Endpoint_AVR8.h **** 				#endif
 403               		.loc 2 270 12 is_stmt 0 view .LVU112
 404 000e 2FEF      		ldi r18,lo8(-1)
 405               	.LVL29:
 406               	.L29:
 270:./tmk_core/protocol/lufa/LUFA-git/LUFA/Drivers/USB/Core/AVR8/../AVR8/Endpoint_AVR8.h **** 				#endif
 407               		.loc 2 270 12 view .LVU113
 408               	.LBE207:
 409               	.LBE208:
 410               	.LBB209:
 411               	.LBI209:
 358:./tmk_core/protocol/lufa/LUFA-git/LUFA/Drivers/USB/Core/AVR8/../AVR8/Endpoint_AVR8.h **** 			{
 412               		.loc 2 358 23 is_stmt 1 view .LVU114
 413               	.LBB210:
 360:./tmk_core/protocol/lufa/LUFA-git/LUFA/Drivers/USB/Core/AVR8/../AVR8/Endpoint_AVR8.h **** 			}
 414               		.loc 2 360 5 view .LVU115
 360:./tmk_core/protocol/lufa/LUFA-git/LUFA/Drivers/USB/Core/AVR8/../AVR8/Endpoint_AVR8.h **** 			}
 415               		.loc 2 360 14 is_stmt 0 view .LVU116
 416 0010 3091 E800 		lds r19,232
 417               	.LBE210:
 418               	.LBE209:
 715:./tmk_core/protocol/lufa/lufa.c ****     if (!Endpoint_IsReadWriteAllowed()) return;
 419               		.loc 1 715 22 view .LVU117
 420 0014 35FD      		sbrc r19,5
 421 0016 00C0      		rjmp .L33
 715:./tmk_core/protocol/lufa/lufa.c ****     if (!Endpoint_IsReadWriteAllowed()) return;
 422               		.loc 1 715 57 is_stmt 1 view .LVU118
 423               	.LVL30:
 424               	.LBB211:
 425               	.LBI211:
 255:/usr/avr/include/util/delay.h **** {
 426               		.loc 3 255 1 view .LVU119
 427               	.LBB212:
 257:/usr/avr/include/util/delay.h **** #if __HAS_DELAY_CYCLES && defined(__OPTIMIZE__) && \
 428               		.loc 3 257 2 view .LVU120
 261:/usr/avr/include/util/delay.h **** 	extern void __builtin_avr_delay_cycles(unsigned long);
 429               		.loc 3 261 2 view .LVU121
 262:/usr/avr/include/util/delay.h **** 	__tmp = ((F_CPU) / 1e6) * __us;
 430               		.loc 3 262 2 view .LVU122
 263:/usr/avr/include/util/delay.h **** 
 431               		.loc 3 263 2 view .LVU123
 273:/usr/avr/include/util/delay.h **** 	#endif
 432               		.loc 3 273 3 view .LVU124
 433               		.loc 3 276 2 view .LVU125
 434 0018 35ED      		ldi r19,lo8(-43)
 435 001a 3A95      	1:	dec r19
 436 001c 01F4      		brne 1b
 437 001e 0000      		nop
 438               	.LVL31:
 439               		.loc 3 276 2 is_stmt 0 view .LVU126
 440               	.LBE212:
 441               	.LBE211:
 715:./tmk_core/protocol/lufa/lufa.c ****     if (!Endpoint_IsReadWriteAllowed()) return;
 442               		.loc 1 715 22 is_stmt 1 view .LVU127
 715:./tmk_core/protocol/lufa/lufa.c ****     if (!Endpoint_IsReadWriteAllowed()) return;
 443               		.loc 1 715 22 is_stmt 0 view .LVU128
 444 0020 2150      		subi r18,lo8(-(-1))
 445               	.LVL32:
 715:./tmk_core/protocol/lufa/lufa.c ****     if (!Endpoint_IsReadWriteAllowed()) return;
 446               		.loc 1 715 22 view .LVU129
 447 0022 2111      		cpse r18,__zero_reg__
 448 0024 00C0      		rjmp .L29
 449               	.LVL33:
 450               	.L33:
 716:./tmk_core/protocol/lufa/lufa.c **** 
 451               		.loc 1 716 5 is_stmt 1 view .LVU130
 452               	.LBB213:
 453               	.LBI213:
 358:./tmk_core/protocol/lufa/LUFA-git/LUFA/Drivers/USB/Core/AVR8/../AVR8/Endpoint_AVR8.h **** 			{
 454               		.loc 2 358 23 view .LVU131
 455               	.LBB214:
 360:./tmk_core/protocol/lufa/LUFA-git/LUFA/Drivers/USB/Core/AVR8/../AVR8/Endpoint_AVR8.h **** 			}
 456               		.loc 2 360 5 view .LVU132
 360:./tmk_core/protocol/lufa/LUFA-git/LUFA/Drivers/USB/Core/AVR8/../AVR8/Endpoint_AVR8.h **** 			}
 457               		.loc 2 360 14 is_stmt 0 view .LVU133
 458 0026 2091 E800 		lds r18,232
 459               	.LBE214:
 460               	.LBE213:
 716:./tmk_core/protocol/lufa/lufa.c **** 
 461               		.loc 1 716 8 view .LVU134
 462 002a 25FF      		sbrs r18,5
 463 002c 00C0      		rjmp .L26
 719:./tmk_core/protocol/lufa/lufa.c **** 
 464               		.loc 1 719 5 is_stmt 1 view .LVU135
 465 002e 40E0      		ldi r20,0
 466 0030 50E0      		ldi r21,0
 467 0032 65E0      		ldi r22,lo8(5)
 468 0034 70E0      		ldi r23,0
 469 0036 0E94 0000 		call Endpoint_Write_Stream_LE
 470               	.LVL34:
 722:./tmk_core/protocol/lufa/lufa.c **** #endif
 471               		.loc 1 722 5 view .LVU136
 472               	.LBB215:
 473               	.LBI215:
 453:./tmk_core/protocol/lufa/LUFA-git/LUFA/Drivers/USB/Core/AVR8/../AVR8/Endpoint_AVR8.h **** 			{
 474               		.loc 2 453 23 view .LVU137
 475               	.LBB216:
 476               		.loc 2 456 6 view .LVU138
 477               		.loc 2 456 13 is_stmt 0 view .LVU139
 478 003a 8091 E800 		lds r24,232
 479 003e 8E77      		andi r24,lo8(126)
 480 0040 8093 E800 		sts 232,r24
 481               	.L26:
 482               	/* epilogue start */
 483               	.LBE216:
 484               	.LBE215:
 724:./tmk_core/protocol/lufa/lufa.c **** 
 485               		.loc 1 724 1 view .LVU140
 486 0044 0895      		ret
 487               		.cfi_endproc
 488               	.LFE131:
 490               		.section	.text.send_keyboard,"ax",@progbits
 492               	send_keyboard:
 493               	.LVL35:
 494               	.LFB130:
 627:./tmk_core/protocol/lufa/lufa.c **** #ifdef BLUETOOTH_ENABLE
 495               		.loc 1 627 1 is_stmt 1 view -0
 496               		.cfi_startproc
 627:./tmk_core/protocol/lufa/lufa.c **** #ifdef BLUETOOTH_ENABLE
 497               		.loc 1 627 1 is_stmt 0 view .LVU142
 498 0000 CF93      		push r28
 499               	.LCFI8:
 500               		.cfi_def_cfa_offset 3
 501               		.cfi_offset 28, -2
 502 0002 DF93      		push r29
 503               	.LCFI9:
 504               		.cfi_def_cfa_offset 4
 505               		.cfi_offset 29, -3
 506               	/* prologue: function */
 507               	/* frame size = 0 */
 508               	/* stack size = 2 */
 509               	.L__stack_usage = 2
 510 0004 D82F      		mov r29,r24
 511 0006 C92F      		mov r28,r25
 635:./tmk_core/protocol/lufa/lufa.c ****     uint8_t where = where_to_send();
 512               		.loc 1 635 5 is_stmt 1 view .LVU143
 513               	.LVL36:
 636:./tmk_core/protocol/lufa/lufa.c **** 
 514               		.loc 1 636 5 view .LVU144
 515               	.LBB217:
 516               	.LBI217:
 603:./tmk_core/protocol/lufa/lufa.c **** #ifdef ADAFRUIT_BLE_ENABLE
 517               		.loc 1 603 23 view .LVU145
 518               	.LBB218:
 619:./tmk_core/protocol/lufa/lufa.c **** #ifdef BLUETOOTH_ENABLE
 519               		.loc 1 619 3 view .LVU146
 619:./tmk_core/protocol/lufa/lufa.c **** #ifdef BLUETOOTH_ENABLE
 520               		.loc 1 619 68 is_stmt 0 view .LVU147
 521 0008 8091 0000 		lds r24,USB_DeviceState
 522               	.LVL37:
 619:./tmk_core/protocol/lufa/lufa.c **** #ifdef BLUETOOTH_ENABLE
 523               		.loc 1 619 68 view .LVU148
 524               	.LBE218:
 525               	.LBE217:
 644:./tmk_core/protocol/lufa/lufa.c ****       return;
 526               		.loc 1 644 5 is_stmt 1 view .LVU149
 644:./tmk_core/protocol/lufa/lufa.c ****       return;
 527               		.loc 1 644 8 is_stmt 0 view .LVU150
 528 000c 8430      		cpi r24,lo8(4)
 529 000e 01F4      		brne .L39
 650:./tmk_core/protocol/lufa/lufa.c ****         /* Report protocol - NKRO */
 530               		.loc 1 650 5 is_stmt 1 view .LVU151
 650:./tmk_core/protocol/lufa/lufa.c ****         /* Report protocol - NKRO */
 531               		.loc 1 650 8 is_stmt 0 view .LVU152
 532 0010 9091 0000 		lds r25,keyboard_protocol
 533 0014 9923      		tst r25
 534 0016 01F0      		breq .L42
 650:./tmk_core/protocol/lufa/lufa.c ****         /* Report protocol - NKRO */
 535               		.loc 1 650 27 discriminator 1 view .LVU153
 536 0018 9091 0000 		lds r25,keymap_config
 537 001c 97FF      		sbrs r25,7
 538 001e 00C0      		rjmp .L42
 652:./tmk_core/protocol/lufa/lufa.c **** 
 539               		.loc 1 652 9 is_stmt 1 view .LVU154
 540               	.LVL38:
 541               	.LBB219:
 542               	.LBI219:
 267:./tmk_core/protocol/lufa/LUFA-git/LUFA/Drivers/USB/Core/AVR8/../AVR8/Endpoint_AVR8.h **** 			{
 543               		.loc 2 267 23 view .LVU155
 544               	.LBB220:
 270:./tmk_core/protocol/lufa/LUFA-git/LUFA/Drivers/USB/Core/AVR8/../AVR8/Endpoint_AVR8.h **** 				#endif
 545               		.loc 2 270 6 view .LVU156
 270:./tmk_core/protocol/lufa/LUFA-git/LUFA/Drivers/USB/Core/AVR8/../AVR8/Endpoint_AVR8.h **** 				#endif
 546               		.loc 2 270 12 is_stmt 0 view .LVU157
 547 0020 8093 E900 		sts 233,r24
 548               	.LVL39:
 270:./tmk_core/protocol/lufa/LUFA-git/LUFA/Drivers/USB/Core/AVR8/../AVR8/Endpoint_AVR8.h **** 				#endif
 549               		.loc 2 270 12 view .LVU158
 550               	.LBE220:
 551               	.LBE219:
 655:./tmk_core/protocol/lufa/lufa.c ****         if (!Endpoint_IsReadWriteAllowed()) return;
 552               		.loc 1 655 26 is_stmt 1 view .LVU159
 553               	.LBB222:
 554               	.LBB221:
 270:./tmk_core/protocol/lufa/LUFA-git/LUFA/Drivers/USB/Core/AVR8/../AVR8/Endpoint_AVR8.h **** 				#endif
 555               		.loc 2 270 12 is_stmt 0 view .LVU160
 556 0024 8FEF      		ldi r24,lo8(-1)
 557               	.LVL40:
 558               	.L43:
 270:./tmk_core/protocol/lufa/LUFA-git/LUFA/Drivers/USB/Core/AVR8/../AVR8/Endpoint_AVR8.h **** 				#endif
 559               		.loc 2 270 12 view .LVU161
 560               	.LBE221:
 561               	.LBE222:
 562               	.LBB223:
 563               	.LBI223:
 358:./tmk_core/protocol/lufa/LUFA-git/LUFA/Drivers/USB/Core/AVR8/../AVR8/Endpoint_AVR8.h **** 			{
 564               		.loc 2 358 23 is_stmt 1 view .LVU162
 565               	.LBB224:
 360:./tmk_core/protocol/lufa/LUFA-git/LUFA/Drivers/USB/Core/AVR8/../AVR8/Endpoint_AVR8.h **** 			}
 566               		.loc 2 360 5 view .LVU163
 360:./tmk_core/protocol/lufa/LUFA-git/LUFA/Drivers/USB/Core/AVR8/../AVR8/Endpoint_AVR8.h **** 			}
 567               		.loc 2 360 14 is_stmt 0 view .LVU164
 568 0026 9091 E800 		lds r25,232
 569               	.LBE224:
 570               	.LBE223:
 655:./tmk_core/protocol/lufa/lufa.c ****         if (!Endpoint_IsReadWriteAllowed()) return;
 571               		.loc 1 655 26 view .LVU165
 572 002a 95FD      		sbrc r25,5
 573 002c 00C0      		rjmp .L47
 655:./tmk_core/protocol/lufa/lufa.c ****         if (!Endpoint_IsReadWriteAllowed()) return;
 574               		.loc 1 655 61 is_stmt 1 view .LVU166
 575               	.LVL41:
 576               	.LBB225:
 577               	.LBI225:
 255:/usr/avr/include/util/delay.h **** {
 578               		.loc 3 255 1 view .LVU167
 579               	.LBB226:
 257:/usr/avr/include/util/delay.h **** #if __HAS_DELAY_CYCLES && defined(__OPTIMIZE__) && \
 580               		.loc 3 257 2 view .LVU168
 261:/usr/avr/include/util/delay.h **** 	extern void __builtin_avr_delay_cycles(unsigned long);
 581               		.loc 3 261 2 view .LVU169
 262:/usr/avr/include/util/delay.h **** 	__tmp = ((F_CPU) / 1e6) * __us;
 582               		.loc 3 262 2 view .LVU170
 263:/usr/avr/include/util/delay.h **** 
 583               		.loc 3 263 2 view .LVU171
 273:/usr/avr/include/util/delay.h **** 	#endif
 584               		.loc 3 273 3 view .LVU172
 585               		.loc 3 276 2 view .LVU173
 586 002e 95E1      		ldi r25,lo8(21)
 587 0030 9A95      	1:	dec r25
 588 0032 01F4      		brne 1b
 589 0034 0000      		nop
 590               	.LVL42:
 591               		.loc 3 276 2 is_stmt 0 view .LVU174
 592               	.LBE226:
 593               	.LBE225:
 655:./tmk_core/protocol/lufa/lufa.c ****         if (!Endpoint_IsReadWriteAllowed()) return;
 594               		.loc 1 655 26 is_stmt 1 view .LVU175
 655:./tmk_core/protocol/lufa/lufa.c ****         if (!Endpoint_IsReadWriteAllowed()) return;
 595               		.loc 1 655 26 is_stmt 0 view .LVU176
 596 0036 8150      		subi r24,lo8(-(-1))
 597               	.LVL43:
 655:./tmk_core/protocol/lufa/lufa.c ****         if (!Endpoint_IsReadWriteAllowed()) return;
 598               		.loc 1 655 26 view .LVU177
 599 0038 8111      		cpse r24,__zero_reg__
 600 003a 00C0      		rjmp .L43
 601               	.LVL44:
 602               	.L47:
 656:./tmk_core/protocol/lufa/lufa.c **** 
 603               		.loc 1 656 9 is_stmt 1 view .LVU178
 604               	.LBB227:
 605               	.LBI227:
 358:./tmk_core/protocol/lufa/LUFA-git/LUFA/Drivers/USB/Core/AVR8/../AVR8/Endpoint_AVR8.h **** 			{
 606               		.loc 2 358 23 view .LVU179
 607               	.LBB228:
 360:./tmk_core/protocol/lufa/LUFA-git/LUFA/Drivers/USB/Core/AVR8/../AVR8/Endpoint_AVR8.h **** 			}
 608               		.loc 2 360 5 view .LVU180
 360:./tmk_core/protocol/lufa/LUFA-git/LUFA/Drivers/USB/Core/AVR8/../AVR8/Endpoint_AVR8.h **** 			}
 609               		.loc 2 360 14 is_stmt 0 view .LVU181
 610 003c 8091 E800 		lds r24,232
 611               	.LBE228:
 612               	.LBE227:
 656:./tmk_core/protocol/lufa/lufa.c **** 
 613               		.loc 1 656 12 view .LVU182
 614 0040 85FF      		sbrs r24,5
 615 0042 00C0      		rjmp .L39
 659:./tmk_core/protocol/lufa/lufa.c ****     }
 616               		.loc 1 659 9 is_stmt 1 view .LVU183
 617 0044 40E0      		ldi r20,0
 618 0046 50E0      		ldi r21,0
 619 0048 60E2      		ldi r22,lo8(32)
 620 004a 70E0      		ldi r23,0
 621               	.LVL45:
 622               	.L66:
 672:./tmk_core/protocol/lufa/lufa.c ****     }
 623               		.loc 1 672 9 is_stmt 0 view .LVU184
 624 004c 8D2F      		mov r24,r29
 625 004e 9C2F      		mov r25,r28
 626 0050 0E94 0000 		call Endpoint_Write_Stream_LE
 627               	.LVL46:
 676:./tmk_core/protocol/lufa/lufa.c **** 
 628               		.loc 1 676 5 is_stmt 1 view .LVU185
 629               	.LBB229:
 630               	.LBI229:
 453:./tmk_core/protocol/lufa/LUFA-git/LUFA/Drivers/USB/Core/AVR8/../AVR8/Endpoint_AVR8.h **** 			{
 631               		.loc 2 453 23 view .LVU186
 632               	.LBB230:
 633               		.loc 2 456 6 view .LVU187
 634               		.loc 2 456 13 is_stmt 0 view .LVU188
 635 0054 8091 E800 		lds r24,232
 636 0058 8E77      		andi r24,lo8(126)
 637 005a 8093 E800 		sts 232,r24
 638               	.LBE230:
 639               	.LBE229:
 678:./tmk_core/protocol/lufa/lufa.c **** }
 640               		.loc 1 678 5 is_stmt 1 view .LVU189
 678:./tmk_core/protocol/lufa/lufa.c **** }
 641               		.loc 1 678 26 is_stmt 0 view .LVU190
 642 005e 80E2      		ldi r24,lo8(32)
 643 0060 ED2F      		mov r30,r29
 644 0062 FC2F      		mov r31,r28
 645 0064 A0E0      		ldi r26,lo8(keyboard_report_sent)
 646 0066 B0E0      		ldi r27,hi8(keyboard_report_sent)
 647               		0:
 648 0068 0190      		ld r0,Z+
 649 006a 0D92      		st X+,r0
 650 006c 8A95      		dec r24
 651 006e 01F4      		brne 0b
 652               	.L39:
 653               	/* epilogue start */
 679:./tmk_core/protocol/lufa/lufa.c **** 
 654               		.loc 1 679 1 view .LVU191
 655 0070 DF91      		pop r29
 656 0072 CF91      		pop r28
 657 0074 0895      		ret
 658               	.LVL47:
 659               	.L42:
 665:./tmk_core/protocol/lufa/lufa.c **** 
 660               		.loc 1 665 9 is_stmt 1 view .LVU192
 661               	.LBB231:
 662               	.LBI231:
 267:./tmk_core/protocol/lufa/LUFA-git/LUFA/Drivers/USB/Core/AVR8/../AVR8/Endpoint_AVR8.h **** 			{
 663               		.loc 2 267 23 view .LVU193
 664               	.LBB232:
 270:./tmk_core/protocol/lufa/LUFA-git/LUFA/Drivers/USB/Core/AVR8/../AVR8/Endpoint_AVR8.h **** 				#endif
 665               		.loc 2 270 6 view .LVU194
 270:./tmk_core/protocol/lufa/LUFA-git/LUFA/Drivers/USB/Core/AVR8/../AVR8/Endpoint_AVR8.h **** 				#endif
 666               		.loc 2 270 12 is_stmt 0 view .LVU195
 667 0076 81E0      		ldi r24,lo8(1)
 668               	.LVL48:
 270:./tmk_core/protocol/lufa/LUFA-git/LUFA/Drivers/USB/Core/AVR8/../AVR8/Endpoint_AVR8.h **** 				#endif
 669               		.loc 2 270 12 view .LVU196
 670 0078 8093 E900 		sts 233,r24
 671               	.LVL49:
 270:./tmk_core/protocol/lufa/LUFA-git/LUFA/Drivers/USB/Core/AVR8/../AVR8/Endpoint_AVR8.h **** 				#endif
 672               		.loc 2 270 12 view .LVU197
 673               	.LBE232:
 674               	.LBE231:
 668:./tmk_core/protocol/lufa/lufa.c ****         if (!Endpoint_IsReadWriteAllowed()) return;
 675               		.loc 1 668 26 is_stmt 1 view .LVU198
 676               	.LBB234:
 677               	.LBB233:
 270:./tmk_core/protocol/lufa/LUFA-git/LUFA/Drivers/USB/Core/AVR8/../AVR8/Endpoint_AVR8.h **** 				#endif
 678               		.loc 2 270 12 is_stmt 0 view .LVU199
 679 007c 8FEF      		ldi r24,lo8(-1)
 680               	.LVL50:
 681               	.L49:
 270:./tmk_core/protocol/lufa/LUFA-git/LUFA/Drivers/USB/Core/AVR8/../AVR8/Endpoint_AVR8.h **** 				#endif
 682               		.loc 2 270 12 view .LVU200
 683               	.LBE233:
 684               	.LBE234:
 685               	.LBB235:
 686               	.LBI235:
 358:./tmk_core/protocol/lufa/LUFA-git/LUFA/Drivers/USB/Core/AVR8/../AVR8/Endpoint_AVR8.h **** 			{
 687               		.loc 2 358 23 is_stmt 1 view .LVU201
 688               	.LBB236:
 360:./tmk_core/protocol/lufa/LUFA-git/LUFA/Drivers/USB/Core/AVR8/../AVR8/Endpoint_AVR8.h **** 			}
 689               		.loc 2 360 5 view .LVU202
 360:./tmk_core/protocol/lufa/LUFA-git/LUFA/Drivers/USB/Core/AVR8/../AVR8/Endpoint_AVR8.h **** 			}
 690               		.loc 2 360 14 is_stmt 0 view .LVU203
 691 007e 9091 E800 		lds r25,232
 692               	.LBE236:
 693               	.LBE235:
 668:./tmk_core/protocol/lufa/lufa.c ****         if (!Endpoint_IsReadWriteAllowed()) return;
 694               		.loc 1 668 26 view .LVU204
 695 0082 95FD      		sbrc r25,5
 696 0084 00C0      		rjmp .L52
 668:./tmk_core/protocol/lufa/lufa.c ****         if (!Endpoint_IsReadWriteAllowed()) return;
 697               		.loc 1 668 61 is_stmt 1 view .LVU205
 698               	.LVL51:
 699               	.LBB237:
 700               	.LBI237:
 255:/usr/avr/include/util/delay.h **** {
 701               		.loc 3 255 1 view .LVU206
 702               	.LBB238:
 257:/usr/avr/include/util/delay.h **** #if __HAS_DELAY_CYCLES && defined(__OPTIMIZE__) && \
 703               		.loc 3 257 2 view .LVU207
 261:/usr/avr/include/util/delay.h **** 	extern void __builtin_avr_delay_cycles(unsigned long);
 704               		.loc 3 261 2 view .LVU208
 262:/usr/avr/include/util/delay.h **** 	__tmp = ((F_CPU) / 1e6) * __us;
 705               		.loc 3 262 2 view .LVU209
 263:/usr/avr/include/util/delay.h **** 
 706               		.loc 3 263 2 view .LVU210
 273:/usr/avr/include/util/delay.h **** 	#endif
 707               		.loc 3 273 3 view .LVU211
 708               		.loc 3 276 2 view .LVU212
 709 0086 95ED      		ldi r25,lo8(-43)
 710 0088 9A95      	1:	dec r25
 711 008a 01F4      		brne 1b
 712 008c 0000      		nop
 713               	.LVL52:
 714               		.loc 3 276 2 is_stmt 0 view .LVU213
 715               	.LBE238:
 716               	.LBE237:
 668:./tmk_core/protocol/lufa/lufa.c ****         if (!Endpoint_IsReadWriteAllowed()) return;
 717               		.loc 1 668 26 is_stmt 1 view .LVU214
 668:./tmk_core/protocol/lufa/lufa.c ****         if (!Endpoint_IsReadWriteAllowed()) return;
 718               		.loc 1 668 26 is_stmt 0 view .LVU215
 719 008e 8150      		subi r24,lo8(-(-1))
 720               	.LVL53:
 668:./tmk_core/protocol/lufa/lufa.c ****         if (!Endpoint_IsReadWriteAllowed()) return;
 721               		.loc 1 668 26 view .LVU216
 722 0090 8111      		cpse r24,__zero_reg__
 723 0092 00C0      		rjmp .L49
 724               	.LVL54:
 725               	.L52:
 669:./tmk_core/protocol/lufa/lufa.c **** 
 726               		.loc 1 669 9 is_stmt 1 view .LVU217
 727               	.LBB239:
 728               	.LBI239:
 358:./tmk_core/protocol/lufa/LUFA-git/LUFA/Drivers/USB/Core/AVR8/../AVR8/Endpoint_AVR8.h **** 			{
 729               		.loc 2 358 23 view .LVU218
 730               	.LBB240:
 360:./tmk_core/protocol/lufa/LUFA-git/LUFA/Drivers/USB/Core/AVR8/../AVR8/Endpoint_AVR8.h **** 			}
 731               		.loc 2 360 5 view .LVU219
 360:./tmk_core/protocol/lufa/LUFA-git/LUFA/Drivers/USB/Core/AVR8/../AVR8/Endpoint_AVR8.h **** 			}
 732               		.loc 2 360 14 is_stmt 0 view .LVU220
 733 0094 8091 E800 		lds r24,232
 734               	.LBE240:
 735               	.LBE239:
 669:./tmk_core/protocol/lufa/lufa.c **** 
 736               		.loc 1 669 12 view .LVU221
 737 0098 85FF      		sbrs r24,5
 738 009a 00C0      		rjmp .L39
 672:./tmk_core/protocol/lufa/lufa.c ****     }
 739               		.loc 1 672 9 is_stmt 1 view .LVU222
 740 009c 40E0      		ldi r20,0
 741 009e 50E0      		ldi r21,0
 742 00a0 68E0      		ldi r22,lo8(8)
 743 00a2 70E0      		ldi r23,0
 744 00a4 00C0      		rjmp .L66
 745               		.cfi_endproc
 746               	.LFE130:
 748               		.section	.text.EVENT_USB_Device_Connect,"ax",@progbits
 749               	.global	EVENT_USB_Device_Connect
 751               	EVENT_USB_Device_Connect:
 752               	.LFB121:
 330:./tmk_core/protocol/lufa/lufa.c ****     print("[C]");
 753               		.loc 1 330 1 view -0
 754               		.cfi_startproc
 755               	/* prologue: function */
 756               	/* frame size = 0 */
 757               	/* stack size = 0 */
 758               	.L__stack_usage = 0
 331:./tmk_core/protocol/lufa/lufa.c ****     /* For battery powered device */
 759               		.loc 1 331 17 view .LVU224
 333:./tmk_core/protocol/lufa/lufa.c ****         USB_Disable();
 760               		.loc 1 333 5 view .LVU225
 333:./tmk_core/protocol/lufa/lufa.c ****         USB_Disable();
 761               		.loc 1 333 9 is_stmt 0 view .LVU226
 762 0000 8091 0000 		lds r24,USB_IsInitialized
 333:./tmk_core/protocol/lufa/lufa.c ****         USB_Disable();
 763               		.loc 1 333 8 view .LVU227
 764 0004 8111      		cpse r24,__zero_reg__
 765 0006 00C0      		rjmp .L67
 334:./tmk_core/protocol/lufa/lufa.c ****         USB_Init();
 766               		.loc 1 334 9 is_stmt 1 view .LVU228
 767 0008 0E94 0000 		call USB_Disable
 768               	.LVL55:
 335:./tmk_core/protocol/lufa/lufa.c ****         USB_Device_EnableSOFEvents();
 769               		.loc 1 335 9 view .LVU229
 770 000c 0E94 0000 		call USB_Init
 771               	.LVL56:
 336:./tmk_core/protocol/lufa/lufa.c ****     }
 772               		.loc 1 336 9 view .LVU230
 773               	.LBB241:
 774               	.LBI241:
 775               		.file 4 "./tmk_core/protocol/lufa/LUFA-git/LUFA/Drivers/USB/Core/AVR8/../AVR8/Device_AVR8.h"
   1:./tmk_core/protocol/lufa/LUFA-git/LUFA/Drivers/USB/Core/AVR8/../AVR8/Device_AVR8.h **** /*
   2:./tmk_core/protocol/lufa/LUFA-git/LUFA/Drivers/USB/Core/AVR8/../AVR8/Device_AVR8.h ****              LUFA Library
   3:./tmk_core/protocol/lufa/LUFA-git/LUFA/Drivers/USB/Core/AVR8/../AVR8/Device_AVR8.h ****      Copyright (C) Dean Camera, 2014.
   4:./tmk_core/protocol/lufa/LUFA-git/LUFA/Drivers/USB/Core/AVR8/../AVR8/Device_AVR8.h **** 
   5:./tmk_core/protocol/lufa/LUFA-git/LUFA/Drivers/USB/Core/AVR8/../AVR8/Device_AVR8.h ****   dean [at] fourwalledcubicle [dot] com
   6:./tmk_core/protocol/lufa/LUFA-git/LUFA/Drivers/USB/Core/AVR8/../AVR8/Device_AVR8.h ****            www.lufa-lib.org
   7:./tmk_core/protocol/lufa/LUFA-git/LUFA/Drivers/USB/Core/AVR8/../AVR8/Device_AVR8.h **** */
   8:./tmk_core/protocol/lufa/LUFA-git/LUFA/Drivers/USB/Core/AVR8/../AVR8/Device_AVR8.h **** 
   9:./tmk_core/protocol/lufa/LUFA-git/LUFA/Drivers/USB/Core/AVR8/../AVR8/Device_AVR8.h **** /*
  10:./tmk_core/protocol/lufa/LUFA-git/LUFA/Drivers/USB/Core/AVR8/../AVR8/Device_AVR8.h ****   Copyright 2014  Dean Camera (dean [at] fourwalledcubicle [dot] com)
  11:./tmk_core/protocol/lufa/LUFA-git/LUFA/Drivers/USB/Core/AVR8/../AVR8/Device_AVR8.h **** 
  12:./tmk_core/protocol/lufa/LUFA-git/LUFA/Drivers/USB/Core/AVR8/../AVR8/Device_AVR8.h ****   Permission to use, copy, modify, distribute, and sell this
  13:./tmk_core/protocol/lufa/LUFA-git/LUFA/Drivers/USB/Core/AVR8/../AVR8/Device_AVR8.h ****   software and its documentation for any purpose is hereby granted
  14:./tmk_core/protocol/lufa/LUFA-git/LUFA/Drivers/USB/Core/AVR8/../AVR8/Device_AVR8.h ****   without fee, provided that the above copyright notice appear in
  15:./tmk_core/protocol/lufa/LUFA-git/LUFA/Drivers/USB/Core/AVR8/../AVR8/Device_AVR8.h ****   all copies and that both that the copyright notice and this
  16:./tmk_core/protocol/lufa/LUFA-git/LUFA/Drivers/USB/Core/AVR8/../AVR8/Device_AVR8.h ****   permission notice and warranty disclaimer appear in supporting
  17:./tmk_core/protocol/lufa/LUFA-git/LUFA/Drivers/USB/Core/AVR8/../AVR8/Device_AVR8.h ****   documentation, and that the name of the author not be used in
  18:./tmk_core/protocol/lufa/LUFA-git/LUFA/Drivers/USB/Core/AVR8/../AVR8/Device_AVR8.h ****   advertising or publicity pertaining to distribution of the
  19:./tmk_core/protocol/lufa/LUFA-git/LUFA/Drivers/USB/Core/AVR8/../AVR8/Device_AVR8.h ****   software without specific, written prior permission.
  20:./tmk_core/protocol/lufa/LUFA-git/LUFA/Drivers/USB/Core/AVR8/../AVR8/Device_AVR8.h **** 
  21:./tmk_core/protocol/lufa/LUFA-git/LUFA/Drivers/USB/Core/AVR8/../AVR8/Device_AVR8.h ****   The author disclaims all warranties with regard to this
  22:./tmk_core/protocol/lufa/LUFA-git/LUFA/Drivers/USB/Core/AVR8/../AVR8/Device_AVR8.h ****   software, including all implied warranties of merchantability
  23:./tmk_core/protocol/lufa/LUFA-git/LUFA/Drivers/USB/Core/AVR8/../AVR8/Device_AVR8.h ****   and fitness.  In no event shall the author be liable for any
  24:./tmk_core/protocol/lufa/LUFA-git/LUFA/Drivers/USB/Core/AVR8/../AVR8/Device_AVR8.h ****   special, indirect or consequential damages or any damages
  25:./tmk_core/protocol/lufa/LUFA-git/LUFA/Drivers/USB/Core/AVR8/../AVR8/Device_AVR8.h ****   whatsoever resulting from loss of use, data or profits, whether
  26:./tmk_core/protocol/lufa/LUFA-git/LUFA/Drivers/USB/Core/AVR8/../AVR8/Device_AVR8.h ****   in an action of contract, negligence or other tortious action,
  27:./tmk_core/protocol/lufa/LUFA-git/LUFA/Drivers/USB/Core/AVR8/../AVR8/Device_AVR8.h ****   arising out of or in connection with the use or performance of
  28:./tmk_core/protocol/lufa/LUFA-git/LUFA/Drivers/USB/Core/AVR8/../AVR8/Device_AVR8.h ****   this software.
  29:./tmk_core/protocol/lufa/LUFA-git/LUFA/Drivers/USB/Core/AVR8/../AVR8/Device_AVR8.h **** */
  30:./tmk_core/protocol/lufa/LUFA-git/LUFA/Drivers/USB/Core/AVR8/../AVR8/Device_AVR8.h **** 
  31:./tmk_core/protocol/lufa/LUFA-git/LUFA/Drivers/USB/Core/AVR8/../AVR8/Device_AVR8.h **** /** \file
  32:./tmk_core/protocol/lufa/LUFA-git/LUFA/Drivers/USB/Core/AVR8/../AVR8/Device_AVR8.h ****  *  \brief USB Device definitions for the AVR8 microcontrollers.
  33:./tmk_core/protocol/lufa/LUFA-git/LUFA/Drivers/USB/Core/AVR8/../AVR8/Device_AVR8.h ****  *  \copydetails Group_Device_AVR8
  34:./tmk_core/protocol/lufa/LUFA-git/LUFA/Drivers/USB/Core/AVR8/../AVR8/Device_AVR8.h ****  *
  35:./tmk_core/protocol/lufa/LUFA-git/LUFA/Drivers/USB/Core/AVR8/../AVR8/Device_AVR8.h ****  *  \note This file should not be included directly. It is automatically included as needed by the 
  36:./tmk_core/protocol/lufa/LUFA-git/LUFA/Drivers/USB/Core/AVR8/../AVR8/Device_AVR8.h ****  *        dispatch header located in LUFA/Drivers/USB/USB.h.
  37:./tmk_core/protocol/lufa/LUFA-git/LUFA/Drivers/USB/Core/AVR8/../AVR8/Device_AVR8.h ****  */
  38:./tmk_core/protocol/lufa/LUFA-git/LUFA/Drivers/USB/Core/AVR8/../AVR8/Device_AVR8.h **** 
  39:./tmk_core/protocol/lufa/LUFA-git/LUFA/Drivers/USB/Core/AVR8/../AVR8/Device_AVR8.h **** /** \ingroup Group_Device
  40:./tmk_core/protocol/lufa/LUFA-git/LUFA/Drivers/USB/Core/AVR8/../AVR8/Device_AVR8.h ****  *  \defgroup Group_Device_AVR8 Device Management (AVR8)
  41:./tmk_core/protocol/lufa/LUFA-git/LUFA/Drivers/USB/Core/AVR8/../AVR8/Device_AVR8.h ****  *  \brief USB Device definitions for the AVR8 microcontrollers.
  42:./tmk_core/protocol/lufa/LUFA-git/LUFA/Drivers/USB/Core/AVR8/../AVR8/Device_AVR8.h ****  *
  43:./tmk_core/protocol/lufa/LUFA-git/LUFA/Drivers/USB/Core/AVR8/../AVR8/Device_AVR8.h ****  *  Architecture specific USB Device definitions for the Atmel 8-bit AVR microcontrollers.
  44:./tmk_core/protocol/lufa/LUFA-git/LUFA/Drivers/USB/Core/AVR8/../AVR8/Device_AVR8.h ****  *
  45:./tmk_core/protocol/lufa/LUFA-git/LUFA/Drivers/USB/Core/AVR8/../AVR8/Device_AVR8.h ****  *  @{
  46:./tmk_core/protocol/lufa/LUFA-git/LUFA/Drivers/USB/Core/AVR8/../AVR8/Device_AVR8.h ****  */
  47:./tmk_core/protocol/lufa/LUFA-git/LUFA/Drivers/USB/Core/AVR8/../AVR8/Device_AVR8.h **** 
  48:./tmk_core/protocol/lufa/LUFA-git/LUFA/Drivers/USB/Core/AVR8/../AVR8/Device_AVR8.h **** #ifndef __USBDEVICE_AVR8_H__
  49:./tmk_core/protocol/lufa/LUFA-git/LUFA/Drivers/USB/Core/AVR8/../AVR8/Device_AVR8.h **** #define __USBDEVICE_AVR8_H__
  50:./tmk_core/protocol/lufa/LUFA-git/LUFA/Drivers/USB/Core/AVR8/../AVR8/Device_AVR8.h **** 
  51:./tmk_core/protocol/lufa/LUFA-git/LUFA/Drivers/USB/Core/AVR8/../AVR8/Device_AVR8.h **** 	/* Includes: */
  52:./tmk_core/protocol/lufa/LUFA-git/LUFA/Drivers/USB/Core/AVR8/../AVR8/Device_AVR8.h **** 		#include "../../../../Common/Common.h"
  53:./tmk_core/protocol/lufa/LUFA-git/LUFA/Drivers/USB/Core/AVR8/../AVR8/Device_AVR8.h **** 		#include "../USBController.h"
  54:./tmk_core/protocol/lufa/LUFA-git/LUFA/Drivers/USB/Core/AVR8/../AVR8/Device_AVR8.h **** 		#include "../StdDescriptors.h"
  55:./tmk_core/protocol/lufa/LUFA-git/LUFA/Drivers/USB/Core/AVR8/../AVR8/Device_AVR8.h **** 		#include "../USBInterrupt.h"
  56:./tmk_core/protocol/lufa/LUFA-git/LUFA/Drivers/USB/Core/AVR8/../AVR8/Device_AVR8.h **** 		#include "../Endpoint.h"
  57:./tmk_core/protocol/lufa/LUFA-git/LUFA/Drivers/USB/Core/AVR8/../AVR8/Device_AVR8.h **** 
  58:./tmk_core/protocol/lufa/LUFA-git/LUFA/Drivers/USB/Core/AVR8/../AVR8/Device_AVR8.h **** 	/* Enable C linkage for C++ Compilers: */
  59:./tmk_core/protocol/lufa/LUFA-git/LUFA/Drivers/USB/Core/AVR8/../AVR8/Device_AVR8.h **** 		#if defined(__cplusplus)
  60:./tmk_core/protocol/lufa/LUFA-git/LUFA/Drivers/USB/Core/AVR8/../AVR8/Device_AVR8.h **** 			extern "C" {
  61:./tmk_core/protocol/lufa/LUFA-git/LUFA/Drivers/USB/Core/AVR8/../AVR8/Device_AVR8.h **** 		#endif
  62:./tmk_core/protocol/lufa/LUFA-git/LUFA/Drivers/USB/Core/AVR8/../AVR8/Device_AVR8.h **** 
  63:./tmk_core/protocol/lufa/LUFA-git/LUFA/Drivers/USB/Core/AVR8/../AVR8/Device_AVR8.h **** 	/* Preprocessor Checks: */
  64:./tmk_core/protocol/lufa/LUFA-git/LUFA/Drivers/USB/Core/AVR8/../AVR8/Device_AVR8.h **** 		#if !defined(__INCLUDE_FROM_USB_DRIVER)
  65:./tmk_core/protocol/lufa/LUFA-git/LUFA/Drivers/USB/Core/AVR8/../AVR8/Device_AVR8.h **** 			#error Do not include this file directly. Include LUFA/Drivers/USB/USB.h instead.
  66:./tmk_core/protocol/lufa/LUFA-git/LUFA/Drivers/USB/Core/AVR8/../AVR8/Device_AVR8.h **** 		#endif
  67:./tmk_core/protocol/lufa/LUFA-git/LUFA/Drivers/USB/Core/AVR8/../AVR8/Device_AVR8.h **** 
  68:./tmk_core/protocol/lufa/LUFA-git/LUFA/Drivers/USB/Core/AVR8/../AVR8/Device_AVR8.h **** 		#if (defined(USE_RAM_DESCRIPTORS) && defined(USE_EEPROM_DESCRIPTORS))
  69:./tmk_core/protocol/lufa/LUFA-git/LUFA/Drivers/USB/Core/AVR8/../AVR8/Device_AVR8.h **** 			#error USE_RAM_DESCRIPTORS and USE_EEPROM_DESCRIPTORS are mutually exclusive.
  70:./tmk_core/protocol/lufa/LUFA-git/LUFA/Drivers/USB/Core/AVR8/../AVR8/Device_AVR8.h **** 		#endif
  71:./tmk_core/protocol/lufa/LUFA-git/LUFA/Drivers/USB/Core/AVR8/../AVR8/Device_AVR8.h **** 
  72:./tmk_core/protocol/lufa/LUFA-git/LUFA/Drivers/USB/Core/AVR8/../AVR8/Device_AVR8.h **** 		#if (defined(USE_FLASH_DESCRIPTORS) && defined(USE_EEPROM_DESCRIPTORS))
  73:./tmk_core/protocol/lufa/LUFA-git/LUFA/Drivers/USB/Core/AVR8/../AVR8/Device_AVR8.h **** 			#error USE_FLASH_DESCRIPTORS and USE_EEPROM_DESCRIPTORS are mutually exclusive.
  74:./tmk_core/protocol/lufa/LUFA-git/LUFA/Drivers/USB/Core/AVR8/../AVR8/Device_AVR8.h **** 		#endif
  75:./tmk_core/protocol/lufa/LUFA-git/LUFA/Drivers/USB/Core/AVR8/../AVR8/Device_AVR8.h **** 
  76:./tmk_core/protocol/lufa/LUFA-git/LUFA/Drivers/USB/Core/AVR8/../AVR8/Device_AVR8.h **** 		#if (defined(USE_FLASH_DESCRIPTORS) && defined(USE_RAM_DESCRIPTORS))
  77:./tmk_core/protocol/lufa/LUFA-git/LUFA/Drivers/USB/Core/AVR8/../AVR8/Device_AVR8.h **** 			#error USE_FLASH_DESCRIPTORS and USE_RAM_DESCRIPTORS are mutually exclusive.
  78:./tmk_core/protocol/lufa/LUFA-git/LUFA/Drivers/USB/Core/AVR8/../AVR8/Device_AVR8.h **** 		#endif
  79:./tmk_core/protocol/lufa/LUFA-git/LUFA/Drivers/USB/Core/AVR8/../AVR8/Device_AVR8.h **** 
  80:./tmk_core/protocol/lufa/LUFA-git/LUFA/Drivers/USB/Core/AVR8/../AVR8/Device_AVR8.h **** 	/* Public Interface - May be used in end-application: */
  81:./tmk_core/protocol/lufa/LUFA-git/LUFA/Drivers/USB/Core/AVR8/../AVR8/Device_AVR8.h **** 		/* Macros: */
  82:./tmk_core/protocol/lufa/LUFA-git/LUFA/Drivers/USB/Core/AVR8/../AVR8/Device_AVR8.h **** 			/** \name USB Device Mode Option Masks */
  83:./tmk_core/protocol/lufa/LUFA-git/LUFA/Drivers/USB/Core/AVR8/../AVR8/Device_AVR8.h **** 			//@{
  84:./tmk_core/protocol/lufa/LUFA-git/LUFA/Drivers/USB/Core/AVR8/../AVR8/Device_AVR8.h **** 			#if defined(USB_SERIES_4_AVR) || defined(USB_SERIES_6_AVR) || defined(USB_SERIES_7_AVR) || defin
  85:./tmk_core/protocol/lufa/LUFA-git/LUFA/Drivers/USB/Core/AVR8/../AVR8/Device_AVR8.h **** 				/** Mask for the Options parameter of the \ref USB_Init() function. This indicates that the
  86:./tmk_core/protocol/lufa/LUFA-git/LUFA/Drivers/USB/Core/AVR8/../AVR8/Device_AVR8.h **** 				 *  USB interface should be initialized in low speed (1.5Mb/s) mode.
  87:./tmk_core/protocol/lufa/LUFA-git/LUFA/Drivers/USB/Core/AVR8/../AVR8/Device_AVR8.h **** 				 *
  88:./tmk_core/protocol/lufa/LUFA-git/LUFA/Drivers/USB/Core/AVR8/../AVR8/Device_AVR8.h **** 				 *  \note Low Speed mode is not available on all USB AVR models.
  89:./tmk_core/protocol/lufa/LUFA-git/LUFA/Drivers/USB/Core/AVR8/../AVR8/Device_AVR8.h **** 				 *        \n
  90:./tmk_core/protocol/lufa/LUFA-git/LUFA/Drivers/USB/Core/AVR8/../AVR8/Device_AVR8.h **** 				 *
  91:./tmk_core/protocol/lufa/LUFA-git/LUFA/Drivers/USB/Core/AVR8/../AVR8/Device_AVR8.h **** 				 *  \note Restrictions apply on the number, size and type of endpoints which can be used
  92:./tmk_core/protocol/lufa/LUFA-git/LUFA/Drivers/USB/Core/AVR8/../AVR8/Device_AVR8.h **** 				 *        when running in low speed mode - please refer to the USB 2.0 specification.
  93:./tmk_core/protocol/lufa/LUFA-git/LUFA/Drivers/USB/Core/AVR8/../AVR8/Device_AVR8.h **** 				 */
  94:./tmk_core/protocol/lufa/LUFA-git/LUFA/Drivers/USB/Core/AVR8/../AVR8/Device_AVR8.h **** 				#define USB_DEVICE_OPT_LOWSPEED            (1 << 0)
  95:./tmk_core/protocol/lufa/LUFA-git/LUFA/Drivers/USB/Core/AVR8/../AVR8/Device_AVR8.h **** 			#endif
  96:./tmk_core/protocol/lufa/LUFA-git/LUFA/Drivers/USB/Core/AVR8/../AVR8/Device_AVR8.h **** 
  97:./tmk_core/protocol/lufa/LUFA-git/LUFA/Drivers/USB/Core/AVR8/../AVR8/Device_AVR8.h **** 			/** Mask for the Options parameter of the \ref USB_Init() function. This indicates that the
  98:./tmk_core/protocol/lufa/LUFA-git/LUFA/Drivers/USB/Core/AVR8/../AVR8/Device_AVR8.h **** 			 *  USB interface should be initialized in full speed (12Mb/s) mode.
  99:./tmk_core/protocol/lufa/LUFA-git/LUFA/Drivers/USB/Core/AVR8/../AVR8/Device_AVR8.h **** 			 */
 100:./tmk_core/protocol/lufa/LUFA-git/LUFA/Drivers/USB/Core/AVR8/../AVR8/Device_AVR8.h **** 			#define USB_DEVICE_OPT_FULLSPEED               (0 << 0)
 101:./tmk_core/protocol/lufa/LUFA-git/LUFA/Drivers/USB/Core/AVR8/../AVR8/Device_AVR8.h **** 			//@}
 102:./tmk_core/protocol/lufa/LUFA-git/LUFA/Drivers/USB/Core/AVR8/../AVR8/Device_AVR8.h **** 
 103:./tmk_core/protocol/lufa/LUFA-git/LUFA/Drivers/USB/Core/AVR8/../AVR8/Device_AVR8.h **** 			#if (!defined(NO_INTERNAL_SERIAL) && \
 104:./tmk_core/protocol/lufa/LUFA-git/LUFA/Drivers/USB/Core/AVR8/../AVR8/Device_AVR8.h **** 			     (defined(USB_SERIES_7_AVR) || defined(USB_SERIES_6_AVR) || \
 105:./tmk_core/protocol/lufa/LUFA-git/LUFA/Drivers/USB/Core/AVR8/../AVR8/Device_AVR8.h **** 			      defined(USB_SERIES_4_AVR) || defined(USB_SERIES_2_AVR) || \
 106:./tmk_core/protocol/lufa/LUFA-git/LUFA/Drivers/USB/Core/AVR8/../AVR8/Device_AVR8.h **** 				  defined(__DOXYGEN__)))
 107:./tmk_core/protocol/lufa/LUFA-git/LUFA/Drivers/USB/Core/AVR8/../AVR8/Device_AVR8.h **** 				/** String descriptor index for the device's unique serial number string descriptor within the 
 108:./tmk_core/protocol/lufa/LUFA-git/LUFA/Drivers/USB/Core/AVR8/../AVR8/Device_AVR8.h **** 				 *  This unique serial number is used by the host to associate resources to the device (such as
 109:./tmk_core/protocol/lufa/LUFA-git/LUFA/Drivers/USB/Core/AVR8/../AVR8/Device_AVR8.h **** 				 *  number allocations) to a device regardless of the port it is plugged in to on the host. Som
 110:./tmk_core/protocol/lufa/LUFA-git/LUFA/Drivers/USB/Core/AVR8/../AVR8/Device_AVR8.h **** 				 *  a unique serial number internally, and setting the device descriptors serial number string 
 111:./tmk_core/protocol/lufa/LUFA-git/LUFA/Drivers/USB/Core/AVR8/../AVR8/Device_AVR8.h **** 				 *  will cause it to use the internal serial number.
 112:./tmk_core/protocol/lufa/LUFA-git/LUFA/Drivers/USB/Core/AVR8/../AVR8/Device_AVR8.h **** 				 *
 113:./tmk_core/protocol/lufa/LUFA-git/LUFA/Drivers/USB/Core/AVR8/../AVR8/Device_AVR8.h **** 				 *  On unsupported devices, this will evaluate to \ref NO_DESCRIPTOR and so will force the host
 114:./tmk_core/protocol/lufa/LUFA-git/LUFA/Drivers/USB/Core/AVR8/../AVR8/Device_AVR8.h **** 				 *  number for the device.
 115:./tmk_core/protocol/lufa/LUFA-git/LUFA/Drivers/USB/Core/AVR8/../AVR8/Device_AVR8.h **** 				 */
 116:./tmk_core/protocol/lufa/LUFA-git/LUFA/Drivers/USB/Core/AVR8/../AVR8/Device_AVR8.h **** 				#define USE_INTERNAL_SERIAL            0xDC
 117:./tmk_core/protocol/lufa/LUFA-git/LUFA/Drivers/USB/Core/AVR8/../AVR8/Device_AVR8.h **** 
 118:./tmk_core/protocol/lufa/LUFA-git/LUFA/Drivers/USB/Core/AVR8/../AVR8/Device_AVR8.h **** 				/** Length of the device's unique internal serial number, in bits, if present on the selected m
 119:./tmk_core/protocol/lufa/LUFA-git/LUFA/Drivers/USB/Core/AVR8/../AVR8/Device_AVR8.h **** 				 *  model.
 120:./tmk_core/protocol/lufa/LUFA-git/LUFA/Drivers/USB/Core/AVR8/../AVR8/Device_AVR8.h **** 				 */
 121:./tmk_core/protocol/lufa/LUFA-git/LUFA/Drivers/USB/Core/AVR8/../AVR8/Device_AVR8.h **** 				#define INTERNAL_SERIAL_LENGTH_BITS    80
 122:./tmk_core/protocol/lufa/LUFA-git/LUFA/Drivers/USB/Core/AVR8/../AVR8/Device_AVR8.h **** 
 123:./tmk_core/protocol/lufa/LUFA-git/LUFA/Drivers/USB/Core/AVR8/../AVR8/Device_AVR8.h **** 				/** Start address of the internal serial number, in the appropriate address space, if present o
 124:./tmk_core/protocol/lufa/LUFA-git/LUFA/Drivers/USB/Core/AVR8/../AVR8/Device_AVR8.h **** 				 *  model.
 125:./tmk_core/protocol/lufa/LUFA-git/LUFA/Drivers/USB/Core/AVR8/../AVR8/Device_AVR8.h **** 				 */
 126:./tmk_core/protocol/lufa/LUFA-git/LUFA/Drivers/USB/Core/AVR8/../AVR8/Device_AVR8.h **** 				#define INTERNAL_SERIAL_START_ADDRESS  0x0E
 127:./tmk_core/protocol/lufa/LUFA-git/LUFA/Drivers/USB/Core/AVR8/../AVR8/Device_AVR8.h **** 			#else
 128:./tmk_core/protocol/lufa/LUFA-git/LUFA/Drivers/USB/Core/AVR8/../AVR8/Device_AVR8.h **** 				#define USE_INTERNAL_SERIAL            NO_DESCRIPTOR
 129:./tmk_core/protocol/lufa/LUFA-git/LUFA/Drivers/USB/Core/AVR8/../AVR8/Device_AVR8.h **** 
 130:./tmk_core/protocol/lufa/LUFA-git/LUFA/Drivers/USB/Core/AVR8/../AVR8/Device_AVR8.h **** 				#define INTERNAL_SERIAL_LENGTH_BITS    0
 131:./tmk_core/protocol/lufa/LUFA-git/LUFA/Drivers/USB/Core/AVR8/../AVR8/Device_AVR8.h **** 				#define INTERNAL_SERIAL_START_ADDRESS  0
 132:./tmk_core/protocol/lufa/LUFA-git/LUFA/Drivers/USB/Core/AVR8/../AVR8/Device_AVR8.h **** 			#endif
 133:./tmk_core/protocol/lufa/LUFA-git/LUFA/Drivers/USB/Core/AVR8/../AVR8/Device_AVR8.h **** 
 134:./tmk_core/protocol/lufa/LUFA-git/LUFA/Drivers/USB/Core/AVR8/../AVR8/Device_AVR8.h **** 		/* Function Prototypes: */
 135:./tmk_core/protocol/lufa/LUFA-git/LUFA/Drivers/USB/Core/AVR8/../AVR8/Device_AVR8.h **** 			/** Sends a Remote Wakeup request to the host. This signals to the host that the device should
 136:./tmk_core/protocol/lufa/LUFA-git/LUFA/Drivers/USB/Core/AVR8/../AVR8/Device_AVR8.h **** 			 *  be taken out of suspended mode, and communications should resume.
 137:./tmk_core/protocol/lufa/LUFA-git/LUFA/Drivers/USB/Core/AVR8/../AVR8/Device_AVR8.h **** 			 *
 138:./tmk_core/protocol/lufa/LUFA-git/LUFA/Drivers/USB/Core/AVR8/../AVR8/Device_AVR8.h **** 			 *  Typically, this is implemented so that HID devices (mice, keyboards, etc.) can wake up the
 139:./tmk_core/protocol/lufa/LUFA-git/LUFA/Drivers/USB/Core/AVR8/../AVR8/Device_AVR8.h **** 			 *  host computer when the host has suspended all USB devices to enter a low power state.
 140:./tmk_core/protocol/lufa/LUFA-git/LUFA/Drivers/USB/Core/AVR8/../AVR8/Device_AVR8.h **** 			 *
 141:./tmk_core/protocol/lufa/LUFA-git/LUFA/Drivers/USB/Core/AVR8/../AVR8/Device_AVR8.h **** 			 *  \attention This function should only be used if the device has indicated to the host that it
 142:./tmk_core/protocol/lufa/LUFA-git/LUFA/Drivers/USB/Core/AVR8/../AVR8/Device_AVR8.h **** 			 *             supports the Remote Wakeup feature in the device descriptors, and should only be
 143:./tmk_core/protocol/lufa/LUFA-git/LUFA/Drivers/USB/Core/AVR8/../AVR8/Device_AVR8.h **** 			 *             issued if the host is currently allowing remote wakeup events from the device (i.
 144:./tmk_core/protocol/lufa/LUFA-git/LUFA/Drivers/USB/Core/AVR8/../AVR8/Device_AVR8.h **** 			 *             the \ref USB_Device_RemoteWakeupEnabled flag is set). When the \c NO_DEVICE_REMOT
 145:./tmk_core/protocol/lufa/LUFA-git/LUFA/Drivers/USB/Core/AVR8/../AVR8/Device_AVR8.h **** 			 *             compile time option is used, this function is unavailable.
 146:./tmk_core/protocol/lufa/LUFA-git/LUFA/Drivers/USB/Core/AVR8/../AVR8/Device_AVR8.h **** 			 *             \n\n
 147:./tmk_core/protocol/lufa/LUFA-git/LUFA/Drivers/USB/Core/AVR8/../AVR8/Device_AVR8.h **** 			 *
 148:./tmk_core/protocol/lufa/LUFA-git/LUFA/Drivers/USB/Core/AVR8/../AVR8/Device_AVR8.h **** 			 *  \attention The USB clock must be running for this function to operate. If the stack is initi
 149:./tmk_core/protocol/lufa/LUFA-git/LUFA/Drivers/USB/Core/AVR8/../AVR8/Device_AVR8.h **** 			 *             the \ref USB_OPT_MANUAL_PLL option enabled, the user must ensure that the PLL is 
 150:./tmk_core/protocol/lufa/LUFA-git/LUFA/Drivers/USB/Core/AVR8/../AVR8/Device_AVR8.h **** 			 *             before attempting to call this function.
 151:./tmk_core/protocol/lufa/LUFA-git/LUFA/Drivers/USB/Core/AVR8/../AVR8/Device_AVR8.h **** 			 *
 152:./tmk_core/protocol/lufa/LUFA-git/LUFA/Drivers/USB/Core/AVR8/../AVR8/Device_AVR8.h **** 			 *  \see \ref Group_StdDescriptors for more information on the RMWAKEUP feature and device descr
 153:./tmk_core/protocol/lufa/LUFA-git/LUFA/Drivers/USB/Core/AVR8/../AVR8/Device_AVR8.h **** 			 */
 154:./tmk_core/protocol/lufa/LUFA-git/LUFA/Drivers/USB/Core/AVR8/../AVR8/Device_AVR8.h **** 			void USB_Device_SendRemoteWakeup(void);
 155:./tmk_core/protocol/lufa/LUFA-git/LUFA/Drivers/USB/Core/AVR8/../AVR8/Device_AVR8.h **** 
 156:./tmk_core/protocol/lufa/LUFA-git/LUFA/Drivers/USB/Core/AVR8/../AVR8/Device_AVR8.h **** 		/* Inline Functions: */
 157:./tmk_core/protocol/lufa/LUFA-git/LUFA/Drivers/USB/Core/AVR8/../AVR8/Device_AVR8.h **** 			/** Returns the current USB frame number, when in device mode. Every millisecond the USB bus is 
 158:./tmk_core/protocol/lufa/LUFA-git/LUFA/Drivers/USB/Core/AVR8/../AVR8/Device_AVR8.h **** 			 *  the frame number is incremented by one.
 159:./tmk_core/protocol/lufa/LUFA-git/LUFA/Drivers/USB/Core/AVR8/../AVR8/Device_AVR8.h **** 			 *
 160:./tmk_core/protocol/lufa/LUFA-git/LUFA/Drivers/USB/Core/AVR8/../AVR8/Device_AVR8.h **** 			 *  \return Current USB frame number from the USB controller.
 161:./tmk_core/protocol/lufa/LUFA-git/LUFA/Drivers/USB/Core/AVR8/../AVR8/Device_AVR8.h **** 			 */
 162:./tmk_core/protocol/lufa/LUFA-git/LUFA/Drivers/USB/Core/AVR8/../AVR8/Device_AVR8.h **** 			static inline uint16_t USB_Device_GetFrameNumber(void) ATTR_ALWAYS_INLINE ATTR_WARN_UNUSED_RESUL
 163:./tmk_core/protocol/lufa/LUFA-git/LUFA/Drivers/USB/Core/AVR8/../AVR8/Device_AVR8.h **** 			static inline uint16_t USB_Device_GetFrameNumber(void)
 164:./tmk_core/protocol/lufa/LUFA-git/LUFA/Drivers/USB/Core/AVR8/../AVR8/Device_AVR8.h **** 			{
 165:./tmk_core/protocol/lufa/LUFA-git/LUFA/Drivers/USB/Core/AVR8/../AVR8/Device_AVR8.h **** 				return UDFNUM;
 166:./tmk_core/protocol/lufa/LUFA-git/LUFA/Drivers/USB/Core/AVR8/../AVR8/Device_AVR8.h **** 			}
 167:./tmk_core/protocol/lufa/LUFA-git/LUFA/Drivers/USB/Core/AVR8/../AVR8/Device_AVR8.h **** 
 168:./tmk_core/protocol/lufa/LUFA-git/LUFA/Drivers/USB/Core/AVR8/../AVR8/Device_AVR8.h **** 			#if !defined(NO_SOF_EVENTS)
 169:./tmk_core/protocol/lufa/LUFA-git/LUFA/Drivers/USB/Core/AVR8/../AVR8/Device_AVR8.h **** 				/** Enables the device mode Start Of Frame events. When enabled, this causes the
 170:./tmk_core/protocol/lufa/LUFA-git/LUFA/Drivers/USB/Core/AVR8/../AVR8/Device_AVR8.h **** 				 *  \ref EVENT_USB_Device_StartOfFrame() event to fire once per millisecond, synchronized to th
 171:./tmk_core/protocol/lufa/LUFA-git/LUFA/Drivers/USB/Core/AVR8/../AVR8/Device_AVR8.h **** 				 *  at the start of each USB frame when enumerated in device mode.
 172:./tmk_core/protocol/lufa/LUFA-git/LUFA/Drivers/USB/Core/AVR8/../AVR8/Device_AVR8.h **** 				 *
 173:./tmk_core/protocol/lufa/LUFA-git/LUFA/Drivers/USB/Core/AVR8/../AVR8/Device_AVR8.h **** 				 *  \note This function is not available when the \c NO_SOF_EVENTS compile time token is define
 174:./tmk_core/protocol/lufa/LUFA-git/LUFA/Drivers/USB/Core/AVR8/../AVR8/Device_AVR8.h **** 				 */
 175:./tmk_core/protocol/lufa/LUFA-git/LUFA/Drivers/USB/Core/AVR8/../AVR8/Device_AVR8.h **** 				static inline void USB_Device_EnableSOFEvents(void) ATTR_ALWAYS_INLINE;
 176:./tmk_core/protocol/lufa/LUFA-git/LUFA/Drivers/USB/Core/AVR8/../AVR8/Device_AVR8.h **** 				static inline void USB_Device_EnableSOFEvents(void)
 776               		.loc 4 176 24 view .LVU231
 777               	.LBB242:
 177:./tmk_core/protocol/lufa/LUFA-git/LUFA/Drivers/USB/Core/AVR8/../AVR8/Device_AVR8.h **** 				{
 178:./tmk_core/protocol/lufa/LUFA-git/LUFA/Drivers/USB/Core/AVR8/../AVR8/Device_AVR8.h **** 					USB_INT_Enable(USB_INT_SOFI);
 778               		.loc 4 178 6 view .LVU232
 779               	.LBB243:
 780               	.LBI243:
 781               		.file 5 "./tmk_core/protocol/lufa/LUFA-git/LUFA/Drivers/USB/Core/AVR8/../AVR8/USBInterrupt_AVR8.h"
   1:./tmk_core/protocol/lufa/LUFA-git/LUFA/Drivers/USB/Core/AVR8/../AVR8/USBInterrupt_AVR8.h **** /*
   2:./tmk_core/protocol/lufa/LUFA-git/LUFA/Drivers/USB/Core/AVR8/../AVR8/USBInterrupt_AVR8.h ****              LUFA Library
   3:./tmk_core/protocol/lufa/LUFA-git/LUFA/Drivers/USB/Core/AVR8/../AVR8/USBInterrupt_AVR8.h ****      Copyright (C) Dean Camera, 2014.
   4:./tmk_core/protocol/lufa/LUFA-git/LUFA/Drivers/USB/Core/AVR8/../AVR8/USBInterrupt_AVR8.h **** 
   5:./tmk_core/protocol/lufa/LUFA-git/LUFA/Drivers/USB/Core/AVR8/../AVR8/USBInterrupt_AVR8.h ****   dean [at] fourwalledcubicle [dot] com
   6:./tmk_core/protocol/lufa/LUFA-git/LUFA/Drivers/USB/Core/AVR8/../AVR8/USBInterrupt_AVR8.h ****            www.lufa-lib.org
   7:./tmk_core/protocol/lufa/LUFA-git/LUFA/Drivers/USB/Core/AVR8/../AVR8/USBInterrupt_AVR8.h **** */
   8:./tmk_core/protocol/lufa/LUFA-git/LUFA/Drivers/USB/Core/AVR8/../AVR8/USBInterrupt_AVR8.h **** 
   9:./tmk_core/protocol/lufa/LUFA-git/LUFA/Drivers/USB/Core/AVR8/../AVR8/USBInterrupt_AVR8.h **** /*
  10:./tmk_core/protocol/lufa/LUFA-git/LUFA/Drivers/USB/Core/AVR8/../AVR8/USBInterrupt_AVR8.h ****   Copyright 2014  Dean Camera (dean [at] fourwalledcubicle [dot] com)
  11:./tmk_core/protocol/lufa/LUFA-git/LUFA/Drivers/USB/Core/AVR8/../AVR8/USBInterrupt_AVR8.h **** 
  12:./tmk_core/protocol/lufa/LUFA-git/LUFA/Drivers/USB/Core/AVR8/../AVR8/USBInterrupt_AVR8.h ****   Permission to use, copy, modify, distribute, and sell this
  13:./tmk_core/protocol/lufa/LUFA-git/LUFA/Drivers/USB/Core/AVR8/../AVR8/USBInterrupt_AVR8.h ****   software and its documentation for any purpose is hereby granted
  14:./tmk_core/protocol/lufa/LUFA-git/LUFA/Drivers/USB/Core/AVR8/../AVR8/USBInterrupt_AVR8.h ****   without fee, provided that the above copyright notice appear in
  15:./tmk_core/protocol/lufa/LUFA-git/LUFA/Drivers/USB/Core/AVR8/../AVR8/USBInterrupt_AVR8.h ****   all copies and that both that the copyright notice and this
  16:./tmk_core/protocol/lufa/LUFA-git/LUFA/Drivers/USB/Core/AVR8/../AVR8/USBInterrupt_AVR8.h ****   permission notice and warranty disclaimer appear in supporting
  17:./tmk_core/protocol/lufa/LUFA-git/LUFA/Drivers/USB/Core/AVR8/../AVR8/USBInterrupt_AVR8.h ****   documentation, and that the name of the author not be used in
  18:./tmk_core/protocol/lufa/LUFA-git/LUFA/Drivers/USB/Core/AVR8/../AVR8/USBInterrupt_AVR8.h ****   advertising or publicity pertaining to distribution of the
  19:./tmk_core/protocol/lufa/LUFA-git/LUFA/Drivers/USB/Core/AVR8/../AVR8/USBInterrupt_AVR8.h ****   software without specific, written prior permission.
  20:./tmk_core/protocol/lufa/LUFA-git/LUFA/Drivers/USB/Core/AVR8/../AVR8/USBInterrupt_AVR8.h **** 
  21:./tmk_core/protocol/lufa/LUFA-git/LUFA/Drivers/USB/Core/AVR8/../AVR8/USBInterrupt_AVR8.h ****   The author disclaims all warranties with regard to this
  22:./tmk_core/protocol/lufa/LUFA-git/LUFA/Drivers/USB/Core/AVR8/../AVR8/USBInterrupt_AVR8.h ****   software, including all implied warranties of merchantability
  23:./tmk_core/protocol/lufa/LUFA-git/LUFA/Drivers/USB/Core/AVR8/../AVR8/USBInterrupt_AVR8.h ****   and fitness.  In no event shall the author be liable for any
  24:./tmk_core/protocol/lufa/LUFA-git/LUFA/Drivers/USB/Core/AVR8/../AVR8/USBInterrupt_AVR8.h ****   special, indirect or consequential damages or any damages
  25:./tmk_core/protocol/lufa/LUFA-git/LUFA/Drivers/USB/Core/AVR8/../AVR8/USBInterrupt_AVR8.h ****   whatsoever resulting from loss of use, data or profits, whether
  26:./tmk_core/protocol/lufa/LUFA-git/LUFA/Drivers/USB/Core/AVR8/../AVR8/USBInterrupt_AVR8.h ****   in an action of contract, negligence or other tortious action,
  27:./tmk_core/protocol/lufa/LUFA-git/LUFA/Drivers/USB/Core/AVR8/../AVR8/USBInterrupt_AVR8.h ****   arising out of or in connection with the use or performance of
  28:./tmk_core/protocol/lufa/LUFA-git/LUFA/Drivers/USB/Core/AVR8/../AVR8/USBInterrupt_AVR8.h ****   this software.
  29:./tmk_core/protocol/lufa/LUFA-git/LUFA/Drivers/USB/Core/AVR8/../AVR8/USBInterrupt_AVR8.h **** */
  30:./tmk_core/protocol/lufa/LUFA-git/LUFA/Drivers/USB/Core/AVR8/../AVR8/USBInterrupt_AVR8.h **** 
  31:./tmk_core/protocol/lufa/LUFA-git/LUFA/Drivers/USB/Core/AVR8/../AVR8/USBInterrupt_AVR8.h **** /** \file
  32:./tmk_core/protocol/lufa/LUFA-git/LUFA/Drivers/USB/Core/AVR8/../AVR8/USBInterrupt_AVR8.h ****  *  \brief USB Controller Interrupt definitions for the AVR8 microcontrollers.
  33:./tmk_core/protocol/lufa/LUFA-git/LUFA/Drivers/USB/Core/AVR8/../AVR8/USBInterrupt_AVR8.h ****  *
  34:./tmk_core/protocol/lufa/LUFA-git/LUFA/Drivers/USB/Core/AVR8/../AVR8/USBInterrupt_AVR8.h ****  *  This file contains definitions required for the correct handling of low level USB service routi
  35:./tmk_core/protocol/lufa/LUFA-git/LUFA/Drivers/USB/Core/AVR8/../AVR8/USBInterrupt_AVR8.h ****  *  from the USB controller.
  36:./tmk_core/protocol/lufa/LUFA-git/LUFA/Drivers/USB/Core/AVR8/../AVR8/USBInterrupt_AVR8.h ****  *
  37:./tmk_core/protocol/lufa/LUFA-git/LUFA/Drivers/USB/Core/AVR8/../AVR8/USBInterrupt_AVR8.h ****  *  \note This file should not be included directly. It is automatically included as needed by the 
  38:./tmk_core/protocol/lufa/LUFA-git/LUFA/Drivers/USB/Core/AVR8/../AVR8/USBInterrupt_AVR8.h ****  *        dispatch header located in LUFA/Drivers/USB/USB.h.
  39:./tmk_core/protocol/lufa/LUFA-git/LUFA/Drivers/USB/Core/AVR8/../AVR8/USBInterrupt_AVR8.h ****  */
  40:./tmk_core/protocol/lufa/LUFA-git/LUFA/Drivers/USB/Core/AVR8/../AVR8/USBInterrupt_AVR8.h **** 
  41:./tmk_core/protocol/lufa/LUFA-git/LUFA/Drivers/USB/Core/AVR8/../AVR8/USBInterrupt_AVR8.h **** #ifndef __USBINTERRUPT_AVR8_H__
  42:./tmk_core/protocol/lufa/LUFA-git/LUFA/Drivers/USB/Core/AVR8/../AVR8/USBInterrupt_AVR8.h **** #define __USBINTERRUPT_AVR8_H__
  43:./tmk_core/protocol/lufa/LUFA-git/LUFA/Drivers/USB/Core/AVR8/../AVR8/USBInterrupt_AVR8.h **** 
  44:./tmk_core/protocol/lufa/LUFA-git/LUFA/Drivers/USB/Core/AVR8/../AVR8/USBInterrupt_AVR8.h **** 	/* Includes: */
  45:./tmk_core/protocol/lufa/LUFA-git/LUFA/Drivers/USB/Core/AVR8/../AVR8/USBInterrupt_AVR8.h **** 		#include "../../../../Common/Common.h"
  46:./tmk_core/protocol/lufa/LUFA-git/LUFA/Drivers/USB/Core/AVR8/../AVR8/USBInterrupt_AVR8.h **** 
  47:./tmk_core/protocol/lufa/LUFA-git/LUFA/Drivers/USB/Core/AVR8/../AVR8/USBInterrupt_AVR8.h **** 	/* Enable C linkage for C++ Compilers: */
  48:./tmk_core/protocol/lufa/LUFA-git/LUFA/Drivers/USB/Core/AVR8/../AVR8/USBInterrupt_AVR8.h **** 		#if defined(__cplusplus)
  49:./tmk_core/protocol/lufa/LUFA-git/LUFA/Drivers/USB/Core/AVR8/../AVR8/USBInterrupt_AVR8.h **** 			extern "C" {
  50:./tmk_core/protocol/lufa/LUFA-git/LUFA/Drivers/USB/Core/AVR8/../AVR8/USBInterrupt_AVR8.h **** 		#endif
  51:./tmk_core/protocol/lufa/LUFA-git/LUFA/Drivers/USB/Core/AVR8/../AVR8/USBInterrupt_AVR8.h **** 
  52:./tmk_core/protocol/lufa/LUFA-git/LUFA/Drivers/USB/Core/AVR8/../AVR8/USBInterrupt_AVR8.h **** 	/* Preprocessor Checks: */
  53:./tmk_core/protocol/lufa/LUFA-git/LUFA/Drivers/USB/Core/AVR8/../AVR8/USBInterrupt_AVR8.h **** 		#if !defined(__INCLUDE_FROM_USB_DRIVER)
  54:./tmk_core/protocol/lufa/LUFA-git/LUFA/Drivers/USB/Core/AVR8/../AVR8/USBInterrupt_AVR8.h **** 			#error Do not include this file directly. Include LUFA/Drivers/USB/USB.h instead.
  55:./tmk_core/protocol/lufa/LUFA-git/LUFA/Drivers/USB/Core/AVR8/../AVR8/USBInterrupt_AVR8.h **** 		#endif
  56:./tmk_core/protocol/lufa/LUFA-git/LUFA/Drivers/USB/Core/AVR8/../AVR8/USBInterrupt_AVR8.h **** 
  57:./tmk_core/protocol/lufa/LUFA-git/LUFA/Drivers/USB/Core/AVR8/../AVR8/USBInterrupt_AVR8.h **** 	/* Private Interface - For use in library only: */
  58:./tmk_core/protocol/lufa/LUFA-git/LUFA/Drivers/USB/Core/AVR8/../AVR8/USBInterrupt_AVR8.h **** 	#if !defined(__DOXYGEN__)
  59:./tmk_core/protocol/lufa/LUFA-git/LUFA/Drivers/USB/Core/AVR8/../AVR8/USBInterrupt_AVR8.h **** 		/* Enums: */
  60:./tmk_core/protocol/lufa/LUFA-git/LUFA/Drivers/USB/Core/AVR8/../AVR8/USBInterrupt_AVR8.h **** 			enum USB_Interrupts_t
  61:./tmk_core/protocol/lufa/LUFA-git/LUFA/Drivers/USB/Core/AVR8/../AVR8/USBInterrupt_AVR8.h **** 			{
  62:./tmk_core/protocol/lufa/LUFA-git/LUFA/Drivers/USB/Core/AVR8/../AVR8/USBInterrupt_AVR8.h **** 				#if (defined(USB_SERIES_4_AVR) || defined(USB_SERIES_6_AVR) || defined(USB_SERIES_7_AVR) || def
  63:./tmk_core/protocol/lufa/LUFA-git/LUFA/Drivers/USB/Core/AVR8/../AVR8/USBInterrupt_AVR8.h **** 				USB_INT_VBUSTI  = 0,
  64:./tmk_core/protocol/lufa/LUFA-git/LUFA/Drivers/USB/Core/AVR8/../AVR8/USBInterrupt_AVR8.h **** 				#endif
  65:./tmk_core/protocol/lufa/LUFA-git/LUFA/Drivers/USB/Core/AVR8/../AVR8/USBInterrupt_AVR8.h **** 				#if (defined(USB_CAN_BE_BOTH) || defined(__DOXYGEN__))
  66:./tmk_core/protocol/lufa/LUFA-git/LUFA/Drivers/USB/Core/AVR8/../AVR8/USBInterrupt_AVR8.h **** 				USB_INT_IDTI    = 1,
  67:./tmk_core/protocol/lufa/LUFA-git/LUFA/Drivers/USB/Core/AVR8/../AVR8/USBInterrupt_AVR8.h **** 				#endif
  68:./tmk_core/protocol/lufa/LUFA-git/LUFA/Drivers/USB/Core/AVR8/../AVR8/USBInterrupt_AVR8.h **** 				#if (defined(USB_CAN_BE_DEVICE) || defined(__DOXYGEN__))
  69:./tmk_core/protocol/lufa/LUFA-git/LUFA/Drivers/USB/Core/AVR8/../AVR8/USBInterrupt_AVR8.h **** 				USB_INT_WAKEUPI = 2,
  70:./tmk_core/protocol/lufa/LUFA-git/LUFA/Drivers/USB/Core/AVR8/../AVR8/USBInterrupt_AVR8.h **** 				USB_INT_SUSPI   = 3,
  71:./tmk_core/protocol/lufa/LUFA-git/LUFA/Drivers/USB/Core/AVR8/../AVR8/USBInterrupt_AVR8.h **** 				USB_INT_EORSTI  = 4,
  72:./tmk_core/protocol/lufa/LUFA-git/LUFA/Drivers/USB/Core/AVR8/../AVR8/USBInterrupt_AVR8.h **** 				USB_INT_SOFI    = 5,
  73:./tmk_core/protocol/lufa/LUFA-git/LUFA/Drivers/USB/Core/AVR8/../AVR8/USBInterrupt_AVR8.h **** 				USB_INT_RXSTPI  = 6,
  74:./tmk_core/protocol/lufa/LUFA-git/LUFA/Drivers/USB/Core/AVR8/../AVR8/USBInterrupt_AVR8.h **** 				#endif
  75:./tmk_core/protocol/lufa/LUFA-git/LUFA/Drivers/USB/Core/AVR8/../AVR8/USBInterrupt_AVR8.h **** 				#if (defined(USB_CAN_BE_HOST) || defined(__DOXYGEN__))
  76:./tmk_core/protocol/lufa/LUFA-git/LUFA/Drivers/USB/Core/AVR8/../AVR8/USBInterrupt_AVR8.h **** 				USB_INT_HSOFI   = 7,
  77:./tmk_core/protocol/lufa/LUFA-git/LUFA/Drivers/USB/Core/AVR8/../AVR8/USBInterrupt_AVR8.h **** 				USB_INT_DCONNI  = 8,
  78:./tmk_core/protocol/lufa/LUFA-git/LUFA/Drivers/USB/Core/AVR8/../AVR8/USBInterrupt_AVR8.h **** 				USB_INT_DDISCI  = 9,
  79:./tmk_core/protocol/lufa/LUFA-git/LUFA/Drivers/USB/Core/AVR8/../AVR8/USBInterrupt_AVR8.h **** 				USB_INT_RSTI    = 10,
  80:./tmk_core/protocol/lufa/LUFA-git/LUFA/Drivers/USB/Core/AVR8/../AVR8/USBInterrupt_AVR8.h **** 				USB_INT_BCERRI  = 11,
  81:./tmk_core/protocol/lufa/LUFA-git/LUFA/Drivers/USB/Core/AVR8/../AVR8/USBInterrupt_AVR8.h **** 				USB_INT_VBERRI  = 12,
  82:./tmk_core/protocol/lufa/LUFA-git/LUFA/Drivers/USB/Core/AVR8/../AVR8/USBInterrupt_AVR8.h **** 				USB_INT_SRPI    = 13,
  83:./tmk_core/protocol/lufa/LUFA-git/LUFA/Drivers/USB/Core/AVR8/../AVR8/USBInterrupt_AVR8.h **** 				#endif
  84:./tmk_core/protocol/lufa/LUFA-git/LUFA/Drivers/USB/Core/AVR8/../AVR8/USBInterrupt_AVR8.h **** 			};
  85:./tmk_core/protocol/lufa/LUFA-git/LUFA/Drivers/USB/Core/AVR8/../AVR8/USBInterrupt_AVR8.h **** 
  86:./tmk_core/protocol/lufa/LUFA-git/LUFA/Drivers/USB/Core/AVR8/../AVR8/USBInterrupt_AVR8.h **** 		/* Inline Functions: */
  87:./tmk_core/protocol/lufa/LUFA-git/LUFA/Drivers/USB/Core/AVR8/../AVR8/USBInterrupt_AVR8.h **** 			static inline void USB_INT_Enable(const uint8_t Interrupt) ATTR_ALWAYS_INLINE;
  88:./tmk_core/protocol/lufa/LUFA-git/LUFA/Drivers/USB/Core/AVR8/../AVR8/USBInterrupt_AVR8.h **** 			static inline void USB_INT_Enable(const uint8_t Interrupt)
 782               		.loc 5 88 23 view .LVU233
 783               	.LBB244:
  89:./tmk_core/protocol/lufa/LUFA-git/LUFA/Drivers/USB/Core/AVR8/../AVR8/USBInterrupt_AVR8.h **** 			{
  90:./tmk_core/protocol/lufa/LUFA-git/LUFA/Drivers/USB/Core/AVR8/../AVR8/USBInterrupt_AVR8.h **** 				switch (Interrupt)
 784               		.loc 5 90 5 view .LVU234
  91:./tmk_core/protocol/lufa/LUFA-git/LUFA/Drivers/USB/Core/AVR8/../AVR8/USBInterrupt_AVR8.h **** 				{
  92:./tmk_core/protocol/lufa/LUFA-git/LUFA/Drivers/USB/Core/AVR8/../AVR8/USBInterrupt_AVR8.h **** 					#if (defined(USB_SERIES_4_AVR) || defined(USB_SERIES_6_AVR) || defined(USB_SERIES_7_AVR))
  93:./tmk_core/protocol/lufa/LUFA-git/LUFA/Drivers/USB/Core/AVR8/../AVR8/USBInterrupt_AVR8.h **** 					case USB_INT_VBUSTI:
  94:./tmk_core/protocol/lufa/LUFA-git/LUFA/Drivers/USB/Core/AVR8/../AVR8/USBInterrupt_AVR8.h **** 						USBCON |= (1 << VBUSTE);
  95:./tmk_core/protocol/lufa/LUFA-git/LUFA/Drivers/USB/Core/AVR8/../AVR8/USBInterrupt_AVR8.h **** 						break;
  96:./tmk_core/protocol/lufa/LUFA-git/LUFA/Drivers/USB/Core/AVR8/../AVR8/USBInterrupt_AVR8.h **** 					#endif
  97:./tmk_core/protocol/lufa/LUFA-git/LUFA/Drivers/USB/Core/AVR8/../AVR8/USBInterrupt_AVR8.h **** 					#if defined(USB_CAN_BE_BOTH)
  98:./tmk_core/protocol/lufa/LUFA-git/LUFA/Drivers/USB/Core/AVR8/../AVR8/USBInterrupt_AVR8.h **** 					case USB_INT_IDTI:
  99:./tmk_core/protocol/lufa/LUFA-git/LUFA/Drivers/USB/Core/AVR8/../AVR8/USBInterrupt_AVR8.h **** 						USBCON |= (1 << IDTE);
 100:./tmk_core/protocol/lufa/LUFA-git/LUFA/Drivers/USB/Core/AVR8/../AVR8/USBInterrupt_AVR8.h **** 						break;
 101:./tmk_core/protocol/lufa/LUFA-git/LUFA/Drivers/USB/Core/AVR8/../AVR8/USBInterrupt_AVR8.h **** 					#endif
 102:./tmk_core/protocol/lufa/LUFA-git/LUFA/Drivers/USB/Core/AVR8/../AVR8/USBInterrupt_AVR8.h **** 					#if defined(USB_CAN_BE_DEVICE)
 103:./tmk_core/protocol/lufa/LUFA-git/LUFA/Drivers/USB/Core/AVR8/../AVR8/USBInterrupt_AVR8.h **** 					case USB_INT_WAKEUPI:
 104:./tmk_core/protocol/lufa/LUFA-git/LUFA/Drivers/USB/Core/AVR8/../AVR8/USBInterrupt_AVR8.h **** 						UDIEN  |= (1 << WAKEUPE);
 105:./tmk_core/protocol/lufa/LUFA-git/LUFA/Drivers/USB/Core/AVR8/../AVR8/USBInterrupt_AVR8.h **** 						break;
 106:./tmk_core/protocol/lufa/LUFA-git/LUFA/Drivers/USB/Core/AVR8/../AVR8/USBInterrupt_AVR8.h **** 					case USB_INT_SUSPI:
 107:./tmk_core/protocol/lufa/LUFA-git/LUFA/Drivers/USB/Core/AVR8/../AVR8/USBInterrupt_AVR8.h **** 						UDIEN  |= (1 << SUSPE);
 108:./tmk_core/protocol/lufa/LUFA-git/LUFA/Drivers/USB/Core/AVR8/../AVR8/USBInterrupt_AVR8.h **** 						break;
 109:./tmk_core/protocol/lufa/LUFA-git/LUFA/Drivers/USB/Core/AVR8/../AVR8/USBInterrupt_AVR8.h **** 					case USB_INT_EORSTI:
 110:./tmk_core/protocol/lufa/LUFA-git/LUFA/Drivers/USB/Core/AVR8/../AVR8/USBInterrupt_AVR8.h **** 						UDIEN  |= (1 << EORSTE);
 111:./tmk_core/protocol/lufa/LUFA-git/LUFA/Drivers/USB/Core/AVR8/../AVR8/USBInterrupt_AVR8.h **** 						break;
 112:./tmk_core/protocol/lufa/LUFA-git/LUFA/Drivers/USB/Core/AVR8/../AVR8/USBInterrupt_AVR8.h **** 					case USB_INT_SOFI:
 113:./tmk_core/protocol/lufa/LUFA-git/LUFA/Drivers/USB/Core/AVR8/../AVR8/USBInterrupt_AVR8.h **** 						UDIEN  |= (1 << SOFE);
 785               		.loc 5 113 7 view .LVU235
 786 0010 8091 E200 		lds r24,226
 787               		.loc 5 113 14 is_stmt 0 view .LVU236
 788 0014 8460      		ori r24,lo8(4)
 789 0016 8093 E200 		sts 226,r24
 114:./tmk_core/protocol/lufa/LUFA-git/LUFA/Drivers/USB/Core/AVR8/../AVR8/USBInterrupt_AVR8.h **** 						break;
 790               		.loc 5 114 7 is_stmt 1 view .LVU237
 791               	.LVL57:
 792               	.L67:
 793               	/* epilogue start */
 794               		.loc 5 114 7 is_stmt 0 view .LVU238
 795               	.LBE244:
 796               	.LBE243:
 797               	.LBE242:
 798               	.LBE241:
 338:./tmk_core/protocol/lufa/lufa.c **** 
 799               		.loc 1 338 1 view .LVU239
 800 001a 0895      		ret
 801               		.cfi_endproc
 802               	.LFE121:
 804               		.section	.text.EVENT_USB_Device_Disconnect,"ax",@progbits
 805               	.global	EVENT_USB_Device_Disconnect
 807               	EVENT_USB_Device_Disconnect:
 808               	.LFB122:
 341:./tmk_core/protocol/lufa/lufa.c ****     print("[D]");
 809               		.loc 1 341 1 is_stmt 1 view -0
 810               		.cfi_startproc
 811               	/* prologue: function */
 812               	/* frame size = 0 */
 813               	/* stack size = 0 */
 814               	.L__stack_usage = 0
 342:./tmk_core/protocol/lufa/lufa.c ****     /* For battery powered device */
 815               		.loc 1 342 17 view .LVU241
 344:./tmk_core/protocol/lufa/lufa.c **** /* TODO: This doesn't work. After several plug in/outs can not be enumerated.
 816               		.loc 1 344 5 view .LVU242
 344:./tmk_core/protocol/lufa/lufa.c **** /* TODO: This doesn't work. After several plug in/outs can not be enumerated.
 817               		.loc 1 344 23 is_stmt 0 view .LVU243
 818 0000 1092 0000 		sts USB_IsInitialized,__zero_reg__
 819               	/* epilogue start */
 352:./tmk_core/protocol/lufa/lufa.c **** 
 820               		.loc 1 352 1 view .LVU244
 821 0004 0895      		ret
 822               		.cfi_endproc
 823               	.LFE122:
 825               		.section	.text.EVENT_USB_Device_Reset,"ax",@progbits
 826               	.global	EVENT_USB_Device_Reset
 828               	EVENT_USB_Device_Reset:
 829               	.LFB139:
 830               		.cfi_startproc
 354:./tmk_core/protocol/lufa/lufa.c **** {
 831               		.loc 1 354 6 is_stmt 1 view -0
 832               	/* prologue: function */
 833               	/* frame size = 0 */
 834               	/* stack size = 0 */
 835               	.L__stack_usage = 0
 836               	/* epilogue start */
 837 0000 0895      		ret
 838               		.cfi_endproc
 839               	.LFE139:
 841               		.section	.text.EVENT_USB_Device_Suspend,"ax",@progbits
 842               	.global	EVENT_USB_Device_Suspend
 844               	EVENT_USB_Device_Suspend:
 845               	.LFB124:
 360:./tmk_core/protocol/lufa/lufa.c ****     print("[S]");
 846               		.loc 1 360 1 view -0
 847               		.cfi_startproc
 848               	/* prologue: function */
 849               	/* frame size = 0 */
 850               	/* stack size = 0 */
 851               	.L__stack_usage = 0
 361:./tmk_core/protocol/lufa/lufa.c **** #ifdef SLEEP_LED_ENABLE
 852               		.loc 1 361 17 view .LVU247
 853               	/* epilogue start */
 365:./tmk_core/protocol/lufa/lufa.c **** 
 854               		.loc 1 365 1 is_stmt 0 view .LVU248
 855 0000 0895      		ret
 856               		.cfi_endproc
 857               	.LFE124:
 859               		.section	.text.EVENT_USB_Device_WakeUp,"ax",@progbits
 860               	.global	EVENT_USB_Device_WakeUp
 862               	EVENT_USB_Device_WakeUp:
 863               	.LFB125:
 368:./tmk_core/protocol/lufa/lufa.c ****     print("[W]");
 864               		.loc 1 368 1 is_stmt 1 view -0
 865               		.cfi_startproc
 866               	/* prologue: function */
 867               	/* frame size = 0 */
 868               	/* stack size = 0 */
 869               	.L__stack_usage = 0
 369:./tmk_core/protocol/lufa/lufa.c ****     suspend_wakeup_init();
 870               		.loc 1 369 17 view .LVU250
 370:./tmk_core/protocol/lufa/lufa.c **** 
 871               		.loc 1 370 5 view .LVU251
 872 0000 0C94 0000 		jmp suspend_wakeup_init
 873               	.LVL58:
 874               		.cfi_endproc
 875               	.LFE125:
 877               		.section	.text.EVENT_USB_Device_ConfigurationChanged,"ax",@progbits
 878               	.global	EVENT_USB_Device_ConfigurationChanged
 880               	EVENT_USB_Device_ConfigurationChanged:
 881               	.LFB126:
 410:./tmk_core/protocol/lufa/lufa.c ****     bool ConfigSuccess = true;
 882               		.loc 1 410 1 view -0
 883               		.cfi_startproc
 884               	/* prologue: function */
 885               	/* frame size = 0 */
 886               	/* stack size = 0 */
 887               	.L__stack_usage = 0
 411:./tmk_core/protocol/lufa/lufa.c **** 
 888               		.loc 1 411 5 view .LVU253
 889               	.LVL59:
 414:./tmk_core/protocol/lufa/lufa.c ****                                      KEYBOARD_EPSIZE, ENDPOINT_BANK_SINGLE);
 890               		.loc 1 414 5 view .LVU254
 891               	.LBB245:
 892               	.LBI245:
 200:./tmk_core/protocol/lufa/LUFA-git/LUFA/Drivers/USB/Core/AVR8/../AVR8/Endpoint_AVR8.h **** 			                                              const uint8_t Type,
 893               		.loc 2 200 23 view .LVU255
 894               	.LBB246:
 205:./tmk_core/protocol/lufa/LUFA-git/LUFA/Drivers/USB/Core/AVR8/../AVR8/Endpoint_AVR8.h **** 
 895               		.loc 2 205 5 view .LVU256
 207:./tmk_core/protocol/lufa/LUFA-git/LUFA/Drivers/USB/Core/AVR8/../AVR8/Endpoint_AVR8.h **** 				  return false;
 896               		.loc 2 207 5 view .LVU257
 210:./tmk_core/protocol/lufa/LUFA-git/LUFA/Drivers/USB/Core/AVR8/../AVR8/Endpoint_AVR8.h **** 				                                      ((Type << EPTYPE0) | ((Address & ENDPOINT_DIR_IN) ? (1 <<
 897               		.loc 2 210 5 view .LVU258
 210:./tmk_core/protocol/lufa/LUFA-git/LUFA/Drivers/USB/Core/AVR8/../AVR8/Endpoint_AVR8.h **** 				                                      ((Type << EPTYPE0) | ((Address & ENDPOINT_DIR_IN) ? (1 <<
 898               		.loc 2 210 12 is_stmt 0 view .LVU259
 899 0000 42E0      		ldi r20,lo8(2)
 900 0002 61EC      		ldi r22,lo8(-63)
 901 0004 81E0      		ldi r24,lo8(1)
 902 0006 0E94 0000 		call Endpoint_ConfigureEndpoint_Prv
 903               	.LVL60:
 210:./tmk_core/protocol/lufa/LUFA-git/LUFA/Drivers/USB/Core/AVR8/../AVR8/Endpoint_AVR8.h **** 				                                      ((Type << EPTYPE0) | ((Address & ENDPOINT_DIR_IN) ? (1 <<
 904               		.loc 2 210 12 view .LVU260
 905               	.LBE246:
 906               	.LBE245:
 419:./tmk_core/protocol/lufa/lufa.c ****                                      MOUSE_EPSIZE, ENDPOINT_BANK_SINGLE);
 907               		.loc 1 419 5 is_stmt 1 view .LVU261
 908               	.LBB247:
 909               	.LBI247:
 200:./tmk_core/protocol/lufa/LUFA-git/LUFA/Drivers/USB/Core/AVR8/../AVR8/Endpoint_AVR8.h **** 			                                              const uint8_t Type,
 910               		.loc 2 200 23 view .LVU262
 911               	.LBB248:
 205:./tmk_core/protocol/lufa/LUFA-git/LUFA/Drivers/USB/Core/AVR8/../AVR8/Endpoint_AVR8.h **** 
 912               		.loc 2 205 5 view .LVU263
 207:./tmk_core/protocol/lufa/LUFA-git/LUFA/Drivers/USB/Core/AVR8/../AVR8/Endpoint_AVR8.h **** 				  return false;
 913               		.loc 2 207 5 view .LVU264
 210:./tmk_core/protocol/lufa/LUFA-git/LUFA/Drivers/USB/Core/AVR8/../AVR8/Endpoint_AVR8.h **** 				                                      ((Type << EPTYPE0) | ((Address & ENDPOINT_DIR_IN) ? (1 <<
 914               		.loc 2 210 5 view .LVU265
 210:./tmk_core/protocol/lufa/LUFA-git/LUFA/Drivers/USB/Core/AVR8/../AVR8/Endpoint_AVR8.h **** 				                                      ((Type << EPTYPE0) | ((Address & ENDPOINT_DIR_IN) ? (1 <<
 915               		.loc 2 210 12 is_stmt 0 view .LVU266
 916 000a 42E0      		ldi r20,lo8(2)
 917 000c 61EC      		ldi r22,lo8(-63)
 918 000e 82E0      		ldi r24,lo8(2)
 919 0010 0E94 0000 		call Endpoint_ConfigureEndpoint_Prv
 920               	.LVL61:
 210:./tmk_core/protocol/lufa/LUFA-git/LUFA/Drivers/USB/Core/AVR8/../AVR8/Endpoint_AVR8.h **** 				                                      ((Type << EPTYPE0) | ((Address & ENDPOINT_DIR_IN) ? (1 <<
 921               		.loc 2 210 12 view .LVU267
 922               	.LBE248:
 923               	.LBE247:
 425:./tmk_core/protocol/lufa/lufa.c ****                                      EXTRAKEY_EPSIZE, ENDPOINT_BANK_SINGLE);
 924               		.loc 1 425 5 is_stmt 1 view .LVU268
 925               	.LBB249:
 926               	.LBI249:
 200:./tmk_core/protocol/lufa/LUFA-git/LUFA/Drivers/USB/Core/AVR8/../AVR8/Endpoint_AVR8.h **** 			                                              const uint8_t Type,
 927               		.loc 2 200 23 view .LVU269
 928               	.LBB250:
 205:./tmk_core/protocol/lufa/LUFA-git/LUFA/Drivers/USB/Core/AVR8/../AVR8/Endpoint_AVR8.h **** 
 929               		.loc 2 205 5 view .LVU270
 207:./tmk_core/protocol/lufa/LUFA-git/LUFA/Drivers/USB/Core/AVR8/../AVR8/Endpoint_AVR8.h **** 				  return false;
 930               		.loc 2 207 5 view .LVU271
 210:./tmk_core/protocol/lufa/LUFA-git/LUFA/Drivers/USB/Core/AVR8/../AVR8/Endpoint_AVR8.h **** 				                                      ((Type << EPTYPE0) | ((Address & ENDPOINT_DIR_IN) ? (1 <<
 931               		.loc 2 210 5 view .LVU272
 210:./tmk_core/protocol/lufa/LUFA-git/LUFA/Drivers/USB/Core/AVR8/../AVR8/Endpoint_AVR8.h **** 				                                      ((Type << EPTYPE0) | ((Address & ENDPOINT_DIR_IN) ? (1 <<
 932               		.loc 2 210 12 is_stmt 0 view .LVU273
 933 0014 42E0      		ldi r20,lo8(2)
 934 0016 61EC      		ldi r22,lo8(-63)
 935 0018 83E0      		ldi r24,lo8(3)
 936 001a 0E94 0000 		call Endpoint_ConfigureEndpoint_Prv
 937               	.LVL62:
 210:./tmk_core/protocol/lufa/LUFA-git/LUFA/Drivers/USB/Core/AVR8/../AVR8/Endpoint_AVR8.h **** 				                                      ((Type << EPTYPE0) | ((Address & ENDPOINT_DIR_IN) ? (1 <<
 938               		.loc 2 210 12 view .LVU274
 939               	.LBE250:
 940               	.LBE249:
 449:./tmk_core/protocol/lufa/lufa.c ****                                      NKRO_EPSIZE, ENDPOINT_BANK_SINGLE);
 941               		.loc 1 449 5 is_stmt 1 view .LVU275
 942               	.LBB251:
 943               	.LBI251:
 200:./tmk_core/protocol/lufa/LUFA-git/LUFA/Drivers/USB/Core/AVR8/../AVR8/Endpoint_AVR8.h **** 			                                              const uint8_t Type,
 944               		.loc 2 200 23 view .LVU276
 945               	.LBB252:
 205:./tmk_core/protocol/lufa/LUFA-git/LUFA/Drivers/USB/Core/AVR8/../AVR8/Endpoint_AVR8.h **** 
 946               		.loc 2 205 5 view .LVU277
 207:./tmk_core/protocol/lufa/LUFA-git/LUFA/Drivers/USB/Core/AVR8/../AVR8/Endpoint_AVR8.h **** 				  return false;
 947               		.loc 2 207 5 view .LVU278
 210:./tmk_core/protocol/lufa/LUFA-git/LUFA/Drivers/USB/Core/AVR8/../AVR8/Endpoint_AVR8.h **** 				                                      ((Type << EPTYPE0) | ((Address & ENDPOINT_DIR_IN) ? (1 <<
 948               		.loc 2 210 12 is_stmt 0 view .LVU279
 949 001e 42E2      		ldi r20,lo8(34)
 950 0020 61EC      		ldi r22,lo8(-63)
 951 0022 84E0      		ldi r24,lo8(4)
 952 0024 0C94 0000 		jmp Endpoint_ConfigureEndpoint_Prv
 953               	.LVL63:
 954               	.LBE252:
 955               	.LBE251:
 956               		.cfi_endproc
 957               	.LFE126:
 959               		.section	.text.EVENT_USB_Device_ControlRequest,"ax",@progbits
 960               	.global	EVENT_USB_Device_ControlRequest
 962               	EVENT_USB_Device_ControlRequest:
 963               	.LFB127:
 482:./tmk_core/protocol/lufa/lufa.c ****     uint8_t* ReportData = NULL;
 964               		.loc 1 482 1 is_stmt 1 view -0
 965               		.cfi_startproc
 966               	/* prologue: function */
 967               	/* frame size = 0 */
 968               	/* stack size = 0 */
 969               	.L__stack_usage = 0
 483:./tmk_core/protocol/lufa/lufa.c ****     uint8_t  ReportSize = 0;
 970               		.loc 1 483 5 view .LVU281
 971               	.LVL64:
 484:./tmk_core/protocol/lufa/lufa.c **** 
 972               		.loc 1 484 5 view .LVU282
 487:./tmk_core/protocol/lufa/lufa.c ****     {
 973               		.loc 1 487 5 view .LVU283
 487:./tmk_core/protocol/lufa/lufa.c ****     {
 974               		.loc 1 487 31 is_stmt 0 view .LVU284
 975 0000 8091 0000 		lds r24,USB_ControlRequest+1
 487:./tmk_core/protocol/lufa/lufa.c ****     {
 976               		.loc 1 487 5 view .LVU285
 977 0004 8930      		cpi r24,lo8(9)
 978 0006 01F0      		breq .L75
 979 0008 00F4      		brsh .L76
 980 000a 8230      		cpi r24,lo8(2)
 981 000c 01F4      		brne .+2
 982 000e 00C0      		rjmp .L77
 983 0010 8330      		cpi r24,lo8(3)
 984 0012 01F4      		brne .+2
 985 0014 00C0      		rjmp .L78
 986 0016 8130      		cpi r24,lo8(1)
 987 0018 01F0      		breq .L79
 988 001a 0895      		ret
 989               	.L76:
 990 001c 8A30      		cpi r24,lo8(10)
 991 001e 01F4      		brne .+2
 992 0020 00C0      		rjmp .L81
 993 0022 8B30      		cpi r24,lo8(11)
 994 0024 01F4      		brne .+2
 995 0026 00C0      		rjmp .L82
 996 0028 0895      		ret
 997               	.L79:
 490:./tmk_core/protocol/lufa/lufa.c ****             {
 998               		.loc 1 490 13 is_stmt 1 view .LVU286
 490:./tmk_core/protocol/lufa/lufa.c ****             {
 999               		.loc 1 490 16 is_stmt 0 view .LVU287
 1000 002a 8091 0000 		lds r24,USB_ControlRequest
 1001 002e 813A      		cpi r24,lo8(-95)
 1002 0030 01F0      		breq .+2
 1003 0032 00C0      		rjmp .L74
 492:./tmk_core/protocol/lufa/lufa.c **** 
 1004               		.loc 1 492 17 is_stmt 1 view .LVU288
 1005               	.LBB253:
 1006               	.LBI253:
 442:./tmk_core/protocol/lufa/LUFA-git/LUFA/Drivers/USB/Core/AVR8/../AVR8/Endpoint_AVR8.h **** 			{
 1007               		.loc 2 442 23 view .LVU289
 1008               	.LBB254:
 444:./tmk_core/protocol/lufa/LUFA-git/LUFA/Drivers/USB/Core/AVR8/../AVR8/Endpoint_AVR8.h **** 			}
 1009               		.loc 2 444 5 view .LVU290
 444:./tmk_core/protocol/lufa/LUFA-git/LUFA/Drivers/USB/Core/AVR8/../AVR8/Endpoint_AVR8.h **** 			}
 1010               		.loc 2 444 12 is_stmt 0 view .LVU291
 1011 0034 8091 E800 		lds r24,232
 1012 0038 877F      		andi r24,lo8(-9)
 1013 003a 8093 E800 		sts 232,r24
 1014               	.LBE254:
 1015               	.LBE253:
 495:./tmk_core/protocol/lufa/lufa.c ****                 case KEYBOARD_INTERFACE:
 1016               		.loc 1 495 17 is_stmt 1 view .LVU292
 1017 003e 8091 0000 		lds r24,USB_ControlRequest+4
 1018 0042 9091 0000 		lds r25,USB_ControlRequest+4+1
 1019 0046 892B      		or r24,r25
 1020 0048 01F0      		breq .L91
 484:./tmk_core/protocol/lufa/lufa.c **** 
 1021               		.loc 1 484 14 is_stmt 0 view .LVU293
 1022 004a 60E0      		ldi r22,0
 483:./tmk_core/protocol/lufa/lufa.c ****     uint8_t  ReportSize = 0;
 1023               		.loc 1 483 14 view .LVU294
 1024 004c 80E0      		ldi r24,0
 1025 004e 90E0      		ldi r25,0
 1026               	.L84:
 1027               	.LVL65:
 504:./tmk_core/protocol/lufa/lufa.c ****                 Endpoint_ClearOUT();
 1028               		.loc 1 504 17 is_stmt 1 view .LVU295
 1029 0050 70E0      		ldi r23,0
 1030 0052 0E94 0000 		call Endpoint_Write_Control_Stream_LE
 1031               	.LVL66:
 505:./tmk_core/protocol/lufa/lufa.c ****             }
 1032               		.loc 1 505 17 view .LVU296
 1033               	.LBB255:
 1034               	.LBI255:
 457:./tmk_core/protocol/lufa/LUFA-git/LUFA/Drivers/USB/Core/AVR8/../AVR8/Endpoint_AVR8.h **** 				#else
 458:./tmk_core/protocol/lufa/LUFA-git/LUFA/Drivers/USB/Core/AVR8/../AVR8/Endpoint_AVR8.h **** 					UEINTX &= ~(1 << TXINI);
 459:./tmk_core/protocol/lufa/LUFA-git/LUFA/Drivers/USB/Core/AVR8/../AVR8/Endpoint_AVR8.h **** 				#endif
 460:./tmk_core/protocol/lufa/LUFA-git/LUFA/Drivers/USB/Core/AVR8/../AVR8/Endpoint_AVR8.h **** 			}
 461:./tmk_core/protocol/lufa/LUFA-git/LUFA/Drivers/USB/Core/AVR8/../AVR8/Endpoint_AVR8.h **** 
 462:./tmk_core/protocol/lufa/LUFA-git/LUFA/Drivers/USB/Core/AVR8/../AVR8/Endpoint_AVR8.h **** 			/** Acknowledges an OUT packet to the host on the currently selected endpoint, freeing up the en
 463:./tmk_core/protocol/lufa/LUFA-git/LUFA/Drivers/USB/Core/AVR8/../AVR8/Endpoint_AVR8.h **** 			 *  for the next packet and switching to the alternative endpoint bank if double banked.
 464:./tmk_core/protocol/lufa/LUFA-git/LUFA/Drivers/USB/Core/AVR8/../AVR8/Endpoint_AVR8.h **** 			 *
 465:./tmk_core/protocol/lufa/LUFA-git/LUFA/Drivers/USB/Core/AVR8/../AVR8/Endpoint_AVR8.h **** 			 *  \ingroup Group_EndpointPacketManagement_AVR8
 466:./tmk_core/protocol/lufa/LUFA-git/LUFA/Drivers/USB/Core/AVR8/../AVR8/Endpoint_AVR8.h **** 			 */
 467:./tmk_core/protocol/lufa/LUFA-git/LUFA/Drivers/USB/Core/AVR8/../AVR8/Endpoint_AVR8.h **** 			static inline void Endpoint_ClearOUT(void) ATTR_ALWAYS_INLINE;
 468:./tmk_core/protocol/lufa/LUFA-git/LUFA/Drivers/USB/Core/AVR8/../AVR8/Endpoint_AVR8.h **** 			static inline void Endpoint_ClearOUT(void)
 1035               		.loc 2 468 23 view .LVU297
 1036               	.LBB256:
 469:./tmk_core/protocol/lufa/LUFA-git/LUFA/Drivers/USB/Core/AVR8/../AVR8/Endpoint_AVR8.h **** 			{
 470:./tmk_core/protocol/lufa/LUFA-git/LUFA/Drivers/USB/Core/AVR8/../AVR8/Endpoint_AVR8.h **** 				#if !defined(CONTROL_ONLY_DEVICE)
 471:./tmk_core/protocol/lufa/LUFA-git/LUFA/Drivers/USB/Core/AVR8/../AVR8/Endpoint_AVR8.h **** 					UEINTX &= ~((1 << RXOUTI) | (1 << FIFOCON));
 1037               		.loc 2 471 6 view .LVU298
 1038               		.loc 2 471 13 is_stmt 0 view .LVU299
 1039 0056 8091 E800 		lds r24,232
 1040 005a 8B77      		andi r24,lo8(123)
 1041 005c 8093 E800 		sts 232,r24
 472:./tmk_core/protocol/lufa/LUFA-git/LUFA/Drivers/USB/Core/AVR8/../AVR8/Endpoint_AVR8.h **** 				#else
 473:./tmk_core/protocol/lufa/LUFA-git/LUFA/Drivers/USB/Core/AVR8/../AVR8/Endpoint_AVR8.h **** 					UEINTX &= ~(1 << RXOUTI);
 474:./tmk_core/protocol/lufa/LUFA-git/LUFA/Drivers/USB/Core/AVR8/../AVR8/Endpoint_AVR8.h **** 				#endif
 475:./tmk_core/protocol/lufa/LUFA-git/LUFA/Drivers/USB/Core/AVR8/../AVR8/Endpoint_AVR8.h **** 			}
 1042               		.loc 2 475 4 view .LVU300
 1043 0060 0895      		ret
 1044               	.LVL67:
 1045               	.L91:
 1046               		.loc 2 475 4 view .LVU301
 1047               	.LBE256:
 1048               	.LBE255:
 499:./tmk_core/protocol/lufa/lufa.c ****                     break;
 1049               		.loc 1 499 32 view .LVU302
 1050 0062 60E2      		ldi r22,lo8(32)
 498:./tmk_core/protocol/lufa/lufa.c ****                     ReportSize = sizeof(keyboard_report_sent);
 1051               		.loc 1 498 32 view .LVU303
 1052 0064 80E0      		ldi r24,lo8(keyboard_report_sent)
 1053 0066 90E0      		ldi r25,hi8(keyboard_report_sent)
 1054 0068 00C0      		rjmp .L84
 1055               	.L75:
 510:./tmk_core/protocol/lufa/lufa.c ****             {
 1056               		.loc 1 510 13 is_stmt 1 view .LVU304
 510:./tmk_core/protocol/lufa/lufa.c ****             {
 1057               		.loc 1 510 16 is_stmt 0 view .LVU305
 1058 006a 8091 0000 		lds r24,USB_ControlRequest
 1059 006e 8132      		cpi r24,lo8(33)
 1060 0070 01F4      		brne .L74
 514:./tmk_core/protocol/lufa/lufa.c ****                 case KEYBOARD_INTERFACE:
 1061               		.loc 1 514 17 is_stmt 1 view .LVU306
 514:./tmk_core/protocol/lufa/lufa.c ****                 case KEYBOARD_INTERFACE:
 1062               		.loc 1 514 43 is_stmt 0 view .LVU307
 1063 0072 8091 0000 		lds r24,USB_ControlRequest+4
 1064 0076 9091 0000 		lds r25,USB_ControlRequest+4+1
 1065 007a 0097      		sbiw r24,0
 1066 007c 01F0      		breq .L86
 1067 007e 0397      		sbiw r24,3
 1068 0080 01F4      		brne .L74
 1069               	.L86:
 519:./tmk_core/protocol/lufa/lufa.c **** 
 1070               		.loc 1 519 21 is_stmt 1 view .LVU308
 1071               	.LBB257:
 1072               	.LBI257:
 442:./tmk_core/protocol/lufa/LUFA-git/LUFA/Drivers/USB/Core/AVR8/../AVR8/Endpoint_AVR8.h **** 			{
 1073               		.loc 2 442 23 view .LVU309
 1074               	.LBB258:
 444:./tmk_core/protocol/lufa/LUFA-git/LUFA/Drivers/USB/Core/AVR8/../AVR8/Endpoint_AVR8.h **** 			}
 1075               		.loc 2 444 5 view .LVU310
 444:./tmk_core/protocol/lufa/LUFA-git/LUFA/Drivers/USB/Core/AVR8/../AVR8/Endpoint_AVR8.h **** 			}
 1076               		.loc 2 444 12 is_stmt 0 view .LVU311
 1077 0082 8091 E800 		lds r24,232
 1078 0086 877F      		andi r24,lo8(-9)
 1079 0088 8093 E800 		sts 232,r24
 1080               	.L87:
 1081               	.LBE258:
 1082               	.LBE257:
 521:./tmk_core/protocol/lufa/lufa.c ****                         if (USB_DeviceState == DEVICE_STATE_Unattached)
 1083               		.loc 1 521 28 is_stmt 1 view .LVU312
 1084               	.LBB259:
 1085               	.LBI259:
 417:./tmk_core/protocol/lufa/LUFA-git/LUFA/Drivers/USB/Core/AVR8/../AVR8/Endpoint_AVR8.h **** 			{
 1086               		.loc 2 417 23 view .LVU313
 1087               	.LBB260:
 419:./tmk_core/protocol/lufa/LUFA-git/LUFA/Drivers/USB/Core/AVR8/../AVR8/Endpoint_AVR8.h **** 			}
 1088               		.loc 2 419 5 view .LVU314
 419:./tmk_core/protocol/lufa/LUFA-git/LUFA/Drivers/USB/Core/AVR8/../AVR8/Endpoint_AVR8.h **** 			}
 1089               		.loc 2 419 14 is_stmt 0 view .LVU315
 1090 008c 8091 E800 		lds r24,232
 1091               	.LBE260:
 1092               	.LBE259:
 521:./tmk_core/protocol/lufa/lufa.c ****                         if (USB_DeviceState == DEVICE_STATE_Unattached)
 1093               		.loc 1 521 28 view .LVU316
 1094 0090 82FF      		sbrs r24,2
 1095 0092 00C0      		rjmp .L88
 525:./tmk_core/protocol/lufa/lufa.c **** 
 1096               		.loc 1 525 21 is_stmt 1 view .LVU317
 1097               	.LBB261:
 1098               	.LBI261:
 476:./tmk_core/protocol/lufa/LUFA-git/LUFA/Drivers/USB/Core/AVR8/../AVR8/Endpoint_AVR8.h **** 
 477:./tmk_core/protocol/lufa/LUFA-git/LUFA/Drivers/USB/Core/AVR8/../AVR8/Endpoint_AVR8.h **** 			/** Stalls the current endpoint, indicating to the host that a logical problem occurred with the
 478:./tmk_core/protocol/lufa/LUFA-git/LUFA/Drivers/USB/Core/AVR8/../AVR8/Endpoint_AVR8.h **** 			 *  indicated endpoint and that the current transfer sequence should be aborted. This provides a
 479:./tmk_core/protocol/lufa/LUFA-git/LUFA/Drivers/USB/Core/AVR8/../AVR8/Endpoint_AVR8.h **** 			 *  way for devices to indicate invalid commands to the host so that the current transfer can be
 480:./tmk_core/protocol/lufa/LUFA-git/LUFA/Drivers/USB/Core/AVR8/../AVR8/Endpoint_AVR8.h **** 			 *  aborted and the host can begin its own recovery sequence.
 481:./tmk_core/protocol/lufa/LUFA-git/LUFA/Drivers/USB/Core/AVR8/../AVR8/Endpoint_AVR8.h **** 			 *
 482:./tmk_core/protocol/lufa/LUFA-git/LUFA/Drivers/USB/Core/AVR8/../AVR8/Endpoint_AVR8.h **** 			 *  The currently selected endpoint remains stalled until either the \ref Endpoint_ClearStall() 
 483:./tmk_core/protocol/lufa/LUFA-git/LUFA/Drivers/USB/Core/AVR8/../AVR8/Endpoint_AVR8.h **** 			 *  is called, or the host issues a CLEAR FEATURE request to the device for the currently select
 484:./tmk_core/protocol/lufa/LUFA-git/LUFA/Drivers/USB/Core/AVR8/../AVR8/Endpoint_AVR8.h **** 			 *  endpoint.
 485:./tmk_core/protocol/lufa/LUFA-git/LUFA/Drivers/USB/Core/AVR8/../AVR8/Endpoint_AVR8.h **** 			 *
 486:./tmk_core/protocol/lufa/LUFA-git/LUFA/Drivers/USB/Core/AVR8/../AVR8/Endpoint_AVR8.h **** 			 *  \ingroup Group_EndpointPacketManagement_AVR8
 487:./tmk_core/protocol/lufa/LUFA-git/LUFA/Drivers/USB/Core/AVR8/../AVR8/Endpoint_AVR8.h **** 			 */
 488:./tmk_core/protocol/lufa/LUFA-git/LUFA/Drivers/USB/Core/AVR8/../AVR8/Endpoint_AVR8.h **** 			static inline void Endpoint_StallTransaction(void) ATTR_ALWAYS_INLINE;
 489:./tmk_core/protocol/lufa/LUFA-git/LUFA/Drivers/USB/Core/AVR8/../AVR8/Endpoint_AVR8.h **** 			static inline void Endpoint_StallTransaction(void)
 490:./tmk_core/protocol/lufa/LUFA-git/LUFA/Drivers/USB/Core/AVR8/../AVR8/Endpoint_AVR8.h **** 			{
 491:./tmk_core/protocol/lufa/LUFA-git/LUFA/Drivers/USB/Core/AVR8/../AVR8/Endpoint_AVR8.h **** 				UECONX |= (1 << STALLRQ);
 492:./tmk_core/protocol/lufa/LUFA-git/LUFA/Drivers/USB/Core/AVR8/../AVR8/Endpoint_AVR8.h **** 			}
 493:./tmk_core/protocol/lufa/LUFA-git/LUFA/Drivers/USB/Core/AVR8/../AVR8/Endpoint_AVR8.h **** 
 494:./tmk_core/protocol/lufa/LUFA-git/LUFA/Drivers/USB/Core/AVR8/../AVR8/Endpoint_AVR8.h **** 			/** Clears the STALL condition on the currently selected endpoint.
 495:./tmk_core/protocol/lufa/LUFA-git/LUFA/Drivers/USB/Core/AVR8/../AVR8/Endpoint_AVR8.h **** 			 *
 496:./tmk_core/protocol/lufa/LUFA-git/LUFA/Drivers/USB/Core/AVR8/../AVR8/Endpoint_AVR8.h **** 			 *  \ingroup Group_EndpointPacketManagement_AVR8
 497:./tmk_core/protocol/lufa/LUFA-git/LUFA/Drivers/USB/Core/AVR8/../AVR8/Endpoint_AVR8.h **** 			 */
 498:./tmk_core/protocol/lufa/LUFA-git/LUFA/Drivers/USB/Core/AVR8/../AVR8/Endpoint_AVR8.h **** 			static inline void Endpoint_ClearStall(void) ATTR_ALWAYS_INLINE;
 499:./tmk_core/protocol/lufa/LUFA-git/LUFA/Drivers/USB/Core/AVR8/../AVR8/Endpoint_AVR8.h **** 			static inline void Endpoint_ClearStall(void)
 500:./tmk_core/protocol/lufa/LUFA-git/LUFA/Drivers/USB/Core/AVR8/../AVR8/Endpoint_AVR8.h **** 			{
 501:./tmk_core/protocol/lufa/LUFA-git/LUFA/Drivers/USB/Core/AVR8/../AVR8/Endpoint_AVR8.h **** 				UECONX |= (1 << STALLRQC);
 502:./tmk_core/protocol/lufa/LUFA-git/LUFA/Drivers/USB/Core/AVR8/../AVR8/Endpoint_AVR8.h **** 			}
 503:./tmk_core/protocol/lufa/LUFA-git/LUFA/Drivers/USB/Core/AVR8/../AVR8/Endpoint_AVR8.h **** 
 504:./tmk_core/protocol/lufa/LUFA-git/LUFA/Drivers/USB/Core/AVR8/../AVR8/Endpoint_AVR8.h **** 			/** Determines if the currently selected endpoint is stalled, \c false otherwise.
 505:./tmk_core/protocol/lufa/LUFA-git/LUFA/Drivers/USB/Core/AVR8/../AVR8/Endpoint_AVR8.h **** 			 *
 506:./tmk_core/protocol/lufa/LUFA-git/LUFA/Drivers/USB/Core/AVR8/../AVR8/Endpoint_AVR8.h **** 			 *  \ingroup Group_EndpointPacketManagement_AVR8
 507:./tmk_core/protocol/lufa/LUFA-git/LUFA/Drivers/USB/Core/AVR8/../AVR8/Endpoint_AVR8.h **** 			 *
 508:./tmk_core/protocol/lufa/LUFA-git/LUFA/Drivers/USB/Core/AVR8/../AVR8/Endpoint_AVR8.h **** 			 *  \return Boolean \c true if the currently selected endpoint is stalled, \c false otherwise.
 509:./tmk_core/protocol/lufa/LUFA-git/LUFA/Drivers/USB/Core/AVR8/../AVR8/Endpoint_AVR8.h **** 			 */
 510:./tmk_core/protocol/lufa/LUFA-git/LUFA/Drivers/USB/Core/AVR8/../AVR8/Endpoint_AVR8.h **** 			static inline bool Endpoint_IsStalled(void) ATTR_WARN_UNUSED_RESULT ATTR_ALWAYS_INLINE;
 511:./tmk_core/protocol/lufa/LUFA-git/LUFA/Drivers/USB/Core/AVR8/../AVR8/Endpoint_AVR8.h **** 			static inline bool Endpoint_IsStalled(void)
 512:./tmk_core/protocol/lufa/LUFA-git/LUFA/Drivers/USB/Core/AVR8/../AVR8/Endpoint_AVR8.h **** 			{
 513:./tmk_core/protocol/lufa/LUFA-git/LUFA/Drivers/USB/Core/AVR8/../AVR8/Endpoint_AVR8.h **** 				return ((UECONX & (1 << STALLRQ)) ? true : false);
 514:./tmk_core/protocol/lufa/LUFA-git/LUFA/Drivers/USB/Core/AVR8/../AVR8/Endpoint_AVR8.h **** 			}
 515:./tmk_core/protocol/lufa/LUFA-git/LUFA/Drivers/USB/Core/AVR8/../AVR8/Endpoint_AVR8.h **** 
 516:./tmk_core/protocol/lufa/LUFA-git/LUFA/Drivers/USB/Core/AVR8/../AVR8/Endpoint_AVR8.h **** 			/** Resets the data toggle of the currently selected endpoint. */
 517:./tmk_core/protocol/lufa/LUFA-git/LUFA/Drivers/USB/Core/AVR8/../AVR8/Endpoint_AVR8.h **** 			static inline void Endpoint_ResetDataToggle(void) ATTR_ALWAYS_INLINE;
 518:./tmk_core/protocol/lufa/LUFA-git/LUFA/Drivers/USB/Core/AVR8/../AVR8/Endpoint_AVR8.h **** 			static inline void Endpoint_ResetDataToggle(void)
 519:./tmk_core/protocol/lufa/LUFA-git/LUFA/Drivers/USB/Core/AVR8/../AVR8/Endpoint_AVR8.h **** 			{
 520:./tmk_core/protocol/lufa/LUFA-git/LUFA/Drivers/USB/Core/AVR8/../AVR8/Endpoint_AVR8.h **** 				UECONX |= (1 << RSTDT);
 521:./tmk_core/protocol/lufa/LUFA-git/LUFA/Drivers/USB/Core/AVR8/../AVR8/Endpoint_AVR8.h **** 			}
 522:./tmk_core/protocol/lufa/LUFA-git/LUFA/Drivers/USB/Core/AVR8/../AVR8/Endpoint_AVR8.h **** 
 523:./tmk_core/protocol/lufa/LUFA-git/LUFA/Drivers/USB/Core/AVR8/../AVR8/Endpoint_AVR8.h **** 			/** Sets the direction of the currently selected endpoint.
 524:./tmk_core/protocol/lufa/LUFA-git/LUFA/Drivers/USB/Core/AVR8/../AVR8/Endpoint_AVR8.h **** 			 *
 525:./tmk_core/protocol/lufa/LUFA-git/LUFA/Drivers/USB/Core/AVR8/../AVR8/Endpoint_AVR8.h **** 			 *  \param[in] DirectionMask  New endpoint direction, as a \c ENDPOINT_DIR_* mask.
 526:./tmk_core/protocol/lufa/LUFA-git/LUFA/Drivers/USB/Core/AVR8/../AVR8/Endpoint_AVR8.h **** 			 */
 527:./tmk_core/protocol/lufa/LUFA-git/LUFA/Drivers/USB/Core/AVR8/../AVR8/Endpoint_AVR8.h **** 			static inline void Endpoint_SetEndpointDirection(const uint8_t DirectionMask) ATTR_ALWAYS_INLINE
