   1               		.file	"HIDParser.c"
   2               	__SP_H__ = 0x3e
   3               	__SP_L__ = 0x3d
   4               	__SREG__ = 0x3f
   5               	__RAMPZ__ = 0x3b
   6               	__tmp_reg__ = 0
   7               	__zero_reg__ = 1
   8               		.text
   9               	.Ltext0:
  10               		.cfi_sections	.debug_frame
  11               		.file 1 "./tmk_core/protocol/lufa/LUFA-git/LUFA/Drivers/USB/Class/Common/HIDParser.c"
  12               		.section	.text.USB_ProcessHIDReport,"ax",@progbits
  13               	.global	USB_ProcessHIDReport
  15               	USB_ProcessHIDReport:
  16               	.LVL0:
  17               	.LFB20:
   1:./tmk_core/protocol/lufa/LUFA-git/LUFA/Drivers/USB/Class/Common/HIDParser.c **** /*
   2:./tmk_core/protocol/lufa/LUFA-git/LUFA/Drivers/USB/Class/Common/HIDParser.c ****              LUFA Library
   3:./tmk_core/protocol/lufa/LUFA-git/LUFA/Drivers/USB/Class/Common/HIDParser.c ****      Copyright (C) Dean Camera, 2014.
   4:./tmk_core/protocol/lufa/LUFA-git/LUFA/Drivers/USB/Class/Common/HIDParser.c **** 
   5:./tmk_core/protocol/lufa/LUFA-git/LUFA/Drivers/USB/Class/Common/HIDParser.c ****   dean [at] fourwalledcubicle [dot] com
   6:./tmk_core/protocol/lufa/LUFA-git/LUFA/Drivers/USB/Class/Common/HIDParser.c ****            www.lufa-lib.org
   7:./tmk_core/protocol/lufa/LUFA-git/LUFA/Drivers/USB/Class/Common/HIDParser.c **** */
   8:./tmk_core/protocol/lufa/LUFA-git/LUFA/Drivers/USB/Class/Common/HIDParser.c **** 
   9:./tmk_core/protocol/lufa/LUFA-git/LUFA/Drivers/USB/Class/Common/HIDParser.c **** /*
  10:./tmk_core/protocol/lufa/LUFA-git/LUFA/Drivers/USB/Class/Common/HIDParser.c ****   Copyright 2014  Dean Camera (dean [at] fourwalledcubicle [dot] com)
  11:./tmk_core/protocol/lufa/LUFA-git/LUFA/Drivers/USB/Class/Common/HIDParser.c **** 
  12:./tmk_core/protocol/lufa/LUFA-git/LUFA/Drivers/USB/Class/Common/HIDParser.c ****   Permission to use, copy, modify, distribute, and sell this
  13:./tmk_core/protocol/lufa/LUFA-git/LUFA/Drivers/USB/Class/Common/HIDParser.c ****   software and its documentation for any purpose is hereby granted
  14:./tmk_core/protocol/lufa/LUFA-git/LUFA/Drivers/USB/Class/Common/HIDParser.c ****   without fee, provided that the above copyright notice appear in
  15:./tmk_core/protocol/lufa/LUFA-git/LUFA/Drivers/USB/Class/Common/HIDParser.c ****   all copies and that both that the copyright notice and this
  16:./tmk_core/protocol/lufa/LUFA-git/LUFA/Drivers/USB/Class/Common/HIDParser.c ****   permission notice and warranty disclaimer appear in supporting
  17:./tmk_core/protocol/lufa/LUFA-git/LUFA/Drivers/USB/Class/Common/HIDParser.c ****   documentation, and that the name of the author not be used in
  18:./tmk_core/protocol/lufa/LUFA-git/LUFA/Drivers/USB/Class/Common/HIDParser.c ****   advertising or publicity pertaining to distribution of the
  19:./tmk_core/protocol/lufa/LUFA-git/LUFA/Drivers/USB/Class/Common/HIDParser.c ****   software without specific, written prior permission.
  20:./tmk_core/protocol/lufa/LUFA-git/LUFA/Drivers/USB/Class/Common/HIDParser.c **** 
  21:./tmk_core/protocol/lufa/LUFA-git/LUFA/Drivers/USB/Class/Common/HIDParser.c ****   The author disclaims all warranties with regard to this
  22:./tmk_core/protocol/lufa/LUFA-git/LUFA/Drivers/USB/Class/Common/HIDParser.c ****   software, including all implied warranties of merchantability
  23:./tmk_core/protocol/lufa/LUFA-git/LUFA/Drivers/USB/Class/Common/HIDParser.c ****   and fitness.  In no event shall the author be liable for any
  24:./tmk_core/protocol/lufa/LUFA-git/LUFA/Drivers/USB/Class/Common/HIDParser.c ****   special, indirect or consequential damages or any damages
  25:./tmk_core/protocol/lufa/LUFA-git/LUFA/Drivers/USB/Class/Common/HIDParser.c ****   whatsoever resulting from loss of use, data or profits, whether
  26:./tmk_core/protocol/lufa/LUFA-git/LUFA/Drivers/USB/Class/Common/HIDParser.c ****   in an action of contract, negligence or other tortious action,
  27:./tmk_core/protocol/lufa/LUFA-git/LUFA/Drivers/USB/Class/Common/HIDParser.c ****   arising out of or in connection with the use or performance of
  28:./tmk_core/protocol/lufa/LUFA-git/LUFA/Drivers/USB/Class/Common/HIDParser.c ****   this software.
  29:./tmk_core/protocol/lufa/LUFA-git/LUFA/Drivers/USB/Class/Common/HIDParser.c **** */
  30:./tmk_core/protocol/lufa/LUFA-git/LUFA/Drivers/USB/Class/Common/HIDParser.c **** 
  31:./tmk_core/protocol/lufa/LUFA-git/LUFA/Drivers/USB/Class/Common/HIDParser.c **** #define  __INCLUDE_FROM_USB_DRIVER
  32:./tmk_core/protocol/lufa/LUFA-git/LUFA/Drivers/USB/Class/Common/HIDParser.c **** #define  __INCLUDE_FROM_HID_DRIVER
  33:./tmk_core/protocol/lufa/LUFA-git/LUFA/Drivers/USB/Class/Common/HIDParser.c **** #include "HIDParser.h"
  34:./tmk_core/protocol/lufa/LUFA-git/LUFA/Drivers/USB/Class/Common/HIDParser.c **** 
  35:./tmk_core/protocol/lufa/LUFA-git/LUFA/Drivers/USB/Class/Common/HIDParser.c **** uint8_t USB_ProcessHIDReport(const uint8_t* ReportData,
  36:./tmk_core/protocol/lufa/LUFA-git/LUFA/Drivers/USB/Class/Common/HIDParser.c ****                              uint16_t ReportSize,
  37:./tmk_core/protocol/lufa/LUFA-git/LUFA/Drivers/USB/Class/Common/HIDParser.c ****                              HID_ReportInfo_t* const ParserData)
  38:./tmk_core/protocol/lufa/LUFA-git/LUFA/Drivers/USB/Class/Common/HIDParser.c **** {
  18               		.loc 1 38 1 view -0
  19               		.cfi_startproc
  20               		.loc 1 38 1 is_stmt 0 view .LVU1
  21 0000 2F92      		push r2
  22               	.LCFI0:
  23               		.cfi_def_cfa_offset 3
  24               		.cfi_offset 2, -2
  25 0002 3F92      		push r3
  26               	.LCFI1:
  27               		.cfi_def_cfa_offset 4
  28               		.cfi_offset 3, -3
  29 0004 4F92      		push r4
  30               	.LCFI2:
  31               		.cfi_def_cfa_offset 5
  32               		.cfi_offset 4, -4
  33 0006 5F92      		push r5
  34               	.LCFI3:
  35               		.cfi_def_cfa_offset 6
  36               		.cfi_offset 5, -5
  37 0008 6F92      		push r6
  38               	.LCFI4:
  39               		.cfi_def_cfa_offset 7
  40               		.cfi_offset 6, -6
  41 000a 7F92      		push r7
  42               	.LCFI5:
  43               		.cfi_def_cfa_offset 8
  44               		.cfi_offset 7, -7
  45 000c 8F92      		push r8
  46               	.LCFI6:
  47               		.cfi_def_cfa_offset 9
  48               		.cfi_offset 8, -8
  49 000e 9F92      		push r9
  50               	.LCFI7:
  51               		.cfi_def_cfa_offset 10
  52               		.cfi_offset 9, -9
  53 0010 AF92      		push r10
  54               	.LCFI8:
  55               		.cfi_def_cfa_offset 11
  56               		.cfi_offset 10, -10
  57 0012 BF92      		push r11
  58               	.LCFI9:
  59               		.cfi_def_cfa_offset 12
  60               		.cfi_offset 11, -11
  61 0014 CF92      		push r12
  62               	.LCFI10:
  63               		.cfi_def_cfa_offset 13
  64               		.cfi_offset 12, -12
  65 0016 DF92      		push r13
  66               	.LCFI11:
  67               		.cfi_def_cfa_offset 14
  68               		.cfi_offset 13, -13
  69 0018 EF92      		push r14
  70               	.LCFI12:
  71               		.cfi_def_cfa_offset 15
  72               		.cfi_offset 14, -14
  73 001a FF92      		push r15
  74               	.LCFI13:
  75               		.cfi_def_cfa_offset 16
  76               		.cfi_offset 15, -15
  77 001c 0F93      		push r16
  78               	.LCFI14:
  79               		.cfi_def_cfa_offset 17
  80               		.cfi_offset 16, -16
  81 001e 1F93      		push r17
  82               	.LCFI15:
  83               		.cfi_def_cfa_offset 18
  84               		.cfi_offset 17, -17
  85 0020 CF93      		push r28
  86               	.LCFI16:
  87               		.cfi_def_cfa_offset 19
  88               		.cfi_offset 28, -18
  89 0022 DF93      		push r29
  90               	.LCFI17:
  91               		.cfi_def_cfa_offset 20
  92               		.cfi_offset 29, -19
  93 0024 CDB7      		in r28,__SP_L__
  94 0026 DEB7      		in r29,__SP_H__
  95               	.LCFI18:
  96               		.cfi_def_cfa_register 28
  97 0028 C258      		subi r28,-126
  98 002a D109      		sbc r29,__zero_reg__
  99               	.LCFI19:
 100               		.cfi_def_cfa_offset 150
 101 002c 0FB6      		in __tmp_reg__,__SREG__
 102 002e F894      		cli
 103 0030 DEBF      		out __SP_H__,r29
 104 0032 0FBE      		out __SREG__,__tmp_reg__
 105 0034 CDBF      		out __SP_L__,r28
 106               	/* prologue: function */
 107               	/* frame size = 130 */
 108               	/* stack size = 148 */
 109               	.L__stack_usage = 148
 110 0036 E696      		adiw r28,117-63
 111 0038 8FAF      		std Y+63,r24
 112 003a E697      		sbiw r28,117-63
 113 003c E796      		adiw r28,118-63
 114 003e 9FAF      		std Y+63,r25
 115 0040 E797      		sbiw r28,118-63
 116 0042 EA96      		adiw r28,121-63
 117 0044 6FAF      		std Y+63,r22
 118 0046 EA97      		sbiw r28,121-63
 119 0048 EB96      		adiw r28,122-63
 120 004a 7FAF      		std Y+63,r23
 121 004c EB97      		sbiw r28,122-63
 122 004e 1A01      		movw r2,r20
  39:./tmk_core/protocol/lufa/LUFA-git/LUFA/Drivers/USB/Class/Common/HIDParser.c **** 	HID_StateTable_t      StateTable[HID_STATETABLE_STACK_DEPTH];
 123               		.loc 1 39 2 is_stmt 1 view .LVU2
  40:./tmk_core/protocol/lufa/LUFA-git/LUFA/Drivers/USB/Class/Common/HIDParser.c **** 	HID_StateTable_t*     CurrStateTable     = &StateTable[0];
 124               		.loc 1 40 2 view .LVU3
 125               	.LVL1:
  41:./tmk_core/protocol/lufa/LUFA-git/LUFA/Drivers/USB/Class/Common/HIDParser.c **** 	HID_CollectionPath_t* CurrCollectionPath = NULL;
 126               		.loc 1 41 2 view .LVU4
  42:./tmk_core/protocol/lufa/LUFA-git/LUFA/Drivers/USB/Class/Common/HIDParser.c **** 	HID_ReportSizeInfo_t* CurrReportIDInfo   = &ParserData->ReportIDSizes[0];
 127               		.loc 1 42 2 view .LVU5
 128               		.loc 1 42 24 is_stmt 0 view .LVU6
 129 0050 9A01      		movw r18,r20
 130 0052 2057      		subi r18,112
 131 0054 3C4F      		sbci r19,-4
 132 0056 ED96      		adiw r28,123-62
 133 0058 3FAF      		std Y+63,r19
 134 005a 2EAF      		std Y+62,r18
 135 005c ED97      		sbiw r28,123-62
 136               	.LVL2:
  43:./tmk_core/protocol/lufa/LUFA-git/LUFA/Drivers/USB/Class/Common/HIDParser.c **** 	uint16_t              UsageList[HID_USAGE_STACK_DEPTH];
 137               		.loc 1 43 2 is_stmt 1 view .LVU7
  44:./tmk_core/protocol/lufa/LUFA-git/LUFA/Drivers/USB/Class/Common/HIDParser.c **** 	uint8_t               UsageListSize      = 0;
 138               		.loc 1 44 2 view .LVU8
  45:./tmk_core/protocol/lufa/LUFA-git/LUFA/Drivers/USB/Class/Common/HIDParser.c **** 	HID_MinMax_t          UsageMinMax        = {0, 0};
 139               		.loc 1 45 2 view .LVU9
  46:./tmk_core/protocol/lufa/LUFA-git/LUFA/Drivers/USB/Class/Common/HIDParser.c **** 
  47:./tmk_core/protocol/lufa/LUFA-git/LUFA/Drivers/USB/Class/Common/HIDParser.c **** 	memset(ParserData,       0x00, sizeof(HID_ReportInfo_t));
 140               		.loc 1 47 2 view .LVU10
 141 005e 89ED      		ldi r24,lo8(-39)
 142 0060 93E0      		ldi r25,lo8(3)
 143               	.LVL3:
 144               		.loc 1 47 2 is_stmt 0 view .LVU11
 145 0062 DA01      		movw r26,r20
 146 0064 FC01      		movw r30,r24
 147               		0:
 148 0066 1D92      		st X+,__zero_reg__
 149 0068 3197      		sbiw r30,1
 150 006a 01F4      		brne 0b
  48:./tmk_core/protocol/lufa/LUFA-git/LUFA/Drivers/USB/Class/Common/HIDParser.c **** 	memset(CurrStateTable,   0x00, sizeof(HID_StateTable_t));
 151               		.loc 1 48 2 is_stmt 1 view .LVU12
 152 006c FE01      		movw r30,r28
 153 006e 3196      		adiw r30,1
 154               	.LVL4:
 155               		.loc 1 48 2 is_stmt 0 view .LVU13
 156 0070 8CE1      		ldi r24,lo8(28)
 157 0072 DF01      		movw r26,r30
 158               		0:
 159 0074 1D92      		st X+,__zero_reg__
 160 0076 8A95      		dec r24
 161 0078 01F4      		brne 0b
  49:./tmk_core/protocol/lufa/LUFA-git/LUFA/Drivers/USB/Class/Common/HIDParser.c **** 	memset(CurrReportIDInfo, 0x00, sizeof(HID_ReportSizeInfo_t));
 162               		.loc 1 49 2 is_stmt 1 view .LVU14
 163 007a 87E0      		ldi r24,lo8(7)
 164 007c D901      		movw r26,r18
 165               		0:
 166 007e 1D92      		st X+,__zero_reg__
 167 0080 8A95      		dec r24
 168 0082 01F4      		brne 0b
  50:./tmk_core/protocol/lufa/LUFA-git/LUFA/Drivers/USB/Class/Common/HIDParser.c **** 
  51:./tmk_core/protocol/lufa/LUFA-git/LUFA/Drivers/USB/Class/Common/HIDParser.c **** 	ParserData->TotalDeviceReports = 1;
 169               		.loc 1 51 2 view .LVU15
 170               		.loc 1 51 33 is_stmt 0 view .LVU16
 171 0084 DA01      		movw r26,r20
 172 0086 A157      		subi r26,113
 173 0088 BC4F      		sbci r27,-4
 174 008a 81E0      		ldi r24,lo8(1)
 175 008c 8C93      		st X,r24
  52:./tmk_core/protocol/lufa/LUFA-git/LUFA/Drivers/USB/Class/Common/HIDParser.c **** 
  53:./tmk_core/protocol/lufa/LUFA-git/LUFA/Drivers/USB/Class/Common/HIDParser.c **** 	while (ReportSize)
 176               		.loc 1 53 2 is_stmt 1 view .LVU17
  45:./tmk_core/protocol/lufa/LUFA-git/LUFA/Drivers/USB/Class/Common/HIDParser.c **** 
 177               		.loc 1 45 24 is_stmt 0 view .LVU18
 178 008e 812C      		mov r8,__zero_reg__
 179 0090 912C      		mov r9,__zero_reg__
 180 0092 5401      		movw r10,r8
 181 0094 C12C      		mov r12,__zero_reg__
 182 0096 D12C      		mov r13,__zero_reg__
 183 0098 7601      		movw r14,r12
  44:./tmk_core/protocol/lufa/LUFA-git/LUFA/Drivers/USB/Class/Common/HIDParser.c **** 	HID_MinMax_t          UsageMinMax        = {0, 0};
 184               		.loc 1 44 24 view .LVU19
 185 009a 10E0      		ldi r17,0
  41:./tmk_core/protocol/lufa/LUFA-git/LUFA/Drivers/USB/Class/Common/HIDParser.c **** 	HID_ReportSizeInfo_t* CurrReportIDInfo   = &ParserData->ReportIDSizes[0];
 186               		.loc 1 41 24 view .LVU20
 187 009c E996      		adiw r28,119-62
 188 009e 1FAE      		std Y+63,__zero_reg__
 189 00a0 1EAE      		std Y+62,__zero_reg__
 190 00a2 E997      		sbiw r28,119-62
  40:./tmk_core/protocol/lufa/LUFA-git/LUFA/Drivers/USB/Class/Common/HIDParser.c **** 	HID_CollectionPath_t* CurrCollectionPath = NULL;
 191               		.loc 1 40 24 view .LVU21
 192 00a4 E596      		adiw r28,115-62
 193 00a6 FFAF      		std Y+63,r31
 194 00a8 EEAF      		std Y+62,r30
 195 00aa E597      		sbiw r28,115-62
 196               	.LBB2:
 197               	.LBB3:
 198               	.LBB4:
  54:./tmk_core/protocol/lufa/LUFA-git/LUFA/Drivers/USB/Class/Common/HIDParser.c **** 	{
  55:./tmk_core/protocol/lufa/LUFA-git/LUFA/Drivers/USB/Class/Common/HIDParser.c **** 		uint8_t  HIDReportItem  = *ReportData;
  56:./tmk_core/protocol/lufa/LUFA-git/LUFA/Drivers/USB/Class/Common/HIDParser.c **** 		uint32_t ReportItemData;
  57:./tmk_core/protocol/lufa/LUFA-git/LUFA/Drivers/USB/Class/Common/HIDParser.c **** 
  58:./tmk_core/protocol/lufa/LUFA-git/LUFA/Drivers/USB/Class/Common/HIDParser.c **** 		ReportData++;
  59:./tmk_core/protocol/lufa/LUFA-git/LUFA/Drivers/USB/Class/Common/HIDParser.c **** 		ReportSize--;
  60:./tmk_core/protocol/lufa/LUFA-git/LUFA/Drivers/USB/Class/Common/HIDParser.c **** 
  61:./tmk_core/protocol/lufa/LUFA-git/LUFA/Drivers/USB/Class/Common/HIDParser.c **** 		switch (HIDReportItem & HID_RI_DATA_SIZE_MASK)
  62:./tmk_core/protocol/lufa/LUFA-git/LUFA/Drivers/USB/Class/Common/HIDParser.c **** 		{
  63:./tmk_core/protocol/lufa/LUFA-git/LUFA/Drivers/USB/Class/Common/HIDParser.c **** 			case HID_RI_DATA_BITS_32:
  64:./tmk_core/protocol/lufa/LUFA-git/LUFA/Drivers/USB/Class/Common/HIDParser.c **** 				ReportItemData  = (((uint32_t)ReportData[3] << 24) | ((uint32_t)ReportData[2] << 16) |
  65:./tmk_core/protocol/lufa/LUFA-git/LUFA/Drivers/USB/Class/Common/HIDParser.c **** 			                       ((uint16_t)ReportData[1] << 8)  | ReportData[0]);
  66:./tmk_core/protocol/lufa/LUFA-git/LUFA/Drivers/USB/Class/Common/HIDParser.c **** 				ReportSize     -= 4;
  67:./tmk_core/protocol/lufa/LUFA-git/LUFA/Drivers/USB/Class/Common/HIDParser.c **** 				ReportData     += 4;
  68:./tmk_core/protocol/lufa/LUFA-git/LUFA/Drivers/USB/Class/Common/HIDParser.c **** 				break;
  69:./tmk_core/protocol/lufa/LUFA-git/LUFA/Drivers/USB/Class/Common/HIDParser.c **** 
  70:./tmk_core/protocol/lufa/LUFA-git/LUFA/Drivers/USB/Class/Common/HIDParser.c **** 			case HID_RI_DATA_BITS_16:
  71:./tmk_core/protocol/lufa/LUFA-git/LUFA/Drivers/USB/Class/Common/HIDParser.c **** 				ReportItemData  = (((uint16_t)ReportData[1] << 8) | (ReportData[0]));
  72:./tmk_core/protocol/lufa/LUFA-git/LUFA/Drivers/USB/Class/Common/HIDParser.c **** 				ReportSize     -= 2;
  73:./tmk_core/protocol/lufa/LUFA-git/LUFA/Drivers/USB/Class/Common/HIDParser.c **** 				ReportData     += 2;
  74:./tmk_core/protocol/lufa/LUFA-git/LUFA/Drivers/USB/Class/Common/HIDParser.c **** 				break;
  75:./tmk_core/protocol/lufa/LUFA-git/LUFA/Drivers/USB/Class/Common/HIDParser.c **** 
  76:./tmk_core/protocol/lufa/LUFA-git/LUFA/Drivers/USB/Class/Common/HIDParser.c **** 			case HID_RI_DATA_BITS_8:
  77:./tmk_core/protocol/lufa/LUFA-git/LUFA/Drivers/USB/Class/Common/HIDParser.c **** 				ReportItemData  = ReportData[0];
  78:./tmk_core/protocol/lufa/LUFA-git/LUFA/Drivers/USB/Class/Common/HIDParser.c **** 				ReportSize     -= 1;
  79:./tmk_core/protocol/lufa/LUFA-git/LUFA/Drivers/USB/Class/Common/HIDParser.c **** 				ReportData     += 1;
  80:./tmk_core/protocol/lufa/LUFA-git/LUFA/Drivers/USB/Class/Common/HIDParser.c **** 				break;
  81:./tmk_core/protocol/lufa/LUFA-git/LUFA/Drivers/USB/Class/Common/HIDParser.c **** 
  82:./tmk_core/protocol/lufa/LUFA-git/LUFA/Drivers/USB/Class/Common/HIDParser.c **** 			default:
  83:./tmk_core/protocol/lufa/LUFA-git/LUFA/Drivers/USB/Class/Common/HIDParser.c **** 				ReportItemData  = 0;
  84:./tmk_core/protocol/lufa/LUFA-git/LUFA/Drivers/USB/Class/Common/HIDParser.c **** 				break;
  85:./tmk_core/protocol/lufa/LUFA-git/LUFA/Drivers/USB/Class/Common/HIDParser.c **** 		}
  86:./tmk_core/protocol/lufa/LUFA-git/LUFA/Drivers/USB/Class/Common/HIDParser.c **** 
  87:./tmk_core/protocol/lufa/LUFA-git/LUFA/Drivers/USB/Class/Common/HIDParser.c **** 		switch (HIDReportItem & (HID_RI_TYPE_MASK | HID_RI_TAG_MASK))
  88:./tmk_core/protocol/lufa/LUFA-git/LUFA/Drivers/USB/Class/Common/HIDParser.c **** 		{
  89:./tmk_core/protocol/lufa/LUFA-git/LUFA/Drivers/USB/Class/Common/HIDParser.c **** 			case HID_RI_PUSH(0):
  90:./tmk_core/protocol/lufa/LUFA-git/LUFA/Drivers/USB/Class/Common/HIDParser.c **** 				if (CurrStateTable == &StateTable[HID_STATETABLE_STACK_DEPTH - 1])
  91:./tmk_core/protocol/lufa/LUFA-git/LUFA/Drivers/USB/Class/Common/HIDParser.c **** 				  return HID_PARSE_HIDStackOverflow;
  92:./tmk_core/protocol/lufa/LUFA-git/LUFA/Drivers/USB/Class/Common/HIDParser.c **** 
  93:./tmk_core/protocol/lufa/LUFA-git/LUFA/Drivers/USB/Class/Common/HIDParser.c **** 				memcpy((CurrStateTable + 1),
  94:./tmk_core/protocol/lufa/LUFA-git/LUFA/Drivers/USB/Class/Common/HIDParser.c **** 				       CurrStateTable,
  95:./tmk_core/protocol/lufa/LUFA-git/LUFA/Drivers/USB/Class/Common/HIDParser.c **** 				       sizeof(HID_ReportItem_t));
  96:./tmk_core/protocol/lufa/LUFA-git/LUFA/Drivers/USB/Class/Common/HIDParser.c **** 
  97:./tmk_core/protocol/lufa/LUFA-git/LUFA/Drivers/USB/Class/Common/HIDParser.c **** 				CurrStateTable++;
  98:./tmk_core/protocol/lufa/LUFA-git/LUFA/Drivers/USB/Class/Common/HIDParser.c **** 				break;
  99:./tmk_core/protocol/lufa/LUFA-git/LUFA/Drivers/USB/Class/Common/HIDParser.c **** 
 100:./tmk_core/protocol/lufa/LUFA-git/LUFA/Drivers/USB/Class/Common/HIDParser.c **** 			case HID_RI_POP(0):
 101:./tmk_core/protocol/lufa/LUFA-git/LUFA/Drivers/USB/Class/Common/HIDParser.c **** 				if (CurrStateTable == &StateTable[0])
 102:./tmk_core/protocol/lufa/LUFA-git/LUFA/Drivers/USB/Class/Common/HIDParser.c **** 				  return HID_PARSE_HIDStackUnderflow;
 103:./tmk_core/protocol/lufa/LUFA-git/LUFA/Drivers/USB/Class/Common/HIDParser.c **** 
 104:./tmk_core/protocol/lufa/LUFA-git/LUFA/Drivers/USB/Class/Common/HIDParser.c **** 				CurrStateTable--;
 105:./tmk_core/protocol/lufa/LUFA-git/LUFA/Drivers/USB/Class/Common/HIDParser.c **** 				break;
 106:./tmk_core/protocol/lufa/LUFA-git/LUFA/Drivers/USB/Class/Common/HIDParser.c **** 
 107:./tmk_core/protocol/lufa/LUFA-git/LUFA/Drivers/USB/Class/Common/HIDParser.c **** 			case HID_RI_USAGE_PAGE(0):
 108:./tmk_core/protocol/lufa/LUFA-git/LUFA/Drivers/USB/Class/Common/HIDParser.c **** 				if ((HIDReportItem & HID_RI_DATA_SIZE_MASK) == HID_RI_DATA_BITS_32)
 109:./tmk_core/protocol/lufa/LUFA-git/LUFA/Drivers/USB/Class/Common/HIDParser.c **** 				  CurrStateTable->Attributes.Usage.Page = (ReportItemData >> 16);
 110:./tmk_core/protocol/lufa/LUFA-git/LUFA/Drivers/USB/Class/Common/HIDParser.c **** 
 111:./tmk_core/protocol/lufa/LUFA-git/LUFA/Drivers/USB/Class/Common/HIDParser.c **** 				CurrStateTable->Attributes.Usage.Page       = ReportItemData;
 112:./tmk_core/protocol/lufa/LUFA-git/LUFA/Drivers/USB/Class/Common/HIDParser.c **** 				break;
 113:./tmk_core/protocol/lufa/LUFA-git/LUFA/Drivers/USB/Class/Common/HIDParser.c **** 
 114:./tmk_core/protocol/lufa/LUFA-git/LUFA/Drivers/USB/Class/Common/HIDParser.c **** 			case HID_RI_LOGICAL_MINIMUM(0):
 115:./tmk_core/protocol/lufa/LUFA-git/LUFA/Drivers/USB/Class/Common/HIDParser.c **** 				CurrStateTable->Attributes.Logical.Minimum  = ReportItemData;
 116:./tmk_core/protocol/lufa/LUFA-git/LUFA/Drivers/USB/Class/Common/HIDParser.c **** 				break;
 117:./tmk_core/protocol/lufa/LUFA-git/LUFA/Drivers/USB/Class/Common/HIDParser.c **** 
 118:./tmk_core/protocol/lufa/LUFA-git/LUFA/Drivers/USB/Class/Common/HIDParser.c **** 			case HID_RI_LOGICAL_MAXIMUM(0):
 119:./tmk_core/protocol/lufa/LUFA-git/LUFA/Drivers/USB/Class/Common/HIDParser.c **** 				CurrStateTable->Attributes.Logical.Maximum  = ReportItemData;
 120:./tmk_core/protocol/lufa/LUFA-git/LUFA/Drivers/USB/Class/Common/HIDParser.c **** 				break;
 121:./tmk_core/protocol/lufa/LUFA-git/LUFA/Drivers/USB/Class/Common/HIDParser.c **** 
 122:./tmk_core/protocol/lufa/LUFA-git/LUFA/Drivers/USB/Class/Common/HIDParser.c **** 			case HID_RI_PHYSICAL_MINIMUM(0):
 123:./tmk_core/protocol/lufa/LUFA-git/LUFA/Drivers/USB/Class/Common/HIDParser.c **** 				CurrStateTable->Attributes.Physical.Minimum = ReportItemData;
 124:./tmk_core/protocol/lufa/LUFA-git/LUFA/Drivers/USB/Class/Common/HIDParser.c **** 				break;
 125:./tmk_core/protocol/lufa/LUFA-git/LUFA/Drivers/USB/Class/Common/HIDParser.c **** 
 126:./tmk_core/protocol/lufa/LUFA-git/LUFA/Drivers/USB/Class/Common/HIDParser.c **** 			case HID_RI_PHYSICAL_MAXIMUM(0):
 127:./tmk_core/protocol/lufa/LUFA-git/LUFA/Drivers/USB/Class/Common/HIDParser.c **** 				CurrStateTable->Attributes.Physical.Maximum = ReportItemData;
 128:./tmk_core/protocol/lufa/LUFA-git/LUFA/Drivers/USB/Class/Common/HIDParser.c **** 				break;
 129:./tmk_core/protocol/lufa/LUFA-git/LUFA/Drivers/USB/Class/Common/HIDParser.c **** 
 130:./tmk_core/protocol/lufa/LUFA-git/LUFA/Drivers/USB/Class/Common/HIDParser.c **** 			case HID_RI_UNIT_EXPONENT(0):
 131:./tmk_core/protocol/lufa/LUFA-git/LUFA/Drivers/USB/Class/Common/HIDParser.c **** 				CurrStateTable->Attributes.Unit.Exponent    = ReportItemData;
 132:./tmk_core/protocol/lufa/LUFA-git/LUFA/Drivers/USB/Class/Common/HIDParser.c **** 				break;
 133:./tmk_core/protocol/lufa/LUFA-git/LUFA/Drivers/USB/Class/Common/HIDParser.c **** 
 134:./tmk_core/protocol/lufa/LUFA-git/LUFA/Drivers/USB/Class/Common/HIDParser.c **** 			case HID_RI_UNIT(0):
 135:./tmk_core/protocol/lufa/LUFA-git/LUFA/Drivers/USB/Class/Common/HIDParser.c **** 				CurrStateTable->Attributes.Unit.Type        = ReportItemData;
 136:./tmk_core/protocol/lufa/LUFA-git/LUFA/Drivers/USB/Class/Common/HIDParser.c **** 				break;
 137:./tmk_core/protocol/lufa/LUFA-git/LUFA/Drivers/USB/Class/Common/HIDParser.c **** 
 138:./tmk_core/protocol/lufa/LUFA-git/LUFA/Drivers/USB/Class/Common/HIDParser.c **** 			case HID_RI_REPORT_SIZE(0):
 139:./tmk_core/protocol/lufa/LUFA-git/LUFA/Drivers/USB/Class/Common/HIDParser.c **** 				CurrStateTable->Attributes.BitSize          = ReportItemData;
 140:./tmk_core/protocol/lufa/LUFA-git/LUFA/Drivers/USB/Class/Common/HIDParser.c **** 				break;
 141:./tmk_core/protocol/lufa/LUFA-git/LUFA/Drivers/USB/Class/Common/HIDParser.c **** 
 142:./tmk_core/protocol/lufa/LUFA-git/LUFA/Drivers/USB/Class/Common/HIDParser.c **** 			case HID_RI_REPORT_COUNT(0):
 143:./tmk_core/protocol/lufa/LUFA-git/LUFA/Drivers/USB/Class/Common/HIDParser.c **** 				CurrStateTable->ReportCount                 = ReportItemData;
 144:./tmk_core/protocol/lufa/LUFA-git/LUFA/Drivers/USB/Class/Common/HIDParser.c **** 				break;
 145:./tmk_core/protocol/lufa/LUFA-git/LUFA/Drivers/USB/Class/Common/HIDParser.c **** 
 146:./tmk_core/protocol/lufa/LUFA-git/LUFA/Drivers/USB/Class/Common/HIDParser.c **** 			case HID_RI_REPORT_ID(0):
 147:./tmk_core/protocol/lufa/LUFA-git/LUFA/Drivers/USB/Class/Common/HIDParser.c **** 				CurrStateTable->ReportID                    = ReportItemData;
 148:./tmk_core/protocol/lufa/LUFA-git/LUFA/Drivers/USB/Class/Common/HIDParser.c **** 
 149:./tmk_core/protocol/lufa/LUFA-git/LUFA/Drivers/USB/Class/Common/HIDParser.c **** 				if (ParserData->UsingReportIDs)
 150:./tmk_core/protocol/lufa/LUFA-git/LUFA/Drivers/USB/Class/Common/HIDParser.c **** 				{
 151:./tmk_core/protocol/lufa/LUFA-git/LUFA/Drivers/USB/Class/Common/HIDParser.c **** 					CurrReportIDInfo = NULL;
 152:./tmk_core/protocol/lufa/LUFA-git/LUFA/Drivers/USB/Class/Common/HIDParser.c **** 
 153:./tmk_core/protocol/lufa/LUFA-git/LUFA/Drivers/USB/Class/Common/HIDParser.c **** 					for (uint8_t i = 0; i < ParserData->TotalDeviceReports; i++)
 154:./tmk_core/protocol/lufa/LUFA-git/LUFA/Drivers/USB/Class/Common/HIDParser.c **** 					{
 155:./tmk_core/protocol/lufa/LUFA-git/LUFA/Drivers/USB/Class/Common/HIDParser.c **** 						if (ParserData->ReportIDSizes[i].ReportID == CurrStateTable->ReportID)
 156:./tmk_core/protocol/lufa/LUFA-git/LUFA/Drivers/USB/Class/Common/HIDParser.c **** 						{
 157:./tmk_core/protocol/lufa/LUFA-git/LUFA/Drivers/USB/Class/Common/HIDParser.c **** 							CurrReportIDInfo = &ParserData->ReportIDSizes[i];
 158:./tmk_core/protocol/lufa/LUFA-git/LUFA/Drivers/USB/Class/Common/HIDParser.c **** 							break;
 159:./tmk_core/protocol/lufa/LUFA-git/LUFA/Drivers/USB/Class/Common/HIDParser.c **** 						}
 160:./tmk_core/protocol/lufa/LUFA-git/LUFA/Drivers/USB/Class/Common/HIDParser.c **** 					}
 161:./tmk_core/protocol/lufa/LUFA-git/LUFA/Drivers/USB/Class/Common/HIDParser.c **** 
 162:./tmk_core/protocol/lufa/LUFA-git/LUFA/Drivers/USB/Class/Common/HIDParser.c **** 					if (CurrReportIDInfo == NULL)
 163:./tmk_core/protocol/lufa/LUFA-git/LUFA/Drivers/USB/Class/Common/HIDParser.c **** 					{
 164:./tmk_core/protocol/lufa/LUFA-git/LUFA/Drivers/USB/Class/Common/HIDParser.c **** 						if (ParserData->TotalDeviceReports == HID_MAX_REPORT_IDS)
 165:./tmk_core/protocol/lufa/LUFA-git/LUFA/Drivers/USB/Class/Common/HIDParser.c **** 						  return HID_PARSE_InsufficientReportIDItems;
 166:./tmk_core/protocol/lufa/LUFA-git/LUFA/Drivers/USB/Class/Common/HIDParser.c **** 
 167:./tmk_core/protocol/lufa/LUFA-git/LUFA/Drivers/USB/Class/Common/HIDParser.c **** 						CurrReportIDInfo = &ParserData->ReportIDSizes[ParserData->TotalDeviceReports++];
 168:./tmk_core/protocol/lufa/LUFA-git/LUFA/Drivers/USB/Class/Common/HIDParser.c **** 						memset(CurrReportIDInfo, 0x00, sizeof(HID_ReportSizeInfo_t));
 169:./tmk_core/protocol/lufa/LUFA-git/LUFA/Drivers/USB/Class/Common/HIDParser.c **** 					}
 170:./tmk_core/protocol/lufa/LUFA-git/LUFA/Drivers/USB/Class/Common/HIDParser.c **** 				}
 171:./tmk_core/protocol/lufa/LUFA-git/LUFA/Drivers/USB/Class/Common/HIDParser.c **** 
 172:./tmk_core/protocol/lufa/LUFA-git/LUFA/Drivers/USB/Class/Common/HIDParser.c **** 				ParserData->UsingReportIDs = true;
 173:./tmk_core/protocol/lufa/LUFA-git/LUFA/Drivers/USB/Class/Common/HIDParser.c **** 
 174:./tmk_core/protocol/lufa/LUFA-git/LUFA/Drivers/USB/Class/Common/HIDParser.c **** 				CurrReportIDInfo->ReportID = CurrStateTable->ReportID;
 175:./tmk_core/protocol/lufa/LUFA-git/LUFA/Drivers/USB/Class/Common/HIDParser.c **** 				break;
 176:./tmk_core/protocol/lufa/LUFA-git/LUFA/Drivers/USB/Class/Common/HIDParser.c **** 
 177:./tmk_core/protocol/lufa/LUFA-git/LUFA/Drivers/USB/Class/Common/HIDParser.c **** 			case HID_RI_USAGE(0):
 178:./tmk_core/protocol/lufa/LUFA-git/LUFA/Drivers/USB/Class/Common/HIDParser.c **** 				if (UsageListSize == HID_USAGE_STACK_DEPTH)
 179:./tmk_core/protocol/lufa/LUFA-git/LUFA/Drivers/USB/Class/Common/HIDParser.c **** 				  return HID_PARSE_UsageListOverflow;
 180:./tmk_core/protocol/lufa/LUFA-git/LUFA/Drivers/USB/Class/Common/HIDParser.c **** 
 181:./tmk_core/protocol/lufa/LUFA-git/LUFA/Drivers/USB/Class/Common/HIDParser.c **** 				UsageList[UsageListSize++] = ReportItemData;
 182:./tmk_core/protocol/lufa/LUFA-git/LUFA/Drivers/USB/Class/Common/HIDParser.c **** 				break;
 183:./tmk_core/protocol/lufa/LUFA-git/LUFA/Drivers/USB/Class/Common/HIDParser.c **** 
 184:./tmk_core/protocol/lufa/LUFA-git/LUFA/Drivers/USB/Class/Common/HIDParser.c **** 			case HID_RI_USAGE_MINIMUM(0):
 185:./tmk_core/protocol/lufa/LUFA-git/LUFA/Drivers/USB/Class/Common/HIDParser.c **** 				UsageMinMax.Minimum = ReportItemData;
 186:./tmk_core/protocol/lufa/LUFA-git/LUFA/Drivers/USB/Class/Common/HIDParser.c **** 				break;
 187:./tmk_core/protocol/lufa/LUFA-git/LUFA/Drivers/USB/Class/Common/HIDParser.c **** 
 188:./tmk_core/protocol/lufa/LUFA-git/LUFA/Drivers/USB/Class/Common/HIDParser.c **** 			case HID_RI_USAGE_MAXIMUM(0):
 189:./tmk_core/protocol/lufa/LUFA-git/LUFA/Drivers/USB/Class/Common/HIDParser.c **** 				UsageMinMax.Maximum = ReportItemData;
 190:./tmk_core/protocol/lufa/LUFA-git/LUFA/Drivers/USB/Class/Common/HIDParser.c **** 				break;
 191:./tmk_core/protocol/lufa/LUFA-git/LUFA/Drivers/USB/Class/Common/HIDParser.c **** 
 192:./tmk_core/protocol/lufa/LUFA-git/LUFA/Drivers/USB/Class/Common/HIDParser.c **** 			case HID_RI_COLLECTION(0):
 193:./tmk_core/protocol/lufa/LUFA-git/LUFA/Drivers/USB/Class/Common/HIDParser.c **** 				if (CurrCollectionPath == NULL)
 194:./tmk_core/protocol/lufa/LUFA-git/LUFA/Drivers/USB/Class/Common/HIDParser.c **** 				{
 195:./tmk_core/protocol/lufa/LUFA-git/LUFA/Drivers/USB/Class/Common/HIDParser.c **** 					CurrCollectionPath = &ParserData->CollectionPaths[0];
 196:./tmk_core/protocol/lufa/LUFA-git/LUFA/Drivers/USB/Class/Common/HIDParser.c **** 				}
 197:./tmk_core/protocol/lufa/LUFA-git/LUFA/Drivers/USB/Class/Common/HIDParser.c **** 				else
 198:./tmk_core/protocol/lufa/LUFA-git/LUFA/Drivers/USB/Class/Common/HIDParser.c **** 				{
 199:./tmk_core/protocol/lufa/LUFA-git/LUFA/Drivers/USB/Class/Common/HIDParser.c **** 					HID_CollectionPath_t* ParentCollectionPath = CurrCollectionPath;
 200:./tmk_core/protocol/lufa/LUFA-git/LUFA/Drivers/USB/Class/Common/HIDParser.c **** 
 201:./tmk_core/protocol/lufa/LUFA-git/LUFA/Drivers/USB/Class/Common/HIDParser.c **** 					CurrCollectionPath = &ParserData->CollectionPaths[1];
 202:./tmk_core/protocol/lufa/LUFA-git/LUFA/Drivers/USB/Class/Common/HIDParser.c **** 
 203:./tmk_core/protocol/lufa/LUFA-git/LUFA/Drivers/USB/Class/Common/HIDParser.c **** 					while (CurrCollectionPath->Parent != NULL)
 204:./tmk_core/protocol/lufa/LUFA-git/LUFA/Drivers/USB/Class/Common/HIDParser.c **** 					{
 205:./tmk_core/protocol/lufa/LUFA-git/LUFA/Drivers/USB/Class/Common/HIDParser.c **** 						if (CurrCollectionPath == &ParserData->CollectionPaths[HID_MAX_COLLECTIONS - 1])
 206:./tmk_core/protocol/lufa/LUFA-git/LUFA/Drivers/USB/Class/Common/HIDParser.c **** 						  return HID_PARSE_InsufficientCollectionPaths;
 207:./tmk_core/protocol/lufa/LUFA-git/LUFA/Drivers/USB/Class/Common/HIDParser.c **** 
 208:./tmk_core/protocol/lufa/LUFA-git/LUFA/Drivers/USB/Class/Common/HIDParser.c **** 						CurrCollectionPath++;
 209:./tmk_core/protocol/lufa/LUFA-git/LUFA/Drivers/USB/Class/Common/HIDParser.c **** 					}
 210:./tmk_core/protocol/lufa/LUFA-git/LUFA/Drivers/USB/Class/Common/HIDParser.c **** 
 211:./tmk_core/protocol/lufa/LUFA-git/LUFA/Drivers/USB/Class/Common/HIDParser.c **** 					CurrCollectionPath->Parent = ParentCollectionPath;
 212:./tmk_core/protocol/lufa/LUFA-git/LUFA/Drivers/USB/Class/Common/HIDParser.c **** 				}
 213:./tmk_core/protocol/lufa/LUFA-git/LUFA/Drivers/USB/Class/Common/HIDParser.c **** 
 214:./tmk_core/protocol/lufa/LUFA-git/LUFA/Drivers/USB/Class/Common/HIDParser.c **** 				CurrCollectionPath->Type       = ReportItemData;
 215:./tmk_core/protocol/lufa/LUFA-git/LUFA/Drivers/USB/Class/Common/HIDParser.c **** 				CurrCollectionPath->Usage.Page = CurrStateTable->Attributes.Usage.Page;
 216:./tmk_core/protocol/lufa/LUFA-git/LUFA/Drivers/USB/Class/Common/HIDParser.c **** 
 217:./tmk_core/protocol/lufa/LUFA-git/LUFA/Drivers/USB/Class/Common/HIDParser.c **** 				if (UsageListSize)
 218:./tmk_core/protocol/lufa/LUFA-git/LUFA/Drivers/USB/Class/Common/HIDParser.c **** 				{
 219:./tmk_core/protocol/lufa/LUFA-git/LUFA/Drivers/USB/Class/Common/HIDParser.c **** 					CurrCollectionPath->Usage.Usage = UsageList[0];
 220:./tmk_core/protocol/lufa/LUFA-git/LUFA/Drivers/USB/Class/Common/HIDParser.c **** 
 221:./tmk_core/protocol/lufa/LUFA-git/LUFA/Drivers/USB/Class/Common/HIDParser.c **** 					for (uint8_t i = 1; i < UsageListSize; i++)
 222:./tmk_core/protocol/lufa/LUFA-git/LUFA/Drivers/USB/Class/Common/HIDParser.c **** 					  UsageList[i - 1] = UsageList[i];
 223:./tmk_core/protocol/lufa/LUFA-git/LUFA/Drivers/USB/Class/Common/HIDParser.c **** 
 224:./tmk_core/protocol/lufa/LUFA-git/LUFA/Drivers/USB/Class/Common/HIDParser.c **** 					UsageListSize--;
 225:./tmk_core/protocol/lufa/LUFA-git/LUFA/Drivers/USB/Class/Common/HIDParser.c **** 				}
 226:./tmk_core/protocol/lufa/LUFA-git/LUFA/Drivers/USB/Class/Common/HIDParser.c **** 				else if (UsageMinMax.Minimum <= UsageMinMax.Maximum)
 227:./tmk_core/protocol/lufa/LUFA-git/LUFA/Drivers/USB/Class/Common/HIDParser.c **** 				{
 228:./tmk_core/protocol/lufa/LUFA-git/LUFA/Drivers/USB/Class/Common/HIDParser.c **** 					CurrCollectionPath->Usage.Usage = UsageMinMax.Minimum++;
 229:./tmk_core/protocol/lufa/LUFA-git/LUFA/Drivers/USB/Class/Common/HIDParser.c **** 				}
 230:./tmk_core/protocol/lufa/LUFA-git/LUFA/Drivers/USB/Class/Common/HIDParser.c **** 
 231:./tmk_core/protocol/lufa/LUFA-git/LUFA/Drivers/USB/Class/Common/HIDParser.c **** 				break;
 232:./tmk_core/protocol/lufa/LUFA-git/LUFA/Drivers/USB/Class/Common/HIDParser.c **** 
 233:./tmk_core/protocol/lufa/LUFA-git/LUFA/Drivers/USB/Class/Common/HIDParser.c **** 			case HID_RI_END_COLLECTION(0):
 234:./tmk_core/protocol/lufa/LUFA-git/LUFA/Drivers/USB/Class/Common/HIDParser.c **** 				if (CurrCollectionPath == NULL)
 235:./tmk_core/protocol/lufa/LUFA-git/LUFA/Drivers/USB/Class/Common/HIDParser.c **** 				  return HID_PARSE_UnexpectedEndCollection;
 236:./tmk_core/protocol/lufa/LUFA-git/LUFA/Drivers/USB/Class/Common/HIDParser.c **** 
 237:./tmk_core/protocol/lufa/LUFA-git/LUFA/Drivers/USB/Class/Common/HIDParser.c **** 				CurrCollectionPath = CurrCollectionPath->Parent;
 238:./tmk_core/protocol/lufa/LUFA-git/LUFA/Drivers/USB/Class/Common/HIDParser.c **** 				break;
 239:./tmk_core/protocol/lufa/LUFA-git/LUFA/Drivers/USB/Class/Common/HIDParser.c **** 
 240:./tmk_core/protocol/lufa/LUFA-git/LUFA/Drivers/USB/Class/Common/HIDParser.c **** 			case HID_RI_INPUT(0):
 241:./tmk_core/protocol/lufa/LUFA-git/LUFA/Drivers/USB/Class/Common/HIDParser.c **** 			case HID_RI_OUTPUT(0):
 242:./tmk_core/protocol/lufa/LUFA-git/LUFA/Drivers/USB/Class/Common/HIDParser.c **** 			case HID_RI_FEATURE(0):
 243:./tmk_core/protocol/lufa/LUFA-git/LUFA/Drivers/USB/Class/Common/HIDParser.c **** 				for (uint8_t ReportItemNum = 0; ReportItemNum < CurrStateTable->ReportCount; ReportItemNum++)
 244:./tmk_core/protocol/lufa/LUFA-git/LUFA/Drivers/USB/Class/Common/HIDParser.c **** 				{
 245:./tmk_core/protocol/lufa/LUFA-git/LUFA/Drivers/USB/Class/Common/HIDParser.c **** 					HID_ReportItem_t NewReportItem;
 246:./tmk_core/protocol/lufa/LUFA-git/LUFA/Drivers/USB/Class/Common/HIDParser.c **** 
 247:./tmk_core/protocol/lufa/LUFA-git/LUFA/Drivers/USB/Class/Common/HIDParser.c **** 					memcpy(&NewReportItem.Attributes,
 248:./tmk_core/protocol/lufa/LUFA-git/LUFA/Drivers/USB/Class/Common/HIDParser.c **** 					       &CurrStateTable->Attributes,
 249:./tmk_core/protocol/lufa/LUFA-git/LUFA/Drivers/USB/Class/Common/HIDParser.c **** 					       sizeof(HID_ReportItem_Attributes_t));
 250:./tmk_core/protocol/lufa/LUFA-git/LUFA/Drivers/USB/Class/Common/HIDParser.c **** 
 251:./tmk_core/protocol/lufa/LUFA-git/LUFA/Drivers/USB/Class/Common/HIDParser.c **** 					NewReportItem.ItemFlags      = ReportItemData;
 252:./tmk_core/protocol/lufa/LUFA-git/LUFA/Drivers/USB/Class/Common/HIDParser.c **** 					NewReportItem.CollectionPath = CurrCollectionPath;
 253:./tmk_core/protocol/lufa/LUFA-git/LUFA/Drivers/USB/Class/Common/HIDParser.c **** 					NewReportItem.ReportID       = CurrStateTable->ReportID;
 254:./tmk_core/protocol/lufa/LUFA-git/LUFA/Drivers/USB/Class/Common/HIDParser.c **** 
 255:./tmk_core/protocol/lufa/LUFA-git/LUFA/Drivers/USB/Class/Common/HIDParser.c **** 					if (UsageListSize)
 256:./tmk_core/protocol/lufa/LUFA-git/LUFA/Drivers/USB/Class/Common/HIDParser.c **** 					{
 257:./tmk_core/protocol/lufa/LUFA-git/LUFA/Drivers/USB/Class/Common/HIDParser.c **** 						NewReportItem.Attributes.Usage.Usage = UsageList[0];
 258:./tmk_core/protocol/lufa/LUFA-git/LUFA/Drivers/USB/Class/Common/HIDParser.c **** 
 259:./tmk_core/protocol/lufa/LUFA-git/LUFA/Drivers/USB/Class/Common/HIDParser.c **** 						for (uint8_t i = 1; i < UsageListSize; i++)
 260:./tmk_core/protocol/lufa/LUFA-git/LUFA/Drivers/USB/Class/Common/HIDParser.c **** 						  UsageList[i - 1] = UsageList[i];
 261:./tmk_core/protocol/lufa/LUFA-git/LUFA/Drivers/USB/Class/Common/HIDParser.c **** 
 262:./tmk_core/protocol/lufa/LUFA-git/LUFA/Drivers/USB/Class/Common/HIDParser.c **** 						UsageListSize--;
 263:./tmk_core/protocol/lufa/LUFA-git/LUFA/Drivers/USB/Class/Common/HIDParser.c **** 					}
 264:./tmk_core/protocol/lufa/LUFA-git/LUFA/Drivers/USB/Class/Common/HIDParser.c **** 					else if (UsageMinMax.Minimum <= UsageMinMax.Maximum)
 265:./tmk_core/protocol/lufa/LUFA-git/LUFA/Drivers/USB/Class/Common/HIDParser.c **** 					{
 266:./tmk_core/protocol/lufa/LUFA-git/LUFA/Drivers/USB/Class/Common/HIDParser.c **** 						NewReportItem.Attributes.Usage.Usage = UsageMinMax.Minimum++;
 267:./tmk_core/protocol/lufa/LUFA-git/LUFA/Drivers/USB/Class/Common/HIDParser.c **** 					}
 268:./tmk_core/protocol/lufa/LUFA-git/LUFA/Drivers/USB/Class/Common/HIDParser.c **** 
 269:./tmk_core/protocol/lufa/LUFA-git/LUFA/Drivers/USB/Class/Common/HIDParser.c **** 					uint8_t ItemTypeTag = (HIDReportItem & (HID_RI_TYPE_MASK | HID_RI_TAG_MASK));
 270:./tmk_core/protocol/lufa/LUFA-git/LUFA/Drivers/USB/Class/Common/HIDParser.c **** 
 271:./tmk_core/protocol/lufa/LUFA-git/LUFA/Drivers/USB/Class/Common/HIDParser.c **** 					if (ItemTypeTag == HID_RI_INPUT(0))
 272:./tmk_core/protocol/lufa/LUFA-git/LUFA/Drivers/USB/Class/Common/HIDParser.c **** 					  NewReportItem.ItemType = HID_REPORT_ITEM_In;
 273:./tmk_core/protocol/lufa/LUFA-git/LUFA/Drivers/USB/Class/Common/HIDParser.c **** 					else if (ItemTypeTag == HID_RI_OUTPUT(0))
 274:./tmk_core/protocol/lufa/LUFA-git/LUFA/Drivers/USB/Class/Common/HIDParser.c **** 					  NewReportItem.ItemType = HID_REPORT_ITEM_Out;
 275:./tmk_core/protocol/lufa/LUFA-git/LUFA/Drivers/USB/Class/Common/HIDParser.c **** 					else
 276:./tmk_core/protocol/lufa/LUFA-git/LUFA/Drivers/USB/Class/Common/HIDParser.c **** 					  NewReportItem.ItemType = HID_REPORT_ITEM_Feature;
 277:./tmk_core/protocol/lufa/LUFA-git/LUFA/Drivers/USB/Class/Common/HIDParser.c **** 
 278:./tmk_core/protocol/lufa/LUFA-git/LUFA/Drivers/USB/Class/Common/HIDParser.c **** 					NewReportItem.BitOffset = CurrReportIDInfo->ReportSizeBits[NewReportItem.ItemType];
 279:./tmk_core/protocol/lufa/LUFA-git/LUFA/Drivers/USB/Class/Common/HIDParser.c **** 
 280:./tmk_core/protocol/lufa/LUFA-git/LUFA/Drivers/USB/Class/Common/HIDParser.c **** 					CurrReportIDInfo->ReportSizeBits[NewReportItem.ItemType] += CurrStateTable->Attributes.BitSize
 281:./tmk_core/protocol/lufa/LUFA-git/LUFA/Drivers/USB/Class/Common/HIDParser.c **** 
 282:./tmk_core/protocol/lufa/LUFA-git/LUFA/Drivers/USB/Class/Common/HIDParser.c **** 					ParserData->LargestReportSizeBits = MAX(ParserData->LargestReportSizeBits, CurrReportIDInfo->R
 199               		.loc 1 282 40 view .LVU22
 200 00ac FA01      		movw r30,r20
 201               	.LVL5:
 202               		.loc 1 282 40 view .LVU23
 203 00ae EA52      		subi r30,42
 204 00b0 FC4F      		sbci r31,-4
 205 00b2 C158      		subi r28,lo8(-127)
 206 00b4 DF4F      		sbci r29,hi8(-127)
 207 00b6 F983      		std Y+1,r31
 208 00b8 E883      		st Y,r30
 209 00ba CF57      		subi r28,lo8(127)
 210 00bc D040      		sbci r29,hi8(127)
 211               	.LBB5:
 260:./tmk_core/protocol/lufa/LUFA-git/LUFA/Drivers/USB/Class/Common/HIDParser.c **** 
 212               		.loc 1 260 26 view .LVU24
 213 00be 23E6      		ldi r18,lo8(99)
 214 00c0 30E0      		ldi r19,0
 215               	.LVL6:
 260:./tmk_core/protocol/lufa/LUFA-git/LUFA/Drivers/USB/Class/Common/HIDParser.c **** 
 216               		.loc 1 260 26 view .LVU25
 217 00c2 2C0F      		add r18,r28
 218 00c4 3D1F      		adc r19,r29
 219 00c6 2E5F      		subi r18,-2
 220 00c8 3F4F      		sbci r19,-1
 221 00ca CF57      		subi r28,lo8(-129)
 222 00cc DF4F      		sbci r29,hi8(-129)
 223 00ce 3983      		std Y+1,r19
 224 00d0 2883      		st Y,r18
 225 00d2 C158      		subi r28,lo8(129)
 226 00d4 D040      		sbci r29,hi8(129)
 227               	.LVL7:
 228               	.L2:
 260:./tmk_core/protocol/lufa/LUFA-git/LUFA/Drivers/USB/Class/Common/HIDParser.c **** 
 229               		.loc 1 260 26 view .LVU26
 230               	.LBE5:
 231               	.LBE4:
 232               	.LBE3:
 233               	.LBE2:
  53:./tmk_core/protocol/lufa/LUFA-git/LUFA/Drivers/USB/Class/Common/HIDParser.c **** 	{
 234               		.loc 1 53 9 is_stmt 1 view .LVU27
 235 00d6 EB96      		adiw r28,121-62
 236 00d8 2EAD      		ldd r18,Y+62
 237 00da 3FAD      		ldd r19,Y+63
 238 00dc EB97      		sbiw r28,121-62
 239               	.LVL8:
  53:./tmk_core/protocol/lufa/LUFA-git/LUFA/Drivers/USB/Class/Common/HIDParser.c **** 	{
 240               		.loc 1 53 9 is_stmt 0 view .LVU28
 241 00de 232B      		or r18,r19
 242 00e0 01F4      		brne .L54
 283:./tmk_core/protocol/lufa/LUFA-git/LUFA/Drivers/USB/Class/Common/HIDParser.c **** 
 284:./tmk_core/protocol/lufa/LUFA-git/LUFA/Drivers/USB/Class/Common/HIDParser.c **** 					if (ParserData->TotalReportItems == HID_MAX_REPORTITEMS)
 285:./tmk_core/protocol/lufa/LUFA-git/LUFA/Drivers/USB/Class/Common/HIDParser.c **** 					  return HID_PARSE_InsufficientReportItems;
 286:./tmk_core/protocol/lufa/LUFA-git/LUFA/Drivers/USB/Class/Common/HIDParser.c **** 
 287:./tmk_core/protocol/lufa/LUFA-git/LUFA/Drivers/USB/Class/Common/HIDParser.c **** 					memcpy(&ParserData->ReportItems[ParserData->TotalReportItems],
 288:./tmk_core/protocol/lufa/LUFA-git/LUFA/Drivers/USB/Class/Common/HIDParser.c **** 					       &NewReportItem, sizeof(HID_ReportItem_t));
 289:./tmk_core/protocol/lufa/LUFA-git/LUFA/Drivers/USB/Class/Common/HIDParser.c **** 
 290:./tmk_core/protocol/lufa/LUFA-git/LUFA/Drivers/USB/Class/Common/HIDParser.c **** 					if (!(ReportItemData & HID_IOF_CONSTANT) && CALLBACK_HIDParser_FilterHIDReportItem(&NewReportI
 291:./tmk_core/protocol/lufa/LUFA-git/LUFA/Drivers/USB/Class/Common/HIDParser.c **** 					  ParserData->TotalReportItems++;
 292:./tmk_core/protocol/lufa/LUFA-git/LUFA/Drivers/USB/Class/Common/HIDParser.c **** 				}
 293:./tmk_core/protocol/lufa/LUFA-git/LUFA/Drivers/USB/Class/Common/HIDParser.c **** 
 294:./tmk_core/protocol/lufa/LUFA-git/LUFA/Drivers/USB/Class/Common/HIDParser.c **** 				break;
 295:./tmk_core/protocol/lufa/LUFA-git/LUFA/Drivers/USB/Class/Common/HIDParser.c **** 
 296:./tmk_core/protocol/lufa/LUFA-git/LUFA/Drivers/USB/Class/Common/HIDParser.c **** 			default:
 297:./tmk_core/protocol/lufa/LUFA-git/LUFA/Drivers/USB/Class/Common/HIDParser.c **** 				break;
 298:./tmk_core/protocol/lufa/LUFA-git/LUFA/Drivers/USB/Class/Common/HIDParser.c **** 		}
 299:./tmk_core/protocol/lufa/LUFA-git/LUFA/Drivers/USB/Class/Common/HIDParser.c **** 
 300:./tmk_core/protocol/lufa/LUFA-git/LUFA/Drivers/USB/Class/Common/HIDParser.c **** 		if ((HIDReportItem & HID_RI_TYPE_MASK) == HID_RI_TYPE_MAIN)
 301:./tmk_core/protocol/lufa/LUFA-git/LUFA/Drivers/USB/Class/Common/HIDParser.c **** 		{
 302:./tmk_core/protocol/lufa/LUFA-git/LUFA/Drivers/USB/Class/Common/HIDParser.c **** 			UsageMinMax.Minimum = 0;
 303:./tmk_core/protocol/lufa/LUFA-git/LUFA/Drivers/USB/Class/Common/HIDParser.c **** 			UsageMinMax.Maximum = 0;
 304:./tmk_core/protocol/lufa/LUFA-git/LUFA/Drivers/USB/Class/Common/HIDParser.c **** 			UsageListSize       = 0;
 305:./tmk_core/protocol/lufa/LUFA-git/LUFA/Drivers/USB/Class/Common/HIDParser.c **** 		}
 306:./tmk_core/protocol/lufa/LUFA-git/LUFA/Drivers/USB/Class/Common/HIDParser.c **** 	}
 307:./tmk_core/protocol/lufa/LUFA-git/LUFA/Drivers/USB/Class/Common/HIDParser.c **** 
 308:./tmk_core/protocol/lufa/LUFA-git/LUFA/Drivers/USB/Class/Common/HIDParser.c **** 	if (!(ParserData->TotalReportItems))
 243               		.loc 1 308 2 is_stmt 1 view .LVU29
 244               		.loc 1 308 5 is_stmt 0 view .LVU30
 245 00e2 81E0      		ldi r24,lo8(1)
 246 00e4 D101      		movw r26,r2
 247 00e6 9C91      		ld r25,X
 248 00e8 9111      		cpse r25,__zero_reg__
 249               		.loc 1 308 5 view .LVU31
 250 00ea 80E0      		ldi r24,0
 251               	.L55:
 252 00ec 880F      		lsl r24
 253 00ee 880F      		lsl r24
 254 00f0 880F      		lsl r24
 255 00f2 00C0      		rjmp .L1
 256               	.L54:
 257               	.LBB16:
  55:./tmk_core/protocol/lufa/LUFA-git/LUFA/Drivers/USB/Class/Common/HIDParser.c **** 		uint32_t ReportItemData;
 258               		.loc 1 55 3 is_stmt 1 view .LVU32
  55:./tmk_core/protocol/lufa/LUFA-git/LUFA/Drivers/USB/Class/Common/HIDParser.c **** 		uint32_t ReportItemData;
 259               		.loc 1 55 12 is_stmt 0 view .LVU33
 260 00f4 E796      		adiw r28,117-62
 261 00f6 AEAD      		ldd r26,Y+62
 262 00f8 BFAD      		ldd r27,Y+63
 263 00fa E797      		sbiw r28,117-62
 264 00fc BC91      		ld r27,X
 265 00fe EF96      		adiw r28,126-63
 266 0100 BFAF      		std Y+63,r27
 267 0102 EF97      		sbiw r28,126-63
 268               	.LVL9:
  56:./tmk_core/protocol/lufa/LUFA-git/LUFA/Drivers/USB/Class/Common/HIDParser.c **** 
 269               		.loc 1 56 3 is_stmt 1 view .LVU34
  58:./tmk_core/protocol/lufa/LUFA-git/LUFA/Drivers/USB/Class/Common/HIDParser.c **** 		ReportSize--;
 270               		.loc 1 58 3 view .LVU35
  59:./tmk_core/protocol/lufa/LUFA-git/LUFA/Drivers/USB/Class/Common/HIDParser.c **** 
 271               		.loc 1 59 3 view .LVU36
  61:./tmk_core/protocol/lufa/LUFA-git/LUFA/Drivers/USB/Class/Common/HIDParser.c **** 		{
 272               		.loc 1 61 3 view .LVU37
 273 0104 8B2F      		mov r24,r27
 274 0106 8370      		andi r24,lo8(3)
 275 0108 8230      		cpi r24,lo8(2)
 276 010a 01F4      		brne .+2
 277 010c 00C0      		rjmp .L3
 278 010e 8330      		cpi r24,lo8(3)
 279 0110 01F4      		brne .+2
 280 0112 00C0      		rjmp .L4
 281 0114 8130      		cpi r24,lo8(1)
 282 0116 01F4      		brne .+2
 283 0118 00C0      		rjmp .L5
  58:./tmk_core/protocol/lufa/LUFA-git/LUFA/Drivers/USB/Class/Common/HIDParser.c **** 		ReportSize--;
 284               		.loc 1 58 13 is_stmt 0 view .LVU38
 285 011a E796      		adiw r28,117-62
 286 011c EEAD      		ldd r30,Y+62
 287 011e FFAD      		ldd r31,Y+63
 288 0120 E797      		sbiw r28,117-62
 289 0122 3196      		adiw r30,1
 290               	.LVL10:
  58:./tmk_core/protocol/lufa/LUFA-git/LUFA/Drivers/USB/Class/Common/HIDParser.c **** 		ReportSize--;
 291               		.loc 1 58 13 view .LVU39
 292 0124 E796      		adiw r28,117-62
 293 0126 FFAF      		std Y+63,r31
 294 0128 EEAF      		std Y+62,r30
 295 012a E797      		sbiw r28,117-62
  59:./tmk_core/protocol/lufa/LUFA-git/LUFA/Drivers/USB/Class/Common/HIDParser.c **** 
 296               		.loc 1 59 13 view .LVU40
 297 012c EB96      		adiw r28,121-62
 298 012e 2EAD      		ldd r18,Y+62
 299 0130 3FAD      		ldd r19,Y+63
 300 0132 EB97      		sbiw r28,121-62
 301               	.LVL11:
  59:./tmk_core/protocol/lufa/LUFA-git/LUFA/Drivers/USB/Class/Common/HIDParser.c **** 
 302               		.loc 1 59 13 view .LVU41
 303 0134 2150      		subi r18,1
 304 0136 3109      		sbc r19,__zero_reg__
 305               	.LVL12:
  59:./tmk_core/protocol/lufa/LUFA-git/LUFA/Drivers/USB/Class/Common/HIDParser.c **** 
 306               		.loc 1 59 13 view .LVU42
 307 0138 EB96      		adiw r28,121-62
 308 013a 3FAF      		std Y+63,r19
 309 013c 2EAF      		std Y+62,r18
 310 013e EB97      		sbiw r28,121-62
  83:./tmk_core/protocol/lufa/LUFA-git/LUFA/Drivers/USB/Class/Common/HIDParser.c **** 				break;
 311               		.loc 1 83 21 view .LVU43
 312 0140 412C      		mov r4,__zero_reg__
 313 0142 512C      		mov r5,__zero_reg__
 314 0144 612C      		mov r6,__zero_reg__
 315 0146 712C      		mov r7,__zero_reg__
 316               	.LVL13:
 317               	.L6:
  87:./tmk_core/protocol/lufa/LUFA-git/LUFA/Drivers/USB/Class/Common/HIDParser.c **** 		{
 318               		.loc 1 87 3 is_stmt 1 view .LVU44
 319 0148 EF96      		adiw r28,126-63
 320 014a 0FAD      		ldd r16,Y+63
 321 014c EF97      		sbiw r28,126-63
 322 014e 0C7F      		andi r16,lo8(-4)
 323 0150 0436      		cpi r16,lo8(100)
 324 0152 01F4      		brne .+2
 325 0154 00C0      		rjmp .L7
 326 0156 00F0      		brlo .+2
 327 0158 00C0      		rjmp .L8
 328 015a 0432      		cpi r16,lo8(36)
 329 015c 01F4      		brne .+2
 330 015e 00C0      		rjmp .L9
 331 0160 00F0      		brlo .+2
 332 0162 00C0      		rjmp .L10
 333 0164 0431      		cpi r16,lo8(20)
 334 0166 01F4      		brne .+2
 335 0168 00C0      		rjmp .L11
 336 016a 00F0      		brlo .+2
 337 016c 00C0      		rjmp .L12
 338 016e 0430      		cpi r16,lo8(4)
 339 0170 01F4      		brne .+2
 340 0172 00C0      		rjmp .L13
 341 0174 0830      		cpi r16,lo8(8)
 342 0176 01F4      		brne .+2
 343 0178 00C0      		rjmp .L14
 344               	.LVL14:
 345               	.L15:
 300:./tmk_core/protocol/lufa/LUFA-git/LUFA/Drivers/USB/Class/Common/HIDParser.c **** 		{
 346               		.loc 1 300 3 view .LVU45
 347 017a EF96      		adiw r28,126-63
 348 017c 8FAD      		ldd r24,Y+63
 349 017e EF97      		sbiw r28,126-63
 350 0180 8C70      		andi r24,lo8(12)
 300:./tmk_core/protocol/lufa/LUFA-git/LUFA/Drivers/USB/Class/Common/HIDParser.c **** 		{
 351               		.loc 1 300 6 is_stmt 0 view .LVU46
 352 0182 8111      		cpse r24,__zero_reg__
 353 0184 00C0      		rjmp .L2
 354               	.LVL15:
 304:./tmk_core/protocol/lufa/LUFA-git/LUFA/Drivers/USB/Class/Common/HIDParser.c **** 		}
 355               		.loc 1 304 24 view .LVU47
 356 0186 10E0      		ldi r17,0
 357               	.LVL16:
 303:./tmk_core/protocol/lufa/LUFA-git/LUFA/Drivers/USB/Class/Common/HIDParser.c **** 			UsageListSize       = 0;
 358               		.loc 1 303 24 view .LVU48
 359 0188 812C      		mov r8,__zero_reg__
 360 018a 912C      		mov r9,__zero_reg__
 361 018c A12C      		mov r10,__zero_reg__
 362 018e B12C      		mov r11,__zero_reg__
 363               	.LVL17:
 302:./tmk_core/protocol/lufa/LUFA-git/LUFA/Drivers/USB/Class/Common/HIDParser.c **** 			UsageMinMax.Maximum = 0;
 364               		.loc 1 302 24 view .LVU49
 365 0190 C12C      		mov r12,__zero_reg__
 366 0192 D12C      		mov r13,__zero_reg__
 367 0194 E12C      		mov r14,__zero_reg__
 368 0196 F12C      		mov r15,__zero_reg__
 369               	.LVL18:
 302:./tmk_core/protocol/lufa/LUFA-git/LUFA/Drivers/USB/Class/Common/HIDParser.c **** 			UsageMinMax.Maximum = 0;
 370               		.loc 1 302 24 view .LVU50
 371 0198 00C0      		rjmp .L2
 372               	.LVL19:
 373               	.L4:
  64:./tmk_core/protocol/lufa/LUFA-git/LUFA/Drivers/USB/Class/Common/HIDParser.c **** 			                       ((uint16_t)ReportData[1] << 8)  | ReportData[0]);
 374               		.loc 1 64 5 is_stmt 1 view .LVU51
  64:./tmk_core/protocol/lufa/LUFA-git/LUFA/Drivers/USB/Class/Common/HIDParser.c **** 			                       ((uint16_t)ReportData[1] << 8)  | ReportData[0]);
 375               		.loc 1 64 21 is_stmt 0 view .LVU52
 376 019a E796      		adiw r28,117-62
 377 019c AEAD      		ldd r26,Y+62
 378 019e BFAD      		ldd r27,Y+63
 379 01a0 E797      		sbiw r28,117-62
 380               	.LVL20:
  64:./tmk_core/protocol/lufa/LUFA-git/LUFA/Drivers/USB/Class/Common/HIDParser.c **** 			                       ((uint16_t)ReportData[1] << 8)  | ReportData[0]);
 381               		.loc 1 64 21 view .LVU53
 382 01a2 1196      		adiw r26,1
 383 01a4 4D90      		ld r4,X+
 384 01a6 5D90      		ld r5,X+
 385 01a8 6D90      		ld r6,X+
 386 01aa 7C90      		ld r7,X
 387 01ac 1497      		sbiw r26,1+3
 388               	.LVL21:
  66:./tmk_core/protocol/lufa/LUFA-git/LUFA/Drivers/USB/Class/Common/HIDParser.c **** 				ReportData     += 4;
 389               		.loc 1 66 5 is_stmt 1 view .LVU54
  66:./tmk_core/protocol/lufa/LUFA-git/LUFA/Drivers/USB/Class/Common/HIDParser.c **** 				ReportData     += 4;
 390               		.loc 1 66 20 is_stmt 0 view .LVU55
 391 01ae EB96      		adiw r28,121-62
 392 01b0 EEAD      		ldd r30,Y+62
 393 01b2 FFAD      		ldd r31,Y+63
 394 01b4 EB97      		sbiw r28,121-62
 395 01b6 3597      		sbiw r30,5
 396 01b8 EB96      		adiw r28,121-62
 397 01ba FFAF      		std Y+63,r31
 398 01bc EEAF      		std Y+62,r30
 399 01be EB97      		sbiw r28,121-62
 400               	.LVL22:
  67:./tmk_core/protocol/lufa/LUFA-git/LUFA/Drivers/USB/Class/Common/HIDParser.c **** 				break;
 401               		.loc 1 67 5 is_stmt 1 view .LVU56
  67:./tmk_core/protocol/lufa/LUFA-git/LUFA/Drivers/USB/Class/Common/HIDParser.c **** 				break;
 402               		.loc 1 67 20 is_stmt 0 view .LVU57
 403 01c0 1596      		adiw r26,5
 404               	.LVL23:
 405               	.L81:
  79:./tmk_core/protocol/lufa/LUFA-git/LUFA/Drivers/USB/Class/Common/HIDParser.c **** 				break;
 406               		.loc 1 79 20 view .LVU58
 407 01c2 E796      		adiw r28,117-62
 408 01c4 BFAF      		std Y+63,r27
 409 01c6 AEAF      		std Y+62,r26
 410 01c8 E797      		sbiw r28,117-62
 411               	.LVL24:
  80:./tmk_core/protocol/lufa/LUFA-git/LUFA/Drivers/USB/Class/Common/HIDParser.c **** 
 412               		.loc 1 80 5 is_stmt 1 view .LVU59
 413 01ca 00C0      		rjmp .L6
 414               	.LVL25:
 415               	.L3:
  71:./tmk_core/protocol/lufa/LUFA-git/LUFA/Drivers/USB/Class/Common/HIDParser.c **** 				ReportSize     -= 2;
 416               		.loc 1 71 5 view .LVU60
  71:./tmk_core/protocol/lufa/LUFA-git/LUFA/Drivers/USB/Class/Common/HIDParser.c **** 				ReportSize     -= 2;
 417               		.loc 1 71 21 is_stmt 0 view .LVU61
 418 01cc E796      		adiw r28,117-62
 419 01ce AEAD      		ldd r26,Y+62
 420 01d0 BFAD      		ldd r27,Y+63
 421 01d2 E797      		sbiw r28,117-62
 422               	.LVL26:
  71:./tmk_core/protocol/lufa/LUFA-git/LUFA/Drivers/USB/Class/Common/HIDParser.c **** 				ReportSize     -= 2;
 423               		.loc 1 71 21 view .LVU62
 424 01d4 1196      		adiw r26,1
 425 01d6 4D90      		ld r4,X+
 426 01d8 5C90      		ld r5,X
 427 01da 1297      		sbiw r26,1+1
 428 01dc 612C      		mov r6,__zero_reg__
 429 01de 712C      		mov r7,__zero_reg__
 430               	.LVL27:
  72:./tmk_core/protocol/lufa/LUFA-git/LUFA/Drivers/USB/Class/Common/HIDParser.c **** 				ReportData     += 2;
 431               		.loc 1 72 5 is_stmt 1 view .LVU63
  72:./tmk_core/protocol/lufa/LUFA-git/LUFA/Drivers/USB/Class/Common/HIDParser.c **** 				ReportData     += 2;
 432               		.loc 1 72 20 is_stmt 0 view .LVU64
 433 01e0 EB96      		adiw r28,121-62
 434 01e2 EEAD      		ldd r30,Y+62
 435 01e4 FFAD      		ldd r31,Y+63
 436 01e6 EB97      		sbiw r28,121-62
 437 01e8 3397      		sbiw r30,3
 438 01ea EB96      		adiw r28,121-62
 439 01ec FFAF      		std Y+63,r31
 440 01ee EEAF      		std Y+62,r30
 441 01f0 EB97      		sbiw r28,121-62
 442               	.LVL28:
  73:./tmk_core/protocol/lufa/LUFA-git/LUFA/Drivers/USB/Class/Common/HIDParser.c **** 				break;
 443               		.loc 1 73 5 is_stmt 1 view .LVU65
  73:./tmk_core/protocol/lufa/LUFA-git/LUFA/Drivers/USB/Class/Common/HIDParser.c **** 				break;
 444               		.loc 1 73 20 is_stmt 0 view .LVU66
 445 01f2 1396      		adiw r26,3
 446 01f4 00C0      		rjmp .L81
 447               	.LVL29:
 448               	.L5:
  77:./tmk_core/protocol/lufa/LUFA-git/LUFA/Drivers/USB/Class/Common/HIDParser.c **** 				ReportSize     -= 1;
 449               		.loc 1 77 5 is_stmt 1 view .LVU67
  77:./tmk_core/protocol/lufa/LUFA-git/LUFA/Drivers/USB/Class/Common/HIDParser.c **** 				ReportSize     -= 1;
 450               		.loc 1 77 21 is_stmt 0 view .LVU68
 451 01f6 E796      		adiw r28,117-62
 452 01f8 AEAD      		ldd r26,Y+62
 453 01fa BFAD      		ldd r27,Y+63
 454 01fc E797      		sbiw r28,117-62
 455               	.LVL30:
  77:./tmk_core/protocol/lufa/LUFA-git/LUFA/Drivers/USB/Class/Common/HIDParser.c **** 				ReportSize     -= 1;
 456               		.loc 1 77 21 view .LVU69
 457 01fe 1196      		adiw r26,1
 458 0200 4C90      		ld r4,X
 459 0202 1197      		sbiw r26,1
 460 0204 512C      		mov r5,__zero_reg__
 461 0206 612C      		mov r6,__zero_reg__
 462 0208 712C      		mov r7,__zero_reg__
 463               	.LVL31:
  78:./tmk_core/protocol/lufa/LUFA-git/LUFA/Drivers/USB/Class/Common/HIDParser.c **** 				ReportData     += 1;
 464               		.loc 1 78 5 is_stmt 1 view .LVU70
  78:./tmk_core/protocol/lufa/LUFA-git/LUFA/Drivers/USB/Class/Common/HIDParser.c **** 				ReportData     += 1;
 465               		.loc 1 78 20 is_stmt 0 view .LVU71
 466 020a EB96      		adiw r28,121-62
 467 020c EEAD      		ldd r30,Y+62
 468 020e FFAD      		ldd r31,Y+63
 469 0210 EB97      		sbiw r28,121-62
 470 0212 3297      		sbiw r30,2
 471 0214 EB96      		adiw r28,121-62
 472 0216 FFAF      		std Y+63,r31
 473 0218 EEAF      		std Y+62,r30
 474 021a EB97      		sbiw r28,121-62
 475               	.LVL32:
  79:./tmk_core/protocol/lufa/LUFA-git/LUFA/Drivers/USB/Class/Common/HIDParser.c **** 				break;
 476               		.loc 1 79 5 is_stmt 1 view .LVU72
  79:./tmk_core/protocol/lufa/LUFA-git/LUFA/Drivers/USB/Class/Common/HIDParser.c **** 				break;
 477               		.loc 1 79 20 is_stmt 0 view .LVU73
 478 021c 1296      		adiw r26,2
 479 021e 00C0      		rjmp .L81
 480               	.LVL33:
 481               	.L12:
  87:./tmk_core/protocol/lufa/LUFA-git/LUFA/Drivers/USB/Class/Common/HIDParser.c **** 		{
 482               		.loc 1 87 3 view .LVU74
 483 0220 0831      		cpi r16,lo8(24)
 484 0222 01F0      		breq .+2
 485 0224 00C0      		rjmp .L15
 486               	.LVL34:
 185:./tmk_core/protocol/lufa/LUFA-git/LUFA/Drivers/USB/Class/Common/HIDParser.c **** 				break;
 487               		.loc 1 185 25 view .LVU75
 488 0226 7301      		movw r14,r6
 489 0228 6201      		movw r12,r4
 490 022a 00C0      		rjmp .L2
 491               	.LVL35:
 492               	.L10:
  87:./tmk_core/protocol/lufa/LUFA-git/LUFA/Drivers/USB/Class/Common/HIDParser.c **** 		{
 493               		.loc 1 87 3 view .LVU76
 494 022c 0434      		cpi r16,lo8(68)
 495 022e 01F4      		brne .+2
 496 0230 00C0      		rjmp .L17
 497 0232 00F4      		brsh .L18
 498 0234 0832      		cpi r16,lo8(40)
 499 0236 01F4      		brne .+2
 500 0238 00C0      		rjmp .L57
 501 023a 0433      		cpi r16,lo8(52)
 502 023c 01F0      		breq .+2
 503 023e 00C0      		rjmp .L15
 123:./tmk_core/protocol/lufa/LUFA-git/LUFA/Drivers/USB/Class/Common/HIDParser.c **** 				break;
 504               		.loc 1 123 5 is_stmt 1 view .LVU77
 123:./tmk_core/protocol/lufa/LUFA-git/LUFA/Drivers/USB/Class/Common/HIDParser.c **** 				break;
 505               		.loc 1 123 49 is_stmt 0 view .LVU78
 506 0240 E596      		adiw r28,115-62
 507 0242 AEAD      		ldd r26,Y+62
 508 0244 BFAD      		ldd r27,Y+63
 509 0246 E597      		sbiw r28,115-62
 510 0248 5296      		adiw r26,18
 511 024a 4D92      		st X+,r4
 512 024c 5D92      		st X+,r5
 513 024e 6D92      		st X+,r6
 514 0250 7C92      		st X,r7
 515 0252 5597      		sbiw r26,18+3
 124:./tmk_core/protocol/lufa/LUFA-git/LUFA/Drivers/USB/Class/Common/HIDParser.c **** 
 516               		.loc 1 124 5 is_stmt 1 view .LVU79
 517               	.LVL36:
 300:./tmk_core/protocol/lufa/LUFA-git/LUFA/Drivers/USB/Class/Common/HIDParser.c **** 		{
 518               		.loc 1 300 3 view .LVU80
 519 0254 00C0      		rjmp .L2
 520               	.LVL37:
 521               	.L18:
  87:./tmk_core/protocol/lufa/LUFA-git/LUFA/Drivers/USB/Class/Common/HIDParser.c **** 		{
 522               		.loc 1 87 3 is_stmt 0 view .LVU81
 523 0256 0435      		cpi r16,lo8(84)
 524 0258 01F0      		breq .+2
 525 025a 00C0      		rjmp .L15
 131:./tmk_core/protocol/lufa/LUFA-git/LUFA/Drivers/USB/Class/Common/HIDParser.c **** 				break;
 526               		.loc 1 131 5 is_stmt 1 view .LVU82
 131:./tmk_core/protocol/lufa/LUFA-git/LUFA/Drivers/USB/Class/Common/HIDParser.c **** 				break;
 527               		.loc 1 131 49 is_stmt 0 view .LVU83
 528 025c E596      		adiw r28,115-62
 529 025e AEAD      		ldd r26,Y+62
 530 0260 BFAD      		ldd r27,Y+63
 531 0262 E597      		sbiw r28,115-62
 532 0264 1996      		adiw r26,9
 533 0266 4C92      		st X,r4
 132:./tmk_core/protocol/lufa/LUFA-git/LUFA/Drivers/USB/Class/Common/HIDParser.c **** 
 534               		.loc 1 132 5 is_stmt 1 view .LVU84
 535               	.LVL38:
 300:./tmk_core/protocol/lufa/LUFA-git/LUFA/Drivers/USB/Class/Common/HIDParser.c **** 		{
 536               		.loc 1 300 3 view .LVU85
 537 0268 00C0      		rjmp .L2
 538               	.LVL39:
 539               	.L8:
  87:./tmk_core/protocol/lufa/LUFA-git/LUFA/Drivers/USB/Class/Common/HIDParser.c **** 		{
 540               		.loc 1 87 3 is_stmt 0 view .LVU86
 541 026a 003A      		cpi r16,lo8(-96)
 542 026c 01F4      		brne .+2
 543 026e 00C0      		rjmp .L21
 544 0270 00F4      		brsh .L22
 545 0272 0438      		cpi r16,lo8(-124)
 546 0274 01F4      		brne .+2
 547 0276 00C0      		rjmp .L23
 548 0278 00F4      		brsh .L24
 549 027a 0437      		cpi r16,lo8(116)
 550 027c 01F4      		brne .+2
 551 027e 00C0      		rjmp .L25
 552 0280 0038      		cpi r16,lo8(-128)
 553 0282 01F0      		breq .+2
 554 0284 00C0      		rjmp .L15
 555               	.L60:
 556 0286 EE96      		adiw r28,125-63
 557 0288 1FAE      		std Y+63,__zero_reg__
 558 028a EE97      		sbiw r28,125-63
 559 028c 00C0      		rjmp .L52
 560               	.L24:
 561 028e 0039      		cpi r16,lo8(-112)
 562 0290 01F0      		breq .L60
 563 0292 0439      		cpi r16,lo8(-108)
 564 0294 01F0      		breq .+2
 565 0296 00C0      		rjmp .L2
 143:./tmk_core/protocol/lufa/LUFA-git/LUFA/Drivers/USB/Class/Common/HIDParser.c **** 				break;
 566               		.loc 1 143 5 is_stmt 1 view .LVU87
 143:./tmk_core/protocol/lufa/LUFA-git/LUFA/Drivers/USB/Class/Common/HIDParser.c **** 				break;
 567               		.loc 1 143 49 is_stmt 0 view .LVU88
 568 0298 E596      		adiw r28,115-62
 569 029a EEAD      		ldd r30,Y+62
 570 029c FFAD      		ldd r31,Y+63
 571 029e E597      		sbiw r28,115-62
 572 02a0 428E      		std Z+26,r4
 144:./tmk_core/protocol/lufa/LUFA-git/LUFA/Drivers/USB/Class/Common/HIDParser.c **** 
 573               		.loc 1 144 5 is_stmt 1 view .LVU89
 574               	.LVL40:
 300:./tmk_core/protocol/lufa/LUFA-git/LUFA/Drivers/USB/Class/Common/HIDParser.c **** 		{
 575               		.loc 1 300 3 view .LVU90
 576 02a2 00C0      		rjmp .L2
 577               	.LVL41:
 578               	.L22:
  87:./tmk_core/protocol/lufa/LUFA-git/LUFA/Drivers/USB/Class/Common/HIDParser.c **** 		{
 579               		.loc 1 87 3 is_stmt 0 view .LVU91
 580 02a4 043B      		cpi r16,lo8(-76)
 581 02a6 01F0      		breq .L29
 582 02a8 00F4      		brsh .L30
 583 02aa 043A      		cpi r16,lo8(-92)
 584 02ac 01F0      		breq .L31
 585 02ae 003B      		cpi r16,lo8(-80)
 586 02b0 01F0      		breq .L60
 587 02b2 00C0      		rjmp .L2
 588               	.L30:
 589 02b4 003C      		cpi r16,lo8(-64)
 590 02b6 01F0      		breq .+2
 591 02b8 00C0      		rjmp .L15
 234:./tmk_core/protocol/lufa/LUFA-git/LUFA/Drivers/USB/Class/Common/HIDParser.c **** 				  return HID_PARSE_UnexpectedEndCollection;
 592               		.loc 1 234 5 is_stmt 1 view .LVU92
 234:./tmk_core/protocol/lufa/LUFA-git/LUFA/Drivers/USB/Class/Common/HIDParser.c **** 				  return HID_PARSE_UnexpectedEndCollection;
 593               		.loc 1 234 8 is_stmt 0 view .LVU93
 594 02ba E996      		adiw r28,119-62
 595 02bc 2EAD      		ldd r18,Y+62
 596 02be 3FAD      		ldd r19,Y+63
 597 02c0 E997      		sbiw r28,119-62
 598 02c2 2115      		cp r18,__zero_reg__
 599 02c4 3105      		cpc r19,__zero_reg__
 600 02c6 01F4      		brne .+2
 601 02c8 00C0      		rjmp .L68
 237:./tmk_core/protocol/lufa/LUFA-git/LUFA/Drivers/USB/Class/Common/HIDParser.c **** 				break;
 602               		.loc 1 237 5 is_stmt 1 view .LVU94
 237:./tmk_core/protocol/lufa/LUFA-git/LUFA/Drivers/USB/Class/Common/HIDParser.c **** 				break;
 603               		.loc 1 237 24 is_stmt 0 view .LVU95
 604 02ca D901      		movw r26,r18
 605 02cc 1596      		adiw r26,5
 606 02ce 0D90      		ld __tmp_reg__,X+
 607 02d0 BC91      		ld r27,X
 608 02d2 A02D      		mov r26,__tmp_reg__
 609 02d4 E996      		adiw r28,119-62
 610 02d6 BFAF      		std Y+63,r27
 611 02d8 AEAF      		std Y+62,r26
 612 02da E997      		sbiw r28,119-62
 237:./tmk_core/protocol/lufa/LUFA-git/LUFA/Drivers/USB/Class/Common/HIDParser.c **** 				break;
 613               		.loc 1 237 24 view .LVU96
 614 02dc 00C0      		rjmp .L82
 615               	.L31:
  90:./tmk_core/protocol/lufa/LUFA-git/LUFA/Drivers/USB/Class/Common/HIDParser.c **** 				  return HID_PARSE_HIDStackOverflow;
 616               		.loc 1 90 5 is_stmt 1 view .LVU97
  90:./tmk_core/protocol/lufa/LUFA-git/LUFA/Drivers/USB/Class/Common/HIDParser.c **** 				  return HID_PARSE_HIDStackOverflow;
 617               		.loc 1 90 8 is_stmt 0 view .LVU98
 618 02de CE01      		movw r24,r28
 619 02e0 4D96      		adiw r24,29
 620 02e2 E596      		adiw r28,115-62
 621 02e4 2EAD      		ldd r18,Y+62
 622 02e6 3FAD      		ldd r19,Y+63
 623 02e8 E597      		sbiw r28,115-62
 624 02ea 2817      		cp r18,r24
 625 02ec 3907      		cpc r19,r25
 626 02ee 01F4      		brne .+2
 627 02f0 00C0      		rjmp .L61
  93:./tmk_core/protocol/lufa/LUFA-git/LUFA/Drivers/USB/Class/Common/HIDParser.c **** 				       CurrStateTable,
 628               		.loc 1 93 5 is_stmt 1 view .LVU99
  93:./tmk_core/protocol/lufa/LUFA-git/LUFA/Drivers/USB/Class/Common/HIDParser.c **** 				       CurrStateTable,
 629               		.loc 1 93 28 is_stmt 0 view .LVU100
 630 02f2 C901      		movw r24,r18
 631 02f4 4C96      		adiw r24,28
  93:./tmk_core/protocol/lufa/LUFA-git/LUFA/Drivers/USB/Class/Common/HIDParser.c **** 				       CurrStateTable,
 632               		.loc 1 93 5 view .LVU101
 633 02f6 2AE2      		ldi r18,lo8(42)
 634 02f8 E596      		adiw r28,115-62
 635 02fa EEAD      		ldd r30,Y+62
 636 02fc FFAD      		ldd r31,Y+63
 637 02fe E597      		sbiw r28,115-62
 638 0300 DC01      		movw r26,r24
 639               		0:
 640 0302 0190      		ld r0,Z+
 641 0304 0D92      		st X+,r0
 642 0306 2A95      		dec r18
 643 0308 01F4      		brne 0b
  97:./tmk_core/protocol/lufa/LUFA-git/LUFA/Drivers/USB/Class/Common/HIDParser.c **** 				break;
 644               		.loc 1 97 5 is_stmt 1 view .LVU102
 645               	.LVL42:
  98:./tmk_core/protocol/lufa/LUFA-git/LUFA/Drivers/USB/Class/Common/HIDParser.c **** 
 646               		.loc 1 98 5 view .LVU103
 300:./tmk_core/protocol/lufa/LUFA-git/LUFA/Drivers/USB/Class/Common/HIDParser.c **** 		{
 647               		.loc 1 300 3 view .LVU104
  97:./tmk_core/protocol/lufa/LUFA-git/LUFA/Drivers/USB/Class/Common/HIDParser.c **** 				break;
 648               		.loc 1 97 19 is_stmt 0 view .LVU105
 649 030a E596      		adiw r28,115-62
 650 030c 9FAF      		std Y+63,r25
 651 030e 8EAF      		std Y+62,r24
 652 0310 E597      		sbiw r28,115-62
 653 0312 00C0      		rjmp .L2
 654               	.LVL43:
 655               	.L29:
 101:./tmk_core/protocol/lufa/LUFA-git/LUFA/Drivers/USB/Class/Common/HIDParser.c **** 				  return HID_PARSE_HIDStackUnderflow;
 656               		.loc 1 101 5 is_stmt 1 view .LVU106
 101:./tmk_core/protocol/lufa/LUFA-git/LUFA/Drivers/USB/Class/Common/HIDParser.c **** 				  return HID_PARSE_HIDStackUnderflow;
 657               		.loc 1 101 8 is_stmt 0 view .LVU107
 658 0314 CE01      		movw r24,r28
 659 0316 0196      		adiw r24,1
 660 0318 E596      		adiw r28,115-62
 661 031a AEAD      		ldd r26,Y+62
 662 031c BFAD      		ldd r27,Y+63
 663 031e E597      		sbiw r28,115-62
 664 0320 8A17      		cp r24,r26
 665 0322 9B07      		cpc r25,r27
 666 0324 01F4      		brne .+2
 667 0326 00C0      		rjmp .L62
 104:./tmk_core/protocol/lufa/LUFA-git/LUFA/Drivers/USB/Class/Common/HIDParser.c **** 				break;
 668               		.loc 1 104 5 is_stmt 1 view .LVU108
 104:./tmk_core/protocol/lufa/LUFA-git/LUFA/Drivers/USB/Class/Common/HIDParser.c **** 				break;
 669               		.loc 1 104 19 is_stmt 0 view .LVU109
 670 0328 5C97      		sbiw r26,28
 671 032a E596      		adiw r28,115-62
 672 032c BFAF      		std Y+63,r27
 673 032e AEAF      		std Y+62,r26
 674 0330 E597      		sbiw r28,115-62
 675               	.LVL44:
 105:./tmk_core/protocol/lufa/LUFA-git/LUFA/Drivers/USB/Class/Common/HIDParser.c **** 
 676               		.loc 1 105 5 is_stmt 1 view .LVU110
 300:./tmk_core/protocol/lufa/LUFA-git/LUFA/Drivers/USB/Class/Common/HIDParser.c **** 		{
 677               		.loc 1 300 3 view .LVU111
 678 0332 00C0      		rjmp .L2
 679               	.LVL45:
 680               	.L13:
 108:./tmk_core/protocol/lufa/LUFA-git/LUFA/Drivers/USB/Class/Common/HIDParser.c **** 				  CurrStateTable->Attributes.Usage.Page = (ReportItemData >> 16);
 681               		.loc 1 108 5 view .LVU112
 111:./tmk_core/protocol/lufa/LUFA-git/LUFA/Drivers/USB/Class/Common/HIDParser.c **** 				break;
 682               		.loc 1 111 5 view .LVU113
 111:./tmk_core/protocol/lufa/LUFA-git/LUFA/Drivers/USB/Class/Common/HIDParser.c **** 				break;
 683               		.loc 1 111 49 is_stmt 0 view .LVU114
 684 0334 E596      		adiw r28,115-62
 685 0336 EEAD      		ldd r30,Y+62
 686 0338 FFAD      		ldd r31,Y+63
 687 033a E597      		sbiw r28,115-62
 688 033c 5282      		std Z+2,r5
 689 033e 4182      		std Z+1,r4
 112:./tmk_core/protocol/lufa/LUFA-git/LUFA/Drivers/USB/Class/Common/HIDParser.c **** 
 690               		.loc 1 112 5 is_stmt 1 view .LVU115
 691               	.LVL46:
 300:./tmk_core/protocol/lufa/LUFA-git/LUFA/Drivers/USB/Class/Common/HIDParser.c **** 		{
 692               		.loc 1 300 3 view .LVU116
 693 0340 00C0      		rjmp .L2
 694               	.LVL47:
 695               	.L11:
 115:./tmk_core/protocol/lufa/LUFA-git/LUFA/Drivers/USB/Class/Common/HIDParser.c **** 				break;
 696               		.loc 1 115 5 view .LVU117
 115:./tmk_core/protocol/lufa/LUFA-git/LUFA/Drivers/USB/Class/Common/HIDParser.c **** 				break;
 697               		.loc 1 115 49 is_stmt 0 view .LVU118
 698 0342 E596      		adiw r28,115-62
 699 0344 AEAD      		ldd r26,Y+62
 700 0346 BFAD      		ldd r27,Y+63
 701 0348 E597      		sbiw r28,115-62
 702 034a 1A96      		adiw r26,10
 703 034c 4D92      		st X+,r4
 704 034e 5D92      		st X+,r5
 705 0350 6D92      		st X+,r6
 706 0352 7C92      		st X,r7
 707 0354 1D97      		sbiw r26,10+3
 116:./tmk_core/protocol/lufa/LUFA-git/LUFA/Drivers/USB/Class/Common/HIDParser.c **** 
 708               		.loc 1 116 5 is_stmt 1 view .LVU119
 709               	.LVL48:
 300:./tmk_core/protocol/lufa/LUFA-git/LUFA/Drivers/USB/Class/Common/HIDParser.c **** 		{
 710               		.loc 1 300 3 view .LVU120
 711 0356 00C0      		rjmp .L2
 712               	.LVL49:
 713               	.L9:
 119:./tmk_core/protocol/lufa/LUFA-git/LUFA/Drivers/USB/Class/Common/HIDParser.c **** 				break;
 714               		.loc 1 119 5 view .LVU121
 119:./tmk_core/protocol/lufa/LUFA-git/LUFA/Drivers/USB/Class/Common/HIDParser.c **** 				break;
 715               		.loc 1 119 49 is_stmt 0 view .LVU122
 716 0358 E596      		adiw r28,115-62
 717 035a EEAD      		ldd r30,Y+62
 718 035c FFAD      		ldd r31,Y+63
 719 035e E597      		sbiw r28,115-62
 720 0360 4686      		std Z+14,r4
 721 0362 5786      		std Z+15,r5
 722 0364 608A      		std Z+16,r6
 723 0366 718A      		std Z+17,r7
 120:./tmk_core/protocol/lufa/LUFA-git/LUFA/Drivers/USB/Class/Common/HIDParser.c **** 
 724               		.loc 1 120 5 is_stmt 1 view .LVU123
 725               	.LVL50:
 300:./tmk_core/protocol/lufa/LUFA-git/LUFA/Drivers/USB/Class/Common/HIDParser.c **** 		{
 726               		.loc 1 300 3 view .LVU124
 727 0368 00C0      		rjmp .L2
 728               	.LVL51:
 729               	.L17:
 127:./tmk_core/protocol/lufa/LUFA-git/LUFA/Drivers/USB/Class/Common/HIDParser.c **** 				break;
 730               		.loc 1 127 5 view .LVU125
 127:./tmk_core/protocol/lufa/LUFA-git/LUFA/Drivers/USB/Class/Common/HIDParser.c **** 				break;
 731               		.loc 1 127 49 is_stmt 0 view .LVU126
 732 036a E596      		adiw r28,115-62
 733 036c EEAD      		ldd r30,Y+62
 734 036e FFAD      		ldd r31,Y+63
 735 0370 E597      		sbiw r28,115-62
 736 0372 468A      		std Z+22,r4
 737 0374 578A      		std Z+23,r5
 738 0376 608E      		std Z+24,r6
 739 0378 718E      		std Z+25,r7
 128:./tmk_core/protocol/lufa/LUFA-git/LUFA/Drivers/USB/Class/Common/HIDParser.c **** 
 740               		.loc 1 128 5 is_stmt 1 view .LVU127
 741               	.LVL52:
 300:./tmk_core/protocol/lufa/LUFA-git/LUFA/Drivers/USB/Class/Common/HIDParser.c **** 		{
 742               		.loc 1 300 3 view .LVU128
 743 037a 00C0      		rjmp .L2
 744               	.LVL53:
 745               	.L7:
 135:./tmk_core/protocol/lufa/LUFA-git/LUFA/Drivers/USB/Class/Common/HIDParser.c **** 				break;
 746               		.loc 1 135 5 view .LVU129
 135:./tmk_core/protocol/lufa/LUFA-git/LUFA/Drivers/USB/Class/Common/HIDParser.c **** 				break;
 747               		.loc 1 135 49 is_stmt 0 view .LVU130
 748 037c E596      		adiw r28,115-62
 749 037e EEAD      		ldd r30,Y+62
 750 0380 FFAD      		ldd r31,Y+63
 751 0382 E597      		sbiw r28,115-62
 752 0384 4582      		std Z+5,r4
 753 0386 5682      		std Z+6,r5
 754 0388 6782      		std Z+7,r6
 755 038a 7086      		std Z+8,r7
 136:./tmk_core/protocol/lufa/LUFA-git/LUFA/Drivers/USB/Class/Common/HIDParser.c **** 
 756               		.loc 1 136 5 is_stmt 1 view .LVU131
 757               	.LVL54:
 300:./tmk_core/protocol/lufa/LUFA-git/LUFA/Drivers/USB/Class/Common/HIDParser.c **** 		{
 758               		.loc 1 300 3 view .LVU132
 759 038c 00C0      		rjmp .L2
 760               	.LVL55:
 761               	.L25:
 139:./tmk_core/protocol/lufa/LUFA-git/LUFA/Drivers/USB/Class/Common/HIDParser.c **** 				break;
 762               		.loc 1 139 5 view .LVU133
 139:./tmk_core/protocol/lufa/LUFA-git/LUFA/Drivers/USB/Class/Common/HIDParser.c **** 				break;
 763               		.loc 1 139 49 is_stmt 0 view .LVU134
 764 038e E596      		adiw r28,115-62
 765 0390 AEAD      		ldd r26,Y+62
 766 0392 BFAD      		ldd r27,Y+63
 767 0394 E597      		sbiw r28,115-62
 768 0396 4C92      		st X,r4
 140:./tmk_core/protocol/lufa/LUFA-git/LUFA/Drivers/USB/Class/Common/HIDParser.c **** 
 769               		.loc 1 140 5 is_stmt 1 view .LVU135
 770               	.LVL56:
 300:./tmk_core/protocol/lufa/LUFA-git/LUFA/Drivers/USB/Class/Common/HIDParser.c **** 		{
 771               		.loc 1 300 3 view .LVU136
 772 0398 00C0      		rjmp .L2
 773               	.LVL57:
 774               	.L23:
 147:./tmk_core/protocol/lufa/LUFA-git/LUFA/Drivers/USB/Class/Common/HIDParser.c **** 
 775               		.loc 1 147 5 view .LVU137
 147:./tmk_core/protocol/lufa/LUFA-git/LUFA/Drivers/USB/Class/Common/HIDParser.c **** 
 776               		.loc 1 147 49 is_stmt 0 view .LVU138
 777 039a 742D      		mov r23,r4
 778 039c E596      		adiw r28,115-62
 779 039e AEAD      		ldd r26,Y+62
 780 03a0 BFAD      		ldd r27,Y+63
 781 03a2 E597      		sbiw r28,115-62
 782 03a4 5B96      		adiw r26,27
 783 03a6 4C92      		st X,r4
 149:./tmk_core/protocol/lufa/LUFA-git/LUFA/Drivers/USB/Class/Common/HIDParser.c **** 				{
 784               		.loc 1 149 5 is_stmt 1 view .LVU139
 149:./tmk_core/protocol/lufa/LUFA-git/LUFA/Drivers/USB/Class/Common/HIDParser.c **** 				{
 785               		.loc 1 149 19 is_stmt 0 view .LVU140
 786 03a8 D101      		movw r26,r2
 787 03aa A852      		subi r26,40
 788 03ac BC4F      		sbci r27,-4
 149:./tmk_core/protocol/lufa/LUFA-git/LUFA/Drivers/USB/Class/Common/HIDParser.c **** 				{
 789               		.loc 1 149 8 view .LVU141
 790 03ae 8C91      		ld r24,X
 791 03b0 8823      		tst r24
 792 03b2 01F0      		breq .L35
 793               	.LBB9:
 153:./tmk_core/protocol/lufa/LUFA-git/LUFA/Drivers/USB/Class/Common/HIDParser.c **** 					{
 794               		.loc 1 153 40 view .LVU142
 795 03b4 9101      		movw r18,r2
 796 03b6 2157      		subi r18,113
 797 03b8 3C4F      		sbci r19,-4
 798 03ba F901      		movw r30,r18
 799 03bc 6081      		ld r22,Z
 800 03be 3196      		adiw r30,1
 801 03c0 80E0      		ldi r24,0
 802 03c2 90E0      		ldi r25,0
 803               	.LVL58:
 804               	.L36:
 153:./tmk_core/protocol/lufa/LUFA-git/LUFA/Drivers/USB/Class/Common/HIDParser.c **** 					{
 805               		.loc 1 153 28 is_stmt 1 discriminator 1 view .LVU143
 806 03c4 8617      		cp r24,r22
 807 03c6 00F0      		brlo .L37
 808               	.LVL59:
 153:./tmk_core/protocol/lufa/LUFA-git/LUFA/Drivers/USB/Class/Common/HIDParser.c **** 					{
 809               		.loc 1 153 28 is_stmt 0 discriminator 1 view .LVU144
 810               	.LBE9:
 162:./tmk_core/protocol/lufa/LUFA-git/LUFA/Drivers/USB/Class/Common/HIDParser.c **** 					{
 811               		.loc 1 162 6 is_stmt 1 view .LVU145
 164:./tmk_core/protocol/lufa/LUFA-git/LUFA/Drivers/USB/Class/Common/HIDParser.c **** 						  return HID_PARSE_InsufficientReportIDItems;
 812               		.loc 1 164 7 view .LVU146
 164:./tmk_core/protocol/lufa/LUFA-git/LUFA/Drivers/USB/Class/Common/HIDParser.c **** 						  return HID_PARSE_InsufficientReportIDItems;
 813               		.loc 1 164 10 is_stmt 0 view .LVU147
 814 03c8 6A30      		cpi r22,lo8(10)
 815 03ca 01F4      		brne .+2
 816 03cc 00C0      		rjmp .L64
 167:./tmk_core/protocol/lufa/LUFA-git/LUFA/Drivers/USB/Class/Common/HIDParser.c **** 						memset(CurrReportIDInfo, 0x00, sizeof(HID_ReportSizeInfo_t));
 817               		.loc 1 167 7 is_stmt 1 view .LVU148
 167:./tmk_core/protocol/lufa/LUFA-git/LUFA/Drivers/USB/Class/Common/HIDParser.c **** 						memset(CurrReportIDInfo, 0x00, sizeof(HID_ReportSizeInfo_t));
 818               		.loc 1 167 83 is_stmt 0 view .LVU149
 819 03ce 81E0      		ldi r24,lo8(1)
 820               	.LVL60:
 167:./tmk_core/protocol/lufa/LUFA-git/LUFA/Drivers/USB/Class/Common/HIDParser.c **** 						memset(CurrReportIDInfo, 0x00, sizeof(HID_ReportSizeInfo_t));
 821               		.loc 1 167 83 view .LVU150
 822 03d0 860F      		add r24,r22
 823 03d2 F901      		movw r30,r18
 824 03d4 8083      		st Z,r24
 167:./tmk_core/protocol/lufa/LUFA-git/LUFA/Drivers/USB/Class/Common/HIDParser.c **** 						memset(CurrReportIDInfo, 0x00, sizeof(HID_ReportSizeInfo_t));
 825               		.loc 1 167 24 view .LVU151
 826 03d6 87E0      		ldi r24,lo8(7)
 827 03d8 9101      		movw r18,r2
 828 03da 869F      		mul r24,r22
 829 03dc 200D      		add r18,r0
 830 03de 311D      		adc r19,r1
 831 03e0 1124      		clr __zero_reg__
 832 03e2 F901      		movw r30,r18
 833 03e4 E057      		subi r30,112
 834 03e6 FC4F      		sbci r31,-4
 835 03e8 ED96      		adiw r28,123-62
 836 03ea FFAF      		std Y+63,r31
 837 03ec EEAF      		std Y+62,r30
 838 03ee ED97      		sbiw r28,123-62
 839               	.LVL61:
 168:./tmk_core/protocol/lufa/LUFA-git/LUFA/Drivers/USB/Class/Common/HIDParser.c **** 					}
 840               		.loc 1 168 7 is_stmt 1 view .LVU152
 841               		0:
 842 03f0 1192      		st Z+,__zero_reg__
 843 03f2 8A95      		dec r24
 844 03f4 01F4      		brne 0b
 845               	.LVL62:
 168:./tmk_core/protocol/lufa/LUFA-git/LUFA/Drivers/USB/Class/Common/HIDParser.c **** 					}
 846               		.loc 1 168 7 is_stmt 0 view .LVU153
 847 03f6 00C0      		rjmp .L35
 848               	.LVL63:
 849               	.L37:
 850               	.LBB10:
 155:./tmk_core/protocol/lufa/LUFA-git/LUFA/Drivers/USB/Class/Common/HIDParser.c **** 						{
 851               		.loc 1 155 7 is_stmt 1 view .LVU154
 155:./tmk_core/protocol/lufa/LUFA-git/LUFA/Drivers/USB/Class/Common/HIDParser.c **** 						{
 852               		.loc 1 155 39 is_stmt 0 view .LVU155
 853 03f8 0081      		ld r16,Z
 155:./tmk_core/protocol/lufa/LUFA-git/LUFA/Drivers/USB/Class/Common/HIDParser.c **** 						{
 854               		.loc 1 155 10 view .LVU156
 855 03fa AC01      		movw r20,r24
 856 03fc 4F5F      		subi r20,-1
 857 03fe 5F4F      		sbci r21,-1
 858 0400 3796      		adiw r30,7
 859 0402 7013      		cpse r23,r16
 860 0404 00C0      		rjmp .L63
 157:./tmk_core/protocol/lufa/LUFA-git/LUFA/Drivers/USB/Class/Common/HIDParser.c **** 							break;
 861               		.loc 1 157 8 is_stmt 1 view .LVU157
 157:./tmk_core/protocol/lufa/LUFA-git/LUFA/Drivers/USB/Class/Common/HIDParser.c **** 							break;
 862               		.loc 1 157 25 is_stmt 0 view .LVU158
 863 0406 47E0      		ldi r20,lo8(7)
 864 0408 489F      		mul r20,r24
 865 040a 9001      		movw r18,r0
 866 040c 499F      		mul r20,r25
 867 040e 300D      		add r19,r0
 868 0410 1124      		clr __zero_reg__
 869 0412 2057      		subi r18,112
 870 0414 3C4F      		sbci r19,-4
 871 0416 C101      		movw r24,r2
 872               	.LVL64:
 157:./tmk_core/protocol/lufa/LUFA-git/LUFA/Drivers/USB/Class/Common/HIDParser.c **** 							break;
 873               		.loc 1 157 25 view .LVU159
 874 0418 820F      		add r24,r18
 875 041a 931F      		adc r25,r19
 876 041c ED96      		adiw r28,123-62
 877 041e 9FAF      		std Y+63,r25
 878 0420 8EAF      		std Y+62,r24
 879 0422 ED97      		sbiw r28,123-62
 880               	.LVL65:
 158:./tmk_core/protocol/lufa/LUFA-git/LUFA/Drivers/USB/Class/Common/HIDParser.c **** 						}
 881               		.loc 1 158 8 is_stmt 1 view .LVU160
 158:./tmk_core/protocol/lufa/LUFA-git/LUFA/Drivers/USB/Class/Common/HIDParser.c **** 						}
 882               		.loc 1 158 8 is_stmt 0 view .LVU161
 883               	.LBE10:
 162:./tmk_core/protocol/lufa/LUFA-git/LUFA/Drivers/USB/Class/Common/HIDParser.c **** 					{
 884               		.loc 1 162 6 is_stmt 1 view .LVU162
 885               	.L35:
 172:./tmk_core/protocol/lufa/LUFA-git/LUFA/Drivers/USB/Class/Common/HIDParser.c **** 
 886               		.loc 1 172 5 view .LVU163
 172:./tmk_core/protocol/lufa/LUFA-git/LUFA/Drivers/USB/Class/Common/HIDParser.c **** 
 887               		.loc 1 172 32 is_stmt 0 view .LVU164
 888 0424 81E0      		ldi r24,lo8(1)
 889 0426 8C93      		st X,r24
 174:./tmk_core/protocol/lufa/LUFA-git/LUFA/Drivers/USB/Class/Common/HIDParser.c **** 				break;
 890               		.loc 1 174 5 is_stmt 1 view .LVU165
 174:./tmk_core/protocol/lufa/LUFA-git/LUFA/Drivers/USB/Class/Common/HIDParser.c **** 				break;
 891               		.loc 1 174 48 is_stmt 0 view .LVU166
 892 0428 E596      		adiw r28,115-62
 893 042a AEAD      		ldd r26,Y+62
 894 042c BFAD      		ldd r27,Y+63
 895 042e E597      		sbiw r28,115-62
 896 0430 5B96      		adiw r26,27
 897 0432 8C91      		ld r24,X
 174:./tmk_core/protocol/lufa/LUFA-git/LUFA/Drivers/USB/Class/Common/HIDParser.c **** 				break;
 898               		.loc 1 174 32 view .LVU167
 899 0434 ED96      		adiw r28,123-62
 900 0436 EEAD      		ldd r30,Y+62
 901 0438 FFAD      		ldd r31,Y+63
 902 043a ED97      		sbiw r28,123-62
 903               	.LVL66:
 174:./tmk_core/protocol/lufa/LUFA-git/LUFA/Drivers/USB/Class/Common/HIDParser.c **** 				break;
 904               		.loc 1 174 32 view .LVU168
 905 043c 8083      		st Z,r24
 175:./tmk_core/protocol/lufa/LUFA-git/LUFA/Drivers/USB/Class/Common/HIDParser.c **** 
 906               		.loc 1 175 5 is_stmt 1 view .LVU169
 907               	.LVL67:
 300:./tmk_core/protocol/lufa/LUFA-git/LUFA/Drivers/USB/Class/Common/HIDParser.c **** 		{
 908               		.loc 1 300 3 view .LVU170
 909 043e 00C0      		rjmp .L2
 910               	.LVL68:
 911               	.L63:
 912               	.LBB11:
 300:./tmk_core/protocol/lufa/LUFA-git/LUFA/Drivers/USB/Class/Common/HIDParser.c **** 		{
 913               		.loc 1 300 3 is_stmt 0 view .LVU171
 914 0440 CA01      		movw r24,r20
 915               	.LVL69:
 300:./tmk_core/protocol/lufa/LUFA-git/LUFA/Drivers/USB/Class/Common/HIDParser.c **** 		{
 916               		.loc 1 300 3 view .LVU172
 917 0442 00C0      		rjmp .L36
 918               	.LVL70:
 919               	.L14:
 300:./tmk_core/protocol/lufa/LUFA-git/LUFA/Drivers/USB/Class/Common/HIDParser.c **** 		{
 920               		.loc 1 300 3 view .LVU173
 921               	.LBE11:
 178:./tmk_core/protocol/lufa/LUFA-git/LUFA/Drivers/USB/Class/Common/HIDParser.c **** 				  return HID_PARSE_UsageListOverflow;
 922               		.loc 1 178 5 is_stmt 1 view .LVU174
 178:./tmk_core/protocol/lufa/LUFA-git/LUFA/Drivers/USB/Class/Common/HIDParser.c **** 				  return HID_PARSE_UsageListOverflow;
 923               		.loc 1 178 8 is_stmt 0 view .LVU175
 924 0444 1830      		cpi r17,lo8(8)
 925 0446 01F4      		brne .+2
 926 0448 00C0      		rjmp .L65
 181:./tmk_core/protocol/lufa/LUFA-git/LUFA/Drivers/USB/Class/Common/HIDParser.c **** 				break;
 927               		.loc 1 181 5 is_stmt 1 view .LVU176
 928               	.LVL71:
 181:./tmk_core/protocol/lufa/LUFA-git/LUFA/Drivers/USB/Class/Common/HIDParser.c **** 				break;
 929               		.loc 1 181 28 is_stmt 0 view .LVU177
 930 044a 812F      		mov r24,r17
 931 044c 90E0      		ldi r25,0
 181:./tmk_core/protocol/lufa/LUFA-git/LUFA/Drivers/USB/Class/Common/HIDParser.c **** 				break;
 932               		.loc 1 181 32 view .LVU178
 933 044e 880F      		lsl r24
 934 0450 991F      		rol r25
 935 0452 E3E6      		ldi r30,lo8(99)
 936 0454 F0E0      		ldi r31,0
 937 0456 EC0F      		add r30,r28
 938 0458 FD1F      		adc r31,r29
 939 045a E80F      		add r30,r24
 940 045c F91F      		adc r31,r25
 941 045e 5182      		std Z+1,r5
 942 0460 4082      		st Z,r4
 182:./tmk_core/protocol/lufa/LUFA-git/LUFA/Drivers/USB/Class/Common/HIDParser.c **** 
 943               		.loc 1 182 5 is_stmt 1 view .LVU179
 300:./tmk_core/protocol/lufa/LUFA-git/LUFA/Drivers/USB/Class/Common/HIDParser.c **** 		{
 944               		.loc 1 300 3 view .LVU180
 181:./tmk_core/protocol/lufa/LUFA-git/LUFA/Drivers/USB/Class/Common/HIDParser.c **** 				break;
 945               		.loc 1 181 28 is_stmt 0 view .LVU181
 946 0462 1F5F      		subi r17,lo8(-(1))
 947               	.LVL72:
 181:./tmk_core/protocol/lufa/LUFA-git/LUFA/Drivers/USB/Class/Common/HIDParser.c **** 				break;
 948               		.loc 1 181 28 view .LVU182
 949 0464 00C0      		rjmp .L2
 950               	.LVL73:
 951               	.L21:
 193:./tmk_core/protocol/lufa/LUFA-git/LUFA/Drivers/USB/Class/Common/HIDParser.c **** 				{
 952               		.loc 1 193 5 is_stmt 1 view .LVU183
 193:./tmk_core/protocol/lufa/LUFA-git/LUFA/Drivers/USB/Class/Common/HIDParser.c **** 				{
 953               		.loc 1 193 8 is_stmt 0 view .LVU184
 954 0466 E996      		adiw r28,119-62
 955 0468 2EAD      		ldd r18,Y+62
 956 046a 3FAD      		ldd r19,Y+63
 957 046c E997      		sbiw r28,119-62
 958 046e 232B      		or r18,r19
 959 0470 01F4      		brne .L38
 195:./tmk_core/protocol/lufa/LUFA-git/LUFA/Drivers/USB/Class/Common/HIDParser.c **** 				}
 960               		.loc 1 195 6 is_stmt 1 view .LVU185
 195:./tmk_core/protocol/lufa/LUFA-git/LUFA/Drivers/USB/Class/Common/HIDParser.c **** 				}
 961               		.loc 1 195 25 is_stmt 0 view .LVU186
 962 0472 C101      		movw r24,r2
 963 0474 875B      		subi r24,-73
 964 0476 9C4F      		sbci r25,-4
 965 0478 E996      		adiw r28,119-62
 966 047a 9FAF      		std Y+63,r25
 967 047c 8EAF      		std Y+62,r24
 968 047e E997      		sbiw r28,119-62
 969               	.LVL74:
 970               	.L39:
 214:./tmk_core/protocol/lufa/LUFA-git/LUFA/Drivers/USB/Class/Common/HIDParser.c **** 				CurrCollectionPath->Usage.Page = CurrStateTable->Attributes.Usage.Page;
 971               		.loc 1 214 5 is_stmt 1 view .LVU187
 214:./tmk_core/protocol/lufa/LUFA-git/LUFA/Drivers/USB/Class/Common/HIDParser.c **** 				CurrCollectionPath->Usage.Page = CurrStateTable->Attributes.Usage.Page;
 972               		.loc 1 214 36 is_stmt 0 view .LVU188
 973 0480 E996      		adiw r28,119-62
 974 0482 EEAD      		ldd r30,Y+62
 975 0484 FFAD      		ldd r31,Y+63
 976 0486 E997      		sbiw r28,119-62
 977               	.LVL75:
 214:./tmk_core/protocol/lufa/LUFA-git/LUFA/Drivers/USB/Class/Common/HIDParser.c **** 				CurrCollectionPath->Usage.Page = CurrStateTable->Attributes.Usage.Page;
 978               		.loc 1 214 36 view .LVU189
 979 0488 4082      		st Z,r4
 215:./tmk_core/protocol/lufa/LUFA-git/LUFA/Drivers/USB/Class/Common/HIDParser.c **** 
 980               		.loc 1 215 5 is_stmt 1 view .LVU190
 215:./tmk_core/protocol/lufa/LUFA-git/LUFA/Drivers/USB/Class/Common/HIDParser.c **** 
 981               		.loc 1 215 70 is_stmt 0 view .LVU191
 982 048a E596      		adiw r28,115-62
 983 048c AEAD      		ldd r26,Y+62
 984 048e BFAD      		ldd r27,Y+63
 985 0490 E597      		sbiw r28,115-62
 986 0492 1196      		adiw r26,1
 987 0494 8D91      		ld r24,X+
 988 0496 9C91      		ld r25,X
 215:./tmk_core/protocol/lufa/LUFA-git/LUFA/Drivers/USB/Class/Common/HIDParser.c **** 
 989               		.loc 1 215 36 view .LVU192
 990 0498 9283      		std Z+2,r25
 991 049a 8183      		std Z+1,r24
 217:./tmk_core/protocol/lufa/LUFA-git/LUFA/Drivers/USB/Class/Common/HIDParser.c **** 				{
 992               		.loc 1 217 5 is_stmt 1 view .LVU193
 217:./tmk_core/protocol/lufa/LUFA-git/LUFA/Drivers/USB/Class/Common/HIDParser.c **** 				{
 993               		.loc 1 217 8 is_stmt 0 view .LVU194
 994 049c 1123      		tst r17
 995 049e 01F0      		breq .L42
 219:./tmk_core/protocol/lufa/LUFA-git/LUFA/Drivers/USB/Class/Common/HIDParser.c **** 
 996               		.loc 1 219 6 is_stmt 1 view .LVU195
 219:./tmk_core/protocol/lufa/LUFA-git/LUFA/Drivers/USB/Class/Common/HIDParser.c **** 
 997               		.loc 1 219 38 is_stmt 0 view .LVU196
 998 04a0 BE01      		movw r22,r28
 999 04a2 6D59      		subi r22,-99
 1000 04a4 7F4F      		sbci r23,-1
 1001 04a6 FB01      		movw r30,r22
 1002               	.LVL76:
 219:./tmk_core/protocol/lufa/LUFA-git/LUFA/Drivers/USB/Class/Common/HIDParser.c **** 
 1003               		.loc 1 219 38 view .LVU197
 1004 04a8 8191      		ld r24,Z+
 1005 04aa 9191      		ld r25,Z+
 1006 04ac BF01      		movw r22,r30
 1007 04ae E996      		adiw r28,119-62
 1008 04b0 AEAD      		ldd r26,Y+62
 1009 04b2 BFAD      		ldd r27,Y+63
 1010 04b4 E997      		sbiw r28,119-62
 1011               	.LVL77:
 219:./tmk_core/protocol/lufa/LUFA-git/LUFA/Drivers/USB/Class/Common/HIDParser.c **** 
 1012               		.loc 1 219 38 view .LVU198
 1013 04b6 1496      		adiw r26,3+1
 1014 04b8 9C93      		st X,r25
 1015 04ba 8E93      		st -X,r24
 1016 04bc 1397      		sbiw r26,3
 221:./tmk_core/protocol/lufa/LUFA-git/LUFA/Drivers/USB/Class/Common/HIDParser.c **** 					  UsageList[i - 1] = UsageList[i];
 1017               		.loc 1 221 6 is_stmt 1 view .LVU199
 1018               	.LBB12:
 221:./tmk_core/protocol/lufa/LUFA-git/LUFA/Drivers/USB/Class/Common/HIDParser.c **** 					  UsageList[i - 1] = UsageList[i];
 1019               		.loc 1 221 11 view .LVU200
 1020               	.LVL78:
 222:./tmk_core/protocol/lufa/LUFA-git/LUFA/Drivers/USB/Class/Common/HIDParser.c **** 
 1021               		.loc 1 222 25 is_stmt 0 view .LVU201
 1022 04be 1150      		subi r17,lo8(-(-1))
 1023 04c0 412F      		mov r20,r17
 1024 04c2 50E0      		ldi r21,0
 1025 04c4 440F      		lsl r20
 1026 04c6 551F      		rol r21
 1027 04c8 CE01      		movw r24,r28
 1028 04ca 8D59      		subi r24,-99
 1029 04cc 9F4F      		sbci r25,-1
 1030 04ce 0E94 0000 		call memmove
 1031               	.LVL79:
 1032               	.L82:
 222:./tmk_core/protocol/lufa/LUFA-git/LUFA/Drivers/USB/Class/Common/HIDParser.c **** 
 1033               		.loc 1 222 25 view .LVU202
 1034               	.LBE12:
 238:./tmk_core/protocol/lufa/LUFA-git/LUFA/Drivers/USB/Class/Common/HIDParser.c **** 
 1035               		.loc 1 238 5 is_stmt 1 view .LVU203
 300:./tmk_core/protocol/lufa/LUFA-git/LUFA/Drivers/USB/Class/Common/HIDParser.c **** 		{
 1036               		.loc 1 300 3 view .LVU204
 303:./tmk_core/protocol/lufa/LUFA-git/LUFA/Drivers/USB/Class/Common/HIDParser.c **** 			UsageListSize       = 0;
 1037               		.loc 1 303 24 is_stmt 0 view .LVU205
 1038 04d2 812C      		mov r8,__zero_reg__
 1039 04d4 912C      		mov r9,__zero_reg__
 1040 04d6 5401      		movw r10,r8
 1041               	.LVL80:
 302:./tmk_core/protocol/lufa/LUFA-git/LUFA/Drivers/USB/Class/Common/HIDParser.c **** 			UsageMinMax.Maximum = 0;
 1042               		.loc 1 302 24 view .LVU206
 1043 04d8 C12C      		mov r12,__zero_reg__
 1044 04da D12C      		mov r13,__zero_reg__
 1045 04dc 7601      		movw r14,r12
 1046               	.LVL81:
 304:./tmk_core/protocol/lufa/LUFA-git/LUFA/Drivers/USB/Class/Common/HIDParser.c **** 		}
 1047               		.loc 1 304 24 view .LVU207
 1048 04de 10E0      		ldi r17,0
 1049 04e0 00C0      		rjmp .L2
 1050               	.LVL82:
 1051               	.L38:
 1052               	.LBB13:
 199:./tmk_core/protocol/lufa/LUFA-git/LUFA/Drivers/USB/Class/Common/HIDParser.c **** 
 1053               		.loc 1 199 6 is_stmt 1 view .LVU208
 201:./tmk_core/protocol/lufa/LUFA-git/LUFA/Drivers/USB/Class/Common/HIDParser.c **** 
 1054               		.loc 1 201 6 view .LVU209
 201:./tmk_core/protocol/lufa/LUFA-git/LUFA/Drivers/USB/Class/Common/HIDParser.c **** 
 1055               		.loc 1 201 25 is_stmt 0 view .LVU210
 1056 04e2 F101      		movw r30,r2
 1057 04e4 E05B      		subi r30,-80
 1058 04e6 FC4F      		sbci r31,-4
 1059               	.LVL83:
 203:./tmk_core/protocol/lufa/LUFA-git/LUFA/Drivers/USB/Class/Common/HIDParser.c **** 					{
 1060               		.loc 1 203 6 is_stmt 1 view .LVU211
 1061 04e8 9101      		movw r18,r2
 1062 04ea 2857      		subi r18,120
 1063 04ec 3C4F      		sbci r19,-4
 1064               	.L40:
 203:./tmk_core/protocol/lufa/LUFA-git/LUFA/Drivers/USB/Class/Common/HIDParser.c **** 					{
 1065               		.loc 1 203 40 view .LVU212
 1066 04ee 8581      		ldd r24,Z+5
 1067 04f0 9681      		ldd r25,Z+6
 1068 04f2 892B      		or r24,r25
 1069 04f4 01F4      		brne .L41
 211:./tmk_core/protocol/lufa/LUFA-git/LUFA/Drivers/USB/Class/Common/HIDParser.c **** 				}
 1070               		.loc 1 211 6 view .LVU213
 211:./tmk_core/protocol/lufa/LUFA-git/LUFA/Drivers/USB/Class/Common/HIDParser.c **** 				}
 1071               		.loc 1 211 33 is_stmt 0 view .LVU214
 1072 04f6 E996      		adiw r28,119-62
 1073 04f8 AEAD      		ldd r26,Y+62
 1074 04fa BFAD      		ldd r27,Y+63
 1075 04fc E997      		sbiw r28,119-62
 1076 04fe B683      		std Z+6,r27
 1077 0500 A583      		std Z+5,r26
 1078 0502 E996      		adiw r28,119-62
 1079 0504 FFAF      		std Y+63,r31
 1080 0506 EEAF      		std Y+62,r30
 1081 0508 E997      		sbiw r28,119-62
 1082               	.LVL84:
 211:./tmk_core/protocol/lufa/LUFA-git/LUFA/Drivers/USB/Class/Common/HIDParser.c **** 				}
 1083               		.loc 1 211 33 view .LVU215
 1084 050a 00C0      		rjmp .L39
 1085               	.LVL85:
 1086               	.L41:
 205:./tmk_core/protocol/lufa/LUFA-git/LUFA/Drivers/USB/Class/Common/HIDParser.c **** 						  return HID_PARSE_InsufficientCollectionPaths;
 1087               		.loc 1 205 7 is_stmt 1 view .LVU216
 205:./tmk_core/protocol/lufa/LUFA-git/LUFA/Drivers/USB/Class/Common/HIDParser.c **** 						  return HID_PARSE_InsufficientCollectionPaths;
 1088               		.loc 1 205 10 is_stmt 0 view .LVU217
 1089 050c E217      		cp r30,r18
 1090 050e F307      		cpc r31,r19
 1091 0510 01F4      		brne .+2
 1092 0512 00C0      		rjmp .L66
 208:./tmk_core/protocol/lufa/LUFA-git/LUFA/Drivers/USB/Class/Common/HIDParser.c **** 					}
 1093               		.loc 1 208 7 is_stmt 1 view .LVU218
 208:./tmk_core/protocol/lufa/LUFA-git/LUFA/Drivers/USB/Class/Common/HIDParser.c **** 					}
 1094               		.loc 1 208 25 is_stmt 0 view .LVU219
 1095 0514 3796      		adiw r30,7
 1096               	.LVL86:
 208:./tmk_core/protocol/lufa/LUFA-git/LUFA/Drivers/USB/Class/Common/HIDParser.c **** 					}
 1097               		.loc 1 208 25 view .LVU220
 1098 0516 00C0      		rjmp .L40
 1099               	.LVL87:
 1100               	.L42:
 208:./tmk_core/protocol/lufa/LUFA-git/LUFA/Drivers/USB/Class/Common/HIDParser.c **** 					}
 1101               		.loc 1 208 25 view .LVU221
 1102               	.LBE13:
 226:./tmk_core/protocol/lufa/LUFA-git/LUFA/Drivers/USB/Class/Common/HIDParser.c **** 				{
 1103               		.loc 1 226 10 is_stmt 1 view .LVU222
 226:./tmk_core/protocol/lufa/LUFA-git/LUFA/Drivers/USB/Class/Common/HIDParser.c **** 				{
 1104               		.loc 1 226 13 is_stmt 0 view .LVU223
 1105 0518 8C14      		cp r8,r12
 1106 051a 9D04      		cpc r9,r13
 1107 051c AE04      		cpc r10,r14
 1108 051e BF04      		cpc r11,r15
 1109 0520 00F4      		brsh .+2
 1110 0522 00C0      		rjmp .L67
 228:./tmk_core/protocol/lufa/LUFA-git/LUFA/Drivers/USB/Class/Common/HIDParser.c **** 				}
 1111               		.loc 1 228 6 is_stmt 1 view .LVU224
 228:./tmk_core/protocol/lufa/LUFA-git/LUFA/Drivers/USB/Class/Common/HIDParser.c **** 				}
 1112               		.loc 1 228 38 is_stmt 0 view .LVU225
 1113 0524 E996      		adiw r28,119-62
 1114 0526 EEAD      		ldd r30,Y+62
 1115 0528 FFAD      		ldd r31,Y+63
 1116 052a E997      		sbiw r28,119-62
 1117               	.LVL88:
 228:./tmk_core/protocol/lufa/LUFA-git/LUFA/Drivers/USB/Class/Common/HIDParser.c **** 				}
 1118               		.loc 1 228 38 view .LVU226
 1119 052c D482      		std Z+4,r13
 1120 052e C382      		std Z+3,r12
 1121               	.LVL89:
 300:./tmk_core/protocol/lufa/LUFA-git/LUFA/Drivers/USB/Class/Common/HIDParser.c **** 		{
 1122               		.loc 1 300 3 is_stmt 1 view .LVU227
 1123 0530 00C0      		rjmp .L82
 1124               	.LVL90:
 1125               	.L44:
 1126               	.LBB14:
 1127               	.LBB7:
 264:./tmk_core/protocol/lufa/LUFA-git/LUFA/Drivers/USB/Class/Common/HIDParser.c **** 					{
 1128               		.loc 1 264 11 view .LVU228
 264:./tmk_core/protocol/lufa/LUFA-git/LUFA/Drivers/USB/Class/Common/HIDParser.c **** 					{
 1129               		.loc 1 264 14 is_stmt 0 view .LVU229
 1130 0532 8C14      		cp r8,r12
 1131 0534 9D04      		cpc r9,r13
 1132 0536 AE04      		cpc r10,r14
 1133 0538 BF04      		cpc r11,r15
 1134 053a 00F4      		brsh .+2
 1135 053c 00C0      		rjmp .L45
 266:./tmk_core/protocol/lufa/LUFA-git/LUFA/Drivers/USB/Class/Common/HIDParser.c **** 					}
 1136               		.loc 1 266 7 is_stmt 1 view .LVU230
 1137               	.LVL91:
 266:./tmk_core/protocol/lufa/LUFA-git/LUFA/Drivers/USB/Class/Common/HIDParser.c **** 					}
 1138               		.loc 1 266 44 is_stmt 0 view .LVU231
 1139 053e 2696      		adiw r28,68-62
 1140 0540 DFAE      		std Y+63,r13
 1141 0542 CEAE      		std Y+62,r12
 1142 0544 2697      		sbiw r28,68-62
 266:./tmk_core/protocol/lufa/LUFA-git/LUFA/Drivers/USB/Class/Common/HIDParser.c **** 					}
 1143               		.loc 1 266 65 view .LVU232
 1144 0546 BFEF      		ldi r27,-1
 1145 0548 CB1A      		sub r12,r27
 1146 054a DB0A      		sbc r13,r27
 1147 054c EB0A      		sbc r14,r27
 1148 054e FB0A      		sbc r15,r27
 1149               	.LVL92:
 266:./tmk_core/protocol/lufa/LUFA-git/LUFA/Drivers/USB/Class/Common/HIDParser.c **** 					}
 1150               		.loc 1 266 65 view .LVU233
 1151 0550 00C0      		rjmp .L45
 1152               	.LVL93:
 1153               	.L48:
 287:./tmk_core/protocol/lufa/LUFA-git/LUFA/Drivers/USB/Class/Common/HIDParser.c **** 					       &NewReportItem, sizeof(HID_ReportItem_t));
 1154               		.loc 1 287 6 is_stmt 1 view .LVU234
 1155 0552 9101      		movw r18,r2
 1156 0554 8AE2      		ldi r24,lo8(42)
 1157 0556 8A9F      		mul r24,r26
 1158 0558 200D      		add r18,r0
 1159 055a 311D      		adc r19,r1
 1160 055c 1124      		clr __zero_reg__
 1161 055e D901      		movw r26,r18
 1162 0560 1196      		adiw r26,1
 1163 0562 FE01      		movw r30,r28
 1164 0564 F996      		adiw r30,57
 1165               		0:
 1166 0566 0190      		ld r0,Z+
 1167 0568 0D92      		st X+,r0
 1168 056a 8A95      		dec r24
 1169 056c 01F4      		brne 0b
 290:./tmk_core/protocol/lufa/LUFA-git/LUFA/Drivers/USB/Class/Common/HIDParser.c **** 					  ParserData->TotalReportItems++;
 1170               		.loc 1 290 6 view .LVU235
 290:./tmk_core/protocol/lufa/LUFA-git/LUFA/Drivers/USB/Class/Common/HIDParser.c **** 					  ParserData->TotalReportItems++;
 1171               		.loc 1 290 9 is_stmt 0 view .LVU236
 1172 056e 40FC      		sbrc r4,0
 1173 0570 00C0      		rjmp .L50
 290:./tmk_core/protocol/lufa/LUFA-git/LUFA/Drivers/USB/Class/Common/HIDParser.c **** 					  ParserData->TotalReportItems++;
 1174               		.loc 1 290 50 discriminator 1 view .LVU237
 1175 0572 CE01      		movw r24,r28
 1176 0574 C996      		adiw r24,57
 1177 0576 0E94 0000 		call CALLBACK_HIDParser_FilterHIDReportItem
 1178               	.LVL94:
 290:./tmk_core/protocol/lufa/LUFA-git/LUFA/Drivers/USB/Class/Common/HIDParser.c **** 					  ParserData->TotalReportItems++;
 1179               		.loc 1 290 47 discriminator 1 view .LVU238
 1180 057a 8823      		tst r24
 1181 057c 01F0      		breq .L50
 291:./tmk_core/protocol/lufa/LUFA-git/LUFA/Drivers/USB/Class/Common/HIDParser.c **** 				}
 1182               		.loc 1 291 8 is_stmt 1 view .LVU239
 291:./tmk_core/protocol/lufa/LUFA-git/LUFA/Drivers/USB/Class/Common/HIDParser.c **** 				}
 1183               		.loc 1 291 36 is_stmt 0 view .LVU240
 1184 057e D101      		movw r26,r2
 1185 0580 8C91      		ld r24,X
 1186 0582 8F5F      		subi r24,lo8(-(1))
 1187 0584 8C93      		st X,r24
 1188               	.L50:
 1189               	.LBE7:
 243:./tmk_core/protocol/lufa/LUFA-git/LUFA/Drivers/USB/Class/Common/HIDParser.c **** 				{
 1190               		.loc 1 243 95 is_stmt 1 view .LVU241
 1191 0586 EE96      		adiw r28,125-63
 1192 0588 BFAD      		ldd r27,Y+63
 1193 058a EE97      		sbiw r28,125-63
 1194 058c BF5F      		subi r27,lo8(-(1))
 1195 058e EE96      		adiw r28,125-63
 1196 0590 BFAF      		std Y+63,r27
 1197 0592 EE97      		sbiw r28,125-63
 1198               	.LVL95:
 1199               	.L52:
 243:./tmk_core/protocol/lufa/LUFA-git/LUFA/Drivers/USB/Class/Common/HIDParser.c **** 				{
 1200               		.loc 1 243 51 discriminator 1 view .LVU242
 1201 0594 E596      		adiw r28,115-62
 1202 0596 EEAD      		ldd r30,Y+62
 1203 0598 FFAD      		ldd r31,Y+63
 1204 059a E597      		sbiw r28,115-62
 1205 059c 828D      		ldd r24,Z+26
 1206 059e EE96      		adiw r28,125-63
 1207 05a0 FFAD      		ldd r31,Y+63
 1208 05a2 EE97      		sbiw r28,125-63
 1209 05a4 F817      		cp r31,r24
 1210 05a6 00F0      		brlo .+2
 1211 05a8 00C0      		rjmp .L15
 1212               	.LBB8:
 245:./tmk_core/protocol/lufa/LUFA-git/LUFA/Drivers/USB/Class/Common/HIDParser.c **** 
 1213               		.loc 1 245 6 view .LVU243
 247:./tmk_core/protocol/lufa/LUFA-git/LUFA/Drivers/USB/Class/Common/HIDParser.c **** 					       &CurrStateTable->Attributes,
 1214               		.loc 1 247 6 view .LVU244
 1215 05aa 8AE1      		ldi r24,lo8(26)
 1216 05ac E596      		adiw r28,115-62
 1217 05ae EEAD      		ldd r30,Y+62
 1218 05b0 FFAD      		ldd r31,Y+63
 1219 05b2 E597      		sbiw r28,115-62
 1220 05b4 DE01      		movw r26,r28
 1221 05b6 AF5B      		subi r26,-65
 1222 05b8 BF4F      		sbci r27,-1
 1223               		0:
 1224 05ba 0190      		ld r0,Z+
 1225 05bc 0D92      		st X+,r0
 1226 05be 8A95      		dec r24
 1227 05c0 01F4      		brne 0b
 251:./tmk_core/protocol/lufa/LUFA-git/LUFA/Drivers/USB/Class/Common/HIDParser.c **** 					NewReportItem.CollectionPath = CurrCollectionPath;
 1228               		.loc 1 251 6 view .LVU245
 251:./tmk_core/protocol/lufa/LUFA-git/LUFA/Drivers/USB/Class/Common/HIDParser.c **** 					NewReportItem.CollectionPath = CurrCollectionPath;
 1229               		.loc 1 251 35 is_stmt 0 view .LVU246
 1230 05c2 5DAE      		std Y+61,r5
 1231 05c4 4CAE      		std Y+60,r4
 252:./tmk_core/protocol/lufa/LUFA-git/LUFA/Drivers/USB/Class/Common/HIDParser.c **** 					NewReportItem.ReportID       = CurrStateTable->ReportID;
 1232               		.loc 1 252 6 is_stmt 1 view .LVU247
 252:./tmk_core/protocol/lufa/LUFA-git/LUFA/Drivers/USB/Class/Common/HIDParser.c **** 					NewReportItem.ReportID       = CurrStateTable->ReportID;
 1233               		.loc 1 252 35 is_stmt 0 view .LVU248
 1234 05c6 E996      		adiw r28,119-62
 1235 05c8 EEAD      		ldd r30,Y+62
 1236 05ca FFAD      		ldd r31,Y+63
 1237 05cc E997      		sbiw r28,119-62
 1238 05ce 2196      		adiw r28,63-62
 1239 05d0 FFAF      		std Y+63,r31
 1240 05d2 EEAF      		std Y+62,r30
 1241 05d4 2197      		sbiw r28,63-62
 253:./tmk_core/protocol/lufa/LUFA-git/LUFA/Drivers/USB/Class/Common/HIDParser.c **** 
 1242               		.loc 1 253 6 is_stmt 1 view .LVU249
 253:./tmk_core/protocol/lufa/LUFA-git/LUFA/Drivers/USB/Class/Common/HIDParser.c **** 
 1243               		.loc 1 253 35 is_stmt 0 view .LVU250
 1244 05d6 E596      		adiw r28,115-62
 1245 05d8 AEAD      		ldd r26,Y+62
 1246 05da BFAD      		ldd r27,Y+63
 1247 05dc E597      		sbiw r28,115-62
 1248 05de 5B96      		adiw r26,27
 1249 05e0 8C91      		ld r24,X
 1250 05e2 8EAF      		std Y+62,r24
 255:./tmk_core/protocol/lufa/LUFA-git/LUFA/Drivers/USB/Class/Common/HIDParser.c **** 					{
 1251               		.loc 1 255 6 is_stmt 1 view .LVU251
 255:./tmk_core/protocol/lufa/LUFA-git/LUFA/Drivers/USB/Class/Common/HIDParser.c **** 					{
 1252               		.loc 1 255 9 is_stmt 0 view .LVU252
 1253 05e4 1123      		tst r17
 1254 05e6 01F4      		brne .+2
 1255 05e8 00C0      		rjmp .L44
 257:./tmk_core/protocol/lufa/LUFA-git/LUFA/Drivers/USB/Class/Common/HIDParser.c **** 
 1256               		.loc 1 257 7 is_stmt 1 view .LVU253
 257:./tmk_core/protocol/lufa/LUFA-git/LUFA/Drivers/USB/Class/Common/HIDParser.c **** 
 1257               		.loc 1 257 44 is_stmt 0 view .LVU254
 1258 05ea A596      		adiw r28,99-62
 1259 05ec 8EAD      		ldd r24,Y+62
 1260 05ee 9FAD      		ldd r25,Y+63
 1261 05f0 A597      		sbiw r28,99-62
 1262 05f2 2696      		adiw r28,68-62
 1263 05f4 9FAF      		std Y+63,r25
 1264 05f6 8EAF      		std Y+62,r24
 1265 05f8 2697      		sbiw r28,68-62
 259:./tmk_core/protocol/lufa/LUFA-git/LUFA/Drivers/USB/Class/Common/HIDParser.c **** 						  UsageList[i - 1] = UsageList[i];
 1266               		.loc 1 259 7 is_stmt 1 view .LVU255
 1267               	.LBB6:
 259:./tmk_core/protocol/lufa/LUFA-git/LUFA/Drivers/USB/Class/Common/HIDParser.c **** 						  UsageList[i - 1] = UsageList[i];
 1268               		.loc 1 259 12 view .LVU256
 1269               	.LVL96:
 260:./tmk_core/protocol/lufa/LUFA-git/LUFA/Drivers/USB/Class/Common/HIDParser.c **** 
 1270               		.loc 1 260 26 is_stmt 0 view .LVU257
 1271 05fa 1150      		subi r17,lo8(-(-1))
 1272               	.LVL97:
 260:./tmk_core/protocol/lufa/LUFA-git/LUFA/Drivers/USB/Class/Common/HIDParser.c **** 
 1273               		.loc 1 260 26 view .LVU258
 1274 05fc 412F      		mov r20,r17
 1275 05fe 50E0      		ldi r21,0
 1276 0600 440F      		lsl r20
 1277 0602 551F      		rol r21
 1278 0604 CF57      		subi r28,lo8(-129)
 1279 0606 DF4F      		sbci r29,hi8(-129)
 1280 0608 6881      		ld r22,Y
 1281 060a 7981      		ldd r23,Y+1
 1282 060c C158      		subi r28,lo8(129)
 1283 060e D040      		sbci r29,hi8(129)
 1284 0610 CE01      		movw r24,r28
 1285 0612 8D59      		subi r24,-99
 1286 0614 9F4F      		sbci r25,-1
 1287 0616 0E94 0000 		call memmove
 1288               	.LVL98:
 260:./tmk_core/protocol/lufa/LUFA-git/LUFA/Drivers/USB/Class/Common/HIDParser.c **** 
 1289               		.loc 1 260 26 view .LVU259
 1290               	.LBE6:
 262:./tmk_core/protocol/lufa/LUFA-git/LUFA/Drivers/USB/Class/Common/HIDParser.c **** 					}
 1291               		.loc 1 262 7 is_stmt 1 view .LVU260
 1292               	.L45:
 269:./tmk_core/protocol/lufa/LUFA-git/LUFA/Drivers/USB/Class/Common/HIDParser.c **** 
 1293               		.loc 1 269 6 view .LVU261
 271:./tmk_core/protocol/lufa/LUFA-git/LUFA/Drivers/USB/Class/Common/HIDParser.c **** 					  NewReportItem.ItemType = HID_REPORT_ITEM_In;
 1294               		.loc 1 271 6 view .LVU262
 1295 061a E0E0      		ldi r30,0
 271:./tmk_core/protocol/lufa/LUFA-git/LUFA/Drivers/USB/Class/Common/HIDParser.c **** 					  NewReportItem.ItemType = HID_REPORT_ITEM_In;
 1296               		.loc 1 271 9 is_stmt 0 view .LVU263
 1297 061c 0038      		cpi r16,lo8(-128)
 1298 061e 01F0      		breq .L46
 273:./tmk_core/protocol/lufa/LUFA-git/LUFA/Drivers/USB/Class/Common/HIDParser.c **** 					  NewReportItem.ItemType = HID_REPORT_ITEM_Out;
 1299               		.loc 1 273 11 is_stmt 1 view .LVU264
 273:./tmk_core/protocol/lufa/LUFA-git/LUFA/Drivers/USB/Class/Common/HIDParser.c **** 					  NewReportItem.ItemType = HID_REPORT_ITEM_Out;
 1300               		.loc 1 273 14 is_stmt 0 view .LVU265
 1301 0620 E2E0      		ldi r30,lo8(2)
 1302 0622 0039      		cpi r16,lo8(-112)
 1303 0624 01F4      		brne .L46
 1304 0626 E1E0      		ldi r30,lo8(1)
 1305               	.L46:
 272:./tmk_core/protocol/lufa/LUFA-git/LUFA/Drivers/USB/Class/Common/HIDParser.c **** 					else if (ItemTypeTag == HID_RI_OUTPUT(0))
 1306               		.loc 1 272 31 view .LVU266
 1307 0628 EBAF      		std Y+59,r30
 278:./tmk_core/protocol/lufa/LUFA-git/LUFA/Drivers/USB/Class/Common/HIDParser.c **** 
 1308               		.loc 1 278 6 is_stmt 1 view .LVU267
 278:./tmk_core/protocol/lufa/LUFA-git/LUFA/Drivers/USB/Class/Common/HIDParser.c **** 
 1309               		.loc 1 278 78 is_stmt 0 view .LVU268
 1310 062a F0E0      		ldi r31,0
 278:./tmk_core/protocol/lufa/LUFA-git/LUFA/Drivers/USB/Class/Common/HIDParser.c **** 
 1311               		.loc 1 278 64 view .LVU269
 1312 062c EE0F      		lsl r30
 1313 062e FF1F      		rol r31
 1314 0630 ED96      		adiw r28,123-62
 1315 0632 2EAD      		ldd r18,Y+62
 1316 0634 3FAD      		ldd r19,Y+63
 1317 0636 ED97      		sbiw r28,123-62
 1318 0638 E20F      		add r30,r18
 1319 063a F31F      		adc r31,r19
 1320 063c 8181      		ldd r24,Z+1
 1321 063e 9281      		ldd r25,Z+2
 278:./tmk_core/protocol/lufa/LUFA-git/LUFA/Drivers/USB/Class/Common/HIDParser.c **** 
 1322               		.loc 1 278 30 view .LVU270
 1323 0640 9AAF      		std Y+58,r25
 1324 0642 89AF      		std Y+57,r24
 280:./tmk_core/protocol/lufa/LUFA-git/LUFA/Drivers/USB/Class/Common/HIDParser.c **** 
 1325               		.loc 1 280 6 is_stmt 1 view .LVU271
 280:./tmk_core/protocol/lufa/LUFA-git/LUFA/Drivers/USB/Class/Common/HIDParser.c **** 
 1326               		.loc 1 280 92 is_stmt 0 view .LVU272
 1327 0644 E596      		adiw r28,115-62
 1328 0646 AEAD      		ldd r26,Y+62
 1329 0648 BFAD      		ldd r27,Y+63
 1330 064a E597      		sbiw r28,115-62
 1331 064c 2C91      		ld r18,X
 280:./tmk_core/protocol/lufa/LUFA-git/LUFA/Drivers/USB/Class/Common/HIDParser.c **** 
 1332               		.loc 1 280 63 view .LVU273
 1333 064e 8181      		ldd r24,Z+1
 1334 0650 9281      		ldd r25,Z+2
 1335 0652 820F      		add r24,r18
 1336 0654 911D      		adc r25,__zero_reg__
 1337 0656 9283      		std Z+2,r25
 1338 0658 8183      		std Z+1,r24
 282:./tmk_core/protocol/lufa/LUFA-git/LUFA/Drivers/USB/Class/Common/HIDParser.c **** 
 1339               		.loc 1 282 6 is_stmt 1 view .LVU274
 282:./tmk_core/protocol/lufa/LUFA-git/LUFA/Drivers/USB/Class/Common/HIDParser.c **** 
 1340               		.loc 1 282 42 is_stmt 0 view .LVU275
 1341 065a EBAD      		ldd r30,Y+59
 1342 065c F0E0      		ldi r31,0
 1343 065e EE0F      		lsl r30
 1344 0660 FF1F      		rol r31
 1345 0662 ED96      		adiw r28,123-62
 1346 0664 2EAD      		ldd r18,Y+62
 1347 0666 3FAD      		ldd r19,Y+63
 1348 0668 ED97      		sbiw r28,123-62
 1349 066a E20F      		add r30,r18
 1350 066c F31F      		adc r31,r19
 1351 066e C158      		subi r28,lo8(-127)
 1352 0670 DF4F      		sbci r29,hi8(-127)
 1353 0672 A881      		ld r26,Y
 1354 0674 B981      		ldd r27,Y+1
 1355 0676 CF57      		subi r28,lo8(127)
 1356 0678 D040      		sbci r29,hi8(127)
 1357 067a 2D91      		ld r18,X+
 1358 067c 3C91      		ld r19,X
 1359 067e 8181      		ldd r24,Z+1
 1360 0680 9281      		ldd r25,Z+2
 1361 0682 8217      		cp r24,r18
 1362 0684 9307      		cpc r25,r19
 1363 0686 00F4      		brsh .L47
 1364 0688 C901      		movw r24,r18
 1365               	.L47:
 282:./tmk_core/protocol/lufa/LUFA-git/LUFA/Drivers/USB/Class/Common/HIDParser.c **** 
 1366               		.loc 1 282 40 view .LVU276
 1367 068a C158      		subi r28,lo8(-127)
 1368 068c DF4F      		sbci r29,hi8(-127)
 1369 068e E881      		ld r30,Y
 1370 0690 F981      		ldd r31,Y+1
 1371 0692 CF57      		subi r28,lo8(127)
 1372 0694 D040      		sbci r29,hi8(127)
 1373 0696 9183      		std Z+1,r25
 1374 0698 8083      		st Z,r24
 284:./tmk_core/protocol/lufa/LUFA-git/LUFA/Drivers/USB/Class/Common/HIDParser.c **** 					  return HID_PARSE_InsufficientReportItems;
 1375               		.loc 1 284 6 is_stmt 1 view .LVU277
 284:./tmk_core/protocol/lufa/LUFA-git/LUFA/Drivers/USB/Class/Common/HIDParser.c **** 					  return HID_PARSE_InsufficientReportItems;
 1376               		.loc 1 284 20 is_stmt 0 view .LVU278
 1377 069a F101      		movw r30,r2
 1378 069c A081      		ld r26,Z
 284:./tmk_core/protocol/lufa/LUFA-git/LUFA/Drivers/USB/Class/Common/HIDParser.c **** 					  return HID_PARSE_InsufficientReportItems;
 1379               		.loc 1 284 9 view .LVU279
 1380 069e A431      		cpi r26,lo8(20)
 1381 06a0 01F0      		breq .+2
 1382 06a2 00C0      		rjmp .L48
 285:./tmk_core/protocol/lufa/LUFA-git/LUFA/Drivers/USB/Class/Common/HIDParser.c **** 
 1383               		.loc 1 285 8 is_stmt 1 view .LVU280
 285:./tmk_core/protocol/lufa/LUFA-git/LUFA/Drivers/USB/Class/Common/HIDParser.c **** 
 1384               		.loc 1 285 15 is_stmt 0 view .LVU281
 1385 06a4 83E0      		ldi r24,lo8(3)
 1386               	.LVL99:
 1387               	.L1:
 1388               	/* epilogue start */
 285:./tmk_core/protocol/lufa/LUFA-git/LUFA/Drivers/USB/Class/Common/HIDParser.c **** 
 1389               		.loc 1 285 15 view .LVU282
 1390               	.LBE8:
 1391               	.LBE14:
 1392               	.LBE16:
 309:./tmk_core/protocol/lufa/LUFA-git/LUFA/Drivers/USB/Class/Common/HIDParser.c **** 	  return HID_PARSE_NoUnfilteredReportItems;
 310:./tmk_core/protocol/lufa/LUFA-git/LUFA/Drivers/USB/Class/Common/HIDParser.c **** 
 311:./tmk_core/protocol/lufa/LUFA-git/LUFA/Drivers/USB/Class/Common/HIDParser.c **** 	return HID_PARSE_Successful;
 312:./tmk_core/protocol/lufa/LUFA-git/LUFA/Drivers/USB/Class/Common/HIDParser.c **** }
 1393               		.loc 1 312 1 view .LVU283
 1394 06a6 CE57      		subi r28,126
 1395 06a8 DF4F      		sbci r29,-1
 1396 06aa 0FB6      		in __tmp_reg__,__SREG__
 1397 06ac F894      		cli
 1398 06ae DEBF      		out __SP_H__,r29
 1399 06b0 0FBE      		out __SREG__,__tmp_reg__
 1400 06b2 CDBF      		out __SP_L__,r28
 1401 06b4 DF91      		pop r29
 1402 06b6 CF91      		pop r28
 1403 06b8 1F91      		pop r17
 1404 06ba 0F91      		pop r16
 1405 06bc FF90      		pop r15
 1406 06be EF90      		pop r14
 1407 06c0 DF90      		pop r13
 1408 06c2 CF90      		pop r12
 1409 06c4 BF90      		pop r11
 1410 06c6 AF90      		pop r10
 1411 06c8 9F90      		pop r9
 1412 06ca 8F90      		pop r8
 1413 06cc 7F90      		pop r7
 1414 06ce 6F90      		pop r6
 1415 06d0 5F90      		pop r5
 1416 06d2 4F90      		pop r4
 1417 06d4 3F90      		pop r3
 1418 06d6 2F90      		pop r2
 1419               	.LVL100:
 1420               		.loc 1 312 1 view .LVU284
 1421 06d8 0895      		ret
 1422               	.LVL101:
 1423               	.L57:
 1424               	.LBB17:
  87:./tmk_core/protocol/lufa/LUFA-git/LUFA/Drivers/USB/Class/Common/HIDParser.c **** 		{
 1425               		.loc 1 87 3 view .LVU285
 1426 06da 5301      		movw r10,r6
 1427 06dc 4201      		movw r8,r4
 1428 06de 00C0      		rjmp .L2
 1429               	.LVL102:
 1430               	.L67:
 303:./tmk_core/protocol/lufa/LUFA-git/LUFA/Drivers/USB/Class/Common/HIDParser.c **** 			UsageListSize       = 0;
 1431               		.loc 1 303 24 view .LVU286
 1432 06e0 812C      		mov r8,__zero_reg__
 1433 06e2 912C      		mov r9,__zero_reg__
 1434 06e4 5401      		movw r10,r8
 1435               	.LVL103:
 302:./tmk_core/protocol/lufa/LUFA-git/LUFA/Drivers/USB/Class/Common/HIDParser.c **** 			UsageMinMax.Maximum = 0;
 1436               		.loc 1 302 24 view .LVU287
 1437 06e6 C12C      		mov r12,__zero_reg__
 1438 06e8 D12C      		mov r13,__zero_reg__
 1439 06ea 7601      		movw r14,r12
 1440 06ec 00C0      		rjmp .L2
 1441               	.LVL104:
 1442               	.L61:
  91:./tmk_core/protocol/lufa/LUFA-git/LUFA/Drivers/USB/Class/Common/HIDParser.c **** 
 1443               		.loc 1 91 14 view .LVU288
 1444 06ee 81E0      		ldi r24,lo8(1)
 1445 06f0 00C0      		rjmp .L1
 1446               	.L62:
 102:./tmk_core/protocol/lufa/LUFA-git/LUFA/Drivers/USB/Class/Common/HIDParser.c **** 
 1447               		.loc 1 102 14 view .LVU289
 1448 06f2 82E0      		ldi r24,lo8(2)
 1449 06f4 00C0      		rjmp .L1
 1450               	.LVL105:
 1451               	.L64:
 165:./tmk_core/protocol/lufa/LUFA-git/LUFA/Drivers/USB/Class/Common/HIDParser.c **** 
 1452               		.loc 1 165 16 view .LVU290
 1453 06f6 87E0      		ldi r24,lo8(7)
 1454               	.LVL106:
 165:./tmk_core/protocol/lufa/LUFA-git/LUFA/Drivers/USB/Class/Common/HIDParser.c **** 
 1455               		.loc 1 165 16 view .LVU291
 1456 06f8 00C0      		rjmp .L1
 1457               	.LVL107:
 1458               	.L65:
 179:./tmk_core/protocol/lufa/LUFA-git/LUFA/Drivers/USB/Class/Common/HIDParser.c **** 
 1459               		.loc 1 179 14 view .LVU292
 1460 06fa 86E0      		ldi r24,lo8(6)
 1461 06fc 00C0      		rjmp .L1
 1462               	.LVL108:
 1463               	.L66:
 1464               	.LBB15:
 206:./tmk_core/protocol/lufa/LUFA-git/LUFA/Drivers/USB/Class/Common/HIDParser.c **** 
 1465               		.loc 1 206 16 view .LVU293
 1466 06fe 85E0      		ldi r24,lo8(5)
 1467 0700 00C0      		rjmp .L1
 1468               	.LVL109:
 1469               	.L68:
 206:./tmk_core/protocol/lufa/LUFA-git/LUFA/Drivers/USB/Class/Common/HIDParser.c **** 
 1470               		.loc 1 206 16 view .LVU294
 1471               	.LBE15:
 235:./tmk_core/protocol/lufa/LUFA-git/LUFA/Drivers/USB/Class/Common/HIDParser.c **** 
 1472               		.loc 1 235 14 view .LVU295
 1473 0702 84E0      		ldi r24,lo8(4)
 1474 0704 00C0      		rjmp .L1
 1475               	.LBE17:
 1476               		.cfi_endproc
 1477               	.LFE20:
 1479               		.section	.text.USB_GetHIDReportItemInfo,"ax",@progbits
 1480               	.global	USB_GetHIDReportItemInfo
 1482               	USB_GetHIDReportItemInfo:
 1483               	.LVL110:
 1484               	.LFB21:
 313:./tmk_core/protocol/lufa/LUFA-git/LUFA/Drivers/USB/Class/Common/HIDParser.c **** 
 314:./tmk_core/protocol/lufa/LUFA-git/LUFA/Drivers/USB/Class/Common/HIDParser.c **** bool USB_GetHIDReportItemInfo(const uint8_t* ReportData,
 315:./tmk_core/protocol/lufa/LUFA-git/LUFA/Drivers/USB/Class/Common/HIDParser.c ****                               HID_ReportItem_t* const ReportItem)
 316:./tmk_core/protocol/lufa/LUFA-git/LUFA/Drivers/USB/Class/Common/HIDParser.c **** {
 1485               		.loc 1 316 1 is_stmt 1 view -0
 1486               		.cfi_startproc
 1487               		.loc 1 316 1 is_stmt 0 view .LVU297
 1488 0000 CF92      		push r12
 1489               	.LCFI20:
 1490               		.cfi_def_cfa_offset 3
 1491               		.cfi_offset 12, -2
 1492 0002 DF92      		push r13
 1493               	.LCFI21:
 1494               		.cfi_def_cfa_offset 4
 1495               		.cfi_offset 13, -3
 1496 0004 EF92      		push r14
 1497               	.LCFI22:
 1498               		.cfi_def_cfa_offset 5
 1499               		.cfi_offset 14, -4
 1500 0006 FF92      		push r15
 1501               	.LCFI23:
 1502               		.cfi_def_cfa_offset 6
 1503               		.cfi_offset 15, -5
 1504 0008 CF93      		push r28
 1505               	.LCFI24:
 1506               		.cfi_def_cfa_offset 7
 1507               		.cfi_offset 28, -6
 1508 000a DF93      		push r29
 1509               	.LCFI25:
 1510               		.cfi_def_cfa_offset 8
 1511               		.cfi_offset 29, -7
 1512               	/* prologue: function */
 1513               	/* frame size = 0 */
 1514               	/* stack size = 6 */
 1515               	.L__stack_usage = 6
 1516 000c DC01      		movw r26,r24
 1517 000e FB01      		movw r30,r22
 317:./tmk_core/protocol/lufa/LUFA-git/LUFA/Drivers/USB/Class/Common/HIDParser.c **** 	if (ReportItem == NULL)
 1518               		.loc 1 317 2 is_stmt 1 view .LVU298
 1519               		.loc 1 317 5 is_stmt 0 view .LVU299
 1520 0010 3097      		sbiw r30,0
 1521 0012 01F4      		brne .+2
 1522 0014 00C0      		rjmp .L90
 318:./tmk_core/protocol/lufa/LUFA-git/LUFA/Drivers/USB/Class/Common/HIDParser.c **** 	  return false;
 319:./tmk_core/protocol/lufa/LUFA-git/LUFA/Drivers/USB/Class/Common/HIDParser.c **** 
 320:./tmk_core/protocol/lufa/LUFA-git/LUFA/Drivers/USB/Class/Common/HIDParser.c **** 	uint16_t DataBitsRem  = ReportItem->Attributes.BitSize;
 1523               		.loc 1 320 2 is_stmt 1 view .LVU300
 1524               		.loc 1 320 11 is_stmt 0 view .LVU301
 1525 0016 2085      		ldd r18,Z+8
 1526 0018 30E0      		ldi r19,0
 1527               	.LVL111:
 321:./tmk_core/protocol/lufa/LUFA-git/LUFA/Drivers/USB/Class/Common/HIDParser.c **** 	uint16_t CurrentBit   = ReportItem->BitOffset;
 1528               		.loc 1 321 2 is_stmt 1 view .LVU302
 322:./tmk_core/protocol/lufa/LUFA-git/LUFA/Drivers/USB/Class/Common/HIDParser.c **** 	uint32_t BitMask      = (1 << 0);
 1529               		.loc 1 322 2 view .LVU303
 323:./tmk_core/protocol/lufa/LUFA-git/LUFA/Drivers/USB/Class/Common/HIDParser.c **** 
 324:./tmk_core/protocol/lufa/LUFA-git/LUFA/Drivers/USB/Class/Common/HIDParser.c **** 	if (ReportItem->ReportID)
 1530               		.loc 1 324 2 view .LVU304
 1531               		.loc 1 324 16 is_stmt 0 view .LVU305
 1532 001a 8581      		ldd r24,Z+5
 1533               	.LVL112:
 1534               		.loc 1 324 5 view .LVU306
 1535 001c 8823      		tst r24
 1536 001e 01F0      		breq .L85
 325:./tmk_core/protocol/lufa/LUFA-git/LUFA/Drivers/USB/Class/Common/HIDParser.c **** 	{
 326:./tmk_core/protocol/lufa/LUFA-git/LUFA/Drivers/USB/Class/Common/HIDParser.c **** 		if (ReportItem->ReportID != ReportData[0])
 1537               		.loc 1 326 3 is_stmt 1 view .LVU307
 1538               		.loc 1 326 6 is_stmt 0 view .LVU308
 1539 0020 9C91      		ld r25,X
 1540 0022 8913      		cpse r24,r25
 1541 0024 00C0      		rjmp .L90
 327:./tmk_core/protocol/lufa/LUFA-git/LUFA/Drivers/USB/Class/Common/HIDParser.c **** 		  return false;
 328:./tmk_core/protocol/lufa/LUFA-git/LUFA/Drivers/USB/Class/Common/HIDParser.c **** 
 329:./tmk_core/protocol/lufa/LUFA-git/LUFA/Drivers/USB/Class/Common/HIDParser.c **** 		ReportData++;
 1542               		.loc 1 329 3 is_stmt 1 view .LVU309
 1543               		.loc 1 329 13 is_stmt 0 view .LVU310
 1544 0026 1196      		adiw r26,1
 1545               	.LVL113:
 1546               	.L85:
 321:./tmk_core/protocol/lufa/LUFA-git/LUFA/Drivers/USB/Class/Common/HIDParser.c **** 	uint32_t BitMask      = (1 << 0);
 1547               		.loc 1 321 11 view .LVU311
 1548 0028 8081      		ld r24,Z
 1549 002a 9181      		ldd r25,Z+1
 330:./tmk_core/protocol/lufa/LUFA-git/LUFA/Drivers/USB/Class/Common/HIDParser.c **** 	}
 331:./tmk_core/protocol/lufa/LUFA-git/LUFA/Drivers/USB/Class/Common/HIDParser.c **** 
 332:./tmk_core/protocol/lufa/LUFA-git/LUFA/Drivers/USB/Class/Common/HIDParser.c **** 	ReportItem->PreviousValue = ReportItem->Value;
 1550               		.loc 1 332 2 is_stmt 1 view .LVU312
 1551               		.loc 1 332 28 is_stmt 0 view .LVU313
 1552 002c 42A1      		ldd r20,Z+34
 1553 002e 53A1      		ldd r21,Z+35
 1554 0030 64A1      		ldd r22,Z+36
 1555 0032 75A1      		ldd r23,Z+37
 1556 0034 46A3      		std Z+38,r20
 1557 0036 57A3      		std Z+39,r21
 1558 0038 60A7      		std Z+40,r22
 1559 003a 71A7      		std Z+41,r23
 333:./tmk_core/protocol/lufa/LUFA-git/LUFA/Drivers/USB/Class/Common/HIDParser.c **** 	ReportItem->Value = 0;
 1560               		.loc 1 333 2 is_stmt 1 view .LVU314
 1561               		.loc 1 333 20 is_stmt 0 view .LVU315
 1562 003c 12A2      		std Z+34,__zero_reg__
 1563 003e 13A2      		std Z+35,__zero_reg__
 1564 0040 14A2      		std Z+36,__zero_reg__
 1565 0042 15A2      		std Z+37,__zero_reg__
 334:./tmk_core/protocol/lufa/LUFA-git/LUFA/Drivers/USB/Class/Common/HIDParser.c **** 
 335:./tmk_core/protocol/lufa/LUFA-git/LUFA/Drivers/USB/Class/Common/HIDParser.c **** 	while (DataBitsRem--)
 1566               		.loc 1 335 2 is_stmt 1 view .LVU316
 1567 0044 280F      		add r18,r24
 1568 0046 391F      		adc r19,r25
 1569               	.LVL114:
 322:./tmk_core/protocol/lufa/LUFA-git/LUFA/Drivers/USB/Class/Common/HIDParser.c **** 
 1570               		.loc 1 322 11 is_stmt 0 view .LVU317
 1571 0048 C12C      		mov r12,__zero_reg__
 1572 004a D12C      		mov r13,__zero_reg__
 1573 004c 7601      		movw r14,r12
 1574 004e C394      		inc r12
 1575               	.LVL115:
 1576               	.L86:
 1577               		.loc 1 335 9 is_stmt 1 view .LVU318
 1578               		.loc 1 335 9 is_stmt 0 view .LVU319
 1579 0050 8217      		cp r24,r18
 1580 0052 9307      		cpc r25,r19
 1581 0054 01F4      		brne .L88
 336:./tmk_core/protocol/lufa/LUFA-git/LUFA/Drivers/USB/Class/Common/HIDParser.c **** 	{
 337:./tmk_core/protocol/lufa/LUFA-git/LUFA/Drivers/USB/Class/Common/HIDParser.c **** 		if (ReportData[CurrentBit / 8] & (1 << (CurrentBit % 8)))
 338:./tmk_core/protocol/lufa/LUFA-git/LUFA/Drivers/USB/Class/Common/HIDParser.c **** 		  ReportItem->Value |= BitMask;
 339:./tmk_core/protocol/lufa/LUFA-git/LUFA/Drivers/USB/Class/Common/HIDParser.c **** 
 340:./tmk_core/protocol/lufa/LUFA-git/LUFA/Drivers/USB/Class/Common/HIDParser.c **** 		CurrentBit++;
 341:./tmk_core/protocol/lufa/LUFA-git/LUFA/Drivers/USB/Class/Common/HIDParser.c **** 		BitMask <<= 1;
 342:./tmk_core/protocol/lufa/LUFA-git/LUFA/Drivers/USB/Class/Common/HIDParser.c **** 	}
 343:./tmk_core/protocol/lufa/LUFA-git/LUFA/Drivers/USB/Class/Common/HIDParser.c **** 
 344:./tmk_core/protocol/lufa/LUFA-git/LUFA/Drivers/USB/Class/Common/HIDParser.c **** 	return true;
 1582               		.loc 1 344 9 view .LVU320
 1583 0056 81E0      		ldi r24,lo8(1)
 1584               	.LVL116:
 1585               	.L83:
 1586               	/* epilogue start */
 345:./tmk_core/protocol/lufa/LUFA-git/LUFA/Drivers/USB/Class/Common/HIDParser.c **** }
 1587               		.loc 1 345 1 view .LVU321
 1588 0058 DF91      		pop r29
 1589 005a CF91      		pop r28
 1590 005c FF90      		pop r15
 1591 005e EF90      		pop r14
 1592 0060 DF90      		pop r13
 1593 0062 CF90      		pop r12
 1594 0064 0895      		ret
 1595               	.LVL117:
 1596               	.L88:
 337:./tmk_core/protocol/lufa/LUFA-git/LUFA/Drivers/USB/Class/Common/HIDParser.c **** 		  ReportItem->Value |= BitMask;
 1597               		.loc 1 337 3 is_stmt 1 view .LVU322
 337:./tmk_core/protocol/lufa/LUFA-git/LUFA/Drivers/USB/Class/Common/HIDParser.c **** 		  ReportItem->Value |= BitMask;
 1598               		.loc 1 337 29 is_stmt 0 view .LVU323
 1599 0066 EC01      		movw r28,r24
 1600 0068 53E0      		ldi r21,3
 1601               		1:
 1602 006a D695      		lsr r29
 1603 006c C795      		ror r28
 1604 006e 5A95      		dec r21
 1605 0070 01F4      		brne 1b
 337:./tmk_core/protocol/lufa/LUFA-git/LUFA/Drivers/USB/Class/Common/HIDParser.c **** 		  ReportItem->Value |= BitMask;
 1606               		.loc 1 337 17 view .LVU324
 1607 0072 CA0F      		add r28,r26
 1608 0074 DB1F      		adc r29,r27
 1609 0076 4881      		ld r20,Y
 1610 0078 50E0      		ldi r21,0
 337:./tmk_core/protocol/lufa/LUFA-git/LUFA/Drivers/USB/Class/Common/HIDParser.c **** 		  ReportItem->Value |= BitMask;
 1611               		.loc 1 337 54 view .LVU325
 1612 007a BC01      		movw r22,r24
 1613 007c 6770      		andi r22,7
 1614 007e 7727      		clr r23
 337:./tmk_core/protocol/lufa/LUFA-git/LUFA/Drivers/USB/Class/Common/HIDParser.c **** 		  ReportItem->Value |= BitMask;
 1615               		.loc 1 337 7 view .LVU326
 1616 0080 00C0      		rjmp 2f
 1617               		1:
 1618 0082 5595      		asr r21
 1619 0084 4795      		ror r20
 1620               		2:
 1621 0086 6A95      		dec r22
 1622 0088 02F4      		brpl 1b
 337:./tmk_core/protocol/lufa/LUFA-git/LUFA/Drivers/USB/Class/Common/HIDParser.c **** 		  ReportItem->Value |= BitMask;
 1623               		.loc 1 337 6 view .LVU327
 1624 008a 40FF      		sbrs r20,0
 1625 008c 00C0      		rjmp .L87
 338:./tmk_core/protocol/lufa/LUFA-git/LUFA/Drivers/USB/Class/Common/HIDParser.c **** 
 1626               		.loc 1 338 5 is_stmt 1 view .LVU328
 338:./tmk_core/protocol/lufa/LUFA-git/LUFA/Drivers/USB/Class/Common/HIDParser.c **** 
 1627               		.loc 1 338 23 is_stmt 0 view .LVU329
 1628 008e 42A1      		ldd r20,Z+34
 1629 0090 53A1      		ldd r21,Z+35
 1630 0092 64A1      		ldd r22,Z+36
 1631 0094 75A1      		ldd r23,Z+37
 1632 0096 4C29      		or r20,r12
 1633 0098 5D29      		or r21,r13
 1634 009a 6E29      		or r22,r14
 1635 009c 7F29      		or r23,r15
 1636 009e 42A3      		std Z+34,r20
 1637 00a0 53A3      		std Z+35,r21
 1638 00a2 64A3      		std Z+36,r22
 1639 00a4 75A3      		std Z+37,r23
 1640               	.L87:
 340:./tmk_core/protocol/lufa/LUFA-git/LUFA/Drivers/USB/Class/Common/HIDParser.c **** 		BitMask <<= 1;
 1641               		.loc 1 340 3 is_stmt 1 view .LVU330
 340:./tmk_core/protocol/lufa/LUFA-git/LUFA/Drivers/USB/Class/Common/HIDParser.c **** 		BitMask <<= 1;
 1642               		.loc 1 340 13 is_stmt 0 view .LVU331
 1643 00a6 0196      		adiw r24,1
 1644               	.LVL118:
 341:./tmk_core/protocol/lufa/LUFA-git/LUFA/Drivers/USB/Class/Common/HIDParser.c **** 	}
 1645               		.loc 1 341 3 is_stmt 1 view .LVU332
 341:./tmk_core/protocol/lufa/LUFA-git/LUFA/Drivers/USB/Class/Common/HIDParser.c **** 	}
 1646               		.loc 1 341 11 is_stmt 0 view .LVU333
 1647 00a8 CC0C      		lsl r12
 1648 00aa DD1C      		rol r13
 1649 00ac EE1C      		rol r14
 1650 00ae FF1C      		rol r15
 1651               	.LVL119:
 341:./tmk_core/protocol/lufa/LUFA-git/LUFA/Drivers/USB/Class/Common/HIDParser.c **** 	}
 1652               		.loc 1 341 11 view .LVU334
 1653 00b0 00C0      		rjmp .L86
 1654               	.LVL120:
 1655               	.L90:
 318:./tmk_core/protocol/lufa/LUFA-git/LUFA/Drivers/USB/Class/Common/HIDParser.c **** 
 1656               		.loc 1 318 11 view .LVU335
 1657 00b2 80E0      		ldi r24,0
 1658 00b4 00C0      		rjmp .L83
 1659               		.cfi_endproc
 1660               	.LFE21:
 1662               		.section	.text.USB_SetHIDReportItemInfo,"ax",@progbits
 1663               	.global	USB_SetHIDReportItemInfo
 1665               	USB_SetHIDReportItemInfo:
 1666               	.LVL121:
 1667               	.LFB22:
 346:./tmk_core/protocol/lufa/LUFA-git/LUFA/Drivers/USB/Class/Common/HIDParser.c **** 
 347:./tmk_core/protocol/lufa/LUFA-git/LUFA/Drivers/USB/Class/Common/HIDParser.c **** void USB_SetHIDReportItemInfo(uint8_t* ReportData,
 348:./tmk_core/protocol/lufa/LUFA-git/LUFA/Drivers/USB/Class/Common/HIDParser.c ****                               HID_ReportItem_t* const ReportItem)
 349:./tmk_core/protocol/lufa/LUFA-git/LUFA/Drivers/USB/Class/Common/HIDParser.c **** {
 1668               		.loc 1 349 1 is_stmt 1 view -0
 1669               		.cfi_startproc
 1670               		.loc 1 349 1 is_stmt 0 view .LVU337
 1671 0000 8F92      		push r8
 1672               	.LCFI26:
 1673               		.cfi_def_cfa_offset 3
 1674               		.cfi_offset 8, -2
 1675 0002 9F92      		push r9
 1676               	.LCFI27:
 1677               		.cfi_def_cfa_offset 4
 1678               		.cfi_offset 9, -3
 1679 0004 AF92      		push r10
 1680               	.LCFI28:
 1681               		.cfi_def_cfa_offset 5
 1682               		.cfi_offset 10, -4
 1683 0006 BF92      		push r11
 1684               	.LCFI29:
 1685               		.cfi_def_cfa_offset 6
 1686               		.cfi_offset 11, -5
 1687 0008 CF92      		push r12
 1688               	.LCFI30:
 1689               		.cfi_def_cfa_offset 7
 1690               		.cfi_offset 12, -6
 1691 000a DF92      		push r13
 1692               	.LCFI31:
 1693               		.cfi_def_cfa_offset 8
 1694               		.cfi_offset 13, -7
 1695 000c EF92      		push r14
 1696               	.LCFI32:
 1697               		.cfi_def_cfa_offset 9
 1698               		.cfi_offset 14, -8
 1699 000e FF92      		push r15
 1700               	.LCFI33:
 1701               		.cfi_def_cfa_offset 10
 1702               		.cfi_offset 15, -9
 1703 0010 CF93      		push r28
 1704               	.LCFI34:
 1705               		.cfi_def_cfa_offset 11
 1706               		.cfi_offset 28, -10
 1707 0012 DF93      		push r29
 1708               	.LCFI35:
 1709               		.cfi_def_cfa_offset 12
 1710               		.cfi_offset 29, -11
 1711               	/* prologue: function */
 1712               	/* frame size = 0 */
 1713               	/* stack size = 10 */
 1714               	.L__stack_usage = 10
 1715 0014 EC01      		movw r28,r24
 1716 0016 FB01      		movw r30,r22
 350:./tmk_core/protocol/lufa/LUFA-git/LUFA/Drivers/USB/Class/Common/HIDParser.c **** 	if (ReportItem == NULL)
 1717               		.loc 1 350 2 is_stmt 1 view .LVU338
 1718               		.loc 1 350 5 is_stmt 0 view .LVU339
 1719 0018 3097      		sbiw r30,0
 1720 001a 01F0      		breq .L97
 351:./tmk_core/protocol/lufa/LUFA-git/LUFA/Drivers/USB/Class/Common/HIDParser.c **** 	  return;
 352:./tmk_core/protocol/lufa/LUFA-git/LUFA/Drivers/USB/Class/Common/HIDParser.c **** 
 353:./tmk_core/protocol/lufa/LUFA-git/LUFA/Drivers/USB/Class/Common/HIDParser.c **** 	uint16_t DataBitsRem  = ReportItem->Attributes.BitSize;
 1721               		.loc 1 353 2 is_stmt 1 view .LVU340
 1722               		.loc 1 353 11 is_stmt 0 view .LVU341
 1723 001c 4085      		ldd r20,Z+8
 1724 001e 50E0      		ldi r21,0
 1725               	.LVL122:
 354:./tmk_core/protocol/lufa/LUFA-git/LUFA/Drivers/USB/Class/Common/HIDParser.c **** 	uint16_t CurrentBit   = ReportItem->BitOffset;
 1726               		.loc 1 354 2 is_stmt 1 view .LVU342
 1727               		.loc 1 354 11 is_stmt 0 view .LVU343
 1728 0020 2081      		ld r18,Z
 1729 0022 3181      		ldd r19,Z+1
 1730               	.LVL123:
 355:./tmk_core/protocol/lufa/LUFA-git/LUFA/Drivers/USB/Class/Common/HIDParser.c **** 	uint32_t BitMask      = (1 << 0);
 1731               		.loc 1 355 2 is_stmt 1 view .LVU344
 356:./tmk_core/protocol/lufa/LUFA-git/LUFA/Drivers/USB/Class/Common/HIDParser.c **** 
 357:./tmk_core/protocol/lufa/LUFA-git/LUFA/Drivers/USB/Class/Common/HIDParser.c **** 	if (ReportItem->ReportID)
 1732               		.loc 1 357 2 view .LVU345
 1733               		.loc 1 357 16 is_stmt 0 view .LVU346
 1734 0024 8581      		ldd r24,Z+5
 1735               	.LVL124:
 1736               		.loc 1 357 5 view .LVU347
 1737 0026 8111      		cpse r24,__zero_reg__
 358:./tmk_core/protocol/lufa/LUFA-git/LUFA/Drivers/USB/Class/Common/HIDParser.c **** 	{
 359:./tmk_core/protocol/lufa/LUFA-git/LUFA/Drivers/USB/Class/Common/HIDParser.c **** 		ReportData[0] = ReportItem->ReportID;
 1738               		.loc 1 359 3 is_stmt 1 view .LVU348
 1739               		.loc 1 359 17 is_stmt 0 view .LVU349
 1740 0028 8993      		st Y+,r24
 1741               	.LVL125:
 360:./tmk_core/protocol/lufa/LUFA-git/LUFA/Drivers/USB/Class/Common/HIDParser.c **** 		ReportData++;
 1742               		.loc 1 360 3 is_stmt 1 view .LVU350
 1743               	.L99:
 361:./tmk_core/protocol/lufa/LUFA-git/LUFA/Drivers/USB/Class/Common/HIDParser.c **** 	}
 362:./tmk_core/protocol/lufa/LUFA-git/LUFA/Drivers/USB/Class/Common/HIDParser.c **** 
 363:./tmk_core/protocol/lufa/LUFA-git/LUFA/Drivers/USB/Class/Common/HIDParser.c **** 	ReportItem->PreviousValue = ReportItem->Value;
 1744               		.loc 1 363 2 view .LVU351
 1745               		.loc 1 363 28 is_stmt 0 view .LVU352
 1746 002a 82A1      		ldd r24,Z+34
 1747 002c 93A1      		ldd r25,Z+35
 1748 002e A4A1      		ldd r26,Z+36
 1749 0030 B5A1      		ldd r27,Z+37
 1750 0032 86A3      		std Z+38,r24
 1751 0034 97A3      		std Z+39,r25
 1752 0036 A0A7      		std Z+40,r26
 1753 0038 B1A7      		std Z+41,r27
 364:./tmk_core/protocol/lufa/LUFA-git/LUFA/Drivers/USB/Class/Common/HIDParser.c **** 
 365:./tmk_core/protocol/lufa/LUFA-git/LUFA/Drivers/USB/Class/Common/HIDParser.c **** 	while (DataBitsRem--)
 1754               		.loc 1 365 2 is_stmt 1 view .LVU353
 1755 003a 420F      		add r20,r18
 1756 003c 531F      		adc r21,r19
 1757               	.LVL126:
 355:./tmk_core/protocol/lufa/LUFA-git/LUFA/Drivers/USB/Class/Common/HIDParser.c **** 
 1758               		.loc 1 355 11 is_stmt 0 view .LVU354
 1759 003e C12C      		mov r12,__zero_reg__
 1760 0040 D12C      		mov r13,__zero_reg__
 1761 0042 7601      		movw r14,r12
 1762 0044 C394      		inc r12
 1763               	.LVL127:
 366:./tmk_core/protocol/lufa/LUFA-git/LUFA/Drivers/USB/Class/Common/HIDParser.c **** 	{
 367:./tmk_core/protocol/lufa/LUFA-git/LUFA/Drivers/USB/Class/Common/HIDParser.c **** 		if (ReportItem->Value & (1 << (CurrentBit % 8)))
 1764               		.loc 1 367 30 view .LVU355
 1765 0046 61E0      		ldi r22,lo8(1)
 1766 0048 70E0      		ldi r23,0
 1767               	.LVL128:
 1768               	.L100:
 365:./tmk_core/protocol/lufa/LUFA-git/LUFA/Drivers/USB/Class/Common/HIDParser.c **** 	{
 1769               		.loc 1 365 9 is_stmt 1 view .LVU356
 365:./tmk_core/protocol/lufa/LUFA-git/LUFA/Drivers/USB/Class/Common/HIDParser.c **** 	{
 1770               		.loc 1 365 9 is_stmt 0 view .LVU357
 1771 004a 2417      		cp r18,r20
 1772 004c 3507      		cpc r19,r21
 1773 004e 01F4      		brne .L102
 1774               	.LVL129:
 1775               	.L97:
 1776               	/* epilogue start */
 368:./tmk_core/protocol/lufa/LUFA-git/LUFA/Drivers/USB/Class/Common/HIDParser.c **** 		  ReportData[CurrentBit / 8] |= BitMask;
 369:./tmk_core/protocol/lufa/LUFA-git/LUFA/Drivers/USB/Class/Common/HIDParser.c **** 
 370:./tmk_core/protocol/lufa/LUFA-git/LUFA/Drivers/USB/Class/Common/HIDParser.c **** 		CurrentBit++;
 371:./tmk_core/protocol/lufa/LUFA-git/LUFA/Drivers/USB/Class/Common/HIDParser.c **** 		BitMask <<= 1;
 372:./tmk_core/protocol/lufa/LUFA-git/LUFA/Drivers/USB/Class/Common/HIDParser.c **** 	}
 373:./tmk_core/protocol/lufa/LUFA-git/LUFA/Drivers/USB/Class/Common/HIDParser.c **** }
 1777               		.loc 1 373 1 view .LVU358
 1778 0050 DF91      		pop r29
 1779 0052 CF91      		pop r28
 1780               	.LVL130:
 1781               		.loc 1 373 1 view .LVU359
 1782 0054 FF90      		pop r15
 1783 0056 EF90      		pop r14
 1784 0058 DF90      		pop r13
 1785 005a CF90      		pop r12
 1786 005c BF90      		pop r11
 1787 005e AF90      		pop r10
 1788 0060 9F90      		pop r9
 1789 0062 8F90      		pop r8
 1790 0064 0895      		ret
 1791               	.LVL131:
 1792               	.L102:
 367:./tmk_core/protocol/lufa/LUFA-git/LUFA/Drivers/USB/Class/Common/HIDParser.c **** 		  ReportData[CurrentBit / 8] |= BitMask;
 1793               		.loc 1 367 3 is_stmt 1 view .LVU360
 367:./tmk_core/protocol/lufa/LUFA-git/LUFA/Drivers/USB/Class/Common/HIDParser.c **** 		  ReportData[CurrentBit / 8] |= BitMask;
 1794               		.loc 1 367 45 is_stmt 0 view .LVU361
 1795 0066 C901      		movw r24,r18
 1796 0068 8770      		andi r24,7
 1797 006a 9927      		clr r25
 367:./tmk_core/protocol/lufa/LUFA-git/LUFA/Drivers/USB/Class/Common/HIDParser.c **** 		  ReportData[CurrentBit / 8] |= BitMask;
 1798               		.loc 1 367 30 view .LVU362
 1799 006c DB01      		movw r26,r22
 1800 006e 00C0      		rjmp 2f
 1801               		1:
 1802 0070 AA0F      		lsl r26
 1803 0072 BB1F      		rol r27
 1804               		2:
 1805 0074 8A95      		dec r24
 1806 0076 02F4      		brpl 1b
 1807 0078 CD01      		movw r24,r26
 1808 007a 092E      		mov __tmp_reg__,r25
 1809 007c 000C      		lsl r0
 1810 007e AA0B      		sbc r26,r26
 1811 0080 BB0B      		sbc r27,r27
 367:./tmk_core/protocol/lufa/LUFA-git/LUFA/Drivers/USB/Class/Common/HIDParser.c **** 		  ReportData[CurrentBit / 8] |= BitMask;
 1812               		.loc 1 367 25 view .LVU363
 1813 0082 82A0      		ldd r8,Z+34
 1814 0084 93A0      		ldd r9,Z+35
 1815 0086 A4A0      		ldd r10,Z+36
 1816 0088 B5A0      		ldd r11,Z+37
 1817 008a 8821      		and r24,r8
 1818 008c 9921      		and r25,r9
 1819 008e AA21      		and r26,r10
 1820 0090 BB21      		and r27,r11
 367:./tmk_core/protocol/lufa/LUFA-git/LUFA/Drivers/USB/Class/Common/HIDParser.c **** 		  ReportData[CurrentBit / 8] |= BitMask;
 1821               		.loc 1 367 6 view .LVU364
 1822 0092 892B      		or r24,r25
 1823 0094 8A2B      		or r24,r26
 1824 0096 8B2B      		or r24,r27
 1825 0098 01F0      		breq .L101
 368:./tmk_core/protocol/lufa/LUFA-git/LUFA/Drivers/USB/Class/Common/HIDParser.c **** 		  ReportData[CurrentBit / 8] |= BitMask;
 1826               		.loc 1 368 5 is_stmt 1 view .LVU365
 368:./tmk_core/protocol/lufa/LUFA-git/LUFA/Drivers/USB/Class/Common/HIDParser.c **** 		  ReportData[CurrentBit / 8] |= BitMask;
 1827               		.loc 1 368 27 is_stmt 0 view .LVU366
 1828 009a D901      		movw r26,r18
 1829 009c 93E0      		ldi r25,3
 1830               		1:
 1831 009e B695      		lsr r27
 1832 00a0 A795      		ror r26
 1833 00a2 9A95      		dec r25
 1834 00a4 01F4      		brne 1b
 368:./tmk_core/protocol/lufa/LUFA-git/LUFA/Drivers/USB/Class/Common/HIDParser.c **** 		  ReportData[CurrentBit / 8] |= BitMask;
 1835               		.loc 1 368 15 view .LVU367
 1836 00a6 AC0F      		add r26,r28
 1837 00a8 BD1F      		adc r27,r29
 368:./tmk_core/protocol/lufa/LUFA-git/LUFA/Drivers/USB/Class/Common/HIDParser.c **** 		  ReportData[CurrentBit / 8] |= BitMask;
 1838               		.loc 1 368 32 view .LVU368
 1839 00aa 8C91      		ld r24,X
 1840 00ac 8C29      		or r24,r12
 1841 00ae 8C93      		st X,r24
 1842               	.L101:
 370:./tmk_core/protocol/lufa/LUFA-git/LUFA/Drivers/USB/Class/Common/HIDParser.c **** 		BitMask <<= 1;
 1843               		.loc 1 370 3 is_stmt 1 view .LVU369
 370:./tmk_core/protocol/lufa/LUFA-git/LUFA/Drivers/USB/Class/Common/HIDParser.c **** 		BitMask <<= 1;
 1844               		.loc 1 370 13 is_stmt 0 view .LVU370
 1845 00b0 2F5F      		subi r18,-1
 1846 00b2 3F4F      		sbci r19,-1
 1847               	.LVL132:
 371:./tmk_core/protocol/lufa/LUFA-git/LUFA/Drivers/USB/Class/Common/HIDParser.c **** 	}
 1848               		.loc 1 371 3 is_stmt 1 view .LVU371
 371:./tmk_core/protocol/lufa/LUFA-git/LUFA/Drivers/USB/Class/Common/HIDParser.c **** 	}
 1849               		.loc 1 371 11 is_stmt 0 view .LVU372
 1850 00b4 CC0C      		lsl r12
 1851 00b6 DD1C      		rol r13
 1852 00b8 EE1C      		rol r14
 1853 00ba FF1C      		rol r15
 1854               	.LVL133:
 371:./tmk_core/protocol/lufa/LUFA-git/LUFA/Drivers/USB/Class/Common/HIDParser.c **** 	}
 1855               		.loc 1 371 11 view .LVU373
 1856 00bc 00C0      		rjmp .L100
 1857               		.cfi_endproc
 1858               	.LFE22:
 1860               		.section	.text.USB_GetHIDReportSize,"ax",@progbits
 1861               	.global	USB_GetHIDReportSize
 1863               	USB_GetHIDReportSize:
 1864               	.LVL134:
 1865               	.LFB23:
 374:./tmk_core/protocol/lufa/LUFA-git/LUFA/Drivers/USB/Class/Common/HIDParser.c **** 
 375:./tmk_core/protocol/lufa/LUFA-git/LUFA/Drivers/USB/Class/Common/HIDParser.c **** uint16_t USB_GetHIDReportSize(HID_ReportInfo_t* const ParserData,
 376:./tmk_core/protocol/lufa/LUFA-git/LUFA/Drivers/USB/Class/Common/HIDParser.c ****                               const uint8_t ReportID,
 377:./tmk_core/protocol/lufa/LUFA-git/LUFA/Drivers/USB/Class/Common/HIDParser.c ****                               const uint8_t ReportType)
 378:./tmk_core/protocol/lufa/LUFA-git/LUFA/Drivers/USB/Class/Common/HIDParser.c **** {
 1866               		.loc 1 378 1 is_stmt 1 view -0
 1867               		.cfi_startproc
 1868               	/* prologue: function */
 1869               	/* frame size = 0 */
 1870               	/* stack size = 0 */
 1871               	.L__stack_usage = 0
 1872               		.loc 1 378 1 is_stmt 0 view .LVU375
 1873 0000 9C01      		movw r18,r24
 379:./tmk_core/protocol/lufa/LUFA-git/LUFA/Drivers/USB/Class/Common/HIDParser.c **** 	for (uint8_t i = 0; i < HID_MAX_REPORT_IDS; i++)
 1874               		.loc 1 379 2 is_stmt 1 view .LVU376
 1875               	.LBB18:
 1876               		.loc 1 379 7 view .LVU377
 1877               	.LVL135:
 1878               		.loc 1 379 24 view .LVU378
 1879 0002 FC01      		movw r30,r24
 1880 0004 E057      		subi r30,112
 1881 0006 FC4F      		sbci r31,-4
 1882               	.LBE18:
 378:./tmk_core/protocol/lufa/LUFA-git/LUFA/Drivers/USB/Class/Common/HIDParser.c **** 	for (uint8_t i = 0; i < HID_MAX_REPORT_IDS; i++)
 1883               		.loc 1 378 1 is_stmt 0 view .LVU379
 1884 0008 80E0      		ldi r24,0
 1885 000a 90E0      		ldi r25,0
 1886               	.LVL136:
 1887               	.L114:
 1888               	.LBB20:
 1889               	.LBB19:
 380:./tmk_core/protocol/lufa/LUFA-git/LUFA/Drivers/USB/Class/Common/HIDParser.c **** 	{
 381:./tmk_core/protocol/lufa/LUFA-git/LUFA/Drivers/USB/Class/Common/HIDParser.c **** 		uint16_t ReportSizeBits = ParserData->ReportIDSizes[i].ReportSizeBits[ReportType];
 1890               		.loc 1 381 3 is_stmt 1 view .LVU380
 382:./tmk_core/protocol/lufa/LUFA-git/LUFA/Drivers/USB/Class/Common/HIDParser.c **** 
 383:./tmk_core/protocol/lufa/LUFA-git/LUFA/Drivers/USB/Class/Common/HIDParser.c **** 		if (ParserData->ReportIDSizes[i].ReportID == ReportID)
 1891               		.loc 1 383 3 view .LVU381
 1892               		.loc 1 383 6 is_stmt 0 view .LVU382
 1893 000c 5081      		ld r21,Z
 1894 000e 5613      		cpse r21,r22
 1895 0010 00C0      		rjmp .L111
 381:./tmk_core/protocol/lufa/LUFA-git/LUFA/Drivers/USB/Class/Common/HIDParser.c **** 
 1896               		.loc 1 381 72 view .LVU383
 1897 0012 E42F      		mov r30,r20
 1898 0014 F0E0      		ldi r31,0
 381:./tmk_core/protocol/lufa/LUFA-git/LUFA/Drivers/USB/Class/Common/HIDParser.c **** 
 1899               		.loc 1 381 12 view .LVU384
 1900 0016 EE0F      		lsl r30
 1901 0018 FF1F      		rol r31
 1902 001a 67E0      		ldi r22,lo8(7)
 1903               	.LVL137:
 381:./tmk_core/protocol/lufa/LUFA-git/LUFA/Drivers/USB/Class/Common/HIDParser.c **** 
 1904               		.loc 1 381 12 view .LVU385
 1905 001c 689F      		mul r22,r24
 1906 001e A001      		movw r20,r0
 1907 0020 699F      		mul r22,r25
 1908 0022 500D      		add r21,r0
 1909 0024 1124      		clr __zero_reg__
 1910               	.LVL138:
 381:./tmk_core/protocol/lufa/LUFA-git/LUFA/Drivers/USB/Class/Common/HIDParser.c **** 
 1911               		.loc 1 381 12 view .LVU386
 1912 0026 E40F      		add r30,r20
 1913 0028 F51F      		adc r31,r21
 1914 002a E20F      		add r30,r18
 1915 002c F31F      		adc r31,r19
 1916 002e EF56      		subi r30,111
 1917 0030 FC4F      		sbci r31,-4
 1918 0032 8081      		ld r24,Z
 1919 0034 9181      		ldd r25,Z+1
 1920               	.LVL139:
 384:./tmk_core/protocol/lufa/LUFA-git/LUFA/Drivers/USB/Class/Common/HIDParser.c **** 		  return (ReportSizeBits / 8) + ((ReportSizeBits % 8) ? 1 : 0);
 1921               		.loc 1 384 5 is_stmt 1 view .LVU387
 1922               		.loc 1 384 52 is_stmt 0 view .LVU388
 1923 0036 AC01      		movw r20,r24
 1924 0038 4770      		andi r20,7
 1925 003a 5527      		clr r21
 1926               		.loc 1 384 61 view .LVU389
 1927 003c 21E0      		ldi r18,lo8(1)
 1928 003e 30E0      		ldi r19,0
 1929               	.LVL140:
 1930               		.loc 1 384 61 view .LVU390
 1931 0040 452B      		or r20,r21
 1932 0042 01F4      		brne .L112
 1933 0044 20E0      		ldi r18,0
 1934 0046 30E0      		ldi r19,0
 1935               	.L112:
 1936               		.loc 1 384 28 view .LVU391
 1937 0048 43E0      		ldi r20,3
 1938               		1:
 1939 004a 9695      		lsr r25
 1940 004c 8795      		ror r24
 1941 004e 4A95      		dec r20
 1942 0050 01F4      		brne 1b
 1943               		.loc 1 384 33 view .LVU392
 1944 0052 820F      		add r24,r18
 1945 0054 931F      		adc r25,r19
 1946 0056 0895      		ret
 1947               	.LVL141:
 1948               	.L111:
 1949               		.loc 1 384 33 view .LVU393
 1950               	.LBE19:
 379:./tmk_core/protocol/lufa/LUFA-git/LUFA/Drivers/USB/Class/Common/HIDParser.c **** 	{
 1951               		.loc 1 379 47 is_stmt 1 discriminator 2 view .LVU394
 379:./tmk_core/protocol/lufa/LUFA-git/LUFA/Drivers/USB/Class/Common/HIDParser.c **** 	{
 1952               		.loc 1 379 24 discriminator 2 view .LVU395
 1953 0058 0196      		adiw r24,1
 1954               	.LVL142:
 379:./tmk_core/protocol/lufa/LUFA-git/LUFA/Drivers/USB/Class/Common/HIDParser.c **** 	{
 1955               		.loc 1 379 24 is_stmt 0 discriminator 2 view .LVU396
 1956 005a 3796      		adiw r30,7
 1957 005c 8A30      		cpi r24,10
 1958 005e 9105      		cpc r25,__zero_reg__
 1959 0060 01F4      		brne .L114
 1960               	.LBE20:
 385:./tmk_core/protocol/lufa/LUFA-git/LUFA/Drivers/USB/Class/Common/HIDParser.c **** 	}
 386:./tmk_core/protocol/lufa/LUFA-git/LUFA/Drivers/USB/Class/Common/HIDParser.c **** 
 387:./tmk_core/protocol/lufa/LUFA-git/LUFA/Drivers/USB/Class/Common/HIDParser.c **** 	return 0;
 1961               		.loc 1 387 9 view .LVU397
 1962 0062 80E0      		ldi r24,0
 1963 0064 90E0      		ldi r25,0
 1964               	.LVL143:
 1965               	/* epilogue start */
 388:./tmk_core/protocol/lufa/LUFA-git/LUFA/Drivers/USB/Class/Common/HIDParser.c **** }
 1966               		.loc 1 388 1 view .LVU398
 1967 0066 0895      		ret
 1968               		.cfi_endproc
 1969               	.LFE23:
 1971               		.text
 1972               	.Letext0:
 1973               		.file 2 "/usr/avr/include/stdint.h"
 1974               		.file 3 "/usr/lib/gcc/avr/12.2.0/include/stddef.h"
 1975               		.file 4 "./tmk_core/protocol/lufa/LUFA-git/LUFA/Drivers/USB/Class/Common/HIDClassCommon.h"
 1976               		.file 5 "./tmk_core/protocol/lufa/LUFA-git/LUFA/Drivers/USB/Class/Common/HIDParser.h"
 1977               		.file 6 "/usr/avr/include/string.h"
 1978               		.file 7 "<built-in>"