   1               		.file	"command.c"
   2               	__SP_H__ = 0x3e
   3               	__SP_L__ = 0x3d
   4               	__SREG__ = 0x3f
   5               	__tmp_reg__ = 0
   6               	__zero_reg__ = 1
   7               		.text
   8               	.Ltext0:
   9               		.cfi_sections	.debug_frame
  10               		.section	.text.mousekey_console_help,"ax",@progbits
  12               	mousekey_console_help:
  13               	.LFB37:
  14               		.file 1 "tmk_core/common/command.c"
   1:tmk_core/common/command.c **** /*
   2:tmk_core/common/command.c **** Copyright 2011 Jun Wako <wakojun@gmail.com>
   3:tmk_core/common/command.c **** 
   4:tmk_core/common/command.c **** This program is free software: you can redistribute it and/or modify
   5:tmk_core/common/command.c **** it under the terms of the GNU General Public License as published by
   6:tmk_core/common/command.c **** the Free Software Foundation, either version 2 of the License, or
   7:tmk_core/common/command.c **** (at your option) any later version.
   8:tmk_core/common/command.c **** 
   9:tmk_core/common/command.c **** This program is distributed in the hope that it will be useful,
  10:tmk_core/common/command.c **** but WITHOUT ANY WARRANTY; without even the implied warranty of
  11:tmk_core/common/command.c **** MERCHANTABILITY or FITNESS FOR A PARTICULAR PURPOSE.  See the
  12:tmk_core/common/command.c **** GNU General Public License for more details.
  13:tmk_core/common/command.c **** 
  14:tmk_core/common/command.c **** You should have received a copy of the GNU General Public License
  15:tmk_core/common/command.c **** along with this program.  If not, see <http://www.gnu.org/licenses/>.
  16:tmk_core/common/command.c **** */
  17:tmk_core/common/command.c **** #include <stdint.h>
  18:tmk_core/common/command.c **** #include <stdbool.h>
  19:tmk_core/common/command.c **** #include "wait.h"
  20:tmk_core/common/command.c **** #include "keycode.h"
  21:tmk_core/common/command.c **** #include "host.h"
  22:tmk_core/common/command.c **** #include "keymap.h"
  23:tmk_core/common/command.c **** #include "print.h"
  24:tmk_core/common/command.c **** #include "debug.h"
  25:tmk_core/common/command.c **** #include "util.h"
  26:tmk_core/common/command.c **** #include "timer.h"
  27:tmk_core/common/command.c **** #include "keyboard.h"
  28:tmk_core/common/command.c **** #include "bootloader.h"
  29:tmk_core/common/command.c **** #include "action_layer.h"
  30:tmk_core/common/command.c **** #include "action_util.h"
  31:tmk_core/common/command.c **** #include "eeconfig.h"
  32:tmk_core/common/command.c **** #include "sleep_led.h"
  33:tmk_core/common/command.c **** #include "led.h"
  34:tmk_core/common/command.c **** #include "command.h"
  35:tmk_core/common/command.c **** #include "quantum.h"
  36:tmk_core/common/command.c **** #include "version.h"
  37:tmk_core/common/command.c **** 
  38:tmk_core/common/command.c **** #ifdef BACKLIGHT_ENABLE
  39:tmk_core/common/command.c **** #    include "backlight.h"
  40:tmk_core/common/command.c **** #endif
  41:tmk_core/common/command.c **** 
  42:tmk_core/common/command.c **** #if defined(MOUSEKEY_ENABLE) && !defined(MK_3_SPEED)
  43:tmk_core/common/command.c **** #    include "mousekey.h"
  44:tmk_core/common/command.c **** #endif
  45:tmk_core/common/command.c **** 
  46:tmk_core/common/command.c **** #ifdef AUDIO_ENABLE
  47:tmk_core/common/command.c **** #    include "audio.h"
  48:tmk_core/common/command.c **** #endif /* AUDIO_ENABLE */
  49:tmk_core/common/command.c **** 
  50:tmk_core/common/command.c **** static bool command_common(uint8_t code);
  51:tmk_core/common/command.c **** static void command_common_help(void);
  52:tmk_core/common/command.c **** static void print_version(void);
  53:tmk_core/common/command.c **** static void print_status(void);
  54:tmk_core/common/command.c **** static bool command_console(uint8_t code);
  55:tmk_core/common/command.c **** static void command_console_help(void);
  56:tmk_core/common/command.c **** #if defined(MOUSEKEY_ENABLE) && !defined(MK_3_SPEED)
  57:tmk_core/common/command.c **** static bool mousekey_console(uint8_t code);
  58:tmk_core/common/command.c **** static void mousekey_console_help(void);
  59:tmk_core/common/command.c **** #endif
  60:tmk_core/common/command.c **** 
  61:tmk_core/common/command.c **** static void switch_default_layer(uint8_t layer);
  62:tmk_core/common/command.c **** 
  63:tmk_core/common/command.c **** command_state_t command_state = ONESHOT;
  64:tmk_core/common/command.c **** 
  65:tmk_core/common/command.c **** bool command_proc(uint8_t code) {
  66:tmk_core/common/command.c ****     switch (command_state) {
  67:tmk_core/common/command.c ****         case ONESHOT:
  68:tmk_core/common/command.c ****             if (!IS_COMMAND()) return false;
  69:tmk_core/common/command.c ****             return (command_extra(code) || command_common(code));
  70:tmk_core/common/command.c ****             break;
  71:tmk_core/common/command.c ****         case CONSOLE:
  72:tmk_core/common/command.c ****             if (IS_COMMAND())
  73:tmk_core/common/command.c ****                 return (command_extra(code) || command_common(code));
  74:tmk_core/common/command.c ****             else
  75:tmk_core/common/command.c ****                 return (command_console_extra(code) || command_console(code));
  76:tmk_core/common/command.c ****             break;
  77:tmk_core/common/command.c **** #if defined(MOUSEKEY_ENABLE) && !defined(MK_3_SPEED)
  78:tmk_core/common/command.c ****         case MOUSEKEY:
  79:tmk_core/common/command.c ****             mousekey_console(code);
  80:tmk_core/common/command.c ****             break;
  81:tmk_core/common/command.c **** #endif
  82:tmk_core/common/command.c ****         default:
  83:tmk_core/common/command.c ****             command_state = ONESHOT;
  84:tmk_core/common/command.c ****             return false;
  85:tmk_core/common/command.c ****     }
  86:tmk_core/common/command.c ****     return true;
  87:tmk_core/common/command.c **** }
  88:tmk_core/common/command.c **** 
  89:tmk_core/common/command.c **** /* TODO: Refactoring is needed. */
  90:tmk_core/common/command.c **** /* This allows to define extra commands. return false when not processed. */
  91:tmk_core/common/command.c **** bool command_extra(uint8_t code) __attribute__((weak));
  92:tmk_core/common/command.c **** bool command_extra(uint8_t code) {
  93:tmk_core/common/command.c ****     (void)code;
  94:tmk_core/common/command.c ****     return false;
  95:tmk_core/common/command.c **** }
  96:tmk_core/common/command.c **** 
  97:tmk_core/common/command.c **** bool command_console_extra(uint8_t code) __attribute__((weak));
  98:tmk_core/common/command.c **** bool command_console_extra(uint8_t code) {
  99:tmk_core/common/command.c ****     (void)code;
 100:tmk_core/common/command.c ****     return false;
 101:tmk_core/common/command.c **** }
 102:tmk_core/common/command.c **** 
 103:tmk_core/common/command.c **** /***********************************************************
 104:tmk_core/common/command.c ****  * Command common
 105:tmk_core/common/command.c ****  ***********************************************************/
 106:tmk_core/common/command.c **** static void command_common_help(void) {
 107:tmk_core/common/command.c ****     print("\n\t- Magic -\n" STR(MAGIC_KEY_DEBUG) ":	Debug Message Toggle\n" STR(MAGIC_KEY_DEBUG_MAT
 108:tmk_core/common/command.c **** 
 109:tmk_core/common/command.c **** #if MAGIC_KEY_SWITCH_LAYER_WITH_CUSTOM
 110:tmk_core/common/command.c ****           STR(MAGIC_KEY_LAYER0) ":	Switch to Layer 0\n" STR(MAGIC_KEY_LAYER1) ":	Switch to Layer 1\
 111:tmk_core/common/command.c **** #endif
 112:tmk_core/common/command.c **** 
 113:tmk_core/common/command.c **** #if MAGIC_KEY_SWITCH_LAYER_WITH_FKEYS
 114:tmk_core/common/command.c ****                                                                                                    
 115:tmk_core/common/command.c **** #endif
 116:tmk_core/common/command.c **** 
 117:tmk_core/common/command.c **** #if MAGIC_KEY_SWITCH_LAYER_WITH_NKEYS
 118:tmk_core/common/command.c ****                                                                                                    
 119:tmk_core/common/command.c **** #endif
 120:tmk_core/common/command.c **** 
 121:tmk_core/common/command.c ****           STR(MAGIC_KEY_LAYER0_ALT) ":	Switch to Layer 0 (alternate)\n"
 122:tmk_core/common/command.c **** 
 123:tmk_core/common/command.c ****           STR(MAGIC_KEY_BOOTLOADER) ":	Jump to Bootloader\n" STR(MAGIC_KEY_BOOTLOADER_ALT) ":	Jump 
 124:tmk_core/common/command.c **** 
 125:tmk_core/common/command.c **** #ifdef KEYBOARD_LOCK_ENABLE
 126:tmk_core/common/command.c ****           STR(MAGIC_KEY_LOCK) ":	Lock Keyboard\n"
 127:tmk_core/common/command.c **** #endif
 128:tmk_core/common/command.c **** 
 129:tmk_core/common/command.c ****           STR(MAGIC_KEY_EEPROM) ":	Print EEPROM Settings\n" STR(MAGIC_KEY_EEPROM_CLEAR) ":	Clear EE
 130:tmk_core/common/command.c **** 
 131:tmk_core/common/command.c **** #ifdef NKRO_ENABLE
 132:tmk_core/common/command.c ****           STR(MAGIC_KEY_NKRO) ":	NKRO Toggle\n"
 133:tmk_core/common/command.c **** #endif
 134:tmk_core/common/command.c **** 
 135:tmk_core/common/command.c **** #ifdef SLEEP_LED_ENABLE
 136:tmk_core/common/command.c ****           STR(MAGIC_KEY_SLEEP_LED) ":	Sleep LED Test\n"
 137:tmk_core/common/command.c **** #endif
 138:tmk_core/common/command.c ****     );
 139:tmk_core/common/command.c **** }
 140:tmk_core/common/command.c **** 
 141:tmk_core/common/command.c **** static void print_version(void) {
 142:tmk_core/common/command.c ****     // print version & information
 143:tmk_core/common/command.c ****     print("\n\t- Version -\n");
 144:tmk_core/common/command.c ****     print("VID: " STR(VENDOR_ID) "(" STR(MANUFACTURER) ") "
 145:tmk_core/common/command.c ****                                                        "PID: " STR(PRODUCT_ID) "(" STR(PRODUCT) ") 
 146:tmk_core/common/command.c ****                                                                                                 "VE
 147:tmk_core/common/command.c **** #ifdef SKIP_VERSION
 148:tmk_core/common/command.c ****     print("BUILD:  (" __DATE__ ")\n");
 149:tmk_core/common/command.c **** #else
 150:tmk_core/common/command.c ****     print("BUILD: " STR(QMK_VERSION) " (" __TIME__ " " __DATE__ ")\n");
 151:tmk_core/common/command.c **** #    ifdef PROTOCOL_CHIBIOS
 152:tmk_core/common/command.c ****     print("CHIBIOS: " STR(CHIBIOS_VERSION) ", CONTRIB: " STR(CHIBIOS_CONTRIB_VERSION) "\n");
 153:tmk_core/common/command.c **** #    endif
 154:tmk_core/common/command.c **** #endif
 155:tmk_core/common/command.c **** 
 156:tmk_core/common/command.c ****     /* build options */
 157:tmk_core/common/command.c ****     print("OPTIONS:"
 158:tmk_core/common/command.c **** 
 159:tmk_core/common/command.c **** #ifdef PROTOCOL_LUFA
 160:tmk_core/common/command.c ****           " LUFA"
 161:tmk_core/common/command.c **** #endif
 162:tmk_core/common/command.c **** #ifdef PROTOCOL_VUSB
 163:tmk_core/common/command.c ****           " VUSB"
 164:tmk_core/common/command.c **** #endif
 165:tmk_core/common/command.c **** #ifdef BOOTMAGIC_ENABLE
 166:tmk_core/common/command.c ****           " BOOTMAGIC"
 167:tmk_core/common/command.c **** #endif
 168:tmk_core/common/command.c **** #ifdef MOUSEKEY_ENABLE
 169:tmk_core/common/command.c ****           " MOUSEKEY"
 170:tmk_core/common/command.c **** #endif
 171:tmk_core/common/command.c **** #ifdef EXTRAKEY_ENABLE
 172:tmk_core/common/command.c ****           " EXTRAKEY"
 173:tmk_core/common/command.c **** #endif
 174:tmk_core/common/command.c **** #ifdef CONSOLE_ENABLE
 175:tmk_core/common/command.c ****           " CONSOLE"
 176:tmk_core/common/command.c **** #endif
 177:tmk_core/common/command.c **** #ifdef COMMAND_ENABLE
 178:tmk_core/common/command.c ****           " COMMAND"
 179:tmk_core/common/command.c **** #endif
 180:tmk_core/common/command.c **** #ifdef NKRO_ENABLE
 181:tmk_core/common/command.c ****           " NKRO"
 182:tmk_core/common/command.c **** #endif
 183:tmk_core/common/command.c **** #ifdef LTO_ENABLE
 184:tmk_core/common/command.c ****           " LTO"
 185:tmk_core/common/command.c **** #endif
 186:tmk_core/common/command.c **** 
 187:tmk_core/common/command.c ****           " " STR(BOOTLOADER_SIZE) "\n");
 188:tmk_core/common/command.c **** 
 189:tmk_core/common/command.c ****     print("GCC: " STR(__GNUC__) "." STR(__GNUC_MINOR__) "." STR(__GNUC_PATCHLEVEL__)
 190:tmk_core/common/command.c **** #if defined(__AVR__)
 191:tmk_core/common/command.c ****               " AVR-LIBC: " __AVR_LIBC_VERSION_STRING__ " AVR_ARCH: avr" STR(__AVR_ARCH__)
 192:tmk_core/common/command.c **** #endif
 193:tmk_core/common/command.c ****                   "\n");
 194:tmk_core/common/command.c **** 
 195:tmk_core/common/command.c ****     return;
 196:tmk_core/common/command.c **** }
 197:tmk_core/common/command.c **** 
 198:tmk_core/common/command.c **** static void print_status(void) {
 199:tmk_core/common/command.c ****     print("\n\t- Status -\n");
 200:tmk_core/common/command.c **** 
 201:tmk_core/common/command.c ****     print_val_hex8(host_keyboard_leds());
 202:tmk_core/common/command.c **** #ifndef PROTOCOL_VUSB
 203:tmk_core/common/command.c ****     // these aren't set on the V-USB protocol, so we just ignore them for now
 204:tmk_core/common/command.c ****     print_val_hex8(keyboard_protocol);
 205:tmk_core/common/command.c ****     print_val_hex8(keyboard_idle);
 206:tmk_core/common/command.c **** #endif
 207:tmk_core/common/command.c **** #ifdef NKRO_ENABLE
 208:tmk_core/common/command.c ****     print_val_hex8(keymap_config.nkro);
 209:tmk_core/common/command.c **** #endif
 210:tmk_core/common/command.c ****     print_val_hex32(timer_read32());
 211:tmk_core/common/command.c ****     return;
 212:tmk_core/common/command.c **** }
 213:tmk_core/common/command.c **** 
 214:tmk_core/common/command.c **** static void print_eeconfig(void) {
 215:tmk_core/common/command.c **** // Print these variables if NO_PRINT or USER_PRINT are not defined.
 216:tmk_core/common/command.c **** #if !defined(NO_PRINT) && !defined(USER_PRINT)
 217:tmk_core/common/command.c **** 
 218:tmk_core/common/command.c ****     print("default_layer: ");
 219:tmk_core/common/command.c ****     print_dec(eeconfig_read_default_layer());
 220:tmk_core/common/command.c ****     print("\n");
 221:tmk_core/common/command.c **** 
 222:tmk_core/common/command.c ****     debug_config_t dc;
 223:tmk_core/common/command.c ****     dc.raw = eeconfig_read_debug();
 224:tmk_core/common/command.c ****     print("debug_config.raw: ");
 225:tmk_core/common/command.c ****     print_hex8(dc.raw);
 226:tmk_core/common/command.c ****     print("\n");
 227:tmk_core/common/command.c ****     print(".enable: ");
 228:tmk_core/common/command.c ****     print_dec(dc.enable);
 229:tmk_core/common/command.c ****     print("\n");
 230:tmk_core/common/command.c ****     print(".matrix: ");
 231:tmk_core/common/command.c ****     print_dec(dc.matrix);
 232:tmk_core/common/command.c ****     print("\n");
 233:tmk_core/common/command.c ****     print(".keyboard: ");
 234:tmk_core/common/command.c ****     print_dec(dc.keyboard);
 235:tmk_core/common/command.c ****     print("\n");
 236:tmk_core/common/command.c ****     print(".mouse: ");
 237:tmk_core/common/command.c ****     print_dec(dc.mouse);
 238:tmk_core/common/command.c ****     print("\n");
 239:tmk_core/common/command.c **** 
 240:tmk_core/common/command.c ****     keymap_config_t kc;
 241:tmk_core/common/command.c ****     kc.raw = eeconfig_read_keymap();
 242:tmk_core/common/command.c ****     print("keymap_config.raw: ");
 243:tmk_core/common/command.c ****     print_hex8(kc.raw);
 244:tmk_core/common/command.c ****     print("\n");
 245:tmk_core/common/command.c ****     print(".swap_control_capslock: ");
 246:tmk_core/common/command.c ****     print_dec(kc.swap_control_capslock);
 247:tmk_core/common/command.c ****     print("\n");
 248:tmk_core/common/command.c ****     print(".capslock_to_control: ");
 249:tmk_core/common/command.c ****     print_dec(kc.capslock_to_control);
 250:tmk_core/common/command.c ****     print("\n");
 251:tmk_core/common/command.c ****     print(".swap_lctl_lgui: ");
 252:tmk_core/common/command.c ****     print_dec(kc.swap_lctl_lgui);
 253:tmk_core/common/command.c ****     print("\n");
 254:tmk_core/common/command.c ****     print(".swap_rctl_rgui: ");
 255:tmk_core/common/command.c ****     print_dec(kc.swap_rctl_rgui);
 256:tmk_core/common/command.c ****     print("\n");
 257:tmk_core/common/command.c ****     print(".swap_lalt_lgui: ");
 258:tmk_core/common/command.c ****     print_dec(kc.swap_lalt_lgui);
 259:tmk_core/common/command.c ****     print("\n");
 260:tmk_core/common/command.c ****     print(".swap_ralt_rgui: ");
 261:tmk_core/common/command.c ****     print_dec(kc.swap_ralt_rgui);
 262:tmk_core/common/command.c ****     print("\n");
 263:tmk_core/common/command.c ****     print(".no_gui: ");
 264:tmk_core/common/command.c ****     print_dec(kc.no_gui);
 265:tmk_core/common/command.c ****     print("\n");
 266:tmk_core/common/command.c ****     print(".swap_grave_esc: ");
 267:tmk_core/common/command.c ****     print_dec(kc.swap_grave_esc);
 268:tmk_core/common/command.c ****     print("\n");
 269:tmk_core/common/command.c ****     print(".swap_backslash_backspace: ");
 270:tmk_core/common/command.c ****     print_dec(kc.swap_backslash_backspace);
 271:tmk_core/common/command.c ****     print("\n");
 272:tmk_core/common/command.c ****     print(".nkro: ");
 273:tmk_core/common/command.c ****     print_dec(kc.nkro);
 274:tmk_core/common/command.c ****     print("\n");
 275:tmk_core/common/command.c **** 
 276:tmk_core/common/command.c **** #    ifdef BACKLIGHT_ENABLE
 277:tmk_core/common/command.c ****     backlight_config_t bc;
 278:tmk_core/common/command.c ****     bc.raw = eeconfig_read_backlight();
 279:tmk_core/common/command.c ****     print("backlight_config.raw: ");
 280:tmk_core/common/command.c ****     print_hex8(bc.raw);
 281:tmk_core/common/command.c ****     print("\n");
 282:tmk_core/common/command.c ****     print(".enable: ");
 283:tmk_core/common/command.c ****     print_dec(bc.enable);
 284:tmk_core/common/command.c ****     print("\n");
 285:tmk_core/common/command.c ****     print(".level: ");
 286:tmk_core/common/command.c ****     print_dec(bc.level);
 287:tmk_core/common/command.c ****     print("\n");
 288:tmk_core/common/command.c **** #    endif /* BACKLIGHT_ENABLE */
 289:tmk_core/common/command.c **** 
 290:tmk_core/common/command.c **** #endif /* !NO_PRINT */
 291:tmk_core/common/command.c **** }
 292:tmk_core/common/command.c **** 
 293:tmk_core/common/command.c **** static bool command_common(uint8_t code) {
 294:tmk_core/common/command.c **** #ifdef KEYBOARD_LOCK_ENABLE
 295:tmk_core/common/command.c ****     static host_driver_t *host_driver = 0;
 296:tmk_core/common/command.c **** #endif
 297:tmk_core/common/command.c **** 
 298:tmk_core/common/command.c ****     switch (code) {
 299:tmk_core/common/command.c **** #ifdef SLEEP_LED_ENABLE
 300:tmk_core/common/command.c **** 
 301:tmk_core/common/command.c ****         // test breathing sleep LED
 302:tmk_core/common/command.c ****         case MAGIC_KC(MAGIC_KEY_SLEEP_LED):
 303:tmk_core/common/command.c ****             print("Sleep LED Test\n");
 304:tmk_core/common/command.c ****             sleep_led_toggle();
 305:tmk_core/common/command.c ****             led_set(host_keyboard_leds());
 306:tmk_core/common/command.c ****             break;
 307:tmk_core/common/command.c **** #endif
 308:tmk_core/common/command.c **** 
 309:tmk_core/common/command.c ****         // print stored eeprom config
 310:tmk_core/common/command.c ****         case MAGIC_KC(MAGIC_KEY_EEPROM):
 311:tmk_core/common/command.c ****             print("eeconfig:\n");
 312:tmk_core/common/command.c ****             print_eeconfig();
 313:tmk_core/common/command.c ****             break;
 314:tmk_core/common/command.c **** 
 315:tmk_core/common/command.c ****         // clear eeprom
 316:tmk_core/common/command.c ****         case MAGIC_KC(MAGIC_KEY_EEPROM_CLEAR):
 317:tmk_core/common/command.c ****             print("Clearing EEPROM\n");
 318:tmk_core/common/command.c ****             eeconfig_init();
 319:tmk_core/common/command.c ****             break;
 320:tmk_core/common/command.c **** 
 321:tmk_core/common/command.c **** #ifdef KEYBOARD_LOCK_ENABLE
 322:tmk_core/common/command.c **** 
 323:tmk_core/common/command.c ****         // lock/unlock keyboard
 324:tmk_core/common/command.c ****         case MAGIC_KC(MAGIC_KEY_LOCK):
 325:tmk_core/common/command.c ****             if (host_get_driver()) {
 326:tmk_core/common/command.c ****                 host_driver = host_get_driver();
 327:tmk_core/common/command.c ****                 clear_keyboard();
 328:tmk_core/common/command.c ****                 host_set_driver(0);
 329:tmk_core/common/command.c ****                 print("Locked.\n");
 330:tmk_core/common/command.c ****             } else {
 331:tmk_core/common/command.c ****                 host_set_driver(host_driver);
 332:tmk_core/common/command.c ****                 print("Unlocked.\n");
 333:tmk_core/common/command.c ****             }
 334:tmk_core/common/command.c ****             break;
 335:tmk_core/common/command.c **** #endif
 336:tmk_core/common/command.c **** 
 337:tmk_core/common/command.c ****         // print help
 338:tmk_core/common/command.c ****         case MAGIC_KC(MAGIC_KEY_HELP):
 339:tmk_core/common/command.c ****         case MAGIC_KC(MAGIC_KEY_HELP_ALT):
 340:tmk_core/common/command.c ****             command_common_help();
 341:tmk_core/common/command.c ****             break;
 342:tmk_core/common/command.c **** 
 343:tmk_core/common/command.c ****         // activate console
 344:tmk_core/common/command.c ****         case MAGIC_KC(MAGIC_KEY_CONSOLE):
 345:tmk_core/common/command.c ****             debug_matrix   = false;
 346:tmk_core/common/command.c ****             debug_keyboard = false;
 347:tmk_core/common/command.c ****             debug_mouse    = false;
 348:tmk_core/common/command.c ****             debug_enable   = false;
 349:tmk_core/common/command.c ****             command_console_help();
 350:tmk_core/common/command.c ****             print("C> ");
 351:tmk_core/common/command.c ****             command_state = CONSOLE;
 352:tmk_core/common/command.c ****             break;
 353:tmk_core/common/command.c **** 
 354:tmk_core/common/command.c ****         // jump to bootloader
 355:tmk_core/common/command.c ****         case MAGIC_KC(MAGIC_KEY_BOOTLOADER):
 356:tmk_core/common/command.c ****         case MAGIC_KC(MAGIC_KEY_BOOTLOADER_ALT):
 357:tmk_core/common/command.c ****             print("\n\nJumping to bootloader... ");
 358:tmk_core/common/command.c ****             reset_keyboard();
 359:tmk_core/common/command.c ****             break;
 360:tmk_core/common/command.c **** 
 361:tmk_core/common/command.c ****         // debug toggle
 362:tmk_core/common/command.c ****         case MAGIC_KC(MAGIC_KEY_DEBUG):
 363:tmk_core/common/command.c ****             debug_enable = !debug_enable;
 364:tmk_core/common/command.c ****             if (debug_enable) {
 365:tmk_core/common/command.c ****                 print("\ndebug: on\n");
 366:tmk_core/common/command.c ****             } else {
 367:tmk_core/common/command.c ****                 print("\ndebug: off\n");
 368:tmk_core/common/command.c ****                 debug_matrix   = false;
 369:tmk_core/common/command.c ****                 debug_keyboard = false;
 370:tmk_core/common/command.c ****                 debug_mouse    = false;
 371:tmk_core/common/command.c ****             }
 372:tmk_core/common/command.c ****             break;
 373:tmk_core/common/command.c **** 
 374:tmk_core/common/command.c ****         // debug matrix toggle
 375:tmk_core/common/command.c ****         case MAGIC_KC(MAGIC_KEY_DEBUG_MATRIX):
 376:tmk_core/common/command.c ****             debug_matrix = !debug_matrix;
 377:tmk_core/common/command.c ****             if (debug_matrix) {
 378:tmk_core/common/command.c ****                 print("\nmatrix: on\n");
 379:tmk_core/common/command.c ****                 debug_enable = true;
 380:tmk_core/common/command.c ****             } else {
 381:tmk_core/common/command.c ****                 print("\nmatrix: off\n");
 382:tmk_core/common/command.c ****             }
 383:tmk_core/common/command.c ****             break;
 384:tmk_core/common/command.c **** 
 385:tmk_core/common/command.c ****         // debug keyboard toggle
 386:tmk_core/common/command.c ****         case MAGIC_KC(MAGIC_KEY_DEBUG_KBD):
 387:tmk_core/common/command.c ****             debug_keyboard = !debug_keyboard;
 388:tmk_core/common/command.c ****             if (debug_keyboard) {
 389:tmk_core/common/command.c ****                 print("\nkeyboard: on\n");
 390:tmk_core/common/command.c ****                 debug_enable = true;
 391:tmk_core/common/command.c ****             } else {
 392:tmk_core/common/command.c ****                 print("\nkeyboard: off\n");
 393:tmk_core/common/command.c ****             }
 394:tmk_core/common/command.c ****             break;
 395:tmk_core/common/command.c **** 
 396:tmk_core/common/command.c ****         // debug mouse toggle
 397:tmk_core/common/command.c ****         case MAGIC_KC(MAGIC_KEY_DEBUG_MOUSE):
 398:tmk_core/common/command.c ****             debug_mouse = !debug_mouse;
 399:tmk_core/common/command.c ****             if (debug_mouse) {
 400:tmk_core/common/command.c ****                 print("\nmouse: on\n");
 401:tmk_core/common/command.c ****                 debug_enable = true;
 402:tmk_core/common/command.c ****             } else {
 403:tmk_core/common/command.c ****                 print("\nmouse: off\n");
 404:tmk_core/common/command.c ****             }
 405:tmk_core/common/command.c ****             break;
 406:tmk_core/common/command.c **** 
 407:tmk_core/common/command.c ****         // print version
 408:tmk_core/common/command.c ****         case MAGIC_KC(MAGIC_KEY_VERSION):
 409:tmk_core/common/command.c ****             print_version();
 410:tmk_core/common/command.c ****             break;
 411:tmk_core/common/command.c **** 
 412:tmk_core/common/command.c ****         // print status
 413:tmk_core/common/command.c ****         case MAGIC_KC(MAGIC_KEY_STATUS):
 414:tmk_core/common/command.c ****             print_status();
 415:tmk_core/common/command.c ****             break;
 416:tmk_core/common/command.c **** 
 417:tmk_core/common/command.c **** #ifdef NKRO_ENABLE
 418:tmk_core/common/command.c **** 
 419:tmk_core/common/command.c ****         // NKRO toggle
 420:tmk_core/common/command.c ****         case MAGIC_KC(MAGIC_KEY_NKRO):
 421:tmk_core/common/command.c ****             clear_keyboard();  // clear to prevent stuck keys
 422:tmk_core/common/command.c ****             keymap_config.nkro = !keymap_config.nkro;
 423:tmk_core/common/command.c ****             if (keymap_config.nkro) {
 424:tmk_core/common/command.c ****                 print("NKRO: on\n");
 425:tmk_core/common/command.c ****             } else {
 426:tmk_core/common/command.c ****                 print("NKRO: off\n");
 427:tmk_core/common/command.c ****             }
 428:tmk_core/common/command.c ****             break;
 429:tmk_core/common/command.c **** #endif
 430:tmk_core/common/command.c **** 
 431:tmk_core/common/command.c ****             // switch layers
 432:tmk_core/common/command.c **** 
 433:tmk_core/common/command.c ****         case MAGIC_KC(MAGIC_KEY_LAYER0_ALT):
 434:tmk_core/common/command.c ****             switch_default_layer(0);
 435:tmk_core/common/command.c ****             break;
 436:tmk_core/common/command.c **** 
 437:tmk_core/common/command.c **** #if MAGIC_KEY_SWITCH_LAYER_WITH_CUSTOM
 438:tmk_core/common/command.c **** 
 439:tmk_core/common/command.c ****         case MAGIC_KC(MAGIC_KEY_LAYER0):
 440:tmk_core/common/command.c ****             switch_default_layer(0);
 441:tmk_core/common/command.c ****             break;
 442:tmk_core/common/command.c **** 
 443:tmk_core/common/command.c ****         case MAGIC_KC(MAGIC_KEY_LAYER1):
 444:tmk_core/common/command.c ****             switch_default_layer(1);
 445:tmk_core/common/command.c ****             break;
 446:tmk_core/common/command.c **** 
 447:tmk_core/common/command.c ****         case MAGIC_KC(MAGIC_KEY_LAYER2):
 448:tmk_core/common/command.c ****             switch_default_layer(2);
 449:tmk_core/common/command.c ****             break;
 450:tmk_core/common/command.c **** 
 451:tmk_core/common/command.c ****         case MAGIC_KC(MAGIC_KEY_LAYER3):
 452:tmk_core/common/command.c ****             switch_default_layer(3);
 453:tmk_core/common/command.c ****             break;
 454:tmk_core/common/command.c **** 
 455:tmk_core/common/command.c ****         case MAGIC_KC(MAGIC_KEY_LAYER4):
 456:tmk_core/common/command.c ****             switch_default_layer(4);
 457:tmk_core/common/command.c ****             break;
 458:tmk_core/common/command.c **** 
 459:tmk_core/common/command.c ****         case MAGIC_KC(MAGIC_KEY_LAYER5):
 460:tmk_core/common/command.c ****             switch_default_layer(5);
 461:tmk_core/common/command.c ****             break;
 462:tmk_core/common/command.c **** 
 463:tmk_core/common/command.c ****         case MAGIC_KC(MAGIC_KEY_LAYER6):
 464:tmk_core/common/command.c ****             switch_default_layer(6);
 465:tmk_core/common/command.c ****             break;
 466:tmk_core/common/command.c **** 
 467:tmk_core/common/command.c ****         case MAGIC_KC(MAGIC_KEY_LAYER7):
 468:tmk_core/common/command.c ****             switch_default_layer(7);
 469:tmk_core/common/command.c ****             break;
 470:tmk_core/common/command.c **** 
 471:tmk_core/common/command.c ****         case MAGIC_KC(MAGIC_KEY_LAYER8):
 472:tmk_core/common/command.c ****             switch_default_layer(8);
 473:tmk_core/common/command.c ****             break;
 474:tmk_core/common/command.c **** 
 475:tmk_core/common/command.c ****         case MAGIC_KC(MAGIC_KEY_LAYER9):
 476:tmk_core/common/command.c ****             switch_default_layer(9);
 477:tmk_core/common/command.c ****             break;
 478:tmk_core/common/command.c **** #endif
 479:tmk_core/common/command.c **** 
 480:tmk_core/common/command.c **** #if MAGIC_KEY_SWITCH_LAYER_WITH_FKEYS
 481:tmk_core/common/command.c **** 
 482:tmk_core/common/command.c ****         case KC_F1 ... KC_F9:
 483:tmk_core/common/command.c ****             switch_default_layer((code - KC_F1) + 1);
 484:tmk_core/common/command.c ****             break;
 485:tmk_core/common/command.c ****         case KC_F10:
 486:tmk_core/common/command.c ****             switch_default_layer(0);
 487:tmk_core/common/command.c ****             break;
 488:tmk_core/common/command.c **** #endif
 489:tmk_core/common/command.c **** 
 490:tmk_core/common/command.c **** #if MAGIC_KEY_SWITCH_LAYER_WITH_NKEYS
 491:tmk_core/common/command.c **** 
 492:tmk_core/common/command.c ****         case KC_1 ... KC_9:
 493:tmk_core/common/command.c ****             switch_default_layer((code - KC_1) + 1);
 494:tmk_core/common/command.c ****             break;
 495:tmk_core/common/command.c ****         case KC_0:
 496:tmk_core/common/command.c ****             switch_default_layer(0);
 497:tmk_core/common/command.c ****             break;
 498:tmk_core/common/command.c **** #endif
 499:tmk_core/common/command.c **** 
 500:tmk_core/common/command.c ****         default:
 501:tmk_core/common/command.c ****             print("?");
 502:tmk_core/common/command.c ****             return false;
 503:tmk_core/common/command.c ****     }
 504:tmk_core/common/command.c ****     return true;
 505:tmk_core/common/command.c **** }
 506:tmk_core/common/command.c **** 
 507:tmk_core/common/command.c **** /***********************************************************
 508:tmk_core/common/command.c ****  * Command console
 509:tmk_core/common/command.c ****  ***********************************************************/
 510:tmk_core/common/command.c **** static void command_console_help(void) {
 511:tmk_core/common/command.c ****     print("\n\t- Console -\n"
 512:tmk_core/common/command.c ****           "ESC/q:	quit\n"
 513:tmk_core/common/command.c **** #ifdef MOUSEKEY_ENABLE
 514:tmk_core/common/command.c ****           "m:	mousekey\n"
 515:tmk_core/common/command.c **** #endif
 516:tmk_core/common/command.c ****     );
 517:tmk_core/common/command.c **** }
 518:tmk_core/common/command.c **** 
 519:tmk_core/common/command.c **** static bool command_console(uint8_t code) {
 520:tmk_core/common/command.c ****     switch (code) {
 521:tmk_core/common/command.c ****         case KC_H:
 522:tmk_core/common/command.c ****         case KC_SLASH: /* ? */
 523:tmk_core/common/command.c ****             command_console_help();
 524:tmk_core/common/command.c ****             break;
 525:tmk_core/common/command.c ****         case KC_Q:
 526:tmk_core/common/command.c ****         case KC_ESC:
 527:tmk_core/common/command.c ****             command_state = ONESHOT;
 528:tmk_core/common/command.c ****             return false;
 529:tmk_core/common/command.c **** #if defined(MOUSEKEY_ENABLE) && !defined(MK_3_SPEED)
 530:tmk_core/common/command.c ****         case KC_M:
 531:tmk_core/common/command.c ****             mousekey_console_help();
 532:tmk_core/common/command.c ****             print("M> ");
 533:tmk_core/common/command.c ****             command_state = MOUSEKEY;
 534:tmk_core/common/command.c ****             return true;
 535:tmk_core/common/command.c **** #endif
 536:tmk_core/common/command.c ****         default:
 537:tmk_core/common/command.c ****             print("?");
 538:tmk_core/common/command.c ****             return false;
 539:tmk_core/common/command.c ****     }
 540:tmk_core/common/command.c ****     print("C> ");
 541:tmk_core/common/command.c ****     return true;
 542:tmk_core/common/command.c **** }
 543:tmk_core/common/command.c **** 
 544:tmk_core/common/command.c **** #if defined(MOUSEKEY_ENABLE) && !defined(MK_3_SPEED)
 545:tmk_core/common/command.c **** /***********************************************************
 546:tmk_core/common/command.c ****  * Mousekey console
 547:tmk_core/common/command.c ****  ***********************************************************/
 548:tmk_core/common/command.c **** static uint8_t mousekey_param = 0;
 549:tmk_core/common/command.c **** 
 550:tmk_core/common/command.c **** static void mousekey_param_print(void) {
 551:tmk_core/common/command.c **** // Print these variables if NO_PRINT or USER_PRINT are not defined.
 552:tmk_core/common/command.c **** #    if !defined(NO_PRINT) && !defined(USER_PRINT)
 553:tmk_core/common/command.c ****     print("\n\t- Values -\n");
 554:tmk_core/common/command.c ****     print("1: delay(*10ms): ");
 555:tmk_core/common/command.c ****     pdec(mk_delay);
 556:tmk_core/common/command.c ****     print("\n");
 557:tmk_core/common/command.c ****     print("2: interval(ms): ");
 558:tmk_core/common/command.c ****     pdec(mk_interval);
 559:tmk_core/common/command.c ****     print("\n");
 560:tmk_core/common/command.c ****     print("3: max_speed: ");
 561:tmk_core/common/command.c ****     pdec(mk_max_speed);
 562:tmk_core/common/command.c ****     print("\n");
 563:tmk_core/common/command.c ****     print("4: time_to_max: ");
 564:tmk_core/common/command.c ****     pdec(mk_time_to_max);
 565:tmk_core/common/command.c ****     print("\n");
 566:tmk_core/common/command.c ****     print("5: wheel_max_speed: ");
 567:tmk_core/common/command.c ****     pdec(mk_wheel_max_speed);
 568:tmk_core/common/command.c ****     print("\n");
 569:tmk_core/common/command.c ****     print("6: wheel_time_to_max: ");
 570:tmk_core/common/command.c ****     pdec(mk_wheel_time_to_max);
 571:tmk_core/common/command.c ****     print("\n");
 572:tmk_core/common/command.c **** #    endif /* !NO_PRINT */
 573:tmk_core/common/command.c **** }
 574:tmk_core/common/command.c **** 
 575:tmk_core/common/command.c **** //#define PRINT_SET_VAL(v)  print(#v " = "); print_dec(v); print("\n");
 576:tmk_core/common/command.c **** #    define PRINT_SET_VAL(v) xprintf(#    v " = %d\n", (v))
 577:tmk_core/common/command.c **** static void mousekey_param_inc(uint8_t param, uint8_t inc) {
 578:tmk_core/common/command.c ****     switch (param) {
 579:tmk_core/common/command.c ****         case 1:
 580:tmk_core/common/command.c ****             if (mk_delay + inc < UINT8_MAX)
 581:tmk_core/common/command.c ****                 mk_delay += inc;
 582:tmk_core/common/command.c ****             else
 583:tmk_core/common/command.c ****                 mk_delay = UINT8_MAX;
 584:tmk_core/common/command.c ****             PRINT_SET_VAL(mk_delay);
 585:tmk_core/common/command.c ****             break;
 586:tmk_core/common/command.c ****         case 2:
 587:tmk_core/common/command.c ****             if (mk_interval + inc < UINT8_MAX)
 588:tmk_core/common/command.c ****                 mk_interval += inc;
 589:tmk_core/common/command.c ****             else
 590:tmk_core/common/command.c ****                 mk_interval = UINT8_MAX;
 591:tmk_core/common/command.c ****             PRINT_SET_VAL(mk_interval);
 592:tmk_core/common/command.c ****             break;
 593:tmk_core/common/command.c ****         case 3:
 594:tmk_core/common/command.c ****             if (mk_max_speed + inc < UINT8_MAX)
 595:tmk_core/common/command.c ****                 mk_max_speed += inc;
 596:tmk_core/common/command.c ****             else
 597:tmk_core/common/command.c ****                 mk_max_speed = UINT8_MAX;
 598:tmk_core/common/command.c ****             PRINT_SET_VAL(mk_max_speed);
 599:tmk_core/common/command.c ****             break;
 600:tmk_core/common/command.c ****         case 4:
 601:tmk_core/common/command.c ****             if (mk_time_to_max + inc < UINT8_MAX)
 602:tmk_core/common/command.c ****                 mk_time_to_max += inc;
 603:tmk_core/common/command.c ****             else
 604:tmk_core/common/command.c ****                 mk_time_to_max = UINT8_MAX;
 605:tmk_core/common/command.c ****             PRINT_SET_VAL(mk_time_to_max);
 606:tmk_core/common/command.c ****             break;
 607:tmk_core/common/command.c ****         case 5:
 608:tmk_core/common/command.c ****             if (mk_wheel_max_speed + inc < UINT8_MAX)
 609:tmk_core/common/command.c ****                 mk_wheel_max_speed += inc;
 610:tmk_core/common/command.c ****             else
 611:tmk_core/common/command.c ****                 mk_wheel_max_speed = UINT8_MAX;
 612:tmk_core/common/command.c ****             PRINT_SET_VAL(mk_wheel_max_speed);
 613:tmk_core/common/command.c ****             break;
 614:tmk_core/common/command.c ****         case 6:
 615:tmk_core/common/command.c ****             if (mk_wheel_time_to_max + inc < UINT8_MAX)
 616:tmk_core/common/command.c ****                 mk_wheel_time_to_max += inc;
 617:tmk_core/common/command.c ****             else
 618:tmk_core/common/command.c ****                 mk_wheel_time_to_max = UINT8_MAX;
 619:tmk_core/common/command.c ****             PRINT_SET_VAL(mk_wheel_time_to_max);
 620:tmk_core/common/command.c ****             break;
 621:tmk_core/common/command.c ****     }
 622:tmk_core/common/command.c **** }
 623:tmk_core/common/command.c **** 
 624:tmk_core/common/command.c **** static void mousekey_param_dec(uint8_t param, uint8_t dec) {
 625:tmk_core/common/command.c ****     switch (param) {
 626:tmk_core/common/command.c ****         case 1:
 627:tmk_core/common/command.c ****             if (mk_delay > dec)
 628:tmk_core/common/command.c ****                 mk_delay -= dec;
 629:tmk_core/common/command.c ****             else
 630:tmk_core/common/command.c ****                 mk_delay = 0;
 631:tmk_core/common/command.c ****             PRINT_SET_VAL(mk_delay);
 632:tmk_core/common/command.c ****             break;
 633:tmk_core/common/command.c ****         case 2:
 634:tmk_core/common/command.c ****             if (mk_interval > dec)
 635:tmk_core/common/command.c ****                 mk_interval -= dec;
 636:tmk_core/common/command.c ****             else
 637:tmk_core/common/command.c ****                 mk_interval = 0;
 638:tmk_core/common/command.c ****             PRINT_SET_VAL(mk_interval);
 639:tmk_core/common/command.c ****             break;
 640:tmk_core/common/command.c ****         case 3:
 641:tmk_core/common/command.c ****             if (mk_max_speed > dec)
 642:tmk_core/common/command.c ****                 mk_max_speed -= dec;
 643:tmk_core/common/command.c ****             else
 644:tmk_core/common/command.c ****                 mk_max_speed = 0;
 645:tmk_core/common/command.c ****             PRINT_SET_VAL(mk_max_speed);
 646:tmk_core/common/command.c ****             break;
 647:tmk_core/common/command.c ****         case 4:
 648:tmk_core/common/command.c ****             if (mk_time_to_max > dec)
 649:tmk_core/common/command.c ****                 mk_time_to_max -= dec;
 650:tmk_core/common/command.c ****             else
 651:tmk_core/common/command.c ****                 mk_time_to_max = 0;
 652:tmk_core/common/command.c ****             PRINT_SET_VAL(mk_time_to_max);
 653:tmk_core/common/command.c ****             break;
 654:tmk_core/common/command.c ****         case 5:
 655:tmk_core/common/command.c ****             if (mk_wheel_max_speed > dec)
 656:tmk_core/common/command.c ****                 mk_wheel_max_speed -= dec;
 657:tmk_core/common/command.c ****             else
 658:tmk_core/common/command.c ****                 mk_wheel_max_speed = 0;
 659:tmk_core/common/command.c ****             PRINT_SET_VAL(mk_wheel_max_speed);
 660:tmk_core/common/command.c ****             break;
 661:tmk_core/common/command.c ****         case 6:
 662:tmk_core/common/command.c ****             if (mk_wheel_time_to_max > dec)
 663:tmk_core/common/command.c ****                 mk_wheel_time_to_max -= dec;
 664:tmk_core/common/command.c ****             else
 665:tmk_core/common/command.c ****                 mk_wheel_time_to_max = 0;
 666:tmk_core/common/command.c ****             PRINT_SET_VAL(mk_wheel_time_to_max);
 667:tmk_core/common/command.c ****             break;
 668:tmk_core/common/command.c ****     }
 669:tmk_core/common/command.c **** }
 670:tmk_core/common/command.c **** 
 671:tmk_core/common/command.c **** static void mousekey_console_help(void) {
  15               		.loc 1 671 41 view -0
  16               		.cfi_startproc
  17               	/* prologue: function */
  18               	/* frame size = 0 */
  19               	/* stack size = 0 */
  20               	.L__stack_usage = 0
 672:tmk_core/common/command.c ****     print("\n\t- Mousekey -\n"
  21               		.loc 1 672 5 view .LVU1
  22               	.LBB2:
  23               		.loc 1 672 5 view .LVU2
  24               		.loc 1 672 5 view .LVU3
  25               	.LBE2:
  26 0000 80E0      		ldi r24,lo8(__c.3860)
  27 0002 90E0      		ldi r25,hi8(__c.3860)
  28 0004 0E94 0000 		call xputs
  29               	.LVL0:
 673:tmk_core/common/command.c ****           "ESC/q:	quit\n"
 674:tmk_core/common/command.c ****           "1:	delay(*10ms)\n"
 675:tmk_core/common/command.c ****           "2:	interval(ms)\n"
 676:tmk_core/common/command.c ****           "3:	max_speed\n"
 677:tmk_core/common/command.c ****           "4:	time_to_max\n"
 678:tmk_core/common/command.c ****           "5:	wheel_max_speed\n"
 679:tmk_core/common/command.c ****           "6:	wheel_time_to_max\n"
 680:tmk_core/common/command.c ****           "\n"
 681:tmk_core/common/command.c ****           "p:	print values\n"
 682:tmk_core/common/command.c ****           "d:	set defaults\n"
 683:tmk_core/common/command.c ****           "up:	+1\n"
 684:tmk_core/common/command.c ****           "down:	-1\n"
 685:tmk_core/common/command.c ****           "pgup:	+10\n"
 686:tmk_core/common/command.c ****           "pgdown:	-10\n"
 687:tmk_core/common/command.c ****           "\n"
 688:tmk_core/common/command.c ****           "speed = delta * max_speed * (repeat / time_to_max)\n");
 689:tmk_core/common/command.c ****     xprintf("where delta: cursor=%d, wheel=%d\n"
  30               		.loc 1 689 5 view .LVU4
  31               	.LBB3:
  32               		.loc 1 689 5 view .LVU5
  33               		.loc 1 689 5 view .LVU6
  34               	.LBE3:
  35 0008 1F92      		push __zero_reg__
  36               	.LCFI0:
  37               		.cfi_def_cfa_offset 3
  38 000a 81E0      		ldi r24,lo8(1)
  39 000c 8F93      		push r24
  40               	.LCFI1:
  41               		.cfi_def_cfa_offset 4
  42 000e 1F92      		push __zero_reg__
  43               	.LCFI2:
  44               		.cfi_def_cfa_offset 5
  45 0010 85E0      		ldi r24,lo8(5)
  46 0012 8F93      		push r24
  47               	.LCFI3:
  48               		.cfi_def_cfa_offset 6
  49 0014 80E0      		ldi r24,lo8(__c.3862)
  50 0016 90E0      		ldi r25,hi8(__c.3862)
  51 0018 9F93      		push r25
  52               	.LCFI4:
  53               		.cfi_def_cfa_offset 7
  54 001a 8F93      		push r24
  55               	.LCFI5:
  56               		.cfi_def_cfa_offset 8
  57 001c 0E94 0000 		call __xprintf
  58               	.LVL1:
 690:tmk_core/common/command.c ****             "See http://en.wikipedia.org/wiki/Mouse_keys\n",
 691:tmk_core/common/command.c ****             MOUSEKEY_MOVE_DELTA, MOUSEKEY_WHEEL_DELTA);
 692:tmk_core/common/command.c **** }
  59               		.loc 1 692 1 is_stmt 0 view .LVU7
  60 0020 0F90      		pop __tmp_reg__
  61 0022 0F90      		pop __tmp_reg__
  62 0024 0F90      		pop __tmp_reg__
  63 0026 0F90      		pop __tmp_reg__
  64 0028 0F90      		pop __tmp_reg__
  65 002a 0F90      		pop __tmp_reg__
  66               	.LCFI6:
  67               		.cfi_def_cfa_offset 2
  68               	/* epilogue start */
  69 002c 0895      		ret
  70               		.cfi_endproc
  71               	.LFE37:
  73               		.section	.text.mousekey_param_inc,"ax",@progbits
  75               	mousekey_param_inc:
  76               	.LVL2:
  77               	.LFB35:
 577:tmk_core/common/command.c ****     switch (param) {
  78               		.loc 1 577 60 is_stmt 1 view -0
  79               		.cfi_startproc
  80               	/* prologue: function */
  81               	/* frame size = 0 */
  82               	/* stack size = 0 */
  83               	.L__stack_usage = 0
 578:tmk_core/common/command.c ****         case 1:
  84               		.loc 1 578 5 view .LVU9
  85 0000 8330      		cpi r24,lo8(3)
  86 0002 01F4      		brne .+2
  87 0004 00C0      		rjmp .L3
  88 0006 00F4      		brsh .L4
  89 0008 8130      		cpi r24,lo8(1)
  90 000a 01F0      		breq .L5
  91 000c 8230      		cpi r24,lo8(2)
  92 000e 01F0      		breq .L6
  93 0010 0895      		ret
  94               	.L4:
  95 0012 8530      		cpi r24,lo8(5)
  96 0014 01F4      		brne .+2
  97 0016 00C0      		rjmp .L8
  98 0018 00F4      		brsh .+2
  99 001a 00C0      		rjmp .L9
 100 001c 8630      		cpi r24,lo8(6)
 101 001e 01F4      		brne .+2
 102 0020 00C0      		rjmp .L10
 103 0022 0895      		ret
 104               	.L5:
 580:tmk_core/common/command.c ****                 mk_delay += inc;
 105               		.loc 1 580 13 view .LVU10
 580:tmk_core/common/command.c ****                 mk_delay += inc;
 106               		.loc 1 580 26 is_stmt 0 view .LVU11
 107 0024 8091 0000 		lds r24,mk_delay
 108               	.LVL3:
 580:tmk_core/common/command.c ****                 mk_delay += inc;
 109               		.loc 1 580 26 view .LVU12
 110 0028 482F      		mov r20,r24
 111 002a 460F      		add r20,r22
 112 002c 5527      		clr r21
 113 002e 551F      		rol r21
 580:tmk_core/common/command.c ****                 mk_delay += inc;
 114               		.loc 1 580 16 view .LVU13
 115 0030 4F3F      		cpi r20,-1
 116 0032 5105      		cpc r21,__zero_reg__
 117 0034 04F4      		brge .L11
 581:tmk_core/common/command.c ****             else
 118               		.loc 1 581 17 is_stmt 1 view .LVU14
 581:tmk_core/common/command.c ****             else
 119               		.loc 1 581 26 is_stmt 0 view .LVU15
 120 0036 680F      		add r22,r24
 121               	.LVL4:
 581:tmk_core/common/command.c ****             else
 122               		.loc 1 581 26 view .LVU16
 123 0038 6093 0000 		sts mk_delay,r22
 124               	.L12:
 584:tmk_core/common/command.c ****             break;
 125               		.loc 1 584 13 is_stmt 1 view .LVU17
 126               	.LBB4:
 584:tmk_core/common/command.c ****             break;
 127               		.loc 1 584 13 view .LVU18
 584:tmk_core/common/command.c ****             break;
 128               		.loc 1 584 13 view .LVU19
 129               	.LBE4:
 130 003c 8091 0000 		lds r24,mk_delay
 131 0040 1F92      		push __zero_reg__
 132               	.LCFI7:
 133               		.cfi_def_cfa_offset 3
 134 0042 8F93      		push r24
 135               	.LCFI8:
 136               		.cfi_def_cfa_offset 4
 137 0044 80E0      		ldi r24,lo8(__c.3816)
 138 0046 90E0      		ldi r25,hi8(__c.3816)
 139               	.L23:
 619:tmk_core/common/command.c ****             break;
 140               		.loc 1 619 13 is_stmt 0 view .LVU20
 141 0048 9F93      		push r25
 142               	.LCFI9:
 143               		.cfi_def_cfa_offset 5
 144 004a 8F93      		push r24
 145               	.LCFI10:
 146               		.cfi_def_cfa_offset 6
 147 004c 0E94 0000 		call __xprintf
 148               	.LVL5:
 620:tmk_core/common/command.c ****     }
 149               		.loc 1 620 13 is_stmt 1 view .LVU21
 150 0050 0F90      		pop __tmp_reg__
 151 0052 0F90      		pop __tmp_reg__
 152 0054 0F90      		pop __tmp_reg__
 153 0056 0F90      		pop __tmp_reg__
 154               	.LCFI11:
 155               		.cfi_def_cfa_offset 2
 156               	/* epilogue start */
 622:tmk_core/common/command.c **** 
 157               		.loc 1 622 1 is_stmt 0 view .LVU22
 158 0058 0895      		ret
 159               	.LVL6:
 160               	.L11:
 583:tmk_core/common/command.c ****             PRINT_SET_VAL(mk_delay);
 161               		.loc 1 583 17 is_stmt 1 view .LVU23
 583:tmk_core/common/command.c ****             PRINT_SET_VAL(mk_delay);
 162               		.loc 1 583 26 is_stmt 0 view .LVU24
 163 005a 8FEF      		ldi r24,lo8(-1)
 164 005c 8093 0000 		sts mk_delay,r24
 165 0060 00C0      		rjmp .L12
 166               	.LVL7:
 167               	.L6:
 587:tmk_core/common/command.c ****                 mk_interval += inc;
 168               		.loc 1 587 13 is_stmt 1 view .LVU25
 587:tmk_core/common/command.c ****                 mk_interval += inc;
 169               		.loc 1 587 29 is_stmt 0 view .LVU26
 170 0062 8091 0000 		lds r24,mk_interval
 171               	.LVL8:
 587:tmk_core/common/command.c ****                 mk_interval += inc;
 172               		.loc 1 587 29 view .LVU27
 173 0066 482F      		mov r20,r24
 174 0068 460F      		add r20,r22
 175 006a 5527      		clr r21
 176 006c 551F      		rol r21
 587:tmk_core/common/command.c ****                 mk_interval += inc;
 177               		.loc 1 587 16 view .LVU28
 178 006e 4F3F      		cpi r20,-1
 179 0070 5105      		cpc r21,__zero_reg__
 180 0072 04F4      		brge .L13
 588:tmk_core/common/command.c ****             else
 181               		.loc 1 588 17 is_stmt 1 view .LVU29
 588:tmk_core/common/command.c ****             else
 182               		.loc 1 588 29 is_stmt 0 view .LVU30
 183 0074 680F      		add r22,r24
 184               	.LVL9:
 588:tmk_core/common/command.c ****             else
 185               		.loc 1 588 29 view .LVU31
 186 0076 6093 0000 		sts mk_interval,r22
 187               	.L14:
 591:tmk_core/common/command.c ****             break;
 188               		.loc 1 591 13 is_stmt 1 view .LVU32
 189               	.LBB5:
 591:tmk_core/common/command.c ****             break;
 190               		.loc 1 591 13 view .LVU33
 591:tmk_core/common/command.c ****             break;
 191               		.loc 1 591 13 view .LVU34
 192               	.LBE5:
 193 007a 8091 0000 		lds r24,mk_interval
 194 007e 1F92      		push __zero_reg__
 195               	.LCFI12:
 196               		.cfi_remember_state
 197               		.cfi_def_cfa_offset 3
 198 0080 8F93      		push r24
 199               	.LCFI13:
 200               		.cfi_def_cfa_offset 4
 201 0082 80E0      		ldi r24,lo8(__c.3820)
 202 0084 90E0      		ldi r25,hi8(__c.3820)
 203 0086 00C0      		rjmp .L23
 204               	.LVL10:
 205               	.L13:
 206               	.LCFI14:
 207               		.cfi_restore_state
 590:tmk_core/common/command.c ****             PRINT_SET_VAL(mk_interval);
 208               		.loc 1 590 17 view .LVU35
 590:tmk_core/common/command.c ****             PRINT_SET_VAL(mk_interval);
 209               		.loc 1 590 29 is_stmt 0 view .LVU36
 210 0088 8FEF      		ldi r24,lo8(-1)
 211 008a 8093 0000 		sts mk_interval,r24
 212 008e 00C0      		rjmp .L14
 213               	.LVL11:
 214               	.L3:
 594:tmk_core/common/command.c ****                 mk_max_speed += inc;
 215               		.loc 1 594 13 is_stmt 1 view .LVU37
 594:tmk_core/common/command.c ****                 mk_max_speed += inc;
 216               		.loc 1 594 30 is_stmt 0 view .LVU38
 217 0090 8091 0000 		lds r24,mk_max_speed
 218               	.LVL12:
 594:tmk_core/common/command.c ****                 mk_max_speed += inc;
 219               		.loc 1 594 30 view .LVU39
 220 0094 482F      		mov r20,r24
 221 0096 460F      		add r20,r22
 222 0098 5527      		clr r21
 223 009a 551F      		rol r21
 594:tmk_core/common/command.c ****                 mk_max_speed += inc;
 224               		.loc 1 594 16 view .LVU40
 225 009c 4F3F      		cpi r20,-1
 226 009e 5105      		cpc r21,__zero_reg__
 227 00a0 04F4      		brge .L15
 595:tmk_core/common/command.c ****             else
 228               		.loc 1 595 17 is_stmt 1 view .LVU41
 595:tmk_core/common/command.c ****             else
 229               		.loc 1 595 30 is_stmt 0 view .LVU42
 230 00a2 680F      		add r22,r24
 231               	.LVL13:
 595:tmk_core/common/command.c ****             else
 232               		.loc 1 595 30 view .LVU43
 233 00a4 6093 0000 		sts mk_max_speed,r22
 234               	.L16:
 598:tmk_core/common/command.c ****             break;
 235               		.loc 1 598 13 is_stmt 1 view .LVU44
 236               	.LBB6:
 598:tmk_core/common/command.c ****             break;
 237               		.loc 1 598 13 view .LVU45
 598:tmk_core/common/command.c ****             break;
 238               		.loc 1 598 13 view .LVU46
 239               	.LBE6:
 240 00a8 8091 0000 		lds r24,mk_max_speed
 241 00ac 1F92      		push __zero_reg__
 242               	.LCFI15:
 243               		.cfi_remember_state
 244               		.cfi_def_cfa_offset 3
 245 00ae 8F93      		push r24
 246               	.LCFI16:
 247               		.cfi_def_cfa_offset 4
 248 00b0 80E0      		ldi r24,lo8(__c.3823)
 249 00b2 90E0      		ldi r25,hi8(__c.3823)
 250 00b4 00C0      		rjmp .L23
 251               	.LVL14:
 252               	.L15:
 253               	.LCFI17:
 254               		.cfi_restore_state
 597:tmk_core/common/command.c ****             PRINT_SET_VAL(mk_max_speed);
 255               		.loc 1 597 17 view .LVU47
 597:tmk_core/common/command.c ****             PRINT_SET_VAL(mk_max_speed);
 256               		.loc 1 597 30 is_stmt 0 view .LVU48
 257 00b6 8FEF      		ldi r24,lo8(-1)
 258 00b8 8093 0000 		sts mk_max_speed,r24
 259 00bc 00C0      		rjmp .L16
 260               	.LVL15:
 261               	.L9:
 601:tmk_core/common/command.c ****                 mk_time_to_max += inc;
 262               		.loc 1 601 13 is_stmt 1 view .LVU49
 601:tmk_core/common/command.c ****                 mk_time_to_max += inc;
 263               		.loc 1 601 32 is_stmt 0 view .LVU50
 264 00be 8091 0000 		lds r24,mk_time_to_max
 265               	.LVL16:
 601:tmk_core/common/command.c ****                 mk_time_to_max += inc;
 266               		.loc 1 601 32 view .LVU51
 267 00c2 482F      		mov r20,r24
 268 00c4 460F      		add r20,r22
 269 00c6 5527      		clr r21
 270 00c8 551F      		rol r21
 601:tmk_core/common/command.c ****                 mk_time_to_max += inc;
 271               		.loc 1 601 16 view .LVU52
 272 00ca 4F3F      		cpi r20,-1
 273 00cc 5105      		cpc r21,__zero_reg__
 274 00ce 04F4      		brge .L17
 602:tmk_core/common/command.c ****             else
 275               		.loc 1 602 17 is_stmt 1 view .LVU53
 602:tmk_core/common/command.c ****             else
 276               		.loc 1 602 32 is_stmt 0 view .LVU54
 277 00d0 680F      		add r22,r24
 278               	.LVL17:
 602:tmk_core/common/command.c ****             else
 279               		.loc 1 602 32 view .LVU55
 280 00d2 6093 0000 		sts mk_time_to_max,r22
 281               	.L18:
 605:tmk_core/common/command.c ****             break;
 282               		.loc 1 605 13 is_stmt 1 view .LVU56
 283               	.LBB7:
 605:tmk_core/common/command.c ****             break;
 284               		.loc 1 605 13 view .LVU57
 605:tmk_core/common/command.c ****             break;
 285               		.loc 1 605 13 view .LVU58
 286               	.LBE7:
 287 00d6 8091 0000 		lds r24,mk_time_to_max
 288 00da 1F92      		push __zero_reg__
 289               	.LCFI18:
 290               		.cfi_remember_state
 291               		.cfi_def_cfa_offset 3
 292 00dc 8F93      		push r24
 293               	.LCFI19:
 294               		.cfi_def_cfa_offset 4
 295 00de 80E0      		ldi r24,lo8(__c.3826)
 296 00e0 90E0      		ldi r25,hi8(__c.3826)
 297 00e2 00C0      		rjmp .L23
 298               	.LVL18:
 299               	.L17:
 300               	.LCFI20:
 301               		.cfi_restore_state
 604:tmk_core/common/command.c ****             PRINT_SET_VAL(mk_time_to_max);
 302               		.loc 1 604 17 view .LVU59
 604:tmk_core/common/command.c ****             PRINT_SET_VAL(mk_time_to_max);
 303               		.loc 1 604 32 is_stmt 0 view .LVU60
 304 00e4 8FEF      		ldi r24,lo8(-1)
 305 00e6 8093 0000 		sts mk_time_to_max,r24
 306 00ea 00C0      		rjmp .L18
 307               	.LVL19:
 308               	.L8:
 608:tmk_core/common/command.c ****                 mk_wheel_max_speed += inc;
 309               		.loc 1 608 13 is_stmt 1 view .LVU61
 608:tmk_core/common/command.c ****                 mk_wheel_max_speed += inc;
 310               		.loc 1 608 36 is_stmt 0 view .LVU62
 311 00ec 8091 0000 		lds r24,mk_wheel_max_speed
 312               	.LVL20:
 608:tmk_core/common/command.c ****                 mk_wheel_max_speed += inc;
 313               		.loc 1 608 36 view .LVU63
 314 00f0 482F      		mov r20,r24
 315 00f2 460F      		add r20,r22
 316 00f4 5527      		clr r21
 317 00f6 551F      		rol r21
 608:tmk_core/common/command.c ****                 mk_wheel_max_speed += inc;
 318               		.loc 1 608 16 view .LVU64
 319 00f8 4F3F      		cpi r20,-1
 320 00fa 5105      		cpc r21,__zero_reg__
 321 00fc 04F4      		brge .L19
 609:tmk_core/common/command.c ****             else
 322               		.loc 1 609 17 is_stmt 1 view .LVU65
 609:tmk_core/common/command.c ****             else
 323               		.loc 1 609 36 is_stmt 0 view .LVU66
 324 00fe 680F      		add r22,r24
 325               	.LVL21:
 609:tmk_core/common/command.c ****             else
 326               		.loc 1 609 36 view .LVU67
 327 0100 6093 0000 		sts mk_wheel_max_speed,r22
 328               	.L20:
 612:tmk_core/common/command.c ****             break;
 329               		.loc 1 612 13 is_stmt 1 view .LVU68
 330               	.LBB8:
 612:tmk_core/common/command.c ****             break;
 331               		.loc 1 612 13 view .LVU69
 612:tmk_core/common/command.c ****             break;
 332               		.loc 1 612 13 view .LVU70
 333               	.LBE8:
 334 0104 8091 0000 		lds r24,mk_wheel_max_speed
 335 0108 1F92      		push __zero_reg__
 336               	.LCFI21:
 337               		.cfi_remember_state
 338               		.cfi_def_cfa_offset 3
 339 010a 8F93      		push r24
 340               	.LCFI22:
 341               		.cfi_def_cfa_offset 4
 342 010c 80E0      		ldi r24,lo8(__c.3829)
 343 010e 90E0      		ldi r25,hi8(__c.3829)
 344 0110 00C0      		rjmp .L23
 345               	.LVL22:
 346               	.L19:
 347               	.LCFI23:
 348               		.cfi_restore_state
 611:tmk_core/common/command.c ****             PRINT_SET_VAL(mk_wheel_max_speed);
 349               		.loc 1 611 17 view .LVU71
 611:tmk_core/common/command.c ****             PRINT_SET_VAL(mk_wheel_max_speed);
 350               		.loc 1 611 36 is_stmt 0 view .LVU72
 351 0112 8FEF      		ldi r24,lo8(-1)
 352 0114 8093 0000 		sts mk_wheel_max_speed,r24
 353 0118 00C0      		rjmp .L20
 354               	.LVL23:
 355               	.L10:
 615:tmk_core/common/command.c ****                 mk_wheel_time_to_max += inc;
 356               		.loc 1 615 13 is_stmt 1 view .LVU73
 615:tmk_core/common/command.c ****                 mk_wheel_time_to_max += inc;
 357               		.loc 1 615 38 is_stmt 0 view .LVU74
 358 011a 8091 0000 		lds r24,mk_wheel_time_to_max
 359               	.LVL24:
 615:tmk_core/common/command.c ****                 mk_wheel_time_to_max += inc;
 360               		.loc 1 615 38 view .LVU75
 361 011e 482F      		mov r20,r24
 362 0120 460F      		add r20,r22
 363 0122 5527      		clr r21
 364 0124 551F      		rol r21
 615:tmk_core/common/command.c ****                 mk_wheel_time_to_max += inc;
 365               		.loc 1 615 16 view .LVU76
 366 0126 4F3F      		cpi r20,-1
 367 0128 5105      		cpc r21,__zero_reg__
 368 012a 04F4      		brge .L21
 616:tmk_core/common/command.c ****             else
 369               		.loc 1 616 17 is_stmt 1 view .LVU77
 616:tmk_core/common/command.c ****             else
 370               		.loc 1 616 38 is_stmt 0 view .LVU78
 371 012c 680F      		add r22,r24
 372               	.LVL25:
 616:tmk_core/common/command.c ****             else
 373               		.loc 1 616 38 view .LVU79
 374 012e 6093 0000 		sts mk_wheel_time_to_max,r22
 375               	.L22:
 619:tmk_core/common/command.c ****             break;
 376               		.loc 1 619 13 is_stmt 1 view .LVU80
 377               	.LBB9:
 619:tmk_core/common/command.c ****             break;
 378               		.loc 1 619 13 view .LVU81
 619:tmk_core/common/command.c ****             break;
 379               		.loc 1 619 13 view .LVU82
 380               	.LBE9:
 381 0132 8091 0000 		lds r24,mk_wheel_time_to_max
 382 0136 1F92      		push __zero_reg__
 383               	.LCFI24:
 384               		.cfi_remember_state
 385               		.cfi_def_cfa_offset 3
 386 0138 8F93      		push r24
 387               	.LCFI25:
 388               		.cfi_def_cfa_offset 4
 389 013a 80E0      		ldi r24,lo8(__c.3832)
 390 013c 90E0      		ldi r25,hi8(__c.3832)
 391 013e 00C0      		rjmp .L23
 392               	.LVL26:
 393               	.L21:
 394               	.LCFI26:
 395               		.cfi_restore_state
 618:tmk_core/common/command.c ****             PRINT_SET_VAL(mk_wheel_time_to_max);
 396               		.loc 1 618 17 view .LVU83
 618:tmk_core/common/command.c ****             PRINT_SET_VAL(mk_wheel_time_to_max);
 397               		.loc 1 618 38 is_stmt 0 view .LVU84
 398 0140 8FEF      		ldi r24,lo8(-1)
 399 0142 8093 0000 		sts mk_wheel_time_to_max,r24
 400 0146 00C0      		rjmp .L22
 401               		.cfi_endproc
 402               	.LFE35:
 404               		.section	.text.mousekey_param_dec,"ax",@progbits
 406               	mousekey_param_dec:
 407               	.LVL27:
 408               	.LFB36:
 624:tmk_core/common/command.c ****     switch (param) {
 409               		.loc 1 624 60 is_stmt 1 view -0
 410               		.cfi_startproc
 411               	/* prologue: function */
 412               	/* frame size = 0 */
 413               	/* stack size = 0 */
 414               	.L__stack_usage = 0
 625:tmk_core/common/command.c ****         case 1:
 415               		.loc 1 625 5 view .LVU86
 416 0000 8330      		cpi r24,lo8(3)
 417 0002 01F0      		breq .L25
 418 0004 00F4      		brsh .L26
 419 0006 8130      		cpi r24,lo8(1)
 420 0008 01F0      		breq .L27
 421 000a 8230      		cpi r24,lo8(2)
 422 000c 01F0      		breq .L28
 423 000e 0895      		ret
 424               	.L26:
 425 0010 8530      		cpi r24,lo8(5)
 426 0012 01F4      		brne .+2
 427 0014 00C0      		rjmp .L30
 428 0016 00F4      		brsh .+2
 429 0018 00C0      		rjmp .L31
 430 001a 8630      		cpi r24,lo8(6)
 431 001c 01F4      		brne .+2
 432 001e 00C0      		rjmp .L32
 433 0020 0895      		ret
 434               	.L27:
 627:tmk_core/common/command.c ****                 mk_delay -= dec;
 435               		.loc 1 627 13 view .LVU87
 627:tmk_core/common/command.c ****                 mk_delay -= dec;
 436               		.loc 1 627 26 is_stmt 0 view .LVU88
 437 0022 8091 0000 		lds r24,mk_delay
 438               	.LVL28:
 627:tmk_core/common/command.c ****                 mk_delay -= dec;
 439               		.loc 1 627 16 view .LVU89
 440 0026 6817      		cp r22,r24
 441 0028 00F4      		brsh .L33
 628:tmk_core/common/command.c ****             else
 442               		.loc 1 628 17 is_stmt 1 view .LVU90
 628:tmk_core/common/command.c ****             else
 443               		.loc 1 628 26 is_stmt 0 view .LVU91
 444 002a 861B      		sub r24,r22
 445 002c 8093 0000 		sts mk_delay,r24
 446               	.L34:
 631:tmk_core/common/command.c ****             break;
 447               		.loc 1 631 13 is_stmt 1 view .LVU92
 448               	.LBB10:
 631:tmk_core/common/command.c ****             break;
 449               		.loc 1 631 13 view .LVU93
 631:tmk_core/common/command.c ****             break;
 450               		.loc 1 631 13 view .LVU94
 451               	.LBE10:
 452 0030 8091 0000 		lds r24,mk_delay
 453 0034 1F92      		push __zero_reg__
 454               	.LCFI27:
 455               		.cfi_def_cfa_offset 3
 456 0036 8F93      		push r24
 457               	.LCFI28:
 458               		.cfi_def_cfa_offset 4
 459 0038 80E0      		ldi r24,lo8(__c.3839)
 460 003a 90E0      		ldi r25,hi8(__c.3839)
 461               	.L45:
 666:tmk_core/common/command.c ****             break;
 462               		.loc 1 666 13 is_stmt 0 view .LVU95
 463 003c 9F93      		push r25
 464               	.LCFI29:
 465               		.cfi_def_cfa_offset 5
 466 003e 8F93      		push r24
 467               	.LCFI30:
 468               		.cfi_def_cfa_offset 6
 469 0040 0E94 0000 		call __xprintf
 470               	.LVL29:
 667:tmk_core/common/command.c ****     }
 471               		.loc 1 667 13 is_stmt 1 view .LVU96
 472 0044 0F90      		pop __tmp_reg__
 473 0046 0F90      		pop __tmp_reg__
 474 0048 0F90      		pop __tmp_reg__
 475 004a 0F90      		pop __tmp_reg__
 476               	.LCFI31:
 477               		.cfi_def_cfa_offset 2
 478               	/* epilogue start */
 669:tmk_core/common/command.c **** 
 479               		.loc 1 669 1 is_stmt 0 view .LVU97
 480 004c 0895      		ret
 481               	.LVL30:
 482               	.L33:
 630:tmk_core/common/command.c ****             PRINT_SET_VAL(mk_delay);
 483               		.loc 1 630 17 is_stmt 1 view .LVU98
 630:tmk_core/common/command.c ****             PRINT_SET_VAL(mk_delay);
 484               		.loc 1 630 26 is_stmt 0 view .LVU99
 485 004e 1092 0000 		sts mk_delay,__zero_reg__
 486 0052 00C0      		rjmp .L34
 487               	.LVL31:
 488               	.L28:
 634:tmk_core/common/command.c ****                 mk_interval -= dec;
 489               		.loc 1 634 13 is_stmt 1 view .LVU100
 634:tmk_core/common/command.c ****                 mk_interval -= dec;
 490               		.loc 1 634 29 is_stmt 0 view .LVU101
 491 0054 8091 0000 		lds r24,mk_interval
 492               	.LVL32:
 634:tmk_core/common/command.c ****                 mk_interval -= dec;
 493               		.loc 1 634 16 view .LVU102
 494 0058 6817      		cp r22,r24
 495 005a 00F4      		brsh .L35
 635:tmk_core/common/command.c ****             else
 496               		.loc 1 635 17 is_stmt 1 view .LVU103
 635:tmk_core/common/command.c ****             else
 497               		.loc 1 635 29 is_stmt 0 view .LVU104
 498 005c 861B      		sub r24,r22
 499 005e 8093 0000 		sts mk_interval,r24
 500               	.L36:
 638:tmk_core/common/command.c ****             break;
 501               		.loc 1 638 13 is_stmt 1 view .LVU105
 502               	.LBB11:
 638:tmk_core/common/command.c ****             break;
 503               		.loc 1 638 13 view .LVU106
 638:tmk_core/common/command.c ****             break;
 504               		.loc 1 638 13 view .LVU107
 505               	.LBE11:
 506 0062 8091 0000 		lds r24,mk_interval
 507 0066 1F92      		push __zero_reg__
 508               	.LCFI32:
 509               		.cfi_remember_state
 510               		.cfi_def_cfa_offset 3
 511 0068 8F93      		push r24
 512               	.LCFI33:
 513               		.cfi_def_cfa_offset 4
 514 006a 80E0      		ldi r24,lo8(__c.3843)
 515 006c 90E0      		ldi r25,hi8(__c.3843)
 516 006e 00C0      		rjmp .L45
 517               	.L35:
 518               	.LCFI34:
 519               		.cfi_restore_state
 637:tmk_core/common/command.c ****             PRINT_SET_VAL(mk_interval);
 520               		.loc 1 637 17 view .LVU108
 637:tmk_core/common/command.c ****             PRINT_SET_VAL(mk_interval);
 521               		.loc 1 637 29 is_stmt 0 view .LVU109
 522 0070 1092 0000 		sts mk_interval,__zero_reg__
 523 0074 00C0      		rjmp .L36
 524               	.LVL33:
 525               	.L25:
 641:tmk_core/common/command.c ****                 mk_max_speed -= dec;
 526               		.loc 1 641 13 is_stmt 1 view .LVU110
 641:tmk_core/common/command.c ****                 mk_max_speed -= dec;
 527               		.loc 1 641 30 is_stmt 0 view .LVU111
 528 0076 8091 0000 		lds r24,mk_max_speed
 529               	.LVL34:
 641:tmk_core/common/command.c ****                 mk_max_speed -= dec;
 530               		.loc 1 641 16 view .LVU112
 531 007a 6817      		cp r22,r24
 532 007c 00F4      		brsh .L37
 642:tmk_core/common/command.c ****             else
 533               		.loc 1 642 17 is_stmt 1 view .LVU113
 642:tmk_core/common/command.c ****             else
 534               		.loc 1 642 30 is_stmt 0 view .LVU114
 535 007e 861B      		sub r24,r22
 536 0080 8093 0000 		sts mk_max_speed,r24
 537               	.L38:
 645:tmk_core/common/command.c ****             break;
 538               		.loc 1 645 13 is_stmt 1 view .LVU115
 539               	.LBB12:
 645:tmk_core/common/command.c ****             break;
 540               		.loc 1 645 13 view .LVU116
 645:tmk_core/common/command.c ****             break;
 541               		.loc 1 645 13 view .LVU117
 542               	.LBE12:
 543 0084 8091 0000 		lds r24,mk_max_speed
 544 0088 1F92      		push __zero_reg__
 545               	.LCFI35:
 546               		.cfi_remember_state
 547               		.cfi_def_cfa_offset 3
 548 008a 8F93      		push r24
 549               	.LCFI36:
 550               		.cfi_def_cfa_offset 4
 551 008c 80E0      		ldi r24,lo8(__c.3846)
 552 008e 90E0      		ldi r25,hi8(__c.3846)
 553 0090 00C0      		rjmp .L45
 554               	.L37:
 555               	.LCFI37:
 556               		.cfi_restore_state
 644:tmk_core/common/command.c ****             PRINT_SET_VAL(mk_max_speed);
 557               		.loc 1 644 17 view .LVU118
 644:tmk_core/common/command.c ****             PRINT_SET_VAL(mk_max_speed);
 558               		.loc 1 644 30 is_stmt 0 view .LVU119
 559 0092 1092 0000 		sts mk_max_speed,__zero_reg__
 560 0096 00C0      		rjmp .L38
 561               	.LVL35:
 562               	.L31:
 648:tmk_core/common/command.c ****                 mk_time_to_max -= dec;
 563               		.loc 1 648 13 is_stmt 1 view .LVU120
 648:tmk_core/common/command.c ****                 mk_time_to_max -= dec;
 564               		.loc 1 648 32 is_stmt 0 view .LVU121
 565 0098 8091 0000 		lds r24,mk_time_to_max
 566               	.LVL36:
 648:tmk_core/common/command.c ****                 mk_time_to_max -= dec;
 567               		.loc 1 648 16 view .LVU122
 568 009c 6817      		cp r22,r24
 569 009e 00F4      		brsh .L39
 649:tmk_core/common/command.c ****             else
 570               		.loc 1 649 17 is_stmt 1 view .LVU123
 649:tmk_core/common/command.c ****             else
 571               		.loc 1 649 32 is_stmt 0 view .LVU124
 572 00a0 861B      		sub r24,r22
 573 00a2 8093 0000 		sts mk_time_to_max,r24
 574               	.L40:
 652:tmk_core/common/command.c ****             break;
 575               		.loc 1 652 13 is_stmt 1 view .LVU125
 576               	.LBB13:
 652:tmk_core/common/command.c ****             break;
 577               		.loc 1 652 13 view .LVU126
 652:tmk_core/common/command.c ****             break;
 578               		.loc 1 652 13 view .LVU127
 579               	.LBE13:
 580 00a6 8091 0000 		lds r24,mk_time_to_max
 581 00aa 1F92      		push __zero_reg__
 582               	.LCFI38:
 583               		.cfi_remember_state
 584               		.cfi_def_cfa_offset 3
 585 00ac 8F93      		push r24
 586               	.LCFI39:
 587               		.cfi_def_cfa_offset 4
 588 00ae 80E0      		ldi r24,lo8(__c.3849)
 589 00b0 90E0      		ldi r25,hi8(__c.3849)
 590 00b2 00C0      		rjmp .L45
 591               	.L39:
 592               	.LCFI40:
 593               		.cfi_restore_state
 651:tmk_core/common/command.c ****             PRINT_SET_VAL(mk_time_to_max);
 594               		.loc 1 651 17 view .LVU128
 651:tmk_core/common/command.c ****             PRINT_SET_VAL(mk_time_to_max);
 595               		.loc 1 651 32 is_stmt 0 view .LVU129
 596 00b4 1092 0000 		sts mk_time_to_max,__zero_reg__
 597 00b8 00C0      		rjmp .L40
 598               	.LVL37:
 599               	.L30:
 655:tmk_core/common/command.c ****                 mk_wheel_max_speed -= dec;
 600               		.loc 1 655 13 is_stmt 1 view .LVU130
 655:tmk_core/common/command.c ****                 mk_wheel_max_speed -= dec;
 601               		.loc 1 655 36 is_stmt 0 view .LVU131
 602 00ba 8091 0000 		lds r24,mk_wheel_max_speed
 603               	.LVL38:
 655:tmk_core/common/command.c ****                 mk_wheel_max_speed -= dec;
 604               		.loc 1 655 16 view .LVU132
 605 00be 6817      		cp r22,r24
 606 00c0 00F4      		brsh .L41
 656:tmk_core/common/command.c ****             else
 607               		.loc 1 656 17 is_stmt 1 view .LVU133
 656:tmk_core/common/command.c ****             else
 608               		.loc 1 656 36 is_stmt 0 view .LVU134
 609 00c2 861B      		sub r24,r22
 610 00c4 8093 0000 		sts mk_wheel_max_speed,r24
 611               	.L42:
 659:tmk_core/common/command.c ****             break;
 612               		.loc 1 659 13 is_stmt 1 view .LVU135
 613               	.LBB14:
 659:tmk_core/common/command.c ****             break;
 614               		.loc 1 659 13 view .LVU136
 659:tmk_core/common/command.c ****             break;
 615               		.loc 1 659 13 view .LVU137
 616               	.LBE14:
 617 00c8 8091 0000 		lds r24,mk_wheel_max_speed
 618 00cc 1F92      		push __zero_reg__
 619               	.LCFI41:
 620               		.cfi_remember_state
 621               		.cfi_def_cfa_offset 3
 622 00ce 8F93      		push r24
 623               	.LCFI42:
 624               		.cfi_def_cfa_offset 4
 625 00d0 80E0      		ldi r24,lo8(__c.3852)
 626 00d2 90E0      		ldi r25,hi8(__c.3852)
 627 00d4 00C0      		rjmp .L45
 628               	.L41:
 629               	.LCFI43:
 630               		.cfi_restore_state
 658:tmk_core/common/command.c ****             PRINT_SET_VAL(mk_wheel_max_speed);
 631               		.loc 1 658 17 view .LVU138
 658:tmk_core/common/command.c ****             PRINT_SET_VAL(mk_wheel_max_speed);
 632               		.loc 1 658 36 is_stmt 0 view .LVU139
 633 00d6 1092 0000 		sts mk_wheel_max_speed,__zero_reg__
 634 00da 00C0      		rjmp .L42
 635               	.LVL39:
 636               	.L32:
 662:tmk_core/common/command.c ****                 mk_wheel_time_to_max -= dec;
 637               		.loc 1 662 13 is_stmt 1 view .LVU140
 662:tmk_core/common/command.c ****                 mk_wheel_time_to_max -= dec;
 638               		.loc 1 662 38 is_stmt 0 view .LVU141
 639 00dc 8091 0000 		lds r24,mk_wheel_time_to_max
 640               	.LVL40:
 662:tmk_core/common/command.c ****                 mk_wheel_time_to_max -= dec;
 641               		.loc 1 662 16 view .LVU142
 642 00e0 6817      		cp r22,r24
 643 00e2 00F4      		brsh .L43
 663:tmk_core/common/command.c ****             else
 644               		.loc 1 663 17 is_stmt 1 view .LVU143
 663:tmk_core/common/command.c ****             else
 645               		.loc 1 663 38 is_stmt 0 view .LVU144
 646 00e4 861B      		sub r24,r22
 647 00e6 8093 0000 		sts mk_wheel_time_to_max,r24
 648               	.L44:
 666:tmk_core/common/command.c ****             break;
 649               		.loc 1 666 13 is_stmt 1 view .LVU145
 650               	.LBB15:
 666:tmk_core/common/command.c ****             break;
 651               		.loc 1 666 13 view .LVU146
 666:tmk_core/common/command.c ****             break;
 652               		.loc 1 666 13 view .LVU147
 653               	.LBE15:
 654 00ea 8091 0000 		lds r24,mk_wheel_time_to_max
 655 00ee 1F92      		push __zero_reg__
 656               	.LCFI44:
 657               		.cfi_remember_state
 658               		.cfi_def_cfa_offset 3
 659 00f0 8F93      		push r24
 660               	.LCFI45:
 661               		.cfi_def_cfa_offset 4
 662 00f2 80E0      		ldi r24,lo8(__c.3855)
 663 00f4 90E0      		ldi r25,hi8(__c.3855)
 664 00f6 00C0      		rjmp .L45
 665               	.L43:
 666               	.LCFI46:
 667               		.cfi_restore_state
 665:tmk_core/common/command.c ****             PRINT_SET_VAL(mk_wheel_time_to_max);
 668               		.loc 1 665 17 view .LVU148
 665:tmk_core/common/command.c ****             PRINT_SET_VAL(mk_wheel_time_to_max);
 669               		.loc 1 665 38 is_stmt 0 view .LVU149
 670 00f8 1092 0000 		sts mk_wheel_time_to_max,__zero_reg__
 671 00fc 00C0      		rjmp .L44
 672               		.cfi_endproc
 673               	.LFE36:
 675               		.section	.text.switch_default_layer,"ax",@progbits
 677               	switch_default_layer:
 678               	.LVL41:
 679               	.LFB40:
 693:tmk_core/common/command.c **** 
 694:tmk_core/common/command.c **** static bool mousekey_console(uint8_t code) {
 695:tmk_core/common/command.c ****     switch (code) {
 696:tmk_core/common/command.c ****         case KC_H:
 697:tmk_core/common/command.c ****         case KC_SLASH: /* ? */
 698:tmk_core/common/command.c ****             mousekey_console_help();
 699:tmk_core/common/command.c ****             break;
 700:tmk_core/common/command.c ****         case KC_Q:
 701:tmk_core/common/command.c ****         case KC_ESC:
 702:tmk_core/common/command.c ****             if (mousekey_param) {
 703:tmk_core/common/command.c ****                 mousekey_param = 0;
 704:tmk_core/common/command.c ****             } else {
 705:tmk_core/common/command.c ****                 print("C> ");
 706:tmk_core/common/command.c ****                 command_state = CONSOLE;
 707:tmk_core/common/command.c ****                 return false;
 708:tmk_core/common/command.c ****             }
 709:tmk_core/common/command.c ****             break;
 710:tmk_core/common/command.c ****         case KC_P:
 711:tmk_core/common/command.c ****             mousekey_param_print();
 712:tmk_core/common/command.c ****             break;
 713:tmk_core/common/command.c ****         case KC_1:
 714:tmk_core/common/command.c ****         case KC_2:
 715:tmk_core/common/command.c ****         case KC_3:
 716:tmk_core/common/command.c ****         case KC_4:
 717:tmk_core/common/command.c ****         case KC_5:
 718:tmk_core/common/command.c ****         case KC_6:
 719:tmk_core/common/command.c ****             mousekey_param = numkey2num(code);
 720:tmk_core/common/command.c ****             break;
 721:tmk_core/common/command.c ****         case KC_UP:
 722:tmk_core/common/command.c ****             mousekey_param_inc(mousekey_param, 1);
 723:tmk_core/common/command.c ****             break;
 724:tmk_core/common/command.c ****         case KC_DOWN:
 725:tmk_core/common/command.c ****             mousekey_param_dec(mousekey_param, 1);
 726:tmk_core/common/command.c ****             break;
 727:tmk_core/common/command.c ****         case KC_PGUP:
 728:tmk_core/common/command.c ****             mousekey_param_inc(mousekey_param, 10);
 729:tmk_core/common/command.c ****             break;
 730:tmk_core/common/command.c ****         case KC_PGDN:
 731:tmk_core/common/command.c ****             mousekey_param_dec(mousekey_param, 10);
 732:tmk_core/common/command.c ****             break;
 733:tmk_core/common/command.c ****         case KC_D:
 734:tmk_core/common/command.c ****             mk_delay             = MOUSEKEY_DELAY / 10;
 735:tmk_core/common/command.c ****             mk_interval          = MOUSEKEY_INTERVAL;
 736:tmk_core/common/command.c ****             mk_max_speed         = MOUSEKEY_MAX_SPEED;
 737:tmk_core/common/command.c ****             mk_time_to_max       = MOUSEKEY_TIME_TO_MAX;
 738:tmk_core/common/command.c ****             mk_wheel_max_speed   = MOUSEKEY_WHEEL_MAX_SPEED;
 739:tmk_core/common/command.c ****             mk_wheel_time_to_max = MOUSEKEY_WHEEL_TIME_TO_MAX;
 740:tmk_core/common/command.c ****             print("set default\n");
 741:tmk_core/common/command.c ****             break;
 742:tmk_core/common/command.c ****         default:
 743:tmk_core/common/command.c ****             print("?");
 744:tmk_core/common/command.c ****             return false;
 745:tmk_core/common/command.c ****     }
 746:tmk_core/common/command.c ****     if (mousekey_param) {
 747:tmk_core/common/command.c ****         xprintf("M%d> ", mousekey_param);
 748:tmk_core/common/command.c ****     } else {
 749:tmk_core/common/command.c ****         print("M>");
 750:tmk_core/common/command.c ****     }
 751:tmk_core/common/command.c ****     return true;
 752:tmk_core/common/command.c **** }
 753:tmk_core/common/command.c **** #endif
 754:tmk_core/common/command.c **** 
 755:tmk_core/common/command.c **** /***********************************************************
 756:tmk_core/common/command.c ****  * Utilities
 757:tmk_core/common/command.c ****  ***********************************************************/
 758:tmk_core/common/command.c **** uint8_t numkey2num(uint8_t code) {
 759:tmk_core/common/command.c ****     switch (code) {
 760:tmk_core/common/command.c ****         case KC_1:
 761:tmk_core/common/command.c ****             return 1;
 762:tmk_core/common/command.c ****         case KC_2:
 763:tmk_core/common/command.c ****             return 2;
 764:tmk_core/common/command.c ****         case KC_3:
 765:tmk_core/common/command.c ****             return 3;
 766:tmk_core/common/command.c ****         case KC_4:
 767:tmk_core/common/command.c ****             return 4;
 768:tmk_core/common/command.c ****         case KC_5:
 769:tmk_core/common/command.c ****             return 5;
 770:tmk_core/common/command.c ****         case KC_6:
 771:tmk_core/common/command.c ****             return 6;
 772:tmk_core/common/command.c ****         case KC_7:
 773:tmk_core/common/command.c ****             return 7;
 774:tmk_core/common/command.c ****         case KC_8:
 775:tmk_core/common/command.c ****             return 8;
 776:tmk_core/common/command.c ****         case KC_9:
 777:tmk_core/common/command.c ****             return 9;
 778:tmk_core/common/command.c ****         case KC_0:
 779:tmk_core/common/command.c ****             return 0;
 780:tmk_core/common/command.c ****     }
 781:tmk_core/common/command.c ****     return 0;
 782:tmk_core/common/command.c **** }
 783:tmk_core/common/command.c **** 
 784:tmk_core/common/command.c **** static void switch_default_layer(uint8_t layer) {
 680               		.loc 1 784 49 is_stmt 1 view -0
 681               		.cfi_startproc
 682               		.loc 1 784 49 is_stmt 0 view .LVU151
 683 0000 CF93      		push r28
 684               	.LCFI47:
 685               		.cfi_def_cfa_offset 3
 686               		.cfi_offset 28, -2
 687               	/* prologue: function */
 688               	/* frame size = 0 */
 689               	/* stack size = 1 */
 690               	.L__stack_usage = 1
 691 0002 C82F      		mov r28,r24
 785:tmk_core/common/command.c ****     xprintf("L%d\n", layer);
 692               		.loc 1 785 5 is_stmt 1 view .LVU152
 693               	.LBB16:
 694               		.loc 1 785 5 view .LVU153
 695               		.loc 1 785 5 view .LVU154
 696               	.LBE16:
 697 0004 1F92      		push __zero_reg__
 698               	.LCFI48:
 699               		.cfi_def_cfa_offset 4
 700 0006 8F93      		push r24
 701               	.LCFI49:
 702               		.cfi_def_cfa_offset 5
 703 0008 80E0      		ldi r24,lo8(__c.3911)
 704 000a 90E0      		ldi r25,hi8(__c.3911)
 705               	.LVL42:
 706               		.loc 1 785 5 is_stmt 0 view .LVU155
 707 000c 9F93      		push r25
 708               	.LCFI50:
 709               		.cfi_def_cfa_offset 6
 710 000e 8F93      		push r24
 711               	.LCFI51:
 712               		.cfi_def_cfa_offset 7
 713 0010 0E94 0000 		call __xprintf
 714               	.LVL43:
 786:tmk_core/common/command.c ****     default_layer_set(1UL << layer);
 715               		.loc 1 786 5 is_stmt 1 view .LVU156
 716 0014 61E0      		ldi r22,lo8(1)
 717 0016 70E0      		ldi r23,0
 718 0018 80E0      		ldi r24,0
 719 001a 90E0      		ldi r25,0
 720 001c 00C0      		rjmp 2f
 721               		1:
 722 001e 660F      		lsl r22
 723 0020 771F      		rol r23
 724 0022 881F      		rol r24
 725 0024 991F      		rol r25
 726               		2:
 727 0026 CA95      		dec r28
 728 0028 02F4      		brpl 1b
 729 002a 0E94 0000 		call default_layer_set
 730               	.LVL44:
 787:tmk_core/common/command.c ****     clear_keyboard();
 731               		.loc 1 787 5 view .LVU157
 732 002e 0F90      		pop __tmp_reg__
 733 0030 0F90      		pop __tmp_reg__
 734 0032 0F90      		pop __tmp_reg__
 735 0034 0F90      		pop __tmp_reg__
 736               	.LCFI52:
 737               		.cfi_def_cfa_offset 3
 738               	/* epilogue start */
 788:tmk_core/common/command.c **** }
 739               		.loc 1 788 1 is_stmt 0 view .LVU158
 740 0036 CF91      		pop r28
 741               	.LVL45:
 787:tmk_core/common/command.c ****     clear_keyboard();
 742               		.loc 1 787 5 view .LVU159
 743 0038 0C94 0000 		jmp clear_keyboard
 744               	.LVL46:
 745               		.cfi_endproc
 746               	.LFE40:
 748               		.section	.text.command_common,"ax",@progbits
 750               	command_common:
 751               	.LFB31:
 293:tmk_core/common/command.c **** #ifdef KEYBOARD_LOCK_ENABLE
 752               		.loc 1 293 42 is_stmt 1 view -0
 753               		.cfi_startproc
 754 0000 CF93      		push r28
 755               	.LCFI53:
 756               		.cfi_def_cfa_offset 3
 757               		.cfi_offset 28, -2
 758 0002 DF93      		push r29
 759               	.LCFI54:
 760               		.cfi_def_cfa_offset 4
 761               		.cfi_offset 29, -3
 762               	/* prologue: function */
 763               	/* frame size = 0 */
 764               	/* stack size = 2 */
 765               	.L__stack_usage = 2
 298:tmk_core/common/command.c **** #ifdef SLEEP_LED_ENABLE
 766               		.loc 1 298 5 view .LVU161
 767 0004 8B31      		cpi r24,lo8(27)
 768 0006 01F4      		brne .+2
 769 0008 00C0      		rjmp .L48
 770 000a 00F0      		brlo .+2
 771 000c 00C0      		rjmp .L49
 772 000e 8B30      		cpi r24,lo8(11)
 773 0010 01F4      		brne .+2
 774 0012 00C0      		rjmp .L50
 775 0014 00F0      		brlo .+2
 776 0016 00C0      		rjmp .L51
 777 0018 8630      		cpi r24,lo8(6)
 778 001a 01F4      		brne .+2
 779 001c 00C0      		rjmp .L52
 780 001e 00F4      		brsh .L53
 781 0020 8530      		cpi r24,lo8(5)
 782 0022 01F4      		brne .+2
 783 0024 00C0      		rjmp .L54
 784               	.L55:
 501:tmk_core/common/command.c ****             return false;
 785               		.loc 1 501 13 view .LVU162
 786               	.LBB103:
 501:tmk_core/common/command.c ****             return false;
 787               		.loc 1 501 13 view .LVU163
 501:tmk_core/common/command.c ****             return false;
 788               		.loc 1 501 13 view .LVU164
 789               	.LBE103:
 790 0026 80E0      		ldi r24,lo8(__c.3746)
 791 0028 90E0      		ldi r25,hi8(__c.3746)
 792 002a 0E94 0000 		call xputs
 502:tmk_core/common/command.c ****     }
 793               		.loc 1 502 13 view .LVU165
 502:tmk_core/common/command.c ****     }
 794               		.loc 1 502 20 is_stmt 0 view .LVU166
 795 002e 80E0      		ldi r24,0
 796 0030 00C0      		rjmp .L47
 797               	.L53:
 298:tmk_core/common/command.c **** #ifdef SLEEP_LED_ENABLE
 798               		.loc 1 298 5 view .LVU167
 799 0032 8730      		cpi r24,lo8(7)
 800 0034 01F4      		brne .+2
 801 0036 00C0      		rjmp .L56
 802 0038 8830      		cpi r24,lo8(8)
 803 003a 01F4      		brne .L55
 311:tmk_core/common/command.c ****             print_eeconfig();
 804               		.loc 1 311 13 is_stmt 1 view .LVU168
 805               	.LBB104:
 311:tmk_core/common/command.c ****             print_eeconfig();
 806               		.loc 1 311 13 view .LVU169
 311:tmk_core/common/command.c ****             print_eeconfig();
 807               		.loc 1 311 13 view .LVU170
 808               	.LBE104:
 809 003c 80E0      		ldi r24,lo8(__c.3703)
 810 003e 90E0      		ldi r25,hi8(__c.3703)
 811 0040 0E94 0000 		call xputs
 312:tmk_core/common/command.c ****             break;
 812               		.loc 1 312 13 view .LVU171
 813               	.LBB105:
 814               	.LBI105:
 214:tmk_core/common/command.c **** // Print these variables if NO_PRINT or USER_PRINT are not defined.
 815               		.loc 1 214 13 view .LVU172
 816               	.LBB106:
 218:tmk_core/common/command.c ****     print_dec(eeconfig_read_default_layer());
 817               		.loc 1 218 5 view .LVU173
 818               	.LBE106:
 819               	.LBE105:
 218:tmk_core/common/command.c ****     print_dec(eeconfig_read_default_layer());
 820               		.loc 1 218 5 view .LVU174
 218:tmk_core/common/command.c ****     print_dec(eeconfig_read_default_layer());
 821               		.loc 1 218 5 view .LVU175
 822               	.LBB158:
 823               	.LBB107:
 824 0044 80E0      		ldi r24,lo8(__c.3595)
 825 0046 90E0      		ldi r25,hi8(__c.3595)
 826 0048 0E94 0000 		call xputs
 219:tmk_core/common/command.c ****     print("\n");
 827               		.loc 1 219 5 view .LVU176
 828 004c 0E94 0000 		call eeconfig_read_default_layer
 829               	.LBE107:
 830               	.LBE158:
 219:tmk_core/common/command.c ****     print("\n");
 831               		.loc 1 219 5 view .LVU177
 219:tmk_core/common/command.c ****     print("\n");
 832               		.loc 1 219 5 view .LVU178
 833               	.LBB159:
 834               	.LBB108:
 835 0050 1F92      		push __zero_reg__
 836               	.LCFI55:
 837               		.cfi_def_cfa_offset 5
 838 0052 8F93      		push r24
 839               	.LCFI56:
 840               		.cfi_def_cfa_offset 6
 841 0054 80E0      		ldi r24,lo8(__c.3597)
 842 0056 90E0      		ldi r25,hi8(__c.3597)
 843 0058 9F93      		push r25
 844               	.LCFI57:
 845               		.cfi_def_cfa_offset 7
 846 005a 8F93      		push r24
 847               	.LCFI58:
 848               		.cfi_def_cfa_offset 8
 849 005c 0E94 0000 		call __xprintf
 220:tmk_core/common/command.c **** 
 850               		.loc 1 220 5 view .LVU179
 851               	.LBE108:
 852               	.LBE159:
 220:tmk_core/common/command.c **** 
 853               		.loc 1 220 5 view .LVU180
 220:tmk_core/common/command.c **** 
 854               		.loc 1 220 5 view .LVU181
 855               	.LBB160:
 856               	.LBB109:
 857 0060 80E0      		ldi r24,lo8(__c.3599)
 858 0062 90E0      		ldi r25,hi8(__c.3599)
 859 0064 0E94 0000 		call xputs
 222:tmk_core/common/command.c ****     dc.raw = eeconfig_read_debug();
 860               		.loc 1 222 5 view .LVU182
 223:tmk_core/common/command.c ****     print("debug_config.raw: ");
 861               		.loc 1 223 5 view .LVU183
 223:tmk_core/common/command.c ****     print("debug_config.raw: ");
 862               		.loc 1 223 14 is_stmt 0 view .LVU184
 863 0068 0E94 0000 		call eeconfig_read_debug
 864 006c C82F      		mov r28,r24
 224:tmk_core/common/command.c ****     print_hex8(dc.raw);
 865               		.loc 1 224 5 is_stmt 1 view .LVU185
 866               	.LBE109:
 867               	.LBE160:
 224:tmk_core/common/command.c ****     print_hex8(dc.raw);
 868               		.loc 1 224 5 view .LVU186
 224:tmk_core/common/command.c ****     print_hex8(dc.raw);
 869               		.loc 1 224 5 view .LVU187
 870               	.LBB161:
 871               	.LBB110:
 872 006e 80E0      		ldi r24,lo8(__c.3602)
 873 0070 90E0      		ldi r25,hi8(__c.3602)
 874 0072 0E94 0000 		call xputs
 225:tmk_core/common/command.c ****     print("\n");
 875               		.loc 1 225 5 view .LVU188
 876               	.LBE110:
 877               	.LBE161:
 225:tmk_core/common/command.c ****     print("\n");
 878               		.loc 1 225 5 view .LVU189
 225:tmk_core/common/command.c ****     print("\n");
 879               		.loc 1 225 5 view .LVU190
 880               	.LBB162:
 881               	.LBB111:
 882 0076 1F92      		push __zero_reg__
 883               	.LCFI59:
 884               		.cfi_def_cfa_offset 9
 885 0078 CF93      		push r28
 886               	.LCFI60:
 887               		.cfi_def_cfa_offset 10
 888 007a 80E0      		ldi r24,lo8(__c.3604)
 889 007c 90E0      		ldi r25,hi8(__c.3604)
 890 007e 9F93      		push r25
 891               	.LCFI61:
 892               		.cfi_def_cfa_offset 11
 893 0080 8F93      		push r24
 894               	.LCFI62:
 895               		.cfi_def_cfa_offset 12
 896 0082 0E94 0000 		call __xprintf
 226:tmk_core/common/command.c ****     print(".enable: ");
 897               		.loc 1 226 5 view .LVU191
 898               	.LBE111:
 899               	.LBE162:
 226:tmk_core/common/command.c ****     print(".enable: ");
 900               		.loc 1 226 5 view .LVU192
 226:tmk_core/common/command.c ****     print(".enable: ");
 901               		.loc 1 226 5 view .LVU193
 902               	.LBB163:
 903               	.LBB112:
 904 0086 80E0      		ldi r24,lo8(__c.3606)
 905 0088 90E0      		ldi r25,hi8(__c.3606)
 906 008a 0E94 0000 		call xputs
 227:tmk_core/common/command.c ****     print_dec(dc.enable);
 907               		.loc 1 227 5 view .LVU194
 908               	.LBE112:
 909               	.LBE163:
 227:tmk_core/common/command.c ****     print_dec(dc.enable);
 910               		.loc 1 227 5 view .LVU195
 227:tmk_core/common/command.c ****     print_dec(dc.enable);
 911               		.loc 1 227 5 view .LVU196
 912               	.LBB164:
 913               	.LBB113:
 914 008e 80E0      		ldi r24,lo8(__c.3608)
 915 0090 90E0      		ldi r25,hi8(__c.3608)
 916 0092 0E94 0000 		call xputs
 228:tmk_core/common/command.c ****     print("\n");
 917               		.loc 1 228 5 view .LVU197
 918               	.LBE113:
 919               	.LBE164:
 228:tmk_core/common/command.c ****     print("\n");
 920               		.loc 1 228 5 view .LVU198
 228:tmk_core/common/command.c ****     print("\n");
 921               		.loc 1 228 5 view .LVU199
 922               	.LBB165:
 923               	.LBB114:
 924 0096 8C2F      		mov r24,r28
 925 0098 8170      		andi r24,1
 926 009a 1F92      		push __zero_reg__
 927               	.LCFI63:
 928               		.cfi_def_cfa_offset 13
 929 009c 8F93      		push r24
 930               	.LCFI64:
 931               		.cfi_def_cfa_offset 14
 932 009e 80E0      		ldi r24,lo8(__c.3610)
 933 00a0 90E0      		ldi r25,hi8(__c.3610)
 934 00a2 9F93      		push r25
 935               	.LCFI65:
 936               		.cfi_def_cfa_offset 15
 937 00a4 8F93      		push r24
 938               	.LCFI66:
 939               		.cfi_def_cfa_offset 16
 940 00a6 0E94 0000 		call __xprintf
 229:tmk_core/common/command.c ****     print(".matrix: ");
 941               		.loc 1 229 5 view .LVU200
 942               	.LBE114:
 943               	.LBE165:
 229:tmk_core/common/command.c ****     print(".matrix: ");
 944               		.loc 1 229 5 view .LVU201
 229:tmk_core/common/command.c ****     print(".matrix: ");
 945               		.loc 1 229 5 view .LVU202
 946               	.LBB166:
 947               	.LBB115:
 948 00aa 80E0      		ldi r24,lo8(__c.3612)
 949 00ac 90E0      		ldi r25,hi8(__c.3612)
 950 00ae 0E94 0000 		call xputs
 230:tmk_core/common/command.c ****     print_dec(dc.matrix);
 951               		.loc 1 230 5 view .LVU203
 952               	.LBE115:
 953               	.LBE166:
 230:tmk_core/common/command.c ****     print_dec(dc.matrix);
 954               		.loc 1 230 5 view .LVU204
 230:tmk_core/common/command.c ****     print_dec(dc.matrix);
 955               		.loc 1 230 5 view .LVU205
 956               	.LBB167:
 957               	.LBB116:
 958 00b2 80E0      		ldi r24,lo8(__c.3614)
 959 00b4 90E0      		ldi r25,hi8(__c.3614)
 960 00b6 0E94 0000 		call xputs
 231:tmk_core/common/command.c ****     print("\n");
 961               		.loc 1 231 5 view .LVU206
 962               	.LBE116:
 963               	.LBE167:
 231:tmk_core/common/command.c ****     print("\n");
 964               		.loc 1 231 5 view .LVU207
 231:tmk_core/common/command.c ****     print("\n");
 965               		.loc 1 231 5 view .LVU208
 966               	.LBB168:
 967               	.LBB117:
 968 00ba C1FB      		bst r28,1
 969 00bc 8827      		clr r24
 970 00be 80F9      		bld r24,0
 971 00c0 1F92      		push __zero_reg__
 972               	.LCFI67:
 973               		.cfi_def_cfa_offset 17
 974 00c2 8F93      		push r24
 975               	.LCFI68:
 976               		.cfi_def_cfa_offset 18
 977 00c4 80E0      		ldi r24,lo8(__c.3616)
 978 00c6 90E0      		ldi r25,hi8(__c.3616)
 979 00c8 9F93      		push r25
 980               	.LCFI69:
 981               		.cfi_def_cfa_offset 19
 982 00ca 8F93      		push r24
 983               	.LCFI70:
 984               		.cfi_def_cfa_offset 20
 985 00cc 0E94 0000 		call __xprintf
 232:tmk_core/common/command.c ****     print(".keyboard: ");
 986               		.loc 1 232 5 view .LVU209
 987               	.LBE117:
 988               	.LBE168:
 232:tmk_core/common/command.c ****     print(".keyboard: ");
 989               		.loc 1 232 5 view .LVU210
 232:tmk_core/common/command.c ****     print(".keyboard: ");
 990               		.loc 1 232 5 view .LVU211
 991               	.LBB169:
 992               	.LBB118:
 993 00d0 80E0      		ldi r24,lo8(__c.3618)
 994 00d2 90E0      		ldi r25,hi8(__c.3618)
 995 00d4 0E94 0000 		call xputs
 233:tmk_core/common/command.c ****     print_dec(dc.keyboard);
 996               		.loc 1 233 5 view .LVU212
 997               	.LBE118:
 998               	.LBE169:
 233:tmk_core/common/command.c ****     print_dec(dc.keyboard);
 999               		.loc 1 233 5 view .LVU213
 233:tmk_core/common/command.c ****     print_dec(dc.keyboard);
 1000               		.loc 1 233 5 view .LVU214
 1001               	.LBB170:
 1002               	.LBB119:
 1003 00d8 80E0      		ldi r24,lo8(__c.3620)
 1004 00da 90E0      		ldi r25,hi8(__c.3620)
 1005 00dc 0E94 0000 		call xputs
 234:tmk_core/common/command.c ****     print("\n");
 1006               		.loc 1 234 5 view .LVU215
 1007               	.LBE119:
 1008               	.LBE170:
 234:tmk_core/common/command.c ****     print("\n");
 1009               		.loc 1 234 5 view .LVU216
 234:tmk_core/common/command.c ****     print("\n");
 1010               		.loc 1 234 5 view .LVU217
 1011               	.LBB171:
 1012               	.LBB120:
 1013 00e0 C2FB      		bst r28,2
 1014 00e2 8827      		clr r24
 1015 00e4 80F9      		bld r24,0
 1016 00e6 1F92      		push __zero_reg__
 1017               	.LCFI71:
 1018               		.cfi_def_cfa_offset 21
 1019 00e8 8F93      		push r24
 1020               	.LCFI72:
 1021               		.cfi_def_cfa_offset 22
 1022 00ea 80E0      		ldi r24,lo8(__c.3622)
 1023 00ec 90E0      		ldi r25,hi8(__c.3622)
 1024 00ee 9F93      		push r25
 1025               	.LCFI73:
 1026               		.cfi_def_cfa_offset 23
 1027 00f0 8F93      		push r24
 1028               	.LCFI74:
 1029               		.cfi_def_cfa_offset 24
 1030 00f2 0E94 0000 		call __xprintf
 235:tmk_core/common/command.c ****     print(".mouse: ");
 1031               		.loc 1 235 5 view .LVU218
 1032               	.LBE120:
 1033               	.LBE171:
 235:tmk_core/common/command.c ****     print(".mouse: ");
 1034               		.loc 1 235 5 view .LVU219
 235:tmk_core/common/command.c ****     print(".mouse: ");
 1035               		.loc 1 235 5 view .LVU220
 1036               	.LBB172:
 1037               	.LBB121:
 1038 00f6 80E0      		ldi r24,lo8(__c.3624)
 1039 00f8 90E0      		ldi r25,hi8(__c.3624)
 1040 00fa 0E94 0000 		call xputs
 236:tmk_core/common/command.c ****     print_dec(dc.mouse);
 1041               		.loc 1 236 5 view .LVU221
 1042               	.LBE121:
 1043               	.LBE172:
 236:tmk_core/common/command.c ****     print_dec(dc.mouse);
 1044               		.loc 1 236 5 view .LVU222
 236:tmk_core/common/command.c ****     print_dec(dc.mouse);
 1045               		.loc 1 236 5 view .LVU223
 1046               	.LBB173:
 1047               	.LBB122:
 1048 00fe 80E0      		ldi r24,lo8(__c.3626)
 1049 0100 90E0      		ldi r25,hi8(__c.3626)
 1050 0102 0E94 0000 		call xputs
 237:tmk_core/common/command.c ****     print("\n");
 1051               		.loc 1 237 5 view .LVU224
 1052               	.LBE122:
 1053               	.LBE173:
 237:tmk_core/common/command.c ****     print("\n");
 1054               		.loc 1 237 5 view .LVU225
 237:tmk_core/common/command.c ****     print("\n");
 1055               		.loc 1 237 5 view .LVU226
 1056               	.LBB174:
 1057               	.LBB123:
 1058 0106 C3FB      		bst r28,3
 1059 0108 CC27      		clr r28
 1060 010a C0F9      		bld r28,0
 1061 010c 1F92      		push __zero_reg__
 1062               	.LCFI75:
 1063               		.cfi_def_cfa_offset 25
 1064 010e CF93      		push r28
 1065               	.LCFI76:
 1066               		.cfi_def_cfa_offset 26
 1067 0110 80E0      		ldi r24,lo8(__c.3628)
 1068 0112 90E0      		ldi r25,hi8(__c.3628)
 1069 0114 9F93      		push r25
 1070               	.LCFI77:
 1071               		.cfi_def_cfa_offset 27
 1072 0116 8F93      		push r24
 1073               	.LCFI78:
 1074               		.cfi_def_cfa_offset 28
 1075 0118 0E94 0000 		call __xprintf
 238:tmk_core/common/command.c **** 
 1076               		.loc 1 238 5 view .LVU227
 1077               	.LBE123:
 1078               	.LBE174:
 238:tmk_core/common/command.c **** 
 1079               		.loc 1 238 5 view .LVU228
 238:tmk_core/common/command.c **** 
 1080               		.loc 1 238 5 view .LVU229
 1081               	.LBB175:
 1082               	.LBB124:
 1083 011c 80E0      		ldi r24,lo8(__c.3630)
 1084 011e 90E0      		ldi r25,hi8(__c.3630)
 1085 0120 0E94 0000 		call xputs
 240:tmk_core/common/command.c ****     kc.raw = eeconfig_read_keymap();
 1086               		.loc 1 240 5 view .LVU230
 241:tmk_core/common/command.c ****     print("keymap_config.raw: ");
 1087               		.loc 1 241 5 view .LVU231
 241:tmk_core/common/command.c ****     print("keymap_config.raw: ");
 1088               		.loc 1 241 14 is_stmt 0 view .LVU232
 1089 0124 0E94 0000 		call eeconfig_read_keymap
 1090 0128 EC01      		movw r28,r24
 242:tmk_core/common/command.c ****     print_hex8(kc.raw);
 1091               		.loc 1 242 5 is_stmt 1 view .LVU233
 1092               	.LBE124:
 1093               	.LBE175:
 242:tmk_core/common/command.c ****     print_hex8(kc.raw);
 1094               		.loc 1 242 5 view .LVU234
 242:tmk_core/common/command.c ****     print_hex8(kc.raw);
 1095               		.loc 1 242 5 view .LVU235
 1096               	.LBB176:
 1097               	.LBB125:
 1098 012a 80E0      		ldi r24,lo8(__c.3633)
 1099 012c 90E0      		ldi r25,hi8(__c.3633)
 1100 012e 0E94 0000 		call xputs
 243:tmk_core/common/command.c ****     print("\n");
 1101               		.loc 1 243 5 view .LVU236
 1102               	.LBE125:
 1103               	.LBE176:
 243:tmk_core/common/command.c ****     print("\n");
 1104               		.loc 1 243 5 view .LVU237
 243:tmk_core/common/command.c ****     print("\n");
 1105               		.loc 1 243 5 view .LVU238
 1106               	.LBB177:
 1107               	.LBB126:
 1108 0132 DF93      		push r29
 1109               	.LCFI79:
 1110               		.cfi_def_cfa_offset 29
 1111 0134 CF93      		push r28
 1112               	.LCFI80:
 1113               		.cfi_def_cfa_offset 30
 1114 0136 80E0      		ldi r24,lo8(__c.3635)
 1115 0138 90E0      		ldi r25,hi8(__c.3635)
 1116 013a 9F93      		push r25
 1117               	.LCFI81:
 1118               		.cfi_def_cfa_offset 31
 1119 013c 8F93      		push r24
 1120               	.LCFI82:
 1121               		.cfi_def_cfa_offset 32
 1122 013e 0E94 0000 		call __xprintf
 244:tmk_core/common/command.c ****     print(".swap_control_capslock: ");
 1123               		.loc 1 244 5 view .LVU239
 1124               	.LBE126:
 1125               	.LBE177:
 244:tmk_core/common/command.c ****     print(".swap_control_capslock: ");
 1126               		.loc 1 244 5 view .LVU240
 244:tmk_core/common/command.c ****     print(".swap_control_capslock: ");
 1127               		.loc 1 244 5 view .LVU241
 1128               	.LBB178:
 1129               	.LBB127:
 1130 0142 80E0      		ldi r24,lo8(__c.3637)
 1131 0144 90E0      		ldi r25,hi8(__c.3637)
 1132 0146 0E94 0000 		call xputs
 245:tmk_core/common/command.c ****     print_dec(kc.swap_control_capslock);
 1133               		.loc 1 245 5 view .LVU242
 1134               	.LBE127:
 1135               	.LBE178:
 245:tmk_core/common/command.c ****     print_dec(kc.swap_control_capslock);
 1136               		.loc 1 245 5 view .LVU243
 245:tmk_core/common/command.c ****     print_dec(kc.swap_control_capslock);
 1137               		.loc 1 245 5 view .LVU244
 1138               	.LBB179:
 1139               	.LBB128:
 1140 014a 80E0      		ldi r24,lo8(__c.3639)
 1141 014c 90E0      		ldi r25,hi8(__c.3639)
 1142 014e 0E94 0000 		call xputs
 246:tmk_core/common/command.c ****     print("\n");
 1143               		.loc 1 246 5 view .LVU245
 1144               	.LBE128:
 1145               	.LBE179:
 246:tmk_core/common/command.c ****     print("\n");
 1146               		.loc 1 246 5 view .LVU246
 246:tmk_core/common/command.c ****     print("\n");
 1147               		.loc 1 246 5 view .LVU247
 1148               	.LBB180:
 1149               	.LBB129:
 1150 0152 8C2F      		mov r24,r28
 1151 0154 8170      		andi r24,1
 1152 0156 1F92      		push __zero_reg__
 1153               	.LCFI83:
 1154               		.cfi_def_cfa_offset 33
 1155 0158 8F93      		push r24
 1156               	.LCFI84:
 1157               		.cfi_def_cfa_offset 34
 1158 015a 80E0      		ldi r24,lo8(__c.3641)
 1159 015c 90E0      		ldi r25,hi8(__c.3641)
 1160 015e 9F93      		push r25
 1161               	.LCFI85:
 1162               		.cfi_def_cfa_offset 35
 1163 0160 8F93      		push r24
 1164               	.LCFI86:
 1165               		.cfi_def_cfa_offset 36
 1166 0162 0E94 0000 		call __xprintf
 247:tmk_core/common/command.c ****     print(".capslock_to_control: ");
 1167               		.loc 1 247 5 view .LVU248
 1168               	.LBE129:
 1169               	.LBE180:
 247:tmk_core/common/command.c ****     print(".capslock_to_control: ");
 1170               		.loc 1 247 5 view .LVU249
 247:tmk_core/common/command.c ****     print(".capslock_to_control: ");
 1171               		.loc 1 247 5 view .LVU250
 1172               	.LBB181:
 1173               	.LBB130:
 1174 0166 8DB7      		in r24,__SP_L__
 1175 0168 9EB7      		in r25,__SP_H__
 1176 016a 8096      		adiw r24,32
 1177 016c 0FB6      		in __tmp_reg__,__SREG__
 1178 016e F894      		cli
 1179 0170 9EBF      		out __SP_H__,r25
 1180 0172 0FBE      		out __SREG__,__tmp_reg__
 1181 0174 8DBF      		out __SP_L__,r24
 1182               	.LCFI87:
 1183               		.cfi_def_cfa_offset 4
 1184 0176 80E0      		ldi r24,lo8(__c.3643)
 1185 0178 90E0      		ldi r25,hi8(__c.3643)
 1186 017a 0E94 0000 		call xputs
 248:tmk_core/common/command.c ****     print_dec(kc.capslock_to_control);
 1187               		.loc 1 248 5 view .LVU251
 1188               	.LBE130:
 1189               	.LBE181:
 248:tmk_core/common/command.c ****     print_dec(kc.capslock_to_control);
 1190               		.loc 1 248 5 view .LVU252
 248:tmk_core/common/command.c ****     print_dec(kc.capslock_to_control);
 1191               		.loc 1 248 5 view .LVU253
 1192               	.LBB182:
 1193               	.LBB131:
 1194 017e 80E0      		ldi r24,lo8(__c.3645)
 1195 0180 90E0      		ldi r25,hi8(__c.3645)
 1196 0182 0E94 0000 		call xputs
 249:tmk_core/common/command.c ****     print("\n");
 1197               		.loc 1 249 5 view .LVU254
 1198               	.LBE131:
 1199               	.LBE182:
 249:tmk_core/common/command.c ****     print("\n");
 1200               		.loc 1 249 5 view .LVU255
 249:tmk_core/common/command.c ****     print("\n");
 1201               		.loc 1 249 5 view .LVU256
 1202               	.LBB183:
 1203               	.LBB132:
 1204 0186 C1FB      		bst r28,1
 1205 0188 8827      		clr r24
 1206 018a 80F9      		bld r24,0
 1207 018c 1F92      		push __zero_reg__
 1208               	.LCFI88:
 1209               		.cfi_def_cfa_offset 5
 1210 018e 8F93      		push r24
 1211               	.LCFI89:
 1212               		.cfi_def_cfa_offset 6
 1213 0190 80E0      		ldi r24,lo8(__c.3647)
 1214 0192 90E0      		ldi r25,hi8(__c.3647)
 1215 0194 9F93      		push r25
 1216               	.LCFI90:
 1217               		.cfi_def_cfa_offset 7
 1218 0196 8F93      		push r24
 1219               	.LCFI91:
 1220               		.cfi_def_cfa_offset 8
 1221 0198 0E94 0000 		call __xprintf
 250:tmk_core/common/command.c ****     print(".swap_lctl_lgui: ");
 1222               		.loc 1 250 5 view .LVU257
 1223               	.LBE132:
 1224               	.LBE183:
 250:tmk_core/common/command.c ****     print(".swap_lctl_lgui: ");
 1225               		.loc 1 250 5 view .LVU258
 250:tmk_core/common/command.c ****     print(".swap_lctl_lgui: ");
 1226               		.loc 1 250 5 view .LVU259
 1227               	.LBB184:
 1228               	.LBB133:
 1229 019c 80E0      		ldi r24,lo8(__c.3649)
 1230 019e 90E0      		ldi r25,hi8(__c.3649)
 1231 01a0 0E94 0000 		call xputs
 251:tmk_core/common/command.c ****     print_dec(kc.swap_lctl_lgui);
 1232               		.loc 1 251 5 view .LVU260
 1233               	.LBE133:
 1234               	.LBE184:
 251:tmk_core/common/command.c ****     print_dec(kc.swap_lctl_lgui);
 1235               		.loc 1 251 5 view .LVU261
 251:tmk_core/common/command.c ****     print_dec(kc.swap_lctl_lgui);
 1236               		.loc 1 251 5 view .LVU262
 1237               	.LBB185:
 1238               	.LBB134:
 1239 01a4 80E0      		ldi r24,lo8(__c.3651)
 1240 01a6 90E0      		ldi r25,hi8(__c.3651)
 1241 01a8 0E94 0000 		call xputs
 252:tmk_core/common/command.c ****     print("\n");
 1242               		.loc 1 252 5 view .LVU263
 1243               	.LBE134:
 1244               	.LBE185:
 252:tmk_core/common/command.c ****     print("\n");
 1245               		.loc 1 252 5 view .LVU264
 252:tmk_core/common/command.c ****     print("\n");
 1246               		.loc 1 252 5 view .LVU265
 1247               	.LBB186:
 1248               	.LBB135:
 1249 01ac 8D2F      		mov r24,r29
 1250 01ae 8170      		andi r24,1
 1251 01b0 1F92      		push __zero_reg__
 1252               	.LCFI92:
 1253               		.cfi_def_cfa_offset 9
 1254 01b2 8F93      		push r24
 1255               	.LCFI93:
 1256               		.cfi_def_cfa_offset 10
 1257 01b4 80E0      		ldi r24,lo8(__c.3653)
 1258 01b6 90E0      		ldi r25,hi8(__c.3653)
 1259 01b8 9F93      		push r25
 1260               	.LCFI94:
 1261               		.cfi_def_cfa_offset 11
 1262 01ba 8F93      		push r24
 1263               	.LCFI95:
 1264               		.cfi_def_cfa_offset 12
 1265 01bc 0E94 0000 		call __xprintf
 253:tmk_core/common/command.c ****     print(".swap_rctl_rgui: ");
 1266               		.loc 1 253 5 view .LVU266
 1267               	.LBE135:
 1268               	.LBE186:
 253:tmk_core/common/command.c ****     print(".swap_rctl_rgui: ");
 1269               		.loc 1 253 5 view .LVU267
 253:tmk_core/common/command.c ****     print(".swap_rctl_rgui: ");
 1270               		.loc 1 253 5 view .LVU268
 1271               	.LBB187:
 1272               	.LBB136:
 1273 01c0 80E0      		ldi r24,lo8(__c.3655)
 1274 01c2 90E0      		ldi r25,hi8(__c.3655)
 1275 01c4 0E94 0000 		call xputs
 254:tmk_core/common/command.c ****     print_dec(kc.swap_rctl_rgui);
 1276               		.loc 1 254 5 view .LVU269
 1277               	.LBE136:
 1278               	.LBE187:
 254:tmk_core/common/command.c ****     print_dec(kc.swap_rctl_rgui);
 1279               		.loc 1 254 5 view .LVU270
 254:tmk_core/common/command.c ****     print_dec(kc.swap_rctl_rgui);
 1280               		.loc 1 254 5 view .LVU271
 1281               	.LBB188:
 1282               	.LBB137:
 1283 01c8 80E0      		ldi r24,lo8(__c.3657)
 1284 01ca 90E0      		ldi r25,hi8(__c.3657)
 1285 01cc 0E94 0000 		call xputs
 255:tmk_core/common/command.c ****     print("\n");
 1286               		.loc 1 255 5 view .LVU272
 1287               	.LBE137:
 1288               	.LBE188:
 255:tmk_core/common/command.c ****     print("\n");
 1289               		.loc 1 255 5 view .LVU273
 255:tmk_core/common/command.c ****     print("\n");
 1290               		.loc 1 255 5 view .LVU274
 1291               	.LBB189:
 1292               	.LBB138:
 1293 01d0 D695      		lsr r29
 1294 01d2 D170      		andi r29,1
 1295 01d4 1F92      		push __zero_reg__
 1296               	.LCFI96:
 1297               		.cfi_def_cfa_offset 13
 1298 01d6 DF93      		push r29
 1299               	.LCFI97:
 1300               		.cfi_def_cfa_offset 14
 1301 01d8 80E0      		ldi r24,lo8(__c.3659)
 1302 01da 90E0      		ldi r25,hi8(__c.3659)
 1303 01dc 9F93      		push r25
 1304               	.LCFI98:
 1305               		.cfi_def_cfa_offset 15
 1306 01de 8F93      		push r24
 1307               	.LCFI99:
 1308               		.cfi_def_cfa_offset 16
 1309 01e0 0E94 0000 		call __xprintf
 256:tmk_core/common/command.c ****     print(".swap_lalt_lgui: ");
 1310               		.loc 1 256 5 view .LVU275
 1311               	.LBE138:
 1312               	.LBE189:
 256:tmk_core/common/command.c ****     print(".swap_lalt_lgui: ");
 1313               		.loc 1 256 5 view .LVU276
 256:tmk_core/common/command.c ****     print(".swap_lalt_lgui: ");
 1314               		.loc 1 256 5 view .LVU277
 1315               	.LBB190:
 1316               	.LBB139:
 1317 01e4 80E0      		ldi r24,lo8(__c.3661)
 1318 01e6 90E0      		ldi r25,hi8(__c.3661)
 1319 01e8 0E94 0000 		call xputs
 257:tmk_core/common/command.c ****     print_dec(kc.swap_lalt_lgui);
 1320               		.loc 1 257 5 view .LVU278
 1321               	.LBE139:
 1322               	.LBE190:
 257:tmk_core/common/command.c ****     print_dec(kc.swap_lalt_lgui);
 1323               		.loc 1 257 5 view .LVU279
 257:tmk_core/common/command.c ****     print_dec(kc.swap_lalt_lgui);
 1324               		.loc 1 257 5 view .LVU280
 1325               	.LBB191:
 1326               	.LBB140:
 1327 01ec 80E0      		ldi r24,lo8(__c.3663)
 1328 01ee 90E0      		ldi r25,hi8(__c.3663)
 1329 01f0 0E94 0000 		call xputs
 258:tmk_core/common/command.c ****     print("\n");
 1330               		.loc 1 258 5 view .LVU281
 1331               	.LBE140:
 1332               	.LBE191:
 258:tmk_core/common/command.c ****     print("\n");
 1333               		.loc 1 258 5 view .LVU282
 258:tmk_core/common/command.c ****     print("\n");
 1334               		.loc 1 258 5 view .LVU283
 1335               	.LBB192:
 1336               	.LBB141:
 1337 01f4 C2FB      		bst r28,2
 1338 01f6 8827      		clr r24
 1339 01f8 80F9      		bld r24,0
 1340 01fa 1F92      		push __zero_reg__
 1341               	.LCFI100:
 1342               		.cfi_def_cfa_offset 17
 1343 01fc 8F93      		push r24
 1344               	.LCFI101:
 1345               		.cfi_def_cfa_offset 18
 1346 01fe 80E0      		ldi r24,lo8(__c.3665)
 1347 0200 90E0      		ldi r25,hi8(__c.3665)
 1348 0202 9F93      		push r25
 1349               	.LCFI102:
 1350               		.cfi_def_cfa_offset 19
 1351 0204 8F93      		push r24
 1352               	.LCFI103:
 1353               		.cfi_def_cfa_offset 20
 1354 0206 0E94 0000 		call __xprintf
 259:tmk_core/common/command.c ****     print(".swap_ralt_rgui: ");
 1355               		.loc 1 259 5 view .LVU284
 1356               	.LBE141:
 1357               	.LBE192:
 259:tmk_core/common/command.c ****     print(".swap_ralt_rgui: ");
 1358               		.loc 1 259 5 view .LVU285
 259:tmk_core/common/command.c ****     print(".swap_ralt_rgui: ");
 1359               		.loc 1 259 5 view .LVU286
 1360               	.LBB193:
 1361               	.LBB142:
 1362 020a 80E0      		ldi r24,lo8(__c.3667)
 1363 020c 90E0      		ldi r25,hi8(__c.3667)
 1364 020e 0E94 0000 		call xputs
 260:tmk_core/common/command.c ****     print_dec(kc.swap_ralt_rgui);
 1365               		.loc 1 260 5 view .LVU287
 1366               	.LBE142:
 1367               	.LBE193:
 260:tmk_core/common/command.c ****     print_dec(kc.swap_ralt_rgui);
 1368               		.loc 1 260 5 view .LVU288
 260:tmk_core/common/command.c ****     print_dec(kc.swap_ralt_rgui);
 1369               		.loc 1 260 5 view .LVU289
 1370               	.LBB194:
 1371               	.LBB143:
 1372 0212 80E0      		ldi r24,lo8(__c.3669)
 1373 0214 90E0      		ldi r25,hi8(__c.3669)
 1374 0216 0E94 0000 		call xputs
 261:tmk_core/common/command.c ****     print("\n");
 1375               		.loc 1 261 5 view .LVU290
 1376               	.LBE143:
 1377               	.LBE194:
 261:tmk_core/common/command.c ****     print("\n");
 1378               		.loc 1 261 5 view .LVU291
 261:tmk_core/common/command.c ****     print("\n");
 1379               		.loc 1 261 5 view .LVU292
 1380               	.LBB195:
 1381               	.LBB144:
 1382 021a C3FB      		bst r28,3
 1383 021c 8827      		clr r24
 1384 021e 80F9      		bld r24,0
 1385 0220 1F92      		push __zero_reg__
 1386               	.LCFI104:
 1387               		.cfi_def_cfa_offset 21
 1388 0222 8F93      		push r24
 1389               	.LCFI105:
 1390               		.cfi_def_cfa_offset 22
 1391 0224 80E0      		ldi r24,lo8(__c.3671)
 1392 0226 90E0      		ldi r25,hi8(__c.3671)
 1393 0228 9F93      		push r25
 1394               	.LCFI106:
 1395               		.cfi_def_cfa_offset 23
 1396 022a 8F93      		push r24
 1397               	.LCFI107:
 1398               		.cfi_def_cfa_offset 24
 1399 022c 0E94 0000 		call __xprintf
 262:tmk_core/common/command.c ****     print(".no_gui: ");
 1400               		.loc 1 262 5 view .LVU293
 1401               	.LBE144:
 1402               	.LBE195:
 262:tmk_core/common/command.c ****     print(".no_gui: ");
 1403               		.loc 1 262 5 view .LVU294
 262:tmk_core/common/command.c ****     print(".no_gui: ");
 1404               		.loc 1 262 5 view .LVU295
 1405               	.LBB196:
 1406               	.LBB145:
 1407 0230 80E0      		ldi r24,lo8(__c.3673)
 1408 0232 90E0      		ldi r25,hi8(__c.3673)
 1409 0234 0E94 0000 		call xputs
 263:tmk_core/common/command.c ****     print_dec(kc.no_gui);
 1410               		.loc 1 263 5 view .LVU296
 1411               	.LBE145:
 1412               	.LBE196:
 263:tmk_core/common/command.c ****     print_dec(kc.no_gui);
 1413               		.loc 1 263 5 view .LVU297
 263:tmk_core/common/command.c ****     print_dec(kc.no_gui);
 1414               		.loc 1 263 5 view .LVU298
 1415               	.LBB197:
 1416               	.LBB146:
 1417 0238 80E0      		ldi r24,lo8(__c.3675)
 1418 023a 90E0      		ldi r25,hi8(__c.3675)
 1419 023c 0E94 0000 		call xputs
 264:tmk_core/common/command.c ****     print("\n");
 1420               		.loc 1 264 5 view .LVU299
 1421               	.LBE146:
 1422               	.LBE197:
 264:tmk_core/common/command.c ****     print("\n");
 1423               		.loc 1 264 5 view .LVU300
 264:tmk_core/common/command.c ****     print("\n");
 1424               		.loc 1 264 5 view .LVU301
 1425               	.LBB198:
 1426               	.LBB147:
 1427 0240 C4FB      		bst r28,4
 1428 0242 8827      		clr r24
 1429 0244 80F9      		bld r24,0
 1430 0246 1F92      		push __zero_reg__
 1431               	.LCFI108:
 1432               		.cfi_def_cfa_offset 25
 1433 0248 8F93      		push r24
 1434               	.LCFI109:
 1435               		.cfi_def_cfa_offset 26
 1436 024a 80E0      		ldi r24,lo8(__c.3677)
 1437 024c 90E0      		ldi r25,hi8(__c.3677)
 1438 024e 9F93      		push r25
 1439               	.LCFI110:
 1440               		.cfi_def_cfa_offset 27
 1441 0250 8F93      		push r24
 1442               	.LCFI111:
 1443               		.cfi_def_cfa_offset 28
 1444 0252 0E94 0000 		call __xprintf
 265:tmk_core/common/command.c ****     print(".swap_grave_esc: ");
 1445               		.loc 1 265 5 view .LVU302
 1446               	.LBE147:
 1447               	.LBE198:
 265:tmk_core/common/command.c ****     print(".swap_grave_esc: ");
 1448               		.loc 1 265 5 view .LVU303
 265:tmk_core/common/command.c ****     print(".swap_grave_esc: ");
 1449               		.loc 1 265 5 view .LVU304
 1450               	.LBB199:
 1451               	.LBB148:
 1452 0256 80E0      		ldi r24,lo8(__c.3679)
 1453 0258 90E0      		ldi r25,hi8(__c.3679)
 1454 025a 0E94 0000 		call xputs
 266:tmk_core/common/command.c ****     print_dec(kc.swap_grave_esc);
 1455               		.loc 1 266 5 view .LVU305
 1456               	.LBE148:
 1457               	.LBE199:
 266:tmk_core/common/command.c ****     print_dec(kc.swap_grave_esc);
 1458               		.loc 1 266 5 view .LVU306
 266:tmk_core/common/command.c ****     print_dec(kc.swap_grave_esc);
 1459               		.loc 1 266 5 view .LVU307
 1460               	.LBB200:
 1461               	.LBB149:
 1462 025e 80E0      		ldi r24,lo8(__c.3681)
 1463 0260 90E0      		ldi r25,hi8(__c.3681)
 1464 0262 0E94 0000 		call xputs
 267:tmk_core/common/command.c ****     print("\n");
 1465               		.loc 1 267 5 view .LVU308
 1466               	.LBE149:
 1467               	.LBE200:
 267:tmk_core/common/command.c ****     print("\n");
 1468               		.loc 1 267 5 view .LVU309
 267:tmk_core/common/command.c ****     print("\n");
 1469               		.loc 1 267 5 view .LVU310
 1470               	.LBB201:
 1471               	.LBB150:
 1472 0266 C5FB      		bst r28,5
 1473 0268 8827      		clr r24
 1474 026a 80F9      		bld r24,0
 1475 026c 1F92      		push __zero_reg__
 1476               	.LCFI112:
 1477               		.cfi_def_cfa_offset 29
 1478 026e 8F93      		push r24
 1479               	.LCFI113:
 1480               		.cfi_def_cfa_offset 30
 1481 0270 80E0      		ldi r24,lo8(__c.3683)
 1482 0272 90E0      		ldi r25,hi8(__c.3683)
 1483 0274 9F93      		push r25
 1484               	.LCFI114:
 1485               		.cfi_def_cfa_offset 31
 1486 0276 8F93      		push r24
 1487               	.LCFI115:
 1488               		.cfi_def_cfa_offset 32
 1489 0278 0E94 0000 		call __xprintf
 268:tmk_core/common/command.c ****     print(".swap_backslash_backspace: ");
 1490               		.loc 1 268 5 view .LVU311
 1491               	.LBE150:
 1492               	.LBE201:
 268:tmk_core/common/command.c ****     print(".swap_backslash_backspace: ");
 1493               		.loc 1 268 5 view .LVU312
 268:tmk_core/common/command.c ****     print(".swap_backslash_backspace: ");
 1494               		.loc 1 268 5 view .LVU313
 1495               	.LBB202:
 1496               	.LBB151:
 1497 027c 80E0      		ldi r24,lo8(__c.3685)
 1498 027e 90E0      		ldi r25,hi8(__c.3685)
 1499 0280 0E94 0000 		call xputs
 269:tmk_core/common/command.c ****     print_dec(kc.swap_backslash_backspace);
 1500               		.loc 1 269 5 view .LVU314
 1501               	.LBE151:
 1502               	.LBE202:
 269:tmk_core/common/command.c ****     print_dec(kc.swap_backslash_backspace);
 1503               		.loc 1 269 5 view .LVU315
 269:tmk_core/common/command.c ****     print_dec(kc.swap_backslash_backspace);
 1504               		.loc 1 269 5 view .LVU316
 1505               	.LBB203:
 1506               	.LBB152:
 1507 0284 80E0      		ldi r24,lo8(__c.3687)
 1508 0286 90E0      		ldi r25,hi8(__c.3687)
 1509 0288 0E94 0000 		call xputs
 270:tmk_core/common/command.c ****     print("\n");
 1510               		.loc 1 270 5 view .LVU317
 1511               	.LBE152:
 1512               	.LBE203:
 270:tmk_core/common/command.c ****     print("\n");
 1513               		.loc 1 270 5 view .LVU318
 270:tmk_core/common/command.c ****     print("\n");
 1514               		.loc 1 270 5 view .LVU319
 1515               	.LBB204:
 1516               	.LBB153:
 1517 028c C6FB      		bst r28,6
 1518 028e 8827      		clr r24
 1519 0290 80F9      		bld r24,0
 1520 0292 1F92      		push __zero_reg__
 1521               	.LCFI116:
 1522               		.cfi_def_cfa_offset 33
 1523 0294 8F93      		push r24
 1524               	.LCFI117:
 1525               		.cfi_def_cfa_offset 34
 1526 0296 80E0      		ldi r24,lo8(__c.3689)
 1527 0298 90E0      		ldi r25,hi8(__c.3689)
 1528 029a 9F93      		push r25
 1529               	.LCFI118:
 1530               		.cfi_def_cfa_offset 35
 1531 029c 8F93      		push r24
 1532               	.LCFI119:
 1533               		.cfi_def_cfa_offset 36
 1534 029e 0E94 0000 		call __xprintf
 271:tmk_core/common/command.c ****     print(".nkro: ");
 1535               		.loc 1 271 5 view .LVU320
 1536               	.LBE153:
 1537               	.LBE204:
 271:tmk_core/common/command.c ****     print(".nkro: ");
 1538               		.loc 1 271 5 view .LVU321
 271:tmk_core/common/command.c ****     print(".nkro: ");
 1539               		.loc 1 271 5 view .LVU322
 1540               	.LBB205:
 1541               	.LBB154:
 1542 02a2 8DB7      		in r24,__SP_L__
 1543 02a4 9EB7      		in r25,__SP_H__
 1544 02a6 8096      		adiw r24,32
 1545 02a8 0FB6      		in __tmp_reg__,__SREG__
 1546 02aa F894      		cli
 1547 02ac 9EBF      		out __SP_H__,r25
 1548 02ae 0FBE      		out __SREG__,__tmp_reg__
 1549 02b0 8DBF      		out __SP_L__,r24
 1550               	.LCFI120:
 1551               		.cfi_def_cfa_offset 4
 1552 02b2 80E0      		ldi r24,lo8(__c.3691)
 1553 02b4 90E0      		ldi r25,hi8(__c.3691)
 1554 02b6 0E94 0000 		call xputs
 272:tmk_core/common/command.c ****     print_dec(kc.nkro);
 1555               		.loc 1 272 5 view .LVU323
 1556               	.LBE154:
 1557               	.LBE205:
 272:tmk_core/common/command.c ****     print_dec(kc.nkro);
 1558               		.loc 1 272 5 view .LVU324
 272:tmk_core/common/command.c ****     print_dec(kc.nkro);
 1559               		.loc 1 272 5 view .LVU325
 1560               	.LBB206:
 1561               	.LBB155:
 1562 02ba 80E0      		ldi r24,lo8(__c.3693)
 1563 02bc 90E0      		ldi r25,hi8(__c.3693)
 1564 02be 0E94 0000 		call xputs
 273:tmk_core/common/command.c ****     print("\n");
 1565               		.loc 1 273 5 view .LVU326
 1566               	.LBE155:
 1567               	.LBE206:
 273:tmk_core/common/command.c ****     print("\n");
 1568               		.loc 1 273 5 view .LVU327
 273:tmk_core/common/command.c ****     print("\n");
 1569               		.loc 1 273 5 view .LVU328
 1570               	.LBB207:
 1571               	.LBB156:
 1572 02c2 C7FB      		bst r28,7
 1573 02c4 CC27      		clr r28
 1574 02c6 C0F9      		bld r28,0
 1575 02c8 1F92      		push __zero_reg__
 1576               	.LCFI121:
 1577               		.cfi_def_cfa_offset 5
 1578 02ca CF93      		push r28
 1579               	.LCFI122:
 1580               		.cfi_def_cfa_offset 6
 1581 02cc 80E0      		ldi r24,lo8(__c.3695)
 1582 02ce 90E0      		ldi r25,hi8(__c.3695)
 1583 02d0 9F93      		push r25
 1584               	.LCFI123:
 1585               		.cfi_def_cfa_offset 7
 1586 02d2 8F93      		push r24
 1587               	.LCFI124:
 1588               		.cfi_def_cfa_offset 8
 1589 02d4 0E94 0000 		call __xprintf
 274:tmk_core/common/command.c **** 
 1590               		.loc 1 274 5 view .LVU329
 1591               	.LBE156:
 1592               	.LBE207:
 274:tmk_core/common/command.c **** 
 1593               		.loc 1 274 5 view .LVU330
 274:tmk_core/common/command.c **** 
 1594               		.loc 1 274 5 view .LVU331
 1595               	.LBB208:
 1596               	.LBB157:
 1597 02d8 80E0      		ldi r24,lo8(__c.3697)
 1598 02da 90E0      		ldi r25,hi8(__c.3697)
 1599 02dc 0E94 0000 		call xputs
 1600 02e0 0F90      		pop __tmp_reg__
 1601 02e2 0F90      		pop __tmp_reg__
 1602 02e4 0F90      		pop __tmp_reg__
 1603 02e6 0F90      		pop __tmp_reg__
 1604               	.LCFI125:
 1605               		.cfi_def_cfa_offset 4
 1606               	.L98:
 1607               	.LBE157:
 1608               	.LBE208:
 494:tmk_core/common/command.c ****         case KC_0:
 1609               		.loc 1 494 13 view .LVU332
 504:tmk_core/common/command.c **** }
 1610               		.loc 1 504 12 is_stmt 0 view .LVU333
 1611 02e8 81E0      		ldi r24,lo8(1)
 494:tmk_core/common/command.c ****         case KC_0:
 1612               		.loc 1 494 13 view .LVU334
 1613 02ea 00C0      		rjmp .L47
 1614               	.L51:
 298:tmk_core/common/command.c **** #ifdef SLEEP_LED_ENABLE
 1615               		.loc 1 298 5 view .LVU335
 1616 02ec 8031      		cpi r24,lo8(16)
 1617 02ee 01F4      		brne .+2
 1618 02f0 00C0      		rjmp .L58
 1619 02f2 00F4      		brsh .L59
 1620 02f4 8E30      		cpi r24,lo8(14)
 1621 02f6 01F0      		breq .+2
 1622 02f8 00C0      		rjmp .L55
 387:tmk_core/common/command.c ****             if (debug_keyboard) {
 1623               		.loc 1 387 13 is_stmt 1 view .LVU336
 387:tmk_core/common/command.c ****             if (debug_keyboard) {
 1624               		.loc 1 387 31 is_stmt 0 view .LVU337
 1625 02fa 9091 0000 		lds r25,debug_config
 387:tmk_core/common/command.c ****             if (debug_keyboard) {
 1626               		.loc 1 387 28 view .LVU338
 1627 02fe 892F      		mov r24,r25
 1628 0300 8B7F      		andi r24,~(1<<2)
 1629 0302 92FF      		sbrs r25,2
 1630 0304 8460      		ori r24,1<<2
 1631 0306 8093 0000 		sts debug_config,r24
 388:tmk_core/common/command.c ****                 print("\nkeyboard: on\n");
 1632               		.loc 1 388 13 is_stmt 1 view .LVU339
 388:tmk_core/common/command.c ****                 print("\nkeyboard: on\n");
 1633               		.loc 1 388 16 is_stmt 0 view .LVU340
 1634 030a 82FF      		sbrs r24,2
 1635 030c 00C0      		rjmp .L73
 389:tmk_core/common/command.c ****                 debug_enable = true;
 1636               		.loc 1 389 17 is_stmt 1 view .LVU341
 1637               	.LBB209:
 389:tmk_core/common/command.c ****                 debug_enable = true;
 1638               		.loc 1 389 17 view .LVU342
 389:tmk_core/common/command.c ****                 debug_enable = true;
 1639               		.loc 1 389 17 view .LVU343
 1640               	.LBE209:
 1641 030e 80E0      		ldi r24,lo8(__c.3729)
 1642 0310 90E0      		ldi r25,hi8(__c.3729)
 1643 0312 00C0      		rjmp .L100
 1644               	.L59:
 298:tmk_core/common/command.c **** #ifdef SLEEP_LED_ENABLE
 1645               		.loc 1 298 5 is_stmt 0 view .LVU344
 1646 0314 8631      		cpi r24,lo8(22)
 1647 0316 01F4      		brne .+2
 1648 0318 00C0      		rjmp .L61
 1649 031a 8931      		cpi r24,lo8(25)
 1650 031c 01F0      		breq .+2
 1651 031e 00C0      		rjmp .L55
 409:tmk_core/common/command.c ****             break;
 1652               		.loc 1 409 13 is_stmt 1 view .LVU345
 1653               	.LBB210:
 1654               	.LBI210:
 141:tmk_core/common/command.c ****     // print version & information
 1655               		.loc 1 141 13 view .LVU346
 1656               	.LBB211:
 143:tmk_core/common/command.c ****     print("VID: " STR(VENDOR_ID) "(" STR(MANUFACTURER) ") "
 1657               		.loc 1 143 5 view .LVU347
 1658               	.LBE211:
 1659               	.LBE210:
 143:tmk_core/common/command.c ****     print("VID: " STR(VENDOR_ID) "(" STR(MANUFACTURER) ") "
 1660               		.loc 1 143 5 view .LVU348
 143:tmk_core/common/command.c ****     print("VID: " STR(VENDOR_ID) "(" STR(MANUFACTURER) ") "
 1661               		.loc 1 143 5 view .LVU349
 1662               	.LBB218:
 1663               	.LBB212:
 1664 0320 80E0      		ldi r24,lo8(__c.3569)
 1665 0322 90E0      		ldi r25,hi8(__c.3569)
 1666 0324 0E94 0000 		call xputs
 144:tmk_core/common/command.c ****                                                        "PID: " STR(PRODUCT_ID) "(" STR(PRODUCT) ") 
 1667               		.loc 1 144 5 view .LVU350
 1668               	.LBE212:
 1669               	.LBE218:
 144:tmk_core/common/command.c ****                                                        "PID: " STR(PRODUCT_ID) "(" STR(PRODUCT) ") 
 1670               		.loc 1 144 5 view .LVU351
 144:tmk_core/common/command.c ****                                                        "PID: " STR(PRODUCT_ID) "(" STR(PRODUCT) ") 
 1671               		.loc 1 144 5 view .LVU352
 1672               	.LBB219:
 1673               	.LBB213:
 1674 0328 80E0      		ldi r24,lo8(__c.3571)
 1675 032a 90E0      		ldi r25,hi8(__c.3571)
 1676 032c 0E94 0000 		call xputs
 150:tmk_core/common/command.c **** #    ifdef PROTOCOL_CHIBIOS
 1677               		.loc 1 150 5 view .LVU353
 1678               	.LBE213:
 1679               	.LBE219:
 150:tmk_core/common/command.c **** #    ifdef PROTOCOL_CHIBIOS
 1680               		.loc 1 150 5 view .LVU354
 150:tmk_core/common/command.c **** #    ifdef PROTOCOL_CHIBIOS
 1681               		.loc 1 150 5 view .LVU355
 1682               	.LBB220:
 1683               	.LBB214:
 1684 0330 80E0      		ldi r24,lo8(__c.3573)
 1685 0332 90E0      		ldi r25,hi8(__c.3573)
 1686 0334 0E94 0000 		call xputs
 157:tmk_core/common/command.c **** 
 1687               		.loc 1 157 5 view .LVU356
 1688               	.LBE214:
 1689               	.LBE220:
 157:tmk_core/common/command.c **** 
 1690               		.loc 1 157 5 view .LVU357
 157:tmk_core/common/command.c **** 
 1691               		.loc 1 157 5 view .LVU358
 1692               	.LBB221:
 1693               	.LBB215:
 1694 0338 80E0      		ldi r24,lo8(__c.3575)
 1695 033a 90E0      		ldi r25,hi8(__c.3575)
 1696 033c 0E94 0000 		call xputs
 189:tmk_core/common/command.c **** #if defined(__AVR__)
 1697               		.loc 1 189 5 view .LVU359
 1698               	.LBE215:
 1699               	.LBE221:
 189:tmk_core/common/command.c **** #if defined(__AVR__)
 1700               		.loc 1 189 5 view .LVU360
 189:tmk_core/common/command.c **** #if defined(__AVR__)
 1701               		.loc 1 189 5 view .LVU361
 1702               	.LBB222:
 1703               	.LBB216:
 1704 0340 80E0      		ldi r24,lo8(__c.3577)
 1705 0342 90E0      		ldi r25,hi8(__c.3577)
 1706 0344 00C0      		rjmp .L99
 1707               	.L49:
 1708               	.LBE216:
 1709               	.LBE222:
 298:tmk_core/common/command.c **** #ifdef SLEEP_LED_ENABLE
 1710               		.loc 1 298 5 is_stmt 0 view .LVU362
 1711 0346 8A32      		cpi r24,lo8(42)
 1712 0348 01F0      		breq .L63
 1713 034a 00F4      		brsh .L64
 1714 034c 8732      		cpi r24,lo8(39)
 1715 034e 01F0      		breq .L65
 1716 0350 00F4      		brsh .L66
 1717 0352 8E31      		cpi r24,lo8(30)
 1718 0354 00F4      		brsh .+2
 1719 0356 00C0      		rjmp .L55
 493:tmk_core/common/command.c ****             break;
 1720               		.loc 1 493 13 is_stmt 1 view .LVU363
 1721 0358 8D51      		subi r24,lo8(-(-29))
 1722 035a 00C0      		rjmp .L97
 1723               	.L66:
 298:tmk_core/common/command.c **** #ifdef SLEEP_LED_ENABLE
 1724               		.loc 1 298 5 is_stmt 0 view .LVU364
 1725 035c 8932      		cpi r24,lo8(41)
 1726 035e 01F0      		breq .+2
 1727 0360 00C0      		rjmp .L55
 1728               	.L54:
 357:tmk_core/common/command.c ****             reset_keyboard();
 1729               		.loc 1 357 13 is_stmt 1 view .LVU365
 1730               	.LBB223:
 357:tmk_core/common/command.c ****             reset_keyboard();
 1731               		.loc 1 357 13 view .LVU366
 357:tmk_core/common/command.c ****             reset_keyboard();
 1732               		.loc 1 357 13 view .LVU367
 1733               	.LBE223:
 1734 0362 80E0      		ldi r24,lo8(__c.3716)
 1735 0364 90E0      		ldi r25,hi8(__c.3716)
 1736 0366 0E94 0000 		call xputs
 358:tmk_core/common/command.c ****             break;
 1737               		.loc 1 358 13 view .LVU368
 1738 036a 0E94 0000 		call reset_keyboard
 359:tmk_core/common/command.c **** 
 1739               		.loc 1 359 13 view .LVU369
 1740 036e 00C0      		rjmp .L98
 1741               	.L64:
 298:tmk_core/common/command.c **** #ifdef SLEEP_LED_ENABLE
 1742               		.loc 1 298 5 is_stmt 0 view .LVU370
 1743 0370 8334      		cpi r24,lo8(67)
 1744 0372 00F4      		brsh .L68
 1745 0374 8A33      		cpi r24,lo8(58)
 1746 0376 00F0      		brlo .+2
 1747 0378 00C0      		rjmp .L69
 1748 037a 8533      		cpi r24,lo8(53)
 1749 037c 01F0      		breq .L65
 1750 037e 8833      		cpi r24,lo8(56)
 1751 0380 01F0      		breq .+2
 1752 0382 00C0      		rjmp .L55
 1753               	.L50:
 340:tmk_core/common/command.c ****             break;
 1754               		.loc 1 340 13 is_stmt 1 view .LVU371
 1755               	.LBB224:
 1756               	.LBI224:
 106:tmk_core/common/command.c ****     print("\n\t- Magic -\n" STR(MAGIC_KEY_DEBUG) ":	Debug Message Toggle\n" STR(MAGIC_KEY_DEBUG_MAT
 1757               		.loc 1 106 13 view .LVU372
 1758               	.LBB225:
 107:tmk_core/common/command.c **** 
 1759               		.loc 1 107 5 view .LVU373
 1760               	.LBE225:
 1761               	.LBE224:
 107:tmk_core/common/command.c **** 
 1762               		.loc 1 107 5 view .LVU374
 107:tmk_core/common/command.c **** 
 1763               		.loc 1 107 5 view .LVU375
 1764               	.LBB227:
 1765               	.LBB226:
 1766 0384 80E0      		ldi r24,lo8(__c.3564)
 1767 0386 90E0      		ldi r25,hi8(__c.3564)
 1768               	.L99:
 1769               	.LBE226:
 1770               	.LBE227:
 1771               	.LBB228:
 1772               	.LBB217:
 189:tmk_core/common/command.c **** #if defined(__AVR__)
 1773               		.loc 1 189 5 is_stmt 0 view .LVU376
 1774 0388 0E94 0000 		call xputs
 195:tmk_core/common/command.c **** }
 1775               		.loc 1 195 5 is_stmt 1 view .LVU377
 1776 038c 00C0      		rjmp .L98
 1777               	.L68:
 1778               	.LBE217:
 1779               	.LBE228:
 298:tmk_core/common/command.c **** #ifdef SLEEP_LED_ENABLE
 1780               		.loc 1 298 5 is_stmt 0 view .LVU378
 1781 038e 8334      		cpi r24,lo8(67)
 1782 0390 01F0      		breq .+2
 1783 0392 00C0      		rjmp .L55
 1784               	.L65:
 434:tmk_core/common/command.c ****             break;
 1785               		.loc 1 434 13 is_stmt 1 view .LVU379
 1786 0394 80E0      		ldi r24,0
 1787               	.L97:
 493:tmk_core/common/command.c ****             break;
 1788               		.loc 1 493 13 is_stmt 0 view .LVU380
 1789 0396 0E94 0000 		call switch_default_layer
 1790 039a 00C0      		rjmp .L98
 1791               	.L63:
 317:tmk_core/common/command.c ****             eeconfig_init();
 1792               		.loc 1 317 13 is_stmt 1 view .LVU381
 1793               	.LBB229:
 317:tmk_core/common/command.c ****             eeconfig_init();
 1794               		.loc 1 317 13 view .LVU382
 317:tmk_core/common/command.c ****             eeconfig_init();
 1795               		.loc 1 317 13 view .LVU383
 1796               	.LBE229:
 1797 039c 80E0      		ldi r24,lo8(__c.3707)
 1798 039e 90E0      		ldi r25,hi8(__c.3707)
 1799 03a0 0E94 0000 		call xputs
 318:tmk_core/common/command.c ****             break;
 1800               		.loc 1 318 13 view .LVU384
 1801 03a4 0E94 0000 		call eeconfig_init
 319:tmk_core/common/command.c **** 
 1802               		.loc 1 319 13 view .LVU385
 1803 03a8 00C0      		rjmp .L98
 1804               	.L52:
 345:tmk_core/common/command.c ****             debug_keyboard = false;
 1805               		.loc 1 345 13 view .LVU386
 346:tmk_core/common/command.c ****             debug_mouse    = false;
 1806               		.loc 1 346 13 view .LVU387
 347:tmk_core/common/command.c ****             debug_enable   = false;
 1807               		.loc 1 347 13 view .LVU388
 348:tmk_core/common/command.c ****             command_console_help();
 1808               		.loc 1 348 13 view .LVU389
 348:tmk_core/common/command.c ****             command_console_help();
 1809               		.loc 1 348 28 is_stmt 0 view .LVU390
 1810 03aa 8091 0000 		lds r24,debug_config
 1811 03ae 807F      		andi r24,lo8(-16)
 1812 03b0 8093 0000 		sts debug_config,r24
 349:tmk_core/common/command.c ****             print("C> ");
 1813               		.loc 1 349 13 is_stmt 1 view .LVU391
 1814               	.LBB230:
 1815               	.LBI230:
 510:tmk_core/common/command.c ****     print("\n\t- Console -\n"
 1816               		.loc 1 510 13 view .LVU392
 1817               	.LBB231:
 511:tmk_core/common/command.c ****           "ESC/q:	quit\n"
 1818               		.loc 1 511 5 view .LVU393
 1819               	.LBE231:
 1820               	.LBE230:
 511:tmk_core/common/command.c ****           "ESC/q:	quit\n"
 1821               		.loc 1 511 5 view .LVU394
 511:tmk_core/common/command.c ****           "ESC/q:	quit\n"
 1822               		.loc 1 511 5 view .LVU395
 1823               	.LBB233:
 1824               	.LBB232:
 1825 03b4 80E0      		ldi r24,lo8(__c.3751)
 1826 03b6 90E0      		ldi r25,hi8(__c.3751)
 1827 03b8 0E94 0000 		call xputs
 1828               	.LBE232:
 1829               	.LBE233:
 350:tmk_core/common/command.c ****             command_state = CONSOLE;
 1830               		.loc 1 350 13 view .LVU396
 1831               	.LBB234:
 350:tmk_core/common/command.c ****             command_state = CONSOLE;
 1832               		.loc 1 350 13 view .LVU397
 350:tmk_core/common/command.c ****             command_state = CONSOLE;
 1833               		.loc 1 350 13 view .LVU398
 1834               	.LBE234:
 1835 03bc 80E0      		ldi r24,lo8(__c.3712)
 1836 03be 90E0      		ldi r25,hi8(__c.3712)
 1837 03c0 0E94 0000 		call xputs
 351:tmk_core/common/command.c ****             break;
 1838               		.loc 1 351 13 view .LVU399
 351:tmk_core/common/command.c ****             break;
 1839               		.loc 1 351 27 is_stmt 0 view .LVU400
 1840 03c4 81E0      		ldi r24,lo8(1)
 1841 03c6 8093 0000 		sts command_state,r24
 352:tmk_core/common/command.c **** 
 1842               		.loc 1 352 13 is_stmt 1 view .LVU401
 1843               	.L47:
 1844               	/* epilogue start */
 505:tmk_core/common/command.c **** 
 1845               		.loc 1 505 1 is_stmt 0 view .LVU402
 1846 03ca DF91      		pop r29
 1847 03cc CF91      		pop r28
 1848 03ce 0895      		ret
 1849               	.L56:
 363:tmk_core/common/command.c ****             if (debug_enable) {
 1850               		.loc 1 363 13 is_stmt 1 view .LVU403
 363:tmk_core/common/command.c ****             if (debug_enable) {
 1851               		.loc 1 363 29 is_stmt 0 view .LVU404
 1852 03d0 9091 0000 		lds r25,debug_config
 363:tmk_core/common/command.c ****             if (debug_enable) {
 1853               		.loc 1 363 26 view .LVU405
 1854 03d4 892F      		mov r24,r25
 1855 03d6 8E7F      		andi r24,~(1<<0)
 1856 03d8 90FF      		sbrs r25,0
 1857 03da 8160      		ori r24,1<<0
 1858 03dc 8093 0000 		sts debug_config,r24
 364:tmk_core/common/command.c ****                 print("\ndebug: on\n");
 1859               		.loc 1 364 13 is_stmt 1 view .LVU406
 364:tmk_core/common/command.c ****                 print("\ndebug: on\n");
 1860               		.loc 1 364 16 is_stmt 0 view .LVU407
 1861 03e0 80FF      		sbrs r24,0
 1862 03e2 00C0      		rjmp .L71
 365:tmk_core/common/command.c ****             } else {
 1863               		.loc 1 365 17 is_stmt 1 view .LVU408
 1864               	.LBB235:
 365:tmk_core/common/command.c ****             } else {
 1865               		.loc 1 365 17 view .LVU409
 365:tmk_core/common/command.c ****             } else {
 1866               		.loc 1 365 17 view .LVU410
 1867               	.LBE235:
 1868 03e4 80E0      		ldi r24,lo8(__c.3719)
 1869 03e6 90E0      		ldi r25,hi8(__c.3719)
 1870 03e8 00C0      		rjmp .L99
 1871               	.L71:
 367:tmk_core/common/command.c ****                 debug_matrix   = false;
 1872               		.loc 1 367 17 view .LVU411
 1873               	.LBB236:
 367:tmk_core/common/command.c ****                 debug_matrix   = false;
 1874               		.loc 1 367 17 view .LVU412
 367:tmk_core/common/command.c ****                 debug_matrix   = false;
 1875               		.loc 1 367 17 view .LVU413
 1876               	.LBE236:
 1877 03ea 80E0      		ldi r24,lo8(__c.3721)
 1878 03ec 90E0      		ldi r25,hi8(__c.3721)
 1879 03ee 0E94 0000 		call xputs
 368:tmk_core/common/command.c ****                 debug_keyboard = false;
 1880               		.loc 1 368 17 view .LVU414
 369:tmk_core/common/command.c ****                 debug_mouse    = false;
 1881               		.loc 1 369 17 view .LVU415
 370:tmk_core/common/command.c ****             }
 1882               		.loc 1 370 17 view .LVU416
 368:tmk_core/common/command.c ****                 debug_keyboard = false;
 1883               		.loc 1 368 32 is_stmt 0 view .LVU417
 1884 03f2 8091 0000 		lds r24,debug_config
 1885 03f6 817F      		andi r24,lo8(-15)
 1886               	.L101:
 401:tmk_core/common/command.c ****             } else {
 1887               		.loc 1 401 30 view .LVU418
 1888 03f8 8093 0000 		sts debug_config,r24
 1889 03fc 00C0      		rjmp .L98
 1890               	.L48:
 376:tmk_core/common/command.c ****             if (debug_matrix) {
 1891               		.loc 1 376 13 is_stmt 1 view .LVU419
 376:tmk_core/common/command.c ****             if (debug_matrix) {
 1892               		.loc 1 376 29 is_stmt 0 view .LVU420
 1893 03fe 9091 0000 		lds r25,debug_config
 376:tmk_core/common/command.c ****             if (debug_matrix) {
 1894               		.loc 1 376 26 view .LVU421
 1895 0402 892F      		mov r24,r25
 1896 0404 8D7F      		andi r24,~(1<<1)
 1897 0406 91FF      		sbrs r25,1
 1898 0408 8260      		ori r24,1<<1
 1899 040a 8093 0000 		sts debug_config,r24
 377:tmk_core/common/command.c ****                 print("\nmatrix: on\n");
 1900               		.loc 1 377 13 is_stmt 1 view .LVU422
 377:tmk_core/common/command.c ****                 print("\nmatrix: on\n");
 1901               		.loc 1 377 16 is_stmt 0 view .LVU423
 1902 040e 81FF      		sbrs r24,1
 1903 0410 00C0      		rjmp .L72
 378:tmk_core/common/command.c ****                 debug_enable = true;
 1904               		.loc 1 378 17 is_stmt 1 view .LVU424
 1905               	.LBB237:
 378:tmk_core/common/command.c ****                 debug_enable = true;
 1906               		.loc 1 378 17 view .LVU425
 378:tmk_core/common/command.c ****                 debug_enable = true;
 1907               		.loc 1 378 17 view .LVU426
 1908               	.LBE237:
 1909 0412 80E0      		ldi r24,lo8(__c.3724)
 1910 0414 90E0      		ldi r25,hi8(__c.3724)
 1911               	.L100:
 400:tmk_core/common/command.c ****                 debug_enable = true;
 1912               		.loc 1 400 17 is_stmt 0 view .LVU427
 1913 0416 0E94 0000 		call xputs
 401:tmk_core/common/command.c ****             } else {
 1914               		.loc 1 401 17 is_stmt 1 view .LVU428
 401:tmk_core/common/command.c ****             } else {
 1915               		.loc 1 401 30 is_stmt 0 view .LVU429
 1916 041a 8091 0000 		lds r24,debug_config
 1917 041e 8160      		ori r24,lo8(1<<0)
 1918 0420 00C0      		rjmp .L101
 1919               	.L72:
 381:tmk_core/common/command.c ****             }
 1920               		.loc 1 381 17 is_stmt 1 view .LVU430
 1921               	.LBB238:
 381:tmk_core/common/command.c ****             }
 1922               		.loc 1 381 17 view .LVU431
 381:tmk_core/common/command.c ****             }
 1923               		.loc 1 381 17 view .LVU432
 1924               	.LBE238:
 1925 0422 80E0      		ldi r24,lo8(__c.3726)
 1926 0424 90E0      		ldi r25,hi8(__c.3726)
 1927 0426 00C0      		rjmp .L99
 1928               	.L73:
 392:tmk_core/common/command.c ****             }
 1929               		.loc 1 392 17 view .LVU433
 1930               	.LBB239:
 392:tmk_core/common/command.c ****             }
 1931               		.loc 1 392 17 view .LVU434
 392:tmk_core/common/command.c ****             }
 1932               		.loc 1 392 17 view .LVU435
 1933               	.LBE239:
 1934 0428 80E0      		ldi r24,lo8(__c.3731)
 1935 042a 90E0      		ldi r25,hi8(__c.3731)
 1936 042c 00C0      		rjmp .L99
 1937               	.L58:
 398:tmk_core/common/command.c ****             if (debug_mouse) {
 1938               		.loc 1 398 13 view .LVU436
 398:tmk_core/common/command.c ****             if (debug_mouse) {
 1939               		.loc 1 398 28 is_stmt 0 view .LVU437
 1940 042e 9091 0000 		lds r25,debug_config
 398:tmk_core/common/command.c ****             if (debug_mouse) {
 1941               		.loc 1 398 25 view .LVU438
 1942 0432 892F      		mov r24,r25
 1943 0434 877F      		andi r24,~(1<<3)
 1944 0436 93FF      		sbrs r25,3
 1945 0438 8860      		ori r24,1<<3
 1946 043a 8093 0000 		sts debug_config,r24
 399:tmk_core/common/command.c ****                 print("\nmouse: on\n");
 1947               		.loc 1 399 13 is_stmt 1 view .LVU439
 399:tmk_core/common/command.c ****                 print("\nmouse: on\n");
 1948               		.loc 1 399 16 is_stmt 0 view .LVU440
 1949 043e 83FF      		sbrs r24,3
 1950 0440 00C0      		rjmp .L74
 400:tmk_core/common/command.c ****                 debug_enable = true;
 1951               		.loc 1 400 17 is_stmt 1 view .LVU441
 1952               	.LBB240:
 400:tmk_core/common/command.c ****                 debug_enable = true;
 1953               		.loc 1 400 17 view .LVU442
 400:tmk_core/common/command.c ****                 debug_enable = true;
 1954               		.loc 1 400 17 view .LVU443
 1955               	.LBE240:
 1956 0442 80E0      		ldi r24,lo8(__c.3734)
 1957 0444 90E0      		ldi r25,hi8(__c.3734)
 1958 0446 00C0      		rjmp .L100
 1959               	.L74:
 403:tmk_core/common/command.c ****             }
 1960               		.loc 1 403 17 view .LVU444
 1961               	.LBB241:
 403:tmk_core/common/command.c ****             }
 1962               		.loc 1 403 17 view .LVU445
 403:tmk_core/common/command.c ****             }
 1963               		.loc 1 403 17 view .LVU446
 1964               	.LBE241:
 1965 0448 80E0      		ldi r24,lo8(__c.3736)
 1966 044a 90E0      		ldi r25,hi8(__c.3736)
 1967 044c 00C0      		rjmp .L99
 1968               	.L61:
 414:tmk_core/common/command.c ****             break;
 1969               		.loc 1 414 13 view .LVU447
 1970               	.LBB242:
 1971               	.LBI242:
 198:tmk_core/common/command.c ****     print("\n\t- Status -\n");
 1972               		.loc 1 198 13 view .LVU448
 1973               	.LBB243:
 199:tmk_core/common/command.c **** 
 1974               		.loc 1 199 5 view .LVU449
 1975               	.LBE243:
 1976               	.LBE242:
 199:tmk_core/common/command.c **** 
 1977               		.loc 1 199 5 view .LVU450
 199:tmk_core/common/command.c **** 
 1978               		.loc 1 199 5 view .LVU451
 1979               	.LBB249:
 1980               	.LBB244:
 1981 044e 80E0      		ldi r24,lo8(__c.3582)
 1982 0450 90E0      		ldi r25,hi8(__c.3582)
 1983 0452 0E94 0000 		call xputs
 201:tmk_core/common/command.c **** #ifndef PROTOCOL_VUSB
 1984               		.loc 1 201 5 view .LVU452
 1985 0456 0E94 0000 		call host_keyboard_leds
 1986               	.LBE244:
 1987               	.LBE249:
 201:tmk_core/common/command.c **** #ifndef PROTOCOL_VUSB
 1988               		.loc 1 201 5 view .LVU453
 201:tmk_core/common/command.c **** #ifndef PROTOCOL_VUSB
 1989               		.loc 1 201 5 view .LVU454
 1990               	.LBB250:
 1991               	.LBB245:
 1992 045a 1F92      		push __zero_reg__
 1993               	.LCFI126:
 1994               		.cfi_def_cfa_offset 5
 1995 045c 8F93      		push r24
 1996               	.LCFI127:
 1997               		.cfi_def_cfa_offset 6
 1998 045e 80E0      		ldi r24,lo8(__c.3584)
 1999 0460 90E0      		ldi r25,hi8(__c.3584)
 2000 0462 9F93      		push r25
 2001               	.LCFI128:
 2002               		.cfi_def_cfa_offset 7
 2003 0464 8F93      		push r24
 2004               	.LCFI129:
 2005               		.cfi_def_cfa_offset 8
 2006 0466 0E94 0000 		call __xprintf
 204:tmk_core/common/command.c ****     print_val_hex8(keyboard_idle);
 2007               		.loc 1 204 5 view .LVU455
 2008               	.LBE245:
 2009               	.LBE250:
 204:tmk_core/common/command.c ****     print_val_hex8(keyboard_idle);
 2010               		.loc 1 204 5 view .LVU456
 204:tmk_core/common/command.c ****     print_val_hex8(keyboard_idle);
 2011               		.loc 1 204 5 view .LVU457
 2012               	.LBB251:
 2013               	.LBB246:
 2014 046a 8091 0000 		lds r24,keyboard_protocol
 2015 046e 1F92      		push __zero_reg__
 2016               	.LCFI130:
 2017               		.cfi_def_cfa_offset 9
 2018 0470 8F93      		push r24
 2019               	.LCFI131:
 2020               		.cfi_def_cfa_offset 10
 2021 0472 80E0      		ldi r24,lo8(__c.3586)
 2022 0474 90E0      		ldi r25,hi8(__c.3586)
 2023 0476 9F93      		push r25
 2024               	.LCFI132:
 2025               		.cfi_def_cfa_offset 11
 2026 0478 8F93      		push r24
 2027               	.LCFI133:
 2028               		.cfi_def_cfa_offset 12
 2029 047a 0E94 0000 		call __xprintf
 205:tmk_core/common/command.c **** #endif
 2030               		.loc 1 205 5 view .LVU458
 2031               	.LBE246:
 2032               	.LBE251:
 205:tmk_core/common/command.c **** #endif
 2033               		.loc 1 205 5 view .LVU459
 205:tmk_core/common/command.c **** #endif
 2034               		.loc 1 205 5 view .LVU460
 2035               	.LBB252:
 2036               	.LBB247:
 2037 047e 8091 0000 		lds r24,keyboard_idle
 2038 0482 1F92      		push __zero_reg__
 2039               	.LCFI134:
 2040               		.cfi_def_cfa_offset 13
 2041 0484 8F93      		push r24
 2042               	.LCFI135:
 2043               		.cfi_def_cfa_offset 14
 2044 0486 80E0      		ldi r24,lo8(__c.3588)
 2045 0488 90E0      		ldi r25,hi8(__c.3588)
 2046 048a 9F93      		push r25
 2047               	.LCFI136:
 2048               		.cfi_def_cfa_offset 15
 2049 048c 8F93      		push r24
 2050               	.LCFI137:
 2051               		.cfi_def_cfa_offset 16
 2052 048e 0E94 0000 		call __xprintf
 210:tmk_core/common/command.c ****     return;
 2053               		.loc 1 210 5 view .LVU461
 2054 0492 0E94 0000 		call timer_read32
 2055               	.LBE247:
 2056               	.LBE252:
 210:tmk_core/common/command.c ****     return;
 2057               		.loc 1 210 5 view .LVU462
 210:tmk_core/common/command.c ****     return;
 2058               		.loc 1 210 5 view .LVU463
 2059               	.LBB253:
 2060               	.LBB248:
 2061 0496 9F93      		push r25
 2062               	.LCFI138:
 2063               		.cfi_def_cfa_offset 17
 2064 0498 8F93      		push r24
 2065               	.LCFI139:
 2066               		.cfi_def_cfa_offset 18
 2067 049a 7F93      		push r23
 2068               	.LCFI140:
 2069               		.cfi_def_cfa_offset 19
 2070 049c 6F93      		push r22
 2071               	.LCFI141:
 2072               		.cfi_def_cfa_offset 20
 2073 049e 80E0      		ldi r24,lo8(__c.3590)
 2074 04a0 90E0      		ldi r25,hi8(__c.3590)
 2075 04a2 9F93      		push r25
 2076               	.LCFI142:
 2077               		.cfi_def_cfa_offset 21
 2078 04a4 8F93      		push r24
 2079               	.LCFI143:
 2080               		.cfi_def_cfa_offset 22
 2081 04a6 0E94 0000 		call __xprintf
 211:tmk_core/common/command.c **** }
 2082               		.loc 1 211 5 view .LVU464
 210:tmk_core/common/command.c ****     return;
 2083               		.loc 1 210 5 is_stmt 0 view .LVU465
 2084 04aa 8DB7      		in r24,__SP_L__
 2085 04ac 9EB7      		in r25,__SP_H__
 2086 04ae 4296      		adiw r24,18
 2087 04b0 0FB6      		in __tmp_reg__,__SREG__
 2088 04b2 F894      		cli
 2089 04b4 9EBF      		out __SP_H__,r25
 2090 04b6 0FBE      		out __SREG__,__tmp_reg__
 2091 04b8 8DBF      		out __SP_L__,r24
 2092               	.LCFI144:
 2093               		.cfi_def_cfa_offset 4
 2094 04ba 00C0      		rjmp .L98
 2095               	.L69:
 2096               	.LBE248:
 2097               	.LBE253:
 483:tmk_core/common/command.c ****             break;
 2098               		.loc 1 483 13 is_stmt 1 view .LVU466
 2099 04bc 8953      		subi r24,lo8(-(-57))
 2100 04be 00C0      		rjmp .L97
 2101               		.cfi_endproc
 2102               	.LFE31:
 2104               		.section	.text.command_extra,"ax",@progbits
 2105               		.weak	command_extra
 2107               	command_extra:
 2108               	.LVL47:
 2109               	.LFB25:
  92:tmk_core/common/command.c ****     (void)code;
 2110               		.loc 1 92 34 view -0
 2111               		.cfi_startproc
 2112               	/* prologue: function */
 2113               	/* frame size = 0 */
 2114               	/* stack size = 0 */
 2115               	.L__stack_usage = 0
  93:tmk_core/common/command.c ****     return false;
 2116               		.loc 1 93 5 view .LVU468
  94:tmk_core/common/command.c **** }
 2117               		.loc 1 94 5 view .LVU469
  95:tmk_core/common/command.c **** 
 2118               		.loc 1 95 1 is_stmt 0 view .LVU470
 2119 0000 80E0      		ldi r24,0
 2120               	.LVL48:
 2121               	/* epilogue start */
  95:tmk_core/common/command.c **** 
 2122               		.loc 1 95 1 view .LVU471
 2123 0002 0895      		ret
 2124               		.cfi_endproc
 2125               	.LFE25:
 2127               		.set	command_extra.localalias.0,command_extra
 2128               		.section	.text.command_console_extra,"ax",@progbits
 2129               		.weak	command_console_extra
 2131               	command_console_extra:
 2132               	.LFB42:
 2133               		.cfi_startproc
 2134               	/* prologue: function */
 2135               	/* frame size = 0 */
 2136               	/* stack size = 0 */
 2137               	.L__stack_usage = 0
 2138 0000 0C94 0000 		jmp command_extra.localalias.0
 2139               		.cfi_endproc
 2140               	.LFE42:
 2142               		.section	.text.numkey2num,"ax",@progbits
 2143               	.global	numkey2num
 2145               	numkey2num:
 2146               	.LVL49:
 2147               	.LFB39:
 758:tmk_core/common/command.c ****     switch (code) {
 2148               		.loc 1 758 34 is_stmt 1 view -0
 2149               		.cfi_startproc
 2150               	/* prologue: function */
 2151               	/* frame size = 0 */
 2152               	/* stack size = 0 */
 2153               	.L__stack_usage = 0
 759:tmk_core/common/command.c ****         case KC_1:
 2154               		.loc 1 759 5 view .LVU473
 2155 0000 8E51      		subi r24,lo8(-(-30))
 2156               	.LVL50:
 759:tmk_core/common/command.c ****         case KC_1:
 2157               		.loc 1 759 5 is_stmt 0 view .LVU474
 2158 0002 8A30      		cpi r24,lo8(10)
 2159 0004 00F4      		brsh .L106
 2160 0006 E82F      		mov r30,r24
 2161 0008 F0E0      		ldi r31,0
 2162 000a E050      		subi r30,lo8(-(CSWTCH.55))
 2163 000c F040      		sbci r31,hi8(-(CSWTCH.55))
 2164 000e 8081      		ld r24,Z
 2165               	.LVL51:
 759:tmk_core/common/command.c ****         case KC_1:
 2166               		.loc 1 759 5 view .LVU475
 2167 0010 0895      		ret
 2168               	.L106:
 758:tmk_core/common/command.c ****     switch (code) {
 2169               		.loc 1 758 34 view .LVU476
 2170 0012 80E0      		ldi r24,0
 2171               	/* epilogue start */
 782:tmk_core/common/command.c **** 
 2172               		.loc 1 782 1 view .LVU477
 2173 0014 0895      		ret
 2174               		.cfi_endproc
 2175               	.LFE39:
 2177               		.section	.text.command_proc,"ax",@progbits
 2178               	.global	command_proc
 2180               	command_proc:
 2181               	.LFB24:
  65:tmk_core/common/command.c ****     switch (command_state) {
 2182               		.loc 1 65 33 is_stmt 1 view -0
 2183               		.cfi_startproc
 2184 0000 CF93      		push r28
 2185               	.LCFI145:
 2186               		.cfi_def_cfa_offset 3
 2187               		.cfi_offset 28, -2
 2188               	/* prologue: function */
 2189               	/* frame size = 0 */
 2190               	/* stack size = 1 */
 2191               	.L__stack_usage = 1
 2192 0002 C82F      		mov r28,r24
  66:tmk_core/common/command.c ****         case ONESHOT:
 2193               		.loc 1 66 5 view .LVU479
 2194 0004 8091 0000 		lds r24,command_state
 2195 0008 8130      		cpi r24,lo8(1)
 2196 000a 01F0      		breq .L108
 2197 000c 8823      		tst r24
 2198 000e 01F0      		breq .L109
 2199 0010 8230      		cpi r24,lo8(2)
 2200 0012 01F4      		brne .+2
 2201 0014 00C0      		rjmp .L110
  83:tmk_core/common/command.c ****             return false;
 2202               		.loc 1 83 13 view .LVU480
  83:tmk_core/common/command.c ****             return false;
 2203               		.loc 1 83 27 is_stmt 0 view .LVU481
 2204 0016 1092 0000 		sts command_state,__zero_reg__
  84:tmk_core/common/command.c ****     }
 2205               		.loc 1 84 13 is_stmt 1 view .LVU482
 2206 001a 00C0      		rjmp .L145
 2207               	.L109:
  68:tmk_core/common/command.c ****             return (command_extra(code) || command_common(code));
 2208               		.loc 1 68 13 view .LVU483
  68:tmk_core/common/command.c ****             return (command_extra(code) || command_common(code));
 2209               		.loc 1 68 18 is_stmt 0 view .LVU484
 2210 001c 0E94 0000 		call get_mods
  68:tmk_core/common/command.c ****             return (command_extra(code) || command_common(code));
 2211               		.loc 1 68 16 view .LVU485
 2212 0020 8232      		cpi r24,lo8(34)
 2213 0022 01F4      		brne .L112
 2214               	.L120:
  73:tmk_core/common/command.c ****             else
 2215               		.loc 1 73 17 is_stmt 1 view .LVU486
  73:tmk_core/common/command.c ****             else
 2216               		.loc 1 73 25 is_stmt 0 view .LVU487
 2217 0024 8C2F      		mov r24,r28
 2218 0026 0E94 0000 		call command_extra
  73:tmk_core/common/command.c ****             else
 2219               		.loc 1 73 45 view .LVU488
 2220 002a 8111      		cpse r24,__zero_reg__
 2221 002c 00C0      		rjmp .L146
  73:tmk_core/common/command.c ****             else
 2222               		.loc 1 73 48 discriminator 2 view .LVU489
 2223 002e 8C2F      		mov r24,r28
 2224 0030 0E94 0000 		call command_common
 2225               	.L122:
  75:tmk_core/common/command.c ****             break;
 2226               		.loc 1 75 53 discriminator 6 view .LVU490
 2227 0034 8170      		andi r24,lo8(1)
 2228               	.L107:
 2229               	/* epilogue start */
  87:tmk_core/common/command.c **** 
 2230               		.loc 1 87 1 view .LVU491
 2231 0036 CF91      		pop r28
 2232 0038 0895      		ret
 2233               	.L112:
  68:tmk_core/common/command.c ****             return (command_extra(code) || command_common(code));
 2234               		.loc 1 68 18 discriminator 1 view .LVU492
 2235 003a 0E94 0000 		call get_mods
  68:tmk_core/common/command.c ****             return (command_extra(code) || command_common(code));
 2236               		.loc 1 68 17 discriminator 1 view .LVU493
 2237 003e 8132      		cpi r24,lo8(33)
 2238 0040 01F0      		breq .L120
 2239               	.L145:
  68:tmk_core/common/command.c ****             return (command_extra(code) || command_common(code));
 2240               		.loc 1 68 39 view .LVU494
 2241 0042 80E0      		ldi r24,0
 2242 0044 00C0      		rjmp .L107
 2243               	.L108:
  70:tmk_core/common/command.c ****         case CONSOLE:
 2244               		.loc 1 70 13 is_stmt 1 view .LVU495
  72:tmk_core/common/command.c ****                 return (command_extra(code) || command_common(code));
 2245               		.loc 1 72 13 view .LVU496
  72:tmk_core/common/command.c ****                 return (command_extra(code) || command_common(code));
 2246               		.loc 1 72 17 is_stmt 0 view .LVU497
 2247 0046 0E94 0000 		call get_mods
  72:tmk_core/common/command.c ****                 return (command_extra(code) || command_common(code));
 2248               		.loc 1 72 16 view .LVU498
 2249 004a 8232      		cpi r24,lo8(34)
 2250 004c 01F0      		breq .L120
  72:tmk_core/common/command.c ****                 return (command_extra(code) || command_common(code));
 2251               		.loc 1 72 17 discriminator 1 view .LVU499
 2252 004e 0E94 0000 		call get_mods
 2253 0052 8132      		cpi r24,lo8(33)
 2254 0054 01F0      		breq .L120
  75:tmk_core/common/command.c ****             break;
 2255               		.loc 1 75 17 is_stmt 1 view .LVU500
  75:tmk_core/common/command.c ****             break;
 2256               		.loc 1 75 25 is_stmt 0 view .LVU501
 2257 0056 8C2F      		mov r24,r28
 2258 0058 0E94 0000 		call command_console_extra
  75:tmk_core/common/command.c ****             break;
 2259               		.loc 1 75 53 view .LVU502
 2260 005c 8111      		cpse r24,__zero_reg__
 2261 005e 00C0      		rjmp .L147
 2262               	.LBB290:
 2263               	.LBI290:
 519:tmk_core/common/command.c ****     switch (code) {
 2264               		.loc 1 519 13 is_stmt 1 view .LVU503
 2265               	.LBB291:
 520:tmk_core/common/command.c ****         case KC_H:
 2266               		.loc 1 520 5 view .LVU504
 2267 0060 C431      		cpi r28,lo8(20)
 2268 0062 01F0      		breq .L123
 2269 0064 00F4      		brsh .L124
 2270 0066 CB30      		cpi r28,lo8(11)
 2271 0068 01F0      		breq .L125
 2272 006a C031      		cpi r28,lo8(16)
 2273 006c 01F0      		breq .L126
 2274               	.L127:
 537:tmk_core/common/command.c ****             return false;
 2275               		.loc 1 537 13 view .LVU505
 2276               	.LBE291:
 2277               	.LBE290:
 537:tmk_core/common/command.c ****             return false;
 2278               		.loc 1 537 13 view .LVU506
 537:tmk_core/common/command.c ****             return false;
 2279               		.loc 1 537 13 view .LVU507
 2280               	.LBB303:
 2281               	.LBB296:
 2282 006e 80E0      		ldi r24,lo8(__c.3765)
 2283 0070 90E0      		ldi r25,hi8(__c.3765)
 2284 0072 0E94 0000 		call xputs
 2285 0076 00C0      		rjmp .L176
 2286               	.L146:
 2287               	.LBE296:
 2288               	.LBE303:
  73:tmk_core/common/command.c ****             else
 2289               		.loc 1 73 45 is_stmt 0 view .LVU508
 2290 0078 81E0      		ldi r24,lo8(1)
 2291 007a 90E0      		ldi r25,0
 2292 007c 00C0      		rjmp .L122
 2293               	.L124:
 2294               	.LBB304:
 2295               	.LBB297:
 520:tmk_core/common/command.c ****         case KC_H:
 2296               		.loc 1 520 5 view .LVU509
 2297 007e C932      		cpi r28,lo8(41)
 2298 0080 01F0      		breq .L123
 2299 0082 C833      		cpi r28,lo8(56)
 2300 0084 01F4      		brne .L127
 2301               	.L125:
 523:tmk_core/common/command.c ****             break;
 2302               		.loc 1 523 13 is_stmt 1 view .LVU510
 2303               	.LBB292:
 2304               	.LBI292:
 510:tmk_core/common/command.c ****     print("\n\t- Console -\n"
 2305               		.loc 1 510 13 view .LVU511
 2306               	.LBB293:
 511:tmk_core/common/command.c ****           "ESC/q:	quit\n"
 2307               		.loc 1 511 5 view .LVU512
 2308               	.LBE293:
 2309               	.LBE292:
 2310               	.LBE297:
 2311               	.LBE304:
 511:tmk_core/common/command.c ****           "ESC/q:	quit\n"
 2312               		.loc 1 511 5 view .LVU513
 511:tmk_core/common/command.c ****           "ESC/q:	quit\n"
 2313               		.loc 1 511 5 view .LVU514
 2314               	.LBB305:
 2315               	.LBB298:
 2316               	.LBB295:
 2317               	.LBB294:
 2318 0086 80E0      		ldi r24,lo8(__c.3751)
 2319 0088 90E0      		ldi r25,hi8(__c.3751)
 2320 008a 0E94 0000 		call xputs
 2321               	.LBE294:
 2322               	.LBE295:
 524:tmk_core/common/command.c ****         case KC_Q:
 2323               		.loc 1 524 13 view .LVU515
 540:tmk_core/common/command.c ****     return true;
 2324               		.loc 1 540 5 view .LVU516
 2325               	.LBE298:
 2326               	.LBE305:
 540:tmk_core/common/command.c ****     return true;
 2327               		.loc 1 540 5 view .LVU517
 540:tmk_core/common/command.c ****     return true;
 2328               		.loc 1 540 5 view .LVU518
 2329               	.LBB306:
 2330               	.LBB299:
 2331 008e 80E0      		ldi r24,lo8(__c.3767)
 2332 0090 90E0      		ldi r25,hi8(__c.3767)
 2333 0092 0E94 0000 		call xputs
 541:tmk_core/common/command.c **** }
 2334               		.loc 1 541 5 view .LVU519
 2335               	.L147:
 2336               	.LBE299:
 2337               	.LBE306:
  75:tmk_core/common/command.c ****             break;
 2338               		.loc 1 75 53 is_stmt 0 view .LVU520
 2339 0096 81E0      		ldi r24,lo8(1)
 2340 0098 00C0      		rjmp .L122
 2341               	.L123:
 2342               	.LBB307:
 2343               	.LBB300:
 527:tmk_core/common/command.c ****             return false;
 2344               		.loc 1 527 13 is_stmt 1 view .LVU521
 527:tmk_core/common/command.c ****             return false;
 2345               		.loc 1 527 27 is_stmt 0 view .LVU522
 2346 009a 1092 0000 		sts command_state,__zero_reg__
 528:tmk_core/common/command.c **** #if defined(MOUSEKEY_ENABLE) && !defined(MK_3_SPEED)
 2347               		.loc 1 528 13 is_stmt 1 view .LVU523
 2348               	.L176:
 538:tmk_core/common/command.c ****     }
 2349               		.loc 1 538 13 view .LVU524
 2350               	.LBE300:
 2351               	.LBE307:
  75:tmk_core/common/command.c ****             break;
 2352               		.loc 1 75 53 is_stmt 0 view .LVU525
 2353 009e 80E0      		ldi r24,0
 2354 00a0 00C0      		rjmp .L122
 2355               	.L126:
 2356               	.LBB308:
 2357               	.LBB301:
 531:tmk_core/common/command.c ****             print("M> ");
 2358               		.loc 1 531 13 is_stmt 1 view .LVU526
 2359 00a2 0E94 0000 		call mousekey_console_help
 532:tmk_core/common/command.c ****             command_state = MOUSEKEY;
 2360               		.loc 1 532 13 view .LVU527
 2361               	.LBE301:
 2362               	.LBE308:
 532:tmk_core/common/command.c ****             command_state = MOUSEKEY;
 2363               		.loc 1 532 13 view .LVU528
 532:tmk_core/common/command.c ****             command_state = MOUSEKEY;
 2364               		.loc 1 532 13 view .LVU529
 2365               	.LBB309:
 2366               	.LBB302:
 2367 00a6 80E0      		ldi r24,lo8(__c.3762)
 2368 00a8 90E0      		ldi r25,hi8(__c.3762)
 2369 00aa 0E94 0000 		call xputs
 533:tmk_core/common/command.c ****             return true;
 2370               		.loc 1 533 13 view .LVU530
 533:tmk_core/common/command.c ****             return true;
 2371               		.loc 1 533 27 is_stmt 0 view .LVU531
 2372 00ae 82E0      		ldi r24,lo8(2)
 2373 00b0 8093 0000 		sts command_state,r24
 534:tmk_core/common/command.c **** #endif
 2374               		.loc 1 534 13 is_stmt 1 view .LVU532
 2375 00b4 00C0      		rjmp .L147
 2376               	.L110:
 2377               	.LBE302:
 2378               	.LBE309:
  76:tmk_core/common/command.c **** #if defined(MOUSEKEY_ENABLE) && !defined(MK_3_SPEED)
 2379               		.loc 1 76 13 view .LVU533
  79:tmk_core/common/command.c ****             break;
 2380               		.loc 1 79 13 view .LVU534
 2381               	.LBB310:
 2382               	.LBI310:
 694:tmk_core/common/command.c ****     switch (code) {
 2383               		.loc 1 694 13 view .LVU535
 2384               	.LBB311:
 695:tmk_core/common/command.c ****         case KC_H:
 2385               		.loc 1 695 5 view .LVU536
 2386 00b6 C432      		cpi r28,lo8(36)
 2387 00b8 00F4      		brsh .L128
 2388 00ba CE31      		cpi r28,lo8(30)
 2389 00bc 00F0      		brlo .+2
 2390 00be 00C0      		rjmp .L129
 2391 00c0 CB30      		cpi r28,lo8(11)
 2392 00c2 01F0      		breq .L130
 2393 00c4 00F4      		brsh .L131
 2394 00c6 C730      		cpi r28,lo8(7)
 2395 00c8 01F4      		brne .+2
 2396 00ca 00C0      		rjmp .L132
 2397               	.L133:
 743:tmk_core/common/command.c ****             return false;
 2398               		.loc 1 743 13 view .LVU537
 2399               	.LBE311:
 2400               	.LBE310:
 743:tmk_core/common/command.c ****             return false;
 2401               		.loc 1 743 13 view .LVU538
 743:tmk_core/common/command.c ****             return false;
 2402               		.loc 1 743 13 view .LVU539
 2403               	.LBB377:
 2404               	.LBB352:
 2405 00cc 80E0      		ldi r24,lo8(__c.3889)
 2406 00ce 90E0      		ldi r25,hi8(__c.3889)
 2407               	.L180:
 749:tmk_core/common/command.c ****     }
 2408               		.loc 1 749 9 is_stmt 0 view .LVU540
 2409 00d0 0E94 0000 		call xputs
 2410 00d4 00C0      		rjmp .L179
 2411               	.L131:
 695:tmk_core/common/command.c ****         case KC_H:
 2412               		.loc 1 695 5 view .LVU541
 2413 00d6 C331      		cpi r28,lo8(19)
 2414 00d8 01F0      		breq .L134
 2415 00da C431      		cpi r28,lo8(20)
 2416 00dc 01F4      		brne .L133
 2417               	.L135:
 702:tmk_core/common/command.c ****                 mousekey_param = 0;
 2418               		.loc 1 702 13 is_stmt 1 view .LVU542
 702:tmk_core/common/command.c ****                 mousekey_param = 0;
 2419               		.loc 1 702 16 is_stmt 0 view .LVU543
 2420 00de 8091 0000 		lds r24,mousekey_param
 2421 00e2 8823      		tst r24
 2422 00e4 01F0      		breq .L142
 703:tmk_core/common/command.c ****             } else {
 2423               		.loc 1 703 17 is_stmt 1 view .LVU544
 703:tmk_core/common/command.c ****             } else {
 2424               		.loc 1 703 32 is_stmt 0 view .LVU545
 2425 00e6 1092 0000 		sts mousekey_param,__zero_reg__
 709:tmk_core/common/command.c ****         case KC_P:
 2426               		.loc 1 709 13 is_stmt 1 view .LVU546
 2427 00ea 00C0      		rjmp .L141
 2428               	.L128:
 695:tmk_core/common/command.c ****         case KC_H:
 2429               		.loc 1 695 5 is_stmt 0 view .LVU547
 2430 00ec CB34      		cpi r28,lo8(75)
 2431 00ee 01F4      		brne .+2
 2432 00f0 00C0      		rjmp .L136
 2433 00f2 00F4      		brsh .L137
 2434 00f4 C932      		cpi r28,lo8(41)
 2435 00f6 01F0      		breq .L135
 2436 00f8 C833      		cpi r28,lo8(56)
 2437 00fa 01F4      		brne .L133
 2438               	.L130:
 698:tmk_core/common/command.c ****             break;
 2439               		.loc 1 698 13 is_stmt 1 view .LVU548
 2440 00fc 0E94 0000 		call mousekey_console_help
 699:tmk_core/common/command.c ****         case KC_Q:
 2441               		.loc 1 699 13 view .LVU549
 2442               	.L141:
 746:tmk_core/common/command.c ****         xprintf("M%d> ", mousekey_param);
 2443               		.loc 1 746 5 view .LVU550
 746:tmk_core/common/command.c ****         xprintf("M%d> ", mousekey_param);
 2444               		.loc 1 746 9 is_stmt 0 view .LVU551
 2445 0100 8091 0000 		lds r24,mousekey_param
 746:tmk_core/common/command.c ****         xprintf("M%d> ", mousekey_param);
 2446               		.loc 1 746 8 view .LVU552
 2447 0104 8823      		tst r24
 2448 0106 01F4      		brne .+2
 2449 0108 00C0      		rjmp .L143
 747:tmk_core/common/command.c ****     } else {
 2450               		.loc 1 747 9 is_stmt 1 view .LVU553
 2451               	.LBE352:
 2452               	.LBE377:
 747:tmk_core/common/command.c ****     } else {
 2453               		.loc 1 747 9 view .LVU554
 747:tmk_core/common/command.c ****     } else {
 2454               		.loc 1 747 9 view .LVU555
 2455               	.LBB378:
 2456               	.LBB353:
 2457 010a 1F92      		push __zero_reg__
 2458               	.LCFI146:
 2459               		.cfi_def_cfa_offset 4
 2460 010c 8F93      		push r24
 2461               	.LCFI147:
 2462               		.cfi_def_cfa_offset 5
 2463 010e 80E0      		ldi r24,lo8(__c.3891)
 2464 0110 90E0      		ldi r25,hi8(__c.3891)
 2465 0112 9F93      		push r25
 2466               	.LCFI148:
 2467               		.cfi_def_cfa_offset 6
 2468 0114 8F93      		push r24
 2469               	.LCFI149:
 2470               		.cfi_def_cfa_offset 7
 2471 0116 0E94 0000 		call __xprintf
 2472 011a 0F90      		pop __tmp_reg__
 2473 011c 0F90      		pop __tmp_reg__
 2474 011e 0F90      		pop __tmp_reg__
 2475 0120 0F90      		pop __tmp_reg__
 2476               	.LCFI150:
 2477               		.cfi_def_cfa_offset 3
 2478               	.L179:
 2479               	.LBE353:
 2480               	.LBE378:
  86:tmk_core/common/command.c **** }
 2481               		.loc 1 86 12 is_stmt 0 view .LVU556
 2482 0122 81E0      		ldi r24,lo8(1)
 2483 0124 00C0      		rjmp .L107
 2484               	.L137:
 2485               	.LBB379:
 2486               	.LBB354:
 695:tmk_core/common/command.c ****         case KC_H:
 2487               		.loc 1 695 5 view .LVU557
 2488 0126 C135      		cpi r28,lo8(81)
 2489 0128 01F4      		brne .+2
 2490 012a 00C0      		rjmp .L138
 2491 012c C235      		cpi r28,lo8(82)
 2492 012e 01F4      		brne .+2
 2493 0130 00C0      		rjmp .L139
 2494 0132 CE34      		cpi r28,lo8(78)
 2495 0134 01F4      		brne .L133
 731:tmk_core/common/command.c ****             break;
 2496               		.loc 1 731 13 is_stmt 1 view .LVU558
 2497 0136 6AE0      		ldi r22,lo8(10)
 2498 0138 00C0      		rjmp .L178
 2499               	.L142:
 705:tmk_core/common/command.c ****                 command_state = CONSOLE;
 2500               		.loc 1 705 17 view .LVU559
 2501               	.LBE354:
 2502               	.LBE379:
 705:tmk_core/common/command.c ****                 command_state = CONSOLE;
 2503               		.loc 1 705 17 view .LVU560
 705:tmk_core/common/command.c ****                 command_state = CONSOLE;
 2504               		.loc 1 705 17 view .LVU561
 2505               	.LBB380:
 2506               	.LBB355:
 2507 013a 80E0      		ldi r24,lo8(__c.3872)
 2508 013c 90E0      		ldi r25,hi8(__c.3872)
 2509 013e 0E94 0000 		call xputs
 706:tmk_core/common/command.c ****                 return false;
 2510               		.loc 1 706 17 view .LVU562
 706:tmk_core/common/command.c ****                 return false;
 2511               		.loc 1 706 31 is_stmt 0 view .LVU563
 2512 0142 81E0      		ldi r24,lo8(1)
 2513 0144 8093 0000 		sts command_state,r24
 707:tmk_core/common/command.c ****             }
 2514               		.loc 1 707 17 is_stmt 1 view .LVU564
 2515 0148 00C0      		rjmp .L107
 2516               	.L134:
 711:tmk_core/common/command.c ****             break;
 2517               		.loc 1 711 13 view .LVU565
 2518               	.LBB312:
 2519               	.LBI312:
 550:tmk_core/common/command.c **** // Print these variables if NO_PRINT or USER_PRINT are not defined.
 2520               		.loc 1 550 13 view .LVU566
 2521               	.LBB313:
 553:tmk_core/common/command.c ****     print("1: delay(*10ms): ");
 2522               		.loc 1 553 5 view .LVU567
 2523               	.LBE313:
 2524               	.LBE312:
 2525               	.LBE355:
 2526               	.LBE380:
 553:tmk_core/common/command.c ****     print("1: delay(*10ms): ");
 2527               		.loc 1 553 5 view .LVU568
 553:tmk_core/common/command.c ****     print("1: delay(*10ms): ");
 2528               		.loc 1 553 5 view .LVU569
 2529               	.LBB381:
 2530               	.LBB356:
 2531               	.LBB333:
 2532               	.LBB314:
 2533 014a 80E0      		ldi r24,lo8(__c.3773)
 2534 014c 90E0      		ldi r25,hi8(__c.3773)
 2535 014e 0E94 0000 		call xputs
 554:tmk_core/common/command.c ****     pdec(mk_delay);
 2536               		.loc 1 554 5 view .LVU570
 2537               	.LBE314:
 2538               	.LBE333:
 2539               	.LBE356:
 2540               	.LBE381:
 554:tmk_core/common/command.c ****     pdec(mk_delay);
 2541               		.loc 1 554 5 view .LVU571
 554:tmk_core/common/command.c ****     pdec(mk_delay);
 2542               		.loc 1 554 5 view .LVU572
 2543               	.LBB382:
 2544               	.LBB357:
 2545               	.LBB334:
 2546               	.LBB315:
 2547 0152 80E0      		ldi r24,lo8(__c.3775)
 2548 0154 90E0      		ldi r25,hi8(__c.3775)
 2549 0156 0E94 0000 		call xputs
 555:tmk_core/common/command.c ****     print("\n");
 2550               		.loc 1 555 5 view .LVU573
 2551               	.LBE315:
 2552               	.LBE334:
 2553               	.LBE357:
 2554               	.LBE382:
 555:tmk_core/common/command.c ****     print("\n");
 2555               		.loc 1 555 5 view .LVU574
 555:tmk_core/common/command.c ****     print("\n");
 2556               		.loc 1 555 5 view .LVU575
 2557               	.LBB383:
 2558               	.LBB358:
 2559               	.LBB335:
 2560               	.LBB316:
 2561 015a 8091 0000 		lds r24,mk_delay
 2562 015e 1F92      		push __zero_reg__
 2563               	.LCFI151:
 2564               		.cfi_def_cfa_offset 4
 2565 0160 8F93      		push r24
 2566               	.LCFI152:
 2567               		.cfi_def_cfa_offset 5
 2568 0162 80E0      		ldi r24,lo8(__c.3777)
 2569 0164 90E0      		ldi r25,hi8(__c.3777)
 2570 0166 9F93      		push r25
 2571               	.LCFI153:
 2572               		.cfi_def_cfa_offset 6
 2573 0168 8F93      		push r24
 2574               	.LCFI154:
 2575               		.cfi_def_cfa_offset 7
 2576 016a 0E94 0000 		call __xprintf
 556:tmk_core/common/command.c ****     print("2: interval(ms): ");
 2577               		.loc 1 556 5 view .LVU576
 2578               	.LBE316:
 2579               	.LBE335:
 2580               	.LBE358:
 2581               	.LBE383:
 556:tmk_core/common/command.c ****     print("2: interval(ms): ");
 2582               		.loc 1 556 5 view .LVU577
 556:tmk_core/common/command.c ****     print("2: interval(ms): ");
 2583               		.loc 1 556 5 view .LVU578
 2584               	.LBB384:
 2585               	.LBB359:
 2586               	.LBB336:
 2587               	.LBB317:
 2588 016e 80E0      		ldi r24,lo8(__c.3779)
 2589 0170 90E0      		ldi r25,hi8(__c.3779)
 2590 0172 0E94 0000 		call xputs
 557:tmk_core/common/command.c ****     pdec(mk_interval);
 2591               		.loc 1 557 5 view .LVU579
 2592               	.LBE317:
 2593               	.LBE336:
 2594               	.LBE359:
 2595               	.LBE384:
 557:tmk_core/common/command.c ****     pdec(mk_interval);
 2596               		.loc 1 557 5 view .LVU580
 557:tmk_core/common/command.c ****     pdec(mk_interval);
 2597               		.loc 1 557 5 view .LVU581
 2598               	.LBB385:
 2599               	.LBB360:
 2600               	.LBB337:
 2601               	.LBB318:
 2602 0176 80E0      		ldi r24,lo8(__c.3781)
 2603 0178 90E0      		ldi r25,hi8(__c.3781)
 2604 017a 0E94 0000 		call xputs
 558:tmk_core/common/command.c ****     print("\n");
 2605               		.loc 1 558 5 view .LVU582
 2606               	.LBE318:
 2607               	.LBE337:
 2608               	.LBE360:
 2609               	.LBE385:
 558:tmk_core/common/command.c ****     print("\n");
 2610               		.loc 1 558 5 view .LVU583
 558:tmk_core/common/command.c ****     print("\n");
 2611               		.loc 1 558 5 view .LVU584
 2612               	.LBB386:
 2613               	.LBB361:
 2614               	.LBB338:
 2615               	.LBB319:
 2616 017e 8091 0000 		lds r24,mk_interval
 2617 0182 1F92      		push __zero_reg__
 2618               	.LCFI155:
 2619               		.cfi_def_cfa_offset 8
 2620 0184 8F93      		push r24
 2621               	.LCFI156:
 2622               		.cfi_def_cfa_offset 9
 2623 0186 80E0      		ldi r24,lo8(__c.3783)
 2624 0188 90E0      		ldi r25,hi8(__c.3783)
 2625 018a 9F93      		push r25
 2626               	.LCFI157:
 2627               		.cfi_def_cfa_offset 10
 2628 018c 8F93      		push r24
 2629               	.LCFI158:
 2630               		.cfi_def_cfa_offset 11
 2631 018e 0E94 0000 		call __xprintf
 559:tmk_core/common/command.c ****     print("3: max_speed: ");
 2632               		.loc 1 559 5 view .LVU585
 2633               	.LBE319:
 2634               	.LBE338:
 2635               	.LBE361:
 2636               	.LBE386:
 559:tmk_core/common/command.c ****     print("3: max_speed: ");
 2637               		.loc 1 559 5 view .LVU586
 559:tmk_core/common/command.c ****     print("3: max_speed: ");
 2638               		.loc 1 559 5 view .LVU587
 2639               	.LBB387:
 2640               	.LBB362:
 2641               	.LBB339:
 2642               	.LBB320:
 2643 0192 80E0      		ldi r24,lo8(__c.3785)
 2644 0194 90E0      		ldi r25,hi8(__c.3785)
 2645 0196 0E94 0000 		call xputs
 560:tmk_core/common/command.c ****     pdec(mk_max_speed);
 2646               		.loc 1 560 5 view .LVU588
 2647               	.LBE320:
 2648               	.LBE339:
 2649               	.LBE362:
 2650               	.LBE387:
 560:tmk_core/common/command.c ****     pdec(mk_max_speed);
 2651               		.loc 1 560 5 view .LVU589
 560:tmk_core/common/command.c ****     pdec(mk_max_speed);
 2652               		.loc 1 560 5 view .LVU590
 2653               	.LBB388:
 2654               	.LBB363:
 2655               	.LBB340:
 2656               	.LBB321:
 2657 019a 80E0      		ldi r24,lo8(__c.3787)
 2658 019c 90E0      		ldi r25,hi8(__c.3787)
 2659 019e 0E94 0000 		call xputs
 561:tmk_core/common/command.c ****     print("\n");
 2660               		.loc 1 561 5 view .LVU591
 2661               	.LBE321:
 2662               	.LBE340:
 2663               	.LBE363:
 2664               	.LBE388:
 561:tmk_core/common/command.c ****     print("\n");
 2665               		.loc 1 561 5 view .LVU592
 561:tmk_core/common/command.c ****     print("\n");
 2666               		.loc 1 561 5 view .LVU593
 2667               	.LBB389:
 2668               	.LBB364:
 2669               	.LBB341:
 2670               	.LBB322:
 2671 01a2 8091 0000 		lds r24,mk_max_speed
 2672 01a6 1F92      		push __zero_reg__
 2673               	.LCFI159:
 2674               		.cfi_def_cfa_offset 12
 2675 01a8 8F93      		push r24
 2676               	.LCFI160:
 2677               		.cfi_def_cfa_offset 13
 2678 01aa 80E0      		ldi r24,lo8(__c.3789)
 2679 01ac 90E0      		ldi r25,hi8(__c.3789)
 2680 01ae 9F93      		push r25
 2681               	.LCFI161:
 2682               		.cfi_def_cfa_offset 14
 2683 01b0 8F93      		push r24
 2684               	.LCFI162:
 2685               		.cfi_def_cfa_offset 15
 2686 01b2 0E94 0000 		call __xprintf
 562:tmk_core/common/command.c ****     print("4: time_to_max: ");
 2687               		.loc 1 562 5 view .LVU594
 2688               	.LBE322:
 2689               	.LBE341:
 2690               	.LBE364:
 2691               	.LBE389:
 562:tmk_core/common/command.c ****     print("4: time_to_max: ");
 2692               		.loc 1 562 5 view .LVU595
 562:tmk_core/common/command.c ****     print("4: time_to_max: ");
 2693               		.loc 1 562 5 view .LVU596
 2694               	.LBB390:
 2695               	.LBB365:
 2696               	.LBB342:
 2697               	.LBB323:
 2698 01b6 80E0      		ldi r24,lo8(__c.3791)
 2699 01b8 90E0      		ldi r25,hi8(__c.3791)
 2700 01ba 0E94 0000 		call xputs
 563:tmk_core/common/command.c ****     pdec(mk_time_to_max);
 2701               		.loc 1 563 5 view .LVU597
 2702               	.LBE323:
 2703               	.LBE342:
 2704               	.LBE365:
 2705               	.LBE390:
 563:tmk_core/common/command.c ****     pdec(mk_time_to_max);
 2706               		.loc 1 563 5 view .LVU598
 563:tmk_core/common/command.c ****     pdec(mk_time_to_max);
 2707               		.loc 1 563 5 view .LVU599
 2708               	.LBB391:
 2709               	.LBB366:
 2710               	.LBB343:
 2711               	.LBB324:
 2712 01be 80E0      		ldi r24,lo8(__c.3793)
 2713 01c0 90E0      		ldi r25,hi8(__c.3793)
 2714 01c2 0E94 0000 		call xputs
 564:tmk_core/common/command.c ****     print("\n");
 2715               		.loc 1 564 5 view .LVU600
 2716               	.LBE324:
 2717               	.LBE343:
 2718               	.LBE366:
 2719               	.LBE391:
 564:tmk_core/common/command.c ****     print("\n");
 2720               		.loc 1 564 5 view .LVU601
 564:tmk_core/common/command.c ****     print("\n");
 2721               		.loc 1 564 5 view .LVU602
 2722               	.LBB392:
 2723               	.LBB367:
 2724               	.LBB344:
 2725               	.LBB325:
 2726 01c6 8091 0000 		lds r24,mk_time_to_max
 2727 01ca 1F92      		push __zero_reg__
 2728               	.LCFI163:
 2729               		.cfi_def_cfa_offset 16
 2730 01cc 8F93      		push r24
 2731               	.LCFI164:
 2732               		.cfi_def_cfa_offset 17
 2733 01ce 80E0      		ldi r24,lo8(__c.3795)
 2734 01d0 90E0      		ldi r25,hi8(__c.3795)
 2735 01d2 9F93      		push r25
 2736               	.LCFI165:
 2737               		.cfi_def_cfa_offset 18
 2738 01d4 8F93      		push r24
 2739               	.LCFI166:
 2740               		.cfi_def_cfa_offset 19
 2741 01d6 0E94 0000 		call __xprintf
 565:tmk_core/common/command.c ****     print("5: wheel_max_speed: ");
 2742               		.loc 1 565 5 view .LVU603
 2743               	.LBE325:
 2744               	.LBE344:
 2745               	.LBE367:
 2746               	.LBE392:
 565:tmk_core/common/command.c ****     print("5: wheel_max_speed: ");
 2747               		.loc 1 565 5 view .LVU604
 565:tmk_core/common/command.c ****     print("5: wheel_max_speed: ");
 2748               		.loc 1 565 5 view .LVU605
 2749               	.LBB393:
 2750               	.LBB368:
 2751               	.LBB345:
 2752               	.LBB326:
 2753 01da 80E0      		ldi r24,lo8(__c.3797)
 2754 01dc 90E0      		ldi r25,hi8(__c.3797)
 2755 01de 0E94 0000 		call xputs
 566:tmk_core/common/command.c ****     pdec(mk_wheel_max_speed);
 2756               		.loc 1 566 5 view .LVU606
 2757               	.LBE326:
 2758               	.LBE345:
 2759               	.LBE368:
 2760               	.LBE393:
 566:tmk_core/common/command.c ****     pdec(mk_wheel_max_speed);
 2761               		.loc 1 566 5 view .LVU607
 566:tmk_core/common/command.c ****     pdec(mk_wheel_max_speed);
 2762               		.loc 1 566 5 view .LVU608
 2763               	.LBB394:
 2764               	.LBB369:
 2765               	.LBB346:
 2766               	.LBB327:
 2767 01e2 80E0      		ldi r24,lo8(__c.3799)
 2768 01e4 90E0      		ldi r25,hi8(__c.3799)
 2769 01e6 0E94 0000 		call xputs
 567:tmk_core/common/command.c ****     print("\n");
 2770               		.loc 1 567 5 view .LVU609
 2771               	.LBE327:
 2772               	.LBE346:
 2773               	.LBE369:
 2774               	.LBE394:
 567:tmk_core/common/command.c ****     print("\n");
 2775               		.loc 1 567 5 view .LVU610
 567:tmk_core/common/command.c ****     print("\n");
 2776               		.loc 1 567 5 view .LVU611
 2777               	.LBB395:
 2778               	.LBB370:
 2779               	.LBB347:
 2780               	.LBB328:
 2781 01ea 8091 0000 		lds r24,mk_wheel_max_speed
 2782 01ee 1F92      		push __zero_reg__
 2783               	.LCFI167:
 2784               		.cfi_def_cfa_offset 20
 2785 01f0 8F93      		push r24
 2786               	.LCFI168:
 2787               		.cfi_def_cfa_offset 21
 2788 01f2 80E0      		ldi r24,lo8(__c.3801)
 2789 01f4 90E0      		ldi r25,hi8(__c.3801)
 2790 01f6 9F93      		push r25
 2791               	.LCFI169:
 2792               		.cfi_def_cfa_offset 22
 2793 01f8 8F93      		push r24
 2794               	.LCFI170:
 2795               		.cfi_def_cfa_offset 23
 2796 01fa 0E94 0000 		call __xprintf
 568:tmk_core/common/command.c ****     print("6: wheel_time_to_max: ");
 2797               		.loc 1 568 5 view .LVU612
 2798               	.LBE328:
 2799               	.LBE347:
 2800               	.LBE370:
 2801               	.LBE395:
 568:tmk_core/common/command.c ****     print("6: wheel_time_to_max: ");
 2802               		.loc 1 568 5 view .LVU613
 568:tmk_core/common/command.c ****     print("6: wheel_time_to_max: ");
 2803               		.loc 1 568 5 view .LVU614
 2804               	.LBB396:
 2805               	.LBB371:
 2806               	.LBB348:
 2807               	.LBB329:
 2808 01fe 80E0      		ldi r24,lo8(__c.3803)
 2809 0200 90E0      		ldi r25,hi8(__c.3803)
 2810 0202 0E94 0000 		call xputs
 569:tmk_core/common/command.c ****     pdec(mk_wheel_time_to_max);
 2811               		.loc 1 569 5 view .LVU615
 2812               	.LBE329:
 2813               	.LBE348:
 2814               	.LBE371:
 2815               	.LBE396:
 569:tmk_core/common/command.c ****     pdec(mk_wheel_time_to_max);
 2816               		.loc 1 569 5 view .LVU616
 569:tmk_core/common/command.c ****     pdec(mk_wheel_time_to_max);
 2817               		.loc 1 569 5 view .LVU617
 2818               	.LBB397:
 2819               	.LBB372:
 2820               	.LBB349:
 2821               	.LBB330:
 2822 0206 80E0      		ldi r24,lo8(__c.3805)
 2823 0208 90E0      		ldi r25,hi8(__c.3805)
 2824 020a 0E94 0000 		call xputs
 570:tmk_core/common/command.c ****     print("\n");
 2825               		.loc 1 570 5 view .LVU618
 2826               	.LBE330:
 2827               	.LBE349:
 2828               	.LBE372:
 2829               	.LBE397:
 570:tmk_core/common/command.c ****     print("\n");
 2830               		.loc 1 570 5 view .LVU619
 570:tmk_core/common/command.c ****     print("\n");
 2831               		.loc 1 570 5 view .LVU620
 2832               	.LBB398:
 2833               	.LBB373:
 2834               	.LBB350:
 2835               	.LBB331:
 2836 020e 8091 0000 		lds r24,mk_wheel_time_to_max
 2837 0212 1F92      		push __zero_reg__
 2838               	.LCFI171:
 2839               		.cfi_def_cfa_offset 24
 2840 0214 8F93      		push r24
 2841               	.LCFI172:
 2842               		.cfi_def_cfa_offset 25
 2843 0216 80E0      		ldi r24,lo8(__c.3807)
 2844 0218 90E0      		ldi r25,hi8(__c.3807)
 2845 021a 9F93      		push r25
 2846               	.LCFI173:
 2847               		.cfi_def_cfa_offset 26
 2848 021c 8F93      		push r24
 2849               	.LCFI174:
 2850               		.cfi_def_cfa_offset 27
 2851 021e 0E94 0000 		call __xprintf
 571:tmk_core/common/command.c **** #    endif /* !NO_PRINT */
 2852               		.loc 1 571 5 view .LVU621
 2853               	.LBE331:
 2854               	.LBE350:
 2855               	.LBE373:
 2856               	.LBE398:
 571:tmk_core/common/command.c **** #    endif /* !NO_PRINT */
 2857               		.loc 1 571 5 view .LVU622
 571:tmk_core/common/command.c **** #    endif /* !NO_PRINT */
 2858               		.loc 1 571 5 view .LVU623
 2859               	.LBB399:
 2860               	.LBB374:
 2861               	.LBB351:
 2862               	.LBB332:
 2863 0222 80E0      		ldi r24,lo8(__c.3809)
 2864 0224 90E0      		ldi r25,hi8(__c.3809)
 2865 0226 0E94 0000 		call xputs
 2866 022a 8DB7      		in r24,__SP_L__
 2867 022c 9EB7      		in r25,__SP_H__
 2868 022e 4896      		adiw r24,24
 2869 0230 0FB6      		in __tmp_reg__,__SREG__
 2870 0232 F894      		cli
 2871 0234 9EBF      		out __SP_H__,r25
 2872 0236 0FBE      		out __SREG__,__tmp_reg__
 2873 0238 8DBF      		out __SP_L__,r24
 2874               	.LCFI175:
 2875               		.cfi_def_cfa_offset 3
 2876 023a 00C0      		rjmp .L141
 2877               	.L129:
 2878               	.LBE332:
 2879               	.LBE351:
 719:tmk_core/common/command.c ****             break;
 2880               		.loc 1 719 13 view .LVU624
 719:tmk_core/common/command.c ****             break;
 2881               		.loc 1 719 30 is_stmt 0 view .LVU625
 2882 023c 8C2F      		mov r24,r28
 2883 023e 0E94 0000 		call numkey2num
 719:tmk_core/common/command.c ****             break;
 2884               		.loc 1 719 28 view .LVU626
 2885 0242 8093 0000 		sts mousekey_param,r24
 720:tmk_core/common/command.c ****         case KC_UP:
 2886               		.loc 1 720 13 is_stmt 1 view .LVU627
 2887 0246 00C0      		rjmp .L141
 2888               	.L139:
 722:tmk_core/common/command.c ****             break;
 2889               		.loc 1 722 13 view .LVU628
 2890 0248 61E0      		ldi r22,lo8(1)
 2891               	.L177:
 728:tmk_core/common/command.c ****             break;
 2892               		.loc 1 728 13 is_stmt 0 view .LVU629
 2893 024a 8091 0000 		lds r24,mousekey_param
 2894 024e 0E94 0000 		call mousekey_param_inc
 729:tmk_core/common/command.c ****         case KC_PGDN:
 2895               		.loc 1 729 13 is_stmt 1 view .LVU630
 2896 0252 00C0      		rjmp .L141
 2897               	.L138:
 725:tmk_core/common/command.c ****             break;
 2898               		.loc 1 725 13 view .LVU631
 2899 0254 61E0      		ldi r22,lo8(1)
 2900               	.L178:
 731:tmk_core/common/command.c ****             break;
 2901               		.loc 1 731 13 is_stmt 0 view .LVU632
 2902 0256 8091 0000 		lds r24,mousekey_param
 2903 025a 0E94 0000 		call mousekey_param_dec
 732:tmk_core/common/command.c ****         case KC_D:
 2904               		.loc 1 732 13 is_stmt 1 view .LVU633
 2905 025e 00C0      		rjmp .L141
 2906               	.L136:
 728:tmk_core/common/command.c ****             break;
 2907               		.loc 1 728 13 view .LVU634
 2908 0260 6AE0      		ldi r22,lo8(10)
 2909 0262 00C0      		rjmp .L177
 2910               	.L132:
 734:tmk_core/common/command.c ****             mk_interval          = MOUSEKEY_INTERVAL;
 2911               		.loc 1 734 13 view .LVU635
 734:tmk_core/common/command.c ****             mk_interval          = MOUSEKEY_INTERVAL;
 2912               		.loc 1 734 34 is_stmt 0 view .LVU636
 2913 0264 8EE1      		ldi r24,lo8(30)
 2914 0266 8093 0000 		sts mk_delay,r24
 735:tmk_core/common/command.c ****             mk_max_speed         = MOUSEKEY_MAX_SPEED;
 2915               		.loc 1 735 13 is_stmt 1 view .LVU637
 735:tmk_core/common/command.c ****             mk_max_speed         = MOUSEKEY_MAX_SPEED;
 2916               		.loc 1 735 34 is_stmt 0 view .LVU638
 2917 026a 82E3      		ldi r24,lo8(50)
 2918 026c 8093 0000 		sts mk_interval,r24
 736:tmk_core/common/command.c ****             mk_time_to_max       = MOUSEKEY_TIME_TO_MAX;
 2919               		.loc 1 736 13 is_stmt 1 view .LVU639
 736:tmk_core/common/command.c ****             mk_time_to_max       = MOUSEKEY_TIME_TO_MAX;
 2920               		.loc 1 736 34 is_stmt 0 view .LVU640
 2921 0270 8AE0      		ldi r24,lo8(10)
 2922 0272 8093 0000 		sts mk_max_speed,r24
 737:tmk_core/common/command.c ****             mk_wheel_max_speed   = MOUSEKEY_WHEEL_MAX_SPEED;
 2923               		.loc 1 737 13 is_stmt 1 view .LVU641
 737:tmk_core/common/command.c ****             mk_wheel_max_speed   = MOUSEKEY_WHEEL_MAX_SPEED;
 2924               		.loc 1 737 34 is_stmt 0 view .LVU642
 2925 0276 84E1      		ldi r24,lo8(20)
 2926 0278 8093 0000 		sts mk_time_to_max,r24
 738:tmk_core/common/command.c ****             mk_wheel_time_to_max = MOUSEKEY_WHEEL_TIME_TO_MAX;
 2927               		.loc 1 738 13 is_stmt 1 view .LVU643
 738:tmk_core/common/command.c ****             mk_wheel_time_to_max = MOUSEKEY_WHEEL_TIME_TO_MAX;
 2928               		.loc 1 738 34 is_stmt 0 view .LVU644
 2929 027c 88E0      		ldi r24,lo8(8)
 2930 027e 8093 0000 		sts mk_wheel_max_speed,r24
 739:tmk_core/common/command.c ****             print("set default\n");
 2931               		.loc 1 739 13 is_stmt 1 view .LVU645
 739:tmk_core/common/command.c ****             print("set default\n");
 2932               		.loc 1 739 34 is_stmt 0 view .LVU646
 2933 0282 88E2      		ldi r24,lo8(40)
 2934 0284 8093 0000 		sts mk_wheel_time_to_max,r24
 740:tmk_core/common/command.c ****             break;
 2935               		.loc 1 740 13 is_stmt 1 view .LVU647
 2936               	.LBE374:
 2937               	.LBE399:
 740:tmk_core/common/command.c ****             break;
 2938               		.loc 1 740 13 view .LVU648
 740:tmk_core/common/command.c ****             break;
 2939               		.loc 1 740 13 view .LVU649
 2940               	.LBB400:
 2941               	.LBB375:
 2942 0288 80E0      		ldi r24,lo8(__c.3886)
 2943 028a 90E0      		ldi r25,hi8(__c.3886)
 2944 028c 0E94 0000 		call xputs
 741:tmk_core/common/command.c ****         default:
 2945               		.loc 1 741 13 view .LVU650
 2946 0290 00C0      		rjmp .L141
 2947               	.L143:
 749:tmk_core/common/command.c ****     }
 2948               		.loc 1 749 9 view .LVU651
 2949               	.LBE375:
 2950               	.LBE400:
 749:tmk_core/common/command.c ****     }
 2951               		.loc 1 749 9 view .LVU652
 749:tmk_core/common/command.c ****     }
 2952               		.loc 1 749 9 view .LVU653
 2953               	.LBB401:
 2954               	.LBB376:
 2955 0292 80E0      		ldi r24,lo8(__c.3893)
 2956 0294 90E0      		ldi r25,hi8(__c.3893)
 2957 0296 00C0      		rjmp .L180
 2958               	.LBE376:
 2959               	.LBE401:
 2960               		.cfi_endproc
 2961               	.LFE24:
 2963               		.section	.rodata.CSWTCH.55,"a"
 2966               	CSWTCH.55:
 2967 0000 01        		.byte	1
 2968 0001 02        		.byte	2
 2969 0002 03        		.byte	3
 2970 0003 04        		.byte	4
 2971 0004 05        		.byte	5
 2972 0005 06        		.byte	6
 2973 0006 07        		.byte	7
 2974 0007 08        		.byte	8
 2975 0008 09        		.byte	9
 2976 0009 00        		.byte	0
 2977               		.section	.progmem.data.__c.3855,"a"
 2980               	__c.3855:
 2981 0000 6D6B 5F77 		.string	"mk_wheel_time_to_max = %d\n"
 2981      6865 656C 
 2981      5F74 696D 
 2981      655F 746F 
 2981      5F6D 6178 
 2982               		.section	.progmem.data.__c.3852,"a"
 2985               	__c.3852:
 2986 0000 6D6B 5F77 		.string	"mk_wheel_max_speed = %d\n"
 2986      6865 656C 
 2986      5F6D 6178 
 2986      5F73 7065 
 2986      6564 203D 
 2987               		.section	.progmem.data.__c.3849,"a"
 2990               	__c.3849:
 2991 0000 6D6B 5F74 		.string	"mk_time_to_max = %d\n"
 2991      696D 655F 
 2991      746F 5F6D 
 2991      6178 203D 
 2991      2025 640A 
 2992               		.section	.progmem.data.__c.3846,"a"
 2995               	__c.3846:
 2996 0000 6D6B 5F6D 		.string	"mk_max_speed = %d\n"
 2996      6178 5F73 
 2996      7065 6564 
 2996      203D 2025 
 2996      640A 00
 2997               		.section	.progmem.data.__c.3843,"a"
 3000               	__c.3843:
 3001 0000 6D6B 5F69 		.string	"mk_interval = %d\n"
 3001      6E74 6572 
 3001      7661 6C20 
 3001      3D20 2564 
 3001      0A00 
 3002               		.section	.progmem.data.__c.3839,"a"
 3005               	__c.3839:
 3006 0000 6D6B 5F64 		.string	"mk_delay = %d\n"
 3006      656C 6179 
 3006      203D 2025 
 3006      640A 00
 3007               		.section	.progmem.data.__c.3832,"a"
 3010               	__c.3832:
 3011 0000 6D6B 5F77 		.string	"mk_wheel_time_to_max = %d\n"
 3011      6865 656C 
 3011      5F74 696D 
 3011      655F 746F 
 3011      5F6D 6178 
 3012               		.section	.progmem.data.__c.3829,"a"
 3015               	__c.3829:
 3016 0000 6D6B 5F77 		.string	"mk_wheel_max_speed = %d\n"
 3016      6865 656C 
 3016      5F6D 6178 
 3016      5F73 7065 
 3016      6564 203D 
 3017               		.section	.progmem.data.__c.3826,"a"
 3020               	__c.3826:
 3021 0000 6D6B 5F74 		.string	"mk_time_to_max = %d\n"
 3021      696D 655F 
 3021      746F 5F6D 
 3021      6178 203D 
 3021      2025 640A 
 3022               		.section	.progmem.data.__c.3823,"a"
 3025               	__c.3823:
 3026 0000 6D6B 5F6D 		.string	"mk_max_speed = %d\n"
 3026      6178 5F73 
 3026      7065 6564 
 3026      203D 2025 
 3026      640A 00
 3027               		.section	.progmem.data.__c.3820,"a"
 3030               	__c.3820:
 3031 0000 6D6B 5F69 		.string	"mk_interval = %d\n"
 3031      6E74 6572 
 3031      7661 6C20 
 3031      3D20 2564 
 3031      0A00 
 3032               		.section	.progmem.data.__c.3816,"a"
 3035               	__c.3816:
 3036 0000 6D6B 5F64 		.string	"mk_delay = %d\n"
 3036      656C 6179 
 3036      203D 2025 
 3036      640A 00
 3037               		.section	.progmem.data.__c.3809,"a"
 3040               	__c.3809:
 3041 0000 0A00      		.string	"\n"
 3042               		.section	.progmem.data.__c.3807,"a"
 3045               	__c.3807:
 3046 0000 2575 00   		.string	"%u"
 3047               		.section	.progmem.data.__c.3805,"a"
 3050               	__c.3805:
 3051 0000 363A 2077 		.string	"6: wheel_time_to_max: "
 3051      6865 656C 
 3051      5F74 696D 
 3051      655F 746F 
 3051      5F6D 6178 
 3052               		.section	.progmem.data.__c.3803,"a"
 3055               	__c.3803:
 3056 0000 0A00      		.string	"\n"
 3057               		.section	.progmem.data.__c.3801,"a"
 3060               	__c.3801:
 3061 0000 2575 00   		.string	"%u"
 3062               		.section	.progmem.data.__c.3799,"a"
 3065               	__c.3799:
 3066 0000 353A 2077 		.string	"5: wheel_max_speed: "
 3066      6865 656C 
 3066      5F6D 6178 
 3066      5F73 7065 
 3066      6564 3A20 
 3067               		.section	.progmem.data.__c.3797,"a"
 3070               	__c.3797:
 3071 0000 0A00      		.string	"\n"
 3072               		.section	.progmem.data.__c.3795,"a"
 3075               	__c.3795:
 3076 0000 2575 00   		.string	"%u"
 3077               		.section	.progmem.data.__c.3793,"a"
 3080               	__c.3793:
 3081 0000 343A 2074 		.string	"4: time_to_max: "
 3081      696D 655F 
 3081      746F 5F6D 
 3081      6178 3A20 
 3081      00
 3082               		.section	.progmem.data.__c.3791,"a"
 3085               	__c.3791:
 3086 0000 0A00      		.string	"\n"
 3087               		.section	.progmem.data.__c.3789,"a"
 3090               	__c.3789:
 3091 0000 2575 00   		.string	"%u"
 3092               		.section	.progmem.data.__c.3787,"a"
 3095               	__c.3787:
 3096 0000 333A 206D 		.string	"3: max_speed: "
 3096      6178 5F73 
 3096      7065 6564 
 3096      3A20 00
 3097               		.section	.progmem.data.__c.3785,"a"
 3100               	__c.3785:
 3101 0000 0A00      		.string	"\n"
 3102               		.section	.progmem.data.__c.3783,"a"
 3105               	__c.3783:
 3106 0000 2575 00   		.string	"%u"
 3107               		.section	.progmem.data.__c.3781,"a"
 3110               	__c.3781:
 3111 0000 323A 2069 		.string	"2: interval(ms): "
 3111      6E74 6572 
 3111      7661 6C28 
 3111      6D73 293A 
 3111      2000 
 3112               		.section	.progmem.data.__c.3779,"a"
 3115               	__c.3779:
 3116 0000 0A00      		.string	"\n"
 3117               		.section	.progmem.data.__c.3777,"a"
 3120               	__c.3777:
 3121 0000 2575 00   		.string	"%u"
 3122               		.section	.progmem.data.__c.3775,"a"
 3125               	__c.3775:
 3126 0000 313A 2064 		.string	"1: delay(*10ms): "
 3126      656C 6179 
 3126      282A 3130 
 3126      6D73 293A 
 3126      2000 
 3127               		.section	.progmem.data.__c.3773,"a"
 3130               	__c.3773:
 3131 0000 0A09 2D20 		.string	"\n\t- Values -\n"
 3131      5661 6C75 
 3131      6573 202D 
 3131      0A00 
 3132               		.section	.progmem.data.__c.3893,"a"
 3135               	__c.3893:
 3136 0000 4D3E 00   		.string	"M>"
 3137               		.section	.progmem.data.__c.3891,"a"
 3140               	__c.3891:
 3141 0000 4D25 643E 		.string	"M%d> "
 3141      2000 
 3142               		.section	.progmem.data.__c.3889,"a"
 3145               	__c.3889:
 3146 0000 3F00      		.string	"?"
 3147               		.section	.progmem.data.__c.3886,"a"
 3150               	__c.3886:
 3151 0000 7365 7420 		.string	"set default\n"
 3151      6465 6661 
 3151      756C 740A 
 3151      00
 3152               		.section	.progmem.data.__c.3872,"a"
 3155               	__c.3872:
 3156 0000 433E 2000 		.string	"C> "
 3157               		.section	.progmem.data.__c.3862,"a"
 3160               	__c.3862:
 3161 0000 7768 6572 		.string	"where delta: cursor=%d, wheel=%d\nSee http://en.wikipedia.org/wiki/Mouse_keys\n"
 3161      6520 6465 
 3161      6C74 613A 
 3161      2063 7572 
 3161      736F 723D 
 3162               		.section	.progmem.data.__c.3860,"a"
 3165               	__c.3860:
 3166 0000 0A09 2D20 		.string	"\n\t- Mousekey -\nESC/q:\tquit\n1:\tdelay(*10ms)\n2:\tinterval(ms)\n3:\tmax_speed\n4:\tti
 3166      4D6F 7573 
 3166      656B 6579 
 3166      202D 0A45 
 3166      5343 2F71 
 3167               		.section	.progmem.data.__c.3765,"a"
 3170               	__c.3765:
 3171 0000 3F00      		.string	"?"
 3172               		.section	.progmem.data.__c.3762,"a"
 3175               	__c.3762:
 3176 0000 4D3E 2000 		.string	"M> "
 3177               		.section	.progmem.data.__c.3767,"a"
 3180               	__c.3767:
 3181 0000 433E 2000 		.string	"C> "
 3182               		.section	.progmem.data.__c.3911,"a"
 3185               	__c.3911:
 3186 0000 4C25 640A 		.string	"L%d\n"
 3186      00
 3187               		.section	.progmem.data.__c.3590,"a"
 3190               	__c.3590:
 3191 0000 7469 6D65 		.string	"timer_read32(): %04lX\n"
 3191      725F 7265 
 3191      6164 3332 
 3191      2829 3A20 
 3191      2530 346C 
 3192               		.section	.progmem.data.__c.3588,"a"
 3195               	__c.3588:
 3196 0000 6B65 7962 		.string	"keyboard_idle: %X\n"
 3196      6F61 7264 
 3196      5F69 646C 
 3196      653A 2025 
 3196      580A 00
 3197               		.section	.progmem.data.__c.3586,"a"
 3200               	__c.3586:
 3201 0000 6B65 7962 		.string	"keyboard_protocol: %X\n"
 3201      6F61 7264 
 3201      5F70 726F 
 3201      746F 636F 
 3201      6C3A 2025 
 3202               		.section	.progmem.data.__c.3584,"a"
 3205               	__c.3584:
 3206 0000 686F 7374 		.string	"host_keyboard_leds(): %X\n"
 3206      5F6B 6579 
 3206      626F 6172 
 3206      645F 6C65 
 3206      6473 2829 
 3207               		.section	.progmem.data.__c.3582,"a"
 3210               	__c.3582:
 3211 0000 0A09 2D20 		.string	"\n\t- Status -\n"
 3211      5374 6174 
 3211      7573 202D 
 3211      0A00 
 3212               		.section	.progmem.data.__c.3577,"a"
 3215               	__c.3577:
 3216 0000 4743 433A 		.string	"GCC: 8.3.0 AVR-LIBC: 2.0.0 AVR_ARCH: avr5\n"
 3216      2038 2E33 
 3216      2E30 2041 
 3216      5652 2D4C 
 3216      4942 433A 
 3217               		.section	.progmem.data.__c.3575,"a"
 3220               	__c.3575:
 3221 0000 4F50 5449 		.string	"OPTIONS: LUFA MOUSEKEY EXTRAKEY CONSOLE COMMAND 4096\n"
 3221      4F4E 533A 
 3221      204C 5546 
 3221      4120 4D4F 
 3221      5553 454B 
 3222               		.section	.progmem.data.__c.3573,"a"
 3225               	__c.3573:
 3226 0000 4255 494C 		.string	"BUILD: \"0.11.15-3-gc0dcee-dirty\" (23:49:17 Dec 21 2020)\n"
 3226      443A 2022 
 3226      302E 3131 
 3226      2E31 352D 
 3226      332D 6763 
 3227               		.section	.progmem.data.__c.3571,"a"
 3230               	__c.3571:
 3231 0000 5649 443A 		.string	"VID: 0xFEED(HNT) PID: 0x6512(AT VENDEX Space Invader Linear Keyboard Converter) VER: 0x00
 3231      2030 7846 
 3231      4545 4428 
 3231      484E 5429 
 3231      2050 4944 
 3232               		.section	.progmem.data.__c.3569,"a"
 3235               	__c.3569:
 3236 0000 0A09 2D20 		.string	"\n\t- Version -\n"
 3236      5665 7273 
 3236      696F 6E20 
 3236      2D0A 00
 3237               		.section	.progmem.data.__c.3751,"a"
 3240               	__c.3751:
 3241 0000 0A09 2D20 		.string	"\n\t- Console -\nESC/q:\tquit\nm:\tmousekey\n"
 3241      436F 6E73 
 3241      6F6C 6520 
 3241      2D0A 4553 
 3241      432F 713A 
 3242               		.section	.progmem.data.__c.3564,"a"
 3245               	__c.3564:
 3246 0000 0A09 2D20 		.ascii	"\n\t- Magic -\nD:\tDebug Message Toggle\nX:\tMatrix Debug Mo"
 3246      4D61 6769 
 3246      6320 2D0A 
 3246      443A 0944 
 3246      6562 7567 
 3247 0036 6465 2054 		.ascii	"de Toggle - Show keypresses in matrix grid\nK:\tKeyboard Deb"
 3247      6F67 676C 
 3247      6520 2D20 
 3247      5368 6F77 
 3247      206B 6579 
 3248 0070 7567 2054 		.ascii	"ug Toggle - Show keypress report\nM:\tDebug Mouse To"
 3248      6F67 676C 
 3248      6520 2D20 
 3248      5368 6F77 
 3248      206B 6579 
 3249 00a2 6767 6C65 		.string	"ggle\nV:\tVersion\nS:\tStatus\nC:\tActivate Console Mode\nF1-F10:\tSwitch to Layer 0-9 (F
 3249      0A56 3A09 
 3249      5665 7273 
 3249      696F 6E0A 
 3249      533A 0953 
 3250               		.section	.progmem.data.__c.3697,"a"
 3253               	__c.3697:
 3254 0000 0A00      		.string	"\n"
 3255               		.section	.progmem.data.__c.3695,"a"
 3258               	__c.3695:
 3259 0000 2575 00   		.string	"%u"
 3260               		.section	.progmem.data.__c.3693,"a"
 3263               	__c.3693:
 3264 0000 2E6E 6B72 		.string	".nkro: "
 3264      6F3A 2000 
 3265               		.section	.progmem.data.__c.3691,"a"
 3268               	__c.3691:
 3269 0000 0A00      		.string	"\n"
 3270               		.section	.progmem.data.__c.3689,"a"
 3273               	__c.3689:
 3274 0000 2575 00   		.string	"%u"
 3275               		.section	.progmem.data.__c.3687,"a"
 3278               	__c.3687:
 3279 0000 2E73 7761 		.string	".swap_backslash_backspace: "
 3279      705F 6261 
 3279      636B 736C 
 3279      6173 685F 
 3279      6261 636B 
 3280               		.section	.progmem.data.__c.3685,"a"
 3283               	__c.3685:
 3284 0000 0A00      		.string	"\n"
 3285               		.section	.progmem.data.__c.3683,"a"
 3288               	__c.3683:
 3289 0000 2575 00   		.string	"%u"
 3290               		.section	.progmem.data.__c.3681,"a"
 3293               	__c.3681:
 3294 0000 2E73 7761 		.string	".swap_grave_esc: "
 3294      705F 6772 
 3294      6176 655F 
 3294      6573 633A 
 3294      2000 
 3295               		.section	.progmem.data.__c.3679,"a"
 3298               	__c.3679:
 3299 0000 0A00      		.string	"\n"
 3300               		.section	.progmem.data.__c.3677,"a"
 3303               	__c.3677:
 3304 0000 2575 00   		.string	"%u"
 3305               		.section	.progmem.data.__c.3675,"a"
 3308               	__c.3675:
 3309 0000 2E6E 6F5F 		.string	".no_gui: "
 3309      6775 693A 
 3309      2000 
 3310               		.section	.progmem.data.__c.3673,"a"
 3313               	__c.3673:
 3314 0000 0A00      		.string	"\n"
 3315               		.section	.progmem.data.__c.3671,"a"
 3318               	__c.3671:
 3319 0000 2575 00   		.string	"%u"
 3320               		.section	.progmem.data.__c.3669,"a"
 3323               	__c.3669:
 3324 0000 2E73 7761 		.string	".swap_ralt_rgui: "
 3324      705F 7261 
 3324      6C74 5F72 
 3324      6775 693A 
 3324      2000 
 3325               		.section	.progmem.data.__c.3667,"a"
 3328               	__c.3667:
 3329 0000 0A00      		.string	"\n"
 3330               		.section	.progmem.data.__c.3665,"a"
 3333               	__c.3665:
 3334 0000 2575 00   		.string	"%u"
 3335               		.section	.progmem.data.__c.3663,"a"
 3338               	__c.3663:
 3339 0000 2E73 7761 		.string	".swap_lalt_lgui: "
 3339      705F 6C61 
 3339      6C74 5F6C 
 3339      6775 693A 
 3339      2000 
 3340               		.section	.progmem.data.__c.3661,"a"
 3343               	__c.3661:
 3344 0000 0A00      		.string	"\n"
 3345               		.section	.progmem.data.__c.3659,"a"
 3348               	__c.3659:
 3349 0000 2575 00   		.string	"%u"
 3350               		.section	.progmem.data.__c.3657,"a"
 3353               	__c.3657:
 3354 0000 2E73 7761 		.string	".swap_rctl_rgui: "
 3354      705F 7263 
 3354      746C 5F72 
 3354      6775 693A 
 3354      2000 
 3355               		.section	.progmem.data.__c.3655,"a"
 3358               	__c.3655:
 3359 0000 0A00      		.string	"\n"
 3360               		.section	.progmem.data.__c.3653,"a"
 3363               	__c.3653:
 3364 0000 2575 00   		.string	"%u"
 3365               		.section	.progmem.data.__c.3651,"a"
 3368               	__c.3651:
 3369 0000 2E73 7761 		.string	".swap_lctl_lgui: "
 3369      705F 6C63 
 3369      746C 5F6C 
 3369      6775 693A 
 3369      2000 
 3370               		.section	.progmem.data.__c.3649,"a"
 3373               	__c.3649:
 3374 0000 0A00      		.string	"\n"
 3375               		.section	.progmem.data.__c.3647,"a"
 3378               	__c.3647:
 3379 0000 2575 00   		.string	"%u"
 3380               		.section	.progmem.data.__c.3645,"a"
 3383               	__c.3645:
 3384 0000 2E63 6170 		.string	".capslock_to_control: "
 3384      736C 6F63 
 3384      6B5F 746F 
 3384      5F63 6F6E 
 3384      7472 6F6C 
 3385               		.section	.progmem.data.__c.3643,"a"
 3388               	__c.3643:
 3389 0000 0A00      		.string	"\n"
 3390               		.section	.progmem.data.__c.3641,"a"
 3393               	__c.3641:
 3394 0000 2575 00   		.string	"%u"
 3395               		.section	.progmem.data.__c.3639,"a"
 3398               	__c.3639:
 3399 0000 2E73 7761 		.string	".swap_control_capslock: "
 3399      705F 636F 
 3399      6E74 726F 
 3399      6C5F 6361 
 3399      7073 6C6F 
 3400               		.section	.progmem.data.__c.3637,"a"
 3403               	__c.3637:
 3404 0000 0A00      		.string	"\n"
 3405               		.section	.progmem.data.__c.3635,"a"
 3408               	__c.3635:
 3409 0000 2530 3258 		.string	"%02X"
 3409      00
 3410               		.section	.progmem.data.__c.3633,"a"
 3413               	__c.3633:
 3414 0000 6B65 796D 		.string	"keymap_config.raw: "
 3414      6170 5F63 
 3414      6F6E 6669 
 3414      672E 7261 
 3414      773A 2000 
 3415               		.section	.progmem.data.__c.3630,"a"
 3418               	__c.3630:
 3419 0000 0A00      		.string	"\n"
 3420               		.section	.progmem.data.__c.3628,"a"
 3423               	__c.3628:
 3424 0000 2575 00   		.string	"%u"
 3425               		.section	.progmem.data.__c.3626,"a"
 3428               	__c.3626:
 3429 0000 2E6D 6F75 		.string	".mouse: "
 3429      7365 3A20 
 3429      00
 3430               		.section	.progmem.data.__c.3624,"a"
 3433               	__c.3624:
 3434 0000 0A00      		.string	"\n"
 3435               		.section	.progmem.data.__c.3622,"a"
 3438               	__c.3622:
 3439 0000 2575 00   		.string	"%u"
 3440               		.section	.progmem.data.__c.3620,"a"
 3443               	__c.3620:
 3444 0000 2E6B 6579 		.string	".keyboard: "
 3444      626F 6172 
 3444      643A 2000 
 3445               		.section	.progmem.data.__c.3618,"a"
 3448               	__c.3618:
 3449 0000 0A00      		.string	"\n"
 3450               		.section	.progmem.data.__c.3616,"a"
 3453               	__c.3616:
 3454 0000 2575 00   		.string	"%u"
 3455               		.section	.progmem.data.__c.3614,"a"
 3458               	__c.3614:
 3459 0000 2E6D 6174 		.string	".matrix: "
 3459      7269 783A 
 3459      2000 
 3460               		.section	.progmem.data.__c.3612,"a"
 3463               	__c.3612:
 3464 0000 0A00      		.string	"\n"
 3465               		.section	.progmem.data.__c.3610,"a"
 3468               	__c.3610:
 3469 0000 2575 00   		.string	"%u"
 3470               		.section	.progmem.data.__c.3608,"a"
 3473               	__c.3608:
 3474 0000 2E65 6E61 		.string	".enable: "
 3474      626C 653A 
 3474      2000 
 3475               		.section	.progmem.data.__c.3606,"a"
 3478               	__c.3606:
 3479 0000 0A00      		.string	"\n"
 3480               		.section	.progmem.data.__c.3604,"a"
 3483               	__c.3604:
 3484 0000 2530 3258 		.string	"%02X"
 3484      00
 3485               		.section	.progmem.data.__c.3602,"a"
 3488               	__c.3602:
 3489 0000 6465 6275 		.string	"debug_config.raw: "
 3489      675F 636F 
 3489      6E66 6967 
 3489      2E72 6177 
 3489      3A20 00
 3490               		.section	.progmem.data.__c.3599,"a"
 3493               	__c.3599:
 3494 0000 0A00      		.string	"\n"
 3495               		.section	.progmem.data.__c.3597,"a"
 3498               	__c.3597:
 3499 0000 2575 00   		.string	"%u"
 3500               		.section	.progmem.data.__c.3595,"a"
 3503               	__c.3595:
 3504 0000 6465 6661 		.string	"default_layer: "
 3504      756C 745F 
 3504      6C61 7965 
 3504      723A 2000 
 3505               		.section	.progmem.data.__c.3746,"a"
 3508               	__c.3746:
 3509 0000 3F00      		.string	"?"
 3510               		.section	.progmem.data.__c.3736,"a"
 3513               	__c.3736:
 3514 0000 0A6D 6F75 		.string	"\nmouse: off\n"
 3514      7365 3A20 
 3514      6F66 660A 
 3514      00
 3515               		.section	.progmem.data.__c.3734,"a"
 3518               	__c.3734:
 3519 0000 0A6D 6F75 		.string	"\nmouse: on\n"
 3519      7365 3A20 
 3519      6F6E 0A00 
 3520               		.section	.progmem.data.__c.3731,"a"
 3523               	__c.3731:
 3524 0000 0A6B 6579 		.string	"\nkeyboard: off\n"
 3524      626F 6172 
 3524      643A 206F 
 3524      6666 0A00 
 3525               		.section	.progmem.data.__c.3729,"a"
 3528               	__c.3729:
 3529 0000 0A6B 6579 		.string	"\nkeyboard: on\n"
 3529      626F 6172 
 3529      643A 206F 
 3529      6E0A 00
 3530               		.section	.progmem.data.__c.3726,"a"
 3533               	__c.3726:
 3534 0000 0A6D 6174 		.string	"\nmatrix: off\n"
 3534      7269 783A 
 3534      206F 6666 
 3534      0A00 
 3535               		.section	.progmem.data.__c.3724,"a"
 3538               	__c.3724:
 3539 0000 0A6D 6174 		.string	"\nmatrix: on\n"
 3539      7269 783A 
 3539      206F 6E0A 
 3539      00
 3540               		.section	.progmem.data.__c.3721,"a"
 3543               	__c.3721:
 3544 0000 0A64 6562 		.string	"\ndebug: off\n"
 3544      7567 3A20 
 3544      6F66 660A 
 3544      00
 3545               		.section	.progmem.data.__c.3719,"a"
 3548               	__c.3719:
 3549 0000 0A64 6562 		.string	"\ndebug: on\n"
 3549      7567 3A20 
 3549      6F6E 0A00 
 3550               		.section	.progmem.data.__c.3716,"a"
 3553               	__c.3716:
 3554 0000 0A0A 4A75 		.string	"\n\nJumping to bootloader... "
 3554      6D70 696E 
 3554      6720 746F 
 3554      2062 6F6F 
 3554      746C 6F61 
 3555               		.section	.progmem.data.__c.3712,"a"
 3558               	__c.3712:
 3559 0000 433E 2000 		.string	"C> "
 3560               		.section	.progmem.data.__c.3707,"a"
 3563               	__c.3707:
 3564 0000 436C 6561 		.string	"Clearing EEPROM\n"
 3564      7269 6E67 
 3564      2045 4550 
 3564      524F 4D0A 
 3564      00
 3565               		.section	.progmem.data.__c.3703,"a"
 3568               	__c.3703:
 3569 0000 6565 636F 		.string	"eeconfig:\n"
 3569      6E66 6967 
 3569      3A0A 00
 3570               		.section	.bss.mousekey_param,"aw",@nobits
 3573               	mousekey_param:
 3574 0000 00        		.zero	1
 3575               	.global	command_state
 3576               		.section	.bss.command_state,"aw",@nobits
 3579               	command_state:
 3580 0000 00        		.zero	1
 3581               		.text
 3582               	.Letext0:
 3583               		.file 2 "/usr/avr/include/stdint.h"
 3584               		.file 3 "tmk_core/common/report.h"
 3585               		.file 4 "tmk_core/common/host.h"
 3586               		.file 5 "/usr/lib/gcc/avr/8.3.0/include/stddef.h"
 3587               		.file 6 "tmk_core/common/action.h"
 3588               		.file 7 "tmk_core/common/avr/xprintf.h"
 3589               		.file 8 "tmk_core/common/debug.h"
 3590               		.file 9 "quantum/keycode_config.h"
 3591               		.file 10 "quantum/keymap.h"
 3592               		.file 11 "tmk_core/common/timer.h"
 3593               		.file 12 "tmk_core/common/action_layer.h"
 3594               		.file 13 "tmk_core/common/action_util.h"
 3595               		.file 14 "tmk_core/common/command.h"
 3596               		.file 15 "/usr/avr/include/stdlib.h"
 3597               		.file 16 "quantum/quantum.h"
 3598               		.file 17 "tmk_core/common/mousekey.h"
 3599               		.file 18 "tmk_core/common/keycode.h"