   1               		.file	"DeviceStandardReq.c"
   2               	__SP_H__ = 0x3e
   3               	__SP_L__ = 0x3d
   4               	__SREG__ = 0x3f
   5               	__RAMPZ__ = 0x3b
   6               	__tmp_reg__ = 0
   7               	__zero_reg__ = 1
   8               		.text
   9               	.Ltext0:
  10               		.cfi_sections	.debug_frame
  11               		.file 1 "./tmk_core/protocol/lufa/LUFA-git/LUFA/Drivers/USB/Core/DeviceStandardReq.c"
  12               		.section	.text.USB_Device_ProcessControlRequest,"ax",@progbits
  13               	.global	USB_Device_ProcessControlRequest
  15               	USB_Device_ProcessControlRequest:
  16               	.LFB89:
   1:./tmk_core/protocol/lufa/LUFA-git/LUFA/Drivers/USB/Core/DeviceStandardReq.c **** /*
   2:./tmk_core/protocol/lufa/LUFA-git/LUFA/Drivers/USB/Core/DeviceStandardReq.c ****              LUFA Library
   3:./tmk_core/protocol/lufa/LUFA-git/LUFA/Drivers/USB/Core/DeviceStandardReq.c ****      Copyright (C) Dean Camera, 2014.
   4:./tmk_core/protocol/lufa/LUFA-git/LUFA/Drivers/USB/Core/DeviceStandardReq.c **** 
   5:./tmk_core/protocol/lufa/LUFA-git/LUFA/Drivers/USB/Core/DeviceStandardReq.c ****   dean [at] fourwalledcubicle [dot] com
   6:./tmk_core/protocol/lufa/LUFA-git/LUFA/Drivers/USB/Core/DeviceStandardReq.c ****            www.lufa-lib.org
   7:./tmk_core/protocol/lufa/LUFA-git/LUFA/Drivers/USB/Core/DeviceStandardReq.c **** */
   8:./tmk_core/protocol/lufa/LUFA-git/LUFA/Drivers/USB/Core/DeviceStandardReq.c **** 
   9:./tmk_core/protocol/lufa/LUFA-git/LUFA/Drivers/USB/Core/DeviceStandardReq.c **** /*
  10:./tmk_core/protocol/lufa/LUFA-git/LUFA/Drivers/USB/Core/DeviceStandardReq.c ****   Copyright 2014  Dean Camera (dean [at] fourwalledcubicle [dot] com)
  11:./tmk_core/protocol/lufa/LUFA-git/LUFA/Drivers/USB/Core/DeviceStandardReq.c **** 
  12:./tmk_core/protocol/lufa/LUFA-git/LUFA/Drivers/USB/Core/DeviceStandardReq.c ****   Permission to use, copy, modify, distribute, and sell this
  13:./tmk_core/protocol/lufa/LUFA-git/LUFA/Drivers/USB/Core/DeviceStandardReq.c ****   software and its documentation for any purpose is hereby granted
  14:./tmk_core/protocol/lufa/LUFA-git/LUFA/Drivers/USB/Core/DeviceStandardReq.c ****   without fee, provided that the above copyright notice appear in
  15:./tmk_core/protocol/lufa/LUFA-git/LUFA/Drivers/USB/Core/DeviceStandardReq.c ****   all copies and that both that the copyright notice and this
  16:./tmk_core/protocol/lufa/LUFA-git/LUFA/Drivers/USB/Core/DeviceStandardReq.c ****   permission notice and warranty disclaimer appear in supporting
  17:./tmk_core/protocol/lufa/LUFA-git/LUFA/Drivers/USB/Core/DeviceStandardReq.c ****   documentation, and that the name of the author not be used in
  18:./tmk_core/protocol/lufa/LUFA-git/LUFA/Drivers/USB/Core/DeviceStandardReq.c ****   advertising or publicity pertaining to distribution of the
  19:./tmk_core/protocol/lufa/LUFA-git/LUFA/Drivers/USB/Core/DeviceStandardReq.c ****   software without specific, written prior permission.
  20:./tmk_core/protocol/lufa/LUFA-git/LUFA/Drivers/USB/Core/DeviceStandardReq.c **** 
  21:./tmk_core/protocol/lufa/LUFA-git/LUFA/Drivers/USB/Core/DeviceStandardReq.c ****   The author disclaims all warranties with regard to this
  22:./tmk_core/protocol/lufa/LUFA-git/LUFA/Drivers/USB/Core/DeviceStandardReq.c ****   software, including all implied warranties of merchantability
  23:./tmk_core/protocol/lufa/LUFA-git/LUFA/Drivers/USB/Core/DeviceStandardReq.c ****   and fitness.  In no event shall the author be liable for any
  24:./tmk_core/protocol/lufa/LUFA-git/LUFA/Drivers/USB/Core/DeviceStandardReq.c ****   special, indirect or consequential damages or any damages
  25:./tmk_core/protocol/lufa/LUFA-git/LUFA/Drivers/USB/Core/DeviceStandardReq.c ****   whatsoever resulting from loss of use, data or profits, whether
  26:./tmk_core/protocol/lufa/LUFA-git/LUFA/Drivers/USB/Core/DeviceStandardReq.c ****   in an action of contract, negligence or other tortious action,
  27:./tmk_core/protocol/lufa/LUFA-git/LUFA/Drivers/USB/Core/DeviceStandardReq.c ****   arising out of or in connection with the use or performance of
  28:./tmk_core/protocol/lufa/LUFA-git/LUFA/Drivers/USB/Core/DeviceStandardReq.c ****   this software.
  29:./tmk_core/protocol/lufa/LUFA-git/LUFA/Drivers/USB/Core/DeviceStandardReq.c **** */
  30:./tmk_core/protocol/lufa/LUFA-git/LUFA/Drivers/USB/Core/DeviceStandardReq.c **** 
  31:./tmk_core/protocol/lufa/LUFA-git/LUFA/Drivers/USB/Core/DeviceStandardReq.c **** #define  __INCLUDE_FROM_USB_DRIVER
  32:./tmk_core/protocol/lufa/LUFA-git/LUFA/Drivers/USB/Core/DeviceStandardReq.c **** #include "USBMode.h"
  33:./tmk_core/protocol/lufa/LUFA-git/LUFA/Drivers/USB/Core/DeviceStandardReq.c **** 
  34:./tmk_core/protocol/lufa/LUFA-git/LUFA/Drivers/USB/Core/DeviceStandardReq.c **** #if defined(USB_CAN_BE_DEVICE)
  35:./tmk_core/protocol/lufa/LUFA-git/LUFA/Drivers/USB/Core/DeviceStandardReq.c **** 
  36:./tmk_core/protocol/lufa/LUFA-git/LUFA/Drivers/USB/Core/DeviceStandardReq.c **** #define  __INCLUDE_FROM_DEVICESTDREQ_C
  37:./tmk_core/protocol/lufa/LUFA-git/LUFA/Drivers/USB/Core/DeviceStandardReq.c **** #include "DeviceStandardReq.h"
  38:./tmk_core/protocol/lufa/LUFA-git/LUFA/Drivers/USB/Core/DeviceStandardReq.c **** 
  39:./tmk_core/protocol/lufa/LUFA-git/LUFA/Drivers/USB/Core/DeviceStandardReq.c **** uint8_t USB_Device_ConfigurationNumber;
  40:./tmk_core/protocol/lufa/LUFA-git/LUFA/Drivers/USB/Core/DeviceStandardReq.c **** 
  41:./tmk_core/protocol/lufa/LUFA-git/LUFA/Drivers/USB/Core/DeviceStandardReq.c **** #if !defined(NO_DEVICE_SELF_POWER)
  42:./tmk_core/protocol/lufa/LUFA-git/LUFA/Drivers/USB/Core/DeviceStandardReq.c **** bool    USB_Device_CurrentlySelfPowered;
  43:./tmk_core/protocol/lufa/LUFA-git/LUFA/Drivers/USB/Core/DeviceStandardReq.c **** #endif
  44:./tmk_core/protocol/lufa/LUFA-git/LUFA/Drivers/USB/Core/DeviceStandardReq.c **** 
  45:./tmk_core/protocol/lufa/LUFA-git/LUFA/Drivers/USB/Core/DeviceStandardReq.c **** #if !defined(NO_DEVICE_REMOTE_WAKEUP)
  46:./tmk_core/protocol/lufa/LUFA-git/LUFA/Drivers/USB/Core/DeviceStandardReq.c **** bool    USB_Device_RemoteWakeupEnabled;
  47:./tmk_core/protocol/lufa/LUFA-git/LUFA/Drivers/USB/Core/DeviceStandardReq.c **** #endif
  48:./tmk_core/protocol/lufa/LUFA-git/LUFA/Drivers/USB/Core/DeviceStandardReq.c **** 
  49:./tmk_core/protocol/lufa/LUFA-git/LUFA/Drivers/USB/Core/DeviceStandardReq.c **** void USB_Device_ProcessControlRequest(void)
  50:./tmk_core/protocol/lufa/LUFA-git/LUFA/Drivers/USB/Core/DeviceStandardReq.c **** {
  17               		.loc 1 50 1 view -0
  18               		.cfi_startproc
  19 0000 1F93      		push r17
  20               	.LCFI0:
  21               		.cfi_def_cfa_offset 3
  22               		.cfi_offset 17, -2
  23 0002 CF93      		push r28
  24               	.LCFI1:
  25               		.cfi_def_cfa_offset 4
  26               		.cfi_offset 28, -3
  27 0004 DF93      		push r29
  28               	.LCFI2:
  29               		.cfi_def_cfa_offset 5
  30               		.cfi_offset 29, -4
  31 0006 CDB7      		in r28,__SP_L__
  32 0008 DEB7      		in r29,__SP_H__
  33               	.LCFI3:
  34               		.cfi_def_cfa_register 28
  35 000a AA97      		sbiw r28,42
  36               	.LCFI4:
  37               		.cfi_def_cfa_offset 47
  38 000c 0FB6      		in __tmp_reg__,__SREG__
  39 000e F894      		cli
  40 0010 DEBF      		out __SP_H__,r29
  41 0012 0FBE      		out __SREG__,__tmp_reg__
  42 0014 CDBF      		out __SP_L__,r28
  43               	/* prologue: function */
  44               	/* frame size = 42 */
  45               	/* stack size = 45 */
  46               	.L__stack_usage = 45
  51:./tmk_core/protocol/lufa/LUFA-git/LUFA/Drivers/USB/Core/DeviceStandardReq.c **** 	#if defined(ARCH_BIG_ENDIAN)
  52:./tmk_core/protocol/lufa/LUFA-git/LUFA/Drivers/USB/Core/DeviceStandardReq.c **** 	USB_ControlRequest.bmRequestType = Endpoint_Read_8();
  53:./tmk_core/protocol/lufa/LUFA-git/LUFA/Drivers/USB/Core/DeviceStandardReq.c **** 	USB_ControlRequest.bRequest      = Endpoint_Read_8();
  54:./tmk_core/protocol/lufa/LUFA-git/LUFA/Drivers/USB/Core/DeviceStandardReq.c **** 	USB_ControlRequest.wValue        = Endpoint_Read_16_LE();
  55:./tmk_core/protocol/lufa/LUFA-git/LUFA/Drivers/USB/Core/DeviceStandardReq.c **** 	USB_ControlRequest.wIndex        = Endpoint_Read_16_LE();
  56:./tmk_core/protocol/lufa/LUFA-git/LUFA/Drivers/USB/Core/DeviceStandardReq.c **** 	USB_ControlRequest.wLength       = Endpoint_Read_16_LE();
  57:./tmk_core/protocol/lufa/LUFA-git/LUFA/Drivers/USB/Core/DeviceStandardReq.c **** 	#else
  58:./tmk_core/protocol/lufa/LUFA-git/LUFA/Drivers/USB/Core/DeviceStandardReq.c **** 	uint8_t* RequestHeader = (uint8_t*)&USB_ControlRequest;
  47               		.loc 1 58 2 view .LVU1
  48               	.LVL0:
  59:./tmk_core/protocol/lufa/LUFA-git/LUFA/Drivers/USB/Core/DeviceStandardReq.c **** 
  60:./tmk_core/protocol/lufa/LUFA-git/LUFA/Drivers/USB/Core/DeviceStandardReq.c **** 	for (uint8_t RequestHeaderByte = 0; RequestHeaderByte < sizeof(USB_Request_Header_t); RequestHeade
  49               		.loc 1 60 2 view .LVU2
  50               	.LBB170:
  51               		.loc 1 60 7 view .LVU3
  52               		.loc 1 60 56 view .LVU4
  53               	.LBE170:
  58:./tmk_core/protocol/lufa/LUFA-git/LUFA/Drivers/USB/Core/DeviceStandardReq.c **** 
  54               		.loc 1 58 11 is_stmt 0 view .LVU5
  55 0016 80E0      		ldi r24,lo8(USB_ControlRequest)
  56 0018 90E0      		ldi r25,hi8(USB_ControlRequest)
  57               	.LVL1:
  58               	.L2:
  59               	.LBB173:
  61:./tmk_core/protocol/lufa/LUFA-git/LUFA/Drivers/USB/Core/DeviceStandardReq.c **** 	  *(RequestHeader++) = Endpoint_Read_8();
  60               		.loc 1 61 4 is_stmt 1 discriminator 3 view .LVU6
  61 001a FC01      		movw r30,r24
  62               		.loc 1 61 19 is_stmt 0 discriminator 3 view .LVU7
  63 001c 0196      		adiw r24,1
  64               	.LVL2:
  65               	.LBB171:
  66               	.LBI171:
  67               		.file 2 "./tmk_core/protocol/lufa/LUFA-git/LUFA/Drivers/USB/Core/AVR8/../AVR8/Endpoint_AVR8.h"
   1:./tmk_core/protocol/lufa/LUFA-git/LUFA/Drivers/USB/Core/AVR8/../AVR8/Endpoint_AVR8.h **** /*
   2:./tmk_core/protocol/lufa/LUFA-git/LUFA/Drivers/USB/Core/AVR8/../AVR8/Endpoint_AVR8.h ****              LUFA Library
   3:./tmk_core/protocol/lufa/LUFA-git/LUFA/Drivers/USB/Core/AVR8/../AVR8/Endpoint_AVR8.h ****      Copyright (C) Dean Camera, 2014.
   4:./tmk_core/protocol/lufa/LUFA-git/LUFA/Drivers/USB/Core/AVR8/../AVR8/Endpoint_AVR8.h **** 
   5:./tmk_core/protocol/lufa/LUFA-git/LUFA/Drivers/USB/Core/AVR8/../AVR8/Endpoint_AVR8.h ****   dean [at] fourwalledcubicle [dot] com
   6:./tmk_core/protocol/lufa/LUFA-git/LUFA/Drivers/USB/Core/AVR8/../AVR8/Endpoint_AVR8.h ****            www.lufa-lib.org
   7:./tmk_core/protocol/lufa/LUFA-git/LUFA/Drivers/USB/Core/AVR8/../AVR8/Endpoint_AVR8.h **** */
   8:./tmk_core/protocol/lufa/LUFA-git/LUFA/Drivers/USB/Core/AVR8/../AVR8/Endpoint_AVR8.h **** 
   9:./tmk_core/protocol/lufa/LUFA-git/LUFA/Drivers/USB/Core/AVR8/../AVR8/Endpoint_AVR8.h **** /*
  10:./tmk_core/protocol/lufa/LUFA-git/LUFA/Drivers/USB/Core/AVR8/../AVR8/Endpoint_AVR8.h ****   Copyright 2014  Dean Camera (dean [at] fourwalledcubicle [dot] com)
  11:./tmk_core/protocol/lufa/LUFA-git/LUFA/Drivers/USB/Core/AVR8/../AVR8/Endpoint_AVR8.h **** 
  12:./tmk_core/protocol/lufa/LUFA-git/LUFA/Drivers/USB/Core/AVR8/../AVR8/Endpoint_AVR8.h ****   Permission to use, copy, modify, distribute, and sell this
  13:./tmk_core/protocol/lufa/LUFA-git/LUFA/Drivers/USB/Core/AVR8/../AVR8/Endpoint_AVR8.h ****   software and its documentation for any purpose is hereby granted
  14:./tmk_core/protocol/lufa/LUFA-git/LUFA/Drivers/USB/Core/AVR8/../AVR8/Endpoint_AVR8.h ****   without fee, provided that the above copyright notice appear in
  15:./tmk_core/protocol/lufa/LUFA-git/LUFA/Drivers/USB/Core/AVR8/../AVR8/Endpoint_AVR8.h ****   all copies and that both that the copyright notice and this
  16:./tmk_core/protocol/lufa/LUFA-git/LUFA/Drivers/USB/Core/AVR8/../AVR8/Endpoint_AVR8.h ****   permission notice and warranty disclaimer appear in supporting
  17:./tmk_core/protocol/lufa/LUFA-git/LUFA/Drivers/USB/Core/AVR8/../AVR8/Endpoint_AVR8.h ****   documentation, and that the name of the author not be used in
  18:./tmk_core/protocol/lufa/LUFA-git/LUFA/Drivers/USB/Core/AVR8/../AVR8/Endpoint_AVR8.h ****   advertising or publicity pertaining to distribution of the
  19:./tmk_core/protocol/lufa/LUFA-git/LUFA/Drivers/USB/Core/AVR8/../AVR8/Endpoint_AVR8.h ****   software without specific, written prior permission.
  20:./tmk_core/protocol/lufa/LUFA-git/LUFA/Drivers/USB/Core/AVR8/../AVR8/Endpoint_AVR8.h **** 
  21:./tmk_core/protocol/lufa/LUFA-git/LUFA/Drivers/USB/Core/AVR8/../AVR8/Endpoint_AVR8.h ****   The author disclaims all warranties with regard to this
  22:./tmk_core/protocol/lufa/LUFA-git/LUFA/Drivers/USB/Core/AVR8/../AVR8/Endpoint_AVR8.h ****   software, including all implied warranties of merchantability
  23:./tmk_core/protocol/lufa/LUFA-git/LUFA/Drivers/USB/Core/AVR8/../AVR8/Endpoint_AVR8.h ****   and fitness.  In no event shall the author be liable for any
  24:./tmk_core/protocol/lufa/LUFA-git/LUFA/Drivers/USB/Core/AVR8/../AVR8/Endpoint_AVR8.h ****   special, indirect or consequential damages or any damages
  25:./tmk_core/protocol/lufa/LUFA-git/LUFA/Drivers/USB/Core/AVR8/../AVR8/Endpoint_AVR8.h ****   whatsoever resulting from loss of use, data or profits, whether
  26:./tmk_core/protocol/lufa/LUFA-git/LUFA/Drivers/USB/Core/AVR8/../AVR8/Endpoint_AVR8.h ****   in an action of contract, negligence or other tortious action,
  27:./tmk_core/protocol/lufa/LUFA-git/LUFA/Drivers/USB/Core/AVR8/../AVR8/Endpoint_AVR8.h ****   arising out of or in connection with the use or performance of
  28:./tmk_core/protocol/lufa/LUFA-git/LUFA/Drivers/USB/Core/AVR8/../AVR8/Endpoint_AVR8.h ****   this software.
  29:./tmk_core/protocol/lufa/LUFA-git/LUFA/Drivers/USB/Core/AVR8/../AVR8/Endpoint_AVR8.h **** */
  30:./tmk_core/protocol/lufa/LUFA-git/LUFA/Drivers/USB/Core/AVR8/../AVR8/Endpoint_AVR8.h **** 
  31:./tmk_core/protocol/lufa/LUFA-git/LUFA/Drivers/USB/Core/AVR8/../AVR8/Endpoint_AVR8.h **** /** \file
  32:./tmk_core/protocol/lufa/LUFA-git/LUFA/Drivers/USB/Core/AVR8/../AVR8/Endpoint_AVR8.h ****  *  \brief USB Endpoint definitions for the AVR8 microcontrollers.
  33:./tmk_core/protocol/lufa/LUFA-git/LUFA/Drivers/USB/Core/AVR8/../AVR8/Endpoint_AVR8.h ****  *  \copydetails Group_EndpointManagement_AVR8
  34:./tmk_core/protocol/lufa/LUFA-git/LUFA/Drivers/USB/Core/AVR8/../AVR8/Endpoint_AVR8.h ****  *
  35:./tmk_core/protocol/lufa/LUFA-git/LUFA/Drivers/USB/Core/AVR8/../AVR8/Endpoint_AVR8.h ****  *  \note This file should not be included directly. It is automatically included as needed by the 
  36:./tmk_core/protocol/lufa/LUFA-git/LUFA/Drivers/USB/Core/AVR8/../AVR8/Endpoint_AVR8.h ****  *        dispatch header located in LUFA/Drivers/USB/USB.h.
  37:./tmk_core/protocol/lufa/LUFA-git/LUFA/Drivers/USB/Core/AVR8/../AVR8/Endpoint_AVR8.h ****  */
  38:./tmk_core/protocol/lufa/LUFA-git/LUFA/Drivers/USB/Core/AVR8/../AVR8/Endpoint_AVR8.h **** 
  39:./tmk_core/protocol/lufa/LUFA-git/LUFA/Drivers/USB/Core/AVR8/../AVR8/Endpoint_AVR8.h **** /** \ingroup Group_EndpointRW
  40:./tmk_core/protocol/lufa/LUFA-git/LUFA/Drivers/USB/Core/AVR8/../AVR8/Endpoint_AVR8.h ****  *  \defgroup Group_EndpointRW_AVR8 Endpoint Data Reading and Writing (AVR8)
  41:./tmk_core/protocol/lufa/LUFA-git/LUFA/Drivers/USB/Core/AVR8/../AVR8/Endpoint_AVR8.h ****  *  \brief Endpoint data read/write definitions for the Atmel AVR8 architecture.
  42:./tmk_core/protocol/lufa/LUFA-git/LUFA/Drivers/USB/Core/AVR8/../AVR8/Endpoint_AVR8.h ****  *
  43:./tmk_core/protocol/lufa/LUFA-git/LUFA/Drivers/USB/Core/AVR8/../AVR8/Endpoint_AVR8.h ****  *  Functions, macros, variables, enums and types related to data reading and writing from and to e
  44:./tmk_core/protocol/lufa/LUFA-git/LUFA/Drivers/USB/Core/AVR8/../AVR8/Endpoint_AVR8.h ****  */
  45:./tmk_core/protocol/lufa/LUFA-git/LUFA/Drivers/USB/Core/AVR8/../AVR8/Endpoint_AVR8.h **** 
  46:./tmk_core/protocol/lufa/LUFA-git/LUFA/Drivers/USB/Core/AVR8/../AVR8/Endpoint_AVR8.h **** /** \ingroup Group_EndpointPrimitiveRW
  47:./tmk_core/protocol/lufa/LUFA-git/LUFA/Drivers/USB/Core/AVR8/../AVR8/Endpoint_AVR8.h ****  *  \defgroup Group_EndpointPrimitiveRW_AVR8 Read/Write of Primitive Data Types (AVR8)
  48:./tmk_core/protocol/lufa/LUFA-git/LUFA/Drivers/USB/Core/AVR8/../AVR8/Endpoint_AVR8.h ****  *  \brief Endpoint primitive read/write definitions for the Atmel AVR8 architecture.
  49:./tmk_core/protocol/lufa/LUFA-git/LUFA/Drivers/USB/Core/AVR8/../AVR8/Endpoint_AVR8.h ****  *
  50:./tmk_core/protocol/lufa/LUFA-git/LUFA/Drivers/USB/Core/AVR8/../AVR8/Endpoint_AVR8.h ****  *  Functions, macros, variables, enums and types related to data reading and writing of primitive 
  51:./tmk_core/protocol/lufa/LUFA-git/LUFA/Drivers/USB/Core/AVR8/../AVR8/Endpoint_AVR8.h ****  *  from and to endpoints.
  52:./tmk_core/protocol/lufa/LUFA-git/LUFA/Drivers/USB/Core/AVR8/../AVR8/Endpoint_AVR8.h ****  */
  53:./tmk_core/protocol/lufa/LUFA-git/LUFA/Drivers/USB/Core/AVR8/../AVR8/Endpoint_AVR8.h **** 
  54:./tmk_core/protocol/lufa/LUFA-git/LUFA/Drivers/USB/Core/AVR8/../AVR8/Endpoint_AVR8.h **** /** \ingroup Group_EndpointPacketManagement
  55:./tmk_core/protocol/lufa/LUFA-git/LUFA/Drivers/USB/Core/AVR8/../AVR8/Endpoint_AVR8.h ****  *  \defgroup Group_EndpointPacketManagement_AVR8 Endpoint Packet Management (AVR8)
  56:./tmk_core/protocol/lufa/LUFA-git/LUFA/Drivers/USB/Core/AVR8/../AVR8/Endpoint_AVR8.h ****  *  \brief Endpoint packet management definitions for the Atmel AVR8 architecture.
  57:./tmk_core/protocol/lufa/LUFA-git/LUFA/Drivers/USB/Core/AVR8/../AVR8/Endpoint_AVR8.h ****  *
  58:./tmk_core/protocol/lufa/LUFA-git/LUFA/Drivers/USB/Core/AVR8/../AVR8/Endpoint_AVR8.h ****  *  Functions, macros, variables, enums and types related to packet management of endpoints.
  59:./tmk_core/protocol/lufa/LUFA-git/LUFA/Drivers/USB/Core/AVR8/../AVR8/Endpoint_AVR8.h ****  */
  60:./tmk_core/protocol/lufa/LUFA-git/LUFA/Drivers/USB/Core/AVR8/../AVR8/Endpoint_AVR8.h **** 
  61:./tmk_core/protocol/lufa/LUFA-git/LUFA/Drivers/USB/Core/AVR8/../AVR8/Endpoint_AVR8.h **** /** \ingroup Group_EndpointManagement
  62:./tmk_core/protocol/lufa/LUFA-git/LUFA/Drivers/USB/Core/AVR8/../AVR8/Endpoint_AVR8.h ****  *  \defgroup Group_EndpointManagement_AVR8 Endpoint Management (AVR8)
  63:./tmk_core/protocol/lufa/LUFA-git/LUFA/Drivers/USB/Core/AVR8/../AVR8/Endpoint_AVR8.h ****  *  \brief Endpoint management definitions for the Atmel AVR8 architecture.
  64:./tmk_core/protocol/lufa/LUFA-git/LUFA/Drivers/USB/Core/AVR8/../AVR8/Endpoint_AVR8.h ****  *
  65:./tmk_core/protocol/lufa/LUFA-git/LUFA/Drivers/USB/Core/AVR8/../AVR8/Endpoint_AVR8.h ****  *  Functions, macros and enums related to endpoint management when in USB Device mode. This
  66:./tmk_core/protocol/lufa/LUFA-git/LUFA/Drivers/USB/Core/AVR8/../AVR8/Endpoint_AVR8.h ****  *  module contains the endpoint management macros, as well as endpoint interrupt and data
  67:./tmk_core/protocol/lufa/LUFA-git/LUFA/Drivers/USB/Core/AVR8/../AVR8/Endpoint_AVR8.h ****  *  send/receive functions for various data types.
  68:./tmk_core/protocol/lufa/LUFA-git/LUFA/Drivers/USB/Core/AVR8/../AVR8/Endpoint_AVR8.h ****  *
  69:./tmk_core/protocol/lufa/LUFA-git/LUFA/Drivers/USB/Core/AVR8/../AVR8/Endpoint_AVR8.h ****  *  @{
  70:./tmk_core/protocol/lufa/LUFA-git/LUFA/Drivers/USB/Core/AVR8/../AVR8/Endpoint_AVR8.h ****  */
  71:./tmk_core/protocol/lufa/LUFA-git/LUFA/Drivers/USB/Core/AVR8/../AVR8/Endpoint_AVR8.h **** 
  72:./tmk_core/protocol/lufa/LUFA-git/LUFA/Drivers/USB/Core/AVR8/../AVR8/Endpoint_AVR8.h **** #ifndef __ENDPOINT_AVR8_H__
  73:./tmk_core/protocol/lufa/LUFA-git/LUFA/Drivers/USB/Core/AVR8/../AVR8/Endpoint_AVR8.h **** #define __ENDPOINT_AVR8_H__
  74:./tmk_core/protocol/lufa/LUFA-git/LUFA/Drivers/USB/Core/AVR8/../AVR8/Endpoint_AVR8.h **** 
  75:./tmk_core/protocol/lufa/LUFA-git/LUFA/Drivers/USB/Core/AVR8/../AVR8/Endpoint_AVR8.h **** 	/* Includes: */
  76:./tmk_core/protocol/lufa/LUFA-git/LUFA/Drivers/USB/Core/AVR8/../AVR8/Endpoint_AVR8.h **** 		#include "../../../../Common/Common.h"
  77:./tmk_core/protocol/lufa/LUFA-git/LUFA/Drivers/USB/Core/AVR8/../AVR8/Endpoint_AVR8.h **** 		#include "../USBTask.h"
  78:./tmk_core/protocol/lufa/LUFA-git/LUFA/Drivers/USB/Core/AVR8/../AVR8/Endpoint_AVR8.h **** 		#include "../USBInterrupt.h"
  79:./tmk_core/protocol/lufa/LUFA-git/LUFA/Drivers/USB/Core/AVR8/../AVR8/Endpoint_AVR8.h **** 
  80:./tmk_core/protocol/lufa/LUFA-git/LUFA/Drivers/USB/Core/AVR8/../AVR8/Endpoint_AVR8.h **** 	/* Enable C linkage for C++ Compilers: */
  81:./tmk_core/protocol/lufa/LUFA-git/LUFA/Drivers/USB/Core/AVR8/../AVR8/Endpoint_AVR8.h **** 		#if defined(__cplusplus)
  82:./tmk_core/protocol/lufa/LUFA-git/LUFA/Drivers/USB/Core/AVR8/../AVR8/Endpoint_AVR8.h **** 			extern "C" {
  83:./tmk_core/protocol/lufa/LUFA-git/LUFA/Drivers/USB/Core/AVR8/../AVR8/Endpoint_AVR8.h **** 		#endif
  84:./tmk_core/protocol/lufa/LUFA-git/LUFA/Drivers/USB/Core/AVR8/../AVR8/Endpoint_AVR8.h **** 
  85:./tmk_core/protocol/lufa/LUFA-git/LUFA/Drivers/USB/Core/AVR8/../AVR8/Endpoint_AVR8.h **** 	/* Preprocessor Checks: */
  86:./tmk_core/protocol/lufa/LUFA-git/LUFA/Drivers/USB/Core/AVR8/../AVR8/Endpoint_AVR8.h **** 		#if !defined(__INCLUDE_FROM_USB_DRIVER)
  87:./tmk_core/protocol/lufa/LUFA-git/LUFA/Drivers/USB/Core/AVR8/../AVR8/Endpoint_AVR8.h **** 			#error Do not include this file directly. Include LUFA/Drivers/USB/USB.h instead.
  88:./tmk_core/protocol/lufa/LUFA-git/LUFA/Drivers/USB/Core/AVR8/../AVR8/Endpoint_AVR8.h **** 		#endif
  89:./tmk_core/protocol/lufa/LUFA-git/LUFA/Drivers/USB/Core/AVR8/../AVR8/Endpoint_AVR8.h **** 
  90:./tmk_core/protocol/lufa/LUFA-git/LUFA/Drivers/USB/Core/AVR8/../AVR8/Endpoint_AVR8.h **** 	/* Private Interface - For use in library only: */
  91:./tmk_core/protocol/lufa/LUFA-git/LUFA/Drivers/USB/Core/AVR8/../AVR8/Endpoint_AVR8.h **** 	#if !defined(__DOXYGEN__)
  92:./tmk_core/protocol/lufa/LUFA-git/LUFA/Drivers/USB/Core/AVR8/../AVR8/Endpoint_AVR8.h **** 		/* Inline Functions: */
  93:./tmk_core/protocol/lufa/LUFA-git/LUFA/Drivers/USB/Core/AVR8/../AVR8/Endpoint_AVR8.h **** 			static inline uint8_t Endpoint_BytesToEPSizeMask(const uint16_t Bytes) ATTR_WARN_UNUSED_RESULT A
  94:./tmk_core/protocol/lufa/LUFA-git/LUFA/Drivers/USB/Core/AVR8/../AVR8/Endpoint_AVR8.h **** 			                                                                       ATTR_ALWAYS_INLINE;
  95:./tmk_core/protocol/lufa/LUFA-git/LUFA/Drivers/USB/Core/AVR8/../AVR8/Endpoint_AVR8.h **** 			static inline uint8_t Endpoint_BytesToEPSizeMask(const uint16_t Bytes)
  96:./tmk_core/protocol/lufa/LUFA-git/LUFA/Drivers/USB/Core/AVR8/../AVR8/Endpoint_AVR8.h **** 			{
  97:./tmk_core/protocol/lufa/LUFA-git/LUFA/Drivers/USB/Core/AVR8/../AVR8/Endpoint_AVR8.h **** 				uint8_t  MaskVal    = 0;
  98:./tmk_core/protocol/lufa/LUFA-git/LUFA/Drivers/USB/Core/AVR8/../AVR8/Endpoint_AVR8.h **** 				uint16_t CheckBytes = 8;
  99:./tmk_core/protocol/lufa/LUFA-git/LUFA/Drivers/USB/Core/AVR8/../AVR8/Endpoint_AVR8.h **** 
 100:./tmk_core/protocol/lufa/LUFA-git/LUFA/Drivers/USB/Core/AVR8/../AVR8/Endpoint_AVR8.h **** 				while (CheckBytes < Bytes)
 101:./tmk_core/protocol/lufa/LUFA-git/LUFA/Drivers/USB/Core/AVR8/../AVR8/Endpoint_AVR8.h **** 				{
 102:./tmk_core/protocol/lufa/LUFA-git/LUFA/Drivers/USB/Core/AVR8/../AVR8/Endpoint_AVR8.h **** 					MaskVal++;
 103:./tmk_core/protocol/lufa/LUFA-git/LUFA/Drivers/USB/Core/AVR8/../AVR8/Endpoint_AVR8.h **** 					CheckBytes <<= 1;
 104:./tmk_core/protocol/lufa/LUFA-git/LUFA/Drivers/USB/Core/AVR8/../AVR8/Endpoint_AVR8.h **** 				}
 105:./tmk_core/protocol/lufa/LUFA-git/LUFA/Drivers/USB/Core/AVR8/../AVR8/Endpoint_AVR8.h **** 
 106:./tmk_core/protocol/lufa/LUFA-git/LUFA/Drivers/USB/Core/AVR8/../AVR8/Endpoint_AVR8.h **** 				return (MaskVal << EPSIZE0);
 107:./tmk_core/protocol/lufa/LUFA-git/LUFA/Drivers/USB/Core/AVR8/../AVR8/Endpoint_AVR8.h **** 			}
 108:./tmk_core/protocol/lufa/LUFA-git/LUFA/Drivers/USB/Core/AVR8/../AVR8/Endpoint_AVR8.h **** 
 109:./tmk_core/protocol/lufa/LUFA-git/LUFA/Drivers/USB/Core/AVR8/../AVR8/Endpoint_AVR8.h **** 		/* Function Prototypes: */
 110:./tmk_core/protocol/lufa/LUFA-git/LUFA/Drivers/USB/Core/AVR8/../AVR8/Endpoint_AVR8.h **** 			void Endpoint_ClearEndpoints(void);
 111:./tmk_core/protocol/lufa/LUFA-git/LUFA/Drivers/USB/Core/AVR8/../AVR8/Endpoint_AVR8.h **** 			bool Endpoint_ConfigureEndpoint_Prv(const uint8_t Number,
 112:./tmk_core/protocol/lufa/LUFA-git/LUFA/Drivers/USB/Core/AVR8/../AVR8/Endpoint_AVR8.h **** 			                                    const uint8_t UECFG0XData,
 113:./tmk_core/protocol/lufa/LUFA-git/LUFA/Drivers/USB/Core/AVR8/../AVR8/Endpoint_AVR8.h **** 			                                    const uint8_t UECFG1XData);
 114:./tmk_core/protocol/lufa/LUFA-git/LUFA/Drivers/USB/Core/AVR8/../AVR8/Endpoint_AVR8.h **** 
 115:./tmk_core/protocol/lufa/LUFA-git/LUFA/Drivers/USB/Core/AVR8/../AVR8/Endpoint_AVR8.h **** 	#endif
 116:./tmk_core/protocol/lufa/LUFA-git/LUFA/Drivers/USB/Core/AVR8/../AVR8/Endpoint_AVR8.h **** 
 117:./tmk_core/protocol/lufa/LUFA-git/LUFA/Drivers/USB/Core/AVR8/../AVR8/Endpoint_AVR8.h **** 	/* Public Interface - May be used in end-application: */
 118:./tmk_core/protocol/lufa/LUFA-git/LUFA/Drivers/USB/Core/AVR8/../AVR8/Endpoint_AVR8.h **** 		/* Macros: */
 119:./tmk_core/protocol/lufa/LUFA-git/LUFA/Drivers/USB/Core/AVR8/../AVR8/Endpoint_AVR8.h **** 			#if (!defined(FIXED_CONTROL_ENDPOINT_SIZE) || defined(__DOXYGEN__))
 120:./tmk_core/protocol/lufa/LUFA-git/LUFA/Drivers/USB/Core/AVR8/../AVR8/Endpoint_AVR8.h **** 				/** Default size of the default control endpoint's bank, until altered by the control endpoint 
 121:./tmk_core/protocol/lufa/LUFA-git/LUFA/Drivers/USB/Core/AVR8/../AVR8/Endpoint_AVR8.h **** 				 *  value in the device descriptor. Not available if the \c FIXED_CONTROL_ENDPOINT_SIZE token i
 122:./tmk_core/protocol/lufa/LUFA-git/LUFA/Drivers/USB/Core/AVR8/../AVR8/Endpoint_AVR8.h **** 				 */
 123:./tmk_core/protocol/lufa/LUFA-git/LUFA/Drivers/USB/Core/AVR8/../AVR8/Endpoint_AVR8.h **** 				#define ENDPOINT_CONTROLEP_DEFAULT_SIZE     8
 124:./tmk_core/protocol/lufa/LUFA-git/LUFA/Drivers/USB/Core/AVR8/../AVR8/Endpoint_AVR8.h **** 			#endif
 125:./tmk_core/protocol/lufa/LUFA-git/LUFA/Drivers/USB/Core/AVR8/../AVR8/Endpoint_AVR8.h **** 
 126:./tmk_core/protocol/lufa/LUFA-git/LUFA/Drivers/USB/Core/AVR8/../AVR8/Endpoint_AVR8.h **** 			#if !defined(CONTROL_ONLY_DEVICE) || defined(__DOXYGEN__)
 127:./tmk_core/protocol/lufa/LUFA-git/LUFA/Drivers/USB/Core/AVR8/../AVR8/Endpoint_AVR8.h **** 				#if defined(USB_SERIES_4_AVR) || defined(USB_SERIES_6_AVR) || defined(USB_SERIES_7_AVR) || defi
 128:./tmk_core/protocol/lufa/LUFA-git/LUFA/Drivers/USB/Core/AVR8/../AVR8/Endpoint_AVR8.h **** 					/** Total number of endpoints (including the default control endpoint at address 0) which may
 129:./tmk_core/protocol/lufa/LUFA-git/LUFA/Drivers/USB/Core/AVR8/../AVR8/Endpoint_AVR8.h **** 					 *  be used in the device. Different USB AVR models support different amounts of endpoints,
 130:./tmk_core/protocol/lufa/LUFA-git/LUFA/Drivers/USB/Core/AVR8/../AVR8/Endpoint_AVR8.h **** 					 *  this value reflects the maximum number of endpoints for the currently selected AVR model.
 131:./tmk_core/protocol/lufa/LUFA-git/LUFA/Drivers/USB/Core/AVR8/../AVR8/Endpoint_AVR8.h **** 					 */
 132:./tmk_core/protocol/lufa/LUFA-git/LUFA/Drivers/USB/Core/AVR8/../AVR8/Endpoint_AVR8.h **** 					#define ENDPOINT_TOTAL_ENDPOINTS        7
 133:./tmk_core/protocol/lufa/LUFA-git/LUFA/Drivers/USB/Core/AVR8/../AVR8/Endpoint_AVR8.h **** 				#else
 134:./tmk_core/protocol/lufa/LUFA-git/LUFA/Drivers/USB/Core/AVR8/../AVR8/Endpoint_AVR8.h **** 					#define ENDPOINT_TOTAL_ENDPOINTS        5
 135:./tmk_core/protocol/lufa/LUFA-git/LUFA/Drivers/USB/Core/AVR8/../AVR8/Endpoint_AVR8.h **** 				#endif
 136:./tmk_core/protocol/lufa/LUFA-git/LUFA/Drivers/USB/Core/AVR8/../AVR8/Endpoint_AVR8.h **** 			#else
 137:./tmk_core/protocol/lufa/LUFA-git/LUFA/Drivers/USB/Core/AVR8/../AVR8/Endpoint_AVR8.h **** 				#define ENDPOINT_TOTAL_ENDPOINTS            1
 138:./tmk_core/protocol/lufa/LUFA-git/LUFA/Drivers/USB/Core/AVR8/../AVR8/Endpoint_AVR8.h **** 			#endif
 139:./tmk_core/protocol/lufa/LUFA-git/LUFA/Drivers/USB/Core/AVR8/../AVR8/Endpoint_AVR8.h **** 
 140:./tmk_core/protocol/lufa/LUFA-git/LUFA/Drivers/USB/Core/AVR8/../AVR8/Endpoint_AVR8.h **** 		/* Enums: */
 141:./tmk_core/protocol/lufa/LUFA-git/LUFA/Drivers/USB/Core/AVR8/../AVR8/Endpoint_AVR8.h **** 			/** Enum for the possible error return codes of the \ref Endpoint_WaitUntilReady() function.
 142:./tmk_core/protocol/lufa/LUFA-git/LUFA/Drivers/USB/Core/AVR8/../AVR8/Endpoint_AVR8.h **** 			 *
 143:./tmk_core/protocol/lufa/LUFA-git/LUFA/Drivers/USB/Core/AVR8/../AVR8/Endpoint_AVR8.h **** 			 *  \ingroup Group_EndpointRW_AVR8
 144:./tmk_core/protocol/lufa/LUFA-git/LUFA/Drivers/USB/Core/AVR8/../AVR8/Endpoint_AVR8.h **** 			 */
 145:./tmk_core/protocol/lufa/LUFA-git/LUFA/Drivers/USB/Core/AVR8/../AVR8/Endpoint_AVR8.h **** 			enum Endpoint_WaitUntilReady_ErrorCodes_t
 146:./tmk_core/protocol/lufa/LUFA-git/LUFA/Drivers/USB/Core/AVR8/../AVR8/Endpoint_AVR8.h **** 			{
 147:./tmk_core/protocol/lufa/LUFA-git/LUFA/Drivers/USB/Core/AVR8/../AVR8/Endpoint_AVR8.h **** 				ENDPOINT_READYWAIT_NoError                 = 0, /**< Endpoint is ready for next packet, no erro
 148:./tmk_core/protocol/lufa/LUFA-git/LUFA/Drivers/USB/Core/AVR8/../AVR8/Endpoint_AVR8.h **** 				ENDPOINT_READYWAIT_EndpointStalled         = 1, /**< The endpoint was stalled during the stream
 149:./tmk_core/protocol/lufa/LUFA-git/LUFA/Drivers/USB/Core/AVR8/../AVR8/Endpoint_AVR8.h **** 				                                                 *   transfer by the host or device.
 150:./tmk_core/protocol/lufa/LUFA-git/LUFA/Drivers/USB/Core/AVR8/../AVR8/Endpoint_AVR8.h **** 				                                                 */
 151:./tmk_core/protocol/lufa/LUFA-git/LUFA/Drivers/USB/Core/AVR8/../AVR8/Endpoint_AVR8.h **** 				ENDPOINT_READYWAIT_DeviceDisconnected      = 2,	/**< Device was disconnected from the host whil
 152:./tmk_core/protocol/lufa/LUFA-git/LUFA/Drivers/USB/Core/AVR8/../AVR8/Endpoint_AVR8.h **** 				                                                 *   waiting for the endpoint to become ready.
 153:./tmk_core/protocol/lufa/LUFA-git/LUFA/Drivers/USB/Core/AVR8/../AVR8/Endpoint_AVR8.h **** 				                                                 */
 154:./tmk_core/protocol/lufa/LUFA-git/LUFA/Drivers/USB/Core/AVR8/../AVR8/Endpoint_AVR8.h **** 				ENDPOINT_READYWAIT_BusSuspended            = 3, /**< The USB bus has been suspended by the host
 155:./tmk_core/protocol/lufa/LUFA-git/LUFA/Drivers/USB/Core/AVR8/../AVR8/Endpoint_AVR8.h **** 				                                                 *   no USB endpoint traffic can occur until th
 156:./tmk_core/protocol/lufa/LUFA-git/LUFA/Drivers/USB/Core/AVR8/../AVR8/Endpoint_AVR8.h **** 				                                                 *   has resumed.
 157:./tmk_core/protocol/lufa/LUFA-git/LUFA/Drivers/USB/Core/AVR8/../AVR8/Endpoint_AVR8.h **** 				                                                 */
 158:./tmk_core/protocol/lufa/LUFA-git/LUFA/Drivers/USB/Core/AVR8/../AVR8/Endpoint_AVR8.h **** 				ENDPOINT_READYWAIT_Timeout                 = 4, /**< The host failed to accept or send the next
 159:./tmk_core/protocol/lufa/LUFA-git/LUFA/Drivers/USB/Core/AVR8/../AVR8/Endpoint_AVR8.h **** 				                                                 *   within the software timeout period set by 
 160:./tmk_core/protocol/lufa/LUFA-git/LUFA/Drivers/USB/Core/AVR8/../AVR8/Endpoint_AVR8.h **** 				                                                 *   \ref USB_STREAM_TIMEOUT_MS macro.
 161:./tmk_core/protocol/lufa/LUFA-git/LUFA/Drivers/USB/Core/AVR8/../AVR8/Endpoint_AVR8.h **** 				                                                 */
 162:./tmk_core/protocol/lufa/LUFA-git/LUFA/Drivers/USB/Core/AVR8/../AVR8/Endpoint_AVR8.h **** 			};
 163:./tmk_core/protocol/lufa/LUFA-git/LUFA/Drivers/USB/Core/AVR8/../AVR8/Endpoint_AVR8.h **** 
 164:./tmk_core/protocol/lufa/LUFA-git/LUFA/Drivers/USB/Core/AVR8/../AVR8/Endpoint_AVR8.h **** 		/* Inline Functions: */
 165:./tmk_core/protocol/lufa/LUFA-git/LUFA/Drivers/USB/Core/AVR8/../AVR8/Endpoint_AVR8.h **** 			/** Configures the specified endpoint address with the given endpoint type, bank size and number
 166:./tmk_core/protocol/lufa/LUFA-git/LUFA/Drivers/USB/Core/AVR8/../AVR8/Endpoint_AVR8.h **** 			 *  banks. Once configured, the endpoint may be read from or written to, depending on its direct
 167:./tmk_core/protocol/lufa/LUFA-git/LUFA/Drivers/USB/Core/AVR8/../AVR8/Endpoint_AVR8.h **** 			 *
 168:./tmk_core/protocol/lufa/LUFA-git/LUFA/Drivers/USB/Core/AVR8/../AVR8/Endpoint_AVR8.h **** 			 *  \param[in] Address    Endpoint address to configure.
 169:./tmk_core/protocol/lufa/LUFA-git/LUFA/Drivers/USB/Core/AVR8/../AVR8/Endpoint_AVR8.h **** 			 *
 170:./tmk_core/protocol/lufa/LUFA-git/LUFA/Drivers/USB/Core/AVR8/../AVR8/Endpoint_AVR8.h **** 			 *  \param[in] Type       Type of endpoint to configure, a \c EP_TYPE_* mask. Not all endpoint t
 171:./tmk_core/protocol/lufa/LUFA-git/LUFA/Drivers/USB/Core/AVR8/../AVR8/Endpoint_AVR8.h **** 			 *                        are available on Low Speed USB devices - refer to the USB 2.0 specific
 172:./tmk_core/protocol/lufa/LUFA-git/LUFA/Drivers/USB/Core/AVR8/../AVR8/Endpoint_AVR8.h **** 			 *
 173:./tmk_core/protocol/lufa/LUFA-git/LUFA/Drivers/USB/Core/AVR8/../AVR8/Endpoint_AVR8.h **** 			 *  \param[in] Size       Size of the endpoint's bank, where packets are stored before they are 
 174:./tmk_core/protocol/lufa/LUFA-git/LUFA/Drivers/USB/Core/AVR8/../AVR8/Endpoint_AVR8.h **** 			 *                        to the USB host, or after they have been received from the USB host (d
 175:./tmk_core/protocol/lufa/LUFA-git/LUFA/Drivers/USB/Core/AVR8/../AVR8/Endpoint_AVR8.h **** 			 *                        the endpoint's data direction). The bank size must indicate the maximu
 176:./tmk_core/protocol/lufa/LUFA-git/LUFA/Drivers/USB/Core/AVR8/../AVR8/Endpoint_AVR8.h **** 			 *                        that the endpoint can handle.
 177:./tmk_core/protocol/lufa/LUFA-git/LUFA/Drivers/USB/Core/AVR8/../AVR8/Endpoint_AVR8.h **** 			 *
 178:./tmk_core/protocol/lufa/LUFA-git/LUFA/Drivers/USB/Core/AVR8/../AVR8/Endpoint_AVR8.h **** 			 *  \param[in] Banks      Number of banks to use for the endpoint being configured.
 179:./tmk_core/protocol/lufa/LUFA-git/LUFA/Drivers/USB/Core/AVR8/../AVR8/Endpoint_AVR8.h **** 			 *
 180:./tmk_core/protocol/lufa/LUFA-git/LUFA/Drivers/USB/Core/AVR8/../AVR8/Endpoint_AVR8.h **** 			 *  \attention When the \c ORDERED_EP_CONFIG compile time option is used, Endpoints <b>must</b> 
 181:./tmk_core/protocol/lufa/LUFA-git/LUFA/Drivers/USB/Core/AVR8/../AVR8/Endpoint_AVR8.h **** 			 *             ascending order, or bank corruption will occur.
 182:./tmk_core/protocol/lufa/LUFA-git/LUFA/Drivers/USB/Core/AVR8/../AVR8/Endpoint_AVR8.h **** 			 *
 183:./tmk_core/protocol/lufa/LUFA-git/LUFA/Drivers/USB/Core/AVR8/../AVR8/Endpoint_AVR8.h **** 			 *  \note Different endpoints may have different maximum packet sizes based on the endpoint's in
 184:./tmk_core/protocol/lufa/LUFA-git/LUFA/Drivers/USB/Core/AVR8/../AVR8/Endpoint_AVR8.h **** 			 *        refer to the chosen microcontroller model's datasheet to determine the maximum bank si
 185:./tmk_core/protocol/lufa/LUFA-git/LUFA/Drivers/USB/Core/AVR8/../AVR8/Endpoint_AVR8.h **** 			 *        \n\n
 186:./tmk_core/protocol/lufa/LUFA-git/LUFA/Drivers/USB/Core/AVR8/../AVR8/Endpoint_AVR8.h **** 			 *
 187:./tmk_core/protocol/lufa/LUFA-git/LUFA/Drivers/USB/Core/AVR8/../AVR8/Endpoint_AVR8.h **** 			 *  \note The default control endpoint should not be manually configured by the user application
 188:./tmk_core/protocol/lufa/LUFA-git/LUFA/Drivers/USB/Core/AVR8/../AVR8/Endpoint_AVR8.h **** 			 *        it is automatically configured by the library internally.
 189:./tmk_core/protocol/lufa/LUFA-git/LUFA/Drivers/USB/Core/AVR8/../AVR8/Endpoint_AVR8.h **** 			 *        \n\n
 190:./tmk_core/protocol/lufa/LUFA-git/LUFA/Drivers/USB/Core/AVR8/../AVR8/Endpoint_AVR8.h **** 			 *
 191:./tmk_core/protocol/lufa/LUFA-git/LUFA/Drivers/USB/Core/AVR8/../AVR8/Endpoint_AVR8.h **** 			 *  \note This routine will automatically select the specified endpoint upon success. Upon failu
 192:./tmk_core/protocol/lufa/LUFA-git/LUFA/Drivers/USB/Core/AVR8/../AVR8/Endpoint_AVR8.h **** 			 *        which failed to reconfigure correctly will be selected.
 193:./tmk_core/protocol/lufa/LUFA-git/LUFA/Drivers/USB/Core/AVR8/../AVR8/Endpoint_AVR8.h **** 			 *
 194:./tmk_core/protocol/lufa/LUFA-git/LUFA/Drivers/USB/Core/AVR8/../AVR8/Endpoint_AVR8.h **** 			 *  \return Boolean \c true if the configuration succeeded, \c false otherwise.
 195:./tmk_core/protocol/lufa/LUFA-git/LUFA/Drivers/USB/Core/AVR8/../AVR8/Endpoint_AVR8.h **** 			 */
 196:./tmk_core/protocol/lufa/LUFA-git/LUFA/Drivers/USB/Core/AVR8/../AVR8/Endpoint_AVR8.h **** 			static inline bool Endpoint_ConfigureEndpoint(const uint8_t Address,
 197:./tmk_core/protocol/lufa/LUFA-git/LUFA/Drivers/USB/Core/AVR8/../AVR8/Endpoint_AVR8.h **** 			                                              const uint8_t Type,
 198:./tmk_core/protocol/lufa/LUFA-git/LUFA/Drivers/USB/Core/AVR8/../AVR8/Endpoint_AVR8.h **** 			                                              const uint16_t Size,
 199:./tmk_core/protocol/lufa/LUFA-git/LUFA/Drivers/USB/Core/AVR8/../AVR8/Endpoint_AVR8.h **** 			                                              const uint8_t Banks) ATTR_ALWAYS_INLINE;
 200:./tmk_core/protocol/lufa/LUFA-git/LUFA/Drivers/USB/Core/AVR8/../AVR8/Endpoint_AVR8.h **** 			static inline bool Endpoint_ConfigureEndpoint(const uint8_t Address,
 201:./tmk_core/protocol/lufa/LUFA-git/LUFA/Drivers/USB/Core/AVR8/../AVR8/Endpoint_AVR8.h **** 			                                              const uint8_t Type,
 202:./tmk_core/protocol/lufa/LUFA-git/LUFA/Drivers/USB/Core/AVR8/../AVR8/Endpoint_AVR8.h **** 			                                              const uint16_t Size,
 203:./tmk_core/protocol/lufa/LUFA-git/LUFA/Drivers/USB/Core/AVR8/../AVR8/Endpoint_AVR8.h **** 			                                              const uint8_t Banks)
 204:./tmk_core/protocol/lufa/LUFA-git/LUFA/Drivers/USB/Core/AVR8/../AVR8/Endpoint_AVR8.h **** 			{
 205:./tmk_core/protocol/lufa/LUFA-git/LUFA/Drivers/USB/Core/AVR8/../AVR8/Endpoint_AVR8.h **** 				uint8_t Number = (Address & ENDPOINT_EPNUM_MASK);
 206:./tmk_core/protocol/lufa/LUFA-git/LUFA/Drivers/USB/Core/AVR8/../AVR8/Endpoint_AVR8.h **** 
 207:./tmk_core/protocol/lufa/LUFA-git/LUFA/Drivers/USB/Core/AVR8/../AVR8/Endpoint_AVR8.h **** 				if (Number >= ENDPOINT_TOTAL_ENDPOINTS)
 208:./tmk_core/protocol/lufa/LUFA-git/LUFA/Drivers/USB/Core/AVR8/../AVR8/Endpoint_AVR8.h **** 				  return false;
 209:./tmk_core/protocol/lufa/LUFA-git/LUFA/Drivers/USB/Core/AVR8/../AVR8/Endpoint_AVR8.h **** 
 210:./tmk_core/protocol/lufa/LUFA-git/LUFA/Drivers/USB/Core/AVR8/../AVR8/Endpoint_AVR8.h **** 				return Endpoint_ConfigureEndpoint_Prv(Number,
 211:./tmk_core/protocol/lufa/LUFA-git/LUFA/Drivers/USB/Core/AVR8/../AVR8/Endpoint_AVR8.h **** 				                                      ((Type << EPTYPE0) | ((Address & ENDPOINT_DIR_IN) ? (1 <<
 212:./tmk_core/protocol/lufa/LUFA-git/LUFA/Drivers/USB/Core/AVR8/../AVR8/Endpoint_AVR8.h **** 				                                      ((1 << ALLOC) | ((Banks > 1) ? (1 << EPBK0) : 0) | Endpoi
 213:./tmk_core/protocol/lufa/LUFA-git/LUFA/Drivers/USB/Core/AVR8/../AVR8/Endpoint_AVR8.h **** 			}
 214:./tmk_core/protocol/lufa/LUFA-git/LUFA/Drivers/USB/Core/AVR8/../AVR8/Endpoint_AVR8.h **** 
 215:./tmk_core/protocol/lufa/LUFA-git/LUFA/Drivers/USB/Core/AVR8/../AVR8/Endpoint_AVR8.h **** 			/** Indicates the number of bytes currently stored in the current endpoint's selected bank.
 216:./tmk_core/protocol/lufa/LUFA-git/LUFA/Drivers/USB/Core/AVR8/../AVR8/Endpoint_AVR8.h **** 			 *
 217:./tmk_core/protocol/lufa/LUFA-git/LUFA/Drivers/USB/Core/AVR8/../AVR8/Endpoint_AVR8.h **** 			 *  \ingroup Group_EndpointRW_AVR8
 218:./tmk_core/protocol/lufa/LUFA-git/LUFA/Drivers/USB/Core/AVR8/../AVR8/Endpoint_AVR8.h **** 			 *
 219:./tmk_core/protocol/lufa/LUFA-git/LUFA/Drivers/USB/Core/AVR8/../AVR8/Endpoint_AVR8.h **** 			 *  \return Total number of bytes in the currently selected Endpoint's FIFO buffer.
 220:./tmk_core/protocol/lufa/LUFA-git/LUFA/Drivers/USB/Core/AVR8/../AVR8/Endpoint_AVR8.h **** 			 */
 221:./tmk_core/protocol/lufa/LUFA-git/LUFA/Drivers/USB/Core/AVR8/../AVR8/Endpoint_AVR8.h **** 			static inline uint16_t Endpoint_BytesInEndpoint(void) ATTR_WARN_UNUSED_RESULT ATTR_ALWAYS_INLINE
 222:./tmk_core/protocol/lufa/LUFA-git/LUFA/Drivers/USB/Core/AVR8/../AVR8/Endpoint_AVR8.h **** 			static inline uint16_t Endpoint_BytesInEndpoint(void)
 223:./tmk_core/protocol/lufa/LUFA-git/LUFA/Drivers/USB/Core/AVR8/../AVR8/Endpoint_AVR8.h **** 			{
 224:./tmk_core/protocol/lufa/LUFA-git/LUFA/Drivers/USB/Core/AVR8/../AVR8/Endpoint_AVR8.h **** 				#if (defined(USB_SERIES_6_AVR) || defined(USB_SERIES_7_AVR))
 225:./tmk_core/protocol/lufa/LUFA-git/LUFA/Drivers/USB/Core/AVR8/../AVR8/Endpoint_AVR8.h **** 					return UEBCX;
 226:./tmk_core/protocol/lufa/LUFA-git/LUFA/Drivers/USB/Core/AVR8/../AVR8/Endpoint_AVR8.h **** 				#elif defined(USB_SERIES_4_AVR)
 227:./tmk_core/protocol/lufa/LUFA-git/LUFA/Drivers/USB/Core/AVR8/../AVR8/Endpoint_AVR8.h **** 					return (((uint16_t)UEBCHX << 8) | UEBCLX);
 228:./tmk_core/protocol/lufa/LUFA-git/LUFA/Drivers/USB/Core/AVR8/../AVR8/Endpoint_AVR8.h **** 				#elif defined(USB_SERIES_2_AVR)
 229:./tmk_core/protocol/lufa/LUFA-git/LUFA/Drivers/USB/Core/AVR8/../AVR8/Endpoint_AVR8.h **** 					return UEBCLX;
 230:./tmk_core/protocol/lufa/LUFA-git/LUFA/Drivers/USB/Core/AVR8/../AVR8/Endpoint_AVR8.h **** 				#endif
 231:./tmk_core/protocol/lufa/LUFA-git/LUFA/Drivers/USB/Core/AVR8/../AVR8/Endpoint_AVR8.h **** 			}
 232:./tmk_core/protocol/lufa/LUFA-git/LUFA/Drivers/USB/Core/AVR8/../AVR8/Endpoint_AVR8.h **** 
 233:./tmk_core/protocol/lufa/LUFA-git/LUFA/Drivers/USB/Core/AVR8/../AVR8/Endpoint_AVR8.h **** 			/** Determines the currently selected endpoint's direction.
 234:./tmk_core/protocol/lufa/LUFA-git/LUFA/Drivers/USB/Core/AVR8/../AVR8/Endpoint_AVR8.h **** 			 *
 235:./tmk_core/protocol/lufa/LUFA-git/LUFA/Drivers/USB/Core/AVR8/../AVR8/Endpoint_AVR8.h **** 			 *  \return The currently selected endpoint's direction, as a \c ENDPOINT_DIR_* mask.
 236:./tmk_core/protocol/lufa/LUFA-git/LUFA/Drivers/USB/Core/AVR8/../AVR8/Endpoint_AVR8.h **** 			 */
 237:./tmk_core/protocol/lufa/LUFA-git/LUFA/Drivers/USB/Core/AVR8/../AVR8/Endpoint_AVR8.h **** 			static inline uint8_t Endpoint_GetEndpointDirection(void) ATTR_WARN_UNUSED_RESULT ATTR_ALWAYS_IN
 238:./tmk_core/protocol/lufa/LUFA-git/LUFA/Drivers/USB/Core/AVR8/../AVR8/Endpoint_AVR8.h **** 			static inline uint8_t Endpoint_GetEndpointDirection(void)
 239:./tmk_core/protocol/lufa/LUFA-git/LUFA/Drivers/USB/Core/AVR8/../AVR8/Endpoint_AVR8.h **** 			{
 240:./tmk_core/protocol/lufa/LUFA-git/LUFA/Drivers/USB/Core/AVR8/../AVR8/Endpoint_AVR8.h **** 				return (UECFG0X & (1 << EPDIR)) ? ENDPOINT_DIR_IN : ENDPOINT_DIR_OUT;
 241:./tmk_core/protocol/lufa/LUFA-git/LUFA/Drivers/USB/Core/AVR8/../AVR8/Endpoint_AVR8.h **** 			}
 242:./tmk_core/protocol/lufa/LUFA-git/LUFA/Drivers/USB/Core/AVR8/../AVR8/Endpoint_AVR8.h **** 
 243:./tmk_core/protocol/lufa/LUFA-git/LUFA/Drivers/USB/Core/AVR8/../AVR8/Endpoint_AVR8.h **** 			/** Get the endpoint address of the currently selected endpoint. This is typically used to save
 244:./tmk_core/protocol/lufa/LUFA-git/LUFA/Drivers/USB/Core/AVR8/../AVR8/Endpoint_AVR8.h **** 			 *  the currently selected endpoint so that it can be restored after another endpoint has been
 245:./tmk_core/protocol/lufa/LUFA-git/LUFA/Drivers/USB/Core/AVR8/../AVR8/Endpoint_AVR8.h **** 			 *  manipulated.
 246:./tmk_core/protocol/lufa/LUFA-git/LUFA/Drivers/USB/Core/AVR8/../AVR8/Endpoint_AVR8.h **** 			 *
 247:./tmk_core/protocol/lufa/LUFA-git/LUFA/Drivers/USB/Core/AVR8/../AVR8/Endpoint_AVR8.h **** 			 *  \return Index of the currently selected endpoint.
 248:./tmk_core/protocol/lufa/LUFA-git/LUFA/Drivers/USB/Core/AVR8/../AVR8/Endpoint_AVR8.h **** 			 */
 249:./tmk_core/protocol/lufa/LUFA-git/LUFA/Drivers/USB/Core/AVR8/../AVR8/Endpoint_AVR8.h **** 			static inline uint8_t Endpoint_GetCurrentEndpoint(void) ATTR_WARN_UNUSED_RESULT ATTR_ALWAYS_INLI
 250:./tmk_core/protocol/lufa/LUFA-git/LUFA/Drivers/USB/Core/AVR8/../AVR8/Endpoint_AVR8.h **** 			static inline uint8_t Endpoint_GetCurrentEndpoint(void)
 251:./tmk_core/protocol/lufa/LUFA-git/LUFA/Drivers/USB/Core/AVR8/../AVR8/Endpoint_AVR8.h **** 			{
 252:./tmk_core/protocol/lufa/LUFA-git/LUFA/Drivers/USB/Core/AVR8/../AVR8/Endpoint_AVR8.h **** 				#if !defined(CONTROL_ONLY_DEVICE)
 253:./tmk_core/protocol/lufa/LUFA-git/LUFA/Drivers/USB/Core/AVR8/../AVR8/Endpoint_AVR8.h **** 					return ((UENUM & ENDPOINT_EPNUM_MASK) | Endpoint_GetEndpointDirection());
 254:./tmk_core/protocol/lufa/LUFA-git/LUFA/Drivers/USB/Core/AVR8/../AVR8/Endpoint_AVR8.h **** 				#else
 255:./tmk_core/protocol/lufa/LUFA-git/LUFA/Drivers/USB/Core/AVR8/../AVR8/Endpoint_AVR8.h **** 					return ENDPOINT_CONTROLEP;
 256:./tmk_core/protocol/lufa/LUFA-git/LUFA/Drivers/USB/Core/AVR8/../AVR8/Endpoint_AVR8.h **** 				#endif
 257:./tmk_core/protocol/lufa/LUFA-git/LUFA/Drivers/USB/Core/AVR8/../AVR8/Endpoint_AVR8.h **** 			}
 258:./tmk_core/protocol/lufa/LUFA-git/LUFA/Drivers/USB/Core/AVR8/../AVR8/Endpoint_AVR8.h **** 
 259:./tmk_core/protocol/lufa/LUFA-git/LUFA/Drivers/USB/Core/AVR8/../AVR8/Endpoint_AVR8.h **** 			/** Selects the given endpoint address.
 260:./tmk_core/protocol/lufa/LUFA-git/LUFA/Drivers/USB/Core/AVR8/../AVR8/Endpoint_AVR8.h **** 			 *
 261:./tmk_core/protocol/lufa/LUFA-git/LUFA/Drivers/USB/Core/AVR8/../AVR8/Endpoint_AVR8.h **** 			 *  Any endpoint operations which do not require the endpoint address to be indicated will opera
 262:./tmk_core/protocol/lufa/LUFA-git/LUFA/Drivers/USB/Core/AVR8/../AVR8/Endpoint_AVR8.h **** 			 *  the currently selected endpoint.
 263:./tmk_core/protocol/lufa/LUFA-git/LUFA/Drivers/USB/Core/AVR8/../AVR8/Endpoint_AVR8.h **** 			 *
 264:./tmk_core/protocol/lufa/LUFA-git/LUFA/Drivers/USB/Core/AVR8/../AVR8/Endpoint_AVR8.h **** 			 *  \param[in] Address Endpoint address to select.
 265:./tmk_core/protocol/lufa/LUFA-git/LUFA/Drivers/USB/Core/AVR8/../AVR8/Endpoint_AVR8.h **** 			 */
 266:./tmk_core/protocol/lufa/LUFA-git/LUFA/Drivers/USB/Core/AVR8/../AVR8/Endpoint_AVR8.h **** 			static inline void Endpoint_SelectEndpoint(const uint8_t Address) ATTR_ALWAYS_INLINE;
 267:./tmk_core/protocol/lufa/LUFA-git/LUFA/Drivers/USB/Core/AVR8/../AVR8/Endpoint_AVR8.h **** 			static inline void Endpoint_SelectEndpoint(const uint8_t Address)
 268:./tmk_core/protocol/lufa/LUFA-git/LUFA/Drivers/USB/Core/AVR8/../AVR8/Endpoint_AVR8.h **** 			{
 269:./tmk_core/protocol/lufa/LUFA-git/LUFA/Drivers/USB/Core/AVR8/../AVR8/Endpoint_AVR8.h **** 				#if !defined(CONTROL_ONLY_DEVICE)
 270:./tmk_core/protocol/lufa/LUFA-git/LUFA/Drivers/USB/Core/AVR8/../AVR8/Endpoint_AVR8.h **** 					UENUM = (Address & ENDPOINT_EPNUM_MASK);
 271:./tmk_core/protocol/lufa/LUFA-git/LUFA/Drivers/USB/Core/AVR8/../AVR8/Endpoint_AVR8.h **** 				#endif
 272:./tmk_core/protocol/lufa/LUFA-git/LUFA/Drivers/USB/Core/AVR8/../AVR8/Endpoint_AVR8.h **** 			}
 273:./tmk_core/protocol/lufa/LUFA-git/LUFA/Drivers/USB/Core/AVR8/../AVR8/Endpoint_AVR8.h **** 
 274:./tmk_core/protocol/lufa/LUFA-git/LUFA/Drivers/USB/Core/AVR8/../AVR8/Endpoint_AVR8.h **** 			/** Resets the endpoint bank FIFO. This clears all the endpoint banks and resets the USB control
 275:./tmk_core/protocol/lufa/LUFA-git/LUFA/Drivers/USB/Core/AVR8/../AVR8/Endpoint_AVR8.h **** 			 *  data In and Out pointers to the bank's contents.
 276:./tmk_core/protocol/lufa/LUFA-git/LUFA/Drivers/USB/Core/AVR8/../AVR8/Endpoint_AVR8.h **** 			 *
 277:./tmk_core/protocol/lufa/LUFA-git/LUFA/Drivers/USB/Core/AVR8/../AVR8/Endpoint_AVR8.h **** 			 *  \param[in] Address  Endpoint address whose FIFO buffers are to be reset.
 278:./tmk_core/protocol/lufa/LUFA-git/LUFA/Drivers/USB/Core/AVR8/../AVR8/Endpoint_AVR8.h **** 			 */
 279:./tmk_core/protocol/lufa/LUFA-git/LUFA/Drivers/USB/Core/AVR8/../AVR8/Endpoint_AVR8.h **** 			static inline void Endpoint_ResetEndpoint(const uint8_t Address) ATTR_ALWAYS_INLINE;
 280:./tmk_core/protocol/lufa/LUFA-git/LUFA/Drivers/USB/Core/AVR8/../AVR8/Endpoint_AVR8.h **** 			static inline void Endpoint_ResetEndpoint(const uint8_t Address)
 281:./tmk_core/protocol/lufa/LUFA-git/LUFA/Drivers/USB/Core/AVR8/../AVR8/Endpoint_AVR8.h **** 			{
 282:./tmk_core/protocol/lufa/LUFA-git/LUFA/Drivers/USB/Core/AVR8/../AVR8/Endpoint_AVR8.h **** 				UERST = (1 << (Address & ENDPOINT_EPNUM_MASK));
 283:./tmk_core/protocol/lufa/LUFA-git/LUFA/Drivers/USB/Core/AVR8/../AVR8/Endpoint_AVR8.h **** 				UERST = 0;
 284:./tmk_core/protocol/lufa/LUFA-git/LUFA/Drivers/USB/Core/AVR8/../AVR8/Endpoint_AVR8.h **** 			}
 285:./tmk_core/protocol/lufa/LUFA-git/LUFA/Drivers/USB/Core/AVR8/../AVR8/Endpoint_AVR8.h **** 
 286:./tmk_core/protocol/lufa/LUFA-git/LUFA/Drivers/USB/Core/AVR8/../AVR8/Endpoint_AVR8.h **** 			/** Enables the currently selected endpoint so that data can be sent and received through it to
 287:./tmk_core/protocol/lufa/LUFA-git/LUFA/Drivers/USB/Core/AVR8/../AVR8/Endpoint_AVR8.h **** 			 *  and from a host.
 288:./tmk_core/protocol/lufa/LUFA-git/LUFA/Drivers/USB/Core/AVR8/../AVR8/Endpoint_AVR8.h **** 			 *
 289:./tmk_core/protocol/lufa/LUFA-git/LUFA/Drivers/USB/Core/AVR8/../AVR8/Endpoint_AVR8.h **** 			 *  \note Endpoints must first be configured properly via \ref Endpoint_ConfigureEndpoint().
 290:./tmk_core/protocol/lufa/LUFA-git/LUFA/Drivers/USB/Core/AVR8/../AVR8/Endpoint_AVR8.h **** 			 */
 291:./tmk_core/protocol/lufa/LUFA-git/LUFA/Drivers/USB/Core/AVR8/../AVR8/Endpoint_AVR8.h **** 			static inline void Endpoint_EnableEndpoint(void) ATTR_ALWAYS_INLINE;
 292:./tmk_core/protocol/lufa/LUFA-git/LUFA/Drivers/USB/Core/AVR8/../AVR8/Endpoint_AVR8.h **** 			static inline void Endpoint_EnableEndpoint(void)
 293:./tmk_core/protocol/lufa/LUFA-git/LUFA/Drivers/USB/Core/AVR8/../AVR8/Endpoint_AVR8.h **** 			{
 294:./tmk_core/protocol/lufa/LUFA-git/LUFA/Drivers/USB/Core/AVR8/../AVR8/Endpoint_AVR8.h **** 				UECONX |= (1 << EPEN);
 295:./tmk_core/protocol/lufa/LUFA-git/LUFA/Drivers/USB/Core/AVR8/../AVR8/Endpoint_AVR8.h **** 			}
 296:./tmk_core/protocol/lufa/LUFA-git/LUFA/Drivers/USB/Core/AVR8/../AVR8/Endpoint_AVR8.h **** 
 297:./tmk_core/protocol/lufa/LUFA-git/LUFA/Drivers/USB/Core/AVR8/../AVR8/Endpoint_AVR8.h **** 			/** Disables the currently selected endpoint so that data cannot be sent and received through it
 298:./tmk_core/protocol/lufa/LUFA-git/LUFA/Drivers/USB/Core/AVR8/../AVR8/Endpoint_AVR8.h **** 			 *  to and from a host.
 299:./tmk_core/protocol/lufa/LUFA-git/LUFA/Drivers/USB/Core/AVR8/../AVR8/Endpoint_AVR8.h **** 			 */
 300:./tmk_core/protocol/lufa/LUFA-git/LUFA/Drivers/USB/Core/AVR8/../AVR8/Endpoint_AVR8.h **** 			static inline void Endpoint_DisableEndpoint(void) ATTR_ALWAYS_INLINE;
 301:./tmk_core/protocol/lufa/LUFA-git/LUFA/Drivers/USB/Core/AVR8/../AVR8/Endpoint_AVR8.h **** 			static inline void Endpoint_DisableEndpoint(void)
 302:./tmk_core/protocol/lufa/LUFA-git/LUFA/Drivers/USB/Core/AVR8/../AVR8/Endpoint_AVR8.h **** 			{
 303:./tmk_core/protocol/lufa/LUFA-git/LUFA/Drivers/USB/Core/AVR8/../AVR8/Endpoint_AVR8.h **** 				UECONX &= ~(1 << EPEN);
 304:./tmk_core/protocol/lufa/LUFA-git/LUFA/Drivers/USB/Core/AVR8/../AVR8/Endpoint_AVR8.h **** 			}
 305:./tmk_core/protocol/lufa/LUFA-git/LUFA/Drivers/USB/Core/AVR8/../AVR8/Endpoint_AVR8.h **** 
 306:./tmk_core/protocol/lufa/LUFA-git/LUFA/Drivers/USB/Core/AVR8/../AVR8/Endpoint_AVR8.h **** 			/** Determines if the currently selected endpoint is enabled, but not necessarily configured.
 307:./tmk_core/protocol/lufa/LUFA-git/LUFA/Drivers/USB/Core/AVR8/../AVR8/Endpoint_AVR8.h **** 			 *
 308:./tmk_core/protocol/lufa/LUFA-git/LUFA/Drivers/USB/Core/AVR8/../AVR8/Endpoint_AVR8.h **** 			 * \return Boolean \c true if the currently selected endpoint is enabled, \c false otherwise.
 309:./tmk_core/protocol/lufa/LUFA-git/LUFA/Drivers/USB/Core/AVR8/../AVR8/Endpoint_AVR8.h **** 			 */
 310:./tmk_core/protocol/lufa/LUFA-git/LUFA/Drivers/USB/Core/AVR8/../AVR8/Endpoint_AVR8.h **** 			static inline bool Endpoint_IsEnabled(void) ATTR_WARN_UNUSED_RESULT ATTR_ALWAYS_INLINE;
 311:./tmk_core/protocol/lufa/LUFA-git/LUFA/Drivers/USB/Core/AVR8/../AVR8/Endpoint_AVR8.h **** 			static inline bool Endpoint_IsEnabled(void)
 312:./tmk_core/protocol/lufa/LUFA-git/LUFA/Drivers/USB/Core/AVR8/../AVR8/Endpoint_AVR8.h **** 			{
 313:./tmk_core/protocol/lufa/LUFA-git/LUFA/Drivers/USB/Core/AVR8/../AVR8/Endpoint_AVR8.h **** 				return ((UECONX & (1 << EPEN)) ? true : false);
 314:./tmk_core/protocol/lufa/LUFA-git/LUFA/Drivers/USB/Core/AVR8/../AVR8/Endpoint_AVR8.h **** 			}
 315:./tmk_core/protocol/lufa/LUFA-git/LUFA/Drivers/USB/Core/AVR8/../AVR8/Endpoint_AVR8.h **** 
 316:./tmk_core/protocol/lufa/LUFA-git/LUFA/Drivers/USB/Core/AVR8/../AVR8/Endpoint_AVR8.h **** 			/** Retrieves the number of busy banks in the currently selected endpoint, which have been queue
 317:./tmk_core/protocol/lufa/LUFA-git/LUFA/Drivers/USB/Core/AVR8/../AVR8/Endpoint_AVR8.h **** 			 *  transmission via the \ref Endpoint_ClearIN() command, or are awaiting acknowledgment via the
 318:./tmk_core/protocol/lufa/LUFA-git/LUFA/Drivers/USB/Core/AVR8/../AVR8/Endpoint_AVR8.h **** 			 *  \ref Endpoint_ClearOUT() command.
 319:./tmk_core/protocol/lufa/LUFA-git/LUFA/Drivers/USB/Core/AVR8/../AVR8/Endpoint_AVR8.h **** 			 *
 320:./tmk_core/protocol/lufa/LUFA-git/LUFA/Drivers/USB/Core/AVR8/../AVR8/Endpoint_AVR8.h **** 			 *  \ingroup Group_EndpointPacketManagement_AVR8
 321:./tmk_core/protocol/lufa/LUFA-git/LUFA/Drivers/USB/Core/AVR8/../AVR8/Endpoint_AVR8.h **** 			 *
 322:./tmk_core/protocol/lufa/LUFA-git/LUFA/Drivers/USB/Core/AVR8/../AVR8/Endpoint_AVR8.h **** 			 *  \return Total number of busy banks in the selected endpoint.
 323:./tmk_core/protocol/lufa/LUFA-git/LUFA/Drivers/USB/Core/AVR8/../AVR8/Endpoint_AVR8.h **** 			 */
 324:./tmk_core/protocol/lufa/LUFA-git/LUFA/Drivers/USB/Core/AVR8/../AVR8/Endpoint_AVR8.h **** 			static inline uint8_t Endpoint_GetBusyBanks(void) ATTR_ALWAYS_INLINE ATTR_WARN_UNUSED_RESULT;
 325:./tmk_core/protocol/lufa/LUFA-git/LUFA/Drivers/USB/Core/AVR8/../AVR8/Endpoint_AVR8.h **** 			static inline uint8_t Endpoint_GetBusyBanks(void)
 326:./tmk_core/protocol/lufa/LUFA-git/LUFA/Drivers/USB/Core/AVR8/../AVR8/Endpoint_AVR8.h **** 			{
 327:./tmk_core/protocol/lufa/LUFA-git/LUFA/Drivers/USB/Core/AVR8/../AVR8/Endpoint_AVR8.h **** 				return (UESTA0X & (0x03 << NBUSYBK0));
 328:./tmk_core/protocol/lufa/LUFA-git/LUFA/Drivers/USB/Core/AVR8/../AVR8/Endpoint_AVR8.h **** 			}
 329:./tmk_core/protocol/lufa/LUFA-git/LUFA/Drivers/USB/Core/AVR8/../AVR8/Endpoint_AVR8.h **** 
 330:./tmk_core/protocol/lufa/LUFA-git/LUFA/Drivers/USB/Core/AVR8/../AVR8/Endpoint_AVR8.h **** 			/** Aborts all pending IN transactions on the currently selected endpoint, once the bank
 331:./tmk_core/protocol/lufa/LUFA-git/LUFA/Drivers/USB/Core/AVR8/../AVR8/Endpoint_AVR8.h **** 			 *  has been queued for transmission to the host via \ref Endpoint_ClearIN(). This function
 332:./tmk_core/protocol/lufa/LUFA-git/LUFA/Drivers/USB/Core/AVR8/../AVR8/Endpoint_AVR8.h **** 			 *  will terminate all queued transactions, resetting the endpoint banks ready for a new
 333:./tmk_core/protocol/lufa/LUFA-git/LUFA/Drivers/USB/Core/AVR8/../AVR8/Endpoint_AVR8.h **** 			 *  packet.
 334:./tmk_core/protocol/lufa/LUFA-git/LUFA/Drivers/USB/Core/AVR8/../AVR8/Endpoint_AVR8.h **** 			 *
 335:./tmk_core/protocol/lufa/LUFA-git/LUFA/Drivers/USB/Core/AVR8/../AVR8/Endpoint_AVR8.h **** 			 *  \ingroup Group_EndpointPacketManagement_AVR8
 336:./tmk_core/protocol/lufa/LUFA-git/LUFA/Drivers/USB/Core/AVR8/../AVR8/Endpoint_AVR8.h **** 			 */
 337:./tmk_core/protocol/lufa/LUFA-git/LUFA/Drivers/USB/Core/AVR8/../AVR8/Endpoint_AVR8.h **** 			static inline void Endpoint_AbortPendingIN(void)
 338:./tmk_core/protocol/lufa/LUFA-git/LUFA/Drivers/USB/Core/AVR8/../AVR8/Endpoint_AVR8.h **** 			{
 339:./tmk_core/protocol/lufa/LUFA-git/LUFA/Drivers/USB/Core/AVR8/../AVR8/Endpoint_AVR8.h **** 				while (Endpoint_GetBusyBanks() != 0)
 340:./tmk_core/protocol/lufa/LUFA-git/LUFA/Drivers/USB/Core/AVR8/../AVR8/Endpoint_AVR8.h **** 				{
 341:./tmk_core/protocol/lufa/LUFA-git/LUFA/Drivers/USB/Core/AVR8/../AVR8/Endpoint_AVR8.h **** 					UEINTX |= (1 << RXOUTI);
 342:./tmk_core/protocol/lufa/LUFA-git/LUFA/Drivers/USB/Core/AVR8/../AVR8/Endpoint_AVR8.h **** 					while (UEINTX & (1 << RXOUTI));
 343:./tmk_core/protocol/lufa/LUFA-git/LUFA/Drivers/USB/Core/AVR8/../AVR8/Endpoint_AVR8.h **** 				}
 344:./tmk_core/protocol/lufa/LUFA-git/LUFA/Drivers/USB/Core/AVR8/../AVR8/Endpoint_AVR8.h **** 			}
 345:./tmk_core/protocol/lufa/LUFA-git/LUFA/Drivers/USB/Core/AVR8/../AVR8/Endpoint_AVR8.h **** 
 346:./tmk_core/protocol/lufa/LUFA-git/LUFA/Drivers/USB/Core/AVR8/../AVR8/Endpoint_AVR8.h **** 			/** Determines if the currently selected endpoint may be read from (if data is waiting in the en
 347:./tmk_core/protocol/lufa/LUFA-git/LUFA/Drivers/USB/Core/AVR8/../AVR8/Endpoint_AVR8.h **** 			 *  bank and the endpoint is an OUT direction, or if the bank is not yet full if the endpoint is
 348:./tmk_core/protocol/lufa/LUFA-git/LUFA/Drivers/USB/Core/AVR8/../AVR8/Endpoint_AVR8.h **** 			 *  direction). This function will return false if an error has occurred in the endpoint, if the
 349:./tmk_core/protocol/lufa/LUFA-git/LUFA/Drivers/USB/Core/AVR8/../AVR8/Endpoint_AVR8.h **** 			 *  is an OUT direction and no packet (or an empty packet) has been received, or if the endpoint
 350:./tmk_core/protocol/lufa/LUFA-git/LUFA/Drivers/USB/Core/AVR8/../AVR8/Endpoint_AVR8.h **** 			 *  direction and the endpoint bank is full.
 351:./tmk_core/protocol/lufa/LUFA-git/LUFA/Drivers/USB/Core/AVR8/../AVR8/Endpoint_AVR8.h **** 			 *
 352:./tmk_core/protocol/lufa/LUFA-git/LUFA/Drivers/USB/Core/AVR8/../AVR8/Endpoint_AVR8.h **** 			 *  \ingroup Group_EndpointPacketManagement_AVR8
 353:./tmk_core/protocol/lufa/LUFA-git/LUFA/Drivers/USB/Core/AVR8/../AVR8/Endpoint_AVR8.h **** 			 *
 354:./tmk_core/protocol/lufa/LUFA-git/LUFA/Drivers/USB/Core/AVR8/../AVR8/Endpoint_AVR8.h **** 			 *  \return Boolean \c true if the currently selected endpoint may be read from or written to, d
 355:./tmk_core/protocol/lufa/LUFA-git/LUFA/Drivers/USB/Core/AVR8/../AVR8/Endpoint_AVR8.h **** 			 *          on its direction.
 356:./tmk_core/protocol/lufa/LUFA-git/LUFA/Drivers/USB/Core/AVR8/../AVR8/Endpoint_AVR8.h **** 			 */
 357:./tmk_core/protocol/lufa/LUFA-git/LUFA/Drivers/USB/Core/AVR8/../AVR8/Endpoint_AVR8.h **** 			static inline bool Endpoint_IsReadWriteAllowed(void) ATTR_WARN_UNUSED_RESULT ATTR_ALWAYS_INLINE;
 358:./tmk_core/protocol/lufa/LUFA-git/LUFA/Drivers/USB/Core/AVR8/../AVR8/Endpoint_AVR8.h **** 			static inline bool Endpoint_IsReadWriteAllowed(void)
 359:./tmk_core/protocol/lufa/LUFA-git/LUFA/Drivers/USB/Core/AVR8/../AVR8/Endpoint_AVR8.h **** 			{
 360:./tmk_core/protocol/lufa/LUFA-git/LUFA/Drivers/USB/Core/AVR8/../AVR8/Endpoint_AVR8.h **** 				return ((UEINTX & (1 << RWAL)) ? true : false);
 361:./tmk_core/protocol/lufa/LUFA-git/LUFA/Drivers/USB/Core/AVR8/../AVR8/Endpoint_AVR8.h **** 			}
 362:./tmk_core/protocol/lufa/LUFA-git/LUFA/Drivers/USB/Core/AVR8/../AVR8/Endpoint_AVR8.h **** 
 363:./tmk_core/protocol/lufa/LUFA-git/LUFA/Drivers/USB/Core/AVR8/../AVR8/Endpoint_AVR8.h **** 			/** Determines if the currently selected endpoint is configured.
 364:./tmk_core/protocol/lufa/LUFA-git/LUFA/Drivers/USB/Core/AVR8/../AVR8/Endpoint_AVR8.h **** 			 *
 365:./tmk_core/protocol/lufa/LUFA-git/LUFA/Drivers/USB/Core/AVR8/../AVR8/Endpoint_AVR8.h **** 			 *  \return Boolean \c true if the currently selected endpoint has been configured, \c false oth
 366:./tmk_core/protocol/lufa/LUFA-git/LUFA/Drivers/USB/Core/AVR8/../AVR8/Endpoint_AVR8.h **** 			 */
 367:./tmk_core/protocol/lufa/LUFA-git/LUFA/Drivers/USB/Core/AVR8/../AVR8/Endpoint_AVR8.h **** 			static inline bool Endpoint_IsConfigured(void) ATTR_WARN_UNUSED_RESULT ATTR_ALWAYS_INLINE;
 368:./tmk_core/protocol/lufa/LUFA-git/LUFA/Drivers/USB/Core/AVR8/../AVR8/Endpoint_AVR8.h **** 			static inline bool Endpoint_IsConfigured(void)
 369:./tmk_core/protocol/lufa/LUFA-git/LUFA/Drivers/USB/Core/AVR8/../AVR8/Endpoint_AVR8.h **** 			{
 370:./tmk_core/protocol/lufa/LUFA-git/LUFA/Drivers/USB/Core/AVR8/../AVR8/Endpoint_AVR8.h **** 				return ((UESTA0X & (1 << CFGOK)) ? true : false);
 371:./tmk_core/protocol/lufa/LUFA-git/LUFA/Drivers/USB/Core/AVR8/../AVR8/Endpoint_AVR8.h **** 			}
 372:./tmk_core/protocol/lufa/LUFA-git/LUFA/Drivers/USB/Core/AVR8/../AVR8/Endpoint_AVR8.h **** 
 373:./tmk_core/protocol/lufa/LUFA-git/LUFA/Drivers/USB/Core/AVR8/../AVR8/Endpoint_AVR8.h **** 			/** Returns a mask indicating which INTERRUPT type endpoints have interrupted - i.e. their
 374:./tmk_core/protocol/lufa/LUFA-git/LUFA/Drivers/USB/Core/AVR8/../AVR8/Endpoint_AVR8.h **** 			 *  interrupt duration has elapsed. Which endpoints have interrupted can be determined by
 375:./tmk_core/protocol/lufa/LUFA-git/LUFA/Drivers/USB/Core/AVR8/../AVR8/Endpoint_AVR8.h **** 			 *  masking the return value against <tt>(1 << <i>{Endpoint Number}</i>)</tt>.
 376:./tmk_core/protocol/lufa/LUFA-git/LUFA/Drivers/USB/Core/AVR8/../AVR8/Endpoint_AVR8.h **** 			 *
 377:./tmk_core/protocol/lufa/LUFA-git/LUFA/Drivers/USB/Core/AVR8/../AVR8/Endpoint_AVR8.h **** 			 *  \return Mask whose bits indicate which endpoints have interrupted.
 378:./tmk_core/protocol/lufa/LUFA-git/LUFA/Drivers/USB/Core/AVR8/../AVR8/Endpoint_AVR8.h **** 			 */
 379:./tmk_core/protocol/lufa/LUFA-git/LUFA/Drivers/USB/Core/AVR8/../AVR8/Endpoint_AVR8.h **** 			static inline uint8_t Endpoint_GetEndpointInterrupts(void) ATTR_WARN_UNUSED_RESULT ATTR_ALWAYS_I
 380:./tmk_core/protocol/lufa/LUFA-git/LUFA/Drivers/USB/Core/AVR8/../AVR8/Endpoint_AVR8.h **** 			static inline uint8_t Endpoint_GetEndpointInterrupts(void)
 381:./tmk_core/protocol/lufa/LUFA-git/LUFA/Drivers/USB/Core/AVR8/../AVR8/Endpoint_AVR8.h **** 			{
 382:./tmk_core/protocol/lufa/LUFA-git/LUFA/Drivers/USB/Core/AVR8/../AVR8/Endpoint_AVR8.h **** 				return UEINT;
 383:./tmk_core/protocol/lufa/LUFA-git/LUFA/Drivers/USB/Core/AVR8/../AVR8/Endpoint_AVR8.h **** 			}
 384:./tmk_core/protocol/lufa/LUFA-git/LUFA/Drivers/USB/Core/AVR8/../AVR8/Endpoint_AVR8.h **** 
 385:./tmk_core/protocol/lufa/LUFA-git/LUFA/Drivers/USB/Core/AVR8/../AVR8/Endpoint_AVR8.h **** 			/** Determines if the specified endpoint number has interrupted (valid only for INTERRUPT type
 386:./tmk_core/protocol/lufa/LUFA-git/LUFA/Drivers/USB/Core/AVR8/../AVR8/Endpoint_AVR8.h **** 			 *  endpoints).
 387:./tmk_core/protocol/lufa/LUFA-git/LUFA/Drivers/USB/Core/AVR8/../AVR8/Endpoint_AVR8.h **** 			 *
 388:./tmk_core/protocol/lufa/LUFA-git/LUFA/Drivers/USB/Core/AVR8/../AVR8/Endpoint_AVR8.h **** 			 *  \param[in] Address  Address of the endpoint whose interrupt flag should be tested.
 389:./tmk_core/protocol/lufa/LUFA-git/LUFA/Drivers/USB/Core/AVR8/../AVR8/Endpoint_AVR8.h **** 			 *
 390:./tmk_core/protocol/lufa/LUFA-git/LUFA/Drivers/USB/Core/AVR8/../AVR8/Endpoint_AVR8.h **** 			 *  \return Boolean \c true if the specified endpoint has interrupted, \c false otherwise.
 391:./tmk_core/protocol/lufa/LUFA-git/LUFA/Drivers/USB/Core/AVR8/../AVR8/Endpoint_AVR8.h **** 			 */
 392:./tmk_core/protocol/lufa/LUFA-git/LUFA/Drivers/USB/Core/AVR8/../AVR8/Endpoint_AVR8.h **** 			static inline bool Endpoint_HasEndpointInterrupted(const uint8_t Address) ATTR_WARN_UNUSED_RESUL
 393:./tmk_core/protocol/lufa/LUFA-git/LUFA/Drivers/USB/Core/AVR8/../AVR8/Endpoint_AVR8.h **** 			static inline bool Endpoint_HasEndpointInterrupted(const uint8_t Address)
 394:./tmk_core/protocol/lufa/LUFA-git/LUFA/Drivers/USB/Core/AVR8/../AVR8/Endpoint_AVR8.h **** 			{
 395:./tmk_core/protocol/lufa/LUFA-git/LUFA/Drivers/USB/Core/AVR8/../AVR8/Endpoint_AVR8.h **** 				return ((Endpoint_GetEndpointInterrupts() & (1 << (Address & ENDPOINT_EPNUM_MASK))) ? true : fa
 396:./tmk_core/protocol/lufa/LUFA-git/LUFA/Drivers/USB/Core/AVR8/../AVR8/Endpoint_AVR8.h **** 			}
 397:./tmk_core/protocol/lufa/LUFA-git/LUFA/Drivers/USB/Core/AVR8/../AVR8/Endpoint_AVR8.h **** 
 398:./tmk_core/protocol/lufa/LUFA-git/LUFA/Drivers/USB/Core/AVR8/../AVR8/Endpoint_AVR8.h **** 			/** Determines if the selected IN endpoint is ready for a new packet to be sent to the host.
 399:./tmk_core/protocol/lufa/LUFA-git/LUFA/Drivers/USB/Core/AVR8/../AVR8/Endpoint_AVR8.h **** 			 *
 400:./tmk_core/protocol/lufa/LUFA-git/LUFA/Drivers/USB/Core/AVR8/../AVR8/Endpoint_AVR8.h **** 			 *  \ingroup Group_EndpointPacketManagement_AVR8
 401:./tmk_core/protocol/lufa/LUFA-git/LUFA/Drivers/USB/Core/AVR8/../AVR8/Endpoint_AVR8.h **** 			 *
 402:./tmk_core/protocol/lufa/LUFA-git/LUFA/Drivers/USB/Core/AVR8/../AVR8/Endpoint_AVR8.h **** 			 *  \return Boolean \c true if the current endpoint is ready for an IN packet, \c false otherwis
 403:./tmk_core/protocol/lufa/LUFA-git/LUFA/Drivers/USB/Core/AVR8/../AVR8/Endpoint_AVR8.h **** 			 */
 404:./tmk_core/protocol/lufa/LUFA-git/LUFA/Drivers/USB/Core/AVR8/../AVR8/Endpoint_AVR8.h **** 			static inline bool Endpoint_IsINReady(void) ATTR_WARN_UNUSED_RESULT ATTR_ALWAYS_INLINE;
 405:./tmk_core/protocol/lufa/LUFA-git/LUFA/Drivers/USB/Core/AVR8/../AVR8/Endpoint_AVR8.h **** 			static inline bool Endpoint_IsINReady(void)
 406:./tmk_core/protocol/lufa/LUFA-git/LUFA/Drivers/USB/Core/AVR8/../AVR8/Endpoint_AVR8.h **** 			{
 407:./tmk_core/protocol/lufa/LUFA-git/LUFA/Drivers/USB/Core/AVR8/../AVR8/Endpoint_AVR8.h **** 				return ((UEINTX & (1 << TXINI)) ? true : false);
 408:./tmk_core/protocol/lufa/LUFA-git/LUFA/Drivers/USB/Core/AVR8/../AVR8/Endpoint_AVR8.h **** 			}
 409:./tmk_core/protocol/lufa/LUFA-git/LUFA/Drivers/USB/Core/AVR8/../AVR8/Endpoint_AVR8.h **** 
 410:./tmk_core/protocol/lufa/LUFA-git/LUFA/Drivers/USB/Core/AVR8/../AVR8/Endpoint_AVR8.h **** 			/** Determines if the selected OUT endpoint has received new packet from the host.
 411:./tmk_core/protocol/lufa/LUFA-git/LUFA/Drivers/USB/Core/AVR8/../AVR8/Endpoint_AVR8.h **** 			 *
 412:./tmk_core/protocol/lufa/LUFA-git/LUFA/Drivers/USB/Core/AVR8/../AVR8/Endpoint_AVR8.h **** 			 *  \ingroup Group_EndpointPacketManagement_AVR8
 413:./tmk_core/protocol/lufa/LUFA-git/LUFA/Drivers/USB/Core/AVR8/../AVR8/Endpoint_AVR8.h **** 			 *
 414:./tmk_core/protocol/lufa/LUFA-git/LUFA/Drivers/USB/Core/AVR8/../AVR8/Endpoint_AVR8.h **** 			 *  \return Boolean \c true if current endpoint is has received an OUT packet, \c false otherwis
 415:./tmk_core/protocol/lufa/LUFA-git/LUFA/Drivers/USB/Core/AVR8/../AVR8/Endpoint_AVR8.h **** 			 */
 416:./tmk_core/protocol/lufa/LUFA-git/LUFA/Drivers/USB/Core/AVR8/../AVR8/Endpoint_AVR8.h **** 			static inline bool Endpoint_IsOUTReceived(void) ATTR_WARN_UNUSED_RESULT ATTR_ALWAYS_INLINE;
 417:./tmk_core/protocol/lufa/LUFA-git/LUFA/Drivers/USB/Core/AVR8/../AVR8/Endpoint_AVR8.h **** 			static inline bool Endpoint_IsOUTReceived(void)
 418:./tmk_core/protocol/lufa/LUFA-git/LUFA/Drivers/USB/Core/AVR8/../AVR8/Endpoint_AVR8.h **** 			{
 419:./tmk_core/protocol/lufa/LUFA-git/LUFA/Drivers/USB/Core/AVR8/../AVR8/Endpoint_AVR8.h **** 				return ((UEINTX & (1 << RXOUTI)) ? true : false);
 420:./tmk_core/protocol/lufa/LUFA-git/LUFA/Drivers/USB/Core/AVR8/../AVR8/Endpoint_AVR8.h **** 			}
 421:./tmk_core/protocol/lufa/LUFA-git/LUFA/Drivers/USB/Core/AVR8/../AVR8/Endpoint_AVR8.h **** 
 422:./tmk_core/protocol/lufa/LUFA-git/LUFA/Drivers/USB/Core/AVR8/../AVR8/Endpoint_AVR8.h **** 			/** Determines if the current CONTROL type endpoint has received a SETUP packet.
 423:./tmk_core/protocol/lufa/LUFA-git/LUFA/Drivers/USB/Core/AVR8/../AVR8/Endpoint_AVR8.h **** 			 *
 424:./tmk_core/protocol/lufa/LUFA-git/LUFA/Drivers/USB/Core/AVR8/../AVR8/Endpoint_AVR8.h **** 			 *  \ingroup Group_EndpointPacketManagement_AVR8
 425:./tmk_core/protocol/lufa/LUFA-git/LUFA/Drivers/USB/Core/AVR8/../AVR8/Endpoint_AVR8.h **** 			 *
 426:./tmk_core/protocol/lufa/LUFA-git/LUFA/Drivers/USB/Core/AVR8/../AVR8/Endpoint_AVR8.h **** 			 *  \return Boolean \c true if the selected endpoint has received a SETUP packet, \c false other
 427:./tmk_core/protocol/lufa/LUFA-git/LUFA/Drivers/USB/Core/AVR8/../AVR8/Endpoint_AVR8.h **** 			 */
 428:./tmk_core/protocol/lufa/LUFA-git/LUFA/Drivers/USB/Core/AVR8/../AVR8/Endpoint_AVR8.h **** 			static inline bool Endpoint_IsSETUPReceived(void) ATTR_WARN_UNUSED_RESULT ATTR_ALWAYS_INLINE;
 429:./tmk_core/protocol/lufa/LUFA-git/LUFA/Drivers/USB/Core/AVR8/../AVR8/Endpoint_AVR8.h **** 			static inline bool Endpoint_IsSETUPReceived(void)
 430:./tmk_core/protocol/lufa/LUFA-git/LUFA/Drivers/USB/Core/AVR8/../AVR8/Endpoint_AVR8.h **** 			{
 431:./tmk_core/protocol/lufa/LUFA-git/LUFA/Drivers/USB/Core/AVR8/../AVR8/Endpoint_AVR8.h **** 				return ((UEINTX & (1 << RXSTPI)) ? true : false);
 432:./tmk_core/protocol/lufa/LUFA-git/LUFA/Drivers/USB/Core/AVR8/../AVR8/Endpoint_AVR8.h **** 			}
 433:./tmk_core/protocol/lufa/LUFA-git/LUFA/Drivers/USB/Core/AVR8/../AVR8/Endpoint_AVR8.h **** 
 434:./tmk_core/protocol/lufa/LUFA-git/LUFA/Drivers/USB/Core/AVR8/../AVR8/Endpoint_AVR8.h **** 			/** Clears a received SETUP packet on the currently selected CONTROL type endpoint, freeing up t
 435:./tmk_core/protocol/lufa/LUFA-git/LUFA/Drivers/USB/Core/AVR8/../AVR8/Endpoint_AVR8.h **** 			 *  endpoint for the next packet.
 436:./tmk_core/protocol/lufa/LUFA-git/LUFA/Drivers/USB/Core/AVR8/../AVR8/Endpoint_AVR8.h **** 			 *
 437:./tmk_core/protocol/lufa/LUFA-git/LUFA/Drivers/USB/Core/AVR8/../AVR8/Endpoint_AVR8.h **** 			 *  \ingroup Group_EndpointPacketManagement_AVR8
 438:./tmk_core/protocol/lufa/LUFA-git/LUFA/Drivers/USB/Core/AVR8/../AVR8/Endpoint_AVR8.h **** 			 *
 439:./tmk_core/protocol/lufa/LUFA-git/LUFA/Drivers/USB/Core/AVR8/../AVR8/Endpoint_AVR8.h **** 			 *  \note This is not applicable for non CONTROL type endpoints.
 440:./tmk_core/protocol/lufa/LUFA-git/LUFA/Drivers/USB/Core/AVR8/../AVR8/Endpoint_AVR8.h **** 			 */
 441:./tmk_core/protocol/lufa/LUFA-git/LUFA/Drivers/USB/Core/AVR8/../AVR8/Endpoint_AVR8.h **** 			static inline void Endpoint_ClearSETUP(void) ATTR_ALWAYS_INLINE;
 442:./tmk_core/protocol/lufa/LUFA-git/LUFA/Drivers/USB/Core/AVR8/../AVR8/Endpoint_AVR8.h **** 			static inline void Endpoint_ClearSETUP(void)
 443:./tmk_core/protocol/lufa/LUFA-git/LUFA/Drivers/USB/Core/AVR8/../AVR8/Endpoint_AVR8.h **** 			{
 444:./tmk_core/protocol/lufa/LUFA-git/LUFA/Drivers/USB/Core/AVR8/../AVR8/Endpoint_AVR8.h **** 				UEINTX &= ~(1 << RXSTPI);
 445:./tmk_core/protocol/lufa/LUFA-git/LUFA/Drivers/USB/Core/AVR8/../AVR8/Endpoint_AVR8.h **** 			}
 446:./tmk_core/protocol/lufa/LUFA-git/LUFA/Drivers/USB/Core/AVR8/../AVR8/Endpoint_AVR8.h **** 
 447:./tmk_core/protocol/lufa/LUFA-git/LUFA/Drivers/USB/Core/AVR8/../AVR8/Endpoint_AVR8.h **** 			/** Sends an IN packet to the host on the currently selected endpoint, freeing up the endpoint f
 448:./tmk_core/protocol/lufa/LUFA-git/LUFA/Drivers/USB/Core/AVR8/../AVR8/Endpoint_AVR8.h **** 			 *  next packet and switching to the alternative endpoint bank if double banked.
 449:./tmk_core/protocol/lufa/LUFA-git/LUFA/Drivers/USB/Core/AVR8/../AVR8/Endpoint_AVR8.h **** 			 *
 450:./tmk_core/protocol/lufa/LUFA-git/LUFA/Drivers/USB/Core/AVR8/../AVR8/Endpoint_AVR8.h **** 			 *  \ingroup Group_EndpointPacketManagement_AVR8
 451:./tmk_core/protocol/lufa/LUFA-git/LUFA/Drivers/USB/Core/AVR8/../AVR8/Endpoint_AVR8.h **** 			 */
 452:./tmk_core/protocol/lufa/LUFA-git/LUFA/Drivers/USB/Core/AVR8/../AVR8/Endpoint_AVR8.h **** 			static inline void Endpoint_ClearIN(void) ATTR_ALWAYS_INLINE;
 453:./tmk_core/protocol/lufa/LUFA-git/LUFA/Drivers/USB/Core/AVR8/../AVR8/Endpoint_AVR8.h **** 			static inline void Endpoint_ClearIN(void)
 454:./tmk_core/protocol/lufa/LUFA-git/LUFA/Drivers/USB/Core/AVR8/../AVR8/Endpoint_AVR8.h **** 			{
 455:./tmk_core/protocol/lufa/LUFA-git/LUFA/Drivers/USB/Core/AVR8/../AVR8/Endpoint_AVR8.h **** 				#if !defined(CONTROL_ONLY_DEVICE)
 456:./tmk_core/protocol/lufa/LUFA-git/LUFA/Drivers/USB/Core/AVR8/../AVR8/Endpoint_AVR8.h **** 					UEINTX &= ~((1 << TXINI) | (1 << FIFOCON));
 457:./tmk_core/protocol/lufa/LUFA-git/LUFA/Drivers/USB/Core/AVR8/../AVR8/Endpoint_AVR8.h **** 				#else
 458:./tmk_core/protocol/lufa/LUFA-git/LUFA/Drivers/USB/Core/AVR8/../AVR8/Endpoint_AVR8.h **** 					UEINTX &= ~(1 << TXINI);
 459:./tmk_core/protocol/lufa/LUFA-git/LUFA/Drivers/USB/Core/AVR8/../AVR8/Endpoint_AVR8.h **** 				#endif
 460:./tmk_core/protocol/lufa/LUFA-git/LUFA/Drivers/USB/Core/AVR8/../AVR8/Endpoint_AVR8.h **** 			}
 461:./tmk_core/protocol/lufa/LUFA-git/LUFA/Drivers/USB/Core/AVR8/../AVR8/Endpoint_AVR8.h **** 
 462:./tmk_core/protocol/lufa/LUFA-git/LUFA/Drivers/USB/Core/AVR8/../AVR8/Endpoint_AVR8.h **** 			/** Acknowledges an OUT packet to the host on the currently selected endpoint, freeing up the en
 463:./tmk_core/protocol/lufa/LUFA-git/LUFA/Drivers/USB/Core/AVR8/../AVR8/Endpoint_AVR8.h **** 			 *  for the next packet and switching to the alternative endpoint bank if double banked.
 464:./tmk_core/protocol/lufa/LUFA-git/LUFA/Drivers/USB/Core/AVR8/../AVR8/Endpoint_AVR8.h **** 			 *
 465:./tmk_core/protocol/lufa/LUFA-git/LUFA/Drivers/USB/Core/AVR8/../AVR8/Endpoint_AVR8.h **** 			 *  \ingroup Group_EndpointPacketManagement_AVR8
 466:./tmk_core/protocol/lufa/LUFA-git/LUFA/Drivers/USB/Core/AVR8/../AVR8/Endpoint_AVR8.h **** 			 */
 467:./tmk_core/protocol/lufa/LUFA-git/LUFA/Drivers/USB/Core/AVR8/../AVR8/Endpoint_AVR8.h **** 			static inline void Endpoint_ClearOUT(void) ATTR_ALWAYS_INLINE;
 468:./tmk_core/protocol/lufa/LUFA-git/LUFA/Drivers/USB/Core/AVR8/../AVR8/Endpoint_AVR8.h **** 			static inline void Endpoint_ClearOUT(void)
 469:./tmk_core/protocol/lufa/LUFA-git/LUFA/Drivers/USB/Core/AVR8/../AVR8/Endpoint_AVR8.h **** 			{
 470:./tmk_core/protocol/lufa/LUFA-git/LUFA/Drivers/USB/Core/AVR8/../AVR8/Endpoint_AVR8.h **** 				#if !defined(CONTROL_ONLY_DEVICE)
 471:./tmk_core/protocol/lufa/LUFA-git/LUFA/Drivers/USB/Core/AVR8/../AVR8/Endpoint_AVR8.h **** 					UEINTX &= ~((1 << RXOUTI) | (1 << FIFOCON));
 472:./tmk_core/protocol/lufa/LUFA-git/LUFA/Drivers/USB/Core/AVR8/../AVR8/Endpoint_AVR8.h **** 				#else
 473:./tmk_core/protocol/lufa/LUFA-git/LUFA/Drivers/USB/Core/AVR8/../AVR8/Endpoint_AVR8.h **** 					UEINTX &= ~(1 << RXOUTI);
 474:./tmk_core/protocol/lufa/LUFA-git/LUFA/Drivers/USB/Core/AVR8/../AVR8/Endpoint_AVR8.h **** 				#endif
 475:./tmk_core/protocol/lufa/LUFA-git/LUFA/Drivers/USB/Core/AVR8/../AVR8/Endpoint_AVR8.h **** 			}
 476:./tmk_core/protocol/lufa/LUFA-git/LUFA/Drivers/USB/Core/AVR8/../AVR8/Endpoint_AVR8.h **** 
 477:./tmk_core/protocol/lufa/LUFA-git/LUFA/Drivers/USB/Core/AVR8/../AVR8/Endpoint_AVR8.h **** 			/** Stalls the current endpoint, indicating to the host that a logical problem occurred with the
 478:./tmk_core/protocol/lufa/LUFA-git/LUFA/Drivers/USB/Core/AVR8/../AVR8/Endpoint_AVR8.h **** 			 *  indicated endpoint and that the current transfer sequence should be aborted. This provides a
 479:./tmk_core/protocol/lufa/LUFA-git/LUFA/Drivers/USB/Core/AVR8/../AVR8/Endpoint_AVR8.h **** 			 *  way for devices to indicate invalid commands to the host so that the current transfer can be
 480:./tmk_core/protocol/lufa/LUFA-git/LUFA/Drivers/USB/Core/AVR8/../AVR8/Endpoint_AVR8.h **** 			 *  aborted and the host can begin its own recovery sequence.
 481:./tmk_core/protocol/lufa/LUFA-git/LUFA/Drivers/USB/Core/AVR8/../AVR8/Endpoint_AVR8.h **** 			 *
 482:./tmk_core/protocol/lufa/LUFA-git/LUFA/Drivers/USB/Core/AVR8/../AVR8/Endpoint_AVR8.h **** 			 *  The currently selected endpoint remains stalled until either the \ref Endpoint_ClearStall() 
 483:./tmk_core/protocol/lufa/LUFA-git/LUFA/Drivers/USB/Core/AVR8/../AVR8/Endpoint_AVR8.h **** 			 *  is called, or the host issues a CLEAR FEATURE request to the device for the currently select
 484:./tmk_core/protocol/lufa/LUFA-git/LUFA/Drivers/USB/Core/AVR8/../AVR8/Endpoint_AVR8.h **** 			 *  endpoint.
 485:./tmk_core/protocol/lufa/LUFA-git/LUFA/Drivers/USB/Core/AVR8/../AVR8/Endpoint_AVR8.h **** 			 *
 486:./tmk_core/protocol/lufa/LUFA-git/LUFA/Drivers/USB/Core/AVR8/../AVR8/Endpoint_AVR8.h **** 			 *  \ingroup Group_EndpointPacketManagement_AVR8
 487:./tmk_core/protocol/lufa/LUFA-git/LUFA/Drivers/USB/Core/AVR8/../AVR8/Endpoint_AVR8.h **** 			 */
 488:./tmk_core/protocol/lufa/LUFA-git/LUFA/Drivers/USB/Core/AVR8/../AVR8/Endpoint_AVR8.h **** 			static inline void Endpoint_StallTransaction(void) ATTR_ALWAYS_INLINE;
 489:./tmk_core/protocol/lufa/LUFA-git/LUFA/Drivers/USB/Core/AVR8/../AVR8/Endpoint_AVR8.h **** 			static inline void Endpoint_StallTransaction(void)
 490:./tmk_core/protocol/lufa/LUFA-git/LUFA/Drivers/USB/Core/AVR8/../AVR8/Endpoint_AVR8.h **** 			{
 491:./tmk_core/protocol/lufa/LUFA-git/LUFA/Drivers/USB/Core/AVR8/../AVR8/Endpoint_AVR8.h **** 				UECONX |= (1 << STALLRQ);
 492:./tmk_core/protocol/lufa/LUFA-git/LUFA/Drivers/USB/Core/AVR8/../AVR8/Endpoint_AVR8.h **** 			}
 493:./tmk_core/protocol/lufa/LUFA-git/LUFA/Drivers/USB/Core/AVR8/../AVR8/Endpoint_AVR8.h **** 
 494:./tmk_core/protocol/lufa/LUFA-git/LUFA/Drivers/USB/Core/AVR8/../AVR8/Endpoint_AVR8.h **** 			/** Clears the STALL condition on the currently selected endpoint.
 495:./tmk_core/protocol/lufa/LUFA-git/LUFA/Drivers/USB/Core/AVR8/../AVR8/Endpoint_AVR8.h **** 			 *
 496:./tmk_core/protocol/lufa/LUFA-git/LUFA/Drivers/USB/Core/AVR8/../AVR8/Endpoint_AVR8.h **** 			 *  \ingroup Group_EndpointPacketManagement_AVR8
 497:./tmk_core/protocol/lufa/LUFA-git/LUFA/Drivers/USB/Core/AVR8/../AVR8/Endpoint_AVR8.h **** 			 */
 498:./tmk_core/protocol/lufa/LUFA-git/LUFA/Drivers/USB/Core/AVR8/../AVR8/Endpoint_AVR8.h **** 			static inline void Endpoint_ClearStall(void) ATTR_ALWAYS_INLINE;
 499:./tmk_core/protocol/lufa/LUFA-git/LUFA/Drivers/USB/Core/AVR8/../AVR8/Endpoint_AVR8.h **** 			static inline void Endpoint_ClearStall(void)
 500:./tmk_core/protocol/lufa/LUFA-git/LUFA/Drivers/USB/Core/AVR8/../AVR8/Endpoint_AVR8.h **** 			{
 501:./tmk_core/protocol/lufa/LUFA-git/LUFA/Drivers/USB/Core/AVR8/../AVR8/Endpoint_AVR8.h **** 				UECONX |= (1 << STALLRQC);
 502:./tmk_core/protocol/lufa/LUFA-git/LUFA/Drivers/USB/Core/AVR8/../AVR8/Endpoint_AVR8.h **** 			}
 503:./tmk_core/protocol/lufa/LUFA-git/LUFA/Drivers/USB/Core/AVR8/../AVR8/Endpoint_AVR8.h **** 
 504:./tmk_core/protocol/lufa/LUFA-git/LUFA/Drivers/USB/Core/AVR8/../AVR8/Endpoint_AVR8.h **** 			/** Determines if the currently selected endpoint is stalled, \c false otherwise.
 505:./tmk_core/protocol/lufa/LUFA-git/LUFA/Drivers/USB/Core/AVR8/../AVR8/Endpoint_AVR8.h **** 			 *
 506:./tmk_core/protocol/lufa/LUFA-git/LUFA/Drivers/USB/Core/AVR8/../AVR8/Endpoint_AVR8.h **** 			 *  \ingroup Group_EndpointPacketManagement_AVR8
 507:./tmk_core/protocol/lufa/LUFA-git/LUFA/Drivers/USB/Core/AVR8/../AVR8/Endpoint_AVR8.h **** 			 *
 508:./tmk_core/protocol/lufa/LUFA-git/LUFA/Drivers/USB/Core/AVR8/../AVR8/Endpoint_AVR8.h **** 			 *  \return Boolean \c true if the currently selected endpoint is stalled, \c false otherwise.
 509:./tmk_core/protocol/lufa/LUFA-git/LUFA/Drivers/USB/Core/AVR8/../AVR8/Endpoint_AVR8.h **** 			 */
 510:./tmk_core/protocol/lufa/LUFA-git/LUFA/Drivers/USB/Core/AVR8/../AVR8/Endpoint_AVR8.h **** 			static inline bool Endpoint_IsStalled(void) ATTR_WARN_UNUSED_RESULT ATTR_ALWAYS_INLINE;
 511:./tmk_core/protocol/lufa/LUFA-git/LUFA/Drivers/USB/Core/AVR8/../AVR8/Endpoint_AVR8.h **** 			static inline bool Endpoint_IsStalled(void)
 512:./tmk_core/protocol/lufa/LUFA-git/LUFA/Drivers/USB/Core/AVR8/../AVR8/Endpoint_AVR8.h **** 			{
 513:./tmk_core/protocol/lufa/LUFA-git/LUFA/Drivers/USB/Core/AVR8/../AVR8/Endpoint_AVR8.h **** 				return ((UECONX & (1 << STALLRQ)) ? true : false);
 514:./tmk_core/protocol/lufa/LUFA-git/LUFA/Drivers/USB/Core/AVR8/../AVR8/Endpoint_AVR8.h **** 			}
 515:./tmk_core/protocol/lufa/LUFA-git/LUFA/Drivers/USB/Core/AVR8/../AVR8/Endpoint_AVR8.h **** 
 516:./tmk_core/protocol/lufa/LUFA-git/LUFA/Drivers/USB/Core/AVR8/../AVR8/Endpoint_AVR8.h **** 			/** Resets the data toggle of the currently selected endpoint. */
 517:./tmk_core/protocol/lufa/LUFA-git/LUFA/Drivers/USB/Core/AVR8/../AVR8/Endpoint_AVR8.h **** 			static inline void Endpoint_ResetDataToggle(void) ATTR_ALWAYS_INLINE;
 518:./tmk_core/protocol/lufa/LUFA-git/LUFA/Drivers/USB/Core/AVR8/../AVR8/Endpoint_AVR8.h **** 			static inline void Endpoint_ResetDataToggle(void)
 519:./tmk_core/protocol/lufa/LUFA-git/LUFA/Drivers/USB/Core/AVR8/../AVR8/Endpoint_AVR8.h **** 			{
 520:./tmk_core/protocol/lufa/LUFA-git/LUFA/Drivers/USB/Core/AVR8/../AVR8/Endpoint_AVR8.h **** 				UECONX |= (1 << RSTDT);
 521:./tmk_core/protocol/lufa/LUFA-git/LUFA/Drivers/USB/Core/AVR8/../AVR8/Endpoint_AVR8.h **** 			}
 522:./tmk_core/protocol/lufa/LUFA-git/LUFA/Drivers/USB/Core/AVR8/../AVR8/Endpoint_AVR8.h **** 
 523:./tmk_core/protocol/lufa/LUFA-git/LUFA/Drivers/USB/Core/AVR8/../AVR8/Endpoint_AVR8.h **** 			/** Sets the direction of the currently selected endpoint.
 524:./tmk_core/protocol/lufa/LUFA-git/LUFA/Drivers/USB/Core/AVR8/../AVR8/Endpoint_AVR8.h **** 			 *
 525:./tmk_core/protocol/lufa/LUFA-git/LUFA/Drivers/USB/Core/AVR8/../AVR8/Endpoint_AVR8.h **** 			 *  \param[in] DirectionMask  New endpoint direction, as a \c ENDPOINT_DIR_* mask.
 526:./tmk_core/protocol/lufa/LUFA-git/LUFA/Drivers/USB/Core/AVR8/../AVR8/Endpoint_AVR8.h **** 			 */
 527:./tmk_core/protocol/lufa/LUFA-git/LUFA/Drivers/USB/Core/AVR8/../AVR8/Endpoint_AVR8.h **** 			static inline void Endpoint_SetEndpointDirection(const uint8_t DirectionMask) ATTR_ALWAYS_INLINE
 528:./tmk_core/protocol/lufa/LUFA-git/LUFA/Drivers/USB/Core/AVR8/../AVR8/Endpoint_AVR8.h **** 			static inline void Endpoint_SetEndpointDirection(const uint8_t DirectionMask)
 529:./tmk_core/protocol/lufa/LUFA-git/LUFA/Drivers/USB/Core/AVR8/../AVR8/Endpoint_AVR8.h **** 			{
 530:./tmk_core/protocol/lufa/LUFA-git/LUFA/Drivers/USB/Core/AVR8/../AVR8/Endpoint_AVR8.h **** 				UECFG0X = ((UECFG0X & ~(1 << EPDIR)) | (DirectionMask ? (1 << EPDIR) : 0));
 531:./tmk_core/protocol/lufa/LUFA-git/LUFA/Drivers/USB/Core/AVR8/../AVR8/Endpoint_AVR8.h **** 			}
 532:./tmk_core/protocol/lufa/LUFA-git/LUFA/Drivers/USB/Core/AVR8/../AVR8/Endpoint_AVR8.h **** 
 533:./tmk_core/protocol/lufa/LUFA-git/LUFA/Drivers/USB/Core/AVR8/../AVR8/Endpoint_AVR8.h **** 			/** Reads one byte from the currently selected endpoint's bank, for OUT direction endpoints.
 534:./tmk_core/protocol/lufa/LUFA-git/LUFA/Drivers/USB/Core/AVR8/../AVR8/Endpoint_AVR8.h **** 			 *
 535:./tmk_core/protocol/lufa/LUFA-git/LUFA/Drivers/USB/Core/AVR8/../AVR8/Endpoint_AVR8.h **** 			 *  \ingroup Group_EndpointPrimitiveRW_AVR8
 536:./tmk_core/protocol/lufa/LUFA-git/LUFA/Drivers/USB/Core/AVR8/../AVR8/Endpoint_AVR8.h **** 			 *
 537:./tmk_core/protocol/lufa/LUFA-git/LUFA/Drivers/USB/Core/AVR8/../AVR8/Endpoint_AVR8.h **** 			 *  \return Next byte in the currently selected endpoint's FIFO buffer.
 538:./tmk_core/protocol/lufa/LUFA-git/LUFA/Drivers/USB/Core/AVR8/../AVR8/Endpoint_AVR8.h **** 			 */
 539:./tmk_core/protocol/lufa/LUFA-git/LUFA/Drivers/USB/Core/AVR8/../AVR8/Endpoint_AVR8.h **** 			static inline uint8_t Endpoint_Read_8(void) ATTR_WARN_UNUSED_RESULT ATTR_ALWAYS_INLINE;
 540:./tmk_core/protocol/lufa/LUFA-git/LUFA/Drivers/USB/Core/AVR8/../AVR8/Endpoint_AVR8.h **** 			static inline uint8_t Endpoint_Read_8(void)
  68               		.loc 2 540 26 is_stmt 1 discriminator 3 view .LVU8
  69               	.LBB172:
 541:./tmk_core/protocol/lufa/LUFA-git/LUFA/Drivers/USB/Core/AVR8/../AVR8/Endpoint_AVR8.h **** 			{
 542:./tmk_core/protocol/lufa/LUFA-git/LUFA/Drivers/USB/Core/AVR8/../AVR8/Endpoint_AVR8.h **** 				return UEDATX;
  70               		.loc 2 542 5 discriminator 3 view .LVU9
  71               		.loc 2 542 12 is_stmt 0 discriminator 3 view .LVU10
  72 001e 2091 F100 		lds r18,241
  73               	.LBE172:
  74               	.LBE171:
  75               		.loc 1 61 23 discriminator 3 view .LVU11
  76 0022 2083      		st Z,r18
  60:./tmk_core/protocol/lufa/LUFA-git/LUFA/Drivers/USB/Core/DeviceStandardReq.c **** 	  *(RequestHeader++) = Endpoint_Read_8();
  77               		.loc 1 60 105 is_stmt 1 discriminator 3 view .LVU12
  78               	.LVL3:
  60:./tmk_core/protocol/lufa/LUFA-git/LUFA/Drivers/USB/Core/DeviceStandardReq.c **** 	  *(RequestHeader++) = Endpoint_Read_8();
  79               		.loc 1 60 56 discriminator 3 view .LVU13
  80 0024 20E0      		ldi r18,hi8(USB_ControlRequest+8)
  81 0026 8030      		cpi r24,lo8(USB_ControlRequest+8)
  82 0028 9207      		cpc r25,r18
  83 002a 01F4      		brne .L2
  84               	.LBE173:
  62:./tmk_core/protocol/lufa/LUFA-git/LUFA/Drivers/USB/Core/DeviceStandardReq.c **** 	#endif
  63:./tmk_core/protocol/lufa/LUFA-git/LUFA/Drivers/USB/Core/DeviceStandardReq.c **** 
  64:./tmk_core/protocol/lufa/LUFA-git/LUFA/Drivers/USB/Core/DeviceStandardReq.c **** 	EVENT_USB_Device_ControlRequest();
  85               		.loc 1 64 2 view .LVU14
  86 002c 0E94 0000 		call EVENT_USB_Device_ControlRequest
  87               	.LVL4:
  65:./tmk_core/protocol/lufa/LUFA-git/LUFA/Drivers/USB/Core/DeviceStandardReq.c **** 
  66:./tmk_core/protocol/lufa/LUFA-git/LUFA/Drivers/USB/Core/DeviceStandardReq.c **** 	if (Endpoint_IsSETUPReceived())
  88               		.loc 1 66 2 view .LVU15
  89               	.LBB174:
  90               	.LBI174:
 429:./tmk_core/protocol/lufa/LUFA-git/LUFA/Drivers/USB/Core/AVR8/../AVR8/Endpoint_AVR8.h **** 			{
  91               		.loc 2 429 23 view .LVU16
  92               	.LBB175:
 431:./tmk_core/protocol/lufa/LUFA-git/LUFA/Drivers/USB/Core/AVR8/../AVR8/Endpoint_AVR8.h **** 			}
  93               		.loc 2 431 5 view .LVU17
 431:./tmk_core/protocol/lufa/LUFA-git/LUFA/Drivers/USB/Core/AVR8/../AVR8/Endpoint_AVR8.h **** 			}
  94               		.loc 2 431 14 is_stmt 0 view .LVU18
  95 0030 8091 E800 		lds r24,232
  96               	.LBE175:
  97               	.LBE174:
  98               		.loc 1 66 5 view .LVU19
  99 0034 83FF      		sbrs r24,3
 100 0036 00C0      		rjmp .L3
 101               	.LBB176:
  67:./tmk_core/protocol/lufa/LUFA-git/LUFA/Drivers/USB/Core/DeviceStandardReq.c **** 	{
  68:./tmk_core/protocol/lufa/LUFA-git/LUFA/Drivers/USB/Core/DeviceStandardReq.c **** 		uint8_t bmRequestType = USB_ControlRequest.bmRequestType;
 102               		.loc 1 68 3 is_stmt 1 view .LVU20
 103               		.loc 1 68 11 is_stmt 0 view .LVU21
 104 0038 8091 0000 		lds r24,USB_ControlRequest
 105               	.LVL5:
  69:./tmk_core/protocol/lufa/LUFA-git/LUFA/Drivers/USB/Core/DeviceStandardReq.c **** 
  70:./tmk_core/protocol/lufa/LUFA-git/LUFA/Drivers/USB/Core/DeviceStandardReq.c **** 		switch (USB_ControlRequest.bRequest)
 106               		.loc 1 70 3 is_stmt 1 view .LVU22
 107               		.loc 1 70 29 is_stmt 0 view .LVU23
 108 003c 9091 0000 		lds r25,USB_ControlRequest+1
 109               		.loc 1 70 3 view .LVU24
 110 0040 9A30      		cpi r25,lo8(10)
 111 0042 00F4      		brsh .L3
 112 0044 E92F      		mov r30,r25
 113 0046 F0E0      		ldi r31,0
 114 0048 E050      		subi r30,lo8(-(gs(.L5)))
 115 004a F040      		sbci r31,hi8(-(gs(.L5)))
 116 004c 0C94 0000 		jmp __tablejump2__
 117               		.section	.jumptables.gcc.USB_Device_ProcessControlRequest,"a",@progbits
 118               		.p2align	1
 119               	.L5:
 120 0000 0000      		.word gs(.L10)
 121 0002 0000      		.word gs(.L9)
 122 0004 0000      		.word gs(.L3)
 123 0006 0000      		.word gs(.L9)
 124 0008 0000      		.word gs(.L3)
 125 000a 0000      		.word gs(.L8)
 126 000c 0000      		.word gs(.L7)
 127 000e 0000      		.word gs(.L3)
 128 0010 0000      		.word gs(.L6)
 129 0012 0000      		.word gs(.L4)
 130               		.section	.text.USB_Device_ProcessControlRequest
 131               	.L10:
  71:./tmk_core/protocol/lufa/LUFA-git/LUFA/Drivers/USB/Core/DeviceStandardReq.c **** 		{
  72:./tmk_core/protocol/lufa/LUFA-git/LUFA/Drivers/USB/Core/DeviceStandardReq.c **** 			case REQ_GetStatus:
  73:./tmk_core/protocol/lufa/LUFA-git/LUFA/Drivers/USB/Core/DeviceStandardReq.c **** 				if ((bmRequestType == (REQDIR_DEVICETOHOST | REQTYPE_STANDARD | REQREC_DEVICE)) ||
 132               		.loc 1 73 5 is_stmt 1 view .LVU25
 133               		.loc 1 73 8 is_stmt 0 view .LVU26
 134 0050 8038      		cpi r24,lo8(-128)
 135 0052 01F0      		breq .L11
 136               		.loc 1 73 85 discriminator 1 view .LVU27
 137 0054 8238      		cpi r24,lo8(-126)
 138 0056 01F4      		brne .L3
  74:./tmk_core/protocol/lufa/LUFA-git/LUFA/Drivers/USB/Core/DeviceStandardReq.c **** 					(bmRequestType == (REQDIR_DEVICETOHOST | REQTYPE_STANDARD | REQREC_ENDPOINT)))
  75:./tmk_core/protocol/lufa/LUFA-git/LUFA/Drivers/USB/Core/DeviceStandardReq.c **** 				{
  76:./tmk_core/protocol/lufa/LUFA-git/LUFA/Drivers/USB/Core/DeviceStandardReq.c **** 					USB_Device_GetStatus();
 139               		.loc 1 76 6 is_stmt 1 view .LVU28
 140               	.LBB177:
 141               	.LBI177:
  77:./tmk_core/protocol/lufa/LUFA-git/LUFA/Drivers/USB/Core/DeviceStandardReq.c **** 				}
  78:./tmk_core/protocol/lufa/LUFA-git/LUFA/Drivers/USB/Core/DeviceStandardReq.c **** 
  79:./tmk_core/protocol/lufa/LUFA-git/LUFA/Drivers/USB/Core/DeviceStandardReq.c **** 				break;
  80:./tmk_core/protocol/lufa/LUFA-git/LUFA/Drivers/USB/Core/DeviceStandardReq.c **** 			case REQ_ClearFeature:
  81:./tmk_core/protocol/lufa/LUFA-git/LUFA/Drivers/USB/Core/DeviceStandardReq.c **** 			case REQ_SetFeature:
  82:./tmk_core/protocol/lufa/LUFA-git/LUFA/Drivers/USB/Core/DeviceStandardReq.c **** 				if ((bmRequestType == (REQDIR_HOSTTODEVICE | REQTYPE_STANDARD | REQREC_DEVICE)) ||
  83:./tmk_core/protocol/lufa/LUFA-git/LUFA/Drivers/USB/Core/DeviceStandardReq.c **** 					(bmRequestType == (REQDIR_HOSTTODEVICE | REQTYPE_STANDARD | REQREC_ENDPOINT)))
  84:./tmk_core/protocol/lufa/LUFA-git/LUFA/Drivers/USB/Core/DeviceStandardReq.c **** 				{
  85:./tmk_core/protocol/lufa/LUFA-git/LUFA/Drivers/USB/Core/DeviceStandardReq.c **** 					USB_Device_ClearSetFeature();
  86:./tmk_core/protocol/lufa/LUFA-git/LUFA/Drivers/USB/Core/DeviceStandardReq.c **** 				}
  87:./tmk_core/protocol/lufa/LUFA-git/LUFA/Drivers/USB/Core/DeviceStandardReq.c **** 
  88:./tmk_core/protocol/lufa/LUFA-git/LUFA/Drivers/USB/Core/DeviceStandardReq.c **** 				break;
  89:./tmk_core/protocol/lufa/LUFA-git/LUFA/Drivers/USB/Core/DeviceStandardReq.c **** 			case REQ_SetAddress:
  90:./tmk_core/protocol/lufa/LUFA-git/LUFA/Drivers/USB/Core/DeviceStandardReq.c **** 				if (bmRequestType == (REQDIR_HOSTTODEVICE | REQTYPE_STANDARD | REQREC_DEVICE))
  91:./tmk_core/protocol/lufa/LUFA-git/LUFA/Drivers/USB/Core/DeviceStandardReq.c **** 				  USB_Device_SetAddress();
  92:./tmk_core/protocol/lufa/LUFA-git/LUFA/Drivers/USB/Core/DeviceStandardReq.c **** 
  93:./tmk_core/protocol/lufa/LUFA-git/LUFA/Drivers/USB/Core/DeviceStandardReq.c **** 				break;
  94:./tmk_core/protocol/lufa/LUFA-git/LUFA/Drivers/USB/Core/DeviceStandardReq.c **** 			case REQ_GetDescriptor:
  95:./tmk_core/protocol/lufa/LUFA-git/LUFA/Drivers/USB/Core/DeviceStandardReq.c **** 				if ((bmRequestType == (REQDIR_DEVICETOHOST | REQTYPE_STANDARD | REQREC_DEVICE)) ||
  96:./tmk_core/protocol/lufa/LUFA-git/LUFA/Drivers/USB/Core/DeviceStandardReq.c **** 					(bmRequestType == (REQDIR_DEVICETOHOST | REQTYPE_STANDARD | REQREC_INTERFACE)))
  97:./tmk_core/protocol/lufa/LUFA-git/LUFA/Drivers/USB/Core/DeviceStandardReq.c **** 				{
  98:./tmk_core/protocol/lufa/LUFA-git/LUFA/Drivers/USB/Core/DeviceStandardReq.c **** 					USB_Device_GetDescriptor();
  99:./tmk_core/protocol/lufa/LUFA-git/LUFA/Drivers/USB/Core/DeviceStandardReq.c **** 				}
 100:./tmk_core/protocol/lufa/LUFA-git/LUFA/Drivers/USB/Core/DeviceStandardReq.c **** 
 101:./tmk_core/protocol/lufa/LUFA-git/LUFA/Drivers/USB/Core/DeviceStandardReq.c **** 				break;
 102:./tmk_core/protocol/lufa/LUFA-git/LUFA/Drivers/USB/Core/DeviceStandardReq.c **** 			case REQ_GetConfiguration:
 103:./tmk_core/protocol/lufa/LUFA-git/LUFA/Drivers/USB/Core/DeviceStandardReq.c **** 				if (bmRequestType == (REQDIR_DEVICETOHOST | REQTYPE_STANDARD | REQREC_DEVICE))
 104:./tmk_core/protocol/lufa/LUFA-git/LUFA/Drivers/USB/Core/DeviceStandardReq.c **** 				  USB_Device_GetConfiguration();
 105:./tmk_core/protocol/lufa/LUFA-git/LUFA/Drivers/USB/Core/DeviceStandardReq.c **** 
 106:./tmk_core/protocol/lufa/LUFA-git/LUFA/Drivers/USB/Core/DeviceStandardReq.c **** 				break;
 107:./tmk_core/protocol/lufa/LUFA-git/LUFA/Drivers/USB/Core/DeviceStandardReq.c **** 			case REQ_SetConfiguration:
 108:./tmk_core/protocol/lufa/LUFA-git/LUFA/Drivers/USB/Core/DeviceStandardReq.c **** 				if (bmRequestType == (REQDIR_HOSTTODEVICE | REQTYPE_STANDARD | REQREC_DEVICE))
 109:./tmk_core/protocol/lufa/LUFA-git/LUFA/Drivers/USB/Core/DeviceStandardReq.c **** 				  USB_Device_SetConfiguration();
 110:./tmk_core/protocol/lufa/LUFA-git/LUFA/Drivers/USB/Core/DeviceStandardReq.c **** 
 111:./tmk_core/protocol/lufa/LUFA-git/LUFA/Drivers/USB/Core/DeviceStandardReq.c **** 				break;
 112:./tmk_core/protocol/lufa/LUFA-git/LUFA/Drivers/USB/Core/DeviceStandardReq.c **** 
 113:./tmk_core/protocol/lufa/LUFA-git/LUFA/Drivers/USB/Core/DeviceStandardReq.c **** 			default:
 114:./tmk_core/protocol/lufa/LUFA-git/LUFA/Drivers/USB/Core/DeviceStandardReq.c **** 				break;
 115:./tmk_core/protocol/lufa/LUFA-git/LUFA/Drivers/USB/Core/DeviceStandardReq.c **** 		}
 116:./tmk_core/protocol/lufa/LUFA-git/LUFA/Drivers/USB/Core/DeviceStandardReq.c **** 	}
 117:./tmk_core/protocol/lufa/LUFA-git/LUFA/Drivers/USB/Core/DeviceStandardReq.c **** 
 118:./tmk_core/protocol/lufa/LUFA-git/LUFA/Drivers/USB/Core/DeviceStandardReq.c **** 	if (Endpoint_IsSETUPReceived())
 119:./tmk_core/protocol/lufa/LUFA-git/LUFA/Drivers/USB/Core/DeviceStandardReq.c **** 	{
 120:./tmk_core/protocol/lufa/LUFA-git/LUFA/Drivers/USB/Core/DeviceStandardReq.c **** 		Endpoint_ClearSETUP();
 121:./tmk_core/protocol/lufa/LUFA-git/LUFA/Drivers/USB/Core/DeviceStandardReq.c **** 		Endpoint_StallTransaction();
 122:./tmk_core/protocol/lufa/LUFA-git/LUFA/Drivers/USB/Core/DeviceStandardReq.c **** 	}
 123:./tmk_core/protocol/lufa/LUFA-git/LUFA/Drivers/USB/Core/DeviceStandardReq.c **** }
 124:./tmk_core/protocol/lufa/LUFA-git/LUFA/Drivers/USB/Core/DeviceStandardReq.c **** 
 125:./tmk_core/protocol/lufa/LUFA-git/LUFA/Drivers/USB/Core/DeviceStandardReq.c **** static void USB_Device_SetAddress(void)
 126:./tmk_core/protocol/lufa/LUFA-git/LUFA/Drivers/USB/Core/DeviceStandardReq.c **** {
 127:./tmk_core/protocol/lufa/LUFA-git/LUFA/Drivers/USB/Core/DeviceStandardReq.c **** 	uint8_t DeviceAddress = (USB_ControlRequest.wValue & 0x7F);
 128:./tmk_core/protocol/lufa/LUFA-git/LUFA/Drivers/USB/Core/DeviceStandardReq.c **** 
 129:./tmk_core/protocol/lufa/LUFA-git/LUFA/Drivers/USB/Core/DeviceStandardReq.c **** 	USB_Device_SetDeviceAddress(DeviceAddress);
 130:./tmk_core/protocol/lufa/LUFA-git/LUFA/Drivers/USB/Core/DeviceStandardReq.c **** 
 131:./tmk_core/protocol/lufa/LUFA-git/LUFA/Drivers/USB/Core/DeviceStandardReq.c **** 	Endpoint_ClearSETUP();
 132:./tmk_core/protocol/lufa/LUFA-git/LUFA/Drivers/USB/Core/DeviceStandardReq.c **** 
 133:./tmk_core/protocol/lufa/LUFA-git/LUFA/Drivers/USB/Core/DeviceStandardReq.c **** 	Endpoint_ClearStatusStage();
 134:./tmk_core/protocol/lufa/LUFA-git/LUFA/Drivers/USB/Core/DeviceStandardReq.c **** 
 135:./tmk_core/protocol/lufa/LUFA-git/LUFA/Drivers/USB/Core/DeviceStandardReq.c **** 	while (!(Endpoint_IsINReady()));
 136:./tmk_core/protocol/lufa/LUFA-git/LUFA/Drivers/USB/Core/DeviceStandardReq.c **** 
 137:./tmk_core/protocol/lufa/LUFA-git/LUFA/Drivers/USB/Core/DeviceStandardReq.c **** 	USB_Device_EnableDeviceAddress(DeviceAddress);
 138:./tmk_core/protocol/lufa/LUFA-git/LUFA/Drivers/USB/Core/DeviceStandardReq.c **** 
 139:./tmk_core/protocol/lufa/LUFA-git/LUFA/Drivers/USB/Core/DeviceStandardReq.c **** 	USB_DeviceState = (DeviceAddress) ? DEVICE_STATE_Addressed : DEVICE_STATE_Default;
 140:./tmk_core/protocol/lufa/LUFA-git/LUFA/Drivers/USB/Core/DeviceStandardReq.c **** }
 141:./tmk_core/protocol/lufa/LUFA-git/LUFA/Drivers/USB/Core/DeviceStandardReq.c **** 
 142:./tmk_core/protocol/lufa/LUFA-git/LUFA/Drivers/USB/Core/DeviceStandardReq.c **** static void USB_Device_SetConfiguration(void)
 143:./tmk_core/protocol/lufa/LUFA-git/LUFA/Drivers/USB/Core/DeviceStandardReq.c **** {
 144:./tmk_core/protocol/lufa/LUFA-git/LUFA/Drivers/USB/Core/DeviceStandardReq.c **** 	#if defined(FIXED_NUM_CONFIGURATIONS)
 145:./tmk_core/protocol/lufa/LUFA-git/LUFA/Drivers/USB/Core/DeviceStandardReq.c **** 	if ((uint8_t)USB_ControlRequest.wValue > FIXED_NUM_CONFIGURATIONS)
 146:./tmk_core/protocol/lufa/LUFA-git/LUFA/Drivers/USB/Core/DeviceStandardReq.c **** 	  return;
 147:./tmk_core/protocol/lufa/LUFA-git/LUFA/Drivers/USB/Core/DeviceStandardReq.c **** 	#else
 148:./tmk_core/protocol/lufa/LUFA-git/LUFA/Drivers/USB/Core/DeviceStandardReq.c **** 	USB_Descriptor_Device_t* DevDescriptorPtr;
 149:./tmk_core/protocol/lufa/LUFA-git/LUFA/Drivers/USB/Core/DeviceStandardReq.c **** 
 150:./tmk_core/protocol/lufa/LUFA-git/LUFA/Drivers/USB/Core/DeviceStandardReq.c **** 	#if defined(ARCH_HAS_MULTI_ADDRESS_SPACE)
 151:./tmk_core/protocol/lufa/LUFA-git/LUFA/Drivers/USB/Core/DeviceStandardReq.c **** 		#if defined(USE_FLASH_DESCRIPTORS)
 152:./tmk_core/protocol/lufa/LUFA-git/LUFA/Drivers/USB/Core/DeviceStandardReq.c **** 			#define MemoryAddressSpace  MEMSPACE_FLASH
 153:./tmk_core/protocol/lufa/LUFA-git/LUFA/Drivers/USB/Core/DeviceStandardReq.c **** 		#elif defined(USE_EEPROM_DESCRIPTORS)
 154:./tmk_core/protocol/lufa/LUFA-git/LUFA/Drivers/USB/Core/DeviceStandardReq.c **** 			#define MemoryAddressSpace  MEMSPACE_EEPROM
 155:./tmk_core/protocol/lufa/LUFA-git/LUFA/Drivers/USB/Core/DeviceStandardReq.c **** 		#elif defined(USE_SRAM_DESCRIPTORS)
 156:./tmk_core/protocol/lufa/LUFA-git/LUFA/Drivers/USB/Core/DeviceStandardReq.c **** 			#define MemoryAddressSpace  MEMSPACE_SRAM
 157:./tmk_core/protocol/lufa/LUFA-git/LUFA/Drivers/USB/Core/DeviceStandardReq.c **** 		#else
 158:./tmk_core/protocol/lufa/LUFA-git/LUFA/Drivers/USB/Core/DeviceStandardReq.c **** 			uint8_t MemoryAddressSpace;
 159:./tmk_core/protocol/lufa/LUFA-git/LUFA/Drivers/USB/Core/DeviceStandardReq.c **** 		#endif
 160:./tmk_core/protocol/lufa/LUFA-git/LUFA/Drivers/USB/Core/DeviceStandardReq.c **** 	#endif
 161:./tmk_core/protocol/lufa/LUFA-git/LUFA/Drivers/USB/Core/DeviceStandardReq.c **** 
 162:./tmk_core/protocol/lufa/LUFA-git/LUFA/Drivers/USB/Core/DeviceStandardReq.c **** 	if (CALLBACK_USB_GetDescriptor((DTYPE_Device << 8), 0, (void*)&DevDescriptorPtr
 163:./tmk_core/protocol/lufa/LUFA-git/LUFA/Drivers/USB/Core/DeviceStandardReq.c **** 	#if defined(ARCH_HAS_MULTI_ADDRESS_SPACE) && \
 164:./tmk_core/protocol/lufa/LUFA-git/LUFA/Drivers/USB/Core/DeviceStandardReq.c **** 	    !(defined(USE_FLASH_DESCRIPTORS) || defined(USE_EEPROM_DESCRIPTORS) || defined(USE_RAM_DESCRIP
 165:./tmk_core/protocol/lufa/LUFA-git/LUFA/Drivers/USB/Core/DeviceStandardReq.c **** 	                               , &MemoryAddressSpace
 166:./tmk_core/protocol/lufa/LUFA-git/LUFA/Drivers/USB/Core/DeviceStandardReq.c **** 	#endif
 167:./tmk_core/protocol/lufa/LUFA-git/LUFA/Drivers/USB/Core/DeviceStandardReq.c **** 	                               ) == NO_DESCRIPTOR)
 168:./tmk_core/protocol/lufa/LUFA-git/LUFA/Drivers/USB/Core/DeviceStandardReq.c **** 	{
 169:./tmk_core/protocol/lufa/LUFA-git/LUFA/Drivers/USB/Core/DeviceStandardReq.c **** 		return;
 170:./tmk_core/protocol/lufa/LUFA-git/LUFA/Drivers/USB/Core/DeviceStandardReq.c **** 	}
 171:./tmk_core/protocol/lufa/LUFA-git/LUFA/Drivers/USB/Core/DeviceStandardReq.c **** 
 172:./tmk_core/protocol/lufa/LUFA-git/LUFA/Drivers/USB/Core/DeviceStandardReq.c **** 	#if defined(ARCH_HAS_MULTI_ADDRESS_SPACE)
 173:./tmk_core/protocol/lufa/LUFA-git/LUFA/Drivers/USB/Core/DeviceStandardReq.c **** 	if (MemoryAddressSpace == MEMSPACE_FLASH)
 174:./tmk_core/protocol/lufa/LUFA-git/LUFA/Drivers/USB/Core/DeviceStandardReq.c **** 	{
 175:./tmk_core/protocol/lufa/LUFA-git/LUFA/Drivers/USB/Core/DeviceStandardReq.c **** 		if (((uint8_t)USB_ControlRequest.wValue > pgm_read_byte(&DevDescriptorPtr->NumberOfConfigurations
 176:./tmk_core/protocol/lufa/LUFA-git/LUFA/Drivers/USB/Core/DeviceStandardReq.c **** 		  return;
 177:./tmk_core/protocol/lufa/LUFA-git/LUFA/Drivers/USB/Core/DeviceStandardReq.c **** 	}
 178:./tmk_core/protocol/lufa/LUFA-git/LUFA/Drivers/USB/Core/DeviceStandardReq.c **** 	else if (MemoryAddressSpace == MEMSPACE_EEPROM)
 179:./tmk_core/protocol/lufa/LUFA-git/LUFA/Drivers/USB/Core/DeviceStandardReq.c **** 	{
 180:./tmk_core/protocol/lufa/LUFA-git/LUFA/Drivers/USB/Core/DeviceStandardReq.c **** 		if (((uint8_t)USB_ControlRequest.wValue > eeprom_read_byte(&DevDescriptorPtr->NumberOfConfigurati
 181:./tmk_core/protocol/lufa/LUFA-git/LUFA/Drivers/USB/Core/DeviceStandardReq.c **** 		  return;
 182:./tmk_core/protocol/lufa/LUFA-git/LUFA/Drivers/USB/Core/DeviceStandardReq.c **** 	}
 183:./tmk_core/protocol/lufa/LUFA-git/LUFA/Drivers/USB/Core/DeviceStandardReq.c **** 	else
 184:./tmk_core/protocol/lufa/LUFA-git/LUFA/Drivers/USB/Core/DeviceStandardReq.c **** 	{
 185:./tmk_core/protocol/lufa/LUFA-git/LUFA/Drivers/USB/Core/DeviceStandardReq.c **** 		if ((uint8_t)USB_ControlRequest.wValue > DevDescriptorPtr->NumberOfConfigurations)
 186:./tmk_core/protocol/lufa/LUFA-git/LUFA/Drivers/USB/Core/DeviceStandardReq.c **** 		  return;
 187:./tmk_core/protocol/lufa/LUFA-git/LUFA/Drivers/USB/Core/DeviceStandardReq.c **** 	}
 188:./tmk_core/protocol/lufa/LUFA-git/LUFA/Drivers/USB/Core/DeviceStandardReq.c **** 	#else
 189:./tmk_core/protocol/lufa/LUFA-git/LUFA/Drivers/USB/Core/DeviceStandardReq.c **** 	if ((uint8_t)USB_ControlRequest.wValue > DevDescriptorPtr->NumberOfConfigurations)
 190:./tmk_core/protocol/lufa/LUFA-git/LUFA/Drivers/USB/Core/DeviceStandardReq.c **** 	  return;
 191:./tmk_core/protocol/lufa/LUFA-git/LUFA/Drivers/USB/Core/DeviceStandardReq.c **** 	#endif
 192:./tmk_core/protocol/lufa/LUFA-git/LUFA/Drivers/USB/Core/DeviceStandardReq.c **** 	#endif
 193:./tmk_core/protocol/lufa/LUFA-git/LUFA/Drivers/USB/Core/DeviceStandardReq.c **** 
 194:./tmk_core/protocol/lufa/LUFA-git/LUFA/Drivers/USB/Core/DeviceStandardReq.c **** 	Endpoint_ClearSETUP();
 195:./tmk_core/protocol/lufa/LUFA-git/LUFA/Drivers/USB/Core/DeviceStandardReq.c **** 
 196:./tmk_core/protocol/lufa/LUFA-git/LUFA/Drivers/USB/Core/DeviceStandardReq.c **** 	USB_Device_ConfigurationNumber = (uint8_t)USB_ControlRequest.wValue;
 197:./tmk_core/protocol/lufa/LUFA-git/LUFA/Drivers/USB/Core/DeviceStandardReq.c **** 
 198:./tmk_core/protocol/lufa/LUFA-git/LUFA/Drivers/USB/Core/DeviceStandardReq.c **** 	Endpoint_ClearStatusStage();
 199:./tmk_core/protocol/lufa/LUFA-git/LUFA/Drivers/USB/Core/DeviceStandardReq.c **** 
 200:./tmk_core/protocol/lufa/LUFA-git/LUFA/Drivers/USB/Core/DeviceStandardReq.c **** 	if (USB_Device_ConfigurationNumber)
 201:./tmk_core/protocol/lufa/LUFA-git/LUFA/Drivers/USB/Core/DeviceStandardReq.c **** 	  USB_DeviceState = DEVICE_STATE_Configured;
 202:./tmk_core/protocol/lufa/LUFA-git/LUFA/Drivers/USB/Core/DeviceStandardReq.c **** 	else
 203:./tmk_core/protocol/lufa/LUFA-git/LUFA/Drivers/USB/Core/DeviceStandardReq.c **** 	  USB_DeviceState = (USB_Device_IsAddressSet()) ? DEVICE_STATE_Configured : DEVICE_STATE_Powered;
 204:./tmk_core/protocol/lufa/LUFA-git/LUFA/Drivers/USB/Core/DeviceStandardReq.c **** 
 205:./tmk_core/protocol/lufa/LUFA-git/LUFA/Drivers/USB/Core/DeviceStandardReq.c **** 	EVENT_USB_Device_ConfigurationChanged();
 206:./tmk_core/protocol/lufa/LUFA-git/LUFA/Drivers/USB/Core/DeviceStandardReq.c **** }
 207:./tmk_core/protocol/lufa/LUFA-git/LUFA/Drivers/USB/Core/DeviceStandardReq.c **** 
 208:./tmk_core/protocol/lufa/LUFA-git/LUFA/Drivers/USB/Core/DeviceStandardReq.c **** static void USB_Device_GetConfiguration(void)
 209:./tmk_core/protocol/lufa/LUFA-git/LUFA/Drivers/USB/Core/DeviceStandardReq.c **** {
 210:./tmk_core/protocol/lufa/LUFA-git/LUFA/Drivers/USB/Core/DeviceStandardReq.c **** 	Endpoint_ClearSETUP();
 211:./tmk_core/protocol/lufa/LUFA-git/LUFA/Drivers/USB/Core/DeviceStandardReq.c **** 
 212:./tmk_core/protocol/lufa/LUFA-git/LUFA/Drivers/USB/Core/DeviceStandardReq.c **** 	Endpoint_Write_8(USB_Device_ConfigurationNumber);
 213:./tmk_core/protocol/lufa/LUFA-git/LUFA/Drivers/USB/Core/DeviceStandardReq.c **** 	Endpoint_ClearIN();
 214:./tmk_core/protocol/lufa/LUFA-git/LUFA/Drivers/USB/Core/DeviceStandardReq.c **** 
 215:./tmk_core/protocol/lufa/LUFA-git/LUFA/Drivers/USB/Core/DeviceStandardReq.c **** 	Endpoint_ClearStatusStage();
 216:./tmk_core/protocol/lufa/LUFA-git/LUFA/Drivers/USB/Core/DeviceStandardReq.c **** }
 217:./tmk_core/protocol/lufa/LUFA-git/LUFA/Drivers/USB/Core/DeviceStandardReq.c **** 
 218:./tmk_core/protocol/lufa/LUFA-git/LUFA/Drivers/USB/Core/DeviceStandardReq.c **** #if !defined(NO_INTERNAL_SERIAL) && (USE_INTERNAL_SERIAL != NO_DESCRIPTOR)
 219:./tmk_core/protocol/lufa/LUFA-git/LUFA/Drivers/USB/Core/DeviceStandardReq.c **** static void USB_Device_GetInternalSerialDescriptor(void)
 220:./tmk_core/protocol/lufa/LUFA-git/LUFA/Drivers/USB/Core/DeviceStandardReq.c **** {
 221:./tmk_core/protocol/lufa/LUFA-git/LUFA/Drivers/USB/Core/DeviceStandardReq.c **** 	struct
 222:./tmk_core/protocol/lufa/LUFA-git/LUFA/Drivers/USB/Core/DeviceStandardReq.c **** 	{
 223:./tmk_core/protocol/lufa/LUFA-git/LUFA/Drivers/USB/Core/DeviceStandardReq.c **** 		USB_Descriptor_Header_t Header;
 224:./tmk_core/protocol/lufa/LUFA-git/LUFA/Drivers/USB/Core/DeviceStandardReq.c **** 		uint16_t                UnicodeString[INTERNAL_SERIAL_LENGTH_BITS / 4];
 225:./tmk_core/protocol/lufa/LUFA-git/LUFA/Drivers/USB/Core/DeviceStandardReq.c **** 	} SignatureDescriptor;
 226:./tmk_core/protocol/lufa/LUFA-git/LUFA/Drivers/USB/Core/DeviceStandardReq.c **** 
 227:./tmk_core/protocol/lufa/LUFA-git/LUFA/Drivers/USB/Core/DeviceStandardReq.c **** 	SignatureDescriptor.Header.Type = DTYPE_String;
 228:./tmk_core/protocol/lufa/LUFA-git/LUFA/Drivers/USB/Core/DeviceStandardReq.c **** 	SignatureDescriptor.Header.Size = USB_STRING_LEN(INTERNAL_SERIAL_LENGTH_BITS / 4);
 229:./tmk_core/protocol/lufa/LUFA-git/LUFA/Drivers/USB/Core/DeviceStandardReq.c **** 
 230:./tmk_core/protocol/lufa/LUFA-git/LUFA/Drivers/USB/Core/DeviceStandardReq.c **** 	USB_Device_GetSerialString(SignatureDescriptor.UnicodeString);
 231:./tmk_core/protocol/lufa/LUFA-git/LUFA/Drivers/USB/Core/DeviceStandardReq.c **** 
 232:./tmk_core/protocol/lufa/LUFA-git/LUFA/Drivers/USB/Core/DeviceStandardReq.c **** 	Endpoint_ClearSETUP();
 233:./tmk_core/protocol/lufa/LUFA-git/LUFA/Drivers/USB/Core/DeviceStandardReq.c **** 
 234:./tmk_core/protocol/lufa/LUFA-git/LUFA/Drivers/USB/Core/DeviceStandardReq.c **** 	Endpoint_Write_Control_Stream_LE(&SignatureDescriptor, sizeof(SignatureDescriptor));
 235:./tmk_core/protocol/lufa/LUFA-git/LUFA/Drivers/USB/Core/DeviceStandardReq.c **** 	Endpoint_ClearOUT();
 236:./tmk_core/protocol/lufa/LUFA-git/LUFA/Drivers/USB/Core/DeviceStandardReq.c **** }
 237:./tmk_core/protocol/lufa/LUFA-git/LUFA/Drivers/USB/Core/DeviceStandardReq.c **** #endif
 238:./tmk_core/protocol/lufa/LUFA-git/LUFA/Drivers/USB/Core/DeviceStandardReq.c **** 
 239:./tmk_core/protocol/lufa/LUFA-git/LUFA/Drivers/USB/Core/DeviceStandardReq.c **** static void USB_Device_GetDescriptor(void)
 240:./tmk_core/protocol/lufa/LUFA-git/LUFA/Drivers/USB/Core/DeviceStandardReq.c **** {
 241:./tmk_core/protocol/lufa/LUFA-git/LUFA/Drivers/USB/Core/DeviceStandardReq.c **** 	const void* DescriptorPointer;
 242:./tmk_core/protocol/lufa/LUFA-git/LUFA/Drivers/USB/Core/DeviceStandardReq.c **** 	uint16_t    DescriptorSize;
 243:./tmk_core/protocol/lufa/LUFA-git/LUFA/Drivers/USB/Core/DeviceStandardReq.c **** 
 244:./tmk_core/protocol/lufa/LUFA-git/LUFA/Drivers/USB/Core/DeviceStandardReq.c **** 	#if defined(ARCH_HAS_MULTI_ADDRESS_SPACE) && \
 245:./tmk_core/protocol/lufa/LUFA-git/LUFA/Drivers/USB/Core/DeviceStandardReq.c **** 	    !(defined(USE_FLASH_DESCRIPTORS) || defined(USE_EEPROM_DESCRIPTORS) || defined(USE_RAM_DESCRIP
 246:./tmk_core/protocol/lufa/LUFA-git/LUFA/Drivers/USB/Core/DeviceStandardReq.c **** 	uint8_t DescriptorAddressSpace;
 247:./tmk_core/protocol/lufa/LUFA-git/LUFA/Drivers/USB/Core/DeviceStandardReq.c **** 	#endif
 248:./tmk_core/protocol/lufa/LUFA-git/LUFA/Drivers/USB/Core/DeviceStandardReq.c **** 
 249:./tmk_core/protocol/lufa/LUFA-git/LUFA/Drivers/USB/Core/DeviceStandardReq.c **** 	#if !defined(NO_INTERNAL_SERIAL) && (USE_INTERNAL_SERIAL != NO_DESCRIPTOR)
 250:./tmk_core/protocol/lufa/LUFA-git/LUFA/Drivers/USB/Core/DeviceStandardReq.c **** 	if (USB_ControlRequest.wValue == ((DTYPE_String << 8) | USE_INTERNAL_SERIAL))
 251:./tmk_core/protocol/lufa/LUFA-git/LUFA/Drivers/USB/Core/DeviceStandardReq.c **** 	{
 252:./tmk_core/protocol/lufa/LUFA-git/LUFA/Drivers/USB/Core/DeviceStandardReq.c **** 		USB_Device_GetInternalSerialDescriptor();
 253:./tmk_core/protocol/lufa/LUFA-git/LUFA/Drivers/USB/Core/DeviceStandardReq.c **** 		return;
 254:./tmk_core/protocol/lufa/LUFA-git/LUFA/Drivers/USB/Core/DeviceStandardReq.c **** 	}
 255:./tmk_core/protocol/lufa/LUFA-git/LUFA/Drivers/USB/Core/DeviceStandardReq.c **** 	#endif
 256:./tmk_core/protocol/lufa/LUFA-git/LUFA/Drivers/USB/Core/DeviceStandardReq.c **** 
 257:./tmk_core/protocol/lufa/LUFA-git/LUFA/Drivers/USB/Core/DeviceStandardReq.c **** 	if ((DescriptorSize = CALLBACK_USB_GetDescriptor(USB_ControlRequest.wValue, USB_ControlRequest.wIn
 258:./tmk_core/protocol/lufa/LUFA-git/LUFA/Drivers/USB/Core/DeviceStandardReq.c **** 	                                                 &DescriptorPointer
 259:./tmk_core/protocol/lufa/LUFA-git/LUFA/Drivers/USB/Core/DeviceStandardReq.c **** 	#if defined(ARCH_HAS_MULTI_ADDRESS_SPACE) && \
 260:./tmk_core/protocol/lufa/LUFA-git/LUFA/Drivers/USB/Core/DeviceStandardReq.c **** 	    !(defined(USE_FLASH_DESCRIPTORS) || defined(USE_EEPROM_DESCRIPTORS) || defined(USE_RAM_DESCRIP
 261:./tmk_core/protocol/lufa/LUFA-git/LUFA/Drivers/USB/Core/DeviceStandardReq.c **** 	                                                 , &DescriptorAddressSpace
 262:./tmk_core/protocol/lufa/LUFA-git/LUFA/Drivers/USB/Core/DeviceStandardReq.c **** 	#endif
 263:./tmk_core/protocol/lufa/LUFA-git/LUFA/Drivers/USB/Core/DeviceStandardReq.c **** 													 )) == NO_DESCRIPTOR)
 264:./tmk_core/protocol/lufa/LUFA-git/LUFA/Drivers/USB/Core/DeviceStandardReq.c **** 	{
 265:./tmk_core/protocol/lufa/LUFA-git/LUFA/Drivers/USB/Core/DeviceStandardReq.c **** 		return;
 266:./tmk_core/protocol/lufa/LUFA-git/LUFA/Drivers/USB/Core/DeviceStandardReq.c **** 	}
 267:./tmk_core/protocol/lufa/LUFA-git/LUFA/Drivers/USB/Core/DeviceStandardReq.c **** 
 268:./tmk_core/protocol/lufa/LUFA-git/LUFA/Drivers/USB/Core/DeviceStandardReq.c **** 	Endpoint_ClearSETUP();
 269:./tmk_core/protocol/lufa/LUFA-git/LUFA/Drivers/USB/Core/DeviceStandardReq.c **** 
 270:./tmk_core/protocol/lufa/LUFA-git/LUFA/Drivers/USB/Core/DeviceStandardReq.c **** 	#if defined(USE_RAM_DESCRIPTORS) || !defined(ARCH_HAS_MULTI_ADDRESS_SPACE)
 271:./tmk_core/protocol/lufa/LUFA-git/LUFA/Drivers/USB/Core/DeviceStandardReq.c **** 	Endpoint_Write_Control_Stream_LE(DescriptorPointer, DescriptorSize);
 272:./tmk_core/protocol/lufa/LUFA-git/LUFA/Drivers/USB/Core/DeviceStandardReq.c **** 	#elif defined(USE_EEPROM_DESCRIPTORS)
 273:./tmk_core/protocol/lufa/LUFA-git/LUFA/Drivers/USB/Core/DeviceStandardReq.c **** 	Endpoint_Write_Control_EStream_LE(DescriptorPointer, DescriptorSize);
 274:./tmk_core/protocol/lufa/LUFA-git/LUFA/Drivers/USB/Core/DeviceStandardReq.c **** 	#elif defined(USE_FLASH_DESCRIPTORS)
 275:./tmk_core/protocol/lufa/LUFA-git/LUFA/Drivers/USB/Core/DeviceStandardReq.c **** 	Endpoint_Write_Control_PStream_LE(DescriptorPointer, DescriptorSize);
 276:./tmk_core/protocol/lufa/LUFA-git/LUFA/Drivers/USB/Core/DeviceStandardReq.c **** 	#else
 277:./tmk_core/protocol/lufa/LUFA-git/LUFA/Drivers/USB/Core/DeviceStandardReq.c **** 	if (DescriptorAddressSpace == MEMSPACE_FLASH)
 278:./tmk_core/protocol/lufa/LUFA-git/LUFA/Drivers/USB/Core/DeviceStandardReq.c **** 	  Endpoint_Write_Control_PStream_LE(DescriptorPointer, DescriptorSize);
 279:./tmk_core/protocol/lufa/LUFA-git/LUFA/Drivers/USB/Core/DeviceStandardReq.c **** 	else if (DescriptorAddressSpace == MEMSPACE_EEPROM)
 280:./tmk_core/protocol/lufa/LUFA-git/LUFA/Drivers/USB/Core/DeviceStandardReq.c **** 	  Endpoint_Write_Control_EStream_LE(DescriptorPointer, DescriptorSize);
 281:./tmk_core/protocol/lufa/LUFA-git/LUFA/Drivers/USB/Core/DeviceStandardReq.c **** 	else
 282:./tmk_core/protocol/lufa/LUFA-git/LUFA/Drivers/USB/Core/DeviceStandardReq.c **** 	  Endpoint_Write_Control_Stream_LE(DescriptorPointer, DescriptorSize);
 283:./tmk_core/protocol/lufa/LUFA-git/LUFA/Drivers/USB/Core/DeviceStandardReq.c **** 	#endif
 284:./tmk_core/protocol/lufa/LUFA-git/LUFA/Drivers/USB/Core/DeviceStandardReq.c **** 
 285:./tmk_core/protocol/lufa/LUFA-git/LUFA/Drivers/USB/Core/DeviceStandardReq.c **** 	Endpoint_ClearOUT();
 286:./tmk_core/protocol/lufa/LUFA-git/LUFA/Drivers/USB/Core/DeviceStandardReq.c **** }
 287:./tmk_core/protocol/lufa/LUFA-git/LUFA/Drivers/USB/Core/DeviceStandardReq.c **** 
 288:./tmk_core/protocol/lufa/LUFA-git/LUFA/Drivers/USB/Core/DeviceStandardReq.c **** static void USB_Device_GetStatus(void)
 142               		.loc 1 288 13 view .LVU29
 143               	.LBB178:
 289:./tmk_core/protocol/lufa/LUFA-git/LUFA/Drivers/USB/Core/DeviceStandardReq.c **** {
 290:./tmk_core/protocol/lufa/LUFA-git/LUFA/Drivers/USB/Core/DeviceStandardReq.c **** 	uint8_t CurrentStatus = 0;
 144               		.loc 1 290 2 view .LVU30
 145               	.LVL6:
 291:./tmk_core/protocol/lufa/LUFA-git/LUFA/Drivers/USB/Core/DeviceStandardReq.c **** 
 292:./tmk_core/protocol/lufa/LUFA-git/LUFA/Drivers/USB/Core/DeviceStandardReq.c **** 	switch (USB_ControlRequest.bmRequestType)
 146               		.loc 1 292 2 view .LVU31
 293:./tmk_core/protocol/lufa/LUFA-git/LUFA/Drivers/USB/Core/DeviceStandardReq.c **** 	{
 294:./tmk_core/protocol/lufa/LUFA-git/LUFA/Drivers/USB/Core/DeviceStandardReq.c **** 		case (REQDIR_DEVICETOHOST | REQTYPE_STANDARD | REQREC_DEVICE):
 295:./tmk_core/protocol/lufa/LUFA-git/LUFA/Drivers/USB/Core/DeviceStandardReq.c **** 			#if !defined(NO_DEVICE_SELF_POWER)
 296:./tmk_core/protocol/lufa/LUFA-git/LUFA/Drivers/USB/Core/DeviceStandardReq.c **** 			if (USB_Device_CurrentlySelfPowered)
 297:./tmk_core/protocol/lufa/LUFA-git/LUFA/Drivers/USB/Core/DeviceStandardReq.c **** 			  CurrentStatus |= FEATURE_SELFPOWERED_ENABLED;
 298:./tmk_core/protocol/lufa/LUFA-git/LUFA/Drivers/USB/Core/DeviceStandardReq.c **** 			#endif
 299:./tmk_core/protocol/lufa/LUFA-git/LUFA/Drivers/USB/Core/DeviceStandardReq.c **** 
 300:./tmk_core/protocol/lufa/LUFA-git/LUFA/Drivers/USB/Core/DeviceStandardReq.c **** 			#if !defined(NO_DEVICE_REMOTE_WAKEUP)
 301:./tmk_core/protocol/lufa/LUFA-git/LUFA/Drivers/USB/Core/DeviceStandardReq.c **** 			if (USB_Device_RemoteWakeupEnabled)
 302:./tmk_core/protocol/lufa/LUFA-git/LUFA/Drivers/USB/Core/DeviceStandardReq.c **** 			  CurrentStatus |= FEATURE_REMOTE_WAKEUP_ENABLED;
 303:./tmk_core/protocol/lufa/LUFA-git/LUFA/Drivers/USB/Core/DeviceStandardReq.c **** 			#endif
 304:./tmk_core/protocol/lufa/LUFA-git/LUFA/Drivers/USB/Core/DeviceStandardReq.c **** 			break;
 305:./tmk_core/protocol/lufa/LUFA-git/LUFA/Drivers/USB/Core/DeviceStandardReq.c **** 		case (REQDIR_DEVICETOHOST | REQTYPE_STANDARD | REQREC_ENDPOINT):
 306:./tmk_core/protocol/lufa/LUFA-git/LUFA/Drivers/USB/Core/DeviceStandardReq.c **** 			#if !defined(CONTROL_ONLY_DEVICE)
 307:./tmk_core/protocol/lufa/LUFA-git/LUFA/Drivers/USB/Core/DeviceStandardReq.c **** 			Endpoint_SelectEndpoint((uint8_t)USB_ControlRequest.wIndex & ENDPOINT_EPNUM_MASK);
 147               		.loc 1 307 4 view .LVU32
 148 0058 8091 0000 		lds r24,USB_ControlRequest+4
 149               	.LVL7:
 150               		.loc 1 307 4 is_stmt 0 view .LVU33
 151 005c 8F70      		andi r24,lo8(15)
 152               	.LVL8:
 153               	.LBB179:
 154               	.LBI179:
 267:./tmk_core/protocol/lufa/LUFA-git/LUFA/Drivers/USB/Core/AVR8/../AVR8/Endpoint_AVR8.h **** 			{
 155               		.loc 2 267 23 is_stmt 1 view .LVU34
 156               	.LBB180:
 270:./tmk_core/protocol/lufa/LUFA-git/LUFA/Drivers/USB/Core/AVR8/../AVR8/Endpoint_AVR8.h **** 				#endif
 157               		.loc 2 270 6 view .LVU35
 270:./tmk_core/protocol/lufa/LUFA-git/LUFA/Drivers/USB/Core/AVR8/../AVR8/Endpoint_AVR8.h **** 				#endif
 158               		.loc 2 270 12 is_stmt 0 view .LVU36
 159 005e 8093 E900 		sts 233,r24
 160               	.LVL9:
 270:./tmk_core/protocol/lufa/LUFA-git/LUFA/Drivers/USB/Core/AVR8/../AVR8/Endpoint_AVR8.h **** 				#endif
 161               		.loc 2 270 12 view .LVU37
 162               	.LBE180:
 163               	.LBE179:
 308:./tmk_core/protocol/lufa/LUFA-git/LUFA/Drivers/USB/Core/DeviceStandardReq.c **** 
 309:./tmk_core/protocol/lufa/LUFA-git/LUFA/Drivers/USB/Core/DeviceStandardReq.c **** 			CurrentStatus = Endpoint_IsStalled();
 164               		.loc 1 309 4 is_stmt 1 view .LVU38
 165               	.LBB181:
 166               	.LBI181:
 511:./tmk_core/protocol/lufa/LUFA-git/LUFA/Drivers/USB/Core/AVR8/../AVR8/Endpoint_AVR8.h **** 			{
 167               		.loc 2 511 23 view .LVU39
 168               	.LBB182:
 513:./tmk_core/protocol/lufa/LUFA-git/LUFA/Drivers/USB/Core/AVR8/../AVR8/Endpoint_AVR8.h **** 			}
 169               		.loc 2 513 5 view .LVU40
 513:./tmk_core/protocol/lufa/LUFA-git/LUFA/Drivers/USB/Core/AVR8/../AVR8/Endpoint_AVR8.h **** 			}
 170               		.loc 2 513 14 is_stmt 0 view .LVU41
 171 0062 8091 EB00 		lds r24,235
 513:./tmk_core/protocol/lufa/LUFA-git/LUFA/Drivers/USB/Core/AVR8/../AVR8/Endpoint_AVR8.h **** 			}
 172               		.loc 2 513 46 view .LVU42
 173 0066 85FB      		bst r24,5
 174 0068 8827      		clr r24
 175 006a 80F9      		bld r24,0
 176               	.LVL10:
 513:./tmk_core/protocol/lufa/LUFA-git/LUFA/Drivers/USB/Core/AVR8/../AVR8/Endpoint_AVR8.h **** 			}
 177               		.loc 2 513 46 view .LVU43
 178               	.LBE182:
 179               	.LBE181:
 310:./tmk_core/protocol/lufa/LUFA-git/LUFA/Drivers/USB/Core/DeviceStandardReq.c **** 
 311:./tmk_core/protocol/lufa/LUFA-git/LUFA/Drivers/USB/Core/DeviceStandardReq.c **** 			Endpoint_SelectEndpoint(ENDPOINT_CONTROLEP);
 180               		.loc 1 311 4 is_stmt 1 view .LVU44
 181               	.LBB183:
 182               	.LBI183:
 267:./tmk_core/protocol/lufa/LUFA-git/LUFA/Drivers/USB/Core/AVR8/../AVR8/Endpoint_AVR8.h **** 			{
 183               		.loc 2 267 23 view .LVU45
 184               	.LBB184:
 270:./tmk_core/protocol/lufa/LUFA-git/LUFA/Drivers/USB/Core/AVR8/../AVR8/Endpoint_AVR8.h **** 				#endif
 185               		.loc 2 270 6 view .LVU46
 270:./tmk_core/protocol/lufa/LUFA-git/LUFA/Drivers/USB/Core/AVR8/../AVR8/Endpoint_AVR8.h **** 				#endif
 186               		.loc 2 270 12 is_stmt 0 view .LVU47
 187 006c 1092 E900 		sts 233,__zero_reg__
 272:./tmk_core/protocol/lufa/LUFA-git/LUFA/Drivers/USB/Core/AVR8/../AVR8/Endpoint_AVR8.h **** 
 188               		.loc 2 272 4 view .LVU48
 189 0070 00C0      		rjmp .L13
 190               	.LVL11:
 191               	.L11:
 272:./tmk_core/protocol/lufa/LUFA-git/LUFA/Drivers/USB/Core/AVR8/../AVR8/Endpoint_AVR8.h **** 
 192               		.loc 2 272 4 view .LVU49
 193               	.LBE184:
 194               	.LBE183:
 195               	.LBE178:
 196               	.LBE177:
  76:./tmk_core/protocol/lufa/LUFA-git/LUFA/Drivers/USB/Core/DeviceStandardReq.c **** 				}
 197               		.loc 1 76 6 is_stmt 1 view .LVU50
 198               	.LBB192:
 288:./tmk_core/protocol/lufa/LUFA-git/LUFA/Drivers/USB/Core/DeviceStandardReq.c **** {
 199               		.loc 1 288 13 view .LVU51
 200               	.LBB191:
 290:./tmk_core/protocol/lufa/LUFA-git/LUFA/Drivers/USB/Core/DeviceStandardReq.c **** 
 201               		.loc 1 290 2 view .LVU52
 292:./tmk_core/protocol/lufa/LUFA-git/LUFA/Drivers/USB/Core/DeviceStandardReq.c **** 	{
 202               		.loc 1 292 2 view .LVU53
 296:./tmk_core/protocol/lufa/LUFA-git/LUFA/Drivers/USB/Core/DeviceStandardReq.c **** 			  CurrentStatus |= FEATURE_SELFPOWERED_ENABLED;
 203               		.loc 1 296 4 view .LVU54
 296:./tmk_core/protocol/lufa/LUFA-git/LUFA/Drivers/USB/Core/DeviceStandardReq.c **** 			  CurrentStatus |= FEATURE_SELFPOWERED_ENABLED;
 204               		.loc 1 296 7 is_stmt 0 view .LVU55
 205 0072 8091 0000 		lds r24,USB_Device_CurrentlySelfPowered
 206               	.LVL12:
 301:./tmk_core/protocol/lufa/LUFA-git/LUFA/Drivers/USB/Core/DeviceStandardReq.c **** 			  CurrentStatus |= FEATURE_REMOTE_WAKEUP_ENABLED;
 207               		.loc 1 301 4 is_stmt 1 view .LVU56
 301:./tmk_core/protocol/lufa/LUFA-git/LUFA/Drivers/USB/Core/DeviceStandardReq.c **** 			  CurrentStatus |= FEATURE_REMOTE_WAKEUP_ENABLED;
 208               		.loc 1 301 7 is_stmt 0 view .LVU57
 209 0076 9091 0000 		lds r25,USB_Device_RemoteWakeupEnabled
 210 007a 9111      		cpse r25,__zero_reg__
 302:./tmk_core/protocol/lufa/LUFA-git/LUFA/Drivers/USB/Core/DeviceStandardReq.c **** 			#endif
 211               		.loc 1 302 6 is_stmt 1 view .LVU58
 302:./tmk_core/protocol/lufa/LUFA-git/LUFA/Drivers/USB/Core/DeviceStandardReq.c **** 			#endif
 212               		.loc 1 302 20 is_stmt 0 view .LVU59
 213 007c 8260      		ori r24,lo8(2)
 214               	.LVL13:
 215               	.L13:
 312:./tmk_core/protocol/lufa/LUFA-git/LUFA/Drivers/USB/Core/DeviceStandardReq.c **** 			#endif
 313:./tmk_core/protocol/lufa/LUFA-git/LUFA/Drivers/USB/Core/DeviceStandardReq.c **** 
 314:./tmk_core/protocol/lufa/LUFA-git/LUFA/Drivers/USB/Core/DeviceStandardReq.c **** 			break;
 315:./tmk_core/protocol/lufa/LUFA-git/LUFA/Drivers/USB/Core/DeviceStandardReq.c **** 		default:
 316:./tmk_core/protocol/lufa/LUFA-git/LUFA/Drivers/USB/Core/DeviceStandardReq.c **** 			return;
 317:./tmk_core/protocol/lufa/LUFA-git/LUFA/Drivers/USB/Core/DeviceStandardReq.c **** 	}
 318:./tmk_core/protocol/lufa/LUFA-git/LUFA/Drivers/USB/Core/DeviceStandardReq.c **** 
 319:./tmk_core/protocol/lufa/LUFA-git/LUFA/Drivers/USB/Core/DeviceStandardReq.c **** 	Endpoint_ClearSETUP();
 216               		.loc 1 319 2 is_stmt 1 view .LVU60
 217               	.LBB185:
 218               	.LBI185:
 442:./tmk_core/protocol/lufa/LUFA-git/LUFA/Drivers/USB/Core/AVR8/../AVR8/Endpoint_AVR8.h **** 			{
 219               		.loc 2 442 23 view .LVU61
 220               	.LBB186:
 444:./tmk_core/protocol/lufa/LUFA-git/LUFA/Drivers/USB/Core/AVR8/../AVR8/Endpoint_AVR8.h **** 			}
 221               		.loc 2 444 5 view .LVU62
 444:./tmk_core/protocol/lufa/LUFA-git/LUFA/Drivers/USB/Core/AVR8/../AVR8/Endpoint_AVR8.h **** 			}
 222               		.loc 2 444 12 is_stmt 0 view .LVU63
 223 007e 9091 E800 		lds r25,232
 224 0082 977F      		andi r25,lo8(-9)
 225 0084 9093 E800 		sts 232,r25
 226               	.LBE186:
 227               	.LBE185:
 320:./tmk_core/protocol/lufa/LUFA-git/LUFA/Drivers/USB/Core/DeviceStandardReq.c **** 
 321:./tmk_core/protocol/lufa/LUFA-git/LUFA/Drivers/USB/Core/DeviceStandardReq.c **** 	Endpoint_Write_16_LE(CurrentStatus);
 228               		.loc 1 321 2 is_stmt 1 view .LVU64
 229               	.LVL14:
 230               	.LBB187:
 231               	.LBI187:
 543:./tmk_core/protocol/lufa/LUFA-git/LUFA/Drivers/USB/Core/AVR8/../AVR8/Endpoint_AVR8.h **** 			}
 544:./tmk_core/protocol/lufa/LUFA-git/LUFA/Drivers/USB/Core/AVR8/../AVR8/Endpoint_AVR8.h **** 
 545:./tmk_core/protocol/lufa/LUFA-git/LUFA/Drivers/USB/Core/AVR8/../AVR8/Endpoint_AVR8.h **** 			/** Writes one byte to the currently selected endpoint's bank, for IN direction endpoints.
 546:./tmk_core/protocol/lufa/LUFA-git/LUFA/Drivers/USB/Core/AVR8/../AVR8/Endpoint_AVR8.h **** 			 *
 547:./tmk_core/protocol/lufa/LUFA-git/LUFA/Drivers/USB/Core/AVR8/../AVR8/Endpoint_AVR8.h **** 			 *  \ingroup Group_EndpointPrimitiveRW_AVR8
 548:./tmk_core/protocol/lufa/LUFA-git/LUFA/Drivers/USB/Core/AVR8/../AVR8/Endpoint_AVR8.h **** 			 *
 549:./tmk_core/protocol/lufa/LUFA-git/LUFA/Drivers/USB/Core/AVR8/../AVR8/Endpoint_AVR8.h **** 			 *  \param[in] Data  Data to write into the the currently selected endpoint's FIFO buffer.
 550:./tmk_core/protocol/lufa/LUFA-git/LUFA/Drivers/USB/Core/AVR8/../AVR8/Endpoint_AVR8.h **** 			 */
 551:./tmk_core/protocol/lufa/LUFA-git/LUFA/Drivers/USB/Core/AVR8/../AVR8/Endpoint_AVR8.h **** 			static inline void Endpoint_Write_8(const uint8_t Data) ATTR_ALWAYS_INLINE;
 552:./tmk_core/protocol/lufa/LUFA-git/LUFA/Drivers/USB/Core/AVR8/../AVR8/Endpoint_AVR8.h **** 			static inline void Endpoint_Write_8(const uint8_t Data)
 553:./tmk_core/protocol/lufa/LUFA-git/LUFA/Drivers/USB/Core/AVR8/../AVR8/Endpoint_AVR8.h **** 			{
 554:./tmk_core/protocol/lufa/LUFA-git/LUFA/Drivers/USB/Core/AVR8/../AVR8/Endpoint_AVR8.h **** 				UEDATX = Data;
 555:./tmk_core/protocol/lufa/LUFA-git/LUFA/Drivers/USB/Core/AVR8/../AVR8/Endpoint_AVR8.h **** 			}
 556:./tmk_core/protocol/lufa/LUFA-git/LUFA/Drivers/USB/Core/AVR8/../AVR8/Endpoint_AVR8.h **** 
 557:./tmk_core/protocol/lufa/LUFA-git/LUFA/Drivers/USB/Core/AVR8/../AVR8/Endpoint_AVR8.h **** 			/** Discards one byte from the currently selected endpoint's bank, for OUT direction endpoints.
 558:./tmk_core/protocol/lufa/LUFA-git/LUFA/Drivers/USB/Core/AVR8/../AVR8/Endpoint_AVR8.h **** 			 *
 559:./tmk_core/protocol/lufa/LUFA-git/LUFA/Drivers/USB/Core/AVR8/../AVR8/Endpoint_AVR8.h **** 			 *  \ingroup Group_EndpointPrimitiveRW_AVR8
 560:./tmk_core/protocol/lufa/LUFA-git/LUFA/Drivers/USB/Core/AVR8/../AVR8/Endpoint_AVR8.h **** 			 */
 561:./tmk_core/protocol/lufa/LUFA-git/LUFA/Drivers/USB/Core/AVR8/../AVR8/Endpoint_AVR8.h **** 			static inline void Endpoint_Discard_8(void) ATTR_ALWAYS_INLINE;
 562:./tmk_core/protocol/lufa/LUFA-git/LUFA/Drivers/USB/Core/AVR8/../AVR8/Endpoint_AVR8.h **** 			static inline void Endpoint_Discard_8(void)
 563:./tmk_core/protocol/lufa/LUFA-git/LUFA/Drivers/USB/Core/AVR8/../AVR8/Endpoint_AVR8.h **** 			{
 564:./tmk_core/protocol/lufa/LUFA-git/LUFA/Drivers/USB/Core/AVR8/../AVR8/Endpoint_AVR8.h **** 				uint8_t Dummy;
 565:./tmk_core/protocol/lufa/LUFA-git/LUFA/Drivers/USB/Core/AVR8/../AVR8/Endpoint_AVR8.h **** 
 566:./tmk_core/protocol/lufa/LUFA-git/LUFA/Drivers/USB/Core/AVR8/../AVR8/Endpoint_AVR8.h **** 				Dummy = UEDATX;
 567:./tmk_core/protocol/lufa/LUFA-git/LUFA/Drivers/USB/Core/AVR8/../AVR8/Endpoint_AVR8.h **** 
 568:./tmk_core/protocol/lufa/LUFA-git/LUFA/Drivers/USB/Core/AVR8/../AVR8/Endpoint_AVR8.h **** 				(void)Dummy;
 569:./tmk_core/protocol/lufa/LUFA-git/LUFA/Drivers/USB/Core/AVR8/../AVR8/Endpoint_AVR8.h **** 			}
 570:./tmk_core/protocol/lufa/LUFA-git/LUFA/Drivers/USB/Core/AVR8/../AVR8/Endpoint_AVR8.h **** 
 571:./tmk_core/protocol/lufa/LUFA-git/LUFA/Drivers/USB/Core/AVR8/../AVR8/Endpoint_AVR8.h **** 			/** Reads two bytes from the currently selected endpoint's bank in little endian format, for OUT
 572:./tmk_core/protocol/lufa/LUFA-git/LUFA/Drivers/USB/Core/AVR8/../AVR8/Endpoint_AVR8.h **** 			 *  direction endpoints.
 573:./tmk_core/protocol/lufa/LUFA-git/LUFA/Drivers/USB/Core/AVR8/../AVR8/Endpoint_AVR8.h **** 			 *
 574:./tmk_core/protocol/lufa/LUFA-git/LUFA/Drivers/USB/Core/AVR8/../AVR8/Endpoint_AVR8.h **** 			 *  \ingroup Group_EndpointPrimitiveRW_AVR8
 575:./tmk_core/protocol/lufa/LUFA-git/LUFA/Drivers/USB/Core/AVR8/../AVR8/Endpoint_AVR8.h **** 			 *
 576:./tmk_core/protocol/lufa/LUFA-git/LUFA/Drivers/USB/Core/AVR8/../AVR8/Endpoint_AVR8.h **** 			 *  \return Next two bytes in the currently selected endpoint's FIFO buffer.
 577:./tmk_core/protocol/lufa/LUFA-git/LUFA/Drivers/USB/Core/AVR8/../AVR8/Endpoint_AVR8.h **** 			 */
 578:./tmk_core/protocol/lufa/LUFA-git/LUFA/Drivers/USB/Core/AVR8/../AVR8/Endpoint_AVR8.h **** 			static inline uint16_t Endpoint_Read_16_LE(void) ATTR_WARN_UNUSED_RESULT ATTR_ALWAYS_INLINE;
 579:./tmk_core/protocol/lufa/LUFA-git/LUFA/Drivers/USB/Core/AVR8/../AVR8/Endpoint_AVR8.h **** 			static inline uint16_t Endpoint_Read_16_LE(void)
 580:./tmk_core/protocol/lufa/LUFA-git/LUFA/Drivers/USB/Core/AVR8/../AVR8/Endpoint_AVR8.h **** 			{
 581:./tmk_core/protocol/lufa/LUFA-git/LUFA/Drivers/USB/Core/AVR8/../AVR8/Endpoint_AVR8.h **** 				union
 582:./tmk_core/protocol/lufa/LUFA-git/LUFA/Drivers/USB/Core/AVR8/../AVR8/Endpoint_AVR8.h **** 				{
 583:./tmk_core/protocol/lufa/LUFA-git/LUFA/Drivers/USB/Core/AVR8/../AVR8/Endpoint_AVR8.h **** 					uint16_t Value;
 584:./tmk_core/protocol/lufa/LUFA-git/LUFA/Drivers/USB/Core/AVR8/../AVR8/Endpoint_AVR8.h **** 					uint8_t  Bytes[2];
 585:./tmk_core/protocol/lufa/LUFA-git/LUFA/Drivers/USB/Core/AVR8/../AVR8/Endpoint_AVR8.h **** 				} Data;
 586:./tmk_core/protocol/lufa/LUFA-git/LUFA/Drivers/USB/Core/AVR8/../AVR8/Endpoint_AVR8.h **** 
 587:./tmk_core/protocol/lufa/LUFA-git/LUFA/Drivers/USB/Core/AVR8/../AVR8/Endpoint_AVR8.h **** 				Data.Bytes[0] = UEDATX;
 588:./tmk_core/protocol/lufa/LUFA-git/LUFA/Drivers/USB/Core/AVR8/../AVR8/Endpoint_AVR8.h **** 				Data.Bytes[1] = UEDATX;
 589:./tmk_core/protocol/lufa/LUFA-git/LUFA/Drivers/USB/Core/AVR8/../AVR8/Endpoint_AVR8.h **** 
 590:./tmk_core/protocol/lufa/LUFA-git/LUFA/Drivers/USB/Core/AVR8/../AVR8/Endpoint_AVR8.h **** 				return Data.Value;
 591:./tmk_core/protocol/lufa/LUFA-git/LUFA/Drivers/USB/Core/AVR8/../AVR8/Endpoint_AVR8.h **** 			}
 592:./tmk_core/protocol/lufa/LUFA-git/LUFA/Drivers/USB/Core/AVR8/../AVR8/Endpoint_AVR8.h **** 
 593:./tmk_core/protocol/lufa/LUFA-git/LUFA/Drivers/USB/Core/AVR8/../AVR8/Endpoint_AVR8.h **** 			/** Reads two bytes from the currently selected endpoint's bank in big endian format, for OUT
 594:./tmk_core/protocol/lufa/LUFA-git/LUFA/Drivers/USB/Core/AVR8/../AVR8/Endpoint_AVR8.h **** 			 *  direction endpoints.
 595:./tmk_core/protocol/lufa/LUFA-git/LUFA/Drivers/USB/Core/AVR8/../AVR8/Endpoint_AVR8.h **** 			 *
 596:./tmk_core/protocol/lufa/LUFA-git/LUFA/Drivers/USB/Core/AVR8/../AVR8/Endpoint_AVR8.h **** 			 *  \ingroup Group_EndpointPrimitiveRW_AVR8
 597:./tmk_core/protocol/lufa/LUFA-git/LUFA/Drivers/USB/Core/AVR8/../AVR8/Endpoint_AVR8.h **** 			 *
 598:./tmk_core/protocol/lufa/LUFA-git/LUFA/Drivers/USB/Core/AVR8/../AVR8/Endpoint_AVR8.h **** 			 *  \return Next two bytes in the currently selected endpoint's FIFO buffer.
 599:./tmk_core/protocol/lufa/LUFA-git/LUFA/Drivers/USB/Core/AVR8/../AVR8/Endpoint_AVR8.h **** 			 */
 600:./tmk_core/protocol/lufa/LUFA-git/LUFA/Drivers/USB/Core/AVR8/../AVR8/Endpoint_AVR8.h **** 			static inline uint16_t Endpoint_Read_16_BE(void) ATTR_WARN_UNUSED_RESULT ATTR_ALWAYS_INLINE;
 601:./tmk_core/protocol/lufa/LUFA-git/LUFA/Drivers/USB/Core/AVR8/../AVR8/Endpoint_AVR8.h **** 			static inline uint16_t Endpoint_Read_16_BE(void)
 602:./tmk_core/protocol/lufa/LUFA-git/LUFA/Drivers/USB/Core/AVR8/../AVR8/Endpoint_AVR8.h **** 			{
 603:./tmk_core/protocol/lufa/LUFA-git/LUFA/Drivers/USB/Core/AVR8/../AVR8/Endpoint_AVR8.h **** 				union
 604:./tmk_core/protocol/lufa/LUFA-git/LUFA/Drivers/USB/Core/AVR8/../AVR8/Endpoint_AVR8.h **** 				{
 605:./tmk_core/protocol/lufa/LUFA-git/LUFA/Drivers/USB/Core/AVR8/../AVR8/Endpoint_AVR8.h **** 					uint16_t Value;
 606:./tmk_core/protocol/lufa/LUFA-git/LUFA/Drivers/USB/Core/AVR8/../AVR8/Endpoint_AVR8.h **** 					uint8_t  Bytes[2];
 607:./tmk_core/protocol/lufa/LUFA-git/LUFA/Drivers/USB/Core/AVR8/../AVR8/Endpoint_AVR8.h **** 				} Data;
 608:./tmk_core/protocol/lufa/LUFA-git/LUFA/Drivers/USB/Core/AVR8/../AVR8/Endpoint_AVR8.h **** 
 609:./tmk_core/protocol/lufa/LUFA-git/LUFA/Drivers/USB/Core/AVR8/../AVR8/Endpoint_AVR8.h **** 				Data.Bytes[1] = UEDATX;
 610:./tmk_core/protocol/lufa/LUFA-git/LUFA/Drivers/USB/Core/AVR8/../AVR8/Endpoint_AVR8.h **** 				Data.Bytes[0] = UEDATX;
 611:./tmk_core/protocol/lufa/LUFA-git/LUFA/Drivers/USB/Core/AVR8/../AVR8/Endpoint_AVR8.h **** 
 612:./tmk_core/protocol/lufa/LUFA-git/LUFA/Drivers/USB/Core/AVR8/../AVR8/Endpoint_AVR8.h **** 				return Data.Value;
 613:./tmk_core/protocol/lufa/LUFA-git/LUFA/Drivers/USB/Core/AVR8/../AVR8/Endpoint_AVR8.h **** 			}
 614:./tmk_core/protocol/lufa/LUFA-git/LUFA/Drivers/USB/Core/AVR8/../AVR8/Endpoint_AVR8.h **** 
 615:./tmk_core/protocol/lufa/LUFA-git/LUFA/Drivers/USB/Core/AVR8/../AVR8/Endpoint_AVR8.h **** 			/** Writes two bytes to the currently selected endpoint's bank in little endian format, for IN
 616:./tmk_core/protocol/lufa/LUFA-git/LUFA/Drivers/USB/Core/AVR8/../AVR8/Endpoint_AVR8.h **** 			 *  direction endpoints.
 617:./tmk_core/protocol/lufa/LUFA-git/LUFA/Drivers/USB/Core/AVR8/../AVR8/Endpoint_AVR8.h **** 			 *
 618:./tmk_core/protocol/lufa/LUFA-git/LUFA/Drivers/USB/Core/AVR8/../AVR8/Endpoint_AVR8.h **** 			 *  \ingroup Group_EndpointPrimitiveRW_AVR8
 619:./tmk_core/protocol/lufa/LUFA-git/LUFA/Drivers/USB/Core/AVR8/../AVR8/Endpoint_AVR8.h **** 			 *
 620:./tmk_core/protocol/lufa/LUFA-git/LUFA/Drivers/USB/Core/AVR8/../AVR8/Endpoint_AVR8.h **** 			 *  \param[in] Data  Data to write to the currently selected endpoint's FIFO buffer.
 621:./tmk_core/protocol/lufa/LUFA-git/LUFA/Drivers/USB/Core/AVR8/../AVR8/Endpoint_AVR8.h **** 			 */
 622:./tmk_core/protocol/lufa/LUFA-git/LUFA/Drivers/USB/Core/AVR8/../AVR8/Endpoint_AVR8.h **** 			static inline void Endpoint_Write_16_LE(const uint16_t Data) ATTR_ALWAYS_INLINE;
 623:./tmk_core/protocol/lufa/LUFA-git/LUFA/Drivers/USB/Core/AVR8/../AVR8/Endpoint_AVR8.h **** 			static inline void Endpoint_Write_16_LE(const uint16_t Data)
 232               		.loc 2 623 23 view .LVU65
 233               	.LBB188:
 624:./tmk_core/protocol/lufa/LUFA-git/LUFA/Drivers/USB/Core/AVR8/../AVR8/Endpoint_AVR8.h **** 			{
 625:./tmk_core/protocol/lufa/LUFA-git/LUFA/Drivers/USB/Core/AVR8/../AVR8/Endpoint_AVR8.h **** 				UEDATX = (Data & 0xFF);
 234               		.loc 2 625 5 view .LVU66
 235               		.loc 2 625 12 is_stmt 0 view .LVU67
 236 0088 8093 F100 		sts 241,r24
 626:./tmk_core/protocol/lufa/LUFA-git/LUFA/Drivers/USB/Core/AVR8/../AVR8/Endpoint_AVR8.h **** 				UEDATX = (Data >> 8);
 237               		.loc 2 626 5 is_stmt 1 view .LVU68
 238               		.loc 2 626 12 is_stmt 0 view .LVU69
 239 008c 1092 F100 		sts 241,__zero_reg__
 240               	.LVL15:
 241               		.loc 2 626 12 view .LVU70
 242               	.LBE188:
 243               	.LBE187:
 322:./tmk_core/protocol/lufa/LUFA-git/LUFA/Drivers/USB/Core/DeviceStandardReq.c **** 	Endpoint_ClearIN();
 244               		.loc 1 322 2 is_stmt 1 view .LVU71
 245               	.LBB189:
 246               	.LBI189:
 453:./tmk_core/protocol/lufa/LUFA-git/LUFA/Drivers/USB/Core/AVR8/../AVR8/Endpoint_AVR8.h **** 			{
 247               		.loc 2 453 23 view .LVU72
 248               	.LBB190:
 456:./tmk_core/protocol/lufa/LUFA-git/LUFA/Drivers/USB/Core/AVR8/../AVR8/Endpoint_AVR8.h **** 				#else
 249               		.loc 2 456 6 view .LVU73
 250               	.L67:
 456:./tmk_core/protocol/lufa/LUFA-git/LUFA/Drivers/USB/Core/AVR8/../AVR8/Endpoint_AVR8.h **** 				#else
 251               		.loc 2 456 6 is_stmt 0 view .LVU74
 252               	.LBE190:
 253               	.LBE189:
 254               	.LBE191:
 255               	.LBE192:
 256               	.LBB193:
 257               	.LBB194:
 213:./tmk_core/protocol/lufa/LUFA-git/LUFA/Drivers/USB/Core/DeviceStandardReq.c **** 
 258               		.loc 1 213 2 is_stmt 1 view .LVU75
 259               	.LBB195:
 260               	.LBI195:
 453:./tmk_core/protocol/lufa/LUFA-git/LUFA/Drivers/USB/Core/AVR8/../AVR8/Endpoint_AVR8.h **** 			{
 261               		.loc 2 453 23 view .LVU76
 262               	.LBB196:
 456:./tmk_core/protocol/lufa/LUFA-git/LUFA/Drivers/USB/Core/AVR8/../AVR8/Endpoint_AVR8.h **** 				#else
 263               		.loc 2 456 6 view .LVU77
 456:./tmk_core/protocol/lufa/LUFA-git/LUFA/Drivers/USB/Core/AVR8/../AVR8/Endpoint_AVR8.h **** 				#else
 264               		.loc 2 456 13 is_stmt 0 view .LVU78
 265 0090 8091 E800 		lds r24,232
 266 0094 8E77      		andi r24,lo8(126)
 267 0096 00C0      		rjmp .L66
 268               	.LVL16:
 269               	.L9:
 456:./tmk_core/protocol/lufa/LUFA-git/LUFA/Drivers/USB/Core/AVR8/../AVR8/Endpoint_AVR8.h **** 				#else
 270               		.loc 2 456 13 view .LVU79
 271               	.LBE196:
 272               	.LBE195:
 273               	.LBE194:
 274               	.LBE193:
  82:./tmk_core/protocol/lufa/LUFA-git/LUFA/Drivers/USB/Core/DeviceStandardReq.c **** 					(bmRequestType == (REQDIR_HOSTTODEVICE | REQTYPE_STANDARD | REQREC_ENDPOINT)))
 275               		.loc 1 82 5 is_stmt 1 view .LVU80
  82:./tmk_core/protocol/lufa/LUFA-git/LUFA/Drivers/USB/Core/DeviceStandardReq.c **** 					(bmRequestType == (REQDIR_HOSTTODEVICE | REQTYPE_STANDARD | REQREC_ENDPOINT)))
 276               		.loc 1 82 8 is_stmt 0 view .LVU81
 277 0098 8111      		cpse r24,__zero_reg__
 278 009a 00C0      		rjmp .L14
  85:./tmk_core/protocol/lufa/LUFA-git/LUFA/Drivers/USB/Core/DeviceStandardReq.c **** 				}
 279               		.loc 1 85 6 is_stmt 1 view .LVU82
 280               	.LBB205:
 281               	.LBI205:
 323:./tmk_core/protocol/lufa/LUFA-git/LUFA/Drivers/USB/Core/DeviceStandardReq.c **** 
 324:./tmk_core/protocol/lufa/LUFA-git/LUFA/Drivers/USB/Core/DeviceStandardReq.c **** 	Endpoint_ClearStatusStage();
 325:./tmk_core/protocol/lufa/LUFA-git/LUFA/Drivers/USB/Core/DeviceStandardReq.c **** }
 326:./tmk_core/protocol/lufa/LUFA-git/LUFA/Drivers/USB/Core/DeviceStandardReq.c **** 
 327:./tmk_core/protocol/lufa/LUFA-git/LUFA/Drivers/USB/Core/DeviceStandardReq.c **** static void USB_Device_ClearSetFeature(void)
 282               		.loc 1 327 13 view .LVU83
 283               	.LBB206:
 328:./tmk_core/protocol/lufa/LUFA-git/LUFA/Drivers/USB/Core/DeviceStandardReq.c **** {
 329:./tmk_core/protocol/lufa/LUFA-git/LUFA/Drivers/USB/Core/DeviceStandardReq.c **** 	switch (USB_ControlRequest.bmRequestType & CONTROL_REQTYPE_RECIPIENT)
 284               		.loc 1 329 2 view .LVU84
 330:./tmk_core/protocol/lufa/LUFA-git/LUFA/Drivers/USB/Core/DeviceStandardReq.c **** 	{
 331:./tmk_core/protocol/lufa/LUFA-git/LUFA/Drivers/USB/Core/DeviceStandardReq.c **** 		#if !defined(NO_DEVICE_REMOTE_WAKEUP)
 332:./tmk_core/protocol/lufa/LUFA-git/LUFA/Drivers/USB/Core/DeviceStandardReq.c **** 		case REQREC_DEVICE:
 333:./tmk_core/protocol/lufa/LUFA-git/LUFA/Drivers/USB/Core/DeviceStandardReq.c **** 			if ((uint8_t)USB_ControlRequest.wValue == FEATURE_SEL_DeviceRemoteWakeup)
 285               		.loc 1 333 4 view .LVU85
 286               		.loc 1 333 7 is_stmt 0 view .LVU86
 287 009c 8091 0000 		lds r24,USB_ControlRequest+2
 288               	.LVL17:
 289               		.loc 1 333 7 view .LVU87
 290 00a0 8130      		cpi r24,lo8(1)
 291 00a2 01F0      		breq .L15
 292               	.LVL18:
 293               	.L3:
 294               		.loc 1 333 7 view .LVU88
 295               	.LBE206:
 296               	.LBE205:
 297               	.LBE176:
 118:./tmk_core/protocol/lufa/LUFA-git/LUFA/Drivers/USB/Core/DeviceStandardReq.c **** 	{
 298               		.loc 1 118 2 is_stmt 1 view .LVU89
 299               	.LBB279:
 300               	.LBI279:
 429:./tmk_core/protocol/lufa/LUFA-git/LUFA/Drivers/USB/Core/AVR8/../AVR8/Endpoint_AVR8.h **** 			{
 301               		.loc 2 429 23 view .LVU90
 302               	.LBB280:
 431:./tmk_core/protocol/lufa/LUFA-git/LUFA/Drivers/USB/Core/AVR8/../AVR8/Endpoint_AVR8.h **** 			}
 303               		.loc 2 431 5 view .LVU91
 431:./tmk_core/protocol/lufa/LUFA-git/LUFA/Drivers/USB/Core/AVR8/../AVR8/Endpoint_AVR8.h **** 			}
 304               		.loc 2 431 14 is_stmt 0 view .LVU92
 305 00a4 8091 E800 		lds r24,232
 306               	.LBE280:
 307               	.LBE279:
 118:./tmk_core/protocol/lufa/LUFA-git/LUFA/Drivers/USB/Core/DeviceStandardReq.c **** 	{
 308               		.loc 1 118 5 view .LVU93
 309 00a8 83FF      		sbrs r24,3
 310 00aa 00C0      		rjmp .L1
 120:./tmk_core/protocol/lufa/LUFA-git/LUFA/Drivers/USB/Core/DeviceStandardReq.c **** 		Endpoint_StallTransaction();
 311               		.loc 1 120 3 is_stmt 1 view .LVU94
 312               	.LBB281:
 313               	.LBI281:
 442:./tmk_core/protocol/lufa/LUFA-git/LUFA/Drivers/USB/Core/AVR8/../AVR8/Endpoint_AVR8.h **** 			{
 314               		.loc 2 442 23 view .LVU95
 315               	.LBB282:
 444:./tmk_core/protocol/lufa/LUFA-git/LUFA/Drivers/USB/Core/AVR8/../AVR8/Endpoint_AVR8.h **** 			}
 316               		.loc 2 444 5 view .LVU96
 444:./tmk_core/protocol/lufa/LUFA-git/LUFA/Drivers/USB/Core/AVR8/../AVR8/Endpoint_AVR8.h **** 			}
 317               		.loc 2 444 12 is_stmt 0 view .LVU97
 318 00ac 8091 E800 		lds r24,232
 319 00b0 877F      		andi r24,lo8(-9)
 320 00b2 8093 E800 		sts 232,r24
 321               	.LBE282:
 322               	.LBE281:
 121:./tmk_core/protocol/lufa/LUFA-git/LUFA/Drivers/USB/Core/DeviceStandardReq.c **** 	}
 323               		.loc 1 121 3 is_stmt 1 view .LVU98
 324               	.LBB283:
 325               	.LBI283:
 489:./tmk_core/protocol/lufa/LUFA-git/LUFA/Drivers/USB/Core/AVR8/../AVR8/Endpoint_AVR8.h **** 			{
 326               		.loc 2 489 23 view .LVU99
 327               	.LBB284:
 491:./tmk_core/protocol/lufa/LUFA-git/LUFA/Drivers/USB/Core/AVR8/../AVR8/Endpoint_AVR8.h **** 			}
 328               		.loc 2 491 5 view .LVU100
 329 00b6 8091 EB00 		lds r24,235
 491:./tmk_core/protocol/lufa/LUFA-git/LUFA/Drivers/USB/Core/AVR8/../AVR8/Endpoint_AVR8.h **** 			}
 330               		.loc 2 491 12 is_stmt 0 view .LVU101
 331 00ba 8062      		ori r24,lo8(32)
 332 00bc 8093 EB00 		sts 235,r24
 333               	.L1:
 334               	/* epilogue start */
 335               	.LBE284:
 336               	.LBE283:
 123:./tmk_core/protocol/lufa/LUFA-git/LUFA/Drivers/USB/Core/DeviceStandardReq.c **** 
 337               		.loc 1 123 1 view .LVU102
 338 00c0 AA96      		adiw r28,42
 339 00c2 0FB6      		in __tmp_reg__,__SREG__
 340 00c4 F894      		cli
 341 00c6 DEBF      		out __SP_H__,r29
 342 00c8 0FBE      		out __SREG__,__tmp_reg__
 343 00ca CDBF      		out __SP_L__,r28
 344 00cc DF91      		pop r29
 345 00ce CF91      		pop r28
 346 00d0 1F91      		pop r17
 347 00d2 0895      		ret
 348               	.LVL19:
 349               	.L14:
 350               	.LBB285:
  82:./tmk_core/protocol/lufa/LUFA-git/LUFA/Drivers/USB/Core/DeviceStandardReq.c **** 					(bmRequestType == (REQDIR_HOSTTODEVICE | REQTYPE_STANDARD | REQREC_ENDPOINT)))
 351               		.loc 1 82 85 discriminator 1 view .LVU103
 352 00d4 8230      		cpi r24,lo8(2)
 353 00d6 01F4      		brne .L3
  85:./tmk_core/protocol/lufa/LUFA-git/LUFA/Drivers/USB/Core/DeviceStandardReq.c **** 				}
 354               		.loc 1 85 6 is_stmt 1 view .LVU104
 355               	.LBB228:
 327:./tmk_core/protocol/lufa/LUFA-git/LUFA/Drivers/USB/Core/DeviceStandardReq.c **** {
 356               		.loc 1 327 13 view .LVU105
 357               	.LBB226:
 329:./tmk_core/protocol/lufa/LUFA-git/LUFA/Drivers/USB/Core/DeviceStandardReq.c **** 	{
 358               		.loc 1 329 2 view .LVU106
 334:./tmk_core/protocol/lufa/LUFA-git/LUFA/Drivers/USB/Core/DeviceStandardReq.c **** 			  USB_Device_RemoteWakeupEnabled = (USB_ControlRequest.bRequest == REQ_SetFeature);
 335:./tmk_core/protocol/lufa/LUFA-git/LUFA/Drivers/USB/Core/DeviceStandardReq.c **** 			else
 336:./tmk_core/protocol/lufa/LUFA-git/LUFA/Drivers/USB/Core/DeviceStandardReq.c **** 			  return;
 337:./tmk_core/protocol/lufa/LUFA-git/LUFA/Drivers/USB/Core/DeviceStandardReq.c **** 
 338:./tmk_core/protocol/lufa/LUFA-git/LUFA/Drivers/USB/Core/DeviceStandardReq.c **** 			break;
 339:./tmk_core/protocol/lufa/LUFA-git/LUFA/Drivers/USB/Core/DeviceStandardReq.c **** 		#endif
 340:./tmk_core/protocol/lufa/LUFA-git/LUFA/Drivers/USB/Core/DeviceStandardReq.c **** 		#if !defined(CONTROL_ONLY_DEVICE)
 341:./tmk_core/protocol/lufa/LUFA-git/LUFA/Drivers/USB/Core/DeviceStandardReq.c **** 		case REQREC_ENDPOINT:
 342:./tmk_core/protocol/lufa/LUFA-git/LUFA/Drivers/USB/Core/DeviceStandardReq.c **** 			if ((uint8_t)USB_ControlRequest.wValue == FEATURE_SEL_EndpointHalt)
 359               		.loc 1 342 4 view .LVU107
 360               		.loc 1 342 7 is_stmt 0 view .LVU108
 361 00d8 8091 0000 		lds r24,USB_ControlRequest+2
 362               	.LVL20:
 363               		.loc 1 342 7 view .LVU109
 364 00dc 8823      		tst r24
 365 00de 01F0      		breq .L16
 366               	.LVL21:
 367               	.L17:
 343:./tmk_core/protocol/lufa/LUFA-git/LUFA/Drivers/USB/Core/DeviceStandardReq.c **** 			{
 344:./tmk_core/protocol/lufa/LUFA-git/LUFA/Drivers/USB/Core/DeviceStandardReq.c **** 				uint8_t EndpointIndex = ((uint8_t)USB_ControlRequest.wIndex & ENDPOINT_EPNUM_MASK);
 345:./tmk_core/protocol/lufa/LUFA-git/LUFA/Drivers/USB/Core/DeviceStandardReq.c **** 
 346:./tmk_core/protocol/lufa/LUFA-git/LUFA/Drivers/USB/Core/DeviceStandardReq.c **** 				if (EndpointIndex == ENDPOINT_CONTROLEP)
 347:./tmk_core/protocol/lufa/LUFA-git/LUFA/Drivers/USB/Core/DeviceStandardReq.c **** 				  return;
 348:./tmk_core/protocol/lufa/LUFA-git/LUFA/Drivers/USB/Core/DeviceStandardReq.c **** 
 349:./tmk_core/protocol/lufa/LUFA-git/LUFA/Drivers/USB/Core/DeviceStandardReq.c **** 				Endpoint_SelectEndpoint(EndpointIndex);
 350:./tmk_core/protocol/lufa/LUFA-git/LUFA/Drivers/USB/Core/DeviceStandardReq.c **** 
 351:./tmk_core/protocol/lufa/LUFA-git/LUFA/Drivers/USB/Core/DeviceStandardReq.c **** 				if (Endpoint_IsEnabled())
 352:./tmk_core/protocol/lufa/LUFA-git/LUFA/Drivers/USB/Core/DeviceStandardReq.c **** 				{
 353:./tmk_core/protocol/lufa/LUFA-git/LUFA/Drivers/USB/Core/DeviceStandardReq.c **** 					if (USB_ControlRequest.bRequest == REQ_SetFeature)
 354:./tmk_core/protocol/lufa/LUFA-git/LUFA/Drivers/USB/Core/DeviceStandardReq.c **** 					{
 355:./tmk_core/protocol/lufa/LUFA-git/LUFA/Drivers/USB/Core/DeviceStandardReq.c **** 						Endpoint_StallTransaction();
 356:./tmk_core/protocol/lufa/LUFA-git/LUFA/Drivers/USB/Core/DeviceStandardReq.c **** 					}
 357:./tmk_core/protocol/lufa/LUFA-git/LUFA/Drivers/USB/Core/DeviceStandardReq.c **** 					else
 358:./tmk_core/protocol/lufa/LUFA-git/LUFA/Drivers/USB/Core/DeviceStandardReq.c **** 					{
 359:./tmk_core/protocol/lufa/LUFA-git/LUFA/Drivers/USB/Core/DeviceStandardReq.c **** 						Endpoint_ClearStall();
 360:./tmk_core/protocol/lufa/LUFA-git/LUFA/Drivers/USB/Core/DeviceStandardReq.c **** 						Endpoint_ResetEndpoint(EndpointIndex);
 361:./tmk_core/protocol/lufa/LUFA-git/LUFA/Drivers/USB/Core/DeviceStandardReq.c **** 						Endpoint_ResetDataToggle();
 362:./tmk_core/protocol/lufa/LUFA-git/LUFA/Drivers/USB/Core/DeviceStandardReq.c **** 					}
 363:./tmk_core/protocol/lufa/LUFA-git/LUFA/Drivers/USB/Core/DeviceStandardReq.c **** 				}
 364:./tmk_core/protocol/lufa/LUFA-git/LUFA/Drivers/USB/Core/DeviceStandardReq.c **** 			}
 365:./tmk_core/protocol/lufa/LUFA-git/LUFA/Drivers/USB/Core/DeviceStandardReq.c **** 
 366:./tmk_core/protocol/lufa/LUFA-git/LUFA/Drivers/USB/Core/DeviceStandardReq.c **** 			break;
 367:./tmk_core/protocol/lufa/LUFA-git/LUFA/Drivers/USB/Core/DeviceStandardReq.c **** 		#endif
 368:./tmk_core/protocol/lufa/LUFA-git/LUFA/Drivers/USB/Core/DeviceStandardReq.c **** 		default:
 369:./tmk_core/protocol/lufa/LUFA-git/LUFA/Drivers/USB/Core/DeviceStandardReq.c **** 			return;
 370:./tmk_core/protocol/lufa/LUFA-git/LUFA/Drivers/USB/Core/DeviceStandardReq.c **** 	}
 371:./tmk_core/protocol/lufa/LUFA-git/LUFA/Drivers/USB/Core/DeviceStandardReq.c **** 
 372:./tmk_core/protocol/lufa/LUFA-git/LUFA/Drivers/USB/Core/DeviceStandardReq.c **** 	Endpoint_SelectEndpoint(ENDPOINT_CONTROLEP);
 368               		.loc 1 372 2 is_stmt 1 view .LVU110
 369               	.LBB207:
 370               	.LBI207:
 267:./tmk_core/protocol/lufa/LUFA-git/LUFA/Drivers/USB/Core/AVR8/../AVR8/Endpoint_AVR8.h **** 			{
 371               		.loc 2 267 23 view .LVU111
 372               	.LBB208:
 270:./tmk_core/protocol/lufa/LUFA-git/LUFA/Drivers/USB/Core/AVR8/../AVR8/Endpoint_AVR8.h **** 				#endif
 373               		.loc 2 270 6 view .LVU112
 270:./tmk_core/protocol/lufa/LUFA-git/LUFA/Drivers/USB/Core/AVR8/../AVR8/Endpoint_AVR8.h **** 				#endif
 374               		.loc 2 270 12 is_stmt 0 view .LVU113
 375 00e0 1092 E900 		sts 233,__zero_reg__
 376               	.LVL22:
 270:./tmk_core/protocol/lufa/LUFA-git/LUFA/Drivers/USB/Core/AVR8/../AVR8/Endpoint_AVR8.h **** 				#endif
 377               		.loc 2 270 12 view .LVU114
 378               	.LBE208:
 379               	.LBE207:
 373:./tmk_core/protocol/lufa/LUFA-git/LUFA/Drivers/USB/Core/DeviceStandardReq.c **** 
 374:./tmk_core/protocol/lufa/LUFA-git/LUFA/Drivers/USB/Core/DeviceStandardReq.c **** 	Endpoint_ClearSETUP();
 380               		.loc 1 374 2 is_stmt 1 view .LVU115
 381               	.LBB209:
 382               	.LBI209:
 442:./tmk_core/protocol/lufa/LUFA-git/LUFA/Drivers/USB/Core/AVR8/../AVR8/Endpoint_AVR8.h **** 			{
 383               		.loc 2 442 23 view .LVU116
 384               	.LBB210:
 444:./tmk_core/protocol/lufa/LUFA-git/LUFA/Drivers/USB/Core/AVR8/../AVR8/Endpoint_AVR8.h **** 			}
 385               		.loc 2 444 5 view .LVU117
 444:./tmk_core/protocol/lufa/LUFA-git/LUFA/Drivers/USB/Core/AVR8/../AVR8/Endpoint_AVR8.h **** 			}
 386               		.loc 2 444 12 is_stmt 0 view .LVU118
 387 00e4 8091 E800 		lds r24,232
 388 00e8 877F      		andi r24,lo8(-9)
 389               	.L66:
 444:./tmk_core/protocol/lufa/LUFA-git/LUFA/Drivers/USB/Core/AVR8/../AVR8/Endpoint_AVR8.h **** 			}
 390               		.loc 2 444 12 view .LVU119
 391               	.LBE210:
 392               	.LBE209:
 393               	.LBE226:
 394               	.LBE228:
 395               	.LBB229:
 396               	.LBB203:
 397               	.LBB198:
 398               	.LBB197:
 456:./tmk_core/protocol/lufa/LUFA-git/LUFA/Drivers/USB/Core/AVR8/../AVR8/Endpoint_AVR8.h **** 				#else
 399               		.loc 2 456 13 view .LVU120
 400 00ea 8093 E800 		sts 232,r24
 401               	.LBE197:
 402               	.LBE198:
 215:./tmk_core/protocol/lufa/LUFA-git/LUFA/Drivers/USB/Core/DeviceStandardReq.c **** }
 403               		.loc 1 215 2 is_stmt 1 view .LVU121
 404 00ee 0E94 0000 		call Endpoint_ClearStatusStage
 405               	.LVL23:
 216:./tmk_core/protocol/lufa/LUFA-git/LUFA/Drivers/USB/Core/DeviceStandardReq.c **** 
 406               		.loc 1 216 1 is_stmt 0 view .LVU122
 407 00f2 00C0      		rjmp .L3
 408               	.LVL24:
 409               	.L15:
 216:./tmk_core/protocol/lufa/LUFA-git/LUFA/Drivers/USB/Core/DeviceStandardReq.c **** 
 410               		.loc 1 216 1 view .LVU123
 411               	.LBE203:
 412               	.LBE229:
 413               	.LBB230:
 414               	.LBB227:
 334:./tmk_core/protocol/lufa/LUFA-git/LUFA/Drivers/USB/Core/DeviceStandardReq.c **** 			else
 415               		.loc 1 334 6 is_stmt 1 view .LVU124
 334:./tmk_core/protocol/lufa/LUFA-git/LUFA/Drivers/USB/Core/DeviceStandardReq.c **** 			else
 416               		.loc 1 334 68 is_stmt 0 view .LVU125
 417 00f4 81E0      		ldi r24,lo8(1)
 418 00f6 9330      		cpi r25,lo8(3)
 419 00f8 01F0      		breq .L18
 420 00fa 80E0      		ldi r24,0
 421               	.L18:
 334:./tmk_core/protocol/lufa/LUFA-git/LUFA/Drivers/USB/Core/DeviceStandardReq.c **** 			else
 422               		.loc 1 334 37 view .LVU126
 423 00fc 8093 0000 		sts USB_Device_RemoteWakeupEnabled,r24
 338:./tmk_core/protocol/lufa/LUFA-git/LUFA/Drivers/USB/Core/DeviceStandardReq.c **** 		#endif
 424               		.loc 1 338 4 is_stmt 1 view .LVU127
 425 0100 00C0      		rjmp .L17
 426               	.L16:
 427               	.LBB211:
 344:./tmk_core/protocol/lufa/LUFA-git/LUFA/Drivers/USB/Core/DeviceStandardReq.c **** 
 428               		.loc 1 344 5 view .LVU128
 344:./tmk_core/protocol/lufa/LUFA-git/LUFA/Drivers/USB/Core/DeviceStandardReq.c **** 
 429               		.loc 1 344 13 is_stmt 0 view .LVU129
 430 0102 8091 0000 		lds r24,USB_ControlRequest+4
 431 0106 8F70      		andi r24,lo8(15)
 432               	.LVL25:
 346:./tmk_core/protocol/lufa/LUFA-git/LUFA/Drivers/USB/Core/DeviceStandardReq.c **** 				  return;
 433               		.loc 1 346 5 is_stmt 1 view .LVU130
 346:./tmk_core/protocol/lufa/LUFA-git/LUFA/Drivers/USB/Core/DeviceStandardReq.c **** 				  return;
 434               		.loc 1 346 8 is_stmt 0 view .LVU131
 435 0108 8823      		tst r24
 436 010a 01F0      		breq .L3
 349:./tmk_core/protocol/lufa/LUFA-git/LUFA/Drivers/USB/Core/DeviceStandardReq.c **** 
 437               		.loc 1 349 5 is_stmt 1 view .LVU132
 438               	.LVL26:
 439               	.LBB212:
 440               	.LBI212:
 267:./tmk_core/protocol/lufa/LUFA-git/LUFA/Drivers/USB/Core/AVR8/../AVR8/Endpoint_AVR8.h **** 			{
 441               		.loc 2 267 23 view .LVU133
 442               	.LBB213:
 270:./tmk_core/protocol/lufa/LUFA-git/LUFA/Drivers/USB/Core/AVR8/../AVR8/Endpoint_AVR8.h **** 				#endif
 443               		.loc 2 270 6 view .LVU134
 270:./tmk_core/protocol/lufa/LUFA-git/LUFA/Drivers/USB/Core/AVR8/../AVR8/Endpoint_AVR8.h **** 				#endif
 444               		.loc 2 270 12 is_stmt 0 view .LVU135
 445 010c 8093 E900 		sts 233,r24
 446               	.LVL27:
 270:./tmk_core/protocol/lufa/LUFA-git/LUFA/Drivers/USB/Core/AVR8/../AVR8/Endpoint_AVR8.h **** 				#endif
 447               		.loc 2 270 12 view .LVU136
 448               	.LBE213:
 449               	.LBE212:
 351:./tmk_core/protocol/lufa/LUFA-git/LUFA/Drivers/USB/Core/DeviceStandardReq.c **** 				{
 450               		.loc 1 351 5 is_stmt 1 view .LVU137
 451               	.LBB214:
 452               	.LBI214:
 311:./tmk_core/protocol/lufa/LUFA-git/LUFA/Drivers/USB/Core/AVR8/../AVR8/Endpoint_AVR8.h **** 			{
 453               		.loc 2 311 23 view .LVU138
 454               	.LBB215:
 313:./tmk_core/protocol/lufa/LUFA-git/LUFA/Drivers/USB/Core/AVR8/../AVR8/Endpoint_AVR8.h **** 			}
 455               		.loc 2 313 5 view .LVU139
 313:./tmk_core/protocol/lufa/LUFA-git/LUFA/Drivers/USB/Core/AVR8/../AVR8/Endpoint_AVR8.h **** 			}
 456               		.loc 2 313 14 is_stmt 0 view .LVU140
 457 0110 2091 EB00 		lds r18,235
 458               	.LBE215:
 459               	.LBE214:
 351:./tmk_core/protocol/lufa/LUFA-git/LUFA/Drivers/USB/Core/DeviceStandardReq.c **** 				{
 460               		.loc 1 351 8 view .LVU141
 461 0114 20FF      		sbrs r18,0
 462 0116 00C0      		rjmp .L17
 353:./tmk_core/protocol/lufa/LUFA-git/LUFA/Drivers/USB/Core/DeviceStandardReq.c **** 					{
 463               		.loc 1 353 6 is_stmt 1 view .LVU142
 353:./tmk_core/protocol/lufa/LUFA-git/LUFA/Drivers/USB/Core/DeviceStandardReq.c **** 					{
 464               		.loc 1 353 9 is_stmt 0 view .LVU143
 465 0118 9330      		cpi r25,lo8(3)
 466 011a 01F4      		brne .L20
 355:./tmk_core/protocol/lufa/LUFA-git/LUFA/Drivers/USB/Core/DeviceStandardReq.c **** 					}
 467               		.loc 1 355 7 is_stmt 1 view .LVU144
 468               	.LBB216:
 469               	.LBI216:
 489:./tmk_core/protocol/lufa/LUFA-git/LUFA/Drivers/USB/Core/AVR8/../AVR8/Endpoint_AVR8.h **** 			{
 470               		.loc 2 489 23 view .LVU145
 471               	.LBB217:
 491:./tmk_core/protocol/lufa/LUFA-git/LUFA/Drivers/USB/Core/AVR8/../AVR8/Endpoint_AVR8.h **** 			}
 472               		.loc 2 491 5 view .LVU146
 473 011c 8091 EB00 		lds r24,235
 474               	.LVL28:
 491:./tmk_core/protocol/lufa/LUFA-git/LUFA/Drivers/USB/Core/AVR8/../AVR8/Endpoint_AVR8.h **** 			}
 475               		.loc 2 491 12 is_stmt 0 view .LVU147
 476 0120 8062      		ori r24,lo8(32)
 477               	.LVL29:
 478               	.L63:
 491:./tmk_core/protocol/lufa/LUFA-git/LUFA/Drivers/USB/Core/AVR8/../AVR8/Endpoint_AVR8.h **** 			}
 479               		.loc 2 491 12 view .LVU148
 480               	.LBE217:
 481               	.LBE216:
 482               	.LBB218:
 483               	.LBB219:
 520:./tmk_core/protocol/lufa/LUFA-git/LUFA/Drivers/USB/Core/AVR8/../AVR8/Endpoint_AVR8.h **** 			}
 484               		.loc 2 520 12 view .LVU149
 485 0122 8093 EB00 		sts 235,r24
 521:./tmk_core/protocol/lufa/LUFA-git/LUFA/Drivers/USB/Core/AVR8/../AVR8/Endpoint_AVR8.h **** 
 486               		.loc 2 521 4 view .LVU150
 487 0126 00C0      		rjmp .L17
 488               	.LVL30:
 489               	.L20:
 521:./tmk_core/protocol/lufa/LUFA-git/LUFA/Drivers/USB/Core/AVR8/../AVR8/Endpoint_AVR8.h **** 
 490               		.loc 2 521 4 view .LVU151
 491               	.LBE219:
 492               	.LBE218:
 359:./tmk_core/protocol/lufa/LUFA-git/LUFA/Drivers/USB/Core/DeviceStandardReq.c **** 						Endpoint_ResetEndpoint(EndpointIndex);
 493               		.loc 1 359 7 is_stmt 1 view .LVU152
 494               	.LBB221:
 495               	.LBI221:
 499:./tmk_core/protocol/lufa/LUFA-git/LUFA/Drivers/USB/Core/AVR8/../AVR8/Endpoint_AVR8.h **** 			{
 496               		.loc 2 499 23 view .LVU153
 497               	.LBB222:
 501:./tmk_core/protocol/lufa/LUFA-git/LUFA/Drivers/USB/Core/AVR8/../AVR8/Endpoint_AVR8.h **** 			}
 498               		.loc 2 501 5 view .LVU154
 499 0128 9091 EB00 		lds r25,235
 501:./tmk_core/protocol/lufa/LUFA-git/LUFA/Drivers/USB/Core/AVR8/../AVR8/Endpoint_AVR8.h **** 			}
 500               		.loc 2 501 12 is_stmt 0 view .LVU155
 501 012c 9061      		ori r25,lo8(16)
 502 012e 9093 EB00 		sts 235,r25
 503               	.LBE222:
 504               	.LBE221:
 360:./tmk_core/protocol/lufa/LUFA-git/LUFA/Drivers/USB/Core/DeviceStandardReq.c **** 						Endpoint_ResetDataToggle();
 505               		.loc 1 360 7 is_stmt 1 view .LVU156
 506               	.LVL31:
 507               	.LBB223:
 508               	.LBI223:
 280:./tmk_core/protocol/lufa/LUFA-git/LUFA/Drivers/USB/Core/AVR8/../AVR8/Endpoint_AVR8.h **** 			{
 509               		.loc 2 280 23 view .LVU157
 510               	.LBB224:
 282:./tmk_core/protocol/lufa/LUFA-git/LUFA/Drivers/USB/Core/AVR8/../AVR8/Endpoint_AVR8.h **** 				UERST = 0;
 511               		.loc 2 282 5 view .LVU158
 282:./tmk_core/protocol/lufa/LUFA-git/LUFA/Drivers/USB/Core/AVR8/../AVR8/Endpoint_AVR8.h **** 				UERST = 0;
 512               		.loc 2 282 16 is_stmt 0 view .LVU159
 513 0132 21E0      		ldi r18,lo8(1)
 514 0134 30E0      		ldi r19,0
 515 0136 A901      		movw r20,r18
 516 0138 00C0      		rjmp 2f
 517               		1:
 518 013a 440F      		lsl r20
 519 013c 551F      		rol r21
 520               		2:
 521 013e 8A95      		dec r24
 522 0140 02F4      		brpl 1b
 282:./tmk_core/protocol/lufa/LUFA-git/LUFA/Drivers/USB/Core/AVR8/../AVR8/Endpoint_AVR8.h **** 				UERST = 0;
 523               		.loc 2 282 11 view .LVU160
 524 0142 4093 EA00 		sts 234,r20
 283:./tmk_core/protocol/lufa/LUFA-git/LUFA/Drivers/USB/Core/AVR8/../AVR8/Endpoint_AVR8.h **** 			}
 525               		.loc 2 283 5 is_stmt 1 view .LVU161
 283:./tmk_core/protocol/lufa/LUFA-git/LUFA/Drivers/USB/Core/AVR8/../AVR8/Endpoint_AVR8.h **** 			}
 526               		.loc 2 283 11 is_stmt 0 view .LVU162
 527 0146 1092 EA00 		sts 234,__zero_reg__
 528               	.LVL32:
 283:./tmk_core/protocol/lufa/LUFA-git/LUFA/Drivers/USB/Core/AVR8/../AVR8/Endpoint_AVR8.h **** 			}
 529               		.loc 2 283 11 view .LVU163
 530               	.LBE224:
 531               	.LBE223:
 361:./tmk_core/protocol/lufa/LUFA-git/LUFA/Drivers/USB/Core/DeviceStandardReq.c **** 					}
 532               		.loc 1 361 7 is_stmt 1 view .LVU164
 533               	.LBB225:
 534               	.LBI218:
 518:./tmk_core/protocol/lufa/LUFA-git/LUFA/Drivers/USB/Core/AVR8/../AVR8/Endpoint_AVR8.h **** 			{
 535               		.loc 2 518 23 view .LVU165
 536               	.LBB220:
 520:./tmk_core/protocol/lufa/LUFA-git/LUFA/Drivers/USB/Core/AVR8/../AVR8/Endpoint_AVR8.h **** 			}
 537               		.loc 2 520 5 view .LVU166
 538 014a 8091 EB00 		lds r24,235
 539               	.LVL33:
 520:./tmk_core/protocol/lufa/LUFA-git/LUFA/Drivers/USB/Core/AVR8/../AVR8/Endpoint_AVR8.h **** 			}
 540               		.loc 2 520 12 is_stmt 0 view .LVU167
 541 014e 8860      		ori r24,lo8(8)
 542 0150 00C0      		rjmp .L63
 543               	.LVL34:
 544               	.L8:
 520:./tmk_core/protocol/lufa/LUFA-git/LUFA/Drivers/USB/Core/AVR8/../AVR8/Endpoint_AVR8.h **** 			}
 545               		.loc 2 520 12 view .LVU168
 546               	.LBE220:
 547               	.LBE225:
 548               	.LBE211:
 549               	.LBE227:
 550               	.LBE230:
  90:./tmk_core/protocol/lufa/LUFA-git/LUFA/Drivers/USB/Core/DeviceStandardReq.c **** 				  USB_Device_SetAddress();
 551               		.loc 1 90 5 is_stmt 1 view .LVU169
  90:./tmk_core/protocol/lufa/LUFA-git/LUFA/Drivers/USB/Core/DeviceStandardReq.c **** 				  USB_Device_SetAddress();
 552               		.loc 1 90 8 is_stmt 0 view .LVU170
 553 0152 8111      		cpse r24,__zero_reg__
 554 0154 00C0      		rjmp .L3
  91:./tmk_core/protocol/lufa/LUFA-git/LUFA/Drivers/USB/Core/DeviceStandardReq.c **** 
 555               		.loc 1 91 7 is_stmt 1 view .LVU171
 556               	.LBB231:
 557               	.LBI231:
 125:./tmk_core/protocol/lufa/LUFA-git/LUFA/Drivers/USB/Core/DeviceStandardReq.c **** {
 558               		.loc 1 125 13 view .LVU172
 559               	.LBB232:
 127:./tmk_core/protocol/lufa/LUFA-git/LUFA/Drivers/USB/Core/DeviceStandardReq.c **** 
 560               		.loc 1 127 2 view .LVU173
 127:./tmk_core/protocol/lufa/LUFA-git/LUFA/Drivers/USB/Core/DeviceStandardReq.c **** 
 561               		.loc 1 127 10 is_stmt 0 view .LVU174
 562 0156 1091 0000 		lds r17,USB_ControlRequest+2
 563 015a 1F77      		andi r17,lo8(127)
 564               	.LVL35:
 129:./tmk_core/protocol/lufa/LUFA-git/LUFA/Drivers/USB/Core/DeviceStandardReq.c **** 
 565               		.loc 1 129 2 is_stmt 1 view .LVU175
 566               	.LBB233:
 567               	.LBI233:
 568               		.file 3 "./tmk_core/protocol/lufa/LUFA-git/LUFA/Drivers/USB/Core/AVR8/../AVR8/Device_AVR8.h"
   1:./tmk_core/protocol/lufa/LUFA-git/LUFA/Drivers/USB/Core/AVR8/../AVR8/Device_AVR8.h **** /*
   2:./tmk_core/protocol/lufa/LUFA-git/LUFA/Drivers/USB/Core/AVR8/../AVR8/Device_AVR8.h ****              LUFA Library
   3:./tmk_core/protocol/lufa/LUFA-git/LUFA/Drivers/USB/Core/AVR8/../AVR8/Device_AVR8.h ****      Copyright (C) Dean Camera, 2014.
   4:./tmk_core/protocol/lufa/LUFA-git/LUFA/Drivers/USB/Core/AVR8/../AVR8/Device_AVR8.h **** 
   5:./tmk_core/protocol/lufa/LUFA-git/LUFA/Drivers/USB/Core/AVR8/../AVR8/Device_AVR8.h ****   dean [at] fourwalledcubicle [dot] com
   6:./tmk_core/protocol/lufa/LUFA-git/LUFA/Drivers/USB/Core/AVR8/../AVR8/Device_AVR8.h ****            www.lufa-lib.org
   7:./tmk_core/protocol/lufa/LUFA-git/LUFA/Drivers/USB/Core/AVR8/../AVR8/Device_AVR8.h **** */
   8:./tmk_core/protocol/lufa/LUFA-git/LUFA/Drivers/USB/Core/AVR8/../AVR8/Device_AVR8.h **** 
   9:./tmk_core/protocol/lufa/LUFA-git/LUFA/Drivers/USB/Core/AVR8/../AVR8/Device_AVR8.h **** /*
  10:./tmk_core/protocol/lufa/LUFA-git/LUFA/Drivers/USB/Core/AVR8/../AVR8/Device_AVR8.h ****   Copyright 2014  Dean Camera (dean [at] fourwalledcubicle [dot] com)
  11:./tmk_core/protocol/lufa/LUFA-git/LUFA/Drivers/USB/Core/AVR8/../AVR8/Device_AVR8.h **** 
  12:./tmk_core/protocol/lufa/LUFA-git/LUFA/Drivers/USB/Core/AVR8/../AVR8/Device_AVR8.h ****   Permission to use, copy, modify, distribute, and sell this
  13:./tmk_core/protocol/lufa/LUFA-git/LUFA/Drivers/USB/Core/AVR8/../AVR8/Device_AVR8.h ****   software and its documentation for any purpose is hereby granted
  14:./tmk_core/protocol/lufa/LUFA-git/LUFA/Drivers/USB/Core/AVR8/../AVR8/Device_AVR8.h ****   without fee, provided that the above copyright notice appear in
  15:./tmk_core/protocol/lufa/LUFA-git/LUFA/Drivers/USB/Core/AVR8/../AVR8/Device_AVR8.h ****   all copies and that both that the copyright notice and this
  16:./tmk_core/protocol/lufa/LUFA-git/LUFA/Drivers/USB/Core/AVR8/../AVR8/Device_AVR8.h ****   permission notice and warranty disclaimer appear in supporting
  17:./tmk_core/protocol/lufa/LUFA-git/LUFA/Drivers/USB/Core/AVR8/../AVR8/Device_AVR8.h ****   documentation, and that the name of the author not be used in
  18:./tmk_core/protocol/lufa/LUFA-git/LUFA/Drivers/USB/Core/AVR8/../AVR8/Device_AVR8.h ****   advertising or publicity pertaining to distribution of the
  19:./tmk_core/protocol/lufa/LUFA-git/LUFA/Drivers/USB/Core/AVR8/../AVR8/Device_AVR8.h ****   software without specific, written prior permission.
  20:./tmk_core/protocol/lufa/LUFA-git/LUFA/Drivers/USB/Core/AVR8/../AVR8/Device_AVR8.h **** 
  21:./tmk_core/protocol/lufa/LUFA-git/LUFA/Drivers/USB/Core/AVR8/../AVR8/Device_AVR8.h ****   The author disclaims all warranties with regard to this
  22:./tmk_core/protocol/lufa/LUFA-git/LUFA/Drivers/USB/Core/AVR8/../AVR8/Device_AVR8.h ****   software, including all implied warranties of merchantability
  23:./tmk_core/protocol/lufa/LUFA-git/LUFA/Drivers/USB/Core/AVR8/../AVR8/Device_AVR8.h ****   and fitness.  In no event shall the author be liable for any
  24:./tmk_core/protocol/lufa/LUFA-git/LUFA/Drivers/USB/Core/AVR8/../AVR8/Device_AVR8.h ****   special, indirect or consequential damages or any damages
  25:./tmk_core/protocol/lufa/LUFA-git/LUFA/Drivers/USB/Core/AVR8/../AVR8/Device_AVR8.h ****   whatsoever resulting from loss of use, data or profits, whether
  26:./tmk_core/protocol/lufa/LUFA-git/LUFA/Drivers/USB/Core/AVR8/../AVR8/Device_AVR8.h ****   in an action of contract, negligence or other tortious action,
  27:./tmk_core/protocol/lufa/LUFA-git/LUFA/Drivers/USB/Core/AVR8/../AVR8/Device_AVR8.h ****   arising out of or in connection with the use or performance of
  28:./tmk_core/protocol/lufa/LUFA-git/LUFA/Drivers/USB/Core/AVR8/../AVR8/Device_AVR8.h ****   this software.
  29:./tmk_core/protocol/lufa/LUFA-git/LUFA/Drivers/USB/Core/AVR8/../AVR8/Device_AVR8.h **** */
  30:./tmk_core/protocol/lufa/LUFA-git/LUFA/Drivers/USB/Core/AVR8/../AVR8/Device_AVR8.h **** 
  31:./tmk_core/protocol/lufa/LUFA-git/LUFA/Drivers/USB/Core/AVR8/../AVR8/Device_AVR8.h **** /** \file
  32:./tmk_core/protocol/lufa/LUFA-git/LUFA/Drivers/USB/Core/AVR8/../AVR8/Device_AVR8.h ****  *  \brief USB Device definitions for the AVR8 microcontrollers.
  33:./tmk_core/protocol/lufa/LUFA-git/LUFA/Drivers/USB/Core/AVR8/../AVR8/Device_AVR8.h ****  *  \copydetails Group_Device_AVR8
  34:./tmk_core/protocol/lufa/LUFA-git/LUFA/Drivers/USB/Core/AVR8/../AVR8/Device_AVR8.h ****  *
  35:./tmk_core/protocol/lufa/LUFA-git/LUFA/Drivers/USB/Core/AVR8/../AVR8/Device_AVR8.h ****  *  \note This file should not be included directly. It is automatically included as needed by the 
  36:./tmk_core/protocol/lufa/LUFA-git/LUFA/Drivers/USB/Core/AVR8/../AVR8/Device_AVR8.h ****  *        dispatch header located in LUFA/Drivers/USB/USB.h.
  37:./tmk_core/protocol/lufa/LUFA-git/LUFA/Drivers/USB/Core/AVR8/../AVR8/Device_AVR8.h ****  */
  38:./tmk_core/protocol/lufa/LUFA-git/LUFA/Drivers/USB/Core/AVR8/../AVR8/Device_AVR8.h **** 
  39:./tmk_core/protocol/lufa/LUFA-git/LUFA/Drivers/USB/Core/AVR8/../AVR8/Device_AVR8.h **** /** \ingroup Group_Device
  40:./tmk_core/protocol/lufa/LUFA-git/LUFA/Drivers/USB/Core/AVR8/../AVR8/Device_AVR8.h ****  *  \defgroup Group_Device_AVR8 Device Management (AVR8)
  41:./tmk_core/protocol/lufa/LUFA-git/LUFA/Drivers/USB/Core/AVR8/../AVR8/Device_AVR8.h ****  *  \brief USB Device definitions for the AVR8 microcontrollers.
  42:./tmk_core/protocol/lufa/LUFA-git/LUFA/Drivers/USB/Core/AVR8/../AVR8/Device_AVR8.h ****  *
  43:./tmk_core/protocol/lufa/LUFA-git/LUFA/Drivers/USB/Core/AVR8/../AVR8/Device_AVR8.h ****  *  Architecture specific USB Device definitions for the Atmel 8-bit AVR microcontrollers.
  44:./tmk_core/protocol/lufa/LUFA-git/LUFA/Drivers/USB/Core/AVR8/../AVR8/Device_AVR8.h ****  *
  45:./tmk_core/protocol/lufa/LUFA-git/LUFA/Drivers/USB/Core/AVR8/../AVR8/Device_AVR8.h ****  *  @{
  46:./tmk_core/protocol/lufa/LUFA-git/LUFA/Drivers/USB/Core/AVR8/../AVR8/Device_AVR8.h ****  */
  47:./tmk_core/protocol/lufa/LUFA-git/LUFA/Drivers/USB/Core/AVR8/../AVR8/Device_AVR8.h **** 
  48:./tmk_core/protocol/lufa/LUFA-git/LUFA/Drivers/USB/Core/AVR8/../AVR8/Device_AVR8.h **** #ifndef __USBDEVICE_AVR8_H__
  49:./tmk_core/protocol/lufa/LUFA-git/LUFA/Drivers/USB/Core/AVR8/../AVR8/Device_AVR8.h **** #define __USBDEVICE_AVR8_H__
  50:./tmk_core/protocol/lufa/LUFA-git/LUFA/Drivers/USB/Core/AVR8/../AVR8/Device_AVR8.h **** 
  51:./tmk_core/protocol/lufa/LUFA-git/LUFA/Drivers/USB/Core/AVR8/../AVR8/Device_AVR8.h **** 	/* Includes: */
  52:./tmk_core/protocol/lufa/LUFA-git/LUFA/Drivers/USB/Core/AVR8/../AVR8/Device_AVR8.h **** 		#include "../../../../Common/Common.h"
  53:./tmk_core/protocol/lufa/LUFA-git/LUFA/Drivers/USB/Core/AVR8/../AVR8/Device_AVR8.h **** 		#include "../USBController.h"
  54:./tmk_core/protocol/lufa/LUFA-git/LUFA/Drivers/USB/Core/AVR8/../AVR8/Device_AVR8.h **** 		#include "../StdDescriptors.h"
  55:./tmk_core/protocol/lufa/LUFA-git/LUFA/Drivers/USB/Core/AVR8/../AVR8/Device_AVR8.h **** 		#include "../USBInterrupt.h"
  56:./tmk_core/protocol/lufa/LUFA-git/LUFA/Drivers/USB/Core/AVR8/../AVR8/Device_AVR8.h **** 		#include "../Endpoint.h"
  57:./tmk_core/protocol/lufa/LUFA-git/LUFA/Drivers/USB/Core/AVR8/../AVR8/Device_AVR8.h **** 
  58:./tmk_core/protocol/lufa/LUFA-git/LUFA/Drivers/USB/Core/AVR8/../AVR8/Device_AVR8.h **** 	/* Enable C linkage for C++ Compilers: */
  59:./tmk_core/protocol/lufa/LUFA-git/LUFA/Drivers/USB/Core/AVR8/../AVR8/Device_AVR8.h **** 		#if defined(__cplusplus)
  60:./tmk_core/protocol/lufa/LUFA-git/LUFA/Drivers/USB/Core/AVR8/../AVR8/Device_AVR8.h **** 			extern "C" {
  61:./tmk_core/protocol/lufa/LUFA-git/LUFA/Drivers/USB/Core/AVR8/../AVR8/Device_AVR8.h **** 		#endif
  62:./tmk_core/protocol/lufa/LUFA-git/LUFA/Drivers/USB/Core/AVR8/../AVR8/Device_AVR8.h **** 
  63:./tmk_core/protocol/lufa/LUFA-git/LUFA/Drivers/USB/Core/AVR8/../AVR8/Device_AVR8.h **** 	/* Preprocessor Checks: */
  64:./tmk_core/protocol/lufa/LUFA-git/LUFA/Drivers/USB/Core/AVR8/../AVR8/Device_AVR8.h **** 		#if !defined(__INCLUDE_FROM_USB_DRIVER)
  65:./tmk_core/protocol/lufa/LUFA-git/LUFA/Drivers/USB/Core/AVR8/../AVR8/Device_AVR8.h **** 			#error Do not include this file directly. Include LUFA/Drivers/USB/USB.h instead.
  66:./tmk_core/protocol/lufa/LUFA-git/LUFA/Drivers/USB/Core/AVR8/../AVR8/Device_AVR8.h **** 		#endif
  67:./tmk_core/protocol/lufa/LUFA-git/LUFA/Drivers/USB/Core/AVR8/../AVR8/Device_AVR8.h **** 
  68:./tmk_core/protocol/lufa/LUFA-git/LUFA/Drivers/USB/Core/AVR8/../AVR8/Device_AVR8.h **** 		#if (defined(USE_RAM_DESCRIPTORS) && defined(USE_EEPROM_DESCRIPTORS))
  69:./tmk_core/protocol/lufa/LUFA-git/LUFA/Drivers/USB/Core/AVR8/../AVR8/Device_AVR8.h **** 			#error USE_RAM_DESCRIPTORS and USE_EEPROM_DESCRIPTORS are mutually exclusive.
  70:./tmk_core/protocol/lufa/LUFA-git/LUFA/Drivers/USB/Core/AVR8/../AVR8/Device_AVR8.h **** 		#endif
  71:./tmk_core/protocol/lufa/LUFA-git/LUFA/Drivers/USB/Core/AVR8/../AVR8/Device_AVR8.h **** 
  72:./tmk_core/protocol/lufa/LUFA-git/LUFA/Drivers/USB/Core/AVR8/../AVR8/Device_AVR8.h **** 		#if (defined(USE_FLASH_DESCRIPTORS) && defined(USE_EEPROM_DESCRIPTORS))
  73:./tmk_core/protocol/lufa/LUFA-git/LUFA/Drivers/USB/Core/AVR8/../AVR8/Device_AVR8.h **** 			#error USE_FLASH_DESCRIPTORS and USE_EEPROM_DESCRIPTORS are mutually exclusive.
  74:./tmk_core/protocol/lufa/LUFA-git/LUFA/Drivers/USB/Core/AVR8/../AVR8/Device_AVR8.h **** 		#endif
  75:./tmk_core/protocol/lufa/LUFA-git/LUFA/Drivers/USB/Core/AVR8/../AVR8/Device_AVR8.h **** 
  76:./tmk_core/protocol/lufa/LUFA-git/LUFA/Drivers/USB/Core/AVR8/../AVR8/Device_AVR8.h **** 		#if (defined(USE_FLASH_DESCRIPTORS) && defined(USE_RAM_DESCRIPTORS))
  77:./tmk_core/protocol/lufa/LUFA-git/LUFA/Drivers/USB/Core/AVR8/../AVR8/Device_AVR8.h **** 			#error USE_FLASH_DESCRIPTORS and USE_RAM_DESCRIPTORS are mutually exclusive.
  78:./tmk_core/protocol/lufa/LUFA-git/LUFA/Drivers/USB/Core/AVR8/../AVR8/Device_AVR8.h **** 		#endif
  79:./tmk_core/protocol/lufa/LUFA-git/LUFA/Drivers/USB/Core/AVR8/../AVR8/Device_AVR8.h **** 
  80:./tmk_core/protocol/lufa/LUFA-git/LUFA/Drivers/USB/Core/AVR8/../AVR8/Device_AVR8.h **** 	/* Public Interface - May be used in end-application: */
  81:./tmk_core/protocol/lufa/LUFA-git/LUFA/Drivers/USB/Core/AVR8/../AVR8/Device_AVR8.h **** 		/* Macros: */
  82:./tmk_core/protocol/lufa/LUFA-git/LUFA/Drivers/USB/Core/AVR8/../AVR8/Device_AVR8.h **** 			/** \name USB Device Mode Option Masks */
  83:./tmk_core/protocol/lufa/LUFA-git/LUFA/Drivers/USB/Core/AVR8/../AVR8/Device_AVR8.h **** 			//@{
  84:./tmk_core/protocol/lufa/LUFA-git/LUFA/Drivers/USB/Core/AVR8/../AVR8/Device_AVR8.h **** 			#if defined(USB_SERIES_4_AVR) || defined(USB_SERIES_6_AVR) || defined(USB_SERIES_7_AVR) || defin
  85:./tmk_core/protocol/lufa/LUFA-git/LUFA/Drivers/USB/Core/AVR8/../AVR8/Device_AVR8.h **** 				/** Mask for the Options parameter of the \ref USB_Init() function. This indicates that the
  86:./tmk_core/protocol/lufa/LUFA-git/LUFA/Drivers/USB/Core/AVR8/../AVR8/Device_AVR8.h **** 				 *  USB interface should be initialized in low speed (1.5Mb/s) mode.
  87:./tmk_core/protocol/lufa/LUFA-git/LUFA/Drivers/USB/Core/AVR8/../AVR8/Device_AVR8.h **** 				 *
  88:./tmk_core/protocol/lufa/LUFA-git/LUFA/Drivers/USB/Core/AVR8/../AVR8/Device_AVR8.h **** 				 *  \note Low Speed mode is not available on all USB AVR models.
  89:./tmk_core/protocol/lufa/LUFA-git/LUFA/Drivers/USB/Core/AVR8/../AVR8/Device_AVR8.h **** 				 *        \n
  90:./tmk_core/protocol/lufa/LUFA-git/LUFA/Drivers/USB/Core/AVR8/../AVR8/Device_AVR8.h **** 				 *
  91:./tmk_core/protocol/lufa/LUFA-git/LUFA/Drivers/USB/Core/AVR8/../AVR8/Device_AVR8.h **** 				 *  \note Restrictions apply on the number, size and type of endpoints which can be used
  92:./tmk_core/protocol/lufa/LUFA-git/LUFA/Drivers/USB/Core/AVR8/../AVR8/Device_AVR8.h **** 				 *        when running in low speed mode - please refer to the USB 2.0 specification.
  93:./tmk_core/protocol/lufa/LUFA-git/LUFA/Drivers/USB/Core/AVR8/../AVR8/Device_AVR8.h **** 				 */
  94:./tmk_core/protocol/lufa/LUFA-git/LUFA/Drivers/USB/Core/AVR8/../AVR8/Device_AVR8.h **** 				#define USB_DEVICE_OPT_LOWSPEED            (1 << 0)
  95:./tmk_core/protocol/lufa/LUFA-git/LUFA/Drivers/USB/Core/AVR8/../AVR8/Device_AVR8.h **** 			#endif
  96:./tmk_core/protocol/lufa/LUFA-git/LUFA/Drivers/USB/Core/AVR8/../AVR8/Device_AVR8.h **** 
  97:./tmk_core/protocol/lufa/LUFA-git/LUFA/Drivers/USB/Core/AVR8/../AVR8/Device_AVR8.h **** 			/** Mask for the Options parameter of the \ref USB_Init() function. This indicates that the
  98:./tmk_core/protocol/lufa/LUFA-git/LUFA/Drivers/USB/Core/AVR8/../AVR8/Device_AVR8.h **** 			 *  USB interface should be initialized in full speed (12Mb/s) mode.
  99:./tmk_core/protocol/lufa/LUFA-git/LUFA/Drivers/USB/Core/AVR8/../AVR8/Device_AVR8.h **** 			 */
 100:./tmk_core/protocol/lufa/LUFA-git/LUFA/Drivers/USB/Core/AVR8/../AVR8/Device_AVR8.h **** 			#define USB_DEVICE_OPT_FULLSPEED               (0 << 0)
 101:./tmk_core/protocol/lufa/LUFA-git/LUFA/Drivers/USB/Core/AVR8/../AVR8/Device_AVR8.h **** 			//@}
 102:./tmk_core/protocol/lufa/LUFA-git/LUFA/Drivers/USB/Core/AVR8/../AVR8/Device_AVR8.h **** 
 103:./tmk_core/protocol/lufa/LUFA-git/LUFA/Drivers/USB/Core/AVR8/../AVR8/Device_AVR8.h **** 			#if (!defined(NO_INTERNAL_SERIAL) && \
 104:./tmk_core/protocol/lufa/LUFA-git/LUFA/Drivers/USB/Core/AVR8/../AVR8/Device_AVR8.h **** 			     (defined(USB_SERIES_7_AVR) || defined(USB_SERIES_6_AVR) || \
 105:./tmk_core/protocol/lufa/LUFA-git/LUFA/Drivers/USB/Core/AVR8/../AVR8/Device_AVR8.h **** 			      defined(USB_SERIES_4_AVR) || defined(USB_SERIES_2_AVR) || \
 106:./tmk_core/protocol/lufa/LUFA-git/LUFA/Drivers/USB/Core/AVR8/../AVR8/Device_AVR8.h **** 				  defined(__DOXYGEN__)))
 107:./tmk_core/protocol/lufa/LUFA-git/LUFA/Drivers/USB/Core/AVR8/../AVR8/Device_AVR8.h **** 				/** String descriptor index for the device's unique serial number string descriptor within the 
 108:./tmk_core/protocol/lufa/LUFA-git/LUFA/Drivers/USB/Core/AVR8/../AVR8/Device_AVR8.h **** 				 *  This unique serial number is used by the host to associate resources to the device (such as
 109:./tmk_core/protocol/lufa/LUFA-git/LUFA/Drivers/USB/Core/AVR8/../AVR8/Device_AVR8.h **** 				 *  number allocations) to a device regardless of the port it is plugged in to on the host. Som
 110:./tmk_core/protocol/lufa/LUFA-git/LUFA/Drivers/USB/Core/AVR8/../AVR8/Device_AVR8.h **** 				 *  a unique serial number internally, and setting the device descriptors serial number string 
 111:./tmk_core/protocol/lufa/LUFA-git/LUFA/Drivers/USB/Core/AVR8/../AVR8/Device_AVR8.h **** 				 *  will cause it to use the internal serial number.
 112:./tmk_core/protocol/lufa/LUFA-git/LUFA/Drivers/USB/Core/AVR8/../AVR8/Device_AVR8.h **** 				 *
 113:./tmk_core/protocol/lufa/LUFA-git/LUFA/Drivers/USB/Core/AVR8/../AVR8/Device_AVR8.h **** 				 *  On unsupported devices, this will evaluate to \ref NO_DESCRIPTOR and so will force the host
 114:./tmk_core/protocol/lufa/LUFA-git/LUFA/Drivers/USB/Core/AVR8/../AVR8/Device_AVR8.h **** 				 *  number for the device.
 115:./tmk_core/protocol/lufa/LUFA-git/LUFA/Drivers/USB/Core/AVR8/../AVR8/Device_AVR8.h **** 				 */
 116:./tmk_core/protocol/lufa/LUFA-git/LUFA/Drivers/USB/Core/AVR8/../AVR8/Device_AVR8.h **** 				#define USE_INTERNAL_SERIAL            0xDC
 117:./tmk_core/protocol/lufa/LUFA-git/LUFA/Drivers/USB/Core/AVR8/../AVR8/Device_AVR8.h **** 
 118:./tmk_core/protocol/lufa/LUFA-git/LUFA/Drivers/USB/Core/AVR8/../AVR8/Device_AVR8.h **** 				/** Length of the device's unique internal serial number, in bits, if present on the selected m
 119:./tmk_core/protocol/lufa/LUFA-git/LUFA/Drivers/USB/Core/AVR8/../AVR8/Device_AVR8.h **** 				 *  model.
 120:./tmk_core/protocol/lufa/LUFA-git/LUFA/Drivers/USB/Core/AVR8/../AVR8/Device_AVR8.h **** 				 */
 121:./tmk_core/protocol/lufa/LUFA-git/LUFA/Drivers/USB/Core/AVR8/../AVR8/Device_AVR8.h **** 				#define INTERNAL_SERIAL_LENGTH_BITS    80
 122:./tmk_core/protocol/lufa/LUFA-git/LUFA/Drivers/USB/Core/AVR8/../AVR8/Device_AVR8.h **** 
 123:./tmk_core/protocol/lufa/LUFA-git/LUFA/Drivers/USB/Core/AVR8/../AVR8/Device_AVR8.h **** 				/** Start address of the internal serial number, in the appropriate address space, if present o
 124:./tmk_core/protocol/lufa/LUFA-git/LUFA/Drivers/USB/Core/AVR8/../AVR8/Device_AVR8.h **** 				 *  model.
 125:./tmk_core/protocol/lufa/LUFA-git/LUFA/Drivers/USB/Core/AVR8/../AVR8/Device_AVR8.h **** 				 */
 126:./tmk_core/protocol/lufa/LUFA-git/LUFA/Drivers/USB/Core/AVR8/../AVR8/Device_AVR8.h **** 				#define INTERNAL_SERIAL_START_ADDRESS  0x0E
 127:./tmk_core/protocol/lufa/LUFA-git/LUFA/Drivers/USB/Core/AVR8/../AVR8/Device_AVR8.h **** 			#else
 128:./tmk_core/protocol/lufa/LUFA-git/LUFA/Drivers/USB/Core/AVR8/../AVR8/Device_AVR8.h **** 				#define USE_INTERNAL_SERIAL            NO_DESCRIPTOR
 129:./tmk_core/protocol/lufa/LUFA-git/LUFA/Drivers/USB/Core/AVR8/../AVR8/Device_AVR8.h **** 
 130:./tmk_core/protocol/lufa/LUFA-git/LUFA/Drivers/USB/Core/AVR8/../AVR8/Device_AVR8.h **** 				#define INTERNAL_SERIAL_LENGTH_BITS    0
 131:./tmk_core/protocol/lufa/LUFA-git/LUFA/Drivers/USB/Core/AVR8/../AVR8/Device_AVR8.h **** 				#define INTERNAL_SERIAL_START_ADDRESS  0
 132:./tmk_core/protocol/lufa/LUFA-git/LUFA/Drivers/USB/Core/AVR8/../AVR8/Device_AVR8.h **** 			#endif
 133:./tmk_core/protocol/lufa/LUFA-git/LUFA/Drivers/USB/Core/AVR8/../AVR8/Device_AVR8.h **** 
 134:./tmk_core/protocol/lufa/LUFA-git/LUFA/Drivers/USB/Core/AVR8/../AVR8/Device_AVR8.h **** 		/* Function Prototypes: */
 135:./tmk_core/protocol/lufa/LUFA-git/LUFA/Drivers/USB/Core/AVR8/../AVR8/Device_AVR8.h **** 			/** Sends a Remote Wakeup request to the host. This signals to the host that the device should
 136:./tmk_core/protocol/lufa/LUFA-git/LUFA/Drivers/USB/Core/AVR8/../AVR8/Device_AVR8.h **** 			 *  be taken out of suspended mode, and communications should resume.
 137:./tmk_core/protocol/lufa/LUFA-git/LUFA/Drivers/USB/Core/AVR8/../AVR8/Device_AVR8.h **** 			 *
 138:./tmk_core/protocol/lufa/LUFA-git/LUFA/Drivers/USB/Core/AVR8/../AVR8/Device_AVR8.h **** 			 *  Typically, this is implemented so that HID devices (mice, keyboards, etc.) can wake up the
 139:./tmk_core/protocol/lufa/LUFA-git/LUFA/Drivers/USB/Core/AVR8/../AVR8/Device_AVR8.h **** 			 *  host computer when the host has suspended all USB devices to enter a low power state.
 140:./tmk_core/protocol/lufa/LUFA-git/LUFA/Drivers/USB/Core/AVR8/../AVR8/Device_AVR8.h **** 			 *
 141:./tmk_core/protocol/lufa/LUFA-git/LUFA/Drivers/USB/Core/AVR8/../AVR8/Device_AVR8.h **** 			 *  \attention This function should only be used if the device has indicated to the host that it
 142:./tmk_core/protocol/lufa/LUFA-git/LUFA/Drivers/USB/Core/AVR8/../AVR8/Device_AVR8.h **** 			 *             supports the Remote Wakeup feature in the device descriptors, and should only be
 143:./tmk_core/protocol/lufa/LUFA-git/LUFA/Drivers/USB/Core/AVR8/../AVR8/Device_AVR8.h **** 			 *             issued if the host is currently allowing remote wakeup events from the device (i.
 144:./tmk_core/protocol/lufa/LUFA-git/LUFA/Drivers/USB/Core/AVR8/../AVR8/Device_AVR8.h **** 			 *             the \ref USB_Device_RemoteWakeupEnabled flag is set). When the \c NO_DEVICE_REMOT
 145:./tmk_core/protocol/lufa/LUFA-git/LUFA/Drivers/USB/Core/AVR8/../AVR8/Device_AVR8.h **** 			 *             compile time option is used, this function is unavailable.
 146:./tmk_core/protocol/lufa/LUFA-git/LUFA/Drivers/USB/Core/AVR8/../AVR8/Device_AVR8.h **** 			 *             \n\n
 147:./tmk_core/protocol/lufa/LUFA-git/LUFA/Drivers/USB/Core/AVR8/../AVR8/Device_AVR8.h **** 			 *
 148:./tmk_core/protocol/lufa/LUFA-git/LUFA/Drivers/USB/Core/AVR8/../AVR8/Device_AVR8.h **** 			 *  \attention The USB clock must be running for this function to operate. If the stack is initi
 149:./tmk_core/protocol/lufa/LUFA-git/LUFA/Drivers/USB/Core/AVR8/../AVR8/Device_AVR8.h **** 			 *             the \ref USB_OPT_MANUAL_PLL option enabled, the user must ensure that the PLL is 
 150:./tmk_core/protocol/lufa/LUFA-git/LUFA/Drivers/USB/Core/AVR8/../AVR8/Device_AVR8.h **** 			 *             before attempting to call this function.
 151:./tmk_core/protocol/lufa/LUFA-git/LUFA/Drivers/USB/Core/AVR8/../AVR8/Device_AVR8.h **** 			 *
 152:./tmk_core/protocol/lufa/LUFA-git/LUFA/Drivers/USB/Core/AVR8/../AVR8/Device_AVR8.h **** 			 *  \see \ref Group_StdDescriptors for more information on the RMWAKEUP feature and device descr
 153:./tmk_core/protocol/lufa/LUFA-git/LUFA/Drivers/USB/Core/AVR8/../AVR8/Device_AVR8.h **** 			 */
 154:./tmk_core/protocol/lufa/LUFA-git/LUFA/Drivers/USB/Core/AVR8/../AVR8/Device_AVR8.h **** 			void USB_Device_SendRemoteWakeup(void);
 155:./tmk_core/protocol/lufa/LUFA-git/LUFA/Drivers/USB/Core/AVR8/../AVR8/Device_AVR8.h **** 
 156:./tmk_core/protocol/lufa/LUFA-git/LUFA/Drivers/USB/Core/AVR8/../AVR8/Device_AVR8.h **** 		/* Inline Functions: */
 157:./tmk_core/protocol/lufa/LUFA-git/LUFA/Drivers/USB/Core/AVR8/../AVR8/Device_AVR8.h **** 			/** Returns the current USB frame number, when in device mode. Every millisecond the USB bus is 
 158:./tmk_core/protocol/lufa/LUFA-git/LUFA/Drivers/USB/Core/AVR8/../AVR8/Device_AVR8.h **** 			 *  the frame number is incremented by one.
 159:./tmk_core/protocol/lufa/LUFA-git/LUFA/Drivers/USB/Core/AVR8/../AVR8/Device_AVR8.h **** 			 *
 160:./tmk_core/protocol/lufa/LUFA-git/LUFA/Drivers/USB/Core/AVR8/../AVR8/Device_AVR8.h **** 			 *  \return Current USB frame number from the USB controller.
 161:./tmk_core/protocol/lufa/LUFA-git/LUFA/Drivers/USB/Core/AVR8/../AVR8/Device_AVR8.h **** 			 */
 162:./tmk_core/protocol/lufa/LUFA-git/LUFA/Drivers/USB/Core/AVR8/../AVR8/Device_AVR8.h **** 			static inline uint16_t USB_Device_GetFrameNumber(void) ATTR_ALWAYS_INLINE ATTR_WARN_UNUSED_RESUL
 163:./tmk_core/protocol/lufa/LUFA-git/LUFA/Drivers/USB/Core/AVR8/../AVR8/Device_AVR8.h **** 			static inline uint16_t USB_Device_GetFrameNumber(void)
 164:./tmk_core/protocol/lufa/LUFA-git/LUFA/Drivers/USB/Core/AVR8/../AVR8/Device_AVR8.h **** 			{
 165:./tmk_core/protocol/lufa/LUFA-git/LUFA/Drivers/USB/Core/AVR8/../AVR8/Device_AVR8.h **** 				return UDFNUM;
 166:./tmk_core/protocol/lufa/LUFA-git/LUFA/Drivers/USB/Core/AVR8/../AVR8/Device_AVR8.h **** 			}
 167:./tmk_core/protocol/lufa/LUFA-git/LUFA/Drivers/USB/Core/AVR8/../AVR8/Device_AVR8.h **** 
 168:./tmk_core/protocol/lufa/LUFA-git/LUFA/Drivers/USB/Core/AVR8/../AVR8/Device_AVR8.h **** 			#if !defined(NO_SOF_EVENTS)
 169:./tmk_core/protocol/lufa/LUFA-git/LUFA/Drivers/USB/Core/AVR8/../AVR8/Device_AVR8.h **** 				/** Enables the device mode Start Of Frame events. When enabled, this causes the
 170:./tmk_core/protocol/lufa/LUFA-git/LUFA/Drivers/USB/Core/AVR8/../AVR8/Device_AVR8.h **** 				 *  \ref EVENT_USB_Device_StartOfFrame() event to fire once per millisecond, synchronized to th
 171:./tmk_core/protocol/lufa/LUFA-git/LUFA/Drivers/USB/Core/AVR8/../AVR8/Device_AVR8.h **** 				 *  at the start of each USB frame when enumerated in device mode.
 172:./tmk_core/protocol/lufa/LUFA-git/LUFA/Drivers/USB/Core/AVR8/../AVR8/Device_AVR8.h **** 				 *
 173:./tmk_core/protocol/lufa/LUFA-git/LUFA/Drivers/USB/Core/AVR8/../AVR8/Device_AVR8.h **** 				 *  \note This function is not available when the \c NO_SOF_EVENTS compile time token is define
 174:./tmk_core/protocol/lufa/LUFA-git/LUFA/Drivers/USB/Core/AVR8/../AVR8/Device_AVR8.h **** 				 */
 175:./tmk_core/protocol/lufa/LUFA-git/LUFA/Drivers/USB/Core/AVR8/../AVR8/Device_AVR8.h **** 				static inline void USB_Device_EnableSOFEvents(void) ATTR_ALWAYS_INLINE;
 176:./tmk_core/protocol/lufa/LUFA-git/LUFA/Drivers/USB/Core/AVR8/../AVR8/Device_AVR8.h **** 				static inline void USB_Device_EnableSOFEvents(void)
 177:./tmk_core/protocol/lufa/LUFA-git/LUFA/Drivers/USB/Core/AVR8/../AVR8/Device_AVR8.h **** 				{
 178:./tmk_core/protocol/lufa/LUFA-git/LUFA/Drivers/USB/Core/AVR8/../AVR8/Device_AVR8.h **** 					USB_INT_Enable(USB_INT_SOFI);
 179:./tmk_core/protocol/lufa/LUFA-git/LUFA/Drivers/USB/Core/AVR8/../AVR8/Device_AVR8.h **** 				}
 180:./tmk_core/protocol/lufa/LUFA-git/LUFA/Drivers/USB/Core/AVR8/../AVR8/Device_AVR8.h **** 
 181:./tmk_core/protocol/lufa/LUFA-git/LUFA/Drivers/USB/Core/AVR8/../AVR8/Device_AVR8.h **** 				/** Disables the device mode Start Of Frame events. When disabled, this stops the firing of the
 182:./tmk_core/protocol/lufa/LUFA-git/LUFA/Drivers/USB/Core/AVR8/../AVR8/Device_AVR8.h **** 				 *  \ref EVENT_USB_Device_StartOfFrame() event when enumerated in device mode.
 183:./tmk_core/protocol/lufa/LUFA-git/LUFA/Drivers/USB/Core/AVR8/../AVR8/Device_AVR8.h **** 				 *
 184:./tmk_core/protocol/lufa/LUFA-git/LUFA/Drivers/USB/Core/AVR8/../AVR8/Device_AVR8.h **** 				 *  \note This function is not available when the \c NO_SOF_EVENTS compile time token is define
 185:./tmk_core/protocol/lufa/LUFA-git/LUFA/Drivers/USB/Core/AVR8/../AVR8/Device_AVR8.h **** 				 */
 186:./tmk_core/protocol/lufa/LUFA-git/LUFA/Drivers/USB/Core/AVR8/../AVR8/Device_AVR8.h **** 				static inline void USB_Device_DisableSOFEvents(void) ATTR_ALWAYS_INLINE;
 187:./tmk_core/protocol/lufa/LUFA-git/LUFA/Drivers/USB/Core/AVR8/../AVR8/Device_AVR8.h **** 				static inline void USB_Device_DisableSOFEvents(void)
 188:./tmk_core/protocol/lufa/LUFA-git/LUFA/Drivers/USB/Core/AVR8/../AVR8/Device_AVR8.h **** 				{
 189:./tmk_core/protocol/lufa/LUFA-git/LUFA/Drivers/USB/Core/AVR8/../AVR8/Device_AVR8.h **** 					USB_INT_Disable(USB_INT_SOFI);
 190:./tmk_core/protocol/lufa/LUFA-git/LUFA/Drivers/USB/Core/AVR8/../AVR8/Device_AVR8.h **** 				}
 191:./tmk_core/protocol/lufa/LUFA-git/LUFA/Drivers/USB/Core/AVR8/../AVR8/Device_AVR8.h **** 			#endif
 192:./tmk_core/protocol/lufa/LUFA-git/LUFA/Drivers/USB/Core/AVR8/../AVR8/Device_AVR8.h **** 
 193:./tmk_core/protocol/lufa/LUFA-git/LUFA/Drivers/USB/Core/AVR8/../AVR8/Device_AVR8.h **** 	/* Private Interface - For use in library only: */
 194:./tmk_core/protocol/lufa/LUFA-git/LUFA/Drivers/USB/Core/AVR8/../AVR8/Device_AVR8.h **** 	#if !defined(__DOXYGEN__)
 195:./tmk_core/protocol/lufa/LUFA-git/LUFA/Drivers/USB/Core/AVR8/../AVR8/Device_AVR8.h **** 		/* Inline Functions: */
 196:./tmk_core/protocol/lufa/LUFA-git/LUFA/Drivers/USB/Core/AVR8/../AVR8/Device_AVR8.h **** 			#if defined(USB_DEVICE_OPT_LOWSPEED)
 197:./tmk_core/protocol/lufa/LUFA-git/LUFA/Drivers/USB/Core/AVR8/../AVR8/Device_AVR8.h **** 			static inline void USB_Device_SetLowSpeed(void) ATTR_ALWAYS_INLINE;
 198:./tmk_core/protocol/lufa/LUFA-git/LUFA/Drivers/USB/Core/AVR8/../AVR8/Device_AVR8.h **** 			static inline void USB_Device_SetLowSpeed(void)
 199:./tmk_core/protocol/lufa/LUFA-git/LUFA/Drivers/USB/Core/AVR8/../AVR8/Device_AVR8.h **** 			{
 200:./tmk_core/protocol/lufa/LUFA-git/LUFA/Drivers/USB/Core/AVR8/../AVR8/Device_AVR8.h **** 				UDCON |=  (1 << LSM);
 201:./tmk_core/protocol/lufa/LUFA-git/LUFA/Drivers/USB/Core/AVR8/../AVR8/Device_AVR8.h **** 			}
 202:./tmk_core/protocol/lufa/LUFA-git/LUFA/Drivers/USB/Core/AVR8/../AVR8/Device_AVR8.h **** 
 203:./tmk_core/protocol/lufa/LUFA-git/LUFA/Drivers/USB/Core/AVR8/../AVR8/Device_AVR8.h **** 			static inline void USB_Device_SetFullSpeed(void) ATTR_ALWAYS_INLINE;
 204:./tmk_core/protocol/lufa/LUFA-git/LUFA/Drivers/USB/Core/AVR8/../AVR8/Device_AVR8.h **** 			static inline void USB_Device_SetFullSpeed(void)
 205:./tmk_core/protocol/lufa/LUFA-git/LUFA/Drivers/USB/Core/AVR8/../AVR8/Device_AVR8.h **** 			{
 206:./tmk_core/protocol/lufa/LUFA-git/LUFA/Drivers/USB/Core/AVR8/../AVR8/Device_AVR8.h **** 				UDCON &= ~(1 << LSM);
 207:./tmk_core/protocol/lufa/LUFA-git/LUFA/Drivers/USB/Core/AVR8/../AVR8/Device_AVR8.h **** 			}
 208:./tmk_core/protocol/lufa/LUFA-git/LUFA/Drivers/USB/Core/AVR8/../AVR8/Device_AVR8.h **** 			#endif
 209:./tmk_core/protocol/lufa/LUFA-git/LUFA/Drivers/USB/Core/AVR8/../AVR8/Device_AVR8.h **** 
 210:./tmk_core/protocol/lufa/LUFA-git/LUFA/Drivers/USB/Core/AVR8/../AVR8/Device_AVR8.h **** 			static inline void USB_Device_SetDeviceAddress(const uint8_t Address) ATTR_ALWAYS_INLINE;
 211:./tmk_core/protocol/lufa/LUFA-git/LUFA/Drivers/USB/Core/AVR8/../AVR8/Device_AVR8.h **** 			static inline void USB_Device_SetDeviceAddress(const uint8_t Address)
 569               		.loc 3 211 23 view .LVU176
 570               	.LBB234:
 212:./tmk_core/protocol/lufa/LUFA-git/LUFA/Drivers/USB/Core/AVR8/../AVR8/Device_AVR8.h **** 			{
 213:./tmk_core/protocol/lufa/LUFA-git/LUFA/Drivers/USB/Core/AVR8/../AVR8/Device_AVR8.h **** 				UDADDR = (UDADDR & (1 << ADDEN)) | (Address & 0x7F);
 571               		.loc 3 213 5 view .LVU177
 572               		.loc 3 213 15 is_stmt 0 view .LVU178
 573 015c 8091 E300 		lds r24,227
 574               	.LVL36:
 575               		.loc 3 213 15 view .LVU179
 576 0160 8078      		andi r24,lo8(-128)
 577 0162 812B      		or r24,r17
 578               		.loc 3 213 12 view .LVU180
 579 0164 8093 E300 		sts 227,r24
 580               	.LVL37:
 581               		.loc 3 213 12 view .LVU181
 582               	.LBE234:
 583               	.LBE233:
 131:./tmk_core/protocol/lufa/LUFA-git/LUFA/Drivers/USB/Core/DeviceStandardReq.c **** 
 584               		.loc 1 131 2 is_stmt 1 view .LVU182
 585               	.LBB235:
 586               	.LBI235:
 442:./tmk_core/protocol/lufa/LUFA-git/LUFA/Drivers/USB/Core/AVR8/../AVR8/Endpoint_AVR8.h **** 			{
 587               		.loc 2 442 23 view .LVU183
 588               	.LBB236:
 444:./tmk_core/protocol/lufa/LUFA-git/LUFA/Drivers/USB/Core/AVR8/../AVR8/Endpoint_AVR8.h **** 			}
 589               		.loc 2 444 5 view .LVU184
 444:./tmk_core/protocol/lufa/LUFA-git/LUFA/Drivers/USB/Core/AVR8/../AVR8/Endpoint_AVR8.h **** 			}
 590               		.loc 2 444 12 is_stmt 0 view .LVU185
 591 0168 8091 E800 		lds r24,232
 592 016c 877F      		andi r24,lo8(-9)
 593 016e 8093 E800 		sts 232,r24
 594               	.LBE236:
 595               	.LBE235:
 133:./tmk_core/protocol/lufa/LUFA-git/LUFA/Drivers/USB/Core/DeviceStandardReq.c **** 
 596               		.loc 1 133 2 is_stmt 1 view .LVU186
 597 0172 0E94 0000 		call Endpoint_ClearStatusStage
 598               	.LVL38:
 135:./tmk_core/protocol/lufa/LUFA-git/LUFA/Drivers/USB/Core/DeviceStandardReq.c **** 
 599               		.loc 1 135 2 view .LVU187
 600               	.L21:
 135:./tmk_core/protocol/lufa/LUFA-git/LUFA/Drivers/USB/Core/DeviceStandardReq.c **** 
 601               		.loc 1 135 9 view .LVU188
 602               	.LBB237:
 603               	.LBI237:
 405:./tmk_core/protocol/lufa/LUFA-git/LUFA/Drivers/USB/Core/AVR8/../AVR8/Endpoint_AVR8.h **** 			{
 604               		.loc 2 405 23 view .LVU189
 605               	.LBB238:
 407:./tmk_core/protocol/lufa/LUFA-git/LUFA/Drivers/USB/Core/AVR8/../AVR8/Endpoint_AVR8.h **** 			}
 606               		.loc 2 407 5 view .LVU190
 407:./tmk_core/protocol/lufa/LUFA-git/LUFA/Drivers/USB/Core/AVR8/../AVR8/Endpoint_AVR8.h **** 			}
 607               		.loc 2 407 14 is_stmt 0 view .LVU191
 608 0176 8091 E800 		lds r24,232
 609               	.LBE238:
 610               	.LBE237:
 135:./tmk_core/protocol/lufa/LUFA-git/LUFA/Drivers/USB/Core/DeviceStandardReq.c **** 
 611               		.loc 1 135 9 view .LVU192
 612 017a 80FF      		sbrs r24,0
 613 017c 00C0      		rjmp .L21
 137:./tmk_core/protocol/lufa/LUFA-git/LUFA/Drivers/USB/Core/DeviceStandardReq.c **** 
 614               		.loc 1 137 2 is_stmt 1 view .LVU193
 615               	.LVL39:
 616               	.LBB239:
 617               	.LBI239:
 214:./tmk_core/protocol/lufa/LUFA-git/LUFA/Drivers/USB/Core/AVR8/../AVR8/Device_AVR8.h **** 			}
 215:./tmk_core/protocol/lufa/LUFA-git/LUFA/Drivers/USB/Core/AVR8/../AVR8/Device_AVR8.h **** 
 216:./tmk_core/protocol/lufa/LUFA-git/LUFA/Drivers/USB/Core/AVR8/../AVR8/Device_AVR8.h **** 			static inline void USB_Device_EnableDeviceAddress(const uint8_t Address) ATTR_ALWAYS_INLINE;
 217:./tmk_core/protocol/lufa/LUFA-git/LUFA/Drivers/USB/Core/AVR8/../AVR8/Device_AVR8.h **** 			static inline void USB_Device_EnableDeviceAddress(const uint8_t Address)
 618               		.loc 3 217 23 view .LVU194
 619               	.LBB240:
 218:./tmk_core/protocol/lufa/LUFA-git/LUFA/Drivers/USB/Core/AVR8/../AVR8/Device_AVR8.h **** 			{
 219:./tmk_core/protocol/lufa/LUFA-git/LUFA/Drivers/USB/Core/AVR8/../AVR8/Device_AVR8.h **** 				(void)Address;
 620               		.loc 3 219 5 view .LVU195
 220:./tmk_core/protocol/lufa/LUFA-git/LUFA/Drivers/USB/Core/AVR8/../AVR8/Device_AVR8.h **** 
 221:./tmk_core/protocol/lufa/LUFA-git/LUFA/Drivers/USB/Core/AVR8/../AVR8/Device_AVR8.h **** 				UDADDR |= (1 << ADDEN);
 621               		.loc 3 221 5 view .LVU196
 622 017e 8091 E300 		lds r24,227
 623               		.loc 3 221 12 is_stmt 0 view .LVU197
 624 0182 8068      		ori r24,lo8(-128)
 625 0184 8093 E300 		sts 227,r24
 626               	.LVL40:
 627               		.loc 3 221 12 view .LVU198
 628               	.LBE240:
 629               	.LBE239:
 139:./tmk_core/protocol/lufa/LUFA-git/LUFA/Drivers/USB/Core/DeviceStandardReq.c **** }
 630               		.loc 1 139 2 is_stmt 1 view .LVU199
 139:./tmk_core/protocol/lufa/LUFA-git/LUFA/Drivers/USB/Core/DeviceStandardReq.c **** }
 631               		.loc 1 139 18 is_stmt 0 view .LVU200
 632 0188 83E0      		ldi r24,lo8(3)
 633 018a 1111      		cpse r17,__zero_reg__
 634 018c 00C0      		rjmp .L22
 635 018e 82E0      		ldi r24,lo8(2)
 636               	.L22:
 637 0190 8093 0000 		sts USB_DeviceState,r24
 140:./tmk_core/protocol/lufa/LUFA-git/LUFA/Drivers/USB/Core/DeviceStandardReq.c **** 
 638               		.loc 1 140 1 view .LVU201
 639 0194 00C0      		rjmp .L3
 640               	.LVL41:
 641               	.L7:
 140:./tmk_core/protocol/lufa/LUFA-git/LUFA/Drivers/USB/Core/DeviceStandardReq.c **** 
 642               		.loc 1 140 1 view .LVU202
 643               	.LBE232:
 644               	.LBE231:
  95:./tmk_core/protocol/lufa/LUFA-git/LUFA/Drivers/USB/Core/DeviceStandardReq.c **** 					(bmRequestType == (REQDIR_DEVICETOHOST | REQTYPE_STANDARD | REQREC_INTERFACE)))
 645               		.loc 1 95 5 is_stmt 1 view .LVU203
  95:./tmk_core/protocol/lufa/LUFA-git/LUFA/Drivers/USB/Core/DeviceStandardReq.c **** 					(bmRequestType == (REQDIR_DEVICETOHOST | REQTYPE_STANDARD | REQREC_INTERFACE)))
 646               		.loc 1 95 85 is_stmt 0 view .LVU204
 647 0196 8058      		subi r24,lo8(-(-128))
 648               	.LVL42:
  95:./tmk_core/protocol/lufa/LUFA-git/LUFA/Drivers/USB/Core/DeviceStandardReq.c **** 					(bmRequestType == (REQDIR_DEVICETOHOST | REQTYPE_STANDARD | REQREC_INTERFACE)))
 649               		.loc 1 95 8 view .LVU205
 650 0198 8230      		cpi r24,lo8(2)
 651 019a 00F0      		brlo .+2
 652 019c 00C0      		rjmp .L3
  98:./tmk_core/protocol/lufa/LUFA-git/LUFA/Drivers/USB/Core/DeviceStandardReq.c **** 				}
 653               		.loc 1 98 6 is_stmt 1 view .LVU206
 654               	.LBB241:
 655               	.LBI241:
 239:./tmk_core/protocol/lufa/LUFA-git/LUFA/Drivers/USB/Core/DeviceStandardReq.c **** {
 656               		.loc 1 239 13 view .LVU207
 657               	.LBB242:
 241:./tmk_core/protocol/lufa/LUFA-git/LUFA/Drivers/USB/Core/DeviceStandardReq.c **** 	uint16_t    DescriptorSize;
 658               		.loc 1 241 2 view .LVU208
 242:./tmk_core/protocol/lufa/LUFA-git/LUFA/Drivers/USB/Core/DeviceStandardReq.c **** 
 659               		.loc 1 242 2 view .LVU209
 250:./tmk_core/protocol/lufa/LUFA-git/LUFA/Drivers/USB/Core/DeviceStandardReq.c **** 	{
 660               		.loc 1 250 2 view .LVU210
 250:./tmk_core/protocol/lufa/LUFA-git/LUFA/Drivers/USB/Core/DeviceStandardReq.c **** 	{
 661               		.loc 1 250 24 is_stmt 0 view .LVU211
 662 019e 8091 0000 		lds r24,USB_ControlRequest+2
 663 01a2 9091 0000 		lds r25,USB_ControlRequest+2+1
 250:./tmk_core/protocol/lufa/LUFA-git/LUFA/Drivers/USB/Core/DeviceStandardReq.c **** 	{
 664               		.loc 1 250 5 view .LVU212
 665 01a6 8C3D      		cpi r24,-36
 666 01a8 53E0      		ldi r21,3
 667 01aa 9507      		cpc r25,r21
 668 01ac 01F4      		brne .L23
 252:./tmk_core/protocol/lufa/LUFA-git/LUFA/Drivers/USB/Core/DeviceStandardReq.c **** 		return;
 669               		.loc 1 252 3 is_stmt 1 view .LVU213
 670               	.LBB243:
 671               	.LBI243:
 219:./tmk_core/protocol/lufa/LUFA-git/LUFA/Drivers/USB/Core/DeviceStandardReq.c **** {
 672               		.loc 1 219 13 view .LVU214
 673               	.LBB244:
 221:./tmk_core/protocol/lufa/LUFA-git/LUFA/Drivers/USB/Core/DeviceStandardReq.c **** 	{
 674               		.loc 1 221 2 view .LVU215
 227:./tmk_core/protocol/lufa/LUFA-git/LUFA/Drivers/USB/Core/DeviceStandardReq.c **** 	SignatureDescriptor.Header.Size = USB_STRING_LEN(INTERNAL_SERIAL_LENGTH_BITS / 4);
 675               		.loc 1 227 2 view .LVU216
 227:./tmk_core/protocol/lufa/LUFA-git/LUFA/Drivers/USB/Core/DeviceStandardReq.c **** 	SignatureDescriptor.Header.Size = USB_STRING_LEN(INTERNAL_SERIAL_LENGTH_BITS / 4);
 676               		.loc 1 227 34 is_stmt 0 view .LVU217
 677 01ae 83E0      		ldi r24,lo8(3)
 678 01b0 8A83      		std Y+2,r24
 228:./tmk_core/protocol/lufa/LUFA-git/LUFA/Drivers/USB/Core/DeviceStandardReq.c **** 
 679               		.loc 1 228 2 is_stmt 1 view .LVU218
 228:./tmk_core/protocol/lufa/LUFA-git/LUFA/Drivers/USB/Core/DeviceStandardReq.c **** 
 680               		.loc 1 228 34 is_stmt 0 view .LVU219
 681 01b2 8AE2      		ldi r24,lo8(42)
 682 01b4 8983      		std Y+1,r24
 230:./tmk_core/protocol/lufa/LUFA-git/LUFA/Drivers/USB/Core/DeviceStandardReq.c **** 
 683               		.loc 1 230 2 is_stmt 1 view .LVU220
 684               	.LVL43:
 685               	.LBB245:
 686               	.LBI245:
 222:./tmk_core/protocol/lufa/LUFA-git/LUFA/Drivers/USB/Core/AVR8/../AVR8/Device_AVR8.h **** 			}
 223:./tmk_core/protocol/lufa/LUFA-git/LUFA/Drivers/USB/Core/AVR8/../AVR8/Device_AVR8.h **** 
 224:./tmk_core/protocol/lufa/LUFA-git/LUFA/Drivers/USB/Core/AVR8/../AVR8/Device_AVR8.h **** 			static inline bool USB_Device_IsAddressSet(void) ATTR_ALWAYS_INLINE ATTR_WARN_UNUSED_RESULT;
 225:./tmk_core/protocol/lufa/LUFA-git/LUFA/Drivers/USB/Core/AVR8/../AVR8/Device_AVR8.h **** 			static inline bool USB_Device_IsAddressSet(void)
 226:./tmk_core/protocol/lufa/LUFA-git/LUFA/Drivers/USB/Core/AVR8/../AVR8/Device_AVR8.h **** 			{
 227:./tmk_core/protocol/lufa/LUFA-git/LUFA/Drivers/USB/Core/AVR8/../AVR8/Device_AVR8.h **** 				return (UDADDR & (1 << ADDEN));
 228:./tmk_core/protocol/lufa/LUFA-git/LUFA/Drivers/USB/Core/AVR8/../AVR8/Device_AVR8.h **** 			}
 229:./tmk_core/protocol/lufa/LUFA-git/LUFA/Drivers/USB/Core/AVR8/../AVR8/Device_AVR8.h **** 
 230:./tmk_core/protocol/lufa/LUFA-git/LUFA/Drivers/USB/Core/AVR8/../AVR8/Device_AVR8.h **** 			#if (USE_INTERNAL_SERIAL != NO_DESCRIPTOR)
 231:./tmk_core/protocol/lufa/LUFA-git/LUFA/Drivers/USB/Core/AVR8/../AVR8/Device_AVR8.h **** 			static inline void USB_Device_GetSerialString(uint16_t* const UnicodeString) ATTR_NON_NULL_PTR_A
 232:./tmk_core/protocol/lufa/LUFA-git/LUFA/Drivers/USB/Core/AVR8/../AVR8/Device_AVR8.h **** 			static inline void USB_Device_GetSerialString(uint16_t* const UnicodeString)
 687               		.loc 3 232 23 view .LVU221
 688               	.LBB246:
 233:./tmk_core/protocol/lufa/LUFA-git/LUFA/Drivers/USB/Core/AVR8/../AVR8/Device_AVR8.h **** 			{
 234:./tmk_core/protocol/lufa/LUFA-git/LUFA/Drivers/USB/Core/AVR8/../AVR8/Device_AVR8.h **** 				uint_reg_t CurrentGlobalInt = GetGlobalInterruptMask();
 689               		.loc 3 234 5 view .LVU222
 690               	.LBB247:
 691               	.LBI247:
 692               		.file 4 "./tmk_core/protocol/lufa/LUFA-git/LUFA/Drivers/USB/Core/../../../Common/Common.h"
   1:./tmk_core/protocol/lufa/LUFA-git/LUFA/Drivers/USB/Core/../../../Common/Common.h **** /*
   2:./tmk_core/protocol/lufa/LUFA-git/LUFA/Drivers/USB/Core/../../../Common/Common.h ****              LUFA Library
   3:./tmk_core/protocol/lufa/LUFA-git/LUFA/Drivers/USB/Core/../../../Common/Common.h ****      Copyright (C) Dean Camera, 2014.
   4:./tmk_core/protocol/lufa/LUFA-git/LUFA/Drivers/USB/Core/../../../Common/Common.h **** 
   5:./tmk_core/protocol/lufa/LUFA-git/LUFA/Drivers/USB/Core/../../../Common/Common.h ****   dean [at] fourwalledcubicle [dot] com
   6:./tmk_core/protocol/lufa/LUFA-git/LUFA/Drivers/USB/Core/../../../Common/Common.h ****            www.lufa-lib.org
   7:./tmk_core/protocol/lufa/LUFA-git/LUFA/Drivers/USB/Core/../../../Common/Common.h **** */
   8:./tmk_core/protocol/lufa/LUFA-git/LUFA/Drivers/USB/Core/../../../Common/Common.h **** 
   9:./tmk_core/protocol/lufa/LUFA-git/LUFA/Drivers/USB/Core/../../../Common/Common.h **** /*
  10:./tmk_core/protocol/lufa/LUFA-git/LUFA/Drivers/USB/Core/../../../Common/Common.h ****   Copyright 2014  Dean Camera (dean [at] fourwalledcubicle [dot] com)
  11:./tmk_core/protocol/lufa/LUFA-git/LUFA/Drivers/USB/Core/../../../Common/Common.h **** 
  12:./tmk_core/protocol/lufa/LUFA-git/LUFA/Drivers/USB/Core/../../../Common/Common.h ****   Permission to use, copy, modify, distribute, and sell this
  13:./tmk_core/protocol/lufa/LUFA-git/LUFA/Drivers/USB/Core/../../../Common/Common.h ****   software and its documentation for any purpose is hereby granted
  14:./tmk_core/protocol/lufa/LUFA-git/LUFA/Drivers/USB/Core/../../../Common/Common.h ****   without fee, provided that the above copyright notice appear in
  15:./tmk_core/protocol/lufa/LUFA-git/LUFA/Drivers/USB/Core/../../../Common/Common.h ****   all copies and that both that the copyright notice and this
  16:./tmk_core/protocol/lufa/LUFA-git/LUFA/Drivers/USB/Core/../../../Common/Common.h ****   permission notice and warranty disclaimer appear in supporting
  17:./tmk_core/protocol/lufa/LUFA-git/LUFA/Drivers/USB/Core/../../../Common/Common.h ****   documentation, and that the name of the author not be used in
  18:./tmk_core/protocol/lufa/LUFA-git/LUFA/Drivers/USB/Core/../../../Common/Common.h ****   advertising or publicity pertaining to distribution of the
  19:./tmk_core/protocol/lufa/LUFA-git/LUFA/Drivers/USB/Core/../../../Common/Common.h ****   software without specific, written prior permission.
  20:./tmk_core/protocol/lufa/LUFA-git/LUFA/Drivers/USB/Core/../../../Common/Common.h **** 
  21:./tmk_core/protocol/lufa/LUFA-git/LUFA/Drivers/USB/Core/../../../Common/Common.h ****   The author disclaims all warranties with regard to this
  22:./tmk_core/protocol/lufa/LUFA-git/LUFA/Drivers/USB/Core/../../../Common/Common.h ****   software, including all implied warranties of merchantability
  23:./tmk_core/protocol/lufa/LUFA-git/LUFA/Drivers/USB/Core/../../../Common/Common.h ****   and fitness.  In no event shall the author be liable for any
  24:./tmk_core/protocol/lufa/LUFA-git/LUFA/Drivers/USB/Core/../../../Common/Common.h ****   special, indirect or consequential damages or any damages
  25:./tmk_core/protocol/lufa/LUFA-git/LUFA/Drivers/USB/Core/../../../Common/Common.h ****   whatsoever resulting from loss of use, data or profits, whether
  26:./tmk_core/protocol/lufa/LUFA-git/LUFA/Drivers/USB/Core/../../../Common/Common.h ****   in an action of contract, negligence or other tortious action,
  27:./tmk_core/protocol/lufa/LUFA-git/LUFA/Drivers/USB/Core/../../../Common/Common.h ****   arising out of or in connection with the use or performance of
  28:./tmk_core/protocol/lufa/LUFA-git/LUFA/Drivers/USB/Core/../../../Common/Common.h ****   this software.
  29:./tmk_core/protocol/lufa/LUFA-git/LUFA/Drivers/USB/Core/../../../Common/Common.h **** */
  30:./tmk_core/protocol/lufa/LUFA-git/LUFA/Drivers/USB/Core/../../../Common/Common.h **** 
  31:./tmk_core/protocol/lufa/LUFA-git/LUFA/Drivers/USB/Core/../../../Common/Common.h **** /** \dir
  32:./tmk_core/protocol/lufa/LUFA-git/LUFA/Drivers/USB/Core/../../../Common/Common.h ****  *  \brief Common library header files.
  33:./tmk_core/protocol/lufa/LUFA-git/LUFA/Drivers/USB/Core/../../../Common/Common.h ****  *
  34:./tmk_core/protocol/lufa/LUFA-git/LUFA/Drivers/USB/Core/../../../Common/Common.h ****  *  This folder contains header files which are common to all parts of the LUFA library. They may b
  35:./tmk_core/protocol/lufa/LUFA-git/LUFA/Drivers/USB/Core/../../../Common/Common.h ****  *  user applications.
  36:./tmk_core/protocol/lufa/LUFA-git/LUFA/Drivers/USB/Core/../../../Common/Common.h ****  */
  37:./tmk_core/protocol/lufa/LUFA-git/LUFA/Drivers/USB/Core/../../../Common/Common.h **** 
  38:./tmk_core/protocol/lufa/LUFA-git/LUFA/Drivers/USB/Core/../../../Common/Common.h **** /** \file
  39:./tmk_core/protocol/lufa/LUFA-git/LUFA/Drivers/USB/Core/../../../Common/Common.h ****  *  \brief Common library convenience headers, macros and functions.
  40:./tmk_core/protocol/lufa/LUFA-git/LUFA/Drivers/USB/Core/../../../Common/Common.h ****  *
  41:./tmk_core/protocol/lufa/LUFA-git/LUFA/Drivers/USB/Core/../../../Common/Common.h ****  *  \copydetails Group_Common
  42:./tmk_core/protocol/lufa/LUFA-git/LUFA/Drivers/USB/Core/../../../Common/Common.h ****  */
  43:./tmk_core/protocol/lufa/LUFA-git/LUFA/Drivers/USB/Core/../../../Common/Common.h **** 
  44:./tmk_core/protocol/lufa/LUFA-git/LUFA/Drivers/USB/Core/../../../Common/Common.h **** /** \defgroup Group_Common Common Utility Headers - LUFA/Drivers/Common/Common.h
  45:./tmk_core/protocol/lufa/LUFA-git/LUFA/Drivers/USB/Core/../../../Common/Common.h ****  *  \brief Common library convenience headers, macros and functions.
  46:./tmk_core/protocol/lufa/LUFA-git/LUFA/Drivers/USB/Core/../../../Common/Common.h ****  *
  47:./tmk_core/protocol/lufa/LUFA-git/LUFA/Drivers/USB/Core/../../../Common/Common.h ****  *  Common utility headers containing macros, functions, enums and types which are common to all
  48:./tmk_core/protocol/lufa/LUFA-git/LUFA/Drivers/USB/Core/../../../Common/Common.h ****  *  aspects of the library.
  49:./tmk_core/protocol/lufa/LUFA-git/LUFA/Drivers/USB/Core/../../../Common/Common.h ****  *
  50:./tmk_core/protocol/lufa/LUFA-git/LUFA/Drivers/USB/Core/../../../Common/Common.h ****  *  @{
  51:./tmk_core/protocol/lufa/LUFA-git/LUFA/Drivers/USB/Core/../../../Common/Common.h ****  */
  52:./tmk_core/protocol/lufa/LUFA-git/LUFA/Drivers/USB/Core/../../../Common/Common.h **** 
  53:./tmk_core/protocol/lufa/LUFA-git/LUFA/Drivers/USB/Core/../../../Common/Common.h **** /** \defgroup Group_GlobalInt Global Interrupt Macros
  54:./tmk_core/protocol/lufa/LUFA-git/LUFA/Drivers/USB/Core/../../../Common/Common.h ****  *  \brief Convenience macros for the management of interrupts globally within the device.
  55:./tmk_core/protocol/lufa/LUFA-git/LUFA/Drivers/USB/Core/../../../Common/Common.h ****  *
  56:./tmk_core/protocol/lufa/LUFA-git/LUFA/Drivers/USB/Core/../../../Common/Common.h ****  *  Macros and functions to create and control global interrupts within the device.
  57:./tmk_core/protocol/lufa/LUFA-git/LUFA/Drivers/USB/Core/../../../Common/Common.h ****  */
  58:./tmk_core/protocol/lufa/LUFA-git/LUFA/Drivers/USB/Core/../../../Common/Common.h **** 
  59:./tmk_core/protocol/lufa/LUFA-git/LUFA/Drivers/USB/Core/../../../Common/Common.h **** #ifndef __LUFA_COMMON_H__
  60:./tmk_core/protocol/lufa/LUFA-git/LUFA/Drivers/USB/Core/../../../Common/Common.h **** #define __LUFA_COMMON_H__
  61:./tmk_core/protocol/lufa/LUFA-git/LUFA/Drivers/USB/Core/../../../Common/Common.h **** 
  62:./tmk_core/protocol/lufa/LUFA-git/LUFA/Drivers/USB/Core/../../../Common/Common.h **** 	/* Macros: */
  63:./tmk_core/protocol/lufa/LUFA-git/LUFA/Drivers/USB/Core/../../../Common/Common.h **** 		#define __INCLUDE_FROM_COMMON_H
  64:./tmk_core/protocol/lufa/LUFA-git/LUFA/Drivers/USB/Core/../../../Common/Common.h **** 
  65:./tmk_core/protocol/lufa/LUFA-git/LUFA/Drivers/USB/Core/../../../Common/Common.h **** 	/* Includes: */
  66:./tmk_core/protocol/lufa/LUFA-git/LUFA/Drivers/USB/Core/../../../Common/Common.h **** 		#include <stdint.h>
  67:./tmk_core/protocol/lufa/LUFA-git/LUFA/Drivers/USB/Core/../../../Common/Common.h **** 		#include <stdbool.h>
  68:./tmk_core/protocol/lufa/LUFA-git/LUFA/Drivers/USB/Core/../../../Common/Common.h **** 		#include <string.h>
  69:./tmk_core/protocol/lufa/LUFA-git/LUFA/Drivers/USB/Core/../../../Common/Common.h **** 		#include <stddef.h>
  70:./tmk_core/protocol/lufa/LUFA-git/LUFA/Drivers/USB/Core/../../../Common/Common.h **** 
  71:./tmk_core/protocol/lufa/LUFA-git/LUFA/Drivers/USB/Core/../../../Common/Common.h **** 		#include "Architectures.h"
  72:./tmk_core/protocol/lufa/LUFA-git/LUFA/Drivers/USB/Core/../../../Common/Common.h **** 		#include "BoardTypes.h"
  73:./tmk_core/protocol/lufa/LUFA-git/LUFA/Drivers/USB/Core/../../../Common/Common.h **** 		#include "ArchitectureSpecific.h"
  74:./tmk_core/protocol/lufa/LUFA-git/LUFA/Drivers/USB/Core/../../../Common/Common.h **** 		#include "CompilerSpecific.h"
  75:./tmk_core/protocol/lufa/LUFA-git/LUFA/Drivers/USB/Core/../../../Common/Common.h **** 		#include "Attributes.h"
  76:./tmk_core/protocol/lufa/LUFA-git/LUFA/Drivers/USB/Core/../../../Common/Common.h **** 
  77:./tmk_core/protocol/lufa/LUFA-git/LUFA/Drivers/USB/Core/../../../Common/Common.h **** 		#if defined(USE_LUFA_CONFIG_HEADER)
  78:./tmk_core/protocol/lufa/LUFA-git/LUFA/Drivers/USB/Core/../../../Common/Common.h **** 			#include "LUFAConfig.h"
  79:./tmk_core/protocol/lufa/LUFA-git/LUFA/Drivers/USB/Core/../../../Common/Common.h **** 		#endif
  80:./tmk_core/protocol/lufa/LUFA-git/LUFA/Drivers/USB/Core/../../../Common/Common.h **** 
  81:./tmk_core/protocol/lufa/LUFA-git/LUFA/Drivers/USB/Core/../../../Common/Common.h **** 	/* Enable C linkage for C++ Compilers: */
  82:./tmk_core/protocol/lufa/LUFA-git/LUFA/Drivers/USB/Core/../../../Common/Common.h **** 		#if defined(__cplusplus)
  83:./tmk_core/protocol/lufa/LUFA-git/LUFA/Drivers/USB/Core/../../../Common/Common.h **** 			extern "C" {
  84:./tmk_core/protocol/lufa/LUFA-git/LUFA/Drivers/USB/Core/../../../Common/Common.h **** 		#endif
  85:./tmk_core/protocol/lufa/LUFA-git/LUFA/Drivers/USB/Core/../../../Common/Common.h **** 
  86:./tmk_core/protocol/lufa/LUFA-git/LUFA/Drivers/USB/Core/../../../Common/Common.h **** 	/* Architecture specific utility includes: */
  87:./tmk_core/protocol/lufa/LUFA-git/LUFA/Drivers/USB/Core/../../../Common/Common.h **** 		#if defined(__DOXYGEN__)
  88:./tmk_core/protocol/lufa/LUFA-git/LUFA/Drivers/USB/Core/../../../Common/Common.h **** 			/** Type define for an unsigned integer the same width as the selected architecture's machine re
  89:./tmk_core/protocol/lufa/LUFA-git/LUFA/Drivers/USB/Core/../../../Common/Common.h **** 			 *  This is distinct from the non-specific standard int data type, whose width is machine depend
  90:./tmk_core/protocol/lufa/LUFA-git/LUFA/Drivers/USB/Core/../../../Common/Common.h **** 			 *  which may not reflect the actual machine register width on some targets (e.g. AVR8).
  91:./tmk_core/protocol/lufa/LUFA-git/LUFA/Drivers/USB/Core/../../../Common/Common.h **** 			 */
  92:./tmk_core/protocol/lufa/LUFA-git/LUFA/Drivers/USB/Core/../../../Common/Common.h **** 			typedef MACHINE_REG_t uint_reg_t;
  93:./tmk_core/protocol/lufa/LUFA-git/LUFA/Drivers/USB/Core/../../../Common/Common.h **** 		#elif (ARCH == ARCH_AVR8)
  94:./tmk_core/protocol/lufa/LUFA-git/LUFA/Drivers/USB/Core/../../../Common/Common.h **** 			#include <avr/io.h>
  95:./tmk_core/protocol/lufa/LUFA-git/LUFA/Drivers/USB/Core/../../../Common/Common.h **** 			#include <avr/interrupt.h>
  96:./tmk_core/protocol/lufa/LUFA-git/LUFA/Drivers/USB/Core/../../../Common/Common.h **** 			#include <avr/pgmspace.h>
  97:./tmk_core/protocol/lufa/LUFA-git/LUFA/Drivers/USB/Core/../../../Common/Common.h **** 			#include <avr/eeprom.h>
  98:./tmk_core/protocol/lufa/LUFA-git/LUFA/Drivers/USB/Core/../../../Common/Common.h **** 			#include <avr/boot.h>
  99:./tmk_core/protocol/lufa/LUFA-git/LUFA/Drivers/USB/Core/../../../Common/Common.h **** 			#include <math.h>
 100:./tmk_core/protocol/lufa/LUFA-git/LUFA/Drivers/USB/Core/../../../Common/Common.h **** 			#include <util/delay.h>
 101:./tmk_core/protocol/lufa/LUFA-git/LUFA/Drivers/USB/Core/../../../Common/Common.h **** 
 102:./tmk_core/protocol/lufa/LUFA-git/LUFA/Drivers/USB/Core/../../../Common/Common.h **** 			typedef uint8_t uint_reg_t;
 103:./tmk_core/protocol/lufa/LUFA-git/LUFA/Drivers/USB/Core/../../../Common/Common.h **** 
 104:./tmk_core/protocol/lufa/LUFA-git/LUFA/Drivers/USB/Core/../../../Common/Common.h **** 			#define ARCH_HAS_EEPROM_ADDRESS_SPACE
 105:./tmk_core/protocol/lufa/LUFA-git/LUFA/Drivers/USB/Core/../../../Common/Common.h **** 			#define ARCH_HAS_FLASH_ADDRESS_SPACE
 106:./tmk_core/protocol/lufa/LUFA-git/LUFA/Drivers/USB/Core/../../../Common/Common.h **** 			#define ARCH_HAS_MULTI_ADDRESS_SPACE
 107:./tmk_core/protocol/lufa/LUFA-git/LUFA/Drivers/USB/Core/../../../Common/Common.h **** 			#define ARCH_LITTLE_ENDIAN
 108:./tmk_core/protocol/lufa/LUFA-git/LUFA/Drivers/USB/Core/../../../Common/Common.h **** 
 109:./tmk_core/protocol/lufa/LUFA-git/LUFA/Drivers/USB/Core/../../../Common/Common.h **** 			#include "Endianness.h"
 110:./tmk_core/protocol/lufa/LUFA-git/LUFA/Drivers/USB/Core/../../../Common/Common.h **** 		#elif (ARCH == ARCH_UC3)
 111:./tmk_core/protocol/lufa/LUFA-git/LUFA/Drivers/USB/Core/../../../Common/Common.h **** 			#include <avr32/io.h>
 112:./tmk_core/protocol/lufa/LUFA-git/LUFA/Drivers/USB/Core/../../../Common/Common.h **** 			#include <math.h>
 113:./tmk_core/protocol/lufa/LUFA-git/LUFA/Drivers/USB/Core/../../../Common/Common.h **** 
 114:./tmk_core/protocol/lufa/LUFA-git/LUFA/Drivers/USB/Core/../../../Common/Common.h **** 			// === TODO: Find abstracted way to handle these ===
 115:./tmk_core/protocol/lufa/LUFA-git/LUFA/Drivers/USB/Core/../../../Common/Common.h **** 			#define PROGMEM
 116:./tmk_core/protocol/lufa/LUFA-git/LUFA/Drivers/USB/Core/../../../Common/Common.h **** 			#define pgm_read_byte(x)         *x
 117:./tmk_core/protocol/lufa/LUFA-git/LUFA/Drivers/USB/Core/../../../Common/Common.h **** 			#define memcmp_P(...)            memcmp(__VA_ARGS__)
 118:./tmk_core/protocol/lufa/LUFA-git/LUFA/Drivers/USB/Core/../../../Common/Common.h **** 			#define memcpy_P(...)            memcpy(__VA_ARGS__)
 119:./tmk_core/protocol/lufa/LUFA-git/LUFA/Drivers/USB/Core/../../../Common/Common.h **** 			// =================================================
 120:./tmk_core/protocol/lufa/LUFA-git/LUFA/Drivers/USB/Core/../../../Common/Common.h **** 
 121:./tmk_core/protocol/lufa/LUFA-git/LUFA/Drivers/USB/Core/../../../Common/Common.h **** 			typedef uint32_t uint_reg_t;
 122:./tmk_core/protocol/lufa/LUFA-git/LUFA/Drivers/USB/Core/../../../Common/Common.h **** 
 123:./tmk_core/protocol/lufa/LUFA-git/LUFA/Drivers/USB/Core/../../../Common/Common.h **** 			#define ARCH_BIG_ENDIAN
 124:./tmk_core/protocol/lufa/LUFA-git/LUFA/Drivers/USB/Core/../../../Common/Common.h **** 
 125:./tmk_core/protocol/lufa/LUFA-git/LUFA/Drivers/USB/Core/../../../Common/Common.h **** 			#include "Endianness.h"
 126:./tmk_core/protocol/lufa/LUFA-git/LUFA/Drivers/USB/Core/../../../Common/Common.h **** 		#elif (ARCH == ARCH_XMEGA)
 127:./tmk_core/protocol/lufa/LUFA-git/LUFA/Drivers/USB/Core/../../../Common/Common.h **** 			#include <avr/io.h>
 128:./tmk_core/protocol/lufa/LUFA-git/LUFA/Drivers/USB/Core/../../../Common/Common.h **** 			#include <avr/interrupt.h>
 129:./tmk_core/protocol/lufa/LUFA-git/LUFA/Drivers/USB/Core/../../../Common/Common.h **** 			#include <avr/pgmspace.h>
 130:./tmk_core/protocol/lufa/LUFA-git/LUFA/Drivers/USB/Core/../../../Common/Common.h **** 			#include <avr/eeprom.h>
 131:./tmk_core/protocol/lufa/LUFA-git/LUFA/Drivers/USB/Core/../../../Common/Common.h **** 			#include <math.h>
 132:./tmk_core/protocol/lufa/LUFA-git/LUFA/Drivers/USB/Core/../../../Common/Common.h **** 			#include <util/delay.h>
 133:./tmk_core/protocol/lufa/LUFA-git/LUFA/Drivers/USB/Core/../../../Common/Common.h **** 
 134:./tmk_core/protocol/lufa/LUFA-git/LUFA/Drivers/USB/Core/../../../Common/Common.h **** 			typedef uint8_t uint_reg_t;
 135:./tmk_core/protocol/lufa/LUFA-git/LUFA/Drivers/USB/Core/../../../Common/Common.h **** 
 136:./tmk_core/protocol/lufa/LUFA-git/LUFA/Drivers/USB/Core/../../../Common/Common.h **** 			#define ARCH_HAS_EEPROM_ADDRESS_SPACE
 137:./tmk_core/protocol/lufa/LUFA-git/LUFA/Drivers/USB/Core/../../../Common/Common.h **** 			#define ARCH_HAS_FLASH_ADDRESS_SPACE
 138:./tmk_core/protocol/lufa/LUFA-git/LUFA/Drivers/USB/Core/../../../Common/Common.h **** 			#define ARCH_HAS_MULTI_ADDRESS_SPACE
 139:./tmk_core/protocol/lufa/LUFA-git/LUFA/Drivers/USB/Core/../../../Common/Common.h **** 			#define ARCH_LITTLE_ENDIAN
 140:./tmk_core/protocol/lufa/LUFA-git/LUFA/Drivers/USB/Core/../../../Common/Common.h **** 
 141:./tmk_core/protocol/lufa/LUFA-git/LUFA/Drivers/USB/Core/../../../Common/Common.h **** 			#include "Endianness.h"
 142:./tmk_core/protocol/lufa/LUFA-git/LUFA/Drivers/USB/Core/../../../Common/Common.h **** 		#else
 143:./tmk_core/protocol/lufa/LUFA-git/LUFA/Drivers/USB/Core/../../../Common/Common.h **** 			#error Unknown device architecture specified.
 144:./tmk_core/protocol/lufa/LUFA-git/LUFA/Drivers/USB/Core/../../../Common/Common.h **** 		#endif
 145:./tmk_core/protocol/lufa/LUFA-git/LUFA/Drivers/USB/Core/../../../Common/Common.h **** 
 146:./tmk_core/protocol/lufa/LUFA-git/LUFA/Drivers/USB/Core/../../../Common/Common.h **** 	/* Public Interface - May be used in end-application: */
 147:./tmk_core/protocol/lufa/LUFA-git/LUFA/Drivers/USB/Core/../../../Common/Common.h **** 		/* Macros: */
 148:./tmk_core/protocol/lufa/LUFA-git/LUFA/Drivers/USB/Core/../../../Common/Common.h **** 			#if !defined(__DOXYGEN__)
 149:./tmk_core/protocol/lufa/LUFA-git/LUFA/Drivers/USB/Core/../../../Common/Common.h **** 				// Obsolete, retained for compatibility with user code
 150:./tmk_core/protocol/lufa/LUFA-git/LUFA/Drivers/USB/Core/../../../Common/Common.h **** 				#define MACROS                  do
 151:./tmk_core/protocol/lufa/LUFA-git/LUFA/Drivers/USB/Core/../../../Common/Common.h **** 				#define MACROE                  while (0)
 152:./tmk_core/protocol/lufa/LUFA-git/LUFA/Drivers/USB/Core/../../../Common/Common.h **** 			#endif
 153:./tmk_core/protocol/lufa/LUFA-git/LUFA/Drivers/USB/Core/../../../Common/Common.h **** 
 154:./tmk_core/protocol/lufa/LUFA-git/LUFA/Drivers/USB/Core/../../../Common/Common.h **** 			/** Convenience macro to determine the larger of two values.
 155:./tmk_core/protocol/lufa/LUFA-git/LUFA/Drivers/USB/Core/../../../Common/Common.h **** 			 *
 156:./tmk_core/protocol/lufa/LUFA-git/LUFA/Drivers/USB/Core/../../../Common/Common.h **** 			 *  \attention This macro should only be used with operands that do not have side effects from b
 157:./tmk_core/protocol/lufa/LUFA-git/LUFA/Drivers/USB/Core/../../../Common/Common.h **** 			 *             multiple times.
 158:./tmk_core/protocol/lufa/LUFA-git/LUFA/Drivers/USB/Core/../../../Common/Common.h **** 			 *
 159:./tmk_core/protocol/lufa/LUFA-git/LUFA/Drivers/USB/Core/../../../Common/Common.h **** 			 *  \param[in] x  First value to compare
 160:./tmk_core/protocol/lufa/LUFA-git/LUFA/Drivers/USB/Core/../../../Common/Common.h **** 			 *  \param[in] y  First value to compare
 161:./tmk_core/protocol/lufa/LUFA-git/LUFA/Drivers/USB/Core/../../../Common/Common.h **** 			 *
 162:./tmk_core/protocol/lufa/LUFA-git/LUFA/Drivers/USB/Core/../../../Common/Common.h **** 			 *  \return The larger of the two input parameters
 163:./tmk_core/protocol/lufa/LUFA-git/LUFA/Drivers/USB/Core/../../../Common/Common.h **** 			 */
 164:./tmk_core/protocol/lufa/LUFA-git/LUFA/Drivers/USB/Core/../../../Common/Common.h **** 			#if !defined(MAX) || defined(__DOXYGEN__)
 165:./tmk_core/protocol/lufa/LUFA-git/LUFA/Drivers/USB/Core/../../../Common/Common.h **** 				#define MAX(x, y)               (((x) > (y)) ? (x) : (y))
 166:./tmk_core/protocol/lufa/LUFA-git/LUFA/Drivers/USB/Core/../../../Common/Common.h **** 			#endif
 167:./tmk_core/protocol/lufa/LUFA-git/LUFA/Drivers/USB/Core/../../../Common/Common.h **** 
 168:./tmk_core/protocol/lufa/LUFA-git/LUFA/Drivers/USB/Core/../../../Common/Common.h **** 			/** Convenience macro to determine the smaller of two values.
 169:./tmk_core/protocol/lufa/LUFA-git/LUFA/Drivers/USB/Core/../../../Common/Common.h **** 			 *
 170:./tmk_core/protocol/lufa/LUFA-git/LUFA/Drivers/USB/Core/../../../Common/Common.h **** 			 *  \attention This macro should only be used with operands that do not have side effects from b
 171:./tmk_core/protocol/lufa/LUFA-git/LUFA/Drivers/USB/Core/../../../Common/Common.h **** 			 *             multiple times.
 172:./tmk_core/protocol/lufa/LUFA-git/LUFA/Drivers/USB/Core/../../../Common/Common.h **** 			 *
 173:./tmk_core/protocol/lufa/LUFA-git/LUFA/Drivers/USB/Core/../../../Common/Common.h **** 			 *  \param[in] x  First value to compare.
 174:./tmk_core/protocol/lufa/LUFA-git/LUFA/Drivers/USB/Core/../../../Common/Common.h **** 			 *  \param[in] y  First value to compare.
 175:./tmk_core/protocol/lufa/LUFA-git/LUFA/Drivers/USB/Core/../../../Common/Common.h **** 			 *
 176:./tmk_core/protocol/lufa/LUFA-git/LUFA/Drivers/USB/Core/../../../Common/Common.h **** 			 *  \return The smaller of the two input parameters
 177:./tmk_core/protocol/lufa/LUFA-git/LUFA/Drivers/USB/Core/../../../Common/Common.h **** 			 */
 178:./tmk_core/protocol/lufa/LUFA-git/LUFA/Drivers/USB/Core/../../../Common/Common.h **** 			#if !defined(MIN) || defined(__DOXYGEN__)
 179:./tmk_core/protocol/lufa/LUFA-git/LUFA/Drivers/USB/Core/../../../Common/Common.h **** 				#define MIN(x, y)               (((x) < (y)) ? (x) : (y))
 180:./tmk_core/protocol/lufa/LUFA-git/LUFA/Drivers/USB/Core/../../../Common/Common.h **** 			#endif
 181:./tmk_core/protocol/lufa/LUFA-git/LUFA/Drivers/USB/Core/../../../Common/Common.h **** 
 182:./tmk_core/protocol/lufa/LUFA-git/LUFA/Drivers/USB/Core/../../../Common/Common.h **** 			#if !defined(STRINGIFY) || defined(__DOXYGEN__)
 183:./tmk_core/protocol/lufa/LUFA-git/LUFA/Drivers/USB/Core/../../../Common/Common.h **** 				/** Converts the given input into a string, via the C Preprocessor. This macro puts literal quo
 184:./tmk_core/protocol/lufa/LUFA-git/LUFA/Drivers/USB/Core/../../../Common/Common.h **** 				 *  marks around the input, converting the source into a string literal.
 185:./tmk_core/protocol/lufa/LUFA-git/LUFA/Drivers/USB/Core/../../../Common/Common.h **** 				 *
 186:./tmk_core/protocol/lufa/LUFA-git/LUFA/Drivers/USB/Core/../../../Common/Common.h **** 				 *  \param[in] x  Input to convert into a string literal.
 187:./tmk_core/protocol/lufa/LUFA-git/LUFA/Drivers/USB/Core/../../../Common/Common.h **** 				 *
 188:./tmk_core/protocol/lufa/LUFA-git/LUFA/Drivers/USB/Core/../../../Common/Common.h **** 				 *  \return String version of the input.
 189:./tmk_core/protocol/lufa/LUFA-git/LUFA/Drivers/USB/Core/../../../Common/Common.h **** 				 */
 190:./tmk_core/protocol/lufa/LUFA-git/LUFA/Drivers/USB/Core/../../../Common/Common.h **** 				#define STRINGIFY(x)            #x
 191:./tmk_core/protocol/lufa/LUFA-git/LUFA/Drivers/USB/Core/../../../Common/Common.h **** 
 192:./tmk_core/protocol/lufa/LUFA-git/LUFA/Drivers/USB/Core/../../../Common/Common.h **** 				/** Converts the given input into a string after macro expansion, via the C Preprocessor. This 
 193:./tmk_core/protocol/lufa/LUFA-git/LUFA/Drivers/USB/Core/../../../Common/Common.h **** 				 *  literal quotation marks around the expanded input, converting the source into a string lite
 194:./tmk_core/protocol/lufa/LUFA-git/LUFA/Drivers/USB/Core/../../../Common/Common.h **** 				 *
 195:./tmk_core/protocol/lufa/LUFA-git/LUFA/Drivers/USB/Core/../../../Common/Common.h **** 				 *  \param[in] x  Input to expand and convert into a string literal.
 196:./tmk_core/protocol/lufa/LUFA-git/LUFA/Drivers/USB/Core/../../../Common/Common.h **** 				 *
 197:./tmk_core/protocol/lufa/LUFA-git/LUFA/Drivers/USB/Core/../../../Common/Common.h **** 				 *  \return String version of the expanded input.
 198:./tmk_core/protocol/lufa/LUFA-git/LUFA/Drivers/USB/Core/../../../Common/Common.h **** 				 */
 199:./tmk_core/protocol/lufa/LUFA-git/LUFA/Drivers/USB/Core/../../../Common/Common.h **** 				#define STRINGIFY_EXPANDED(x)   STRINGIFY(x)
 200:./tmk_core/protocol/lufa/LUFA-git/LUFA/Drivers/USB/Core/../../../Common/Common.h **** 			#endif
 201:./tmk_core/protocol/lufa/LUFA-git/LUFA/Drivers/USB/Core/../../../Common/Common.h **** 
 202:./tmk_core/protocol/lufa/LUFA-git/LUFA/Drivers/USB/Core/../../../Common/Common.h **** 			#if !defined(CONCAT) || defined(__DOXYGEN__)
 203:./tmk_core/protocol/lufa/LUFA-git/LUFA/Drivers/USB/Core/../../../Common/Common.h **** 				/** Concatenates the given input into a single token, via the C Preprocessor.
 204:./tmk_core/protocol/lufa/LUFA-git/LUFA/Drivers/USB/Core/../../../Common/Common.h **** 				 *
 205:./tmk_core/protocol/lufa/LUFA-git/LUFA/Drivers/USB/Core/../../../Common/Common.h **** 				 *  \param[in] x  First item to concatenate.
 206:./tmk_core/protocol/lufa/LUFA-git/LUFA/Drivers/USB/Core/../../../Common/Common.h **** 				 *  \param[in] y  Second item to concatenate.
 207:./tmk_core/protocol/lufa/LUFA-git/LUFA/Drivers/USB/Core/../../../Common/Common.h **** 				 *
 208:./tmk_core/protocol/lufa/LUFA-git/LUFA/Drivers/USB/Core/../../../Common/Common.h **** 				 *  \return Concatenated version of the input.
 209:./tmk_core/protocol/lufa/LUFA-git/LUFA/Drivers/USB/Core/../../../Common/Common.h **** 				 */
 210:./tmk_core/protocol/lufa/LUFA-git/LUFA/Drivers/USB/Core/../../../Common/Common.h **** 				#define CONCAT(x, y)            x ## y
 211:./tmk_core/protocol/lufa/LUFA-git/LUFA/Drivers/USB/Core/../../../Common/Common.h **** 
 212:./tmk_core/protocol/lufa/LUFA-git/LUFA/Drivers/USB/Core/../../../Common/Common.h **** 				/** CConcatenates the given input into a single token after macro expansion, via the C Preproce
 213:./tmk_core/protocol/lufa/LUFA-git/LUFA/Drivers/USB/Core/../../../Common/Common.h **** 				 *
 214:./tmk_core/protocol/lufa/LUFA-git/LUFA/Drivers/USB/Core/../../../Common/Common.h **** 				 *  \param[in] x  First item to concatenate.
 215:./tmk_core/protocol/lufa/LUFA-git/LUFA/Drivers/USB/Core/../../../Common/Common.h **** 				 *  \param[in] y  Second item to concatenate.
 216:./tmk_core/protocol/lufa/LUFA-git/LUFA/Drivers/USB/Core/../../../Common/Common.h **** 				 *
 217:./tmk_core/protocol/lufa/LUFA-git/LUFA/Drivers/USB/Core/../../../Common/Common.h **** 				 *  \return Concatenated version of the expanded input.
 218:./tmk_core/protocol/lufa/LUFA-git/LUFA/Drivers/USB/Core/../../../Common/Common.h **** 				 */
 219:./tmk_core/protocol/lufa/LUFA-git/LUFA/Drivers/USB/Core/../../../Common/Common.h **** 				#define CONCAT_EXPANDED(x, y)   CONCAT(x, y)
 220:./tmk_core/protocol/lufa/LUFA-git/LUFA/Drivers/USB/Core/../../../Common/Common.h **** 			#endif
 221:./tmk_core/protocol/lufa/LUFA-git/LUFA/Drivers/USB/Core/../../../Common/Common.h **** 
 222:./tmk_core/protocol/lufa/LUFA-git/LUFA/Drivers/USB/Core/../../../Common/Common.h **** 			#if !defined(ISR) || defined(__DOXYGEN__)
 223:./tmk_core/protocol/lufa/LUFA-git/LUFA/Drivers/USB/Core/../../../Common/Common.h **** 				/** Macro for the definition of interrupt service routines, so that the compiler can insert the
 224:./tmk_core/protocol/lufa/LUFA-git/LUFA/Drivers/USB/Core/../../../Common/Common.h **** 				 *  prologue and epilogue code to properly manage the interrupt routine without affecting the m
 225:./tmk_core/protocol/lufa/LUFA-git/LUFA/Drivers/USB/Core/../../../Common/Common.h **** 				 *  state with unintentional side-effects.
 226:./tmk_core/protocol/lufa/LUFA-git/LUFA/Drivers/USB/Core/../../../Common/Common.h **** 				 *
 227:./tmk_core/protocol/lufa/LUFA-git/LUFA/Drivers/USB/Core/../../../Common/Common.h **** 				 *  Interrupt handlers written using this macro may still need to be registered with the microc
 228:./tmk_core/protocol/lufa/LUFA-git/LUFA/Drivers/USB/Core/../../../Common/Common.h **** 				 *  Interrupt Controller (if present) before they will properly handle incoming interrupt event
 229:./tmk_core/protocol/lufa/LUFA-git/LUFA/Drivers/USB/Core/../../../Common/Common.h **** 				 *
 230:./tmk_core/protocol/lufa/LUFA-git/LUFA/Drivers/USB/Core/../../../Common/Common.h **** 				 *  \note This macro is only supplied on some architectures, where the standard library does no
 231:./tmk_core/protocol/lufa/LUFA-git/LUFA/Drivers/USB/Core/../../../Common/Common.h **** 				 *        definition. If an existing definition exists, the alternative definition here will be
 232:./tmk_core/protocol/lufa/LUFA-git/LUFA/Drivers/USB/Core/../../../Common/Common.h **** 				 *
 233:./tmk_core/protocol/lufa/LUFA-git/LUFA/Drivers/USB/Core/../../../Common/Common.h **** 				 *  \ingroup Group_GlobalInt
 234:./tmk_core/protocol/lufa/LUFA-git/LUFA/Drivers/USB/Core/../../../Common/Common.h **** 				 *
 235:./tmk_core/protocol/lufa/LUFA-git/LUFA/Drivers/USB/Core/../../../Common/Common.h **** 				 *  \param[in] Name  Unique name of the interrupt service routine.
 236:./tmk_core/protocol/lufa/LUFA-git/LUFA/Drivers/USB/Core/../../../Common/Common.h **** 				 */
 237:./tmk_core/protocol/lufa/LUFA-git/LUFA/Drivers/USB/Core/../../../Common/Common.h **** 				#define ISR(Name, ...)          void Name (void) __attribute__((__interrupt__)) __VA_ARGS__; vo
 238:./tmk_core/protocol/lufa/LUFA-git/LUFA/Drivers/USB/Core/../../../Common/Common.h **** 			#endif
 239:./tmk_core/protocol/lufa/LUFA-git/LUFA/Drivers/USB/Core/../../../Common/Common.h **** 
 240:./tmk_core/protocol/lufa/LUFA-git/LUFA/Drivers/USB/Core/../../../Common/Common.h **** 		/* Inline Functions: */
 241:./tmk_core/protocol/lufa/LUFA-git/LUFA/Drivers/USB/Core/../../../Common/Common.h **** 			/** Function to reverse the individual bits in a byte - i.e. bit 7 is moved to bit 0, bit 6 to b
 242:./tmk_core/protocol/lufa/LUFA-git/LUFA/Drivers/USB/Core/../../../Common/Common.h **** 			 *  etc.
 243:./tmk_core/protocol/lufa/LUFA-git/LUFA/Drivers/USB/Core/../../../Common/Common.h **** 			 *
 244:./tmk_core/protocol/lufa/LUFA-git/LUFA/Drivers/USB/Core/../../../Common/Common.h **** 			 *  \param[in] Byte  Byte of data whose bits are to be reversed.
 245:./tmk_core/protocol/lufa/LUFA-git/LUFA/Drivers/USB/Core/../../../Common/Common.h **** 			 *
 246:./tmk_core/protocol/lufa/LUFA-git/LUFA/Drivers/USB/Core/../../../Common/Common.h **** 			 *  \return Input data with the individual bits reversed (mirrored).
 247:./tmk_core/protocol/lufa/LUFA-git/LUFA/Drivers/USB/Core/../../../Common/Common.h **** 			 */
 248:./tmk_core/protocol/lufa/LUFA-git/LUFA/Drivers/USB/Core/../../../Common/Common.h **** 			static inline uint8_t BitReverse(uint8_t Byte) ATTR_WARN_UNUSED_RESULT ATTR_CONST;
 249:./tmk_core/protocol/lufa/LUFA-git/LUFA/Drivers/USB/Core/../../../Common/Common.h **** 			static inline uint8_t BitReverse(uint8_t Byte)
 250:./tmk_core/protocol/lufa/LUFA-git/LUFA/Drivers/USB/Core/../../../Common/Common.h **** 			{
 251:./tmk_core/protocol/lufa/LUFA-git/LUFA/Drivers/USB/Core/../../../Common/Common.h **** 				Byte = (((Byte & 0xF0) >> 4) | ((Byte & 0x0F) << 4));
 252:./tmk_core/protocol/lufa/LUFA-git/LUFA/Drivers/USB/Core/../../../Common/Common.h **** 				Byte = (((Byte & 0xCC) >> 2) | ((Byte & 0x33) << 2));
 253:./tmk_core/protocol/lufa/LUFA-git/LUFA/Drivers/USB/Core/../../../Common/Common.h **** 				Byte = (((Byte & 0xAA) >> 1) | ((Byte & 0x55) << 1));
 254:./tmk_core/protocol/lufa/LUFA-git/LUFA/Drivers/USB/Core/../../../Common/Common.h **** 
 255:./tmk_core/protocol/lufa/LUFA-git/LUFA/Drivers/USB/Core/../../../Common/Common.h **** 				return Byte;
 256:./tmk_core/protocol/lufa/LUFA-git/LUFA/Drivers/USB/Core/../../../Common/Common.h **** 			}
 257:./tmk_core/protocol/lufa/LUFA-git/LUFA/Drivers/USB/Core/../../../Common/Common.h **** 
 258:./tmk_core/protocol/lufa/LUFA-git/LUFA/Drivers/USB/Core/../../../Common/Common.h **** 			/** Function to perform a blocking delay for a specified number of milliseconds. The actual dela
 259:./tmk_core/protocol/lufa/LUFA-git/LUFA/Drivers/USB/Core/../../../Common/Common.h **** 			 *  at a minimum the specified number of milliseconds, however due to loop overhead and internal
 260:./tmk_core/protocol/lufa/LUFA-git/LUFA/Drivers/USB/Core/../../../Common/Common.h **** 			 *  may be slightly higher.
 261:./tmk_core/protocol/lufa/LUFA-git/LUFA/Drivers/USB/Core/../../../Common/Common.h **** 			 *
 262:./tmk_core/protocol/lufa/LUFA-git/LUFA/Drivers/USB/Core/../../../Common/Common.h **** 			 *  \param[in] Milliseconds  Number of milliseconds to delay
 263:./tmk_core/protocol/lufa/LUFA-git/LUFA/Drivers/USB/Core/../../../Common/Common.h **** 			 */
 264:./tmk_core/protocol/lufa/LUFA-git/LUFA/Drivers/USB/Core/../../../Common/Common.h **** 			static inline void Delay_MS(uint16_t Milliseconds) ATTR_ALWAYS_INLINE;
 265:./tmk_core/protocol/lufa/LUFA-git/LUFA/Drivers/USB/Core/../../../Common/Common.h **** 			static inline void Delay_MS(uint16_t Milliseconds)
 266:./tmk_core/protocol/lufa/LUFA-git/LUFA/Drivers/USB/Core/../../../Common/Common.h **** 			{
 267:./tmk_core/protocol/lufa/LUFA-git/LUFA/Drivers/USB/Core/../../../Common/Common.h **** 				#if (ARCH == ARCH_AVR8)
 268:./tmk_core/protocol/lufa/LUFA-git/LUFA/Drivers/USB/Core/../../../Common/Common.h **** 				if (GCC_IS_COMPILE_CONST(Milliseconds))
 269:./tmk_core/protocol/lufa/LUFA-git/LUFA/Drivers/USB/Core/../../../Common/Common.h **** 				{
 270:./tmk_core/protocol/lufa/LUFA-git/LUFA/Drivers/USB/Core/../../../Common/Common.h **** 					_delay_ms(Milliseconds);
 271:./tmk_core/protocol/lufa/LUFA-git/LUFA/Drivers/USB/Core/../../../Common/Common.h **** 				}
 272:./tmk_core/protocol/lufa/LUFA-git/LUFA/Drivers/USB/Core/../../../Common/Common.h **** 				else
 273:./tmk_core/protocol/lufa/LUFA-git/LUFA/Drivers/USB/Core/../../../Common/Common.h **** 				{
 274:./tmk_core/protocol/lufa/LUFA-git/LUFA/Drivers/USB/Core/../../../Common/Common.h **** 					while (Milliseconds--)
 275:./tmk_core/protocol/lufa/LUFA-git/LUFA/Drivers/USB/Core/../../../Common/Common.h **** 					  _delay_ms(1);
 276:./tmk_core/protocol/lufa/LUFA-git/LUFA/Drivers/USB/Core/../../../Common/Common.h **** 				}
 277:./tmk_core/protocol/lufa/LUFA-git/LUFA/Drivers/USB/Core/../../../Common/Common.h **** 				#elif (ARCH == ARCH_UC3)
 278:./tmk_core/protocol/lufa/LUFA-git/LUFA/Drivers/USB/Core/../../../Common/Common.h **** 				while (Milliseconds--)
 279:./tmk_core/protocol/lufa/LUFA-git/LUFA/Drivers/USB/Core/../../../Common/Common.h **** 				{
 280:./tmk_core/protocol/lufa/LUFA-git/LUFA/Drivers/USB/Core/../../../Common/Common.h **** 					__builtin_mtsr(AVR32_COUNT, 0);
 281:./tmk_core/protocol/lufa/LUFA-git/LUFA/Drivers/USB/Core/../../../Common/Common.h **** 					while ((uint32_t)__builtin_mfsr(AVR32_COUNT) < (F_CPU / 1000));
 282:./tmk_core/protocol/lufa/LUFA-git/LUFA/Drivers/USB/Core/../../../Common/Common.h **** 				}
 283:./tmk_core/protocol/lufa/LUFA-git/LUFA/Drivers/USB/Core/../../../Common/Common.h **** 				#elif (ARCH == ARCH_XMEGA)
 284:./tmk_core/protocol/lufa/LUFA-git/LUFA/Drivers/USB/Core/../../../Common/Common.h **** 				if (GCC_IS_COMPILE_CONST(Milliseconds))
 285:./tmk_core/protocol/lufa/LUFA-git/LUFA/Drivers/USB/Core/../../../Common/Common.h **** 				{
 286:./tmk_core/protocol/lufa/LUFA-git/LUFA/Drivers/USB/Core/../../../Common/Common.h **** 					_delay_ms(Milliseconds);
 287:./tmk_core/protocol/lufa/LUFA-git/LUFA/Drivers/USB/Core/../../../Common/Common.h **** 				}
 288:./tmk_core/protocol/lufa/LUFA-git/LUFA/Drivers/USB/Core/../../../Common/Common.h **** 				else
 289:./tmk_core/protocol/lufa/LUFA-git/LUFA/Drivers/USB/Core/../../../Common/Common.h **** 				{
 290:./tmk_core/protocol/lufa/LUFA-git/LUFA/Drivers/USB/Core/../../../Common/Common.h **** 					while (Milliseconds--)
 291:./tmk_core/protocol/lufa/LUFA-git/LUFA/Drivers/USB/Core/../../../Common/Common.h **** 					  _delay_ms(1);
 292:./tmk_core/protocol/lufa/LUFA-git/LUFA/Drivers/USB/Core/../../../Common/Common.h **** 				}
 293:./tmk_core/protocol/lufa/LUFA-git/LUFA/Drivers/USB/Core/../../../Common/Common.h **** 				#endif
 294:./tmk_core/protocol/lufa/LUFA-git/LUFA/Drivers/USB/Core/../../../Common/Common.h **** 			}
 295:./tmk_core/protocol/lufa/LUFA-git/LUFA/Drivers/USB/Core/../../../Common/Common.h **** 
 296:./tmk_core/protocol/lufa/LUFA-git/LUFA/Drivers/USB/Core/../../../Common/Common.h **** 			/** Retrieves a mask which contains the current state of the global interrupts for the device. T
 297:./tmk_core/protocol/lufa/LUFA-git/LUFA/Drivers/USB/Core/../../../Common/Common.h **** 			 *  value can be stored before altering the global interrupt enable state, before restoring the
 298:./tmk_core/protocol/lufa/LUFA-git/LUFA/Drivers/USB/Core/../../../Common/Common.h **** 			 *  flag(s) back to their previous values after a critical section using \ref SetGlobalInterrupt
 299:./tmk_core/protocol/lufa/LUFA-git/LUFA/Drivers/USB/Core/../../../Common/Common.h **** 			 *
 300:./tmk_core/protocol/lufa/LUFA-git/LUFA/Drivers/USB/Core/../../../Common/Common.h **** 			 *  \ingroup Group_GlobalInt
 301:./tmk_core/protocol/lufa/LUFA-git/LUFA/Drivers/USB/Core/../../../Common/Common.h **** 			 *
 302:./tmk_core/protocol/lufa/LUFA-git/LUFA/Drivers/USB/Core/../../../Common/Common.h **** 			 *  \return  Mask containing the current Global Interrupt Enable Mask bit(s).
 303:./tmk_core/protocol/lufa/LUFA-git/LUFA/Drivers/USB/Core/../../../Common/Common.h **** 			 */
 304:./tmk_core/protocol/lufa/LUFA-git/LUFA/Drivers/USB/Core/../../../Common/Common.h **** 			static inline uint_reg_t GetGlobalInterruptMask(void) ATTR_ALWAYS_INLINE ATTR_WARN_UNUSED_RESULT
 305:./tmk_core/protocol/lufa/LUFA-git/LUFA/Drivers/USB/Core/../../../Common/Common.h **** 			static inline uint_reg_t GetGlobalInterruptMask(void)
 693               		.loc 4 305 29 view .LVU223
 694               	.LBB248:
 306:./tmk_core/protocol/lufa/LUFA-git/LUFA/Drivers/USB/Core/../../../Common/Common.h **** 			{
 307:./tmk_core/protocol/lufa/LUFA-git/LUFA/Drivers/USB/Core/../../../Common/Common.h **** 				GCC_MEMORY_BARRIER();
 695               		.loc 4 307 5 view .LVU224
 696               		.loc 4 307 25 view .LVU225
 308:./tmk_core/protocol/lufa/LUFA-git/LUFA/Drivers/USB/Core/../../../Common/Common.h **** 
 309:./tmk_core/protocol/lufa/LUFA-git/LUFA/Drivers/USB/Core/../../../Common/Common.h **** 				#if (ARCH == ARCH_AVR8)
 310:./tmk_core/protocol/lufa/LUFA-git/LUFA/Drivers/USB/Core/../../../Common/Common.h **** 				return SREG;
 697               		.loc 4 310 5 view .LVU226
 698               		.loc 4 310 12 is_stmt 0 view .LVU227
 699 01b6 4FB7      		in r20,__SREG__
 700               	.LVL44:
 701               		.loc 4 310 12 view .LVU228
 702               	.LBE248:
 703               	.LBE247:
 235:./tmk_core/protocol/lufa/LUFA-git/LUFA/Drivers/USB/Core/AVR8/../AVR8/Device_AVR8.h **** 				GlobalInterruptDisable();
 704               		.loc 3 235 5 is_stmt 1 view .LVU229
 705               	.LBB249:
 706               	.LBI249:
 311:./tmk_core/protocol/lufa/LUFA-git/LUFA/Drivers/USB/Core/../../../Common/Common.h **** 				#elif (ARCH == ARCH_UC3)
 312:./tmk_core/protocol/lufa/LUFA-git/LUFA/Drivers/USB/Core/../../../Common/Common.h **** 				return __builtin_mfsr(AVR32_SR);
 313:./tmk_core/protocol/lufa/LUFA-git/LUFA/Drivers/USB/Core/../../../Common/Common.h **** 				#elif (ARCH == ARCH_XMEGA)
 314:./tmk_core/protocol/lufa/LUFA-git/LUFA/Drivers/USB/Core/../../../Common/Common.h **** 				return SREG;
 315:./tmk_core/protocol/lufa/LUFA-git/LUFA/Drivers/USB/Core/../../../Common/Common.h **** 				#endif
 316:./tmk_core/protocol/lufa/LUFA-git/LUFA/Drivers/USB/Core/../../../Common/Common.h **** 			}
 317:./tmk_core/protocol/lufa/LUFA-git/LUFA/Drivers/USB/Core/../../../Common/Common.h **** 
 318:./tmk_core/protocol/lufa/LUFA-git/LUFA/Drivers/USB/Core/../../../Common/Common.h **** 			/** Sets the global interrupt enable state of the microcontroller to the mask passed into the fu
 319:./tmk_core/protocol/lufa/LUFA-git/LUFA/Drivers/USB/Core/../../../Common/Common.h **** 			 *  This can be combined with \ref GetGlobalInterruptMask() to save and restore the Global Inter
 320:./tmk_core/protocol/lufa/LUFA-git/LUFA/Drivers/USB/Core/../../../Common/Common.h **** 			 *  Mask bit(s) of the device after a critical section has completed.
 321:./tmk_core/protocol/lufa/LUFA-git/LUFA/Drivers/USB/Core/../../../Common/Common.h **** 			 *
 322:./tmk_core/protocol/lufa/LUFA-git/LUFA/Drivers/USB/Core/../../../Common/Common.h **** 			 *  \ingroup Group_GlobalInt
 323:./tmk_core/protocol/lufa/LUFA-git/LUFA/Drivers/USB/Core/../../../Common/Common.h **** 			 *
 324:./tmk_core/protocol/lufa/LUFA-git/LUFA/Drivers/USB/Core/../../../Common/Common.h **** 			 *  \param[in] GlobalIntState  Global Interrupt Enable Mask value to use
 325:./tmk_core/protocol/lufa/LUFA-git/LUFA/Drivers/USB/Core/../../../Common/Common.h **** 			 */
 326:./tmk_core/protocol/lufa/LUFA-git/LUFA/Drivers/USB/Core/../../../Common/Common.h **** 			static inline void SetGlobalInterruptMask(const uint_reg_t GlobalIntState) ATTR_ALWAYS_INLINE;
 327:./tmk_core/protocol/lufa/LUFA-git/LUFA/Drivers/USB/Core/../../../Common/Common.h **** 			static inline void SetGlobalInterruptMask(const uint_reg_t GlobalIntState)
 328:./tmk_core/protocol/lufa/LUFA-git/LUFA/Drivers/USB/Core/../../../Common/Common.h **** 			{
 329:./tmk_core/protocol/lufa/LUFA-git/LUFA/Drivers/USB/Core/../../../Common/Common.h **** 				GCC_MEMORY_BARRIER();
 330:./tmk_core/protocol/lufa/LUFA-git/LUFA/Drivers/USB/Core/../../../Common/Common.h **** 
 331:./tmk_core/protocol/lufa/LUFA-git/LUFA/Drivers/USB/Core/../../../Common/Common.h **** 				#if (ARCH == ARCH_AVR8)
 332:./tmk_core/protocol/lufa/LUFA-git/LUFA/Drivers/USB/Core/../../../Common/Common.h **** 				SREG = GlobalIntState;
 333:./tmk_core/protocol/lufa/LUFA-git/LUFA/Drivers/USB/Core/../../../Common/Common.h **** 				#elif (ARCH == ARCH_UC3)
 334:./tmk_core/protocol/lufa/LUFA-git/LUFA/Drivers/USB/Core/../../../Common/Common.h **** 				if (GlobalIntState & AVR32_SR_GM)
 335:./tmk_core/protocol/lufa/LUFA-git/LUFA/Drivers/USB/Core/../../../Common/Common.h **** 				  __builtin_ssrf(AVR32_SR_GM_OFFSET);
 336:./tmk_core/protocol/lufa/LUFA-git/LUFA/Drivers/USB/Core/../../../Common/Common.h **** 				else
 337:./tmk_core/protocol/lufa/LUFA-git/LUFA/Drivers/USB/Core/../../../Common/Common.h **** 				  __builtin_csrf(AVR32_SR_GM_OFFSET);
 338:./tmk_core/protocol/lufa/LUFA-git/LUFA/Drivers/USB/Core/../../../Common/Common.h **** 				#elif (ARCH == ARCH_XMEGA)
 339:./tmk_core/protocol/lufa/LUFA-git/LUFA/Drivers/USB/Core/../../../Common/Common.h **** 				SREG = GlobalIntState;
 340:./tmk_core/protocol/lufa/LUFA-git/LUFA/Drivers/USB/Core/../../../Common/Common.h **** 				#endif
 341:./tmk_core/protocol/lufa/LUFA-git/LUFA/Drivers/USB/Core/../../../Common/Common.h **** 
 342:./tmk_core/protocol/lufa/LUFA-git/LUFA/Drivers/USB/Core/../../../Common/Common.h **** 				GCC_MEMORY_BARRIER();
 343:./tmk_core/protocol/lufa/LUFA-git/LUFA/Drivers/USB/Core/../../../Common/Common.h **** 			}
 344:./tmk_core/protocol/lufa/LUFA-git/LUFA/Drivers/USB/Core/../../../Common/Common.h **** 
 345:./tmk_core/protocol/lufa/LUFA-git/LUFA/Drivers/USB/Core/../../../Common/Common.h **** 			/** Enables global interrupt handling for the device, allowing interrupts to be handled.
 346:./tmk_core/protocol/lufa/LUFA-git/LUFA/Drivers/USB/Core/../../../Common/Common.h **** 			 *
 347:./tmk_core/protocol/lufa/LUFA-git/LUFA/Drivers/USB/Core/../../../Common/Common.h **** 			 *  \ingroup Group_GlobalInt
 348:./tmk_core/protocol/lufa/LUFA-git/LUFA/Drivers/USB/Core/../../../Common/Common.h **** 			 */
 349:./tmk_core/protocol/lufa/LUFA-git/LUFA/Drivers/USB/Core/../../../Common/Common.h **** 			static inline void GlobalInterruptEnable(void) ATTR_ALWAYS_INLINE;
 350:./tmk_core/protocol/lufa/LUFA-git/LUFA/Drivers/USB/Core/../../../Common/Common.h **** 			static inline void GlobalInterruptEnable(void)
 351:./tmk_core/protocol/lufa/LUFA-git/LUFA/Drivers/USB/Core/../../../Common/Common.h **** 			{
 352:./tmk_core/protocol/lufa/LUFA-git/LUFA/Drivers/USB/Core/../../../Common/Common.h **** 				GCC_MEMORY_BARRIER();
 353:./tmk_core/protocol/lufa/LUFA-git/LUFA/Drivers/USB/Core/../../../Common/Common.h **** 
 354:./tmk_core/protocol/lufa/LUFA-git/LUFA/Drivers/USB/Core/../../../Common/Common.h **** 				#if (ARCH == ARCH_AVR8)
 355:./tmk_core/protocol/lufa/LUFA-git/LUFA/Drivers/USB/Core/../../../Common/Common.h **** 				sei();
 356:./tmk_core/protocol/lufa/LUFA-git/LUFA/Drivers/USB/Core/../../../Common/Common.h **** 				#elif (ARCH == ARCH_UC3)
 357:./tmk_core/protocol/lufa/LUFA-git/LUFA/Drivers/USB/Core/../../../Common/Common.h **** 				__builtin_csrf(AVR32_SR_GM_OFFSET);
 358:./tmk_core/protocol/lufa/LUFA-git/LUFA/Drivers/USB/Core/../../../Common/Common.h **** 				#elif (ARCH == ARCH_XMEGA)
 359:./tmk_core/protocol/lufa/LUFA-git/LUFA/Drivers/USB/Core/../../../Common/Common.h **** 				sei();
 360:./tmk_core/protocol/lufa/LUFA-git/LUFA/Drivers/USB/Core/../../../Common/Common.h **** 				#endif
 361:./tmk_core/protocol/lufa/LUFA-git/LUFA/Drivers/USB/Core/../../../Common/Common.h **** 
 362:./tmk_core/protocol/lufa/LUFA-git/LUFA/Drivers/USB/Core/../../../Common/Common.h **** 				GCC_MEMORY_BARRIER();
 363:./tmk_core/protocol/lufa/LUFA-git/LUFA/Drivers/USB/Core/../../../Common/Common.h **** 			}
 364:./tmk_core/protocol/lufa/LUFA-git/LUFA/Drivers/USB/Core/../../../Common/Common.h **** 
 365:./tmk_core/protocol/lufa/LUFA-git/LUFA/Drivers/USB/Core/../../../Common/Common.h **** 			/** Disabled global interrupt handling for the device, preventing interrupts from being handled.
 366:./tmk_core/protocol/lufa/LUFA-git/LUFA/Drivers/USB/Core/../../../Common/Common.h **** 			 *
 367:./tmk_core/protocol/lufa/LUFA-git/LUFA/Drivers/USB/Core/../../../Common/Common.h **** 			 *  \ingroup Group_GlobalInt
 368:./tmk_core/protocol/lufa/LUFA-git/LUFA/Drivers/USB/Core/../../../Common/Common.h **** 			 */
 369:./tmk_core/protocol/lufa/LUFA-git/LUFA/Drivers/USB/Core/../../../Common/Common.h **** 			static inline void GlobalInterruptDisable(void) ATTR_ALWAYS_INLINE;
 370:./tmk_core/protocol/lufa/LUFA-git/LUFA/Drivers/USB/Core/../../../Common/Common.h **** 			static inline void GlobalInterruptDisable(void)
 707               		.loc 4 370 23 view .LVU230
 708               	.LBB250:
 371:./tmk_core/protocol/lufa/LUFA-git/LUFA/Drivers/USB/Core/../../../Common/Common.h **** 			{
 372:./tmk_core/protocol/lufa/LUFA-git/LUFA/Drivers/USB/Core/../../../Common/Common.h **** 				GCC_MEMORY_BARRIER();
 709               		.loc 4 372 5 view .LVU231
 710               		.loc 4 372 25 view .LVU232
 373:./tmk_core/protocol/lufa/LUFA-git/LUFA/Drivers/USB/Core/../../../Common/Common.h **** 
 374:./tmk_core/protocol/lufa/LUFA-git/LUFA/Drivers/USB/Core/../../../Common/Common.h **** 				#if (ARCH == ARCH_AVR8)
 375:./tmk_core/protocol/lufa/LUFA-git/LUFA/Drivers/USB/Core/../../../Common/Common.h **** 				cli();
 711               		.loc 4 375 5 view .LVU233
 712               	/* #APP */
 713               	 ;  375 "./tmk_core/protocol/lufa/LUFA-git/LUFA/Drivers/USB/Core/../../../Common/Common.h" 1
 714 01b8 F894      		cli
 715               	 ;  0 "" 2
 376:./tmk_core/protocol/lufa/LUFA-git/LUFA/Drivers/USB/Core/../../../Common/Common.h **** 				#elif (ARCH == ARCH_UC3)
 377:./tmk_core/protocol/lufa/LUFA-git/LUFA/Drivers/USB/Core/../../../Common/Common.h **** 				__builtin_ssrf(AVR32_SR_GM_OFFSET);
 378:./tmk_core/protocol/lufa/LUFA-git/LUFA/Drivers/USB/Core/../../../Common/Common.h **** 				#elif (ARCH == ARCH_XMEGA)
 379:./tmk_core/protocol/lufa/LUFA-git/LUFA/Drivers/USB/Core/../../../Common/Common.h **** 				cli();
 380:./tmk_core/protocol/lufa/LUFA-git/LUFA/Drivers/USB/Core/../../../Common/Common.h **** 				#endif
 381:./tmk_core/protocol/lufa/LUFA-git/LUFA/Drivers/USB/Core/../../../Common/Common.h **** 
 382:./tmk_core/protocol/lufa/LUFA-git/LUFA/Drivers/USB/Core/../../../Common/Common.h **** 				GCC_MEMORY_BARRIER();
 716               		.loc 4 382 5 view .LVU234
 717               		.loc 4 382 25 view .LVU235
 718               	/* #NOAPP */
 719               	.LBE250:
 720               	.LBE249:
