   1               		.file	"USBInterrupt_AVR8.c"
   2               	__SP_H__ = 0x3e
   3               	__SP_L__ = 0x3d
   4               	__SREG__ = 0x3f
   5               	__tmp_reg__ = 0
   6               	__zero_reg__ = 1
   7               		.text
   8               	.Ltext0:
   9               		.cfi_sections	.debug_frame
  10               		.section	.text.USB_INT_DisableAllInterrupts,"ax",@progbits
  11               	.global	USB_INT_DisableAllInterrupts
  13               	USB_INT_DisableAllInterrupts:
  14               	.LFB85:
  15               		.file 1 "../../tmk_core/protocol/lufa/lufa-abcminiuser/LUFA/Drivers/USB/Core/AVR8/USBInterrupt_AVR
   1:../../tmk_core/protocol/lufa/lufa-abcminiuser/LUFA/Drivers/USB/Core/AVR8/USBInterrupt_AVR8.c **** /*
   2:../../tmk_core/protocol/lufa/lufa-abcminiuser/LUFA/Drivers/USB/Core/AVR8/USBInterrupt_AVR8.c ****              LUFA Library
   3:../../tmk_core/protocol/lufa/lufa-abcminiuser/LUFA/Drivers/USB/Core/AVR8/USBInterrupt_AVR8.c ****      Copyright (C) Dean Camera, 2019.
   4:../../tmk_core/protocol/lufa/lufa-abcminiuser/LUFA/Drivers/USB/Core/AVR8/USBInterrupt_AVR8.c **** 
   5:../../tmk_core/protocol/lufa/lufa-abcminiuser/LUFA/Drivers/USB/Core/AVR8/USBInterrupt_AVR8.c ****   dean [at] fourwalledcubicle [dot] com
   6:../../tmk_core/protocol/lufa/lufa-abcminiuser/LUFA/Drivers/USB/Core/AVR8/USBInterrupt_AVR8.c ****            www.lufa-lib.org
   7:../../tmk_core/protocol/lufa/lufa-abcminiuser/LUFA/Drivers/USB/Core/AVR8/USBInterrupt_AVR8.c **** */
   8:../../tmk_core/protocol/lufa/lufa-abcminiuser/LUFA/Drivers/USB/Core/AVR8/USBInterrupt_AVR8.c **** 
   9:../../tmk_core/protocol/lufa/lufa-abcminiuser/LUFA/Drivers/USB/Core/AVR8/USBInterrupt_AVR8.c **** /*
  10:../../tmk_core/protocol/lufa/lufa-abcminiuser/LUFA/Drivers/USB/Core/AVR8/USBInterrupt_AVR8.c ****   Copyright 2019  Dean Camera (dean [at] fourwalledcubicle [dot] com)
  11:../../tmk_core/protocol/lufa/lufa-abcminiuser/LUFA/Drivers/USB/Core/AVR8/USBInterrupt_AVR8.c **** 
  12:../../tmk_core/protocol/lufa/lufa-abcminiuser/LUFA/Drivers/USB/Core/AVR8/USBInterrupt_AVR8.c ****   Permission to use, copy, modify, distribute, and sell this
  13:../../tmk_core/protocol/lufa/lufa-abcminiuser/LUFA/Drivers/USB/Core/AVR8/USBInterrupt_AVR8.c ****   software and its documentation for any purpose is hereby granted
  14:../../tmk_core/protocol/lufa/lufa-abcminiuser/LUFA/Drivers/USB/Core/AVR8/USBInterrupt_AVR8.c ****   without fee, provided that the above copyright notice appear in
  15:../../tmk_core/protocol/lufa/lufa-abcminiuser/LUFA/Drivers/USB/Core/AVR8/USBInterrupt_AVR8.c ****   all copies and that both that the copyright notice and this
  16:../../tmk_core/protocol/lufa/lufa-abcminiuser/LUFA/Drivers/USB/Core/AVR8/USBInterrupt_AVR8.c ****   permission notice and warranty disclaimer appear in supporting
  17:../../tmk_core/protocol/lufa/lufa-abcminiuser/LUFA/Drivers/USB/Core/AVR8/USBInterrupt_AVR8.c ****   documentation, and that the name of the author not be used in
  18:../../tmk_core/protocol/lufa/lufa-abcminiuser/LUFA/Drivers/USB/Core/AVR8/USBInterrupt_AVR8.c ****   advertising or publicity pertaining to distribution of the
  19:../../tmk_core/protocol/lufa/lufa-abcminiuser/LUFA/Drivers/USB/Core/AVR8/USBInterrupt_AVR8.c ****   software without specific, written prior permission.
  20:../../tmk_core/protocol/lufa/lufa-abcminiuser/LUFA/Drivers/USB/Core/AVR8/USBInterrupt_AVR8.c **** 
  21:../../tmk_core/protocol/lufa/lufa-abcminiuser/LUFA/Drivers/USB/Core/AVR8/USBInterrupt_AVR8.c ****   The author disclaims all warranties with regard to this
  22:../../tmk_core/protocol/lufa/lufa-abcminiuser/LUFA/Drivers/USB/Core/AVR8/USBInterrupt_AVR8.c ****   software, including all implied warranties of merchantability
  23:../../tmk_core/protocol/lufa/lufa-abcminiuser/LUFA/Drivers/USB/Core/AVR8/USBInterrupt_AVR8.c ****   and fitness.  In no event shall the author be liable for any
  24:../../tmk_core/protocol/lufa/lufa-abcminiuser/LUFA/Drivers/USB/Core/AVR8/USBInterrupt_AVR8.c ****   special, indirect or consequential damages or any damages
  25:../../tmk_core/protocol/lufa/lufa-abcminiuser/LUFA/Drivers/USB/Core/AVR8/USBInterrupt_AVR8.c ****   whatsoever resulting from loss of use, data or profits, whether
  26:../../tmk_core/protocol/lufa/lufa-abcminiuser/LUFA/Drivers/USB/Core/AVR8/USBInterrupt_AVR8.c ****   in an action of contract, negligence or other tortious action,
  27:../../tmk_core/protocol/lufa/lufa-abcminiuser/LUFA/Drivers/USB/Core/AVR8/USBInterrupt_AVR8.c ****   arising out of or in connection with the use or performance of
  28:../../tmk_core/protocol/lufa/lufa-abcminiuser/LUFA/Drivers/USB/Core/AVR8/USBInterrupt_AVR8.c ****   this software.
  29:../../tmk_core/protocol/lufa/lufa-abcminiuser/LUFA/Drivers/USB/Core/AVR8/USBInterrupt_AVR8.c **** */
  30:../../tmk_core/protocol/lufa/lufa-abcminiuser/LUFA/Drivers/USB/Core/AVR8/USBInterrupt_AVR8.c **** 
  31:../../tmk_core/protocol/lufa/lufa-abcminiuser/LUFA/Drivers/USB/Core/AVR8/USBInterrupt_AVR8.c **** #include "../../../../Common/Common.h"
  32:../../tmk_core/protocol/lufa/lufa-abcminiuser/LUFA/Drivers/USB/Core/AVR8/USBInterrupt_AVR8.c **** #if (ARCH == ARCH_AVR8)
  33:../../tmk_core/protocol/lufa/lufa-abcminiuser/LUFA/Drivers/USB/Core/AVR8/USBInterrupt_AVR8.c **** 
  34:../../tmk_core/protocol/lufa/lufa-abcminiuser/LUFA/Drivers/USB/Core/AVR8/USBInterrupt_AVR8.c **** #define  __INCLUDE_FROM_USB_DRIVER
  35:../../tmk_core/protocol/lufa/lufa-abcminiuser/LUFA/Drivers/USB/Core/AVR8/USBInterrupt_AVR8.c **** #include "../USBInterrupt.h"
  36:../../tmk_core/protocol/lufa/lufa-abcminiuser/LUFA/Drivers/USB/Core/AVR8/USBInterrupt_AVR8.c **** 
  37:../../tmk_core/protocol/lufa/lufa-abcminiuser/LUFA/Drivers/USB/Core/AVR8/USBInterrupt_AVR8.c **** void USB_INT_DisableAllInterrupts(void)
  38:../../tmk_core/protocol/lufa/lufa-abcminiuser/LUFA/Drivers/USB/Core/AVR8/USBInterrupt_AVR8.c **** {
  16               		.loc 1 38 1 view -0
  17               		.cfi_startproc
  18               	/* prologue: function */
  19               	/* frame size = 0 */
  20               	/* stack size = 0 */
  21               	.L__stack_usage = 0
  39:../../tmk_core/protocol/lufa/lufa-abcminiuser/LUFA/Drivers/USB/Core/AVR8/USBInterrupt_AVR8.c **** 	#if defined(USB_SERIES_6_AVR) || defined(USB_SERIES_7_AVR)
  40:../../tmk_core/protocol/lufa/lufa-abcminiuser/LUFA/Drivers/USB/Core/AVR8/USBInterrupt_AVR8.c **** 	USBCON &= ~((1 << VBUSTE) | (1 << IDTE));
  41:../../tmk_core/protocol/lufa/lufa-abcminiuser/LUFA/Drivers/USB/Core/AVR8/USBInterrupt_AVR8.c **** 	#elif defined(USB_SERIES_4_AVR)
  42:../../tmk_core/protocol/lufa/lufa-abcminiuser/LUFA/Drivers/USB/Core/AVR8/USBInterrupt_AVR8.c **** 	USBCON &= ~(1 << VBUSTE);
  22               		.loc 1 42 2 view .LVU1
  23               		.loc 1 42 9 is_stmt 0 view .LVU2
  24 0000 E8ED      		ldi r30,lo8(-40)
  25 0002 F0E0      		ldi r31,0
  26 0004 8081      		ld r24,Z
  27 0006 8E7F      		andi r24,lo8(-2)
  28 0008 8083      		st Z,r24
  43:../../tmk_core/protocol/lufa/lufa-abcminiuser/LUFA/Drivers/USB/Core/AVR8/USBInterrupt_AVR8.c **** 	#endif
  44:../../tmk_core/protocol/lufa/lufa-abcminiuser/LUFA/Drivers/USB/Core/AVR8/USBInterrupt_AVR8.c **** 
  45:../../tmk_core/protocol/lufa/lufa-abcminiuser/LUFA/Drivers/USB/Core/AVR8/USBInterrupt_AVR8.c **** 	#if defined(USB_CAN_BE_BOTH)
  46:../../tmk_core/protocol/lufa/lufa-abcminiuser/LUFA/Drivers/USB/Core/AVR8/USBInterrupt_AVR8.c **** 	OTGIEN  = 0;
  47:../../tmk_core/protocol/lufa/lufa-abcminiuser/LUFA/Drivers/USB/Core/AVR8/USBInterrupt_AVR8.c **** 	#endif
  48:../../tmk_core/protocol/lufa/lufa-abcminiuser/LUFA/Drivers/USB/Core/AVR8/USBInterrupt_AVR8.c **** 
  49:../../tmk_core/protocol/lufa/lufa-abcminiuser/LUFA/Drivers/USB/Core/AVR8/USBInterrupt_AVR8.c **** 	#if defined(USB_CAN_BE_HOST)
  50:../../tmk_core/protocol/lufa/lufa-abcminiuser/LUFA/Drivers/USB/Core/AVR8/USBInterrupt_AVR8.c **** 	UHIEN   = 0;
  51:../../tmk_core/protocol/lufa/lufa-abcminiuser/LUFA/Drivers/USB/Core/AVR8/USBInterrupt_AVR8.c **** 	#endif
  52:../../tmk_core/protocol/lufa/lufa-abcminiuser/LUFA/Drivers/USB/Core/AVR8/USBInterrupt_AVR8.c **** 
  53:../../tmk_core/protocol/lufa/lufa-abcminiuser/LUFA/Drivers/USB/Core/AVR8/USBInterrupt_AVR8.c **** 	#if defined(USB_CAN_BE_DEVICE)
  54:../../tmk_core/protocol/lufa/lufa-abcminiuser/LUFA/Drivers/USB/Core/AVR8/USBInterrupt_AVR8.c **** 	UDIEN   = 0;
  29               		.loc 1 54 2 is_stmt 1 view .LVU3
  30               		.loc 1 54 10 is_stmt 0 view .LVU4
  31 000a 1092 E200 		sts 226,__zero_reg__
  32               	/* epilogue start */
  55:../../tmk_core/protocol/lufa/lufa-abcminiuser/LUFA/Drivers/USB/Core/AVR8/USBInterrupt_AVR8.c **** 	#endif
  56:../../tmk_core/protocol/lufa/lufa-abcminiuser/LUFA/Drivers/USB/Core/AVR8/USBInterrupt_AVR8.c **** }
  33               		.loc 1 56 1 view .LVU5
  34 000e 0895      		ret
  35               		.cfi_endproc
  36               	.LFE85:
  38               		.section	.text.USB_INT_ClearAllInterrupts,"ax",@progbits
  39               	.global	USB_INT_ClearAllInterrupts
  41               	USB_INT_ClearAllInterrupts:
  42               	.LFB86:
  57:../../tmk_core/protocol/lufa/lufa-abcminiuser/LUFA/Drivers/USB/Core/AVR8/USBInterrupt_AVR8.c **** 
  58:../../tmk_core/protocol/lufa/lufa-abcminiuser/LUFA/Drivers/USB/Core/AVR8/USBInterrupt_AVR8.c **** void USB_INT_ClearAllInterrupts(void)
  59:../../tmk_core/protocol/lufa/lufa-abcminiuser/LUFA/Drivers/USB/Core/AVR8/USBInterrupt_AVR8.c **** {
  43               		.loc 1 59 1 is_stmt 1 view -0
  44               		.cfi_startproc
  45               	/* prologue: function */
  46               	/* frame size = 0 */
  47               	/* stack size = 0 */
  48               	.L__stack_usage = 0
  60:../../tmk_core/protocol/lufa/lufa-abcminiuser/LUFA/Drivers/USB/Core/AVR8/USBInterrupt_AVR8.c **** 	#if defined(USB_SERIES_4_AVR) || defined(USB_SERIES_6_AVR) || defined(USB_SERIES_7_AVR)
  61:../../tmk_core/protocol/lufa/lufa-abcminiuser/LUFA/Drivers/USB/Core/AVR8/USBInterrupt_AVR8.c **** 	USBINT = 0;
  49               		.loc 1 61 2 view .LVU7
  50               		.loc 1 61 9 is_stmt 0 view .LVU8
  51 0000 1092 DA00 		sts 218,__zero_reg__
  62:../../tmk_core/protocol/lufa/lufa-abcminiuser/LUFA/Drivers/USB/Core/AVR8/USBInterrupt_AVR8.c **** 	#endif
  63:../../tmk_core/protocol/lufa/lufa-abcminiuser/LUFA/Drivers/USB/Core/AVR8/USBInterrupt_AVR8.c **** 
  64:../../tmk_core/protocol/lufa/lufa-abcminiuser/LUFA/Drivers/USB/Core/AVR8/USBInterrupt_AVR8.c **** 	#if defined(USB_CAN_BE_BOTH)
  65:../../tmk_core/protocol/lufa/lufa-abcminiuser/LUFA/Drivers/USB/Core/AVR8/USBInterrupt_AVR8.c **** 	OTGINT = 0;
  66:../../tmk_core/protocol/lufa/lufa-abcminiuser/LUFA/Drivers/USB/Core/AVR8/USBInterrupt_AVR8.c **** 	#endif
  67:../../tmk_core/protocol/lufa/lufa-abcminiuser/LUFA/Drivers/USB/Core/AVR8/USBInterrupt_AVR8.c **** 
  68:../../tmk_core/protocol/lufa/lufa-abcminiuser/LUFA/Drivers/USB/Core/AVR8/USBInterrupt_AVR8.c **** 	#if defined(USB_CAN_BE_HOST)
  69:../../tmk_core/protocol/lufa/lufa-abcminiuser/LUFA/Drivers/USB/Core/AVR8/USBInterrupt_AVR8.c **** 	UHINT  = 0;
  70:../../tmk_core/protocol/lufa/lufa-abcminiuser/LUFA/Drivers/USB/Core/AVR8/USBInterrupt_AVR8.c **** 	#endif
  71:../../tmk_core/protocol/lufa/lufa-abcminiuser/LUFA/Drivers/USB/Core/AVR8/USBInterrupt_AVR8.c **** 
  72:../../tmk_core/protocol/lufa/lufa-abcminiuser/LUFA/Drivers/USB/Core/AVR8/USBInterrupt_AVR8.c **** 	#if defined(USB_CAN_BE_DEVICE)
  73:../../tmk_core/protocol/lufa/lufa-abcminiuser/LUFA/Drivers/USB/Core/AVR8/USBInterrupt_AVR8.c **** 	UDINT  = 0;
  52               		.loc 1 73 2 is_stmt 1 view .LVU9
  53               		.loc 1 73 9 is_stmt 0 view .LVU10
  54 0004 1092 E100 		sts 225,__zero_reg__
  55               	/* epilogue start */
  74:../../tmk_core/protocol/lufa/lufa-abcminiuser/LUFA/Drivers/USB/Core/AVR8/USBInterrupt_AVR8.c **** 	#endif
  75:../../tmk_core/protocol/lufa/lufa-abcminiuser/LUFA/Drivers/USB/Core/AVR8/USBInterrupt_AVR8.c **** }
  56               		.loc 1 75 1 view .LVU11
  57 0008 0895      		ret
  58               		.cfi_endproc
  59               	.LFE86:
  61               		.section	.text.__vector_10,"ax",@progbits
  62               	.global	__vector_10
  64               	__vector_10:
  65               	.LFB87:
  76:../../tmk_core/protocol/lufa/lufa-abcminiuser/LUFA/Drivers/USB/Core/AVR8/USBInterrupt_AVR8.c **** 
  77:../../tmk_core/protocol/lufa/lufa-abcminiuser/LUFA/Drivers/USB/Core/AVR8/USBInterrupt_AVR8.c **** ISR(USB_GEN_vect, ISR_BLOCK)
  78:../../tmk_core/protocol/lufa/lufa-abcminiuser/LUFA/Drivers/USB/Core/AVR8/USBInterrupt_AVR8.c **** {
  66               		.loc 1 78 1 is_stmt 1 view -0
  67               		.cfi_startproc
  68 0000 1F92      		push r1
  69               	.LCFI0:
  70               		.cfi_def_cfa_offset 3
  71               		.cfi_offset 1, -2
  72 0002 0F92      		push r0
  73               	.LCFI1:
  74               		.cfi_def_cfa_offset 4
  75               		.cfi_offset 0, -3
  76 0004 0FB6      		in r0,__SREG__
  77 0006 0F92      		push r0
  78 0008 1124      		clr __zero_reg__
  79 000a 2F93      		push r18
  80               	.LCFI2:
  81               		.cfi_def_cfa_offset 5
  82               		.cfi_offset 18, -4
  83 000c 3F93      		push r19
  84               	.LCFI3:
  85               		.cfi_def_cfa_offset 6
  86               		.cfi_offset 19, -5
  87 000e 4F93      		push r20
  88               	.LCFI4:
  89               		.cfi_def_cfa_offset 7
  90               		.cfi_offset 20, -6
  91 0010 5F93      		push r21
  92               	.LCFI5:
  93               		.cfi_def_cfa_offset 8
  94               		.cfi_offset 21, -7
  95 0012 6F93      		push r22
  96               	.LCFI6:
  97               		.cfi_def_cfa_offset 9
  98               		.cfi_offset 22, -8
  99 0014 7F93      		push r23
 100               	.LCFI7:
 101               		.cfi_def_cfa_offset 10
 102               		.cfi_offset 23, -9
 103 0016 8F93      		push r24
 104               	.LCFI8:
 105               		.cfi_def_cfa_offset 11
 106               		.cfi_offset 24, -10
 107 0018 9F93      		push r25
 108               	.LCFI9:
 109               		.cfi_def_cfa_offset 12
 110               		.cfi_offset 25, -11
 111 001a AF93      		push r26
 112               	.LCFI10:
 113               		.cfi_def_cfa_offset 13
 114               		.cfi_offset 26, -12
 115 001c BF93      		push r27
 116               	.LCFI11:
 117               		.cfi_def_cfa_offset 14
 118               		.cfi_offset 27, -13
 119 001e EF93      		push r30
 120               	.LCFI12:
 121               		.cfi_def_cfa_offset 15
 122               		.cfi_offset 30, -14
 123 0020 FF93      		push r31
 124               	.LCFI13:
 125               		.cfi_def_cfa_offset 16
 126               		.cfi_offset 31, -15
 127               	/* prologue: Signal */
 128               	/* frame size = 0 */
 129               	/* stack size = 15 */
 130               	.L__stack_usage = 15
  79:../../tmk_core/protocol/lufa/lufa-abcminiuser/LUFA/Drivers/USB/Core/AVR8/USBInterrupt_AVR8.c **** 	#if defined(USB_CAN_BE_DEVICE)
  80:../../tmk_core/protocol/lufa/lufa-abcminiuser/LUFA/Drivers/USB/Core/AVR8/USBInterrupt_AVR8.c **** 	#if !defined(NO_SOF_EVENTS)
  81:../../tmk_core/protocol/lufa/lufa-abcminiuser/LUFA/Drivers/USB/Core/AVR8/USBInterrupt_AVR8.c **** 	if (USB_INT_HasOccurred(USB_INT_SOFI) && USB_INT_IsEnabled(USB_INT_SOFI))
 131               		.loc 1 81 2 view .LVU13
 132               	.LVL0:
 133               	.LBB90:
 134               	.LBI90:
 135               		.file 2 "../../tmk_core/protocol/lufa/lufa-abcminiuser/LUFA/Drivers/USB/Core/AVR8/../AVR8/USBInter
   1:../../tmk_core/protocol/lufa/lufa-abcminiuser/LUFA/Drivers/USB/Core/AVR8/../AVR8/USBInterrupt_AVR8.h **** /*
   2:../../tmk_core/protocol/lufa/lufa-abcminiuser/LUFA/Drivers/USB/Core/AVR8/../AVR8/USBInterrupt_AVR8.h ****              LUFA Library
   3:../../tmk_core/protocol/lufa/lufa-abcminiuser/LUFA/Drivers/USB/Core/AVR8/../AVR8/USBInterrupt_AVR8.h ****      Copyright (C) Dean Camera, 2019.
   4:../../tmk_core/protocol/lufa/lufa-abcminiuser/LUFA/Drivers/USB/Core/AVR8/../AVR8/USBInterrupt_AVR8.h **** 
   5:../../tmk_core/protocol/lufa/lufa-abcminiuser/LUFA/Drivers/USB/Core/AVR8/../AVR8/USBInterrupt_AVR8.h ****   dean [at] fourwalledcubicle [dot] com
   6:../../tmk_core/protocol/lufa/lufa-abcminiuser/LUFA/Drivers/USB/Core/AVR8/../AVR8/USBInterrupt_AVR8.h ****            www.lufa-lib.org
   7:../../tmk_core/protocol/lufa/lufa-abcminiuser/LUFA/Drivers/USB/Core/AVR8/../AVR8/USBInterrupt_AVR8.h **** */
   8:../../tmk_core/protocol/lufa/lufa-abcminiuser/LUFA/Drivers/USB/Core/AVR8/../AVR8/USBInterrupt_AVR8.h **** 
   9:../../tmk_core/protocol/lufa/lufa-abcminiuser/LUFA/Drivers/USB/Core/AVR8/../AVR8/USBInterrupt_AVR8.h **** /*
  10:../../tmk_core/protocol/lufa/lufa-abcminiuser/LUFA/Drivers/USB/Core/AVR8/../AVR8/USBInterrupt_AVR8.h ****   Copyright 2019  Dean Camera (dean [at] fourwalledcubicle [dot] com)
  11:../../tmk_core/protocol/lufa/lufa-abcminiuser/LUFA/Drivers/USB/Core/AVR8/../AVR8/USBInterrupt_AVR8.h **** 
  12:../../tmk_core/protocol/lufa/lufa-abcminiuser/LUFA/Drivers/USB/Core/AVR8/../AVR8/USBInterrupt_AVR8.h ****   Permission to use, copy, modify, distribute, and sell this
  13:../../tmk_core/protocol/lufa/lufa-abcminiuser/LUFA/Drivers/USB/Core/AVR8/../AVR8/USBInterrupt_AVR8.h ****   software and its documentation for any purpose is hereby granted
  14:../../tmk_core/protocol/lufa/lufa-abcminiuser/LUFA/Drivers/USB/Core/AVR8/../AVR8/USBInterrupt_AVR8.h ****   without fee, provided that the above copyright notice appear in
  15:../../tmk_core/protocol/lufa/lufa-abcminiuser/LUFA/Drivers/USB/Core/AVR8/../AVR8/USBInterrupt_AVR8.h ****   all copies and that both that the copyright notice and this
  16:../../tmk_core/protocol/lufa/lufa-abcminiuser/LUFA/Drivers/USB/Core/AVR8/../AVR8/USBInterrupt_AVR8.h ****   permission notice and warranty disclaimer appear in supporting
  17:../../tmk_core/protocol/lufa/lufa-abcminiuser/LUFA/Drivers/USB/Core/AVR8/../AVR8/USBInterrupt_AVR8.h ****   documentation, and that the name of the author not be used in
  18:../../tmk_core/protocol/lufa/lufa-abcminiuser/LUFA/Drivers/USB/Core/AVR8/../AVR8/USBInterrupt_AVR8.h ****   advertising or publicity pertaining to distribution of the
  19:../../tmk_core/protocol/lufa/lufa-abcminiuser/LUFA/Drivers/USB/Core/AVR8/../AVR8/USBInterrupt_AVR8.h ****   software without specific, written prior permission.
  20:../../tmk_core/protocol/lufa/lufa-abcminiuser/LUFA/Drivers/USB/Core/AVR8/../AVR8/USBInterrupt_AVR8.h **** 
  21:../../tmk_core/protocol/lufa/lufa-abcminiuser/LUFA/Drivers/USB/Core/AVR8/../AVR8/USBInterrupt_AVR8.h ****   The author disclaims all warranties with regard to this
  22:../../tmk_core/protocol/lufa/lufa-abcminiuser/LUFA/Drivers/USB/Core/AVR8/../AVR8/USBInterrupt_AVR8.h ****   software, including all implied warranties of merchantability
  23:../../tmk_core/protocol/lufa/lufa-abcminiuser/LUFA/Drivers/USB/Core/AVR8/../AVR8/USBInterrupt_AVR8.h ****   and fitness.  In no event shall the author be liable for any
  24:../../tmk_core/protocol/lufa/lufa-abcminiuser/LUFA/Drivers/USB/Core/AVR8/../AVR8/USBInterrupt_AVR8.h ****   special, indirect or consequential damages or any damages
  25:../../tmk_core/protocol/lufa/lufa-abcminiuser/LUFA/Drivers/USB/Core/AVR8/../AVR8/USBInterrupt_AVR8.h ****   whatsoever resulting from loss of use, data or profits, whether
  26:../../tmk_core/protocol/lufa/lufa-abcminiuser/LUFA/Drivers/USB/Core/AVR8/../AVR8/USBInterrupt_AVR8.h ****   in an action of contract, negligence or other tortious action,
  27:../../tmk_core/protocol/lufa/lufa-abcminiuser/LUFA/Drivers/USB/Core/AVR8/../AVR8/USBInterrupt_AVR8.h ****   arising out of or in connection with the use or performance of
  28:../../tmk_core/protocol/lufa/lufa-abcminiuser/LUFA/Drivers/USB/Core/AVR8/../AVR8/USBInterrupt_AVR8.h ****   this software.
  29:../../tmk_core/protocol/lufa/lufa-abcminiuser/LUFA/Drivers/USB/Core/AVR8/../AVR8/USBInterrupt_AVR8.h **** */
  30:../../tmk_core/protocol/lufa/lufa-abcminiuser/LUFA/Drivers/USB/Core/AVR8/../AVR8/USBInterrupt_AVR8.h **** 
  31:../../tmk_core/protocol/lufa/lufa-abcminiuser/LUFA/Drivers/USB/Core/AVR8/../AVR8/USBInterrupt_AVR8.h **** /** \file
  32:../../tmk_core/protocol/lufa/lufa-abcminiuser/LUFA/Drivers/USB/Core/AVR8/../AVR8/USBInterrupt_AVR8.h ****  *  \brief USB Controller Interrupt definitions for the AVR8 microcontrollers.
  33:../../tmk_core/protocol/lufa/lufa-abcminiuser/LUFA/Drivers/USB/Core/AVR8/../AVR8/USBInterrupt_AVR8.h ****  *
  34:../../tmk_core/protocol/lufa/lufa-abcminiuser/LUFA/Drivers/USB/Core/AVR8/../AVR8/USBInterrupt_AVR8.h ****  *  This file contains definitions required for the correct handling of low level USB service routi
  35:../../tmk_core/protocol/lufa/lufa-abcminiuser/LUFA/Drivers/USB/Core/AVR8/../AVR8/USBInterrupt_AVR8.h ****  *  from the USB controller.
  36:../../tmk_core/protocol/lufa/lufa-abcminiuser/LUFA/Drivers/USB/Core/AVR8/../AVR8/USBInterrupt_AVR8.h ****  *
  37:../../tmk_core/protocol/lufa/lufa-abcminiuser/LUFA/Drivers/USB/Core/AVR8/../AVR8/USBInterrupt_AVR8.h ****  *  \note This file should not be included directly. It is automatically included as needed by the 
  38:../../tmk_core/protocol/lufa/lufa-abcminiuser/LUFA/Drivers/USB/Core/AVR8/../AVR8/USBInterrupt_AVR8.h ****  *        dispatch header located in LUFA/Drivers/USB/USB.h.
  39:../../tmk_core/protocol/lufa/lufa-abcminiuser/LUFA/Drivers/USB/Core/AVR8/../AVR8/USBInterrupt_AVR8.h ****  */
  40:../../tmk_core/protocol/lufa/lufa-abcminiuser/LUFA/Drivers/USB/Core/AVR8/../AVR8/USBInterrupt_AVR8.h **** 
  41:../../tmk_core/protocol/lufa/lufa-abcminiuser/LUFA/Drivers/USB/Core/AVR8/../AVR8/USBInterrupt_AVR8.h **** #ifndef __USBINTERRUPT_AVR8_H__
  42:../../tmk_core/protocol/lufa/lufa-abcminiuser/LUFA/Drivers/USB/Core/AVR8/../AVR8/USBInterrupt_AVR8.h **** #define __USBINTERRUPT_AVR8_H__
  43:../../tmk_core/protocol/lufa/lufa-abcminiuser/LUFA/Drivers/USB/Core/AVR8/../AVR8/USBInterrupt_AVR8.h **** 
  44:../../tmk_core/protocol/lufa/lufa-abcminiuser/LUFA/Drivers/USB/Core/AVR8/../AVR8/USBInterrupt_AVR8.h **** 	/* Includes: */
  45:../../tmk_core/protocol/lufa/lufa-abcminiuser/LUFA/Drivers/USB/Core/AVR8/../AVR8/USBInterrupt_AVR8.h **** 		#include "../../../../Common/Common.h"
  46:../../tmk_core/protocol/lufa/lufa-abcminiuser/LUFA/Drivers/USB/Core/AVR8/../AVR8/USBInterrupt_AVR8.h **** 
  47:../../tmk_core/protocol/lufa/lufa-abcminiuser/LUFA/Drivers/USB/Core/AVR8/../AVR8/USBInterrupt_AVR8.h **** 	/* Enable C linkage for C++ Compilers: */
  48:../../tmk_core/protocol/lufa/lufa-abcminiuser/LUFA/Drivers/USB/Core/AVR8/../AVR8/USBInterrupt_AVR8.h **** 		#if defined(__cplusplus)
  49:../../tmk_core/protocol/lufa/lufa-abcminiuser/LUFA/Drivers/USB/Core/AVR8/../AVR8/USBInterrupt_AVR8.h **** 			extern "C" {
  50:../../tmk_core/protocol/lufa/lufa-abcminiuser/LUFA/Drivers/USB/Core/AVR8/../AVR8/USBInterrupt_AVR8.h **** 		#endif
  51:../../tmk_core/protocol/lufa/lufa-abcminiuser/LUFA/Drivers/USB/Core/AVR8/../AVR8/USBInterrupt_AVR8.h **** 
  52:../../tmk_core/protocol/lufa/lufa-abcminiuser/LUFA/Drivers/USB/Core/AVR8/../AVR8/USBInterrupt_AVR8.h **** 	/* Preprocessor Checks: */
  53:../../tmk_core/protocol/lufa/lufa-abcminiuser/LUFA/Drivers/USB/Core/AVR8/../AVR8/USBInterrupt_AVR8.h **** 		#if !defined(__INCLUDE_FROM_USB_DRIVER)
  54:../../tmk_core/protocol/lufa/lufa-abcminiuser/LUFA/Drivers/USB/Core/AVR8/../AVR8/USBInterrupt_AVR8.h **** 			#error Do not include this file directly. Include LUFA/Drivers/USB/USB.h instead.
  55:../../tmk_core/protocol/lufa/lufa-abcminiuser/LUFA/Drivers/USB/Core/AVR8/../AVR8/USBInterrupt_AVR8.h **** 		#endif
  56:../../tmk_core/protocol/lufa/lufa-abcminiuser/LUFA/Drivers/USB/Core/AVR8/../AVR8/USBInterrupt_AVR8.h **** 
  57:../../tmk_core/protocol/lufa/lufa-abcminiuser/LUFA/Drivers/USB/Core/AVR8/../AVR8/USBInterrupt_AVR8.h **** 	/* Private Interface - For use in library only: */
  58:../../tmk_core/protocol/lufa/lufa-abcminiuser/LUFA/Drivers/USB/Core/AVR8/../AVR8/USBInterrupt_AVR8.h **** 	#if !defined(__DOXYGEN__)
  59:../../tmk_core/protocol/lufa/lufa-abcminiuser/LUFA/Drivers/USB/Core/AVR8/../AVR8/USBInterrupt_AVR8.h **** 		/* Enums: */
  60:../../tmk_core/protocol/lufa/lufa-abcminiuser/LUFA/Drivers/USB/Core/AVR8/../AVR8/USBInterrupt_AVR8.h **** 			enum USB_Interrupts_t
  61:../../tmk_core/protocol/lufa/lufa-abcminiuser/LUFA/Drivers/USB/Core/AVR8/../AVR8/USBInterrupt_AVR8.h **** 			{
  62:../../tmk_core/protocol/lufa/lufa-abcminiuser/LUFA/Drivers/USB/Core/AVR8/../AVR8/USBInterrupt_AVR8.h **** 				#if (defined(USB_SERIES_4_AVR) || defined(USB_SERIES_6_AVR) || defined(USB_SERIES_7_AVR) || def
  63:../../tmk_core/protocol/lufa/lufa-abcminiuser/LUFA/Drivers/USB/Core/AVR8/../AVR8/USBInterrupt_AVR8.h **** 				USB_INT_VBUSTI  = 0,
  64:../../tmk_core/protocol/lufa/lufa-abcminiuser/LUFA/Drivers/USB/Core/AVR8/../AVR8/USBInterrupt_AVR8.h **** 				#endif
  65:../../tmk_core/protocol/lufa/lufa-abcminiuser/LUFA/Drivers/USB/Core/AVR8/../AVR8/USBInterrupt_AVR8.h **** 				#if (defined(USB_CAN_BE_BOTH) || defined(__DOXYGEN__))
  66:../../tmk_core/protocol/lufa/lufa-abcminiuser/LUFA/Drivers/USB/Core/AVR8/../AVR8/USBInterrupt_AVR8.h **** 				USB_INT_IDTI    = 1,
  67:../../tmk_core/protocol/lufa/lufa-abcminiuser/LUFA/Drivers/USB/Core/AVR8/../AVR8/USBInterrupt_AVR8.h **** 				#endif
  68:../../tmk_core/protocol/lufa/lufa-abcminiuser/LUFA/Drivers/USB/Core/AVR8/../AVR8/USBInterrupt_AVR8.h **** 				#if (defined(USB_CAN_BE_DEVICE) || defined(__DOXYGEN__))
  69:../../tmk_core/protocol/lufa/lufa-abcminiuser/LUFA/Drivers/USB/Core/AVR8/../AVR8/USBInterrupt_AVR8.h **** 				USB_INT_WAKEUPI = 2,
  70:../../tmk_core/protocol/lufa/lufa-abcminiuser/LUFA/Drivers/USB/Core/AVR8/../AVR8/USBInterrupt_AVR8.h **** 				USB_INT_SUSPI   = 3,
  71:../../tmk_core/protocol/lufa/lufa-abcminiuser/LUFA/Drivers/USB/Core/AVR8/../AVR8/USBInterrupt_AVR8.h **** 				USB_INT_EORSTI  = 4,
  72:../../tmk_core/protocol/lufa/lufa-abcminiuser/LUFA/Drivers/USB/Core/AVR8/../AVR8/USBInterrupt_AVR8.h **** 				USB_INT_SOFI    = 5,
  73:../../tmk_core/protocol/lufa/lufa-abcminiuser/LUFA/Drivers/USB/Core/AVR8/../AVR8/USBInterrupt_AVR8.h **** 				USB_INT_RXSTPI  = 6,
  74:../../tmk_core/protocol/lufa/lufa-abcminiuser/LUFA/Drivers/USB/Core/AVR8/../AVR8/USBInterrupt_AVR8.h **** 				#endif
  75:../../tmk_core/protocol/lufa/lufa-abcminiuser/LUFA/Drivers/USB/Core/AVR8/../AVR8/USBInterrupt_AVR8.h **** 				#if (defined(USB_CAN_BE_HOST) || defined(__DOXYGEN__))
  76:../../tmk_core/protocol/lufa/lufa-abcminiuser/LUFA/Drivers/USB/Core/AVR8/../AVR8/USBInterrupt_AVR8.h **** 				USB_INT_HSOFI   = 7,
  77:../../tmk_core/protocol/lufa/lufa-abcminiuser/LUFA/Drivers/USB/Core/AVR8/../AVR8/USBInterrupt_AVR8.h **** 				USB_INT_DCONNI  = 8,
  78:../../tmk_core/protocol/lufa/lufa-abcminiuser/LUFA/Drivers/USB/Core/AVR8/../AVR8/USBInterrupt_AVR8.h **** 				USB_INT_DDISCI  = 9,
  79:../../tmk_core/protocol/lufa/lufa-abcminiuser/LUFA/Drivers/USB/Core/AVR8/../AVR8/USBInterrupt_AVR8.h **** 				USB_INT_RSTI    = 10,
  80:../../tmk_core/protocol/lufa/lufa-abcminiuser/LUFA/Drivers/USB/Core/AVR8/../AVR8/USBInterrupt_AVR8.h **** 				USB_INT_BCERRI  = 11,
  81:../../tmk_core/protocol/lufa/lufa-abcminiuser/LUFA/Drivers/USB/Core/AVR8/../AVR8/USBInterrupt_AVR8.h **** 				USB_INT_VBERRI  = 12,
  82:../../tmk_core/protocol/lufa/lufa-abcminiuser/LUFA/Drivers/USB/Core/AVR8/../AVR8/USBInterrupt_AVR8.h **** 				USB_INT_SRPI    = 13,
  83:../../tmk_core/protocol/lufa/lufa-abcminiuser/LUFA/Drivers/USB/Core/AVR8/../AVR8/USBInterrupt_AVR8.h **** 				#endif
  84:../../tmk_core/protocol/lufa/lufa-abcminiuser/LUFA/Drivers/USB/Core/AVR8/../AVR8/USBInterrupt_AVR8.h **** 			};
  85:../../tmk_core/protocol/lufa/lufa-abcminiuser/LUFA/Drivers/USB/Core/AVR8/../AVR8/USBInterrupt_AVR8.h **** 
  86:../../tmk_core/protocol/lufa/lufa-abcminiuser/LUFA/Drivers/USB/Core/AVR8/../AVR8/USBInterrupt_AVR8.h **** 		/* Inline Functions: */
  87:../../tmk_core/protocol/lufa/lufa-abcminiuser/LUFA/Drivers/USB/Core/AVR8/../AVR8/USBInterrupt_AVR8.h **** 			static inline void USB_INT_Enable(const uint8_t Interrupt) ATTR_ALWAYS_INLINE;
  88:../../tmk_core/protocol/lufa/lufa-abcminiuser/LUFA/Drivers/USB/Core/AVR8/../AVR8/USBInterrupt_AVR8.h **** 			static inline void USB_INT_Enable(const uint8_t Interrupt)
  89:../../tmk_core/protocol/lufa/lufa-abcminiuser/LUFA/Drivers/USB/Core/AVR8/../AVR8/USBInterrupt_AVR8.h **** 			{
  90:../../tmk_core/protocol/lufa/lufa-abcminiuser/LUFA/Drivers/USB/Core/AVR8/../AVR8/USBInterrupt_AVR8.h **** 				switch (Interrupt)
  91:../../tmk_core/protocol/lufa/lufa-abcminiuser/LUFA/Drivers/USB/Core/AVR8/../AVR8/USBInterrupt_AVR8.h **** 				{
  92:../../tmk_core/protocol/lufa/lufa-abcminiuser/LUFA/Drivers/USB/Core/AVR8/../AVR8/USBInterrupt_AVR8.h **** 					#if (defined(USB_SERIES_4_AVR) || defined(USB_SERIES_6_AVR) || defined(USB_SERIES_7_AVR))
  93:../../tmk_core/protocol/lufa/lufa-abcminiuser/LUFA/Drivers/USB/Core/AVR8/../AVR8/USBInterrupt_AVR8.h **** 					case USB_INT_VBUSTI:
  94:../../tmk_core/protocol/lufa/lufa-abcminiuser/LUFA/Drivers/USB/Core/AVR8/../AVR8/USBInterrupt_AVR8.h **** 						USBCON |= (1 << VBUSTE);
  95:../../tmk_core/protocol/lufa/lufa-abcminiuser/LUFA/Drivers/USB/Core/AVR8/../AVR8/USBInterrupt_AVR8.h **** 						break;
  96:../../tmk_core/protocol/lufa/lufa-abcminiuser/LUFA/Drivers/USB/Core/AVR8/../AVR8/USBInterrupt_AVR8.h **** 					#endif
  97:../../tmk_core/protocol/lufa/lufa-abcminiuser/LUFA/Drivers/USB/Core/AVR8/../AVR8/USBInterrupt_AVR8.h **** 					#if defined(USB_CAN_BE_BOTH)
  98:../../tmk_core/protocol/lufa/lufa-abcminiuser/LUFA/Drivers/USB/Core/AVR8/../AVR8/USBInterrupt_AVR8.h **** 					case USB_INT_IDTI:
  99:../../tmk_core/protocol/lufa/lufa-abcminiuser/LUFA/Drivers/USB/Core/AVR8/../AVR8/USBInterrupt_AVR8.h **** 						USBCON |= (1 << IDTE);
 100:../../tmk_core/protocol/lufa/lufa-abcminiuser/LUFA/Drivers/USB/Core/AVR8/../AVR8/USBInterrupt_AVR8.h **** 						break;
 101:../../tmk_core/protocol/lufa/lufa-abcminiuser/LUFA/Drivers/USB/Core/AVR8/../AVR8/USBInterrupt_AVR8.h **** 					#endif
 102:../../tmk_core/protocol/lufa/lufa-abcminiuser/LUFA/Drivers/USB/Core/AVR8/../AVR8/USBInterrupt_AVR8.h **** 					#if defined(USB_CAN_BE_DEVICE)
 103:../../tmk_core/protocol/lufa/lufa-abcminiuser/LUFA/Drivers/USB/Core/AVR8/../AVR8/USBInterrupt_AVR8.h **** 					case USB_INT_WAKEUPI:
 104:../../tmk_core/protocol/lufa/lufa-abcminiuser/LUFA/Drivers/USB/Core/AVR8/../AVR8/USBInterrupt_AVR8.h **** 						UDIEN  |= (1 << WAKEUPE);
 105:../../tmk_core/protocol/lufa/lufa-abcminiuser/LUFA/Drivers/USB/Core/AVR8/../AVR8/USBInterrupt_AVR8.h **** 						break;
 106:../../tmk_core/protocol/lufa/lufa-abcminiuser/LUFA/Drivers/USB/Core/AVR8/../AVR8/USBInterrupt_AVR8.h **** 					case USB_INT_SUSPI:
 107:../../tmk_core/protocol/lufa/lufa-abcminiuser/LUFA/Drivers/USB/Core/AVR8/../AVR8/USBInterrupt_AVR8.h **** 						UDIEN  |= (1 << SUSPE);
 108:../../tmk_core/protocol/lufa/lufa-abcminiuser/LUFA/Drivers/USB/Core/AVR8/../AVR8/USBInterrupt_AVR8.h **** 						break;
 109:../../tmk_core/protocol/lufa/lufa-abcminiuser/LUFA/Drivers/USB/Core/AVR8/../AVR8/USBInterrupt_AVR8.h **** 					case USB_INT_EORSTI:
 110:../../tmk_core/protocol/lufa/lufa-abcminiuser/LUFA/Drivers/USB/Core/AVR8/../AVR8/USBInterrupt_AVR8.h **** 						UDIEN  |= (1 << EORSTE);
 111:../../tmk_core/protocol/lufa/lufa-abcminiuser/LUFA/Drivers/USB/Core/AVR8/../AVR8/USBInterrupt_AVR8.h **** 						break;
 112:../../tmk_core/protocol/lufa/lufa-abcminiuser/LUFA/Drivers/USB/Core/AVR8/../AVR8/USBInterrupt_AVR8.h **** 					case USB_INT_SOFI:
 113:../../tmk_core/protocol/lufa/lufa-abcminiuser/LUFA/Drivers/USB/Core/AVR8/../AVR8/USBInterrupt_AVR8.h **** 						UDIEN  |= (1 << SOFE);
 114:../../tmk_core/protocol/lufa/lufa-abcminiuser/LUFA/Drivers/USB/Core/AVR8/../AVR8/USBInterrupt_AVR8.h **** 						break;
 115:../../tmk_core/protocol/lufa/lufa-abcminiuser/LUFA/Drivers/USB/Core/AVR8/../AVR8/USBInterrupt_AVR8.h **** 					case USB_INT_RXSTPI:
 116:../../tmk_core/protocol/lufa/lufa-abcminiuser/LUFA/Drivers/USB/Core/AVR8/../AVR8/USBInterrupt_AVR8.h **** 						UEIENX |= (1 << RXSTPE);
 117:../../tmk_core/protocol/lufa/lufa-abcminiuser/LUFA/Drivers/USB/Core/AVR8/../AVR8/USBInterrupt_AVR8.h **** 						break;
 118:../../tmk_core/protocol/lufa/lufa-abcminiuser/LUFA/Drivers/USB/Core/AVR8/../AVR8/USBInterrupt_AVR8.h **** 					#endif
 119:../../tmk_core/protocol/lufa/lufa-abcminiuser/LUFA/Drivers/USB/Core/AVR8/../AVR8/USBInterrupt_AVR8.h **** 					#if defined(USB_CAN_BE_HOST)
 120:../../tmk_core/protocol/lufa/lufa-abcminiuser/LUFA/Drivers/USB/Core/AVR8/../AVR8/USBInterrupt_AVR8.h **** 					case USB_INT_HSOFI:
 121:../../tmk_core/protocol/lufa/lufa-abcminiuser/LUFA/Drivers/USB/Core/AVR8/../AVR8/USBInterrupt_AVR8.h **** 						UHIEN  |= (1 << HSOFE);
 122:../../tmk_core/protocol/lufa/lufa-abcminiuser/LUFA/Drivers/USB/Core/AVR8/../AVR8/USBInterrupt_AVR8.h **** 						break;
 123:../../tmk_core/protocol/lufa/lufa-abcminiuser/LUFA/Drivers/USB/Core/AVR8/../AVR8/USBInterrupt_AVR8.h **** 					case USB_INT_DCONNI:
 124:../../tmk_core/protocol/lufa/lufa-abcminiuser/LUFA/Drivers/USB/Core/AVR8/../AVR8/USBInterrupt_AVR8.h **** 						UHIEN  |= (1 << DCONNE);
 125:../../tmk_core/protocol/lufa/lufa-abcminiuser/LUFA/Drivers/USB/Core/AVR8/../AVR8/USBInterrupt_AVR8.h **** 						break;
 126:../../tmk_core/protocol/lufa/lufa-abcminiuser/LUFA/Drivers/USB/Core/AVR8/../AVR8/USBInterrupt_AVR8.h **** 					case USB_INT_DDISCI:
 127:../../tmk_core/protocol/lufa/lufa-abcminiuser/LUFA/Drivers/USB/Core/AVR8/../AVR8/USBInterrupt_AVR8.h **** 						UHIEN  |= (1 << DDISCE);
 128:../../tmk_core/protocol/lufa/lufa-abcminiuser/LUFA/Drivers/USB/Core/AVR8/../AVR8/USBInterrupt_AVR8.h **** 						break;
 129:../../tmk_core/protocol/lufa/lufa-abcminiuser/LUFA/Drivers/USB/Core/AVR8/../AVR8/USBInterrupt_AVR8.h **** 					case USB_INT_RSTI:
 130:../../tmk_core/protocol/lufa/lufa-abcminiuser/LUFA/Drivers/USB/Core/AVR8/../AVR8/USBInterrupt_AVR8.h **** 						UHIEN  |= (1 << RSTE);
 131:../../tmk_core/protocol/lufa/lufa-abcminiuser/LUFA/Drivers/USB/Core/AVR8/../AVR8/USBInterrupt_AVR8.h **** 						break;
 132:../../tmk_core/protocol/lufa/lufa-abcminiuser/LUFA/Drivers/USB/Core/AVR8/../AVR8/USBInterrupt_AVR8.h **** 					case USB_INT_BCERRI:
 133:../../tmk_core/protocol/lufa/lufa-abcminiuser/LUFA/Drivers/USB/Core/AVR8/../AVR8/USBInterrupt_AVR8.h **** 						OTGIEN |= (1 << BCERRE);
 134:../../tmk_core/protocol/lufa/lufa-abcminiuser/LUFA/Drivers/USB/Core/AVR8/../AVR8/USBInterrupt_AVR8.h **** 						break;
 135:../../tmk_core/protocol/lufa/lufa-abcminiuser/LUFA/Drivers/USB/Core/AVR8/../AVR8/USBInterrupt_AVR8.h **** 					case USB_INT_VBERRI:
 136:../../tmk_core/protocol/lufa/lufa-abcminiuser/LUFA/Drivers/USB/Core/AVR8/../AVR8/USBInterrupt_AVR8.h **** 						OTGIEN |= (1 << VBERRE);
 137:../../tmk_core/protocol/lufa/lufa-abcminiuser/LUFA/Drivers/USB/Core/AVR8/../AVR8/USBInterrupt_AVR8.h **** 						break;
 138:../../tmk_core/protocol/lufa/lufa-abcminiuser/LUFA/Drivers/USB/Core/AVR8/../AVR8/USBInterrupt_AVR8.h **** 					case USB_INT_SRPI:
 139:../../tmk_core/protocol/lufa/lufa-abcminiuser/LUFA/Drivers/USB/Core/AVR8/../AVR8/USBInterrupt_AVR8.h **** 						OTGIEN |= (1 << SRPE);
 140:../../tmk_core/protocol/lufa/lufa-abcminiuser/LUFA/Drivers/USB/Core/AVR8/../AVR8/USBInterrupt_AVR8.h **** 						break;
 141:../../tmk_core/protocol/lufa/lufa-abcminiuser/LUFA/Drivers/USB/Core/AVR8/../AVR8/USBInterrupt_AVR8.h **** 					#endif
 142:../../tmk_core/protocol/lufa/lufa-abcminiuser/LUFA/Drivers/USB/Core/AVR8/../AVR8/USBInterrupt_AVR8.h **** 					default:
 143:../../tmk_core/protocol/lufa/lufa-abcminiuser/LUFA/Drivers/USB/Core/AVR8/../AVR8/USBInterrupt_AVR8.h **** 						break;
 144:../../tmk_core/protocol/lufa/lufa-abcminiuser/LUFA/Drivers/USB/Core/AVR8/../AVR8/USBInterrupt_AVR8.h **** 				}
 145:../../tmk_core/protocol/lufa/lufa-abcminiuser/LUFA/Drivers/USB/Core/AVR8/../AVR8/USBInterrupt_AVR8.h **** 			}
 146:../../tmk_core/protocol/lufa/lufa-abcminiuser/LUFA/Drivers/USB/Core/AVR8/../AVR8/USBInterrupt_AVR8.h **** 
 147:../../tmk_core/protocol/lufa/lufa-abcminiuser/LUFA/Drivers/USB/Core/AVR8/../AVR8/USBInterrupt_AVR8.h **** 			static inline void USB_INT_Disable(const uint8_t Interrupt) ATTR_ALWAYS_INLINE;
 148:../../tmk_core/protocol/lufa/lufa-abcminiuser/LUFA/Drivers/USB/Core/AVR8/../AVR8/USBInterrupt_AVR8.h **** 			static inline void USB_INT_Disable(const uint8_t Interrupt)
 149:../../tmk_core/protocol/lufa/lufa-abcminiuser/LUFA/Drivers/USB/Core/AVR8/../AVR8/USBInterrupt_AVR8.h **** 			{
 150:../../tmk_core/protocol/lufa/lufa-abcminiuser/LUFA/Drivers/USB/Core/AVR8/../AVR8/USBInterrupt_AVR8.h **** 				switch (Interrupt)
 151:../../tmk_core/protocol/lufa/lufa-abcminiuser/LUFA/Drivers/USB/Core/AVR8/../AVR8/USBInterrupt_AVR8.h **** 				{
 152:../../tmk_core/protocol/lufa/lufa-abcminiuser/LUFA/Drivers/USB/Core/AVR8/../AVR8/USBInterrupt_AVR8.h **** 					#if (defined(USB_SERIES_4_AVR) || defined(USB_SERIES_6_AVR) || defined(USB_SERIES_7_AVR))
 153:../../tmk_core/protocol/lufa/lufa-abcminiuser/LUFA/Drivers/USB/Core/AVR8/../AVR8/USBInterrupt_AVR8.h **** 					case USB_INT_VBUSTI:
 154:../../tmk_core/protocol/lufa/lufa-abcminiuser/LUFA/Drivers/USB/Core/AVR8/../AVR8/USBInterrupt_AVR8.h **** 						USBCON &= ~(1 << VBUSTE);
 155:../../tmk_core/protocol/lufa/lufa-abcminiuser/LUFA/Drivers/USB/Core/AVR8/../AVR8/USBInterrupt_AVR8.h **** 						break;
 156:../../tmk_core/protocol/lufa/lufa-abcminiuser/LUFA/Drivers/USB/Core/AVR8/../AVR8/USBInterrupt_AVR8.h **** 					#endif
 157:../../tmk_core/protocol/lufa/lufa-abcminiuser/LUFA/Drivers/USB/Core/AVR8/../AVR8/USBInterrupt_AVR8.h **** 					#if defined(USB_CAN_BE_BOTH)
 158:../../tmk_core/protocol/lufa/lufa-abcminiuser/LUFA/Drivers/USB/Core/AVR8/../AVR8/USBInterrupt_AVR8.h **** 					case USB_INT_IDTI:
 159:../../tmk_core/protocol/lufa/lufa-abcminiuser/LUFA/Drivers/USB/Core/AVR8/../AVR8/USBInterrupt_AVR8.h **** 						USBCON &= ~(1 << IDTE);
 160:../../tmk_core/protocol/lufa/lufa-abcminiuser/LUFA/Drivers/USB/Core/AVR8/../AVR8/USBInterrupt_AVR8.h **** 						break;
 161:../../tmk_core/protocol/lufa/lufa-abcminiuser/LUFA/Drivers/USB/Core/AVR8/../AVR8/USBInterrupt_AVR8.h **** 					#endif
 162:../../tmk_core/protocol/lufa/lufa-abcminiuser/LUFA/Drivers/USB/Core/AVR8/../AVR8/USBInterrupt_AVR8.h **** 					#if defined(USB_CAN_BE_DEVICE)
 163:../../tmk_core/protocol/lufa/lufa-abcminiuser/LUFA/Drivers/USB/Core/AVR8/../AVR8/USBInterrupt_AVR8.h **** 					case USB_INT_WAKEUPI:
 164:../../tmk_core/protocol/lufa/lufa-abcminiuser/LUFA/Drivers/USB/Core/AVR8/../AVR8/USBInterrupt_AVR8.h **** 						UDIEN  &= ~(1 << WAKEUPE);
 165:../../tmk_core/protocol/lufa/lufa-abcminiuser/LUFA/Drivers/USB/Core/AVR8/../AVR8/USBInterrupt_AVR8.h **** 						break;
 166:../../tmk_core/protocol/lufa/lufa-abcminiuser/LUFA/Drivers/USB/Core/AVR8/../AVR8/USBInterrupt_AVR8.h **** 					case USB_INT_SUSPI:
 167:../../tmk_core/protocol/lufa/lufa-abcminiuser/LUFA/Drivers/USB/Core/AVR8/../AVR8/USBInterrupt_AVR8.h **** 						UDIEN  &= ~(1 << SUSPE);
 168:../../tmk_core/protocol/lufa/lufa-abcminiuser/LUFA/Drivers/USB/Core/AVR8/../AVR8/USBInterrupt_AVR8.h **** 						break;
 169:../../tmk_core/protocol/lufa/lufa-abcminiuser/LUFA/Drivers/USB/Core/AVR8/../AVR8/USBInterrupt_AVR8.h **** 					case USB_INT_EORSTI:
 170:../../tmk_core/protocol/lufa/lufa-abcminiuser/LUFA/Drivers/USB/Core/AVR8/../AVR8/USBInterrupt_AVR8.h **** 						UDIEN  &= ~(1 << EORSTE);
 171:../../tmk_core/protocol/lufa/lufa-abcminiuser/LUFA/Drivers/USB/Core/AVR8/../AVR8/USBInterrupt_AVR8.h **** 						break;
 172:../../tmk_core/protocol/lufa/lufa-abcminiuser/LUFA/Drivers/USB/Core/AVR8/../AVR8/USBInterrupt_AVR8.h **** 					case USB_INT_SOFI:
 173:../../tmk_core/protocol/lufa/lufa-abcminiuser/LUFA/Drivers/USB/Core/AVR8/../AVR8/USBInterrupt_AVR8.h **** 						UDIEN  &= ~(1 << SOFE);
 174:../../tmk_core/protocol/lufa/lufa-abcminiuser/LUFA/Drivers/USB/Core/AVR8/../AVR8/USBInterrupt_AVR8.h **** 						break;
 175:../../tmk_core/protocol/lufa/lufa-abcminiuser/LUFA/Drivers/USB/Core/AVR8/../AVR8/USBInterrupt_AVR8.h **** 					case USB_INT_RXSTPI:
 176:../../tmk_core/protocol/lufa/lufa-abcminiuser/LUFA/Drivers/USB/Core/AVR8/../AVR8/USBInterrupt_AVR8.h **** 						UEIENX &= ~(1 << RXSTPE);
 177:../../tmk_core/protocol/lufa/lufa-abcminiuser/LUFA/Drivers/USB/Core/AVR8/../AVR8/USBInterrupt_AVR8.h **** 						break;
 178:../../tmk_core/protocol/lufa/lufa-abcminiuser/LUFA/Drivers/USB/Core/AVR8/../AVR8/USBInterrupt_AVR8.h **** 					#endif
 179:../../tmk_core/protocol/lufa/lufa-abcminiuser/LUFA/Drivers/USB/Core/AVR8/../AVR8/USBInterrupt_AVR8.h **** 					#if defined(USB_CAN_BE_HOST)
 180:../../tmk_core/protocol/lufa/lufa-abcminiuser/LUFA/Drivers/USB/Core/AVR8/../AVR8/USBInterrupt_AVR8.h **** 					case USB_INT_HSOFI:
 181:../../tmk_core/protocol/lufa/lufa-abcminiuser/LUFA/Drivers/USB/Core/AVR8/../AVR8/USBInterrupt_AVR8.h **** 						UHIEN  &= ~(1 << HSOFE);
 182:../../tmk_core/protocol/lufa/lufa-abcminiuser/LUFA/Drivers/USB/Core/AVR8/../AVR8/USBInterrupt_AVR8.h **** 						break;
 183:../../tmk_core/protocol/lufa/lufa-abcminiuser/LUFA/Drivers/USB/Core/AVR8/../AVR8/USBInterrupt_AVR8.h **** 					case USB_INT_DCONNI:
 184:../../tmk_core/protocol/lufa/lufa-abcminiuser/LUFA/Drivers/USB/Core/AVR8/../AVR8/USBInterrupt_AVR8.h **** 						UHIEN  &= ~(1 << DCONNE);
 185:../../tmk_core/protocol/lufa/lufa-abcminiuser/LUFA/Drivers/USB/Core/AVR8/../AVR8/USBInterrupt_AVR8.h **** 						break;
 186:../../tmk_core/protocol/lufa/lufa-abcminiuser/LUFA/Drivers/USB/Core/AVR8/../AVR8/USBInterrupt_AVR8.h **** 					case USB_INT_DDISCI:
 187:../../tmk_core/protocol/lufa/lufa-abcminiuser/LUFA/Drivers/USB/Core/AVR8/../AVR8/USBInterrupt_AVR8.h **** 						UHIEN  &= ~(1 << DDISCE);
 188:../../tmk_core/protocol/lufa/lufa-abcminiuser/LUFA/Drivers/USB/Core/AVR8/../AVR8/USBInterrupt_AVR8.h **** 						break;
 189:../../tmk_core/protocol/lufa/lufa-abcminiuser/LUFA/Drivers/USB/Core/AVR8/../AVR8/USBInterrupt_AVR8.h **** 					case USB_INT_RSTI:
 190:../../tmk_core/protocol/lufa/lufa-abcminiuser/LUFA/Drivers/USB/Core/AVR8/../AVR8/USBInterrupt_AVR8.h **** 						UHIEN  &= ~(1 << RSTE);
 191:../../tmk_core/protocol/lufa/lufa-abcminiuser/LUFA/Drivers/USB/Core/AVR8/../AVR8/USBInterrupt_AVR8.h **** 						break;
 192:../../tmk_core/protocol/lufa/lufa-abcminiuser/LUFA/Drivers/USB/Core/AVR8/../AVR8/USBInterrupt_AVR8.h **** 					case USB_INT_BCERRI:
 193:../../tmk_core/protocol/lufa/lufa-abcminiuser/LUFA/Drivers/USB/Core/AVR8/../AVR8/USBInterrupt_AVR8.h **** 						OTGIEN &= ~(1 << BCERRE);
 194:../../tmk_core/protocol/lufa/lufa-abcminiuser/LUFA/Drivers/USB/Core/AVR8/../AVR8/USBInterrupt_AVR8.h **** 						break;
 195:../../tmk_core/protocol/lufa/lufa-abcminiuser/LUFA/Drivers/USB/Core/AVR8/../AVR8/USBInterrupt_AVR8.h **** 					case USB_INT_VBERRI:
 196:../../tmk_core/protocol/lufa/lufa-abcminiuser/LUFA/Drivers/USB/Core/AVR8/../AVR8/USBInterrupt_AVR8.h **** 						OTGIEN &= ~(1 << VBERRE);
 197:../../tmk_core/protocol/lufa/lufa-abcminiuser/LUFA/Drivers/USB/Core/AVR8/../AVR8/USBInterrupt_AVR8.h **** 						break;
 198:../../tmk_core/protocol/lufa/lufa-abcminiuser/LUFA/Drivers/USB/Core/AVR8/../AVR8/USBInterrupt_AVR8.h **** 					case USB_INT_SRPI:
 199:../../tmk_core/protocol/lufa/lufa-abcminiuser/LUFA/Drivers/USB/Core/AVR8/../AVR8/USBInterrupt_AVR8.h **** 						OTGIEN &= ~(1 << SRPE);
 200:../../tmk_core/protocol/lufa/lufa-abcminiuser/LUFA/Drivers/USB/Core/AVR8/../AVR8/USBInterrupt_AVR8.h **** 						break;
 201:../../tmk_core/protocol/lufa/lufa-abcminiuser/LUFA/Drivers/USB/Core/AVR8/../AVR8/USBInterrupt_AVR8.h **** 					#endif
 202:../../tmk_core/protocol/lufa/lufa-abcminiuser/LUFA/Drivers/USB/Core/AVR8/../AVR8/USBInterrupt_AVR8.h **** 					default:
 203:../../tmk_core/protocol/lufa/lufa-abcminiuser/LUFA/Drivers/USB/Core/AVR8/../AVR8/USBInterrupt_AVR8.h **** 						break;
 204:../../tmk_core/protocol/lufa/lufa-abcminiuser/LUFA/Drivers/USB/Core/AVR8/../AVR8/USBInterrupt_AVR8.h **** 				}
 205:../../tmk_core/protocol/lufa/lufa-abcminiuser/LUFA/Drivers/USB/Core/AVR8/../AVR8/USBInterrupt_AVR8.h **** 			}
 206:../../tmk_core/protocol/lufa/lufa-abcminiuser/LUFA/Drivers/USB/Core/AVR8/../AVR8/USBInterrupt_AVR8.h **** 
 207:../../tmk_core/protocol/lufa/lufa-abcminiuser/LUFA/Drivers/USB/Core/AVR8/../AVR8/USBInterrupt_AVR8.h **** 			static inline void USB_INT_Clear(const uint8_t Interrupt) ATTR_ALWAYS_INLINE;
 208:../../tmk_core/protocol/lufa/lufa-abcminiuser/LUFA/Drivers/USB/Core/AVR8/../AVR8/USBInterrupt_AVR8.h **** 			static inline void USB_INT_Clear(const uint8_t Interrupt)
 209:../../tmk_core/protocol/lufa/lufa-abcminiuser/LUFA/Drivers/USB/Core/AVR8/../AVR8/USBInterrupt_AVR8.h **** 			{
 210:../../tmk_core/protocol/lufa/lufa-abcminiuser/LUFA/Drivers/USB/Core/AVR8/../AVR8/USBInterrupt_AVR8.h **** 				switch (Interrupt)
 211:../../tmk_core/protocol/lufa/lufa-abcminiuser/LUFA/Drivers/USB/Core/AVR8/../AVR8/USBInterrupt_AVR8.h **** 				{
 212:../../tmk_core/protocol/lufa/lufa-abcminiuser/LUFA/Drivers/USB/Core/AVR8/../AVR8/USBInterrupt_AVR8.h **** 					#if (defined(USB_SERIES_4_AVR) || defined(USB_SERIES_6_AVR) || defined(USB_SERIES_7_AVR))
 213:../../tmk_core/protocol/lufa/lufa-abcminiuser/LUFA/Drivers/USB/Core/AVR8/../AVR8/USBInterrupt_AVR8.h **** 					case USB_INT_VBUSTI:
 214:../../tmk_core/protocol/lufa/lufa-abcminiuser/LUFA/Drivers/USB/Core/AVR8/../AVR8/USBInterrupt_AVR8.h **** 						USBINT &= ~(1 << VBUSTI);
 215:../../tmk_core/protocol/lufa/lufa-abcminiuser/LUFA/Drivers/USB/Core/AVR8/../AVR8/USBInterrupt_AVR8.h **** 						break;
 216:../../tmk_core/protocol/lufa/lufa-abcminiuser/LUFA/Drivers/USB/Core/AVR8/../AVR8/USBInterrupt_AVR8.h **** 					#endif
 217:../../tmk_core/protocol/lufa/lufa-abcminiuser/LUFA/Drivers/USB/Core/AVR8/../AVR8/USBInterrupt_AVR8.h **** 					#if defined(USB_CAN_BE_BOTH)
 218:../../tmk_core/protocol/lufa/lufa-abcminiuser/LUFA/Drivers/USB/Core/AVR8/../AVR8/USBInterrupt_AVR8.h **** 					case USB_INT_IDTI:
 219:../../tmk_core/protocol/lufa/lufa-abcminiuser/LUFA/Drivers/USB/Core/AVR8/../AVR8/USBInterrupt_AVR8.h **** 						USBINT &= ~(1 << IDTI);
 220:../../tmk_core/protocol/lufa/lufa-abcminiuser/LUFA/Drivers/USB/Core/AVR8/../AVR8/USBInterrupt_AVR8.h **** 						break;
 221:../../tmk_core/protocol/lufa/lufa-abcminiuser/LUFA/Drivers/USB/Core/AVR8/../AVR8/USBInterrupt_AVR8.h **** 					#endif
 222:../../tmk_core/protocol/lufa/lufa-abcminiuser/LUFA/Drivers/USB/Core/AVR8/../AVR8/USBInterrupt_AVR8.h **** 					#if defined(USB_CAN_BE_DEVICE)
 223:../../tmk_core/protocol/lufa/lufa-abcminiuser/LUFA/Drivers/USB/Core/AVR8/../AVR8/USBInterrupt_AVR8.h **** 					case USB_INT_WAKEUPI:
 224:../../tmk_core/protocol/lufa/lufa-abcminiuser/LUFA/Drivers/USB/Core/AVR8/../AVR8/USBInterrupt_AVR8.h **** 						UDINT  &= ~(1 << WAKEUPI);
 225:../../tmk_core/protocol/lufa/lufa-abcminiuser/LUFA/Drivers/USB/Core/AVR8/../AVR8/USBInterrupt_AVR8.h **** 						break;
 226:../../tmk_core/protocol/lufa/lufa-abcminiuser/LUFA/Drivers/USB/Core/AVR8/../AVR8/USBInterrupt_AVR8.h **** 					case USB_INT_SUSPI:
 227:../../tmk_core/protocol/lufa/lufa-abcminiuser/LUFA/Drivers/USB/Core/AVR8/../AVR8/USBInterrupt_AVR8.h **** 						UDINT  &= ~(1 << SUSPI);
 228:../../tmk_core/protocol/lufa/lufa-abcminiuser/LUFA/Drivers/USB/Core/AVR8/../AVR8/USBInterrupt_AVR8.h **** 						break;
 229:../../tmk_core/protocol/lufa/lufa-abcminiuser/LUFA/Drivers/USB/Core/AVR8/../AVR8/USBInterrupt_AVR8.h **** 					case USB_INT_EORSTI:
 230:../../tmk_core/protocol/lufa/lufa-abcminiuser/LUFA/Drivers/USB/Core/AVR8/../AVR8/USBInterrupt_AVR8.h **** 						UDINT  &= ~(1 << EORSTI);
 231:../../tmk_core/protocol/lufa/lufa-abcminiuser/LUFA/Drivers/USB/Core/AVR8/../AVR8/USBInterrupt_AVR8.h **** 						break;
 232:../../tmk_core/protocol/lufa/lufa-abcminiuser/LUFA/Drivers/USB/Core/AVR8/../AVR8/USBInterrupt_AVR8.h **** 					case USB_INT_SOFI:
 233:../../tmk_core/protocol/lufa/lufa-abcminiuser/LUFA/Drivers/USB/Core/AVR8/../AVR8/USBInterrupt_AVR8.h **** 						UDINT  &= ~(1 << SOFI);
 234:../../tmk_core/protocol/lufa/lufa-abcminiuser/LUFA/Drivers/USB/Core/AVR8/../AVR8/USBInterrupt_AVR8.h **** 						break;
 235:../../tmk_core/protocol/lufa/lufa-abcminiuser/LUFA/Drivers/USB/Core/AVR8/../AVR8/USBInterrupt_AVR8.h **** 					case USB_INT_RXSTPI:
 236:../../tmk_core/protocol/lufa/lufa-abcminiuser/LUFA/Drivers/USB/Core/AVR8/../AVR8/USBInterrupt_AVR8.h **** 						UEINTX &= ~(1 << RXSTPI);
 237:../../tmk_core/protocol/lufa/lufa-abcminiuser/LUFA/Drivers/USB/Core/AVR8/../AVR8/USBInterrupt_AVR8.h **** 						break;
 238:../../tmk_core/protocol/lufa/lufa-abcminiuser/LUFA/Drivers/USB/Core/AVR8/../AVR8/USBInterrupt_AVR8.h **** 					#endif
 239:../../tmk_core/protocol/lufa/lufa-abcminiuser/LUFA/Drivers/USB/Core/AVR8/../AVR8/USBInterrupt_AVR8.h **** 					#if defined(USB_CAN_BE_HOST)
 240:../../tmk_core/protocol/lufa/lufa-abcminiuser/LUFA/Drivers/USB/Core/AVR8/../AVR8/USBInterrupt_AVR8.h **** 					case USB_INT_HSOFI:
 241:../../tmk_core/protocol/lufa/lufa-abcminiuser/LUFA/Drivers/USB/Core/AVR8/../AVR8/USBInterrupt_AVR8.h **** 						UHINT  &= ~(1 << HSOFI);
 242:../../tmk_core/protocol/lufa/lufa-abcminiuser/LUFA/Drivers/USB/Core/AVR8/../AVR8/USBInterrupt_AVR8.h **** 						break;
 243:../../tmk_core/protocol/lufa/lufa-abcminiuser/LUFA/Drivers/USB/Core/AVR8/../AVR8/USBInterrupt_AVR8.h **** 					case USB_INT_DCONNI:
 244:../../tmk_core/protocol/lufa/lufa-abcminiuser/LUFA/Drivers/USB/Core/AVR8/../AVR8/USBInterrupt_AVR8.h **** 						UHINT  &= ~(1 << DCONNI);
 245:../../tmk_core/protocol/lufa/lufa-abcminiuser/LUFA/Drivers/USB/Core/AVR8/../AVR8/USBInterrupt_AVR8.h **** 						break;
 246:../../tmk_core/protocol/lufa/lufa-abcminiuser/LUFA/Drivers/USB/Core/AVR8/../AVR8/USBInterrupt_AVR8.h **** 					case USB_INT_DDISCI:
 247:../../tmk_core/protocol/lufa/lufa-abcminiuser/LUFA/Drivers/USB/Core/AVR8/../AVR8/USBInterrupt_AVR8.h **** 						UHINT  &= ~(1 << DDISCI);
 248:../../tmk_core/protocol/lufa/lufa-abcminiuser/LUFA/Drivers/USB/Core/AVR8/../AVR8/USBInterrupt_AVR8.h **** 						break;
 249:../../tmk_core/protocol/lufa/lufa-abcminiuser/LUFA/Drivers/USB/Core/AVR8/../AVR8/USBInterrupt_AVR8.h **** 					case USB_INT_RSTI:
 250:../../tmk_core/protocol/lufa/lufa-abcminiuser/LUFA/Drivers/USB/Core/AVR8/../AVR8/USBInterrupt_AVR8.h **** 						UHINT  &= ~(1 << RSTI);
 251:../../tmk_core/protocol/lufa/lufa-abcminiuser/LUFA/Drivers/USB/Core/AVR8/../AVR8/USBInterrupt_AVR8.h **** 						break;
 252:../../tmk_core/protocol/lufa/lufa-abcminiuser/LUFA/Drivers/USB/Core/AVR8/../AVR8/USBInterrupt_AVR8.h **** 					case USB_INT_BCERRI:
 253:../../tmk_core/protocol/lufa/lufa-abcminiuser/LUFA/Drivers/USB/Core/AVR8/../AVR8/USBInterrupt_AVR8.h **** 						OTGINT &= ~(1 << BCERRI);
 254:../../tmk_core/protocol/lufa/lufa-abcminiuser/LUFA/Drivers/USB/Core/AVR8/../AVR8/USBInterrupt_AVR8.h **** 						break;
 255:../../tmk_core/protocol/lufa/lufa-abcminiuser/LUFA/Drivers/USB/Core/AVR8/../AVR8/USBInterrupt_AVR8.h **** 					case USB_INT_VBERRI:
 256:../../tmk_core/protocol/lufa/lufa-abcminiuser/LUFA/Drivers/USB/Core/AVR8/../AVR8/USBInterrupt_AVR8.h **** 						OTGINT &= ~(1 << VBERRI);
 257:../../tmk_core/protocol/lufa/lufa-abcminiuser/LUFA/Drivers/USB/Core/AVR8/../AVR8/USBInterrupt_AVR8.h **** 						break;
 258:../../tmk_core/protocol/lufa/lufa-abcminiuser/LUFA/Drivers/USB/Core/AVR8/../AVR8/USBInterrupt_AVR8.h **** 					case USB_INT_SRPI:
 259:../../tmk_core/protocol/lufa/lufa-abcminiuser/LUFA/Drivers/USB/Core/AVR8/../AVR8/USBInterrupt_AVR8.h **** 						OTGINT &= ~(1 << SRPI);
 260:../../tmk_core/protocol/lufa/lufa-abcminiuser/LUFA/Drivers/USB/Core/AVR8/../AVR8/USBInterrupt_AVR8.h **** 						break;
 261:../../tmk_core/protocol/lufa/lufa-abcminiuser/LUFA/Drivers/USB/Core/AVR8/../AVR8/USBInterrupt_AVR8.h **** 					#endif
 262:../../tmk_core/protocol/lufa/lufa-abcminiuser/LUFA/Drivers/USB/Core/AVR8/../AVR8/USBInterrupt_AVR8.h **** 					default:
 263:../../tmk_core/protocol/lufa/lufa-abcminiuser/LUFA/Drivers/USB/Core/AVR8/../AVR8/USBInterrupt_AVR8.h **** 						break;
 264:../../tmk_core/protocol/lufa/lufa-abcminiuser/LUFA/Drivers/USB/Core/AVR8/../AVR8/USBInterrupt_AVR8.h **** 				}
 265:../../tmk_core/protocol/lufa/lufa-abcminiuser/LUFA/Drivers/USB/Core/AVR8/../AVR8/USBInterrupt_AVR8.h **** 			}
 266:../../tmk_core/protocol/lufa/lufa-abcminiuser/LUFA/Drivers/USB/Core/AVR8/../AVR8/USBInterrupt_AVR8.h **** 
 267:../../tmk_core/protocol/lufa/lufa-abcminiuser/LUFA/Drivers/USB/Core/AVR8/../AVR8/USBInterrupt_AVR8.h **** 			static inline bool USB_INT_IsEnabled(const uint8_t Interrupt) ATTR_ALWAYS_INLINE ATTR_WARN_UNUSE
 268:../../tmk_core/protocol/lufa/lufa-abcminiuser/LUFA/Drivers/USB/Core/AVR8/../AVR8/USBInterrupt_AVR8.h **** 			static inline bool USB_INT_IsEnabled(const uint8_t Interrupt)
 269:../../tmk_core/protocol/lufa/lufa-abcminiuser/LUFA/Drivers/USB/Core/AVR8/../AVR8/USBInterrupt_AVR8.h **** 			{
 270:../../tmk_core/protocol/lufa/lufa-abcminiuser/LUFA/Drivers/USB/Core/AVR8/../AVR8/USBInterrupt_AVR8.h **** 				switch (Interrupt)
 271:../../tmk_core/protocol/lufa/lufa-abcminiuser/LUFA/Drivers/USB/Core/AVR8/../AVR8/USBInterrupt_AVR8.h **** 				{
 272:../../tmk_core/protocol/lufa/lufa-abcminiuser/LUFA/Drivers/USB/Core/AVR8/../AVR8/USBInterrupt_AVR8.h **** 					#if (defined(USB_SERIES_4_AVR) || defined(USB_SERIES_6_AVR) || defined(USB_SERIES_7_AVR))
 273:../../tmk_core/protocol/lufa/lufa-abcminiuser/LUFA/Drivers/USB/Core/AVR8/../AVR8/USBInterrupt_AVR8.h **** 					case USB_INT_VBUSTI:
 274:../../tmk_core/protocol/lufa/lufa-abcminiuser/LUFA/Drivers/USB/Core/AVR8/../AVR8/USBInterrupt_AVR8.h **** 						return (USBCON & (1 << VBUSTE));
 275:../../tmk_core/protocol/lufa/lufa-abcminiuser/LUFA/Drivers/USB/Core/AVR8/../AVR8/USBInterrupt_AVR8.h **** 					#endif
 276:../../tmk_core/protocol/lufa/lufa-abcminiuser/LUFA/Drivers/USB/Core/AVR8/../AVR8/USBInterrupt_AVR8.h **** 					#if defined(USB_CAN_BE_BOTH)
 277:../../tmk_core/protocol/lufa/lufa-abcminiuser/LUFA/Drivers/USB/Core/AVR8/../AVR8/USBInterrupt_AVR8.h **** 					case USB_INT_IDTI:
 278:../../tmk_core/protocol/lufa/lufa-abcminiuser/LUFA/Drivers/USB/Core/AVR8/../AVR8/USBInterrupt_AVR8.h **** 						return (USBCON & (1 << IDTE));
 279:../../tmk_core/protocol/lufa/lufa-abcminiuser/LUFA/Drivers/USB/Core/AVR8/../AVR8/USBInterrupt_AVR8.h **** 					#endif
 280:../../tmk_core/protocol/lufa/lufa-abcminiuser/LUFA/Drivers/USB/Core/AVR8/../AVR8/USBInterrupt_AVR8.h **** 					#if defined(USB_CAN_BE_DEVICE)
 281:../../tmk_core/protocol/lufa/lufa-abcminiuser/LUFA/Drivers/USB/Core/AVR8/../AVR8/USBInterrupt_AVR8.h **** 					case USB_INT_WAKEUPI:
 282:../../tmk_core/protocol/lufa/lufa-abcminiuser/LUFA/Drivers/USB/Core/AVR8/../AVR8/USBInterrupt_AVR8.h **** 						return (UDIEN  & (1 << WAKEUPE));
 283:../../tmk_core/protocol/lufa/lufa-abcminiuser/LUFA/Drivers/USB/Core/AVR8/../AVR8/USBInterrupt_AVR8.h **** 					case USB_INT_SUSPI:
 284:../../tmk_core/protocol/lufa/lufa-abcminiuser/LUFA/Drivers/USB/Core/AVR8/../AVR8/USBInterrupt_AVR8.h **** 						return (UDIEN  & (1 << SUSPE));
 285:../../tmk_core/protocol/lufa/lufa-abcminiuser/LUFA/Drivers/USB/Core/AVR8/../AVR8/USBInterrupt_AVR8.h **** 					case USB_INT_EORSTI:
 286:../../tmk_core/protocol/lufa/lufa-abcminiuser/LUFA/Drivers/USB/Core/AVR8/../AVR8/USBInterrupt_AVR8.h **** 						return (UDIEN  & (1 << EORSTE));
 287:../../tmk_core/protocol/lufa/lufa-abcminiuser/LUFA/Drivers/USB/Core/AVR8/../AVR8/USBInterrupt_AVR8.h **** 					case USB_INT_SOFI:
 288:../../tmk_core/protocol/lufa/lufa-abcminiuser/LUFA/Drivers/USB/Core/AVR8/../AVR8/USBInterrupt_AVR8.h **** 						return (UDIEN  & (1 << SOFE));
 289:../../tmk_core/protocol/lufa/lufa-abcminiuser/LUFA/Drivers/USB/Core/AVR8/../AVR8/USBInterrupt_AVR8.h **** 					case USB_INT_RXSTPI:
 290:../../tmk_core/protocol/lufa/lufa-abcminiuser/LUFA/Drivers/USB/Core/AVR8/../AVR8/USBInterrupt_AVR8.h **** 						return (UEIENX & (1 << RXSTPE));
 291:../../tmk_core/protocol/lufa/lufa-abcminiuser/LUFA/Drivers/USB/Core/AVR8/../AVR8/USBInterrupt_AVR8.h **** 					#endif
 292:../../tmk_core/protocol/lufa/lufa-abcminiuser/LUFA/Drivers/USB/Core/AVR8/../AVR8/USBInterrupt_AVR8.h **** 					#if defined(USB_CAN_BE_HOST)
 293:../../tmk_core/protocol/lufa/lufa-abcminiuser/LUFA/Drivers/USB/Core/AVR8/../AVR8/USBInterrupt_AVR8.h **** 					case USB_INT_HSOFI:
 294:../../tmk_core/protocol/lufa/lufa-abcminiuser/LUFA/Drivers/USB/Core/AVR8/../AVR8/USBInterrupt_AVR8.h **** 						return (UHIEN  & (1 << HSOFE));
 295:../../tmk_core/protocol/lufa/lufa-abcminiuser/LUFA/Drivers/USB/Core/AVR8/../AVR8/USBInterrupt_AVR8.h **** 					case USB_INT_DCONNI:
 296:../../tmk_core/protocol/lufa/lufa-abcminiuser/LUFA/Drivers/USB/Core/AVR8/../AVR8/USBInterrupt_AVR8.h **** 						return (UHIEN  & (1 << DCONNE));
 297:../../tmk_core/protocol/lufa/lufa-abcminiuser/LUFA/Drivers/USB/Core/AVR8/../AVR8/USBInterrupt_AVR8.h **** 					case USB_INT_DDISCI:
 298:../../tmk_core/protocol/lufa/lufa-abcminiuser/LUFA/Drivers/USB/Core/AVR8/../AVR8/USBInterrupt_AVR8.h **** 						return (UHIEN  & (1 << DDISCE));
 299:../../tmk_core/protocol/lufa/lufa-abcminiuser/LUFA/Drivers/USB/Core/AVR8/../AVR8/USBInterrupt_AVR8.h **** 					case USB_INT_RSTI:
 300:../../tmk_core/protocol/lufa/lufa-abcminiuser/LUFA/Drivers/USB/Core/AVR8/../AVR8/USBInterrupt_AVR8.h **** 						return (UHIEN  & (1 << RSTE));
 301:../../tmk_core/protocol/lufa/lufa-abcminiuser/LUFA/Drivers/USB/Core/AVR8/../AVR8/USBInterrupt_AVR8.h **** 					case USB_INT_BCERRI:
 302:../../tmk_core/protocol/lufa/lufa-abcminiuser/LUFA/Drivers/USB/Core/AVR8/../AVR8/USBInterrupt_AVR8.h **** 						return (OTGIEN & (1 << BCERRE));
 303:../../tmk_core/protocol/lufa/lufa-abcminiuser/LUFA/Drivers/USB/Core/AVR8/../AVR8/USBInterrupt_AVR8.h **** 					case USB_INT_VBERRI:
 304:../../tmk_core/protocol/lufa/lufa-abcminiuser/LUFA/Drivers/USB/Core/AVR8/../AVR8/USBInterrupt_AVR8.h **** 						return (OTGIEN & (1 << VBERRE));
 305:../../tmk_core/protocol/lufa/lufa-abcminiuser/LUFA/Drivers/USB/Core/AVR8/../AVR8/USBInterrupt_AVR8.h **** 					case USB_INT_SRPI:
 306:../../tmk_core/protocol/lufa/lufa-abcminiuser/LUFA/Drivers/USB/Core/AVR8/../AVR8/USBInterrupt_AVR8.h **** 						return (OTGIEN & (1 << SRPE));
 307:../../tmk_core/protocol/lufa/lufa-abcminiuser/LUFA/Drivers/USB/Core/AVR8/../AVR8/USBInterrupt_AVR8.h **** 					#endif
 308:../../tmk_core/protocol/lufa/lufa-abcminiuser/LUFA/Drivers/USB/Core/AVR8/../AVR8/USBInterrupt_AVR8.h **** 					default:
 309:../../tmk_core/protocol/lufa/lufa-abcminiuser/LUFA/Drivers/USB/Core/AVR8/../AVR8/USBInterrupt_AVR8.h **** 						return false;
 310:../../tmk_core/protocol/lufa/lufa-abcminiuser/LUFA/Drivers/USB/Core/AVR8/../AVR8/USBInterrupt_AVR8.h **** 				}
 311:../../tmk_core/protocol/lufa/lufa-abcminiuser/LUFA/Drivers/USB/Core/AVR8/../AVR8/USBInterrupt_AVR8.h **** 			}
 312:../../tmk_core/protocol/lufa/lufa-abcminiuser/LUFA/Drivers/USB/Core/AVR8/../AVR8/USBInterrupt_AVR8.h **** 
 313:../../tmk_core/protocol/lufa/lufa-abcminiuser/LUFA/Drivers/USB/Core/AVR8/../AVR8/USBInterrupt_AVR8.h **** 			static inline bool USB_INT_HasOccurred(const uint8_t Interrupt) ATTR_ALWAYS_INLINE ATTR_WARN_UNU
 314:../../tmk_core/protocol/lufa/lufa-abcminiuser/LUFA/Drivers/USB/Core/AVR8/../AVR8/USBInterrupt_AVR8.h **** 			static inline bool USB_INT_HasOccurred(const uint8_t Interrupt)
 136               		.loc 2 314 23 view .LVU14
 137               	.LBB91:
 315:../../tmk_core/protocol/lufa/lufa-abcminiuser/LUFA/Drivers/USB/Core/AVR8/../AVR8/USBInterrupt_AVR8.h **** 			{
 316:../../tmk_core/protocol/lufa/lufa-abcminiuser/LUFA/Drivers/USB/Core/AVR8/../AVR8/USBInterrupt_AVR8.h **** 				switch (Interrupt)
 138               		.loc 2 316 5 view .LVU15
 317:../../tmk_core/protocol/lufa/lufa-abcminiuser/LUFA/Drivers/USB/Core/AVR8/../AVR8/USBInterrupt_AVR8.h **** 				{
 318:../../tmk_core/protocol/lufa/lufa-abcminiuser/LUFA/Drivers/USB/Core/AVR8/../AVR8/USBInterrupt_AVR8.h **** 					#if (defined(USB_SERIES_4_AVR) || defined(USB_SERIES_6_AVR) || defined(USB_SERIES_7_AVR))
 319:../../tmk_core/protocol/lufa/lufa-abcminiuser/LUFA/Drivers/USB/Core/AVR8/../AVR8/USBInterrupt_AVR8.h **** 					case USB_INT_VBUSTI:
 320:../../tmk_core/protocol/lufa/lufa-abcminiuser/LUFA/Drivers/USB/Core/AVR8/../AVR8/USBInterrupt_AVR8.h **** 						return (USBINT & (1 << VBUSTI));
 321:../../tmk_core/protocol/lufa/lufa-abcminiuser/LUFA/Drivers/USB/Core/AVR8/../AVR8/USBInterrupt_AVR8.h **** 					#endif
 322:../../tmk_core/protocol/lufa/lufa-abcminiuser/LUFA/Drivers/USB/Core/AVR8/../AVR8/USBInterrupt_AVR8.h **** 					#if defined(USB_CAN_BE_BOTH)
 323:../../tmk_core/protocol/lufa/lufa-abcminiuser/LUFA/Drivers/USB/Core/AVR8/../AVR8/USBInterrupt_AVR8.h **** 					case USB_INT_IDTI:
 324:../../tmk_core/protocol/lufa/lufa-abcminiuser/LUFA/Drivers/USB/Core/AVR8/../AVR8/USBInterrupt_AVR8.h **** 						return (USBINT & (1 << IDTI));
 325:../../tmk_core/protocol/lufa/lufa-abcminiuser/LUFA/Drivers/USB/Core/AVR8/../AVR8/USBInterrupt_AVR8.h **** 					#endif
 326:../../tmk_core/protocol/lufa/lufa-abcminiuser/LUFA/Drivers/USB/Core/AVR8/../AVR8/USBInterrupt_AVR8.h **** 					#if defined(USB_CAN_BE_DEVICE)
 327:../../tmk_core/protocol/lufa/lufa-abcminiuser/LUFA/Drivers/USB/Core/AVR8/../AVR8/USBInterrupt_AVR8.h **** 					case USB_INT_WAKEUPI:
 328:../../tmk_core/protocol/lufa/lufa-abcminiuser/LUFA/Drivers/USB/Core/AVR8/../AVR8/USBInterrupt_AVR8.h **** 						return (UDINT  & (1 << WAKEUPI));
 329:../../tmk_core/protocol/lufa/lufa-abcminiuser/LUFA/Drivers/USB/Core/AVR8/../AVR8/USBInterrupt_AVR8.h **** 					case USB_INT_SUSPI:
 330:../../tmk_core/protocol/lufa/lufa-abcminiuser/LUFA/Drivers/USB/Core/AVR8/../AVR8/USBInterrupt_AVR8.h **** 						return (UDINT  & (1 << SUSPI));
 331:../../tmk_core/protocol/lufa/lufa-abcminiuser/LUFA/Drivers/USB/Core/AVR8/../AVR8/USBInterrupt_AVR8.h **** 					case USB_INT_EORSTI:
 332:../../tmk_core/protocol/lufa/lufa-abcminiuser/LUFA/Drivers/USB/Core/AVR8/../AVR8/USBInterrupt_AVR8.h **** 						return (UDINT  & (1 << EORSTI));
 333:../../tmk_core/protocol/lufa/lufa-abcminiuser/LUFA/Drivers/USB/Core/AVR8/../AVR8/USBInterrupt_AVR8.h **** 					case USB_INT_SOFI:
 334:../../tmk_core/protocol/lufa/lufa-abcminiuser/LUFA/Drivers/USB/Core/AVR8/../AVR8/USBInterrupt_AVR8.h **** 						return (UDINT  & (1 << SOFI));
 139               		.loc 2 334 7 view .LVU16
 140               		.loc 2 334 15 is_stmt 0 view .LVU17
 141 0022 8091 E100 		lds r24,225
 142               	.LVL1:
 143               		.loc 2 334 15 view .LVU18
 144               	.LBE91:
 145               	.LBE90:
 146               		.loc 1 81 5 view .LVU19
 147 0026 82FF      		sbrs r24,2
 148 0028 00C0      		rjmp .L4
 149               	.LVL2:
 150               	.LBB92:
 151               	.LBI92:
 268:../../tmk_core/protocol/lufa/lufa-abcminiuser/LUFA/Drivers/USB/Core/AVR8/../AVR8/USBInterrupt_AVR8.h **** 			{
 152               		.loc 2 268 23 is_stmt 1 view .LVU20
 153               	.LBB93:
 270:../../tmk_core/protocol/lufa/lufa-abcminiuser/LUFA/Drivers/USB/Core/AVR8/../AVR8/USBInterrupt_AVR8.h **** 				{
 154               		.loc 2 270 5 view .LVU21
 288:../../tmk_core/protocol/lufa/lufa-abcminiuser/LUFA/Drivers/USB/Core/AVR8/../AVR8/USBInterrupt_AVR8.h **** 					case USB_INT_RXSTPI:
 155               		.loc 2 288 7 view .LVU22
 288:../../tmk_core/protocol/lufa/lufa-abcminiuser/LUFA/Drivers/USB/Core/AVR8/../AVR8/USBInterrupt_AVR8.h **** 					case USB_INT_RXSTPI:
 156               		.loc 2 288 15 is_stmt 0 view .LVU23
 157 002a 8091 E200 		lds r24,226
 158               	.LVL3:
 288:../../tmk_core/protocol/lufa/lufa-abcminiuser/LUFA/Drivers/USB/Core/AVR8/../AVR8/USBInterrupt_AVR8.h **** 					case USB_INT_RXSTPI:
 159               		.loc 2 288 15 view .LVU24
 160               	.LBE93:
 161               	.LBE92:
 162               		.loc 1 81 40 view .LVU25
 163 002e 82FF      		sbrs r24,2
 164 0030 00C0      		rjmp .L4
  82:../../tmk_core/protocol/lufa/lufa-abcminiuser/LUFA/Drivers/USB/Core/AVR8/USBInterrupt_AVR8.c **** 	{
  83:../../tmk_core/protocol/lufa/lufa-abcminiuser/LUFA/Drivers/USB/Core/AVR8/USBInterrupt_AVR8.c **** 		USB_INT_Clear(USB_INT_SOFI);
 165               		.loc 1 83 3 is_stmt 1 view .LVU26
 166               	.LVL4:
 167               	.LBB94:
 168               	.LBI94:
 208:../../tmk_core/protocol/lufa/lufa-abcminiuser/LUFA/Drivers/USB/Core/AVR8/../AVR8/USBInterrupt_AVR8.h **** 			{
 169               		.loc 2 208 23 view .LVU27
 170               	.LBB95:
 210:../../tmk_core/protocol/lufa/lufa-abcminiuser/LUFA/Drivers/USB/Core/AVR8/../AVR8/USBInterrupt_AVR8.h **** 				{
 171               		.loc 2 210 5 view .LVU28
 233:../../tmk_core/protocol/lufa/lufa-abcminiuser/LUFA/Drivers/USB/Core/AVR8/../AVR8/USBInterrupt_AVR8.h **** 						break;
 172               		.loc 2 233 7 view .LVU29
 233:../../tmk_core/protocol/lufa/lufa-abcminiuser/LUFA/Drivers/USB/Core/AVR8/../AVR8/USBInterrupt_AVR8.h **** 						break;
 173               		.loc 2 233 14 is_stmt 0 view .LVU30
 174 0032 8091 E100 		lds r24,225
 175 0036 8B7F      		andi r24,lo8(-5)
 176 0038 8093 E100 		sts 225,r24
 234:../../tmk_core/protocol/lufa/lufa-abcminiuser/LUFA/Drivers/USB/Core/AVR8/../AVR8/USBInterrupt_AVR8.h **** 					case USB_INT_RXSTPI:
 177               		.loc 2 234 7 is_stmt 1 view .LVU31
 178               	.LVL5:
 234:../../tmk_core/protocol/lufa/lufa-abcminiuser/LUFA/Drivers/USB/Core/AVR8/../AVR8/USBInterrupt_AVR8.h **** 					case USB_INT_RXSTPI:
 179               		.loc 2 234 7 is_stmt 0 view .LVU32
 180               	.LBE95:
 181               	.LBE94:
  84:../../tmk_core/protocol/lufa/lufa-abcminiuser/LUFA/Drivers/USB/Core/AVR8/USBInterrupt_AVR8.c **** 
  85:../../tmk_core/protocol/lufa/lufa-abcminiuser/LUFA/Drivers/USB/Core/AVR8/USBInterrupt_AVR8.c **** 		EVENT_USB_Device_StartOfFrame();
 182               		.loc 1 85 3 is_stmt 1 view .LVU33
 183 003c 0E94 0000 		call EVENT_USB_Device_StartOfFrame
 184               	.LVL6:
 185               	.L4:
  86:../../tmk_core/protocol/lufa/lufa-abcminiuser/LUFA/Drivers/USB/Core/AVR8/USBInterrupt_AVR8.c **** 	}
  87:../../tmk_core/protocol/lufa/lufa-abcminiuser/LUFA/Drivers/USB/Core/AVR8/USBInterrupt_AVR8.c **** 	#endif
  88:../../tmk_core/protocol/lufa/lufa-abcminiuser/LUFA/Drivers/USB/Core/AVR8/USBInterrupt_AVR8.c **** 
  89:../../tmk_core/protocol/lufa/lufa-abcminiuser/LUFA/Drivers/USB/Core/AVR8/USBInterrupt_AVR8.c **** 	#if defined(USB_SERIES_4_AVR) || defined(USB_SERIES_6_AVR) || defined(USB_SERIES_7_AVR)
  90:../../tmk_core/protocol/lufa/lufa-abcminiuser/LUFA/Drivers/USB/Core/AVR8/USBInterrupt_AVR8.c **** 	if (USB_INT_HasOccurred(USB_INT_VBUSTI) && USB_INT_IsEnabled(USB_INT_VBUSTI))
 186               		.loc 1 90 2 view .LVU34
 187               	.LBB96:
 188               	.LBI96:
 314:../../tmk_core/protocol/lufa/lufa-abcminiuser/LUFA/Drivers/USB/Core/AVR8/../AVR8/USBInterrupt_AVR8.h **** 			{
 189               		.loc 2 314 23 view .LVU35
 190               	.LBB97:
 316:../../tmk_core/protocol/lufa/lufa-abcminiuser/LUFA/Drivers/USB/Core/AVR8/../AVR8/USBInterrupt_AVR8.h **** 				{
 191               		.loc 2 316 5 view .LVU36
 320:../../tmk_core/protocol/lufa/lufa-abcminiuser/LUFA/Drivers/USB/Core/AVR8/../AVR8/USBInterrupt_AVR8.h **** 					#endif
 192               		.loc 2 320 7 view .LVU37
 320:../../tmk_core/protocol/lufa/lufa-abcminiuser/LUFA/Drivers/USB/Core/AVR8/../AVR8/USBInterrupt_AVR8.h **** 					#endif
 193               		.loc 2 320 15 is_stmt 0 view .LVU38
 194 0040 8091 DA00 		lds r24,218
 195               	.LVL7:
 320:../../tmk_core/protocol/lufa/lufa-abcminiuser/LUFA/Drivers/USB/Core/AVR8/../AVR8/USBInterrupt_AVR8.h **** 					#endif
 196               		.loc 2 320 15 view .LVU39
 197               	.LBE97:
 198               	.LBE96:
 199               		.loc 1 90 5 view .LVU40
 200 0044 80FF      		sbrs r24,0
 201 0046 00C0      		rjmp .L5
 202               	.LVL8:
 203               	.LBB98:
 204               	.LBI98:
 268:../../tmk_core/protocol/lufa/lufa-abcminiuser/LUFA/Drivers/USB/Core/AVR8/../AVR8/USBInterrupt_AVR8.h **** 			{
 205               		.loc 2 268 23 is_stmt 1 view .LVU41
 206               	.LBB99:
 270:../../tmk_core/protocol/lufa/lufa-abcminiuser/LUFA/Drivers/USB/Core/AVR8/../AVR8/USBInterrupt_AVR8.h **** 				{
 207               		.loc 2 270 5 view .LVU42
 274:../../tmk_core/protocol/lufa/lufa-abcminiuser/LUFA/Drivers/USB/Core/AVR8/../AVR8/USBInterrupt_AVR8.h **** 					#endif
 208               		.loc 2 274 7 view .LVU43
 274:../../tmk_core/protocol/lufa/lufa-abcminiuser/LUFA/Drivers/USB/Core/AVR8/../AVR8/USBInterrupt_AVR8.h **** 					#endif
 209               		.loc 2 274 15 is_stmt 0 view .LVU44
 210 0048 8091 D800 		lds r24,216
 211               	.LVL9:
 274:../../tmk_core/protocol/lufa/lufa-abcminiuser/LUFA/Drivers/USB/Core/AVR8/../AVR8/USBInterrupt_AVR8.h **** 					#endif
 212               		.loc 2 274 15 view .LVU45
 213               	.LBE99:
 214               	.LBE98:
 215               		.loc 1 90 42 view .LVU46
 216 004c 80FF      		sbrs r24,0
 217 004e 00C0      		rjmp .L5
  91:../../tmk_core/protocol/lufa/lufa-abcminiuser/LUFA/Drivers/USB/Core/AVR8/USBInterrupt_AVR8.c **** 	{
  92:../../tmk_core/protocol/lufa/lufa-abcminiuser/LUFA/Drivers/USB/Core/AVR8/USBInterrupt_AVR8.c **** 		USB_INT_Clear(USB_INT_VBUSTI);
 218               		.loc 1 92 3 is_stmt 1 view .LVU47
 219               	.LVL10:
 220               	.LBB100:
 221               	.LBI100:
 208:../../tmk_core/protocol/lufa/lufa-abcminiuser/LUFA/Drivers/USB/Core/AVR8/../AVR8/USBInterrupt_AVR8.h **** 			{
 222               		.loc 2 208 23 view .LVU48
 223               	.LBB101:
 210:../../tmk_core/protocol/lufa/lufa-abcminiuser/LUFA/Drivers/USB/Core/AVR8/../AVR8/USBInterrupt_AVR8.h **** 				{
 224               		.loc 2 210 5 view .LVU49
 214:../../tmk_core/protocol/lufa/lufa-abcminiuser/LUFA/Drivers/USB/Core/AVR8/../AVR8/USBInterrupt_AVR8.h **** 						break;
 225               		.loc 2 214 7 view .LVU50
 214:../../tmk_core/protocol/lufa/lufa-abcminiuser/LUFA/Drivers/USB/Core/AVR8/../AVR8/USBInterrupt_AVR8.h **** 						break;
 226               		.loc 2 214 14 is_stmt 0 view .LVU51
 227 0050 8091 DA00 		lds r24,218
 228 0054 8E7F      		andi r24,lo8(-2)
 229 0056 8093 DA00 		sts 218,r24
 215:../../tmk_core/protocol/lufa/lufa-abcminiuser/LUFA/Drivers/USB/Core/AVR8/../AVR8/USBInterrupt_AVR8.h **** 					#endif
 230               		.loc 2 215 7 is_stmt 1 view .LVU52
 231               	.LVL11:
 215:../../tmk_core/protocol/lufa/lufa-abcminiuser/LUFA/Drivers/USB/Core/AVR8/../AVR8/USBInterrupt_AVR8.h **** 					#endif
 232               		.loc 2 215 7 is_stmt 0 view .LVU53
 233               	.LBE101:
 234               	.LBE100:
  93:../../tmk_core/protocol/lufa/lufa-abcminiuser/LUFA/Drivers/USB/Core/AVR8/USBInterrupt_AVR8.c **** 
  94:../../tmk_core/protocol/lufa/lufa-abcminiuser/LUFA/Drivers/USB/Core/AVR8/USBInterrupt_AVR8.c **** 		if (USB_VBUS_GetStatus())
 235               		.loc 1 94 3 is_stmt 1 view .LVU54
 236               	.LBB102:
 237               	.LBI102:
 238               		.file 3 "../../tmk_core/protocol/lufa/lufa-abcminiuser/LUFA/Drivers/USB/Core/AVR8/../AVR8/../AVR8/
   1:../../tmk_core/protocol/lufa/lufa-abcminiuser/LUFA/Drivers/USB/Core/AVR8/../AVR8/../AVR8/USBController_AVR8.h **** /*
   2:../../tmk_core/protocol/lufa/lufa-abcminiuser/LUFA/Drivers/USB/Core/AVR8/../AVR8/../AVR8/USBController_AVR8.h ****              LUFA Library
   3:../../tmk_core/protocol/lufa/lufa-abcminiuser/LUFA/Drivers/USB/Core/AVR8/../AVR8/../AVR8/USBController_AVR8.h ****      Copyright (C) Dean Camera, 2019.
   4:../../tmk_core/protocol/lufa/lufa-abcminiuser/LUFA/Drivers/USB/Core/AVR8/../AVR8/../AVR8/USBController_AVR8.h **** 
   5:../../tmk_core/protocol/lufa/lufa-abcminiuser/LUFA/Drivers/USB/Core/AVR8/../AVR8/../AVR8/USBController_AVR8.h ****   dean [at] fourwalledcubicle [dot] com
   6:../../tmk_core/protocol/lufa/lufa-abcminiuser/LUFA/Drivers/USB/Core/AVR8/../AVR8/../AVR8/USBController_AVR8.h ****            www.lufa-lib.org
   7:../../tmk_core/protocol/lufa/lufa-abcminiuser/LUFA/Drivers/USB/Core/AVR8/../AVR8/../AVR8/USBController_AVR8.h **** */
   8:../../tmk_core/protocol/lufa/lufa-abcminiuser/LUFA/Drivers/USB/Core/AVR8/../AVR8/../AVR8/USBController_AVR8.h **** 
   9:../../tmk_core/protocol/lufa/lufa-abcminiuser/LUFA/Drivers/USB/Core/AVR8/../AVR8/../AVR8/USBController_AVR8.h **** /*
  10:../../tmk_core/protocol/lufa/lufa-abcminiuser/LUFA/Drivers/USB/Core/AVR8/../AVR8/../AVR8/USBController_AVR8.h ****   Copyright 2019  Dean Camera (dean [at] fourwalledcubicle [dot] com)
  11:../../tmk_core/protocol/lufa/lufa-abcminiuser/LUFA/Drivers/USB/Core/AVR8/../AVR8/../AVR8/USBController_AVR8.h **** 
  12:../../tmk_core/protocol/lufa/lufa-abcminiuser/LUFA/Drivers/USB/Core/AVR8/../AVR8/../AVR8/USBController_AVR8.h ****   Permission to use, copy, modify, distribute, and sell this
  13:../../tmk_core/protocol/lufa/lufa-abcminiuser/LUFA/Drivers/USB/Core/AVR8/../AVR8/../AVR8/USBController_AVR8.h ****   software and its documentation for any purpose is hereby granted
  14:../../tmk_core/protocol/lufa/lufa-abcminiuser/LUFA/Drivers/USB/Core/AVR8/../AVR8/../AVR8/USBController_AVR8.h ****   without fee, provided that the above copyright notice appear in
  15:../../tmk_core/protocol/lufa/lufa-abcminiuser/LUFA/Drivers/USB/Core/AVR8/../AVR8/../AVR8/USBController_AVR8.h ****   all copies and that both that the copyright notice and this
  16:../../tmk_core/protocol/lufa/lufa-abcminiuser/LUFA/Drivers/USB/Core/AVR8/../AVR8/../AVR8/USBController_AVR8.h ****   permission notice and warranty disclaimer appear in supporting
  17:../../tmk_core/protocol/lufa/lufa-abcminiuser/LUFA/Drivers/USB/Core/AVR8/../AVR8/../AVR8/USBController_AVR8.h ****   documentation, and that the name of the author not be used in
  18:../../tmk_core/protocol/lufa/lufa-abcminiuser/LUFA/Drivers/USB/Core/AVR8/../AVR8/../AVR8/USBController_AVR8.h ****   advertising or publicity pertaining to distribution of the
  19:../../tmk_core/protocol/lufa/lufa-abcminiuser/LUFA/Drivers/USB/Core/AVR8/../AVR8/../AVR8/USBController_AVR8.h ****   software without specific, written prior permission.
  20:../../tmk_core/protocol/lufa/lufa-abcminiuser/LUFA/Drivers/USB/Core/AVR8/../AVR8/../AVR8/USBController_AVR8.h **** 
  21:../../tmk_core/protocol/lufa/lufa-abcminiuser/LUFA/Drivers/USB/Core/AVR8/../AVR8/../AVR8/USBController_AVR8.h ****   The author disclaims all warranties with regard to this
  22:../../tmk_core/protocol/lufa/lufa-abcminiuser/LUFA/Drivers/USB/Core/AVR8/../AVR8/../AVR8/USBController_AVR8.h ****   software, including all implied warranties of merchantability
  23:../../tmk_core/protocol/lufa/lufa-abcminiuser/LUFA/Drivers/USB/Core/AVR8/../AVR8/../AVR8/USBController_AVR8.h ****   and fitness.  In no event shall the author be liable for any
  24:../../tmk_core/protocol/lufa/lufa-abcminiuser/LUFA/Drivers/USB/Core/AVR8/../AVR8/../AVR8/USBController_AVR8.h ****   special, indirect or consequential damages or any damages
  25:../../tmk_core/protocol/lufa/lufa-abcminiuser/LUFA/Drivers/USB/Core/AVR8/../AVR8/../AVR8/USBController_AVR8.h ****   whatsoever resulting from loss of use, data or profits, whether
  26:../../tmk_core/protocol/lufa/lufa-abcminiuser/LUFA/Drivers/USB/Core/AVR8/../AVR8/../AVR8/USBController_AVR8.h ****   in an action of contract, negligence or other tortious action,
  27:../../tmk_core/protocol/lufa/lufa-abcminiuser/LUFA/Drivers/USB/Core/AVR8/../AVR8/../AVR8/USBController_AVR8.h ****   arising out of or in connection with the use or performance of
  28:../../tmk_core/protocol/lufa/lufa-abcminiuser/LUFA/Drivers/USB/Core/AVR8/../AVR8/../AVR8/USBController_AVR8.h ****   this software.
  29:../../tmk_core/protocol/lufa/lufa-abcminiuser/LUFA/Drivers/USB/Core/AVR8/../AVR8/../AVR8/USBController_AVR8.h **** */
  30:../../tmk_core/protocol/lufa/lufa-abcminiuser/LUFA/Drivers/USB/Core/AVR8/../AVR8/../AVR8/USBController_AVR8.h **** 
  31:../../tmk_core/protocol/lufa/lufa-abcminiuser/LUFA/Drivers/USB/Core/AVR8/../AVR8/../AVR8/USBController_AVR8.h **** /** \file
  32:../../tmk_core/protocol/lufa/lufa-abcminiuser/LUFA/Drivers/USB/Core/AVR8/../AVR8/../AVR8/USBController_AVR8.h ****  *  \brief USB Controller definitions for the AVR8 microcontrollers.
  33:../../tmk_core/protocol/lufa/lufa-abcminiuser/LUFA/Drivers/USB/Core/AVR8/../AVR8/../AVR8/USBController_AVR8.h ****  *  \copydetails Group_USBManagement_AVR8
  34:../../tmk_core/protocol/lufa/lufa-abcminiuser/LUFA/Drivers/USB/Core/AVR8/../AVR8/../AVR8/USBController_AVR8.h ****  *
  35:../../tmk_core/protocol/lufa/lufa-abcminiuser/LUFA/Drivers/USB/Core/AVR8/../AVR8/../AVR8/USBController_AVR8.h ****  *  \note This file should not be included directly. It is automatically included as needed by the 
  36:../../tmk_core/protocol/lufa/lufa-abcminiuser/LUFA/Drivers/USB/Core/AVR8/../AVR8/../AVR8/USBController_AVR8.h ****  *        dispatch header located in LUFA/Drivers/USB/USB.h.
  37:../../tmk_core/protocol/lufa/lufa-abcminiuser/LUFA/Drivers/USB/Core/AVR8/../AVR8/../AVR8/USBController_AVR8.h ****  */
  38:../../tmk_core/protocol/lufa/lufa-abcminiuser/LUFA/Drivers/USB/Core/AVR8/../AVR8/../AVR8/USBController_AVR8.h **** 
  39:../../tmk_core/protocol/lufa/lufa-abcminiuser/LUFA/Drivers/USB/Core/AVR8/../AVR8/../AVR8/USBController_AVR8.h **** /** \ingroup Group_USBManagement
  40:../../tmk_core/protocol/lufa/lufa-abcminiuser/LUFA/Drivers/USB/Core/AVR8/../AVR8/../AVR8/USBController_AVR8.h ****  *  \defgroup Group_USBManagement_AVR8 USB Interface Management (AVR8)
  41:../../tmk_core/protocol/lufa/lufa-abcminiuser/LUFA/Drivers/USB/Core/AVR8/../AVR8/../AVR8/USBController_AVR8.h ****  *  \brief USB Controller definitions for the AVR8 microcontrollers.
  42:../../tmk_core/protocol/lufa/lufa-abcminiuser/LUFA/Drivers/USB/Core/AVR8/../AVR8/../AVR8/USBController_AVR8.h ****  *
  43:../../tmk_core/protocol/lufa/lufa-abcminiuser/LUFA/Drivers/USB/Core/AVR8/../AVR8/../AVR8/USBController_AVR8.h ****  *  Functions, macros, variables, enums and types related to the setup and management of the USB in
  44:../../tmk_core/protocol/lufa/lufa-abcminiuser/LUFA/Drivers/USB/Core/AVR8/../AVR8/../AVR8/USBController_AVR8.h ****  *
  45:../../tmk_core/protocol/lufa/lufa-abcminiuser/LUFA/Drivers/USB/Core/AVR8/../AVR8/../AVR8/USBController_AVR8.h ****  *  @{
  46:../../tmk_core/protocol/lufa/lufa-abcminiuser/LUFA/Drivers/USB/Core/AVR8/../AVR8/../AVR8/USBController_AVR8.h ****  */
  47:../../tmk_core/protocol/lufa/lufa-abcminiuser/LUFA/Drivers/USB/Core/AVR8/../AVR8/../AVR8/USBController_AVR8.h **** 
  48:../../tmk_core/protocol/lufa/lufa-abcminiuser/LUFA/Drivers/USB/Core/AVR8/../AVR8/../AVR8/USBController_AVR8.h **** #ifndef __USBCONTROLLER_AVR8_H__
  49:../../tmk_core/protocol/lufa/lufa-abcminiuser/LUFA/Drivers/USB/Core/AVR8/../AVR8/../AVR8/USBController_AVR8.h **** #define __USBCONTROLLER_AVR8_H__
  50:../../tmk_core/protocol/lufa/lufa-abcminiuser/LUFA/Drivers/USB/Core/AVR8/../AVR8/../AVR8/USBController_AVR8.h **** 
  51:../../tmk_core/protocol/lufa/lufa-abcminiuser/LUFA/Drivers/USB/Core/AVR8/../AVR8/../AVR8/USBController_AVR8.h **** 	/* Includes: */
  52:../../tmk_core/protocol/lufa/lufa-abcminiuser/LUFA/Drivers/USB/Core/AVR8/../AVR8/../AVR8/USBController_AVR8.h **** 		#include "../../../../Common/Common.h"
  53:../../tmk_core/protocol/lufa/lufa-abcminiuser/LUFA/Drivers/USB/Core/AVR8/../AVR8/../AVR8/USBController_AVR8.h **** 		#include "../USBMode.h"
  54:../../tmk_core/protocol/lufa/lufa-abcminiuser/LUFA/Drivers/USB/Core/AVR8/../AVR8/../AVR8/USBController_AVR8.h **** 		#include "../Events.h"
  55:../../tmk_core/protocol/lufa/lufa-abcminiuser/LUFA/Drivers/USB/Core/AVR8/../AVR8/../AVR8/USBController_AVR8.h **** 		#include "../USBTask.h"
  56:../../tmk_core/protocol/lufa/lufa-abcminiuser/LUFA/Drivers/USB/Core/AVR8/../AVR8/../AVR8/USBController_AVR8.h **** 		#include "../USBInterrupt.h"
  57:../../tmk_core/protocol/lufa/lufa-abcminiuser/LUFA/Drivers/USB/Core/AVR8/../AVR8/../AVR8/USBController_AVR8.h **** 
  58:../../tmk_core/protocol/lufa/lufa-abcminiuser/LUFA/Drivers/USB/Core/AVR8/../AVR8/../AVR8/USBController_AVR8.h **** 		#if defined(USB_CAN_BE_HOST) || defined(__DOXYGEN__)
  59:../../tmk_core/protocol/lufa/lufa-abcminiuser/LUFA/Drivers/USB/Core/AVR8/../AVR8/../AVR8/USBController_AVR8.h **** 			#include "../Host.h"
  60:../../tmk_core/protocol/lufa/lufa-abcminiuser/LUFA/Drivers/USB/Core/AVR8/../AVR8/../AVR8/USBController_AVR8.h **** 			#include "../OTG.h"
  61:../../tmk_core/protocol/lufa/lufa-abcminiuser/LUFA/Drivers/USB/Core/AVR8/../AVR8/../AVR8/USBController_AVR8.h **** 			#include "../Pipe.h"
  62:../../tmk_core/protocol/lufa/lufa-abcminiuser/LUFA/Drivers/USB/Core/AVR8/../AVR8/../AVR8/USBController_AVR8.h **** 			#include "../HostStandardReq.h"
  63:../../tmk_core/protocol/lufa/lufa-abcminiuser/LUFA/Drivers/USB/Core/AVR8/../AVR8/../AVR8/USBController_AVR8.h **** 			#include "../PipeStream.h"
  64:../../tmk_core/protocol/lufa/lufa-abcminiuser/LUFA/Drivers/USB/Core/AVR8/../AVR8/../AVR8/USBController_AVR8.h **** 		#endif
  65:../../tmk_core/protocol/lufa/lufa-abcminiuser/LUFA/Drivers/USB/Core/AVR8/../AVR8/../AVR8/USBController_AVR8.h **** 
  66:../../tmk_core/protocol/lufa/lufa-abcminiuser/LUFA/Drivers/USB/Core/AVR8/../AVR8/../AVR8/USBController_AVR8.h **** 		#if defined(USB_CAN_BE_DEVICE) || defined(__DOXYGEN__)
  67:../../tmk_core/protocol/lufa/lufa-abcminiuser/LUFA/Drivers/USB/Core/AVR8/../AVR8/../AVR8/USBController_AVR8.h **** 			#include "../Device.h"
  68:../../tmk_core/protocol/lufa/lufa-abcminiuser/LUFA/Drivers/USB/Core/AVR8/../AVR8/../AVR8/USBController_AVR8.h **** 			#include "../Endpoint.h"
  69:../../tmk_core/protocol/lufa/lufa-abcminiuser/LUFA/Drivers/USB/Core/AVR8/../AVR8/../AVR8/USBController_AVR8.h **** 			#include "../DeviceStandardReq.h"
  70:../../tmk_core/protocol/lufa/lufa-abcminiuser/LUFA/Drivers/USB/Core/AVR8/../AVR8/../AVR8/USBController_AVR8.h **** 			#include "../EndpointStream.h"
  71:../../tmk_core/protocol/lufa/lufa-abcminiuser/LUFA/Drivers/USB/Core/AVR8/../AVR8/../AVR8/USBController_AVR8.h **** 		#endif
  72:../../tmk_core/protocol/lufa/lufa-abcminiuser/LUFA/Drivers/USB/Core/AVR8/../AVR8/../AVR8/USBController_AVR8.h **** 
  73:../../tmk_core/protocol/lufa/lufa-abcminiuser/LUFA/Drivers/USB/Core/AVR8/../AVR8/../AVR8/USBController_AVR8.h **** 	/* Enable C linkage for C++ Compilers: */
  74:../../tmk_core/protocol/lufa/lufa-abcminiuser/LUFA/Drivers/USB/Core/AVR8/../AVR8/../AVR8/USBController_AVR8.h **** 		#if defined(__cplusplus)
  75:../../tmk_core/protocol/lufa/lufa-abcminiuser/LUFA/Drivers/USB/Core/AVR8/../AVR8/../AVR8/USBController_AVR8.h **** 			extern "C" {
  76:../../tmk_core/protocol/lufa/lufa-abcminiuser/LUFA/Drivers/USB/Core/AVR8/../AVR8/../AVR8/USBController_AVR8.h **** 		#endif
  77:../../tmk_core/protocol/lufa/lufa-abcminiuser/LUFA/Drivers/USB/Core/AVR8/../AVR8/../AVR8/USBController_AVR8.h **** 
  78:../../tmk_core/protocol/lufa/lufa-abcminiuser/LUFA/Drivers/USB/Core/AVR8/../AVR8/../AVR8/USBController_AVR8.h **** 	/* Preprocessor Checks and Defines: */
  79:../../tmk_core/protocol/lufa/lufa-abcminiuser/LUFA/Drivers/USB/Core/AVR8/../AVR8/../AVR8/USBController_AVR8.h **** 		#if !defined(__INCLUDE_FROM_USB_DRIVER)
  80:../../tmk_core/protocol/lufa/lufa-abcminiuser/LUFA/Drivers/USB/Core/AVR8/../AVR8/../AVR8/USBController_AVR8.h **** 			#error Do not include this file directly. Include LUFA/Drivers/USB/USB.h instead.
  81:../../tmk_core/protocol/lufa/lufa-abcminiuser/LUFA/Drivers/USB/Core/AVR8/../AVR8/../AVR8/USBController_AVR8.h **** 		#endif
  82:../../tmk_core/protocol/lufa/lufa-abcminiuser/LUFA/Drivers/USB/Core/AVR8/../AVR8/../AVR8/USBController_AVR8.h **** 
  83:../../tmk_core/protocol/lufa/lufa-abcminiuser/LUFA/Drivers/USB/Core/AVR8/../AVR8/../AVR8/USBController_AVR8.h **** 		#if !defined(F_USB)
  84:../../tmk_core/protocol/lufa/lufa-abcminiuser/LUFA/Drivers/USB/Core/AVR8/../AVR8/../AVR8/USBController_AVR8.h **** 			#error F_USB is not defined. You must define F_USB to the frequency of the unprescaled USB contr
  85:../../tmk_core/protocol/lufa/lufa-abcminiuser/LUFA/Drivers/USB/Core/AVR8/../AVR8/../AVR8/USBController_AVR8.h **** 		#endif
  86:../../tmk_core/protocol/lufa/lufa-abcminiuser/LUFA/Drivers/USB/Core/AVR8/../AVR8/../AVR8/USBController_AVR8.h **** 
  87:../../tmk_core/protocol/lufa/lufa-abcminiuser/LUFA/Drivers/USB/Core/AVR8/../AVR8/../AVR8/USBController_AVR8.h **** 		#if (F_USB == 8000000)
  88:../../tmk_core/protocol/lufa/lufa-abcminiuser/LUFA/Drivers/USB/Core/AVR8/../AVR8/../AVR8/USBController_AVR8.h **** 			#if (defined(__AVR_AT90USB82__) || defined(__AVR_AT90USB162__) || \
  89:../../tmk_core/protocol/lufa/lufa-abcminiuser/LUFA/Drivers/USB/Core/AVR8/../AVR8/../AVR8/USBController_AVR8.h **** 			     defined(__AVR_ATmega8U2__) || defined(__AVR_ATmega16U2__) || \
  90:../../tmk_core/protocol/lufa/lufa-abcminiuser/LUFA/Drivers/USB/Core/AVR8/../AVR8/../AVR8/USBController_AVR8.h **** 			     defined(__AVR_ATmega32U2__))
  91:../../tmk_core/protocol/lufa/lufa-abcminiuser/LUFA/Drivers/USB/Core/AVR8/../AVR8/../AVR8/USBController_AVR8.h **** 				#define USB_PLL_PSC                0
  92:../../tmk_core/protocol/lufa/lufa-abcminiuser/LUFA/Drivers/USB/Core/AVR8/../AVR8/../AVR8/USBController_AVR8.h **** 			#elif (defined(__AVR_ATmega16U4__) || defined(__AVR_ATmega32U4__))
  93:../../tmk_core/protocol/lufa/lufa-abcminiuser/LUFA/Drivers/USB/Core/AVR8/../AVR8/../AVR8/USBController_AVR8.h **** 				#define USB_PLL_PSC                0
  94:../../tmk_core/protocol/lufa/lufa-abcminiuser/LUFA/Drivers/USB/Core/AVR8/../AVR8/../AVR8/USBController_AVR8.h **** 			#elif (defined(__AVR_AT90USB646__)  || defined(__AVR_AT90USB1286__))
  95:../../tmk_core/protocol/lufa/lufa-abcminiuser/LUFA/Drivers/USB/Core/AVR8/../AVR8/../AVR8/USBController_AVR8.h **** 				#define USB_PLL_PSC                ((1 << PLLP1) | (1 << PLLP0))
  96:../../tmk_core/protocol/lufa/lufa-abcminiuser/LUFA/Drivers/USB/Core/AVR8/../AVR8/../AVR8/USBController_AVR8.h **** 			#elif (defined(__AVR_AT90USB647__)  || defined(__AVR_AT90USB1287__))
  97:../../tmk_core/protocol/lufa/lufa-abcminiuser/LUFA/Drivers/USB/Core/AVR8/../AVR8/../AVR8/USBController_AVR8.h **** 				#define USB_PLL_PSC                ((1 << PLLP1) | (1 << PLLP0))
  98:../../tmk_core/protocol/lufa/lufa-abcminiuser/LUFA/Drivers/USB/Core/AVR8/../AVR8/../AVR8/USBController_AVR8.h **** 			#endif
  99:../../tmk_core/protocol/lufa/lufa-abcminiuser/LUFA/Drivers/USB/Core/AVR8/../AVR8/../AVR8/USBController_AVR8.h **** 		#elif (F_USB == 16000000)
 100:../../tmk_core/protocol/lufa/lufa-abcminiuser/LUFA/Drivers/USB/Core/AVR8/../AVR8/../AVR8/USBController_AVR8.h **** 			#if (defined(__AVR_AT90USB82__) || defined(__AVR_AT90USB162__) || \
 101:../../tmk_core/protocol/lufa/lufa-abcminiuser/LUFA/Drivers/USB/Core/AVR8/../AVR8/../AVR8/USBController_AVR8.h **** 			     defined(__AVR_ATmega8U2__) || defined(__AVR_ATmega16U2__) || \
 102:../../tmk_core/protocol/lufa/lufa-abcminiuser/LUFA/Drivers/USB/Core/AVR8/../AVR8/../AVR8/USBController_AVR8.h **** 			     defined(__AVR_ATmega32U2__))
 103:../../tmk_core/protocol/lufa/lufa-abcminiuser/LUFA/Drivers/USB/Core/AVR8/../AVR8/../AVR8/USBController_AVR8.h **** 				#define USB_PLL_PSC                (1 << PLLP0)
 104:../../tmk_core/protocol/lufa/lufa-abcminiuser/LUFA/Drivers/USB/Core/AVR8/../AVR8/../AVR8/USBController_AVR8.h **** 			#elif (defined(__AVR_ATmega16U4__) || defined(__AVR_ATmega32U4__))
 105:../../tmk_core/protocol/lufa/lufa-abcminiuser/LUFA/Drivers/USB/Core/AVR8/../AVR8/../AVR8/USBController_AVR8.h **** 				#define USB_PLL_PSC                (1 << PINDIV)
 106:../../tmk_core/protocol/lufa/lufa-abcminiuser/LUFA/Drivers/USB/Core/AVR8/../AVR8/../AVR8/USBController_AVR8.h **** 			#elif (defined(__AVR_AT90USB646__) || defined(__AVR_AT90USB647__))
 107:../../tmk_core/protocol/lufa/lufa-abcminiuser/LUFA/Drivers/USB/Core/AVR8/../AVR8/../AVR8/USBController_AVR8.h **** 				#define USB_PLL_PSC                ((1 << PLLP2) | (1 << PLLP1))
 108:../../tmk_core/protocol/lufa/lufa-abcminiuser/LUFA/Drivers/USB/Core/AVR8/../AVR8/../AVR8/USBController_AVR8.h **** 			#elif (defined(__AVR_AT90USB1286__) || defined(__AVR_AT90USB1287__))
 109:../../tmk_core/protocol/lufa/lufa-abcminiuser/LUFA/Drivers/USB/Core/AVR8/../AVR8/../AVR8/USBController_AVR8.h **** 				#define USB_PLL_PSC                ((1 << PLLP2) | (1 << PLLP0))
 110:../../tmk_core/protocol/lufa/lufa-abcminiuser/LUFA/Drivers/USB/Core/AVR8/../AVR8/../AVR8/USBController_AVR8.h **** 			#endif
 111:../../tmk_core/protocol/lufa/lufa-abcminiuser/LUFA/Drivers/USB/Core/AVR8/../AVR8/../AVR8/USBController_AVR8.h **** 		#endif
 112:../../tmk_core/protocol/lufa/lufa-abcminiuser/LUFA/Drivers/USB/Core/AVR8/../AVR8/../AVR8/USBController_AVR8.h **** 
 113:../../tmk_core/protocol/lufa/lufa-abcminiuser/LUFA/Drivers/USB/Core/AVR8/../AVR8/../AVR8/USBController_AVR8.h **** 		#if !defined(USB_PLL_PSC)
 114:../../tmk_core/protocol/lufa/lufa-abcminiuser/LUFA/Drivers/USB/Core/AVR8/../AVR8/../AVR8/USBController_AVR8.h **** 			#error No PLL prescale value available for chosen F_USB value and AVR model.
 115:../../tmk_core/protocol/lufa/lufa-abcminiuser/LUFA/Drivers/USB/Core/AVR8/../AVR8/../AVR8/USBController_AVR8.h **** 		#endif
 116:../../tmk_core/protocol/lufa/lufa-abcminiuser/LUFA/Drivers/USB/Core/AVR8/../AVR8/../AVR8/USBController_AVR8.h **** 
 117:../../tmk_core/protocol/lufa/lufa-abcminiuser/LUFA/Drivers/USB/Core/AVR8/../AVR8/../AVR8/USBController_AVR8.h **** 	/* Public Interface - May be used in end-application: */
 118:../../tmk_core/protocol/lufa/lufa-abcminiuser/LUFA/Drivers/USB/Core/AVR8/../AVR8/../AVR8/USBController_AVR8.h **** 		/* Macros: */
 119:../../tmk_core/protocol/lufa/lufa-abcminiuser/LUFA/Drivers/USB/Core/AVR8/../AVR8/../AVR8/USBController_AVR8.h **** 			/** \name USB Controller Option Masks */
 120:../../tmk_core/protocol/lufa/lufa-abcminiuser/LUFA/Drivers/USB/Core/AVR8/../AVR8/../AVR8/USBController_AVR8.h **** 			/**@{*/
 121:../../tmk_core/protocol/lufa/lufa-abcminiuser/LUFA/Drivers/USB/Core/AVR8/../AVR8/../AVR8/USBController_AVR8.h **** 			/** Regulator disable option mask for \ref USB_Init(). This indicates that the internal 3.3V USB
 122:../../tmk_core/protocol/lufa/lufa-abcminiuser/LUFA/Drivers/USB/Core/AVR8/../AVR8/../AVR8/USBController_AVR8.h **** 			 *  regulator should be disabled and the AVR's VCC level used for the data pads.
 123:../../tmk_core/protocol/lufa/lufa-abcminiuser/LUFA/Drivers/USB/Core/AVR8/../AVR8/../AVR8/USBController_AVR8.h **** 			 *
 124:../../tmk_core/protocol/lufa/lufa-abcminiuser/LUFA/Drivers/USB/Core/AVR8/../AVR8/../AVR8/USBController_AVR8.h **** 			 *  \note See USB AVR data sheet for more information on the internal pad regulator.
 125:../../tmk_core/protocol/lufa/lufa-abcminiuser/LUFA/Drivers/USB/Core/AVR8/../AVR8/../AVR8/USBController_AVR8.h **** 			 */
 126:../../tmk_core/protocol/lufa/lufa-abcminiuser/LUFA/Drivers/USB/Core/AVR8/../AVR8/../AVR8/USBController_AVR8.h **** 			#define USB_OPT_REG_DISABLED               (1 << 1)
 127:../../tmk_core/protocol/lufa/lufa-abcminiuser/LUFA/Drivers/USB/Core/AVR8/../AVR8/../AVR8/USBController_AVR8.h **** 
 128:../../tmk_core/protocol/lufa/lufa-abcminiuser/LUFA/Drivers/USB/Core/AVR8/../AVR8/../AVR8/USBController_AVR8.h **** 			/** Regulator enable option mask for \ref USB_Init(). This indicates that the internal 3.3V USB 
 129:../../tmk_core/protocol/lufa/lufa-abcminiuser/LUFA/Drivers/USB/Core/AVR8/../AVR8/../AVR8/USBController_AVR8.h **** 			 *  regulator should be enabled to regulate the data pin voltages from the VBUS level down to a 
 130:../../tmk_core/protocol/lufa/lufa-abcminiuser/LUFA/Drivers/USB/Core/AVR8/../AVR8/../AVR8/USBController_AVR8.h **** 			 *  the range allowable by the USB standard.
 131:../../tmk_core/protocol/lufa/lufa-abcminiuser/LUFA/Drivers/USB/Core/AVR8/../AVR8/../AVR8/USBController_AVR8.h **** 			 *
 132:../../tmk_core/protocol/lufa/lufa-abcminiuser/LUFA/Drivers/USB/Core/AVR8/../AVR8/../AVR8/USBController_AVR8.h **** 			 *  \note See USB AVR data sheet for more information on the internal pad regulator.
 133:../../tmk_core/protocol/lufa/lufa-abcminiuser/LUFA/Drivers/USB/Core/AVR8/../AVR8/../AVR8/USBController_AVR8.h **** 			 */
 134:../../tmk_core/protocol/lufa/lufa-abcminiuser/LUFA/Drivers/USB/Core/AVR8/../AVR8/../AVR8/USBController_AVR8.h **** 			#define USB_OPT_REG_ENABLED                (0 << 1)
 135:../../tmk_core/protocol/lufa/lufa-abcminiuser/LUFA/Drivers/USB/Core/AVR8/../AVR8/../AVR8/USBController_AVR8.h **** 
 136:../../tmk_core/protocol/lufa/lufa-abcminiuser/LUFA/Drivers/USB/Core/AVR8/../AVR8/../AVR8/USBController_AVR8.h **** 			/** Option mask for \ref USB_Init() to keep regulator enabled at all times. Indicates that \ref 
 137:../../tmk_core/protocol/lufa/lufa-abcminiuser/LUFA/Drivers/USB/Core/AVR8/../AVR8/../AVR8/USBController_AVR8.h **** 			 *  should not disable the regulator as it would otherwise. Has no effect if regulator is disabl
 138:../../tmk_core/protocol/lufa/lufa-abcminiuser/LUFA/Drivers/USB/Core/AVR8/../AVR8/../AVR8/USBController_AVR8.h **** 			 *  \ref USB_OPT_REG_DISABLED.
 139:../../tmk_core/protocol/lufa/lufa-abcminiuser/LUFA/Drivers/USB/Core/AVR8/../AVR8/../AVR8/USBController_AVR8.h **** 			 *
 140:../../tmk_core/protocol/lufa/lufa-abcminiuser/LUFA/Drivers/USB/Core/AVR8/../AVR8/../AVR8/USBController_AVR8.h **** 			 *  \note See USB AVR data sheet for more information on the internal pad regulator.
 141:../../tmk_core/protocol/lufa/lufa-abcminiuser/LUFA/Drivers/USB/Core/AVR8/../AVR8/../AVR8/USBController_AVR8.h **** 			 */
 142:../../tmk_core/protocol/lufa/lufa-abcminiuser/LUFA/Drivers/USB/Core/AVR8/../AVR8/../AVR8/USBController_AVR8.h **** 			#define USB_OPT_REG_KEEP_ENABLED           (1 << 3)
 143:../../tmk_core/protocol/lufa/lufa-abcminiuser/LUFA/Drivers/USB/Core/AVR8/../AVR8/../AVR8/USBController_AVR8.h **** 
 144:../../tmk_core/protocol/lufa/lufa-abcminiuser/LUFA/Drivers/USB/Core/AVR8/../AVR8/../AVR8/USBController_AVR8.h **** 			/** Manual PLL control option mask for \ref USB_Init(). This indicates to the library that the u
 145:../../tmk_core/protocol/lufa/lufa-abcminiuser/LUFA/Drivers/USB/Core/AVR8/../AVR8/../AVR8/USBController_AVR8.h **** 			 *  will take full responsibility for controlling the AVR's PLL (used to generate the high frequ
 146:../../tmk_core/protocol/lufa/lufa-abcminiuser/LUFA/Drivers/USB/Core/AVR8/../AVR8/../AVR8/USBController_AVR8.h **** 			 *  that the USB controller requires) and ensuring that it is locked at the correct frequency fo
 147:../../tmk_core/protocol/lufa/lufa-abcminiuser/LUFA/Drivers/USB/Core/AVR8/../AVR8/../AVR8/USBController_AVR8.h **** 			 */
 148:../../tmk_core/protocol/lufa/lufa-abcminiuser/LUFA/Drivers/USB/Core/AVR8/../AVR8/../AVR8/USBController_AVR8.h **** 			#define USB_OPT_MANUAL_PLL                 (1 << 2)
 149:../../tmk_core/protocol/lufa/lufa-abcminiuser/LUFA/Drivers/USB/Core/AVR8/../AVR8/../AVR8/USBController_AVR8.h **** 
 150:../../tmk_core/protocol/lufa/lufa-abcminiuser/LUFA/Drivers/USB/Core/AVR8/../AVR8/../AVR8/USBController_AVR8.h **** 			/** Automatic PLL control option mask for \ref USB_Init(). This indicates to the library that th
 151:../../tmk_core/protocol/lufa/lufa-abcminiuser/LUFA/Drivers/USB/Core/AVR8/../AVR8/../AVR8/USBController_AVR8.h **** 			 *  take full responsibility for controlling the AVR's PLL (used to generate the high frequency 
 152:../../tmk_core/protocol/lufa/lufa-abcminiuser/LUFA/Drivers/USB/Core/AVR8/../AVR8/../AVR8/USBController_AVR8.h **** 			 *  that the USB controller requires) and ensuring that it is locked at the correct frequency fo
 153:../../tmk_core/protocol/lufa/lufa-abcminiuser/LUFA/Drivers/USB/Core/AVR8/../AVR8/../AVR8/USBController_AVR8.h **** 			 */
 154:../../tmk_core/protocol/lufa/lufa-abcminiuser/LUFA/Drivers/USB/Core/AVR8/../AVR8/../AVR8/USBController_AVR8.h **** 			#define USB_OPT_AUTO_PLL                   (0 << 2)
 155:../../tmk_core/protocol/lufa/lufa-abcminiuser/LUFA/Drivers/USB/Core/AVR8/../AVR8/../AVR8/USBController_AVR8.h **** 			/**@}*/
 156:../../tmk_core/protocol/lufa/lufa-abcminiuser/LUFA/Drivers/USB/Core/AVR8/../AVR8/../AVR8/USBController_AVR8.h **** 
 157:../../tmk_core/protocol/lufa/lufa-abcminiuser/LUFA/Drivers/USB/Core/AVR8/../AVR8/../AVR8/USBController_AVR8.h **** 			#if !defined(USB_STREAM_TIMEOUT_MS) || defined(__DOXYGEN__)
 158:../../tmk_core/protocol/lufa/lufa-abcminiuser/LUFA/Drivers/USB/Core/AVR8/../AVR8/../AVR8/USBController_AVR8.h **** 				/** Constant for the maximum software timeout period of the USB data stream transfer functions
 159:../../tmk_core/protocol/lufa/lufa-abcminiuser/LUFA/Drivers/USB/Core/AVR8/../AVR8/../AVR8/USBController_AVR8.h **** 				 *  (both control and standard) when in either device or host mode. If the next packet of a str
 160:../../tmk_core/protocol/lufa/lufa-abcminiuser/LUFA/Drivers/USB/Core/AVR8/../AVR8/../AVR8/USBController_AVR8.h **** 				 *  is not received or acknowledged within this time period, the stream function will fail.
 161:../../tmk_core/protocol/lufa/lufa-abcminiuser/LUFA/Drivers/USB/Core/AVR8/../AVR8/../AVR8/USBController_AVR8.h **** 				 *
 162:../../tmk_core/protocol/lufa/lufa-abcminiuser/LUFA/Drivers/USB/Core/AVR8/../AVR8/../AVR8/USBController_AVR8.h **** 				 *  This value may be overridden in the user project makefile as the value of the
 163:../../tmk_core/protocol/lufa/lufa-abcminiuser/LUFA/Drivers/USB/Core/AVR8/../AVR8/../AVR8/USBController_AVR8.h **** 				 *  \ref USB_STREAM_TIMEOUT_MS token, and passed to the compiler using the -D switch.
 164:../../tmk_core/protocol/lufa/lufa-abcminiuser/LUFA/Drivers/USB/Core/AVR8/../AVR8/../AVR8/USBController_AVR8.h **** 				 */
 165:../../tmk_core/protocol/lufa/lufa-abcminiuser/LUFA/Drivers/USB/Core/AVR8/../AVR8/../AVR8/USBController_AVR8.h **** 				#define USB_STREAM_TIMEOUT_MS       100
 166:../../tmk_core/protocol/lufa/lufa-abcminiuser/LUFA/Drivers/USB/Core/AVR8/../AVR8/../AVR8/USBController_AVR8.h **** 			#endif
 167:../../tmk_core/protocol/lufa/lufa-abcminiuser/LUFA/Drivers/USB/Core/AVR8/../AVR8/../AVR8/USBController_AVR8.h **** 
 168:../../tmk_core/protocol/lufa/lufa-abcminiuser/LUFA/Drivers/USB/Core/AVR8/../AVR8/../AVR8/USBController_AVR8.h **** 		/* Inline Functions: */
 169:../../tmk_core/protocol/lufa/lufa-abcminiuser/LUFA/Drivers/USB/Core/AVR8/../AVR8/../AVR8/USBController_AVR8.h **** 			#if defined(USB_SERIES_4_AVR) || defined(USB_SERIES_6_AVR) || defined(USB_SERIES_7_AVR) || defin
 170:../../tmk_core/protocol/lufa/lufa-abcminiuser/LUFA/Drivers/USB/Core/AVR8/../AVR8/../AVR8/USBController_AVR8.h **** 				/** Determines if the VBUS line is currently high (i.e. the USB host is supplying power).
 171:../../tmk_core/protocol/lufa/lufa-abcminiuser/LUFA/Drivers/USB/Core/AVR8/../AVR8/../AVR8/USBController_AVR8.h **** 				 *
 172:../../tmk_core/protocol/lufa/lufa-abcminiuser/LUFA/Drivers/USB/Core/AVR8/../AVR8/../AVR8/USBController_AVR8.h **** 				 *  \note This function is not available on some AVR models which do not support hardware VBUS 
 173:../../tmk_core/protocol/lufa/lufa-abcminiuser/LUFA/Drivers/USB/Core/AVR8/../AVR8/../AVR8/USBController_AVR8.h **** 				 *
 174:../../tmk_core/protocol/lufa/lufa-abcminiuser/LUFA/Drivers/USB/Core/AVR8/../AVR8/../AVR8/USBController_AVR8.h **** 				 *  \return Boolean \c true if the VBUS line is currently detecting power from a host, \c false
 175:../../tmk_core/protocol/lufa/lufa-abcminiuser/LUFA/Drivers/USB/Core/AVR8/../AVR8/../AVR8/USBController_AVR8.h **** 				 */
 176:../../tmk_core/protocol/lufa/lufa-abcminiuser/LUFA/Drivers/USB/Core/AVR8/../AVR8/../AVR8/USBController_AVR8.h **** 				static inline bool USB_VBUS_GetStatus(void) ATTR_WARN_UNUSED_RESULT ATTR_ALWAYS_INLINE;
 177:../../tmk_core/protocol/lufa/lufa-abcminiuser/LUFA/Drivers/USB/Core/AVR8/../AVR8/../AVR8/USBController_AVR8.h **** 				static inline bool USB_VBUS_GetStatus(void)
 239               		.loc 3 177 24 view .LVU55
 240               	.LBB103:
 178:../../tmk_core/protocol/lufa/lufa-abcminiuser/LUFA/Drivers/USB/Core/AVR8/../AVR8/../AVR8/USBController_AVR8.h **** 				{
 179:../../tmk_core/protocol/lufa/lufa-abcminiuser/LUFA/Drivers/USB/Core/AVR8/../AVR8/../AVR8/USBController_AVR8.h **** 					return ((USBSTA & (1 << VBUS)) ? true : false);
 241               		.loc 3 179 6 view .LVU56
 242               		.loc 3 179 15 is_stmt 0 view .LVU57
 243 005a 8091 D900 		lds r24,217
 244               	.LBE103:
 245               	.LBE102:
 246               		.loc 1 94 6 view .LVU58
 247 005e 80FF      		sbrs r24,0
 248 0060 00C0      		rjmp .L6
  95:../../tmk_core/protocol/lufa/lufa-abcminiuser/LUFA/Drivers/USB/Core/AVR8/USBInterrupt_AVR8.c **** 		{
  96:../../tmk_core/protocol/lufa/lufa-abcminiuser/LUFA/Drivers/USB/Core/AVR8/USBInterrupt_AVR8.c **** 			if (!(USB_Options & USB_OPT_MANUAL_PLL))
 249               		.loc 1 96 4 is_stmt 1 view .LVU59
  97:../../tmk_core/protocol/lufa/lufa-abcminiuser/LUFA/Drivers/USB/Core/AVR8/USBInterrupt_AVR8.c **** 			{
  98:../../tmk_core/protocol/lufa/lufa-abcminiuser/LUFA/Drivers/USB/Core/AVR8/USBInterrupt_AVR8.c **** 				USB_PLL_On();
 250               		.loc 1 98 5 view .LVU60
 251               	.LBB104:
 252               	.LBI104:
 180:../../tmk_core/protocol/lufa/lufa-abcminiuser/LUFA/Drivers/USB/Core/AVR8/../AVR8/../AVR8/USBController_AVR8.h **** 				}
 181:../../tmk_core/protocol/lufa/lufa-abcminiuser/LUFA/Drivers/USB/Core/AVR8/../AVR8/../AVR8/USBController_AVR8.h **** 			#endif
 182:../../tmk_core/protocol/lufa/lufa-abcminiuser/LUFA/Drivers/USB/Core/AVR8/../AVR8/../AVR8/USBController_AVR8.h **** 
 183:../../tmk_core/protocol/lufa/lufa-abcminiuser/LUFA/Drivers/USB/Core/AVR8/../AVR8/../AVR8/USBController_AVR8.h **** 			/** Detaches the device from the USB bus. This has the effect of removing the device from any
 184:../../tmk_core/protocol/lufa/lufa-abcminiuser/LUFA/Drivers/USB/Core/AVR8/../AVR8/../AVR8/USBController_AVR8.h **** 			 *  attached host, ceasing USB communications. If no host is present, this prevents any host fro
 185:../../tmk_core/protocol/lufa/lufa-abcminiuser/LUFA/Drivers/USB/Core/AVR8/../AVR8/../AVR8/USBController_AVR8.h **** 			 *  enumerating the device once attached until \ref USB_Attach() is called.
 186:../../tmk_core/protocol/lufa/lufa-abcminiuser/LUFA/Drivers/USB/Core/AVR8/../AVR8/../AVR8/USBController_AVR8.h **** 			 */
 187:../../tmk_core/protocol/lufa/lufa-abcminiuser/LUFA/Drivers/USB/Core/AVR8/../AVR8/../AVR8/USBController_AVR8.h **** 			static inline void USB_Detach(void) ATTR_ALWAYS_INLINE;
 188:../../tmk_core/protocol/lufa/lufa-abcminiuser/LUFA/Drivers/USB/Core/AVR8/../AVR8/../AVR8/USBController_AVR8.h **** 			static inline void USB_Detach(void)
 189:../../tmk_core/protocol/lufa/lufa-abcminiuser/LUFA/Drivers/USB/Core/AVR8/../AVR8/../AVR8/USBController_AVR8.h **** 			{
 190:../../tmk_core/protocol/lufa/lufa-abcminiuser/LUFA/Drivers/USB/Core/AVR8/../AVR8/../AVR8/USBController_AVR8.h **** 				UDCON  |=  (1 << DETACH);
 191:../../tmk_core/protocol/lufa/lufa-abcminiuser/LUFA/Drivers/USB/Core/AVR8/../AVR8/../AVR8/USBController_AVR8.h **** 			}
 192:../../tmk_core/protocol/lufa/lufa-abcminiuser/LUFA/Drivers/USB/Core/AVR8/../AVR8/../AVR8/USBController_AVR8.h **** 
 193:../../tmk_core/protocol/lufa/lufa-abcminiuser/LUFA/Drivers/USB/Core/AVR8/../AVR8/../AVR8/USBController_AVR8.h **** 			/** Attaches the device to the USB bus. This announces the device's presence to any attached
 194:../../tmk_core/protocol/lufa/lufa-abcminiuser/LUFA/Drivers/USB/Core/AVR8/../AVR8/../AVR8/USBController_AVR8.h **** 			 *  USB host, starting the enumeration process. If no host is present, attaching the device
 195:../../tmk_core/protocol/lufa/lufa-abcminiuser/LUFA/Drivers/USB/Core/AVR8/../AVR8/../AVR8/USBController_AVR8.h **** 			 *  will allow for enumeration once a host is connected to the device.
 196:../../tmk_core/protocol/lufa/lufa-abcminiuser/LUFA/Drivers/USB/Core/AVR8/../AVR8/../AVR8/USBController_AVR8.h **** 			 *
 197:../../tmk_core/protocol/lufa/lufa-abcminiuser/LUFA/Drivers/USB/Core/AVR8/../AVR8/../AVR8/USBController_AVR8.h **** 			 *  This is inexplicably also required for proper operation while in host mode, to enable the
 198:../../tmk_core/protocol/lufa/lufa-abcminiuser/LUFA/Drivers/USB/Core/AVR8/../AVR8/../AVR8/USBController_AVR8.h **** 			 *  attachment of a device to the host. This is despite the bit being located in the device-mode
 199:../../tmk_core/protocol/lufa/lufa-abcminiuser/LUFA/Drivers/USB/Core/AVR8/../AVR8/../AVR8/USBController_AVR8.h **** 			 *  register and despite the datasheet making no mention of its requirement in host mode.
 200:../../tmk_core/protocol/lufa/lufa-abcminiuser/LUFA/Drivers/USB/Core/AVR8/../AVR8/../AVR8/USBController_AVR8.h **** 			 */
 201:../../tmk_core/protocol/lufa/lufa-abcminiuser/LUFA/Drivers/USB/Core/AVR8/../AVR8/../AVR8/USBController_AVR8.h **** 			static inline void USB_Attach(void) ATTR_ALWAYS_INLINE;
 202:../../tmk_core/protocol/lufa/lufa-abcminiuser/LUFA/Drivers/USB/Core/AVR8/../AVR8/../AVR8/USBController_AVR8.h **** 			static inline void USB_Attach(void)
 203:../../tmk_core/protocol/lufa/lufa-abcminiuser/LUFA/Drivers/USB/Core/AVR8/../AVR8/../AVR8/USBController_AVR8.h **** 			{
 204:../../tmk_core/protocol/lufa/lufa-abcminiuser/LUFA/Drivers/USB/Core/AVR8/../AVR8/../AVR8/USBController_AVR8.h **** 				UDCON  &= ~(1 << DETACH);
 205:../../tmk_core/protocol/lufa/lufa-abcminiuser/LUFA/Drivers/USB/Core/AVR8/../AVR8/../AVR8/USBController_AVR8.h **** 			}
 206:../../tmk_core/protocol/lufa/lufa-abcminiuser/LUFA/Drivers/USB/Core/AVR8/../AVR8/../AVR8/USBController_AVR8.h **** 
 207:../../tmk_core/protocol/lufa/lufa-abcminiuser/LUFA/Drivers/USB/Core/AVR8/../AVR8/../AVR8/USBController_AVR8.h **** 		/* Function Prototypes: */
 208:../../tmk_core/protocol/lufa/lufa-abcminiuser/LUFA/Drivers/USB/Core/AVR8/../AVR8/../AVR8/USBController_AVR8.h **** 			/** Main function to initialize and start the USB interface. Once active, the USB interface will
 209:../../tmk_core/protocol/lufa/lufa-abcminiuser/LUFA/Drivers/USB/Core/AVR8/../AVR8/../AVR8/USBController_AVR8.h **** 			 *  allow for device connection to a host when in device mode, or for device enumeration while i
 210:../../tmk_core/protocol/lufa/lufa-abcminiuser/LUFA/Drivers/USB/Core/AVR8/../AVR8/../AVR8/USBController_AVR8.h **** 			 *  host mode.
 211:../../tmk_core/protocol/lufa/lufa-abcminiuser/LUFA/Drivers/USB/Core/AVR8/../AVR8/../AVR8/USBController_AVR8.h **** 			 *
 212:../../tmk_core/protocol/lufa/lufa-abcminiuser/LUFA/Drivers/USB/Core/AVR8/../AVR8/../AVR8/USBController_AVR8.h **** 			 *  As the USB library relies on interrupts for the device and host mode enumeration processes,
 213:../../tmk_core/protocol/lufa/lufa-abcminiuser/LUFA/Drivers/USB/Core/AVR8/../AVR8/../AVR8/USBController_AVR8.h **** 			 *  the user must enable global interrupts before or shortly after this function is called. In
 214:../../tmk_core/protocol/lufa/lufa-abcminiuser/LUFA/Drivers/USB/Core/AVR8/../AVR8/../AVR8/USBController_AVR8.h **** 			 *  device mode, interrupts must be enabled within 500ms of this function being called to ensure
 215:../../tmk_core/protocol/lufa/lufa-abcminiuser/LUFA/Drivers/USB/Core/AVR8/../AVR8/../AVR8/USBController_AVR8.h **** 			 *  that the host does not time out whilst enumerating the device. In host mode, interrupts may 
 216:../../tmk_core/protocol/lufa/lufa-abcminiuser/LUFA/Drivers/USB/Core/AVR8/../AVR8/../AVR8/USBController_AVR8.h **** 			 *  enabled at the application's leisure however enumeration will not begin of an attached devic
 217:../../tmk_core/protocol/lufa/lufa-abcminiuser/LUFA/Drivers/USB/Core/AVR8/../AVR8/../AVR8/USBController_AVR8.h **** 			 *  until after this has occurred.
 218:../../tmk_core/protocol/lufa/lufa-abcminiuser/LUFA/Drivers/USB/Core/AVR8/../AVR8/../AVR8/USBController_AVR8.h **** 			 *
 219:../../tmk_core/protocol/lufa/lufa-abcminiuser/LUFA/Drivers/USB/Core/AVR8/../AVR8/../AVR8/USBController_AVR8.h **** 			 *  Calling this function when the USB interface is already initialized will cause a complete US
 220:../../tmk_core/protocol/lufa/lufa-abcminiuser/LUFA/Drivers/USB/Core/AVR8/../AVR8/../AVR8/USBController_AVR8.h **** 			 *  interface reset and re-enumeration.
 221:../../tmk_core/protocol/lufa/lufa-abcminiuser/LUFA/Drivers/USB/Core/AVR8/../AVR8/../AVR8/USBController_AVR8.h **** 			 *
 222:../../tmk_core/protocol/lufa/lufa-abcminiuser/LUFA/Drivers/USB/Core/AVR8/../AVR8/../AVR8/USBController_AVR8.h **** 			 *  \param[in] Mode     Mask indicating what mode the USB interface is to be initialized to, a v
 223:../../tmk_core/protocol/lufa/lufa-abcminiuser/LUFA/Drivers/USB/Core/AVR8/../AVR8/../AVR8/USBController_AVR8.h **** 			 *                      from the \ref USB_Modes_t enum.
 224:../../tmk_core/protocol/lufa/lufa-abcminiuser/LUFA/Drivers/USB/Core/AVR8/../AVR8/../AVR8/USBController_AVR8.h **** 			 *                      \note This parameter does not exist on devices with only one supported U
 225:../../tmk_core/protocol/lufa/lufa-abcminiuser/LUFA/Drivers/USB/Core/AVR8/../AVR8/../AVR8/USBController_AVR8.h **** 			 *                            mode (device or host).
 226:../../tmk_core/protocol/lufa/lufa-abcminiuser/LUFA/Drivers/USB/Core/AVR8/../AVR8/../AVR8/USBController_AVR8.h **** 			 *
 227:../../tmk_core/protocol/lufa/lufa-abcminiuser/LUFA/Drivers/USB/Core/AVR8/../AVR8/../AVR8/USBController_AVR8.h **** 			 *  \param[in] Options  Mask indicating the options which should be used when initializing the U
 228:../../tmk_core/protocol/lufa/lufa-abcminiuser/LUFA/Drivers/USB/Core/AVR8/../AVR8/../AVR8/USBController_AVR8.h **** 			 *                      interface to control the USB interface's behavior. This should be compri
 229:../../tmk_core/protocol/lufa/lufa-abcminiuser/LUFA/Drivers/USB/Core/AVR8/../AVR8/../AVR8/USBController_AVR8.h **** 			 *                      a \c USB_OPT_REG_* mask to control the regulator, a \c USB_OPT_*_PLL mas
 230:../../tmk_core/protocol/lufa/lufa-abcminiuser/LUFA/Drivers/USB/Core/AVR8/../AVR8/../AVR8/USBController_AVR8.h **** 			 *                      PLL, and a \c USB_DEVICE_OPT_* mask (when the device mode is enabled) to
 231:../../tmk_core/protocol/lufa/lufa-abcminiuser/LUFA/Drivers/USB/Core/AVR8/../AVR8/../AVR8/USBController_AVR8.h **** 			 *                      mode speed.
 232:../../tmk_core/protocol/lufa/lufa-abcminiuser/LUFA/Drivers/USB/Core/AVR8/../AVR8/../AVR8/USBController_AVR8.h **** 			 *
 233:../../tmk_core/protocol/lufa/lufa-abcminiuser/LUFA/Drivers/USB/Core/AVR8/../AVR8/../AVR8/USBController_AVR8.h **** 			 *  \note To reduce the FLASH requirements of the library if only device or host mode is require
 234:../../tmk_core/protocol/lufa/lufa-abcminiuser/LUFA/Drivers/USB/Core/AVR8/../AVR8/../AVR8/USBController_AVR8.h **** 			 *        the mode can be statically set in the project makefile by defining the token \c USB_DE
 235:../../tmk_core/protocol/lufa/lufa-abcminiuser/LUFA/Drivers/USB/Core/AVR8/../AVR8/../AVR8/USBController_AVR8.h **** 			 *        (for device mode) or \c USB_HOST_ONLY (for host mode), passing the token to the compil
 236:../../tmk_core/protocol/lufa/lufa-abcminiuser/LUFA/Drivers/USB/Core/AVR8/../AVR8/../AVR8/USBController_AVR8.h **** 			 *        via the -D switch. If the mode is statically set, this parameter does not exist in the
 237:../../tmk_core/protocol/lufa/lufa-abcminiuser/LUFA/Drivers/USB/Core/AVR8/../AVR8/../AVR8/USBController_AVR8.h **** 			 *        function prototype.
 238:../../tmk_core/protocol/lufa/lufa-abcminiuser/LUFA/Drivers/USB/Core/AVR8/../AVR8/../AVR8/USBController_AVR8.h **** 			 *        \n\n
 239:../../tmk_core/protocol/lufa/lufa-abcminiuser/LUFA/Drivers/USB/Core/AVR8/../AVR8/../AVR8/USBController_AVR8.h **** 			 *
 240:../../tmk_core/protocol/lufa/lufa-abcminiuser/LUFA/Drivers/USB/Core/AVR8/../AVR8/../AVR8/USBController_AVR8.h **** 			 *  \note To reduce the FLASH requirements of the library if only fixed settings are required,
 241:../../tmk_core/protocol/lufa/lufa-abcminiuser/LUFA/Drivers/USB/Core/AVR8/../AVR8/../AVR8/USBController_AVR8.h **** 			 *        the options may be set statically in the same manner as the mode (see the Mode paramet
 242:../../tmk_core/protocol/lufa/lufa-abcminiuser/LUFA/Drivers/USB/Core/AVR8/../AVR8/../AVR8/USBController_AVR8.h **** 			 *        this function). To statically set the USB options, pass in the \c USE_STATIC_OPTIONS t
 243:../../tmk_core/protocol/lufa/lufa-abcminiuser/LUFA/Drivers/USB/Core/AVR8/../AVR8/../AVR8/USBController_AVR8.h **** 			 *        defined to the appropriate options masks. When the options are statically set, this
 244:../../tmk_core/protocol/lufa/lufa-abcminiuser/LUFA/Drivers/USB/Core/AVR8/../AVR8/../AVR8/USBController_AVR8.h **** 			 *        parameter does not exist in the function prototype.
 245:../../tmk_core/protocol/lufa/lufa-abcminiuser/LUFA/Drivers/USB/Core/AVR8/../AVR8/../AVR8/USBController_AVR8.h **** 			 *        \n\n
 246:../../tmk_core/protocol/lufa/lufa-abcminiuser/LUFA/Drivers/USB/Core/AVR8/../AVR8/../AVR8/USBController_AVR8.h **** 			 *
 247:../../tmk_core/protocol/lufa/lufa-abcminiuser/LUFA/Drivers/USB/Core/AVR8/../AVR8/../AVR8/USBController_AVR8.h **** 			 *  \note The mode parameter does not exist on devices where only one mode is possible, such as 
 248:../../tmk_core/protocol/lufa/lufa-abcminiuser/LUFA/Drivers/USB/Core/AVR8/../AVR8/../AVR8/USBController_AVR8.h **** 			 *        AVR models which only implement the USB device mode in hardware.
 249:../../tmk_core/protocol/lufa/lufa-abcminiuser/LUFA/Drivers/USB/Core/AVR8/../AVR8/../AVR8/USBController_AVR8.h **** 			 *
 250:../../tmk_core/protocol/lufa/lufa-abcminiuser/LUFA/Drivers/USB/Core/AVR8/../AVR8/../AVR8/USBController_AVR8.h **** 			 *  \see \ref Group_Device for the \c USB_DEVICE_OPT_* masks.
 251:../../tmk_core/protocol/lufa/lufa-abcminiuser/LUFA/Drivers/USB/Core/AVR8/../AVR8/../AVR8/USBController_AVR8.h **** 			 */
 252:../../tmk_core/protocol/lufa/lufa-abcminiuser/LUFA/Drivers/USB/Core/AVR8/../AVR8/../AVR8/USBController_AVR8.h **** 			void USB_Init(
 253:../../tmk_core/protocol/lufa/lufa-abcminiuser/LUFA/Drivers/USB/Core/AVR8/../AVR8/../AVR8/USBController_AVR8.h **** 			               #if defined(USB_CAN_BE_BOTH) || defined(__DOXYGEN__)
 254:../../tmk_core/protocol/lufa/lufa-abcminiuser/LUFA/Drivers/USB/Core/AVR8/../AVR8/../AVR8/USBController_AVR8.h **** 			               const uint8_t Mode
 255:../../tmk_core/protocol/lufa/lufa-abcminiuser/LUFA/Drivers/USB/Core/AVR8/../AVR8/../AVR8/USBController_AVR8.h **** 			               #endif
 256:../../tmk_core/protocol/lufa/lufa-abcminiuser/LUFA/Drivers/USB/Core/AVR8/../AVR8/../AVR8/USBController_AVR8.h **** 
 257:../../tmk_core/protocol/lufa/lufa-abcminiuser/LUFA/Drivers/USB/Core/AVR8/../AVR8/../AVR8/USBController_AVR8.h **** 			               #if (defined(USB_CAN_BE_BOTH) && !defined(USE_STATIC_OPTIONS)) || defined(__DOXYG
 258:../../tmk_core/protocol/lufa/lufa-abcminiuser/LUFA/Drivers/USB/Core/AVR8/../AVR8/../AVR8/USBController_AVR8.h **** 			               ,
 259:../../tmk_core/protocol/lufa/lufa-abcminiuser/LUFA/Drivers/USB/Core/AVR8/../AVR8/../AVR8/USBController_AVR8.h **** 			               #elif (!defined(USB_CAN_BE_BOTH) && defined(USE_STATIC_OPTIONS))
 260:../../tmk_core/protocol/lufa/lufa-abcminiuser/LUFA/Drivers/USB/Core/AVR8/../AVR8/../AVR8/USBController_AVR8.h **** 			               void
 261:../../tmk_core/protocol/lufa/lufa-abcminiuser/LUFA/Drivers/USB/Core/AVR8/../AVR8/../AVR8/USBController_AVR8.h **** 			               #endif
 262:../../tmk_core/protocol/lufa/lufa-abcminiuser/LUFA/Drivers/USB/Core/AVR8/../AVR8/../AVR8/USBController_AVR8.h **** 
 263:../../tmk_core/protocol/lufa/lufa-abcminiuser/LUFA/Drivers/USB/Core/AVR8/../AVR8/../AVR8/USBController_AVR8.h **** 			               #if !defined(USE_STATIC_OPTIONS) || defined(__DOXYGEN__)
 264:../../tmk_core/protocol/lufa/lufa-abcminiuser/LUFA/Drivers/USB/Core/AVR8/../AVR8/../AVR8/USBController_AVR8.h **** 			               const uint8_t Options
 265:../../tmk_core/protocol/lufa/lufa-abcminiuser/LUFA/Drivers/USB/Core/AVR8/../AVR8/../AVR8/USBController_AVR8.h **** 			               #endif
 266:../../tmk_core/protocol/lufa/lufa-abcminiuser/LUFA/Drivers/USB/Core/AVR8/../AVR8/../AVR8/USBController_AVR8.h **** 			               );
 267:../../tmk_core/protocol/lufa/lufa-abcminiuser/LUFA/Drivers/USB/Core/AVR8/../AVR8/../AVR8/USBController_AVR8.h **** 
 268:../../tmk_core/protocol/lufa/lufa-abcminiuser/LUFA/Drivers/USB/Core/AVR8/../AVR8/../AVR8/USBController_AVR8.h **** 			/** Shuts down the USB interface. This turns off the USB interface after deallocating all USB FI
 269:../../tmk_core/protocol/lufa/lufa-abcminiuser/LUFA/Drivers/USB/Core/AVR8/../AVR8/../AVR8/USBController_AVR8.h **** 			 *  memory, endpoints and pipes. When turned off, no USB functionality can be used until the int
 270:../../tmk_core/protocol/lufa/lufa-abcminiuser/LUFA/Drivers/USB/Core/AVR8/../AVR8/../AVR8/USBController_AVR8.h **** 			 *  is restarted with the \ref USB_Init() function.
 271:../../tmk_core/protocol/lufa/lufa-abcminiuser/LUFA/Drivers/USB/Core/AVR8/../AVR8/../AVR8/USBController_AVR8.h **** 			 */
 272:../../tmk_core/protocol/lufa/lufa-abcminiuser/LUFA/Drivers/USB/Core/AVR8/../AVR8/../AVR8/USBController_AVR8.h **** 			void USB_Disable(void);
 273:../../tmk_core/protocol/lufa/lufa-abcminiuser/LUFA/Drivers/USB/Core/AVR8/../AVR8/../AVR8/USBController_AVR8.h **** 
 274:../../tmk_core/protocol/lufa/lufa-abcminiuser/LUFA/Drivers/USB/Core/AVR8/../AVR8/../AVR8/USBController_AVR8.h **** 			/** Resets the interface, when already initialized. This will re-enumerate the device if already
 275:../../tmk_core/protocol/lufa/lufa-abcminiuser/LUFA/Drivers/USB/Core/AVR8/../AVR8/../AVR8/USBController_AVR8.h **** 			 *  to a host, or re-enumerate an already attached device when in host mode.
 276:../../tmk_core/protocol/lufa/lufa-abcminiuser/LUFA/Drivers/USB/Core/AVR8/../AVR8/../AVR8/USBController_AVR8.h **** 			 */
 277:../../tmk_core/protocol/lufa/lufa-abcminiuser/LUFA/Drivers/USB/Core/AVR8/../AVR8/../AVR8/USBController_AVR8.h **** 			void USB_ResetInterface(void);
 278:../../tmk_core/protocol/lufa/lufa-abcminiuser/LUFA/Drivers/USB/Core/AVR8/../AVR8/../AVR8/USBController_AVR8.h **** 
 279:../../tmk_core/protocol/lufa/lufa-abcminiuser/LUFA/Drivers/USB/Core/AVR8/../AVR8/../AVR8/USBController_AVR8.h **** 		/* Global Variables: */
 280:../../tmk_core/protocol/lufa/lufa-abcminiuser/LUFA/Drivers/USB/Core/AVR8/../AVR8/../AVR8/USBController_AVR8.h **** 			#if defined(USB_CAN_BE_BOTH) || defined(__DOXYGEN__)
 281:../../tmk_core/protocol/lufa/lufa-abcminiuser/LUFA/Drivers/USB/Core/AVR8/../AVR8/../AVR8/USBController_AVR8.h **** 				/** Indicates the mode that the USB interface is currently initialized to, a value from the
 282:../../tmk_core/protocol/lufa/lufa-abcminiuser/LUFA/Drivers/USB/Core/AVR8/../AVR8/../AVR8/USBController_AVR8.h **** 				 *  \ref USB_Modes_t enum.
 283:../../tmk_core/protocol/lufa/lufa-abcminiuser/LUFA/Drivers/USB/Core/AVR8/../AVR8/../AVR8/USBController_AVR8.h **** 				 *
 284:../../tmk_core/protocol/lufa/lufa-abcminiuser/LUFA/Drivers/USB/Core/AVR8/../AVR8/../AVR8/USBController_AVR8.h **** 				 *  \attention This variable should be treated as read-only in the user application, and never 
 285:../../tmk_core/protocol/lufa/lufa-abcminiuser/LUFA/Drivers/USB/Core/AVR8/../AVR8/../AVR8/USBController_AVR8.h **** 				 *             changed in value.
 286:../../tmk_core/protocol/lufa/lufa-abcminiuser/LUFA/Drivers/USB/Core/AVR8/../AVR8/../AVR8/USBController_AVR8.h **** 				 *
 287:../../tmk_core/protocol/lufa/lufa-abcminiuser/LUFA/Drivers/USB/Core/AVR8/../AVR8/../AVR8/USBController_AVR8.h **** 				 *  \note When the controller is initialized into UID auto-detection mode, this variable will h
 288:../../tmk_core/protocol/lufa/lufa-abcminiuser/LUFA/Drivers/USB/Core/AVR8/../AVR8/../AVR8/USBController_AVR8.h **** 				 *        currently selected USB mode (i.e. \ref USB_MODE_Device or \ref USB_MODE_Host). If the
 289:../../tmk_core/protocol/lufa/lufa-abcminiuser/LUFA/Drivers/USB/Core/AVR8/../AVR8/../AVR8/USBController_AVR8.h **** 				 *        is fixed into a specific mode (either through the \c USB_DEVICE_ONLY or \c USB_HOST_O
 290:../../tmk_core/protocol/lufa/lufa-abcminiuser/LUFA/Drivers/USB/Core/AVR8/../AVR8/../AVR8/USBController_AVR8.h **** 				 *        options, or a limitation of the USB controller in the chosen device model) this will 
 291:../../tmk_core/protocol/lufa/lufa-abcminiuser/LUFA/Drivers/USB/Core/AVR8/../AVR8/../AVR8/USBController_AVR8.h **** 				 *        a constant of the appropriate value and will never evaluate to \ref USB_MODE_None eve
 292:../../tmk_core/protocol/lufa/lufa-abcminiuser/LUFA/Drivers/USB/Core/AVR8/../AVR8/../AVR8/USBController_AVR8.h **** 				 *        USB interface is not initialized.
 293:../../tmk_core/protocol/lufa/lufa-abcminiuser/LUFA/Drivers/USB/Core/AVR8/../AVR8/../AVR8/USBController_AVR8.h **** 				 */
 294:../../tmk_core/protocol/lufa/lufa-abcminiuser/LUFA/Drivers/USB/Core/AVR8/../AVR8/../AVR8/USBController_AVR8.h **** 				extern volatile uint8_t USB_CurrentMode;
 295:../../tmk_core/protocol/lufa/lufa-abcminiuser/LUFA/Drivers/USB/Core/AVR8/../AVR8/../AVR8/USBController_AVR8.h **** 			#elif defined(USB_CAN_BE_HOST)
 296:../../tmk_core/protocol/lufa/lufa-abcminiuser/LUFA/Drivers/USB/Core/AVR8/../AVR8/../AVR8/USBController_AVR8.h **** 				#define USB_CurrentMode USB_MODE_Host
 297:../../tmk_core/protocol/lufa/lufa-abcminiuser/LUFA/Drivers/USB/Core/AVR8/../AVR8/../AVR8/USBController_AVR8.h **** 			#elif defined(USB_CAN_BE_DEVICE)
 298:../../tmk_core/protocol/lufa/lufa-abcminiuser/LUFA/Drivers/USB/Core/AVR8/../AVR8/../AVR8/USBController_AVR8.h **** 				#define USB_CurrentMode USB_MODE_Device
 299:../../tmk_core/protocol/lufa/lufa-abcminiuser/LUFA/Drivers/USB/Core/AVR8/../AVR8/../AVR8/USBController_AVR8.h **** 			#endif
 300:../../tmk_core/protocol/lufa/lufa-abcminiuser/LUFA/Drivers/USB/Core/AVR8/../AVR8/../AVR8/USBController_AVR8.h **** 
 301:../../tmk_core/protocol/lufa/lufa-abcminiuser/LUFA/Drivers/USB/Core/AVR8/../AVR8/../AVR8/USBController_AVR8.h **** 			#if !defined(USE_STATIC_OPTIONS) || defined(__DOXYGEN__)
 302:../../tmk_core/protocol/lufa/lufa-abcminiuser/LUFA/Drivers/USB/Core/AVR8/../AVR8/../AVR8/USBController_AVR8.h **** 				/** Indicates the current USB options that the USB interface was initialized with when \ref USB
 303:../../tmk_core/protocol/lufa/lufa-abcminiuser/LUFA/Drivers/USB/Core/AVR8/../AVR8/../AVR8/USBController_AVR8.h **** 				 *  was called. This value will be one of the \c USB_MODE_* masks defined elsewhere in this mod
 304:../../tmk_core/protocol/lufa/lufa-abcminiuser/LUFA/Drivers/USB/Core/AVR8/../AVR8/../AVR8/USBController_AVR8.h **** 				 *
 305:../../tmk_core/protocol/lufa/lufa-abcminiuser/LUFA/Drivers/USB/Core/AVR8/../AVR8/../AVR8/USBController_AVR8.h **** 				 *  \attention This variable should be treated as read-only in the user application, and never 
 306:../../tmk_core/protocol/lufa/lufa-abcminiuser/LUFA/Drivers/USB/Core/AVR8/../AVR8/../AVR8/USBController_AVR8.h **** 				 *             changed in value.
 307:../../tmk_core/protocol/lufa/lufa-abcminiuser/LUFA/Drivers/USB/Core/AVR8/../AVR8/../AVR8/USBController_AVR8.h **** 				 */
 308:../../tmk_core/protocol/lufa/lufa-abcminiuser/LUFA/Drivers/USB/Core/AVR8/../AVR8/../AVR8/USBController_AVR8.h **** 				extern volatile uint8_t USB_Options;
 309:../../tmk_core/protocol/lufa/lufa-abcminiuser/LUFA/Drivers/USB/Core/AVR8/../AVR8/../AVR8/USBController_AVR8.h **** 			#elif defined(USE_STATIC_OPTIONS)
 310:../../tmk_core/protocol/lufa/lufa-abcminiuser/LUFA/Drivers/USB/Core/AVR8/../AVR8/../AVR8/USBController_AVR8.h **** 				#define USB_Options USE_STATIC_OPTIONS
 311:../../tmk_core/protocol/lufa/lufa-abcminiuser/LUFA/Drivers/USB/Core/AVR8/../AVR8/../AVR8/USBController_AVR8.h **** 			#endif
 312:../../tmk_core/protocol/lufa/lufa-abcminiuser/LUFA/Drivers/USB/Core/AVR8/../AVR8/../AVR8/USBController_AVR8.h **** 
 313:../../tmk_core/protocol/lufa/lufa-abcminiuser/LUFA/Drivers/USB/Core/AVR8/../AVR8/../AVR8/USBController_AVR8.h **** 	/* Private Interface - For use in library only: */
 314:../../tmk_core/protocol/lufa/lufa-abcminiuser/LUFA/Drivers/USB/Core/AVR8/../AVR8/../AVR8/USBController_AVR8.h **** 	#if !defined(__DOXYGEN__)
 315:../../tmk_core/protocol/lufa/lufa-abcminiuser/LUFA/Drivers/USB/Core/AVR8/../AVR8/../AVR8/USBController_AVR8.h **** 		/* Function Prototypes: */
 316:../../tmk_core/protocol/lufa/lufa-abcminiuser/LUFA/Drivers/USB/Core/AVR8/../AVR8/../AVR8/USBController_AVR8.h **** 			#if defined(__INCLUDE_FROM_USB_CONTROLLER_C)
 317:../../tmk_core/protocol/lufa/lufa-abcminiuser/LUFA/Drivers/USB/Core/AVR8/../AVR8/../AVR8/USBController_AVR8.h **** 				#if defined(USB_CAN_BE_DEVICE)
 318:../../tmk_core/protocol/lufa/lufa-abcminiuser/LUFA/Drivers/USB/Core/AVR8/../AVR8/../AVR8/USBController_AVR8.h **** 				static void USB_Init_Device(void);
 319:../../tmk_core/protocol/lufa/lufa-abcminiuser/LUFA/Drivers/USB/Core/AVR8/../AVR8/../AVR8/USBController_AVR8.h **** 				#endif
 320:../../tmk_core/protocol/lufa/lufa-abcminiuser/LUFA/Drivers/USB/Core/AVR8/../AVR8/../AVR8/USBController_AVR8.h **** 
 321:../../tmk_core/protocol/lufa/lufa-abcminiuser/LUFA/Drivers/USB/Core/AVR8/../AVR8/../AVR8/USBController_AVR8.h **** 				#if defined(USB_CAN_BE_HOST)
 322:../../tmk_core/protocol/lufa/lufa-abcminiuser/LUFA/Drivers/USB/Core/AVR8/../AVR8/../AVR8/USBController_AVR8.h **** 				static void USB_Init_Host(void);
 323:../../tmk_core/protocol/lufa/lufa-abcminiuser/LUFA/Drivers/USB/Core/AVR8/../AVR8/../AVR8/USBController_AVR8.h **** 				#endif
 324:../../tmk_core/protocol/lufa/lufa-abcminiuser/LUFA/Drivers/USB/Core/AVR8/../AVR8/../AVR8/USBController_AVR8.h **** 			#endif
 325:../../tmk_core/protocol/lufa/lufa-abcminiuser/LUFA/Drivers/USB/Core/AVR8/../AVR8/../AVR8/USBController_AVR8.h **** 
 326:../../tmk_core/protocol/lufa/lufa-abcminiuser/LUFA/Drivers/USB/Core/AVR8/../AVR8/../AVR8/USBController_AVR8.h **** 		/* Inline Functions: */
 327:../../tmk_core/protocol/lufa/lufa-abcminiuser/LUFA/Drivers/USB/Core/AVR8/../AVR8/../AVR8/USBController_AVR8.h **** 			static inline void USB_PLL_On(void) ATTR_ALWAYS_INLINE;
 328:../../tmk_core/protocol/lufa/lufa-abcminiuser/LUFA/Drivers/USB/Core/AVR8/../AVR8/../AVR8/USBController_AVR8.h **** 			static inline void USB_PLL_On(void)
 253               		.loc 3 328 23 view .LVU61
 254               	.LBB105:
 329:../../tmk_core/protocol/lufa/lufa-abcminiuser/LUFA/Drivers/USB/Core/AVR8/../AVR8/../AVR8/USBController_AVR8.h **** 			{
 330:../../tmk_core/protocol/lufa/lufa-abcminiuser/LUFA/Drivers/USB/Core/AVR8/../AVR8/../AVR8/USBController_AVR8.h **** 				PLLCSR = USB_PLL_PSC;
 255               		.loc 3 330 5 view .LVU62
 256               		.loc 3 330 12 is_stmt 0 view .LVU63
 257 0062 80E1      		ldi r24,lo8(16)
 258 0064 89BD      		out 0x29,r24
 331:../../tmk_core/protocol/lufa/lufa-abcminiuser/LUFA/Drivers/USB/Core/AVR8/../AVR8/../AVR8/USBController_AVR8.h **** 				PLLCSR = (USB_PLL_PSC | (1 << PLLE));
 259               		.loc 3 331 5 is_stmt 1 view .LVU64
 260               		.loc 3 331 12 is_stmt 0 view .LVU65
 261 0066 82E1      		ldi r24,lo8(18)
 262 0068 89BD      		out 0x29,r24
 263               	.L7:
 264               	.LBE105:
 265               	.LBE104:
  99:../../tmk_core/protocol/lufa/lufa-abcminiuser/LUFA/Drivers/USB/Core/AVR8/USBInterrupt_AVR8.c **** 				while (!(USB_PLL_IsReady()));
 266               		.loc 1 99 33 is_stmt 1 discriminator 1 view .LVU66
 267               		.loc 1 99 11 discriminator 1 view .LVU67
 268               	.LBB106:
 269               	.LBI106:
 332:../../tmk_core/protocol/lufa/lufa-abcminiuser/LUFA/Drivers/USB/Core/AVR8/../AVR8/../AVR8/USBController_AVR8.h **** 			}
 333:../../tmk_core/protocol/lufa/lufa-abcminiuser/LUFA/Drivers/USB/Core/AVR8/../AVR8/../AVR8/USBController_AVR8.h **** 
 334:../../tmk_core/protocol/lufa/lufa-abcminiuser/LUFA/Drivers/USB/Core/AVR8/../AVR8/../AVR8/USBController_AVR8.h **** 			static inline void USB_PLL_Off(void) ATTR_ALWAYS_INLINE;
 335:../../tmk_core/protocol/lufa/lufa-abcminiuser/LUFA/Drivers/USB/Core/AVR8/../AVR8/../AVR8/USBController_AVR8.h **** 			static inline void USB_PLL_Off(void)
 336:../../tmk_core/protocol/lufa/lufa-abcminiuser/LUFA/Drivers/USB/Core/AVR8/../AVR8/../AVR8/USBController_AVR8.h **** 			{
 337:../../tmk_core/protocol/lufa/lufa-abcminiuser/LUFA/Drivers/USB/Core/AVR8/../AVR8/../AVR8/USBController_AVR8.h **** 				PLLCSR = 0;
 338:../../tmk_core/protocol/lufa/lufa-abcminiuser/LUFA/Drivers/USB/Core/AVR8/../AVR8/../AVR8/USBController_AVR8.h **** 			}
 339:../../tmk_core/protocol/lufa/lufa-abcminiuser/LUFA/Drivers/USB/Core/AVR8/../AVR8/../AVR8/USBController_AVR8.h **** 
 340:../../tmk_core/protocol/lufa/lufa-abcminiuser/LUFA/Drivers/USB/Core/AVR8/../AVR8/../AVR8/USBController_AVR8.h **** 			static inline bool USB_PLL_IsReady(void) ATTR_WARN_UNUSED_RESULT ATTR_ALWAYS_INLINE;
 341:../../tmk_core/protocol/lufa/lufa-abcminiuser/LUFA/Drivers/USB/Core/AVR8/../AVR8/../AVR8/USBController_AVR8.h **** 			static inline bool USB_PLL_IsReady(void)
 270               		.loc 3 341 23 discriminator 1 view .LVU68
 271               	.LBB107:
 342:../../tmk_core/protocol/lufa/lufa-abcminiuser/LUFA/Drivers/USB/Core/AVR8/../AVR8/../AVR8/USBController_AVR8.h **** 			{
 343:../../tmk_core/protocol/lufa/lufa-abcminiuser/LUFA/Drivers/USB/Core/AVR8/../AVR8/../AVR8/USBController_AVR8.h **** 				return ((PLLCSR & (1 << PLOCK)) ? true : false);
 272               		.loc 3 343 5 discriminator 1 view .LVU69
 273               	.LBE107:
 274               	.LBE106:
 275               		.loc 1 99 11 is_stmt 0 discriminator 1 view .LVU70
 276 006a 09B4      		in __tmp_reg__,0x29
 277 006c 00FE      		sbrs __tmp_reg__,0
 278 006e 00C0      		rjmp .L7
 100:../../tmk_core/protocol/lufa/lufa-abcminiuser/LUFA/Drivers/USB/Core/AVR8/USBInterrupt_AVR8.c **** 			}
 101:../../tmk_core/protocol/lufa/lufa-abcminiuser/LUFA/Drivers/USB/Core/AVR8/USBInterrupt_AVR8.c **** 
 102:../../tmk_core/protocol/lufa/lufa-abcminiuser/LUFA/Drivers/USB/Core/AVR8/USBInterrupt_AVR8.c **** 			USB_DeviceState = DEVICE_STATE_Powered;
 279               		.loc 1 102 4 is_stmt 1 view .LVU71
 280               		.loc 1 102 20 is_stmt 0 view .LVU72
 281 0070 81E0      		ldi r24,lo8(1)
 282 0072 8093 0000 		sts USB_DeviceState,r24
 103:../../tmk_core/protocol/lufa/lufa-abcminiuser/LUFA/Drivers/USB/Core/AVR8/USBInterrupt_AVR8.c **** 			EVENT_USB_Device_Connect();
 283               		.loc 1 103 4 is_stmt 1 view .LVU73
 284 0076 0E94 0000 		call EVENT_USB_Device_Connect
 285               	.LVL12:
 286               	.L5:
 104:../../tmk_core/protocol/lufa/lufa-abcminiuser/LUFA/Drivers/USB/Core/AVR8/USBInterrupt_AVR8.c **** 		}
 105:../../tmk_core/protocol/lufa/lufa-abcminiuser/LUFA/Drivers/USB/Core/AVR8/USBInterrupt_AVR8.c **** 		else
 106:../../tmk_core/protocol/lufa/lufa-abcminiuser/LUFA/Drivers/USB/Core/AVR8/USBInterrupt_AVR8.c **** 		{
 107:../../tmk_core/protocol/lufa/lufa-abcminiuser/LUFA/Drivers/USB/Core/AVR8/USBInterrupt_AVR8.c **** 			if (!(USB_Options & USB_OPT_MANUAL_PLL))
 108:../../tmk_core/protocol/lufa/lufa-abcminiuser/LUFA/Drivers/USB/Core/AVR8/USBInterrupt_AVR8.c **** 			  USB_PLL_Off();
 109:../../tmk_core/protocol/lufa/lufa-abcminiuser/LUFA/Drivers/USB/Core/AVR8/USBInterrupt_AVR8.c **** 
 110:../../tmk_core/protocol/lufa/lufa-abcminiuser/LUFA/Drivers/USB/Core/AVR8/USBInterrupt_AVR8.c **** 			USB_DeviceState = DEVICE_STATE_Unattached;
 111:../../tmk_core/protocol/lufa/lufa-abcminiuser/LUFA/Drivers/USB/Core/AVR8/USBInterrupt_AVR8.c **** 			EVENT_USB_Device_Disconnect();
 112:../../tmk_core/protocol/lufa/lufa-abcminiuser/LUFA/Drivers/USB/Core/AVR8/USBInterrupt_AVR8.c **** 		}
 113:../../tmk_core/protocol/lufa/lufa-abcminiuser/LUFA/Drivers/USB/Core/AVR8/USBInterrupt_AVR8.c **** 	}
 114:../../tmk_core/protocol/lufa/lufa-abcminiuser/LUFA/Drivers/USB/Core/AVR8/USBInterrupt_AVR8.c **** 	#endif
 115:../../tmk_core/protocol/lufa/lufa-abcminiuser/LUFA/Drivers/USB/Core/AVR8/USBInterrupt_AVR8.c **** 
 116:../../tmk_core/protocol/lufa/lufa-abcminiuser/LUFA/Drivers/USB/Core/AVR8/USBInterrupt_AVR8.c **** 	if (USB_INT_HasOccurred(USB_INT_SUSPI) && USB_INT_IsEnabled(USB_INT_SUSPI))
 287               		.loc 1 116 2 view .LVU74
 288               	.LBB108:
 289               	.LBI108:
 314:../../tmk_core/protocol/lufa/lufa-abcminiuser/LUFA/Drivers/USB/Core/AVR8/../AVR8/USBInterrupt_AVR8.h **** 			{
 290               		.loc 2 314 23 view .LVU75
 291               	.LBB109:
 316:../../tmk_core/protocol/lufa/lufa-abcminiuser/LUFA/Drivers/USB/Core/AVR8/../AVR8/USBInterrupt_AVR8.h **** 				{
 292               		.loc 2 316 5 view .LVU76
 330:../../tmk_core/protocol/lufa/lufa-abcminiuser/LUFA/Drivers/USB/Core/AVR8/../AVR8/USBInterrupt_AVR8.h **** 					case USB_INT_EORSTI:
 293               		.loc 2 330 7 view .LVU77
 330:../../tmk_core/protocol/lufa/lufa-abcminiuser/LUFA/Drivers/USB/Core/AVR8/../AVR8/USBInterrupt_AVR8.h **** 					case USB_INT_EORSTI:
 294               		.loc 2 330 15 is_stmt 0 view .LVU78
 295 007a 8091 E100 		lds r24,225
 296               	.LVL13:
 330:../../tmk_core/protocol/lufa/lufa-abcminiuser/LUFA/Drivers/USB/Core/AVR8/../AVR8/USBInterrupt_AVR8.h **** 					case USB_INT_EORSTI:
 297               		.loc 2 330 15 view .LVU79
 298               	.LBE109:
 299               	.LBE108:
 300               		.loc 1 116 5 view .LVU80
 301 007e 80FF      		sbrs r24,0
 302 0080 00C0      		rjmp .L8
 303               	.LVL14:
 304               	.LBB110:
 305               	.LBI110:
 268:../../tmk_core/protocol/lufa/lufa-abcminiuser/LUFA/Drivers/USB/Core/AVR8/../AVR8/USBInterrupt_AVR8.h **** 			{
 306               		.loc 2 268 23 is_stmt 1 view .LVU81
 307               	.LBB111:
 270:../../tmk_core/protocol/lufa/lufa-abcminiuser/LUFA/Drivers/USB/Core/AVR8/../AVR8/USBInterrupt_AVR8.h **** 				{
 308               		.loc 2 270 5 view .LVU82
 284:../../tmk_core/protocol/lufa/lufa-abcminiuser/LUFA/Drivers/USB/Core/AVR8/../AVR8/USBInterrupt_AVR8.h **** 					case USB_INT_EORSTI:
 309               		.loc 2 284 7 view .LVU83
 284:../../tmk_core/protocol/lufa/lufa-abcminiuser/LUFA/Drivers/USB/Core/AVR8/../AVR8/USBInterrupt_AVR8.h **** 					case USB_INT_EORSTI:
 310               		.loc 2 284 15 is_stmt 0 view .LVU84
 311 0082 8091 E200 		lds r24,226
 312               	.LVL15:
 284:../../tmk_core/protocol/lufa/lufa-abcminiuser/LUFA/Drivers/USB/Core/AVR8/../AVR8/USBInterrupt_AVR8.h **** 					case USB_INT_EORSTI:
 313               		.loc 2 284 15 view .LVU85
 314               	.LBE111:
 315               	.LBE110:
 316               		.loc 1 116 41 view .LVU86
 317 0086 80FF      		sbrs r24,0
 318 0088 00C0      		rjmp .L8
 117:../../tmk_core/protocol/lufa/lufa-abcminiuser/LUFA/Drivers/USB/Core/AVR8/USBInterrupt_AVR8.c **** 	{
 118:../../tmk_core/protocol/lufa/lufa-abcminiuser/LUFA/Drivers/USB/Core/AVR8/USBInterrupt_AVR8.c **** 		USB_INT_Disable(USB_INT_SUSPI);
 319               		.loc 1 118 3 is_stmt 1 view .LVU87
 320               	.LVL16:
 321               	.LBB112:
 322               	.LBI112:
 148:../../tmk_core/protocol/lufa/lufa-abcminiuser/LUFA/Drivers/USB/Core/AVR8/../AVR8/USBInterrupt_AVR8.h **** 			{
 323               		.loc 2 148 23 view .LVU88
 324               	.LBB113:
 150:../../tmk_core/protocol/lufa/lufa-abcminiuser/LUFA/Drivers/USB/Core/AVR8/../AVR8/USBInterrupt_AVR8.h **** 				{
 325               		.loc 2 150 5 view .LVU89
 167:../../tmk_core/protocol/lufa/lufa-abcminiuser/LUFA/Drivers/USB/Core/AVR8/../AVR8/USBInterrupt_AVR8.h **** 						break;
 326               		.loc 2 167 7 view .LVU90
 167:../../tmk_core/protocol/lufa/lufa-abcminiuser/LUFA/Drivers/USB/Core/AVR8/../AVR8/USBInterrupt_AVR8.h **** 						break;
 327               		.loc 2 167 14 is_stmt 0 view .LVU91
 328 008a 8091 E200 		lds r24,226
 329 008e 8E7F      		andi r24,lo8(-2)
 330 0090 8093 E200 		sts 226,r24
 168:../../tmk_core/protocol/lufa/lufa-abcminiuser/LUFA/Drivers/USB/Core/AVR8/../AVR8/USBInterrupt_AVR8.h **** 					case USB_INT_EORSTI:
 331               		.loc 2 168 7 is_stmt 1 view .LVU92
 332               	.LVL17:
 168:../../tmk_core/protocol/lufa/lufa-abcminiuser/LUFA/Drivers/USB/Core/AVR8/../AVR8/USBInterrupt_AVR8.h **** 					case USB_INT_EORSTI:
 333               		.loc 2 168 7 is_stmt 0 view .LVU93
 334               	.LBE113:
 335               	.LBE112:
 119:../../tmk_core/protocol/lufa/lufa-abcminiuser/LUFA/Drivers/USB/Core/AVR8/USBInterrupt_AVR8.c **** 		USB_INT_Enable(USB_INT_WAKEUPI);
 336               		.loc 1 119 3 is_stmt 1 view .LVU94
 337               	.LBB114:
 338               	.LBI114:
  88:../../tmk_core/protocol/lufa/lufa-abcminiuser/LUFA/Drivers/USB/Core/AVR8/../AVR8/USBInterrupt_AVR8.h **** 			{
 339               		.loc 2 88 23 view .LVU95
 340               	.LBB115:
  90:../../tmk_core/protocol/lufa/lufa-abcminiuser/LUFA/Drivers/USB/Core/AVR8/../AVR8/USBInterrupt_AVR8.h **** 				{
 341               		.loc 2 90 5 view .LVU96
 104:../../tmk_core/protocol/lufa/lufa-abcminiuser/LUFA/Drivers/USB/Core/AVR8/../AVR8/USBInterrupt_AVR8.h **** 						break;
 342               		.loc 2 104 7 view .LVU97
 104:../../tmk_core/protocol/lufa/lufa-abcminiuser/LUFA/Drivers/USB/Core/AVR8/../AVR8/USBInterrupt_AVR8.h **** 						break;
 343               		.loc 2 104 14 is_stmt 0 view .LVU98
 344 0094 8091 E200 		lds r24,226
 345 0098 8061      		ori r24,lo8(16)
 346 009a 8093 E200 		sts 226,r24
 105:../../tmk_core/protocol/lufa/lufa-abcminiuser/LUFA/Drivers/USB/Core/AVR8/../AVR8/USBInterrupt_AVR8.h **** 					case USB_INT_SUSPI:
 347               		.loc 2 105 7 is_stmt 1 view .LVU99
 348               	.LVL18:
 105:../../tmk_core/protocol/lufa/lufa-abcminiuser/LUFA/Drivers/USB/Core/AVR8/../AVR8/USBInterrupt_AVR8.h **** 					case USB_INT_SUSPI:
 349               		.loc 2 105 7 is_stmt 0 view .LVU100
 350               	.LBE115:
 351               	.LBE114:
 120:../../tmk_core/protocol/lufa/lufa-abcminiuser/LUFA/Drivers/USB/Core/AVR8/USBInterrupt_AVR8.c **** 
 121:../../tmk_core/protocol/lufa/lufa-abcminiuser/LUFA/Drivers/USB/Core/AVR8/USBInterrupt_AVR8.c **** 		USB_CLK_Freeze();
 352               		.loc 1 121 3 is_stmt 1 view .LVU101
 353               	.LBB116:
 354               	.LBI116:
 344:../../tmk_core/protocol/lufa/lufa-abcminiuser/LUFA/Drivers/USB/Core/AVR8/../AVR8/../AVR8/USBController_AVR8.h **** 			}
 345:../../tmk_core/protocol/lufa/lufa-abcminiuser/LUFA/Drivers/USB/Core/AVR8/../AVR8/../AVR8/USBController_AVR8.h **** 
 346:../../tmk_core/protocol/lufa/lufa-abcminiuser/LUFA/Drivers/USB/Core/AVR8/../AVR8/../AVR8/USBController_AVR8.h **** 			static inline void USB_REG_On(void) ATTR_ALWAYS_INLINE;
 347:../../tmk_core/protocol/lufa/lufa-abcminiuser/LUFA/Drivers/USB/Core/AVR8/../AVR8/../AVR8/USBController_AVR8.h **** 			static inline void USB_REG_On(void)
 348:../../tmk_core/protocol/lufa/lufa-abcminiuser/LUFA/Drivers/USB/Core/AVR8/../AVR8/../AVR8/USBController_AVR8.h **** 			{
 349:../../tmk_core/protocol/lufa/lufa-abcminiuser/LUFA/Drivers/USB/Core/AVR8/../AVR8/../AVR8/USBController_AVR8.h **** 			#if defined(USB_SERIES_4_AVR) || defined(USB_SERIES_6_AVR) || defined(USB_SERIES_7_AVR)
 350:../../tmk_core/protocol/lufa/lufa-abcminiuser/LUFA/Drivers/USB/Core/AVR8/../AVR8/../AVR8/USBController_AVR8.h **** 				UHWCON |=  (1 << UVREGE);
 351:../../tmk_core/protocol/lufa/lufa-abcminiuser/LUFA/Drivers/USB/Core/AVR8/../AVR8/../AVR8/USBController_AVR8.h **** 			#else
 352:../../tmk_core/protocol/lufa/lufa-abcminiuser/LUFA/Drivers/USB/Core/AVR8/../AVR8/../AVR8/USBController_AVR8.h **** 				REGCR  &= ~(1 << REGDIS);
 353:../../tmk_core/protocol/lufa/lufa-abcminiuser/LUFA/Drivers/USB/Core/AVR8/../AVR8/../AVR8/USBController_AVR8.h **** 			#endif
 354:../../tmk_core/protocol/lufa/lufa-abcminiuser/LUFA/Drivers/USB/Core/AVR8/../AVR8/../AVR8/USBController_AVR8.h **** 			}
 355:../../tmk_core/protocol/lufa/lufa-abcminiuser/LUFA/Drivers/USB/Core/AVR8/../AVR8/../AVR8/USBController_AVR8.h **** 
 356:../../tmk_core/protocol/lufa/lufa-abcminiuser/LUFA/Drivers/USB/Core/AVR8/../AVR8/../AVR8/USBController_AVR8.h **** 			static inline void USB_REG_Off(void) ATTR_ALWAYS_INLINE;
 357:../../tmk_core/protocol/lufa/lufa-abcminiuser/LUFA/Drivers/USB/Core/AVR8/../AVR8/../AVR8/USBController_AVR8.h **** 			static inline void USB_REG_Off(void)
 358:../../tmk_core/protocol/lufa/lufa-abcminiuser/LUFA/Drivers/USB/Core/AVR8/../AVR8/../AVR8/USBController_AVR8.h **** 			{
 359:../../tmk_core/protocol/lufa/lufa-abcminiuser/LUFA/Drivers/USB/Core/AVR8/../AVR8/../AVR8/USBController_AVR8.h **** 			#if defined(USB_SERIES_4_AVR) || defined(USB_SERIES_6_AVR) || defined(USB_SERIES_7_AVR)
 360:../../tmk_core/protocol/lufa/lufa-abcminiuser/LUFA/Drivers/USB/Core/AVR8/../AVR8/../AVR8/USBController_AVR8.h **** 				UHWCON &= ~(1 << UVREGE);
 361:../../tmk_core/protocol/lufa/lufa-abcminiuser/LUFA/Drivers/USB/Core/AVR8/../AVR8/../AVR8/USBController_AVR8.h **** 			#else
 362:../../tmk_core/protocol/lufa/lufa-abcminiuser/LUFA/Drivers/USB/Core/AVR8/../AVR8/../AVR8/USBController_AVR8.h **** 				REGCR  |=  (1 << REGDIS);
 363:../../tmk_core/protocol/lufa/lufa-abcminiuser/LUFA/Drivers/USB/Core/AVR8/../AVR8/../AVR8/USBController_AVR8.h **** 			#endif
 364:../../tmk_core/protocol/lufa/lufa-abcminiuser/LUFA/Drivers/USB/Core/AVR8/../AVR8/../AVR8/USBController_AVR8.h **** 			}
 365:../../tmk_core/protocol/lufa/lufa-abcminiuser/LUFA/Drivers/USB/Core/AVR8/../AVR8/../AVR8/USBController_AVR8.h **** 
 366:../../tmk_core/protocol/lufa/lufa-abcminiuser/LUFA/Drivers/USB/Core/AVR8/../AVR8/../AVR8/USBController_AVR8.h **** 			#if defined(USB_SERIES_4_AVR) || defined(USB_SERIES_6_AVR) || defined(USB_SERIES_7_AVR)
 367:../../tmk_core/protocol/lufa/lufa-abcminiuser/LUFA/Drivers/USB/Core/AVR8/../AVR8/../AVR8/USBController_AVR8.h **** 			static inline void USB_OTGPAD_On(void) ATTR_ALWAYS_INLINE;
 368:../../tmk_core/protocol/lufa/lufa-abcminiuser/LUFA/Drivers/USB/Core/AVR8/../AVR8/../AVR8/USBController_AVR8.h **** 			static inline void USB_OTGPAD_On(void)
 369:../../tmk_core/protocol/lufa/lufa-abcminiuser/LUFA/Drivers/USB/Core/AVR8/../AVR8/../AVR8/USBController_AVR8.h **** 			{
 370:../../tmk_core/protocol/lufa/lufa-abcminiuser/LUFA/Drivers/USB/Core/AVR8/../AVR8/../AVR8/USBController_AVR8.h **** 				USBCON |=  (1 << OTGPADE);
 371:../../tmk_core/protocol/lufa/lufa-abcminiuser/LUFA/Drivers/USB/Core/AVR8/../AVR8/../AVR8/USBController_AVR8.h **** 			}
 372:../../tmk_core/protocol/lufa/lufa-abcminiuser/LUFA/Drivers/USB/Core/AVR8/../AVR8/../AVR8/USBController_AVR8.h **** 
 373:../../tmk_core/protocol/lufa/lufa-abcminiuser/LUFA/Drivers/USB/Core/AVR8/../AVR8/../AVR8/USBController_AVR8.h **** 			static inline void USB_OTGPAD_Off(void) ATTR_ALWAYS_INLINE;
 374:../../tmk_core/protocol/lufa/lufa-abcminiuser/LUFA/Drivers/USB/Core/AVR8/../AVR8/../AVR8/USBController_AVR8.h **** 			static inline void USB_OTGPAD_Off(void)
 375:../../tmk_core/protocol/lufa/lufa-abcminiuser/LUFA/Drivers/USB/Core/AVR8/../AVR8/../AVR8/USBController_AVR8.h **** 			{
 376:../../tmk_core/protocol/lufa/lufa-abcminiuser/LUFA/Drivers/USB/Core/AVR8/../AVR8/../AVR8/USBController_AVR8.h **** 				USBCON &= ~(1 << OTGPADE);
 377:../../tmk_core/protocol/lufa/lufa-abcminiuser/LUFA/Drivers/USB/Core/AVR8/../AVR8/../AVR8/USBController_AVR8.h **** 			}
 378:../../tmk_core/protocol/lufa/lufa-abcminiuser/LUFA/Drivers/USB/Core/AVR8/../AVR8/../AVR8/USBController_AVR8.h **** 			#endif
 379:../../tmk_core/protocol/lufa/lufa-abcminiuser/LUFA/Drivers/USB/Core/AVR8/../AVR8/../AVR8/USBController_AVR8.h **** 
 380:../../tmk_core/protocol/lufa/lufa-abcminiuser/LUFA/Drivers/USB/Core/AVR8/../AVR8/../AVR8/USBController_AVR8.h **** 			static inline void USB_CLK_Freeze(void) ATTR_ALWAYS_INLINE;
 381:../../tmk_core/protocol/lufa/lufa-abcminiuser/LUFA/Drivers/USB/Core/AVR8/../AVR8/../AVR8/USBController_AVR8.h **** 			static inline void USB_CLK_Freeze(void)
 355               		.loc 3 381 23 view .LVU102
 356               	.LBB117:
 382:../../tmk_core/protocol/lufa/lufa-abcminiuser/LUFA/Drivers/USB/Core/AVR8/../AVR8/../AVR8/USBController_AVR8.h **** 			{
 383:../../tmk_core/protocol/lufa/lufa-abcminiuser/LUFA/Drivers/USB/Core/AVR8/../AVR8/../AVR8/USBController_AVR8.h **** 				USBCON |=  (1 << FRZCLK);
 357               		.loc 3 383 5 view .LVU103
 358               		.loc 3 383 12 is_stmt 0 view .LVU104
 359 009e 8091 D800 		lds r24,216
 360 00a2 8062      		ori r24,lo8(32)
 361 00a4 8093 D800 		sts 216,r24
 362               	.LBE117:
 363               	.LBE116:
 122:../../tmk_core/protocol/lufa/lufa-abcminiuser/LUFA/Drivers/USB/Core/AVR8/USBInterrupt_AVR8.c **** 
 123:../../tmk_core/protocol/lufa/lufa-abcminiuser/LUFA/Drivers/USB/Core/AVR8/USBInterrupt_AVR8.c **** 		if (!(USB_Options & USB_OPT_MANUAL_PLL))
 364               		.loc 1 123 3 is_stmt 1 view .LVU105
 124:../../tmk_core/protocol/lufa/lufa-abcminiuser/LUFA/Drivers/USB/Core/AVR8/USBInterrupt_AVR8.c **** 		  USB_PLL_Off();
 365               		.loc 1 124 5 view .LVU106
 366               	.LBB118:
 367               	.LBI118:
 335:../../tmk_core/protocol/lufa/lufa-abcminiuser/LUFA/Drivers/USB/Core/AVR8/../AVR8/../AVR8/USBController_AVR8.h **** 			{
 368               		.loc 3 335 23 view .LVU107
 369               	.LBB119:
 337:../../tmk_core/protocol/lufa/lufa-abcminiuser/LUFA/Drivers/USB/Core/AVR8/../AVR8/../AVR8/USBController_AVR8.h **** 			}
 370               		.loc 3 337 5 view .LVU108
 337:../../tmk_core/protocol/lufa/lufa-abcminiuser/LUFA/Drivers/USB/Core/AVR8/../AVR8/../AVR8/USBController_AVR8.h **** 			}
 371               		.loc 3 337 12 is_stmt 0 view .LVU109
 372 00a8 19BC      		out 0x29,__zero_reg__
 373               	.LBE119:
 374               	.LBE118:
 125:../../tmk_core/protocol/lufa/lufa-abcminiuser/LUFA/Drivers/USB/Core/AVR8/USBInterrupt_AVR8.c **** 
 126:../../tmk_core/protocol/lufa/lufa-abcminiuser/LUFA/Drivers/USB/Core/AVR8/USBInterrupt_AVR8.c **** 		#if defined(USB_SERIES_2_AVR) && !defined(NO_LIMITED_CONTROLLER_CONNECT)
 127:../../tmk_core/protocol/lufa/lufa-abcminiuser/LUFA/Drivers/USB/Core/AVR8/USBInterrupt_AVR8.c **** 		USB_DeviceState = DEVICE_STATE_Unattached;
 128:../../tmk_core/protocol/lufa/lufa-abcminiuser/LUFA/Drivers/USB/Core/AVR8/USBInterrupt_AVR8.c **** 		EVENT_USB_Device_Disconnect();
 129:../../tmk_core/protocol/lufa/lufa-abcminiuser/LUFA/Drivers/USB/Core/AVR8/USBInterrupt_AVR8.c **** 		#else
 130:../../tmk_core/protocol/lufa/lufa-abcminiuser/LUFA/Drivers/USB/Core/AVR8/USBInterrupt_AVR8.c **** 		USB_DeviceState = DEVICE_STATE_Suspended;
 375               		.loc 1 130 3 is_stmt 1 view .LVU110
 376               		.loc 1 130 19 is_stmt 0 view .LVU111
 377 00aa 85E0      		ldi r24,lo8(5)
 378 00ac 8093 0000 		sts USB_DeviceState,r24
 131:../../tmk_core/protocol/lufa/lufa-abcminiuser/LUFA/Drivers/USB/Core/AVR8/USBInterrupt_AVR8.c **** 		EVENT_USB_Device_Suspend();
 379               		.loc 1 131 3 is_stmt 1 view .LVU112
 380 00b0 0E94 0000 		call EVENT_USB_Device_Suspend
 381               	.LVL19:
 382               	.L8:
 132:../../tmk_core/protocol/lufa/lufa-abcminiuser/LUFA/Drivers/USB/Core/AVR8/USBInterrupt_AVR8.c **** 		#endif
 133:../../tmk_core/protocol/lufa/lufa-abcminiuser/LUFA/Drivers/USB/Core/AVR8/USBInterrupt_AVR8.c **** 	}
 134:../../tmk_core/protocol/lufa/lufa-abcminiuser/LUFA/Drivers/USB/Core/AVR8/USBInterrupt_AVR8.c **** 
 135:../../tmk_core/protocol/lufa/lufa-abcminiuser/LUFA/Drivers/USB/Core/AVR8/USBInterrupt_AVR8.c **** 	if (USB_INT_HasOccurred(USB_INT_WAKEUPI) && USB_INT_IsEnabled(USB_INT_WAKEUPI))
 383               		.loc 1 135 2 view .LVU113
 384               	.LBB120:
 385               	.LBI120:
 314:../../tmk_core/protocol/lufa/lufa-abcminiuser/LUFA/Drivers/USB/Core/AVR8/../AVR8/USBInterrupt_AVR8.h **** 			{
 386               		.loc 2 314 23 view .LVU114
 387               	.LBB121:
 316:../../tmk_core/protocol/lufa/lufa-abcminiuser/LUFA/Drivers/USB/Core/AVR8/../AVR8/USBInterrupt_AVR8.h **** 				{
 388               		.loc 2 316 5 view .LVU115
 328:../../tmk_core/protocol/lufa/lufa-abcminiuser/LUFA/Drivers/USB/Core/AVR8/../AVR8/USBInterrupt_AVR8.h **** 					case USB_INT_SUSPI:
 389               		.loc 2 328 7 view .LVU116
 328:../../tmk_core/protocol/lufa/lufa-abcminiuser/LUFA/Drivers/USB/Core/AVR8/../AVR8/USBInterrupt_AVR8.h **** 					case USB_INT_SUSPI:
 390               		.loc 2 328 15 is_stmt 0 view .LVU117
 391 00b4 8091 E100 		lds r24,225
 392               	.LVL20:
 328:../../tmk_core/protocol/lufa/lufa-abcminiuser/LUFA/Drivers/USB/Core/AVR8/../AVR8/USBInterrupt_AVR8.h **** 					case USB_INT_SUSPI:
 393               		.loc 2 328 15 view .LVU118
 394               	.LBE121:
 395               	.LBE120:
 396               		.loc 1 135 5 view .LVU119
 397 00b8 84FF      		sbrs r24,4
 398 00ba 00C0      		rjmp .L9
 399               	.LVL21:
 400               	.LBB122:
 401               	.LBI122:
 268:../../tmk_core/protocol/lufa/lufa-abcminiuser/LUFA/Drivers/USB/Core/AVR8/../AVR8/USBInterrupt_AVR8.h **** 			{
 402               		.loc 2 268 23 is_stmt 1 view .LVU120
 403               	.LBB123:
 270:../../tmk_core/protocol/lufa/lufa-abcminiuser/LUFA/Drivers/USB/Core/AVR8/../AVR8/USBInterrupt_AVR8.h **** 				{
 404               		.loc 2 270 5 view .LVU121
 282:../../tmk_core/protocol/lufa/lufa-abcminiuser/LUFA/Drivers/USB/Core/AVR8/../AVR8/USBInterrupt_AVR8.h **** 					case USB_INT_SUSPI:
 405               		.loc 2 282 7 view .LVU122
 282:../../tmk_core/protocol/lufa/lufa-abcminiuser/LUFA/Drivers/USB/Core/AVR8/../AVR8/USBInterrupt_AVR8.h **** 					case USB_INT_SUSPI:
 406               		.loc 2 282 15 is_stmt 0 view .LVU123
 407 00bc 8091 E200 		lds r24,226
 408               	.LVL22:
 282:../../tmk_core/protocol/lufa/lufa-abcminiuser/LUFA/Drivers/USB/Core/AVR8/../AVR8/USBInterrupt_AVR8.h **** 					case USB_INT_SUSPI:
 409               		.loc 2 282 15 view .LVU124
 410               	.LBE123:
 411               	.LBE122:
 412               		.loc 1 135 43 view .LVU125
 413 00c0 84FF      		sbrs r24,4
 414 00c2 00C0      		rjmp .L9
 136:../../tmk_core/protocol/lufa/lufa-abcminiuser/LUFA/Drivers/USB/Core/AVR8/USBInterrupt_AVR8.c **** 	{
 137:../../tmk_core/protocol/lufa/lufa-abcminiuser/LUFA/Drivers/USB/Core/AVR8/USBInterrupt_AVR8.c **** 		if (!(USB_Options & USB_OPT_MANUAL_PLL))
 415               		.loc 1 137 3 is_stmt 1 view .LVU126
 138:../../tmk_core/protocol/lufa/lufa-abcminiuser/LUFA/Drivers/USB/Core/AVR8/USBInterrupt_AVR8.c **** 		{
 139:../../tmk_core/protocol/lufa/lufa-abcminiuser/LUFA/Drivers/USB/Core/AVR8/USBInterrupt_AVR8.c **** 			USB_PLL_On();
 416               		.loc 1 139 4 view .LVU127
 417               	.LBB124:
 418               	.LBI124:
 328:../../tmk_core/protocol/lufa/lufa-abcminiuser/LUFA/Drivers/USB/Core/AVR8/../AVR8/../AVR8/USBController_AVR8.h **** 			{
 419               		.loc 3 328 23 view .LVU128
 420               	.LBB125:
 330:../../tmk_core/protocol/lufa/lufa-abcminiuser/LUFA/Drivers/USB/Core/AVR8/../AVR8/../AVR8/USBController_AVR8.h **** 				PLLCSR = (USB_PLL_PSC | (1 << PLLE));
 421               		.loc 3 330 5 view .LVU129
 330:../../tmk_core/protocol/lufa/lufa-abcminiuser/LUFA/Drivers/USB/Core/AVR8/../AVR8/../AVR8/USBController_AVR8.h **** 				PLLCSR = (USB_PLL_PSC | (1 << PLLE));
 422               		.loc 3 330 12 is_stmt 0 view .LVU130
 423 00c4 80E1      		ldi r24,lo8(16)
 424 00c6 89BD      		out 0x29,r24
 331:../../tmk_core/protocol/lufa/lufa-abcminiuser/LUFA/Drivers/USB/Core/AVR8/../AVR8/../AVR8/USBController_AVR8.h **** 			}
 425               		.loc 3 331 5 is_stmt 1 view .LVU131
 331:../../tmk_core/protocol/lufa/lufa-abcminiuser/LUFA/Drivers/USB/Core/AVR8/../AVR8/../AVR8/USBController_AVR8.h **** 			}
 426               		.loc 3 331 12 is_stmt 0 view .LVU132
 427 00c8 82E1      		ldi r24,lo8(18)
 428 00ca 89BD      		out 0x29,r24
 429               	.L10:
 430               	.LBE125:
 431               	.LBE124:
 140:../../tmk_core/protocol/lufa/lufa-abcminiuser/LUFA/Drivers/USB/Core/AVR8/USBInterrupt_AVR8.c **** 			while (!(USB_PLL_IsReady()));
 432               		.loc 1 140 32 is_stmt 1 discriminator 1 view .LVU133
 433               		.loc 1 140 10 discriminator 1 view .LVU134
 434               	.LBB126:
 435               	.LBI126:
 341:../../tmk_core/protocol/lufa/lufa-abcminiuser/LUFA/Drivers/USB/Core/AVR8/../AVR8/../AVR8/USBController_AVR8.h **** 			{
 436               		.loc 3 341 23 discriminator 1 view .LVU135
 437               	.LBB127:
 343:../../tmk_core/protocol/lufa/lufa-abcminiuser/LUFA/Drivers/USB/Core/AVR8/../AVR8/../AVR8/USBController_AVR8.h **** 			}
 438               		.loc 3 343 5 discriminator 1 view .LVU136
 439               	.LBE127:
 440               	.LBE126:
 441               		.loc 1 140 10 is_stmt 0 discriminator 1 view .LVU137
 442 00cc 09B4      		in __tmp_reg__,0x29
 443 00ce 00FE      		sbrs __tmp_reg__,0
 444 00d0 00C0      		rjmp .L10
 141:../../tmk_core/protocol/lufa/lufa-abcminiuser/LUFA/Drivers/USB/Core/AVR8/USBInterrupt_AVR8.c **** 		}
 142:../../tmk_core/protocol/lufa/lufa-abcminiuser/LUFA/Drivers/USB/Core/AVR8/USBInterrupt_AVR8.c **** 
 143:../../tmk_core/protocol/lufa/lufa-abcminiuser/LUFA/Drivers/USB/Core/AVR8/USBInterrupt_AVR8.c **** 		USB_CLK_Unfreeze();
 445               		.loc 1 143 3 is_stmt 1 view .LVU138
 446               	.LBB128:
 447               	.LBI128:
 384:../../tmk_core/protocol/lufa/lufa-abcminiuser/LUFA/Drivers/USB/Core/AVR8/../AVR8/../AVR8/USBController_AVR8.h **** 			}
 385:../../tmk_core/protocol/lufa/lufa-abcminiuser/LUFA/Drivers/USB/Core/AVR8/../AVR8/../AVR8/USBController_AVR8.h **** 
 386:../../tmk_core/protocol/lufa/lufa-abcminiuser/LUFA/Drivers/USB/Core/AVR8/../AVR8/../AVR8/USBController_AVR8.h **** 			static inline void USB_CLK_Unfreeze(void) ATTR_ALWAYS_INLINE;
 387:../../tmk_core/protocol/lufa/lufa-abcminiuser/LUFA/Drivers/USB/Core/AVR8/../AVR8/../AVR8/USBController_AVR8.h **** 			static inline void USB_CLK_Unfreeze(void)
 448               		.loc 3 387 23 view .LVU139
 449               	.LBB129:
 388:../../tmk_core/protocol/lufa/lufa-abcminiuser/LUFA/Drivers/USB/Core/AVR8/../AVR8/../AVR8/USBController_AVR8.h **** 			{
 389:../../tmk_core/protocol/lufa/lufa-abcminiuser/LUFA/Drivers/USB/Core/AVR8/../AVR8/../AVR8/USBController_AVR8.h **** 				USBCON &= ~(1 << FRZCLK);
 450               		.loc 3 389 5 view .LVU140
 451               		.loc 3 389 12 is_stmt 0 view .LVU141
 452 00d2 8091 D800 		lds r24,216
 453 00d6 8F7D      		andi r24,lo8(-33)
 454 00d8 8093 D800 		sts 216,r24
 455               	.LBE129:
 456               	.LBE128:
 144:../../tmk_core/protocol/lufa/lufa-abcminiuser/LUFA/Drivers/USB/Core/AVR8/USBInterrupt_AVR8.c **** 
 145:../../tmk_core/protocol/lufa/lufa-abcminiuser/LUFA/Drivers/USB/Core/AVR8/USBInterrupt_AVR8.c **** 		USB_INT_Clear(USB_INT_WAKEUPI);
 457               		.loc 1 145 3 is_stmt 1 view .LVU142
 458               	.LVL23:
 459               	.LBB130:
 460               	.LBI130:
 208:../../tmk_core/protocol/lufa/lufa-abcminiuser/LUFA/Drivers/USB/Core/AVR8/../AVR8/USBInterrupt_AVR8.h **** 			{
 461               		.loc 2 208 23 view .LVU143
 462               	.LBB131:
 210:../../tmk_core/protocol/lufa/lufa-abcminiuser/LUFA/Drivers/USB/Core/AVR8/../AVR8/USBInterrupt_AVR8.h **** 				{
 463               		.loc 2 210 5 view .LVU144
 224:../../tmk_core/protocol/lufa/lufa-abcminiuser/LUFA/Drivers/USB/Core/AVR8/../AVR8/USBInterrupt_AVR8.h **** 						break;
 464               		.loc 2 224 7 view .LVU145
 224:../../tmk_core/protocol/lufa/lufa-abcminiuser/LUFA/Drivers/USB/Core/AVR8/../AVR8/USBInterrupt_AVR8.h **** 						break;
 465               		.loc 2 224 14 is_stmt 0 view .LVU146
 466 00dc 8091 E100 		lds r24,225
 467 00e0 8F7E      		andi r24,lo8(-17)
 468 00e2 8093 E100 		sts 225,r24
 225:../../tmk_core/protocol/lufa/lufa-abcminiuser/LUFA/Drivers/USB/Core/AVR8/../AVR8/USBInterrupt_AVR8.h **** 					case USB_INT_SUSPI:
 469               		.loc 2 225 7 is_stmt 1 view .LVU147
 470               	.LVL24:
 225:../../tmk_core/protocol/lufa/lufa-abcminiuser/LUFA/Drivers/USB/Core/AVR8/../AVR8/USBInterrupt_AVR8.h **** 					case USB_INT_SUSPI:
 471               		.loc 2 225 7 is_stmt 0 view .LVU148
 472               	.LBE131:
 473               	.LBE130:
 146:../../tmk_core/protocol/lufa/lufa-abcminiuser/LUFA/Drivers/USB/Core/AVR8/USBInterrupt_AVR8.c **** 
 147:../../tmk_core/protocol/lufa/lufa-abcminiuser/LUFA/Drivers/USB/Core/AVR8/USBInterrupt_AVR8.c **** 		USB_INT_Disable(USB_INT_WAKEUPI);
 474               		.loc 1 147 3 is_stmt 1 view .LVU149
 475               	.LBB132:
 476               	.LBI132:
 148:../../tmk_core/protocol/lufa/lufa-abcminiuser/LUFA/Drivers/USB/Core/AVR8/../AVR8/USBInterrupt_AVR8.h **** 			{
 477               		.loc 2 148 23 view .LVU150
 478               	.LBB133:
 150:../../tmk_core/protocol/lufa/lufa-abcminiuser/LUFA/Drivers/USB/Core/AVR8/../AVR8/USBInterrupt_AVR8.h **** 				{
 479               		.loc 2 150 5 view .LVU151
 164:../../tmk_core/protocol/lufa/lufa-abcminiuser/LUFA/Drivers/USB/Core/AVR8/../AVR8/USBInterrupt_AVR8.h **** 						break;
 480               		.loc 2 164 7 view .LVU152
 164:../../tmk_core/protocol/lufa/lufa-abcminiuser/LUFA/Drivers/USB/Core/AVR8/../AVR8/USBInterrupt_AVR8.h **** 						break;
 481               		.loc 2 164 14 is_stmt 0 view .LVU153
 482 00e6 8091 E200 		lds r24,226
 483 00ea 8F7E      		andi r24,lo8(-17)
 484 00ec 8093 E200 		sts 226,r24
 165:../../tmk_core/protocol/lufa/lufa-abcminiuser/LUFA/Drivers/USB/Core/AVR8/../AVR8/USBInterrupt_AVR8.h **** 					case USB_INT_SUSPI:
 485               		.loc 2 165 7 is_stmt 1 view .LVU154
 486               	.LVL25:
 165:../../tmk_core/protocol/lufa/lufa-abcminiuser/LUFA/Drivers/USB/Core/AVR8/../AVR8/USBInterrupt_AVR8.h **** 					case USB_INT_SUSPI:
 487               		.loc 2 165 7 is_stmt 0 view .LVU155
 488               	.LBE133:
 489               	.LBE132:
 148:../../tmk_core/protocol/lufa/lufa-abcminiuser/LUFA/Drivers/USB/Core/AVR8/USBInterrupt_AVR8.c **** 		USB_INT_Enable(USB_INT_SUSPI);
 490               		.loc 1 148 3 is_stmt 1 view .LVU156
 491               	.LBB134:
 492               	.LBI134:
  88:../../tmk_core/protocol/lufa/lufa-abcminiuser/LUFA/Drivers/USB/Core/AVR8/../AVR8/USBInterrupt_AVR8.h **** 			{
 493               		.loc 2 88 23 view .LVU157
 494               	.LBB135:
  90:../../tmk_core/protocol/lufa/lufa-abcminiuser/LUFA/Drivers/USB/Core/AVR8/../AVR8/USBInterrupt_AVR8.h **** 				{
 495               		.loc 2 90 5 view .LVU158
 107:../../tmk_core/protocol/lufa/lufa-abcminiuser/LUFA/Drivers/USB/Core/AVR8/../AVR8/USBInterrupt_AVR8.h **** 						break;
 496               		.loc 2 107 7 view .LVU159
 107:../../tmk_core/protocol/lufa/lufa-abcminiuser/LUFA/Drivers/USB/Core/AVR8/../AVR8/USBInterrupt_AVR8.h **** 						break;
 497               		.loc 2 107 14 is_stmt 0 view .LVU160
 498 00f0 8091 E200 		lds r24,226
 499 00f4 8160      		ori r24,lo8(1)
 500 00f6 8093 E200 		sts 226,r24
 108:../../tmk_core/protocol/lufa/lufa-abcminiuser/LUFA/Drivers/USB/Core/AVR8/../AVR8/USBInterrupt_AVR8.h **** 					case USB_INT_EORSTI:
 501               		.loc 2 108 7 is_stmt 1 view .LVU161
 502               	.LVL26:
 108:../../tmk_core/protocol/lufa/lufa-abcminiuser/LUFA/Drivers/USB/Core/AVR8/../AVR8/USBInterrupt_AVR8.h **** 					case USB_INT_EORSTI:
 503               		.loc 2 108 7 is_stmt 0 view .LVU162
 504               	.LBE135:
 505               	.LBE134:
 149:../../tmk_core/protocol/lufa/lufa-abcminiuser/LUFA/Drivers/USB/Core/AVR8/USBInterrupt_AVR8.c **** 
 150:../../tmk_core/protocol/lufa/lufa-abcminiuser/LUFA/Drivers/USB/Core/AVR8/USBInterrupt_AVR8.c **** 		if (USB_Device_ConfigurationNumber)
 506               		.loc 1 150 3 is_stmt 1 view .LVU163
 507               		.loc 1 150 6 is_stmt 0 view .LVU164
 508 00fa 8091 0000 		lds r24,USB_Device_ConfigurationNumber
 509 00fe 8823      		tst r24
 510 0100 01F4      		brne .+2
 511 0102 00C0      		rjmp .L11
 151:../../tmk_core/protocol/lufa/lufa-abcminiuser/LUFA/Drivers/USB/Core/AVR8/USBInterrupt_AVR8.c **** 		  USB_DeviceState = DEVICE_STATE_Configured;
 512               		.loc 1 151 5 is_stmt 1 view .LVU165
 513               		.loc 1 151 21 is_stmt 0 view .LVU166
 514 0104 84E0      		ldi r24,lo8(4)
 515               	.L13:
 152:../../tmk_core/protocol/lufa/lufa-abcminiuser/LUFA/Drivers/USB/Core/AVR8/USBInterrupt_AVR8.c **** 		else
 153:../../tmk_core/protocol/lufa/lufa-abcminiuser/LUFA/Drivers/USB/Core/AVR8/USBInterrupt_AVR8.c **** 		  USB_DeviceState = (USB_Device_IsAddressSet()) ? DEVICE_STATE_Addressed : DEVICE_STATE_Powered;
 516               		.loc 1 153 21 discriminator 4 view .LVU167
 517 0106 8093 0000 		sts USB_DeviceState,r24
 154:../../tmk_core/protocol/lufa/lufa-abcminiuser/LUFA/Drivers/USB/Core/AVR8/USBInterrupt_AVR8.c **** 
 155:../../tmk_core/protocol/lufa/lufa-abcminiuser/LUFA/Drivers/USB/Core/AVR8/USBInterrupt_AVR8.c **** 		#if defined(USB_SERIES_2_AVR) && !defined(NO_LIMITED_CONTROLLER_CONNECT)
 156:../../tmk_core/protocol/lufa/lufa-abcminiuser/LUFA/Drivers/USB/Core/AVR8/USBInterrupt_AVR8.c **** 		EVENT_USB_Device_Connect();
 157:../../tmk_core/protocol/lufa/lufa-abcminiuser/LUFA/Drivers/USB/Core/AVR8/USBInterrupt_AVR8.c **** 		#else
 158:../../tmk_core/protocol/lufa/lufa-abcminiuser/LUFA/Drivers/USB/Core/AVR8/USBInterrupt_AVR8.c **** 		EVENT_USB_Device_WakeUp();
 518               		.loc 1 158 3 is_stmt 1 discriminator 4 view .LVU168
 519 010a 0E94 0000 		call EVENT_USB_Device_WakeUp
 520               	.LVL27:
 521               	.L9:
 159:../../tmk_core/protocol/lufa/lufa-abcminiuser/LUFA/Drivers/USB/Core/AVR8/USBInterrupt_AVR8.c **** 		#endif
 160:../../tmk_core/protocol/lufa/lufa-abcminiuser/LUFA/Drivers/USB/Core/AVR8/USBInterrupt_AVR8.c **** 	}
 161:../../tmk_core/protocol/lufa/lufa-abcminiuser/LUFA/Drivers/USB/Core/AVR8/USBInterrupt_AVR8.c **** 
 162:../../tmk_core/protocol/lufa/lufa-abcminiuser/LUFA/Drivers/USB/Core/AVR8/USBInterrupt_AVR8.c **** 	if (USB_INT_HasOccurred(USB_INT_EORSTI) && USB_INT_IsEnabled(USB_INT_EORSTI))
 522               		.loc 1 162 2 view .LVU169
 523               	.LBB136:
 524               	.LBI136:
 314:../../tmk_core/protocol/lufa/lufa-abcminiuser/LUFA/Drivers/USB/Core/AVR8/../AVR8/USBInterrupt_AVR8.h **** 			{
 525               		.loc 2 314 23 view .LVU170
 526               	.LBB137:
 316:../../tmk_core/protocol/lufa/lufa-abcminiuser/LUFA/Drivers/USB/Core/AVR8/../AVR8/USBInterrupt_AVR8.h **** 				{
 527               		.loc 2 316 5 view .LVU171
 332:../../tmk_core/protocol/lufa/lufa-abcminiuser/LUFA/Drivers/USB/Core/AVR8/../AVR8/USBInterrupt_AVR8.h **** 					case USB_INT_SOFI:
 528               		.loc 2 332 7 view .LVU172
 332:../../tmk_core/protocol/lufa/lufa-abcminiuser/LUFA/Drivers/USB/Core/AVR8/../AVR8/USBInterrupt_AVR8.h **** 					case USB_INT_SOFI:
 529               		.loc 2 332 15 is_stmt 0 view .LVU173
 530 010e 8091 E100 		lds r24,225
 531               	.LVL28:
 332:../../tmk_core/protocol/lufa/lufa-abcminiuser/LUFA/Drivers/USB/Core/AVR8/../AVR8/USBInterrupt_AVR8.h **** 					case USB_INT_SOFI:
 532               		.loc 2 332 15 view .LVU174
 533               	.LBE137:
 534               	.LBE136:
 535               		.loc 1 162 5 view .LVU175
 536 0112 83FF      		sbrs r24,3
 537 0114 00C0      		rjmp .L3
 538               	.LVL29:
 539               	.LBB138:
 540               	.LBI138:
 268:../../tmk_core/protocol/lufa/lufa-abcminiuser/LUFA/Drivers/USB/Core/AVR8/../AVR8/USBInterrupt_AVR8.h **** 			{
 541               		.loc 2 268 23 is_stmt 1 view .LVU176
 542               	.LBB139:
 270:../../tmk_core/protocol/lufa/lufa-abcminiuser/LUFA/Drivers/USB/Core/AVR8/../AVR8/USBInterrupt_AVR8.h **** 				{
 543               		.loc 2 270 5 view .LVU177
 286:../../tmk_core/protocol/lufa/lufa-abcminiuser/LUFA/Drivers/USB/Core/AVR8/../AVR8/USBInterrupt_AVR8.h **** 					case USB_INT_SOFI:
 544               		.loc 2 286 7 view .LVU178
 286:../../tmk_core/protocol/lufa/lufa-abcminiuser/LUFA/Drivers/USB/Core/AVR8/../AVR8/USBInterrupt_AVR8.h **** 					case USB_INT_SOFI:
 545               		.loc 2 286 15 is_stmt 0 view .LVU179
 546 0116 8091 E200 		lds r24,226
 547               	.LVL30:
 286:../../tmk_core/protocol/lufa/lufa-abcminiuser/LUFA/Drivers/USB/Core/AVR8/../AVR8/USBInterrupt_AVR8.h **** 					case USB_INT_SOFI:
 548               		.loc 2 286 15 view .LVU180
 549               	.LBE139:
 550               	.LBE138:
 551               		.loc 1 162 42 view .LVU181
 552 011a 83FF      		sbrs r24,3
 553 011c 00C0      		rjmp .L3
 163:../../tmk_core/protocol/lufa/lufa-abcminiuser/LUFA/Drivers/USB/Core/AVR8/USBInterrupt_AVR8.c **** 	{
 164:../../tmk_core/protocol/lufa/lufa-abcminiuser/LUFA/Drivers/USB/Core/AVR8/USBInterrupt_AVR8.c **** 		USB_INT_Clear(USB_INT_EORSTI);
 554               		.loc 1 164 3 is_stmt 1 view .LVU182
 555               	.LVL31:
 556               	.LBB140:
 557               	.LBI140:
 208:../../tmk_core/protocol/lufa/lufa-abcminiuser/LUFA/Drivers/USB/Core/AVR8/../AVR8/USBInterrupt_AVR8.h **** 			{
 558               		.loc 2 208 23 view .LVU183
 559               	.LBB141:
 210:../../tmk_core/protocol/lufa/lufa-abcminiuser/LUFA/Drivers/USB/Core/AVR8/../AVR8/USBInterrupt_AVR8.h **** 				{
 560               		.loc 2 210 5 view .LVU184
 230:../../tmk_core/protocol/lufa/lufa-abcminiuser/LUFA/Drivers/USB/Core/AVR8/../AVR8/USBInterrupt_AVR8.h **** 						break;
 561               		.loc 2 230 7 view .LVU185
 230:../../tmk_core/protocol/lufa/lufa-abcminiuser/LUFA/Drivers/USB/Core/AVR8/../AVR8/USBInterrupt_AVR8.h **** 						break;
 562               		.loc 2 230 14 is_stmt 0 view .LVU186
 563 011e 8091 E100 		lds r24,225
 564 0122 877F      		andi r24,lo8(-9)
 565 0124 8093 E100 		sts 225,r24
 231:../../tmk_core/protocol/lufa/lufa-abcminiuser/LUFA/Drivers/USB/Core/AVR8/../AVR8/USBInterrupt_AVR8.h **** 					case USB_INT_SOFI:
 566               		.loc 2 231 7 is_stmt 1 view .LVU187
 567               	.LVL32:
 231:../../tmk_core/protocol/lufa/lufa-abcminiuser/LUFA/Drivers/USB/Core/AVR8/../AVR8/USBInterrupt_AVR8.h **** 					case USB_INT_SOFI:
 568               		.loc 2 231 7 is_stmt 0 view .LVU188
 569               	.LBE141:
 570               	.LBE140:
 165:../../tmk_core/protocol/lufa/lufa-abcminiuser/LUFA/Drivers/USB/Core/AVR8/USBInterrupt_AVR8.c **** 
 166:../../tmk_core/protocol/lufa/lufa-abcminiuser/LUFA/Drivers/USB/Core/AVR8/USBInterrupt_AVR8.c **** 		USB_DeviceState                = DEVICE_STATE_Default;
 571               		.loc 1 166 3 is_stmt 1 view .LVU189
 572               		.loc 1 166 34 is_stmt 0 view .LVU190
 573 0128 82E0      		ldi r24,lo8(2)
 574 012a 8093 0000 		sts USB_DeviceState,r24
 167:../../tmk_core/protocol/lufa/lufa-abcminiuser/LUFA/Drivers/USB/Core/AVR8/USBInterrupt_AVR8.c **** 		USB_Device_ConfigurationNumber = 0;
 575               		.loc 1 167 3 is_stmt 1 view .LVU191
 576               		.loc 1 167 34 is_stmt 0 view .LVU192
 577 012e 1092 0000 		sts USB_Device_ConfigurationNumber,__zero_reg__
 168:../../tmk_core/protocol/lufa/lufa-abcminiuser/LUFA/Drivers/USB/Core/AVR8/USBInterrupt_AVR8.c **** 
 169:../../tmk_core/protocol/lufa/lufa-abcminiuser/LUFA/Drivers/USB/Core/AVR8/USBInterrupt_AVR8.c **** 		USB_INT_Clear(USB_INT_SUSPI);
 578               		.loc 1 169 3 is_stmt 1 view .LVU193
 579               	.LVL33:
 580               	.LBB142:
 581               	.LBI142:
 208:../../tmk_core/protocol/lufa/lufa-abcminiuser/LUFA/Drivers/USB/Core/AVR8/../AVR8/USBInterrupt_AVR8.h **** 			{
 582               		.loc 2 208 23 view .LVU194
 583               	.LBB143:
 210:../../tmk_core/protocol/lufa/lufa-abcminiuser/LUFA/Drivers/USB/Core/AVR8/../AVR8/USBInterrupt_AVR8.h **** 				{
 584               		.loc 2 210 5 view .LVU195
 227:../../tmk_core/protocol/lufa/lufa-abcminiuser/LUFA/Drivers/USB/Core/AVR8/../AVR8/USBInterrupt_AVR8.h **** 						break;
 585               		.loc 2 227 7 view .LVU196
 227:../../tmk_core/protocol/lufa/lufa-abcminiuser/LUFA/Drivers/USB/Core/AVR8/../AVR8/USBInterrupt_AVR8.h **** 						break;
 586               		.loc 2 227 14 is_stmt 0 view .LVU197
 587 0132 8091 E100 		lds r24,225
 588 0136 8E7F      		andi r24,lo8(-2)
 589 0138 8093 E100 		sts 225,r24
 228:../../tmk_core/protocol/lufa/lufa-abcminiuser/LUFA/Drivers/USB/Core/AVR8/../AVR8/USBInterrupt_AVR8.h **** 					case USB_INT_EORSTI:
 590               		.loc 2 228 7 is_stmt 1 view .LVU198
 591               	.LVL34:
 228:../../tmk_core/protocol/lufa/lufa-abcminiuser/LUFA/Drivers/USB/Core/AVR8/../AVR8/USBInterrupt_AVR8.h **** 					case USB_INT_EORSTI:
 592               		.loc 2 228 7 is_stmt 0 view .LVU199
 593               	.LBE143:
 594               	.LBE142:
 170:../../tmk_core/protocol/lufa/lufa-abcminiuser/LUFA/Drivers/USB/Core/AVR8/USBInterrupt_AVR8.c **** 		USB_INT_Disable(USB_INT_SUSPI);
 595               		.loc 1 170 3 is_stmt 1 view .LVU200
 596               	.LBB144:
 597               	.LBI144:
 148:../../tmk_core/protocol/lufa/lufa-abcminiuser/LUFA/Drivers/USB/Core/AVR8/../AVR8/USBInterrupt_AVR8.h **** 			{
 598               		.loc 2 148 23 view .LVU201
 599               	.LBB145:
 150:../../tmk_core/protocol/lufa/lufa-abcminiuser/LUFA/Drivers/USB/Core/AVR8/../AVR8/USBInterrupt_AVR8.h **** 				{
 600               		.loc 2 150 5 view .LVU202
 167:../../tmk_core/protocol/lufa/lufa-abcminiuser/LUFA/Drivers/USB/Core/AVR8/../AVR8/USBInterrupt_AVR8.h **** 						break;
 601               		.loc 2 167 7 view .LVU203
 167:../../tmk_core/protocol/lufa/lufa-abcminiuser/LUFA/Drivers/USB/Core/AVR8/../AVR8/USBInterrupt_AVR8.h **** 						break;
 602               		.loc 2 167 14 is_stmt 0 view .LVU204
 603 013c 8091 E200 		lds r24,226
 604 0140 8E7F      		andi r24,lo8(-2)
 605 0142 8093 E200 		sts 226,r24
 168:../../tmk_core/protocol/lufa/lufa-abcminiuser/LUFA/Drivers/USB/Core/AVR8/../AVR8/USBInterrupt_AVR8.h **** 					case USB_INT_EORSTI:
 606               		.loc 2 168 7 is_stmt 1 view .LVU205
 607               	.LVL35:
 168:../../tmk_core/protocol/lufa/lufa-abcminiuser/LUFA/Drivers/USB/Core/AVR8/../AVR8/USBInterrupt_AVR8.h **** 					case USB_INT_EORSTI:
 608               		.loc 2 168 7 is_stmt 0 view .LVU206
 609               	.LBE145:
 610               	.LBE144:
 171:../../tmk_core/protocol/lufa/lufa-abcminiuser/LUFA/Drivers/USB/Core/AVR8/USBInterrupt_AVR8.c **** 		USB_INT_Enable(USB_INT_WAKEUPI);
 611               		.loc 1 171 3 is_stmt 1 view .LVU207
 612               	.LBB146:
 613               	.LBI146:
  88:../../tmk_core/protocol/lufa/lufa-abcminiuser/LUFA/Drivers/USB/Core/AVR8/../AVR8/USBInterrupt_AVR8.h **** 			{
 614               		.loc 2 88 23 view .LVU208
 615               	.LBB147:
  90:../../tmk_core/protocol/lufa/lufa-abcminiuser/LUFA/Drivers/USB/Core/AVR8/../AVR8/USBInterrupt_AVR8.h **** 				{
 616               		.loc 2 90 5 view .LVU209
 104:../../tmk_core/protocol/lufa/lufa-abcminiuser/LUFA/Drivers/USB/Core/AVR8/../AVR8/USBInterrupt_AVR8.h **** 						break;
 617               		.loc 2 104 7 view .LVU210
 104:../../tmk_core/protocol/lufa/lufa-abcminiuser/LUFA/Drivers/USB/Core/AVR8/../AVR8/USBInterrupt_AVR8.h **** 						break;
 618               		.loc 2 104 14 is_stmt 0 view .LVU211
 619 0146 8091 E200 		lds r24,226
 620 014a 8061      		ori r24,lo8(16)
 621 014c 8093 E200 		sts 226,r24
 105:../../tmk_core/protocol/lufa/lufa-abcminiuser/LUFA/Drivers/USB/Core/AVR8/../AVR8/USBInterrupt_AVR8.h **** 					case USB_INT_SUSPI:
 622               		.loc 2 105 7 is_stmt 1 view .LVU212
 623               	.LVL36:
 105:../../tmk_core/protocol/lufa/lufa-abcminiuser/LUFA/Drivers/USB/Core/AVR8/../AVR8/USBInterrupt_AVR8.h **** 					case USB_INT_SUSPI:
 624               		.loc 2 105 7 is_stmt 0 view .LVU213
 625               	.LBE147:
 626               	.LBE146:
 172:../../tmk_core/protocol/lufa/lufa-abcminiuser/LUFA/Drivers/USB/Core/AVR8/USBInterrupt_AVR8.c **** 
 173:../../tmk_core/protocol/lufa/lufa-abcminiuser/LUFA/Drivers/USB/Core/AVR8/USBInterrupt_AVR8.c **** 		Endpoint_ConfigureEndpoint(ENDPOINT_CONTROLEP, EP_TYPE_CONTROL,
 627               		.loc 1 173 3 is_stmt 1 view .LVU214
 628               	.LBB148:
 629               	.LBI148:
 630               		.file 4 "../../tmk_core/protocol/lufa/lufa-abcminiuser/LUFA/Drivers/USB/Core/AVR8/../AVR8/../AVR8/
   1:../../tmk_core/protocol/lufa/lufa-abcminiuser/LUFA/Drivers/USB/Core/AVR8/../AVR8/../AVR8/../AVR8/Endpoint_AVR8.h **** /*
   2:../../tmk_core/protocol/lufa/lufa-abcminiuser/LUFA/Drivers/USB/Core/AVR8/../AVR8/../AVR8/../AVR8/Endpoint_AVR8.h ****              LUFA Library
   3:../../tmk_core/protocol/lufa/lufa-abcminiuser/LUFA/Drivers/USB/Core/AVR8/../AVR8/../AVR8/../AVR8/Endpoint_AVR8.h ****      Copyright (C) Dean Camera, 2019.
   4:../../tmk_core/protocol/lufa/lufa-abcminiuser/LUFA/Drivers/USB/Core/AVR8/../AVR8/../AVR8/../AVR8/Endpoint_AVR8.h **** 
   5:../../tmk_core/protocol/lufa/lufa-abcminiuser/LUFA/Drivers/USB/Core/AVR8/../AVR8/../AVR8/../AVR8/Endpoint_AVR8.h ****   dean [at] fourwalledcubicle [dot] com
   6:../../tmk_core/protocol/lufa/lufa-abcminiuser/LUFA/Drivers/USB/Core/AVR8/../AVR8/../AVR8/../AVR8/Endpoint_AVR8.h ****            www.lufa-lib.org
   7:../../tmk_core/protocol/lufa/lufa-abcminiuser/LUFA/Drivers/USB/Core/AVR8/../AVR8/../AVR8/../AVR8/Endpoint_AVR8.h **** */
   8:../../tmk_core/protocol/lufa/lufa-abcminiuser/LUFA/Drivers/USB/Core/AVR8/../AVR8/../AVR8/../AVR8/Endpoint_AVR8.h **** 
   9:../../tmk_core/protocol/lufa/lufa-abcminiuser/LUFA/Drivers/USB/Core/AVR8/../AVR8/../AVR8/../AVR8/Endpoint_AVR8.h **** /*
  10:../../tmk_core/protocol/lufa/lufa-abcminiuser/LUFA/Drivers/USB/Core/AVR8/../AVR8/../AVR8/../AVR8/Endpoint_AVR8.h ****   Copyright 2019  Dean Camera (dean [at] fourwalledcubicle [dot] com)
  11:../../tmk_core/protocol/lufa/lufa-abcminiuser/LUFA/Drivers/USB/Core/AVR8/../AVR8/../AVR8/../AVR8/Endpoint_AVR8.h **** 
  12:../../tmk_core/protocol/lufa/lufa-abcminiuser/LUFA/Drivers/USB/Core/AVR8/../AVR8/../AVR8/../AVR8/Endpoint_AVR8.h ****   Permission to use, copy, modify, distribute, and sell this
  13:../../tmk_core/protocol/lufa/lufa-abcminiuser/LUFA/Drivers/USB/Core/AVR8/../AVR8/../AVR8/../AVR8/Endpoint_AVR8.h ****   software and its documentation for any purpose is hereby granted
  14:../../tmk_core/protocol/lufa/lufa-abcminiuser/LUFA/Drivers/USB/Core/AVR8/../AVR8/../AVR8/../AVR8/Endpoint_AVR8.h ****   without fee, provided that the above copyright notice appear in
  15:../../tmk_core/protocol/lufa/lufa-abcminiuser/LUFA/Drivers/USB/Core/AVR8/../AVR8/../AVR8/../AVR8/Endpoint_AVR8.h ****   all copies and that both that the copyright notice and this
  16:../../tmk_core/protocol/lufa/lufa-abcminiuser/LUFA/Drivers/USB/Core/AVR8/../AVR8/../AVR8/../AVR8/Endpoint_AVR8.h ****   permission notice and warranty disclaimer appear in supporting
  17:../../tmk_core/protocol/lufa/lufa-abcminiuser/LUFA/Drivers/USB/Core/AVR8/../AVR8/../AVR8/../AVR8/Endpoint_AVR8.h ****   documentation, and that the name of the author not be used in
  18:../../tmk_core/protocol/lufa/lufa-abcminiuser/LUFA/Drivers/USB/Core/AVR8/../AVR8/../AVR8/../AVR8/Endpoint_AVR8.h ****   advertising or publicity pertaining to distribution of the
  19:../../tmk_core/protocol/lufa/lufa-abcminiuser/LUFA/Drivers/USB/Core/AVR8/../AVR8/../AVR8/../AVR8/Endpoint_AVR8.h ****   software without specific, written prior permission.
  20:../../tmk_core/protocol/lufa/lufa-abcminiuser/LUFA/Drivers/USB/Core/AVR8/../AVR8/../AVR8/../AVR8/Endpoint_AVR8.h **** 
  21:../../tmk_core/protocol/lufa/lufa-abcminiuser/LUFA/Drivers/USB/Core/AVR8/../AVR8/../AVR8/../AVR8/Endpoint_AVR8.h ****   The author disclaims all warranties with regard to this
  22:../../tmk_core/protocol/lufa/lufa-abcminiuser/LUFA/Drivers/USB/Core/AVR8/../AVR8/../AVR8/../AVR8/Endpoint_AVR8.h ****   software, including all implied warranties of merchantability
  23:../../tmk_core/protocol/lufa/lufa-abcminiuser/LUFA/Drivers/USB/Core/AVR8/../AVR8/../AVR8/../AVR8/Endpoint_AVR8.h ****   and fitness.  In no event shall the author be liable for any
  24:../../tmk_core/protocol/lufa/lufa-abcminiuser/LUFA/Drivers/USB/Core/AVR8/../AVR8/../AVR8/../AVR8/Endpoint_AVR8.h ****   special, indirect or consequential damages or any damages
  25:../../tmk_core/protocol/lufa/lufa-abcminiuser/LUFA/Drivers/USB/Core/AVR8/../AVR8/../AVR8/../AVR8/Endpoint_AVR8.h ****   whatsoever resulting from loss of use, data or profits, whether
  26:../../tmk_core/protocol/lufa/lufa-abcminiuser/LUFA/Drivers/USB/Core/AVR8/../AVR8/../AVR8/../AVR8/Endpoint_AVR8.h ****   in an action of contract, negligence or other tortious action,
  27:../../tmk_core/protocol/lufa/lufa-abcminiuser/LUFA/Drivers/USB/Core/AVR8/../AVR8/../AVR8/../AVR8/Endpoint_AVR8.h ****   arising out of or in connection with the use or performance of
  28:../../tmk_core/protocol/lufa/lufa-abcminiuser/LUFA/Drivers/USB/Core/AVR8/../AVR8/../AVR8/../AVR8/Endpoint_AVR8.h ****   this software.
  29:../../tmk_core/protocol/lufa/lufa-abcminiuser/LUFA/Drivers/USB/Core/AVR8/../AVR8/../AVR8/../AVR8/Endpoint_AVR8.h **** */
  30:../../tmk_core/protocol/lufa/lufa-abcminiuser/LUFA/Drivers/USB/Core/AVR8/../AVR8/../AVR8/../AVR8/Endpoint_AVR8.h **** 
  31:../../tmk_core/protocol/lufa/lufa-abcminiuser/LUFA/Drivers/USB/Core/AVR8/../AVR8/../AVR8/../AVR8/Endpoint_AVR8.h **** /** \file
  32:../../tmk_core/protocol/lufa/lufa-abcminiuser/LUFA/Drivers/USB/Core/AVR8/../AVR8/../AVR8/../AVR8/Endpoint_AVR8.h ****  *  \brief USB Endpoint definitions for the AVR8 microcontrollers.
  33:../../tmk_core/protocol/lufa/lufa-abcminiuser/LUFA/Drivers/USB/Core/AVR8/../AVR8/../AVR8/../AVR8/Endpoint_AVR8.h ****  *  \copydetails Group_EndpointManagement_AVR8
  34:../../tmk_core/protocol/lufa/lufa-abcminiuser/LUFA/Drivers/USB/Core/AVR8/../AVR8/../AVR8/../AVR8/Endpoint_AVR8.h ****  *
  35:../../tmk_core/protocol/lufa/lufa-abcminiuser/LUFA/Drivers/USB/Core/AVR8/../AVR8/../AVR8/../AVR8/Endpoint_AVR8.h ****  *  \note This file should not be included directly. It is automatically included as needed by the 
  36:../../tmk_core/protocol/lufa/lufa-abcminiuser/LUFA/Drivers/USB/Core/AVR8/../AVR8/../AVR8/../AVR8/Endpoint_AVR8.h ****  *        dispatch header located in LUFA/Drivers/USB/USB.h.
  37:../../tmk_core/protocol/lufa/lufa-abcminiuser/LUFA/Drivers/USB/Core/AVR8/../AVR8/../AVR8/../AVR8/Endpoint_AVR8.h ****  */
  38:../../tmk_core/protocol/lufa/lufa-abcminiuser/LUFA/Drivers/USB/Core/AVR8/../AVR8/../AVR8/../AVR8/Endpoint_AVR8.h **** 
  39:../../tmk_core/protocol/lufa/lufa-abcminiuser/LUFA/Drivers/USB/Core/AVR8/../AVR8/../AVR8/../AVR8/Endpoint_AVR8.h **** /** \ingroup Group_EndpointRW
  40:../../tmk_core/protocol/lufa/lufa-abcminiuser/LUFA/Drivers/USB/Core/AVR8/../AVR8/../AVR8/../AVR8/Endpoint_AVR8.h ****  *  \defgroup Group_EndpointRW_AVR8 Endpoint Data Reading and Writing (AVR8)
  41:../../tmk_core/protocol/lufa/lufa-abcminiuser/LUFA/Drivers/USB/Core/AVR8/../AVR8/../AVR8/../AVR8/Endpoint_AVR8.h ****  *  \brief Endpoint data read/write definitions for the Atmel AVR8 architecture.
  42:../../tmk_core/protocol/lufa/lufa-abcminiuser/LUFA/Drivers/USB/Core/AVR8/../AVR8/../AVR8/../AVR8/Endpoint_AVR8.h ****  *
  43:../../tmk_core/protocol/lufa/lufa-abcminiuser/LUFA/Drivers/USB/Core/AVR8/../AVR8/../AVR8/../AVR8/Endpoint_AVR8.h ****  *  Functions, macros, variables, enums and types related to data reading and writing from and to e
  44:../../tmk_core/protocol/lufa/lufa-abcminiuser/LUFA/Drivers/USB/Core/AVR8/../AVR8/../AVR8/../AVR8/Endpoint_AVR8.h ****  */
  45:../../tmk_core/protocol/lufa/lufa-abcminiuser/LUFA/Drivers/USB/Core/AVR8/../AVR8/../AVR8/../AVR8/Endpoint_AVR8.h **** 
  46:../../tmk_core/protocol/lufa/lufa-abcminiuser/LUFA/Drivers/USB/Core/AVR8/../AVR8/../AVR8/../AVR8/Endpoint_AVR8.h **** /** \ingroup Group_EndpointPrimitiveRW
  47:../../tmk_core/protocol/lufa/lufa-abcminiuser/LUFA/Drivers/USB/Core/AVR8/../AVR8/../AVR8/../AVR8/Endpoint_AVR8.h ****  *  \defgroup Group_EndpointPrimitiveRW_AVR8 Read/Write of Primitive Data Types (AVR8)
  48:../../tmk_core/protocol/lufa/lufa-abcminiuser/LUFA/Drivers/USB/Core/AVR8/../AVR8/../AVR8/../AVR8/Endpoint_AVR8.h ****  *  \brief Endpoint primitive read/write definitions for the Atmel AVR8 architecture.
  49:../../tmk_core/protocol/lufa/lufa-abcminiuser/LUFA/Drivers/USB/Core/AVR8/../AVR8/../AVR8/../AVR8/Endpoint_AVR8.h ****  *
  50:../../tmk_core/protocol/lufa/lufa-abcminiuser/LUFA/Drivers/USB/Core/AVR8/../AVR8/../AVR8/../AVR8/Endpoint_AVR8.h ****  *  Functions, macros, variables, enums and types related to data reading and writing of primitive 
  51:../../tmk_core/protocol/lufa/lufa-abcminiuser/LUFA/Drivers/USB/Core/AVR8/../AVR8/../AVR8/../AVR8/Endpoint_AVR8.h ****  *  from and to endpoints.
  52:../../tmk_core/protocol/lufa/lufa-abcminiuser/LUFA/Drivers/USB/Core/AVR8/../AVR8/../AVR8/../AVR8/Endpoint_AVR8.h ****  */
  53:../../tmk_core/protocol/lufa/lufa-abcminiuser/LUFA/Drivers/USB/Core/AVR8/../AVR8/../AVR8/../AVR8/Endpoint_AVR8.h **** 
  54:../../tmk_core/protocol/lufa/lufa-abcminiuser/LUFA/Drivers/USB/Core/AVR8/../AVR8/../AVR8/../AVR8/Endpoint_AVR8.h **** /** \ingroup Group_EndpointPacketManagement
  55:../../tmk_core/protocol/lufa/lufa-abcminiuser/LUFA/Drivers/USB/Core/AVR8/../AVR8/../AVR8/../AVR8/Endpoint_AVR8.h ****  *  \defgroup Group_EndpointPacketManagement_AVR8 Endpoint Packet Management (AVR8)
  56:../../tmk_core/protocol/lufa/lufa-abcminiuser/LUFA/Drivers/USB/Core/AVR8/../AVR8/../AVR8/../AVR8/Endpoint_AVR8.h ****  *  \brief Endpoint packet management definitions for the Atmel AVR8 architecture.
  57:../../tmk_core/protocol/lufa/lufa-abcminiuser/LUFA/Drivers/USB/Core/AVR8/../AVR8/../AVR8/../AVR8/Endpoint_AVR8.h ****  *
  58:../../tmk_core/protocol/lufa/lufa-abcminiuser/LUFA/Drivers/USB/Core/AVR8/../AVR8/../AVR8/../AVR8/Endpoint_AVR8.h ****  *  Functions, macros, variables, enums and types related to packet management of endpoints.
  59:../../tmk_core/protocol/lufa/lufa-abcminiuser/LUFA/Drivers/USB/Core/AVR8/../AVR8/../AVR8/../AVR8/Endpoint_AVR8.h ****  */
  60:../../tmk_core/protocol/lufa/lufa-abcminiuser/LUFA/Drivers/USB/Core/AVR8/../AVR8/../AVR8/../AVR8/Endpoint_AVR8.h **** 
  61:../../tmk_core/protocol/lufa/lufa-abcminiuser/LUFA/Drivers/USB/Core/AVR8/../AVR8/../AVR8/../AVR8/Endpoint_AVR8.h **** /** \ingroup Group_EndpointManagement
  62:../../tmk_core/protocol/lufa/lufa-abcminiuser/LUFA/Drivers/USB/Core/AVR8/../AVR8/../AVR8/../AVR8/Endpoint_AVR8.h ****  *  \defgroup Group_EndpointManagement_AVR8 Endpoint Management (AVR8)
  63:../../tmk_core/protocol/lufa/lufa-abcminiuser/LUFA/Drivers/USB/Core/AVR8/../AVR8/../AVR8/../AVR8/Endpoint_AVR8.h ****  *  \brief Endpoint management definitions for the Atmel AVR8 architecture.
  64:../../tmk_core/protocol/lufa/lufa-abcminiuser/LUFA/Drivers/USB/Core/AVR8/../AVR8/../AVR8/../AVR8/Endpoint_AVR8.h ****  *
  65:../../tmk_core/protocol/lufa/lufa-abcminiuser/LUFA/Drivers/USB/Core/AVR8/../AVR8/../AVR8/../AVR8/Endpoint_AVR8.h ****  *  Functions, macros and enums related to endpoint management when in USB Device mode. This
  66:../../tmk_core/protocol/lufa/lufa-abcminiuser/LUFA/Drivers/USB/Core/AVR8/../AVR8/../AVR8/../AVR8/Endpoint_AVR8.h ****  *  module contains the endpoint management macros, as well as endpoint interrupt and data
  67:../../tmk_core/protocol/lufa/lufa-abcminiuser/LUFA/Drivers/USB/Core/AVR8/../AVR8/../AVR8/../AVR8/Endpoint_AVR8.h ****  *  send/receive functions for various data types.
  68:../../tmk_core/protocol/lufa/lufa-abcminiuser/LUFA/Drivers/USB/Core/AVR8/../AVR8/../AVR8/../AVR8/Endpoint_AVR8.h ****  *
  69:../../tmk_core/protocol/lufa/lufa-abcminiuser/LUFA/Drivers/USB/Core/AVR8/../AVR8/../AVR8/../AVR8/Endpoint_AVR8.h ****  *  @{
  70:../../tmk_core/protocol/lufa/lufa-abcminiuser/LUFA/Drivers/USB/Core/AVR8/../AVR8/../AVR8/../AVR8/Endpoint_AVR8.h ****  */
  71:../../tmk_core/protocol/lufa/lufa-abcminiuser/LUFA/Drivers/USB/Core/AVR8/../AVR8/../AVR8/../AVR8/Endpoint_AVR8.h **** 
  72:../../tmk_core/protocol/lufa/lufa-abcminiuser/LUFA/Drivers/USB/Core/AVR8/../AVR8/../AVR8/../AVR8/Endpoint_AVR8.h **** #ifndef __ENDPOINT_AVR8_H__
  73:../../tmk_core/protocol/lufa/lufa-abcminiuser/LUFA/Drivers/USB/Core/AVR8/../AVR8/../AVR8/../AVR8/Endpoint_AVR8.h **** #define __ENDPOINT_AVR8_H__
  74:../../tmk_core/protocol/lufa/lufa-abcminiuser/LUFA/Drivers/USB/Core/AVR8/../AVR8/../AVR8/../AVR8/Endpoint_AVR8.h **** 
  75:../../tmk_core/protocol/lufa/lufa-abcminiuser/LUFA/Drivers/USB/Core/AVR8/../AVR8/../AVR8/../AVR8/Endpoint_AVR8.h **** 	/* Includes: */
  76:../../tmk_core/protocol/lufa/lufa-abcminiuser/LUFA/Drivers/USB/Core/AVR8/../AVR8/../AVR8/../AVR8/Endpoint_AVR8.h **** 		#include "../../../../Common/Common.h"
  77:../../tmk_core/protocol/lufa/lufa-abcminiuser/LUFA/Drivers/USB/Core/AVR8/../AVR8/../AVR8/../AVR8/Endpoint_AVR8.h **** 		#include "../USBTask.h"
  78:../../tmk_core/protocol/lufa/lufa-abcminiuser/LUFA/Drivers/USB/Core/AVR8/../AVR8/../AVR8/../AVR8/Endpoint_AVR8.h **** 		#include "../USBInterrupt.h"
  79:../../tmk_core/protocol/lufa/lufa-abcminiuser/LUFA/Drivers/USB/Core/AVR8/../AVR8/../AVR8/../AVR8/Endpoint_AVR8.h **** 
  80:../../tmk_core/protocol/lufa/lufa-abcminiuser/LUFA/Drivers/USB/Core/AVR8/../AVR8/../AVR8/../AVR8/Endpoint_AVR8.h **** 	/* Enable C linkage for C++ Compilers: */
  81:../../tmk_core/protocol/lufa/lufa-abcminiuser/LUFA/Drivers/USB/Core/AVR8/../AVR8/../AVR8/../AVR8/Endpoint_AVR8.h **** 		#if defined(__cplusplus)
  82:../../tmk_core/protocol/lufa/lufa-abcminiuser/LUFA/Drivers/USB/Core/AVR8/../AVR8/../AVR8/../AVR8/Endpoint_AVR8.h **** 			extern "C" {
  83:../../tmk_core/protocol/lufa/lufa-abcminiuser/LUFA/Drivers/USB/Core/AVR8/../AVR8/../AVR8/../AVR8/Endpoint_AVR8.h **** 		#endif
  84:../../tmk_core/protocol/lufa/lufa-abcminiuser/LUFA/Drivers/USB/Core/AVR8/../AVR8/../AVR8/../AVR8/Endpoint_AVR8.h **** 
  85:../../tmk_core/protocol/lufa/lufa-abcminiuser/LUFA/Drivers/USB/Core/AVR8/../AVR8/../AVR8/../AVR8/Endpoint_AVR8.h **** 	/* Preprocessor Checks: */
  86:../../tmk_core/protocol/lufa/lufa-abcminiuser/LUFA/Drivers/USB/Core/AVR8/../AVR8/../AVR8/../AVR8/Endpoint_AVR8.h **** 		#if !defined(__INCLUDE_FROM_USB_DRIVER)
  87:../../tmk_core/protocol/lufa/lufa-abcminiuser/LUFA/Drivers/USB/Core/AVR8/../AVR8/../AVR8/../AVR8/Endpoint_AVR8.h **** 			#error Do not include this file directly. Include LUFA/Drivers/USB/USB.h instead.
  88:../../tmk_core/protocol/lufa/lufa-abcminiuser/LUFA/Drivers/USB/Core/AVR8/../AVR8/../AVR8/../AVR8/Endpoint_AVR8.h **** 		#endif
  89:../../tmk_core/protocol/lufa/lufa-abcminiuser/LUFA/Drivers/USB/Core/AVR8/../AVR8/../AVR8/../AVR8/Endpoint_AVR8.h **** 
  90:../../tmk_core/protocol/lufa/lufa-abcminiuser/LUFA/Drivers/USB/Core/AVR8/../AVR8/../AVR8/../AVR8/Endpoint_AVR8.h **** 	/* Private Interface - For use in library only: */
  91:../../tmk_core/protocol/lufa/lufa-abcminiuser/LUFA/Drivers/USB/Core/AVR8/../AVR8/../AVR8/../AVR8/Endpoint_AVR8.h **** 	#if !defined(__DOXYGEN__)
  92:../../tmk_core/protocol/lufa/lufa-abcminiuser/LUFA/Drivers/USB/Core/AVR8/../AVR8/../AVR8/../AVR8/Endpoint_AVR8.h **** 		/* Inline Functions: */
  93:../../tmk_core/protocol/lufa/lufa-abcminiuser/LUFA/Drivers/USB/Core/AVR8/../AVR8/../AVR8/../AVR8/Endpoint_AVR8.h **** 			static inline uint8_t Endpoint_BytesToEPSizeMask(const uint16_t Bytes) ATTR_WARN_UNUSED_RESULT A
  94:../../tmk_core/protocol/lufa/lufa-abcminiuser/LUFA/Drivers/USB/Core/AVR8/../AVR8/../AVR8/../AVR8/Endpoint_AVR8.h **** 			                                                                       ATTR_ALWAYS_INLINE;
  95:../../tmk_core/protocol/lufa/lufa-abcminiuser/LUFA/Drivers/USB/Core/AVR8/../AVR8/../AVR8/../AVR8/Endpoint_AVR8.h **** 			static inline uint8_t Endpoint_BytesToEPSizeMask(const uint16_t Bytes)
  96:../../tmk_core/protocol/lufa/lufa-abcminiuser/LUFA/Drivers/USB/Core/AVR8/../AVR8/../AVR8/../AVR8/Endpoint_AVR8.h **** 			{
  97:../../tmk_core/protocol/lufa/lufa-abcminiuser/LUFA/Drivers/USB/Core/AVR8/../AVR8/../AVR8/../AVR8/Endpoint_AVR8.h **** 				uint8_t  MaskVal    = 0;
  98:../../tmk_core/protocol/lufa/lufa-abcminiuser/LUFA/Drivers/USB/Core/AVR8/../AVR8/../AVR8/../AVR8/Endpoint_AVR8.h **** 				uint16_t CheckBytes = 8;
  99:../../tmk_core/protocol/lufa/lufa-abcminiuser/LUFA/Drivers/USB/Core/AVR8/../AVR8/../AVR8/../AVR8/Endpoint_AVR8.h **** 
 100:../../tmk_core/protocol/lufa/lufa-abcminiuser/LUFA/Drivers/USB/Core/AVR8/../AVR8/../AVR8/../AVR8/Endpoint_AVR8.h **** 				while (CheckBytes < Bytes)
 101:../../tmk_core/protocol/lufa/lufa-abcminiuser/LUFA/Drivers/USB/Core/AVR8/../AVR8/../AVR8/../AVR8/Endpoint_AVR8.h **** 				{
 102:../../tmk_core/protocol/lufa/lufa-abcminiuser/LUFA/Drivers/USB/Core/AVR8/../AVR8/../AVR8/../AVR8/Endpoint_AVR8.h **** 					MaskVal++;
 103:../../tmk_core/protocol/lufa/lufa-abcminiuser/LUFA/Drivers/USB/Core/AVR8/../AVR8/../AVR8/../AVR8/Endpoint_AVR8.h **** 					CheckBytes <<= 1;
 104:../../tmk_core/protocol/lufa/lufa-abcminiuser/LUFA/Drivers/USB/Core/AVR8/../AVR8/../AVR8/../AVR8/Endpoint_AVR8.h **** 				}
 105:../../tmk_core/protocol/lufa/lufa-abcminiuser/LUFA/Drivers/USB/Core/AVR8/../AVR8/../AVR8/../AVR8/Endpoint_AVR8.h **** 
 106:../../tmk_core/protocol/lufa/lufa-abcminiuser/LUFA/Drivers/USB/Core/AVR8/../AVR8/../AVR8/../AVR8/Endpoint_AVR8.h **** 				return (MaskVal << EPSIZE0);
 107:../../tmk_core/protocol/lufa/lufa-abcminiuser/LUFA/Drivers/USB/Core/AVR8/../AVR8/../AVR8/../AVR8/Endpoint_AVR8.h **** 			}
 108:../../tmk_core/protocol/lufa/lufa-abcminiuser/LUFA/Drivers/USB/Core/AVR8/../AVR8/../AVR8/../AVR8/Endpoint_AVR8.h **** 
 109:../../tmk_core/protocol/lufa/lufa-abcminiuser/LUFA/Drivers/USB/Core/AVR8/../AVR8/../AVR8/../AVR8/Endpoint_AVR8.h **** 		/* Function Prototypes: */
 110:../../tmk_core/protocol/lufa/lufa-abcminiuser/LUFA/Drivers/USB/Core/AVR8/../AVR8/../AVR8/../AVR8/Endpoint_AVR8.h **** 			void Endpoint_ClearEndpoints(void);
 111:../../tmk_core/protocol/lufa/lufa-abcminiuser/LUFA/Drivers/USB/Core/AVR8/../AVR8/../AVR8/../AVR8/Endpoint_AVR8.h **** 			bool Endpoint_ConfigureEndpoint_Prv(const uint8_t Number,
 112:../../tmk_core/protocol/lufa/lufa-abcminiuser/LUFA/Drivers/USB/Core/AVR8/../AVR8/../AVR8/../AVR8/Endpoint_AVR8.h **** 			                                    const uint8_t UECFG0XData,
 113:../../tmk_core/protocol/lufa/lufa-abcminiuser/LUFA/Drivers/USB/Core/AVR8/../AVR8/../AVR8/../AVR8/Endpoint_AVR8.h **** 			                                    const uint8_t UECFG1XData);
 114:../../tmk_core/protocol/lufa/lufa-abcminiuser/LUFA/Drivers/USB/Core/AVR8/../AVR8/../AVR8/../AVR8/Endpoint_AVR8.h **** 
 115:../../tmk_core/protocol/lufa/lufa-abcminiuser/LUFA/Drivers/USB/Core/AVR8/../AVR8/../AVR8/../AVR8/Endpoint_AVR8.h **** 	#endif
 116:../../tmk_core/protocol/lufa/lufa-abcminiuser/LUFA/Drivers/USB/Core/AVR8/../AVR8/../AVR8/../AVR8/Endpoint_AVR8.h **** 
 117:../../tmk_core/protocol/lufa/lufa-abcminiuser/LUFA/Drivers/USB/Core/AVR8/../AVR8/../AVR8/../AVR8/Endpoint_AVR8.h **** 	/* Public Interface - May be used in end-application: */
 118:../../tmk_core/protocol/lufa/lufa-abcminiuser/LUFA/Drivers/USB/Core/AVR8/../AVR8/../AVR8/../AVR8/Endpoint_AVR8.h **** 		/* Macros: */
 119:../../tmk_core/protocol/lufa/lufa-abcminiuser/LUFA/Drivers/USB/Core/AVR8/../AVR8/../AVR8/../AVR8/Endpoint_AVR8.h **** 			#if (!defined(FIXED_CONTROL_ENDPOINT_SIZE) || defined(__DOXYGEN__))
 120:../../tmk_core/protocol/lufa/lufa-abcminiuser/LUFA/Drivers/USB/Core/AVR8/../AVR8/../AVR8/../AVR8/Endpoint_AVR8.h **** 				/** Default size of the default control endpoint's bank, until altered by the control endpoint 
 121:../../tmk_core/protocol/lufa/lufa-abcminiuser/LUFA/Drivers/USB/Core/AVR8/../AVR8/../AVR8/../AVR8/Endpoint_AVR8.h **** 				 *  value in the device descriptor. Not available if the \c FIXED_CONTROL_ENDPOINT_SIZE token i
 122:../../tmk_core/protocol/lufa/lufa-abcminiuser/LUFA/Drivers/USB/Core/AVR8/../AVR8/../AVR8/../AVR8/Endpoint_AVR8.h **** 				 */
 123:../../tmk_core/protocol/lufa/lufa-abcminiuser/LUFA/Drivers/USB/Core/AVR8/../AVR8/../AVR8/../AVR8/Endpoint_AVR8.h **** 				#define ENDPOINT_CONTROLEP_DEFAULT_SIZE     8
 124:../../tmk_core/protocol/lufa/lufa-abcminiuser/LUFA/Drivers/USB/Core/AVR8/../AVR8/../AVR8/../AVR8/Endpoint_AVR8.h **** 			#endif
 125:../../tmk_core/protocol/lufa/lufa-abcminiuser/LUFA/Drivers/USB/Core/AVR8/../AVR8/../AVR8/../AVR8/Endpoint_AVR8.h **** 
 126:../../tmk_core/protocol/lufa/lufa-abcminiuser/LUFA/Drivers/USB/Core/AVR8/../AVR8/../AVR8/../AVR8/Endpoint_AVR8.h **** 			#if !defined(CONTROL_ONLY_DEVICE) || defined(__DOXYGEN__)
 127:../../tmk_core/protocol/lufa/lufa-abcminiuser/LUFA/Drivers/USB/Core/AVR8/../AVR8/../AVR8/../AVR8/Endpoint_AVR8.h **** 				#if defined(USB_SERIES_4_AVR) || defined(USB_SERIES_6_AVR) || defined(USB_SERIES_7_AVR) || defi
 128:../../tmk_core/protocol/lufa/lufa-abcminiuser/LUFA/Drivers/USB/Core/AVR8/../AVR8/../AVR8/../AVR8/Endpoint_AVR8.h **** 					/** Total number of endpoints (including the default control endpoint at address 0) which may
 129:../../tmk_core/protocol/lufa/lufa-abcminiuser/LUFA/Drivers/USB/Core/AVR8/../AVR8/../AVR8/../AVR8/Endpoint_AVR8.h **** 					 *  be used in the device. Different USB AVR models support different amounts of endpoints,
 130:../../tmk_core/protocol/lufa/lufa-abcminiuser/LUFA/Drivers/USB/Core/AVR8/../AVR8/../AVR8/../AVR8/Endpoint_AVR8.h **** 					 *  this value reflects the maximum number of endpoints for the currently selected AVR model.
 131:../../tmk_core/protocol/lufa/lufa-abcminiuser/LUFA/Drivers/USB/Core/AVR8/../AVR8/../AVR8/../AVR8/Endpoint_AVR8.h **** 					 */
 132:../../tmk_core/protocol/lufa/lufa-abcminiuser/LUFA/Drivers/USB/Core/AVR8/../AVR8/../AVR8/../AVR8/Endpoint_AVR8.h **** 					#define ENDPOINT_TOTAL_ENDPOINTS        7
 133:../../tmk_core/protocol/lufa/lufa-abcminiuser/LUFA/Drivers/USB/Core/AVR8/../AVR8/../AVR8/../AVR8/Endpoint_AVR8.h **** 				#else
 134:../../tmk_core/protocol/lufa/lufa-abcminiuser/LUFA/Drivers/USB/Core/AVR8/../AVR8/../AVR8/../AVR8/Endpoint_AVR8.h **** 					#define ENDPOINT_TOTAL_ENDPOINTS        5
 135:../../tmk_core/protocol/lufa/lufa-abcminiuser/LUFA/Drivers/USB/Core/AVR8/../AVR8/../AVR8/../AVR8/Endpoint_AVR8.h **** 				#endif
 136:../../tmk_core/protocol/lufa/lufa-abcminiuser/LUFA/Drivers/USB/Core/AVR8/../AVR8/../AVR8/../AVR8/Endpoint_AVR8.h **** 			#else
 137:../../tmk_core/protocol/lufa/lufa-abcminiuser/LUFA/Drivers/USB/Core/AVR8/../AVR8/../AVR8/../AVR8/Endpoint_AVR8.h **** 				#define ENDPOINT_TOTAL_ENDPOINTS            1
 138:../../tmk_core/protocol/lufa/lufa-abcminiuser/LUFA/Drivers/USB/Core/AVR8/../AVR8/../AVR8/../AVR8/Endpoint_AVR8.h **** 			#endif
 139:../../tmk_core/protocol/lufa/lufa-abcminiuser/LUFA/Drivers/USB/Core/AVR8/../AVR8/../AVR8/../AVR8/Endpoint_AVR8.h **** 
 140:../../tmk_core/protocol/lufa/lufa-abcminiuser/LUFA/Drivers/USB/Core/AVR8/../AVR8/../AVR8/../AVR8/Endpoint_AVR8.h **** 		/* Enums: */
 141:../../tmk_core/protocol/lufa/lufa-abcminiuser/LUFA/Drivers/USB/Core/AVR8/../AVR8/../AVR8/../AVR8/Endpoint_AVR8.h **** 			/** Enum for the possible error return codes of the \ref Endpoint_WaitUntilReady() function.
 142:../../tmk_core/protocol/lufa/lufa-abcminiuser/LUFA/Drivers/USB/Core/AVR8/../AVR8/../AVR8/../AVR8/Endpoint_AVR8.h **** 			 *
 143:../../tmk_core/protocol/lufa/lufa-abcminiuser/LUFA/Drivers/USB/Core/AVR8/../AVR8/../AVR8/../AVR8/Endpoint_AVR8.h **** 			 *  \ingroup Group_EndpointRW_AVR8
 144:../../tmk_core/protocol/lufa/lufa-abcminiuser/LUFA/Drivers/USB/Core/AVR8/../AVR8/../AVR8/../AVR8/Endpoint_AVR8.h **** 			 */
 145:../../tmk_core/protocol/lufa/lufa-abcminiuser/LUFA/Drivers/USB/Core/AVR8/../AVR8/../AVR8/../AVR8/Endpoint_AVR8.h **** 			enum Endpoint_WaitUntilReady_ErrorCodes_t
 146:../../tmk_core/protocol/lufa/lufa-abcminiuser/LUFA/Drivers/USB/Core/AVR8/../AVR8/../AVR8/../AVR8/Endpoint_AVR8.h **** 			{
 147:../../tmk_core/protocol/lufa/lufa-abcminiuser/LUFA/Drivers/USB/Core/AVR8/../AVR8/../AVR8/../AVR8/Endpoint_AVR8.h **** 				ENDPOINT_READYWAIT_NoError                 = 0, /**< Endpoint is ready for next packet, no erro
 148:../../tmk_core/protocol/lufa/lufa-abcminiuser/LUFA/Drivers/USB/Core/AVR8/../AVR8/../AVR8/../AVR8/Endpoint_AVR8.h **** 				ENDPOINT_READYWAIT_EndpointStalled         = 1, /**< The endpoint was stalled during the stream
 149:../../tmk_core/protocol/lufa/lufa-abcminiuser/LUFA/Drivers/USB/Core/AVR8/../AVR8/../AVR8/../AVR8/Endpoint_AVR8.h **** 				                                                 *   transfer by the host or device.
 150:../../tmk_core/protocol/lufa/lufa-abcminiuser/LUFA/Drivers/USB/Core/AVR8/../AVR8/../AVR8/../AVR8/Endpoint_AVR8.h **** 				                                                 */
 151:../../tmk_core/protocol/lufa/lufa-abcminiuser/LUFA/Drivers/USB/Core/AVR8/../AVR8/../AVR8/../AVR8/Endpoint_AVR8.h **** 				ENDPOINT_READYWAIT_DeviceDisconnected      = 2,	/**< Device was disconnected from the host whil
 152:../../tmk_core/protocol/lufa/lufa-abcminiuser/LUFA/Drivers/USB/Core/AVR8/../AVR8/../AVR8/../AVR8/Endpoint_AVR8.h **** 				                                                 *   waiting for the endpoint to become ready.
 153:../../tmk_core/protocol/lufa/lufa-abcminiuser/LUFA/Drivers/USB/Core/AVR8/../AVR8/../AVR8/../AVR8/Endpoint_AVR8.h **** 				                                                 */
 154:../../tmk_core/protocol/lufa/lufa-abcminiuser/LUFA/Drivers/USB/Core/AVR8/../AVR8/../AVR8/../AVR8/Endpoint_AVR8.h **** 				ENDPOINT_READYWAIT_BusSuspended            = 3, /**< The USB bus has been suspended by the host
 155:../../tmk_core/protocol/lufa/lufa-abcminiuser/LUFA/Drivers/USB/Core/AVR8/../AVR8/../AVR8/../AVR8/Endpoint_AVR8.h **** 				                                                 *   no USB endpoint traffic can occur until th
 156:../../tmk_core/protocol/lufa/lufa-abcminiuser/LUFA/Drivers/USB/Core/AVR8/../AVR8/../AVR8/../AVR8/Endpoint_AVR8.h **** 				                                                 *   has resumed.
 157:../../tmk_core/protocol/lufa/lufa-abcminiuser/LUFA/Drivers/USB/Core/AVR8/../AVR8/../AVR8/../AVR8/Endpoint_AVR8.h **** 				                                                 */
 158:../../tmk_core/protocol/lufa/lufa-abcminiuser/LUFA/Drivers/USB/Core/AVR8/../AVR8/../AVR8/../AVR8/Endpoint_AVR8.h **** 				ENDPOINT_READYWAIT_Timeout                 = 4, /**< The host failed to accept or send the next
 159:../../tmk_core/protocol/lufa/lufa-abcminiuser/LUFA/Drivers/USB/Core/AVR8/../AVR8/../AVR8/../AVR8/Endpoint_AVR8.h **** 				                                                 *   within the software timeout period set by 
 160:../../tmk_core/protocol/lufa/lufa-abcminiuser/LUFA/Drivers/USB/Core/AVR8/../AVR8/../AVR8/../AVR8/Endpoint_AVR8.h **** 				                                                 *   \ref USB_STREAM_TIMEOUT_MS macro.
 161:../../tmk_core/protocol/lufa/lufa-abcminiuser/LUFA/Drivers/USB/Core/AVR8/../AVR8/../AVR8/../AVR8/Endpoint_AVR8.h **** 				                                                 */
 162:../../tmk_core/protocol/lufa/lufa-abcminiuser/LUFA/Drivers/USB/Core/AVR8/../AVR8/../AVR8/../AVR8/Endpoint_AVR8.h **** 			};
 163:../../tmk_core/protocol/lufa/lufa-abcminiuser/LUFA/Drivers/USB/Core/AVR8/../AVR8/../AVR8/../AVR8/Endpoint_AVR8.h **** 
 164:../../tmk_core/protocol/lufa/lufa-abcminiuser/LUFA/Drivers/USB/Core/AVR8/../AVR8/../AVR8/../AVR8/Endpoint_AVR8.h **** 		/* Inline Functions: */
 165:../../tmk_core/protocol/lufa/lufa-abcminiuser/LUFA/Drivers/USB/Core/AVR8/../AVR8/../AVR8/../AVR8/Endpoint_AVR8.h **** 			/** Configures the specified endpoint address with the given endpoint type, bank size and number
 166:../../tmk_core/protocol/lufa/lufa-abcminiuser/LUFA/Drivers/USB/Core/AVR8/../AVR8/../AVR8/../AVR8/Endpoint_AVR8.h **** 			 *  banks. Once configured, the endpoint may be read from or written to, depending on its direct
 167:../../tmk_core/protocol/lufa/lufa-abcminiuser/LUFA/Drivers/USB/Core/AVR8/../AVR8/../AVR8/../AVR8/Endpoint_AVR8.h **** 			 *
 168:../../tmk_core/protocol/lufa/lufa-abcminiuser/LUFA/Drivers/USB/Core/AVR8/../AVR8/../AVR8/../AVR8/Endpoint_AVR8.h **** 			 *  \param[in] Address    Endpoint address to configure.
 169:../../tmk_core/protocol/lufa/lufa-abcminiuser/LUFA/Drivers/USB/Core/AVR8/../AVR8/../AVR8/../AVR8/Endpoint_AVR8.h **** 			 *
 170:../../tmk_core/protocol/lufa/lufa-abcminiuser/LUFA/Drivers/USB/Core/AVR8/../AVR8/../AVR8/../AVR8/Endpoint_AVR8.h **** 			 *  \param[in] Type       Type of endpoint to configure, a \c EP_TYPE_* mask. Not all endpoint t
 171:../../tmk_core/protocol/lufa/lufa-abcminiuser/LUFA/Drivers/USB/Core/AVR8/../AVR8/../AVR8/../AVR8/Endpoint_AVR8.h **** 			 *                        are available on Low Speed USB devices - refer to the USB 2.0 specific
 172:../../tmk_core/protocol/lufa/lufa-abcminiuser/LUFA/Drivers/USB/Core/AVR8/../AVR8/../AVR8/../AVR8/Endpoint_AVR8.h **** 			 *
 173:../../tmk_core/protocol/lufa/lufa-abcminiuser/LUFA/Drivers/USB/Core/AVR8/../AVR8/../AVR8/../AVR8/Endpoint_AVR8.h **** 			 *  \param[in] Size       Size of the endpoint's bank, where packets are stored before they are 
 174:../../tmk_core/protocol/lufa/lufa-abcminiuser/LUFA/Drivers/USB/Core/AVR8/../AVR8/../AVR8/../AVR8/Endpoint_AVR8.h **** 			 *                        to the USB host, or after they have been received from the USB host (d
 175:../../tmk_core/protocol/lufa/lufa-abcminiuser/LUFA/Drivers/USB/Core/AVR8/../AVR8/../AVR8/../AVR8/Endpoint_AVR8.h **** 			 *                        the endpoint's data direction). The bank size must indicate the maximu
 176:../../tmk_core/protocol/lufa/lufa-abcminiuser/LUFA/Drivers/USB/Core/AVR8/../AVR8/../AVR8/../AVR8/Endpoint_AVR8.h **** 			 *                        that the endpoint can handle.
 177:../../tmk_core/protocol/lufa/lufa-abcminiuser/LUFA/Drivers/USB/Core/AVR8/../AVR8/../AVR8/../AVR8/Endpoint_AVR8.h **** 			 *
 178:../../tmk_core/protocol/lufa/lufa-abcminiuser/LUFA/Drivers/USB/Core/AVR8/../AVR8/../AVR8/../AVR8/Endpoint_AVR8.h **** 			 *  \param[in] Banks      Number of banks to use for the endpoint being configured.
 179:../../tmk_core/protocol/lufa/lufa-abcminiuser/LUFA/Drivers/USB/Core/AVR8/../AVR8/../AVR8/../AVR8/Endpoint_AVR8.h **** 			 *
 180:../../tmk_core/protocol/lufa/lufa-abcminiuser/LUFA/Drivers/USB/Core/AVR8/../AVR8/../AVR8/../AVR8/Endpoint_AVR8.h **** 			 *  \attention When the \c ORDERED_EP_CONFIG compile time option is used, Endpoints <b>must</b> 
 181:../../tmk_core/protocol/lufa/lufa-abcminiuser/LUFA/Drivers/USB/Core/AVR8/../AVR8/../AVR8/../AVR8/Endpoint_AVR8.h **** 			 *             ascending order, or bank corruption will occur.
 182:../../tmk_core/protocol/lufa/lufa-abcminiuser/LUFA/Drivers/USB/Core/AVR8/../AVR8/../AVR8/../AVR8/Endpoint_AVR8.h **** 			 *
 183:../../tmk_core/protocol/lufa/lufa-abcminiuser/LUFA/Drivers/USB/Core/AVR8/../AVR8/../AVR8/../AVR8/Endpoint_AVR8.h **** 			 *  \note Different endpoints may have different maximum packet sizes based on the endpoint's in
 184:../../tmk_core/protocol/lufa/lufa-abcminiuser/LUFA/Drivers/USB/Core/AVR8/../AVR8/../AVR8/../AVR8/Endpoint_AVR8.h **** 			 *        refer to the chosen microcontroller model's datasheet to determine the maximum bank si
 185:../../tmk_core/protocol/lufa/lufa-abcminiuser/LUFA/Drivers/USB/Core/AVR8/../AVR8/../AVR8/../AVR8/Endpoint_AVR8.h **** 			 *        \n\n
 186:../../tmk_core/protocol/lufa/lufa-abcminiuser/LUFA/Drivers/USB/Core/AVR8/../AVR8/../AVR8/../AVR8/Endpoint_AVR8.h **** 			 *
 187:../../tmk_core/protocol/lufa/lufa-abcminiuser/LUFA/Drivers/USB/Core/AVR8/../AVR8/../AVR8/../AVR8/Endpoint_AVR8.h **** 			 *  \note The default control endpoint should not be manually configured by the user application
 188:../../tmk_core/protocol/lufa/lufa-abcminiuser/LUFA/Drivers/USB/Core/AVR8/../AVR8/../AVR8/../AVR8/Endpoint_AVR8.h **** 			 *        it is automatically configured by the library internally.
 189:../../tmk_core/protocol/lufa/lufa-abcminiuser/LUFA/Drivers/USB/Core/AVR8/../AVR8/../AVR8/../AVR8/Endpoint_AVR8.h **** 			 *        \n\n
 190:../../tmk_core/protocol/lufa/lufa-abcminiuser/LUFA/Drivers/USB/Core/AVR8/../AVR8/../AVR8/../AVR8/Endpoint_AVR8.h **** 			 *
 191:../../tmk_core/protocol/lufa/lufa-abcminiuser/LUFA/Drivers/USB/Core/AVR8/../AVR8/../AVR8/../AVR8/Endpoint_AVR8.h **** 			 *  \note This routine will automatically select the specified endpoint upon success. Upon failu
 192:../../tmk_core/protocol/lufa/lufa-abcminiuser/LUFA/Drivers/USB/Core/AVR8/../AVR8/../AVR8/../AVR8/Endpoint_AVR8.h **** 			 *        which failed to reconfigure correctly will be selected.
 193:../../tmk_core/protocol/lufa/lufa-abcminiuser/LUFA/Drivers/USB/Core/AVR8/../AVR8/../AVR8/../AVR8/Endpoint_AVR8.h **** 			 *
 194:../../tmk_core/protocol/lufa/lufa-abcminiuser/LUFA/Drivers/USB/Core/AVR8/../AVR8/../AVR8/../AVR8/Endpoint_AVR8.h **** 			 *  \return Boolean \c true if the configuration succeeded, \c false otherwise.
 195:../../tmk_core/protocol/lufa/lufa-abcminiuser/LUFA/Drivers/USB/Core/AVR8/../AVR8/../AVR8/../AVR8/Endpoint_AVR8.h **** 			 */
 196:../../tmk_core/protocol/lufa/lufa-abcminiuser/LUFA/Drivers/USB/Core/AVR8/../AVR8/../AVR8/../AVR8/Endpoint_AVR8.h **** 			static inline bool Endpoint_ConfigureEndpoint(const uint8_t Address,
 197:../../tmk_core/protocol/lufa/lufa-abcminiuser/LUFA/Drivers/USB/Core/AVR8/../AVR8/../AVR8/../AVR8/Endpoint_AVR8.h **** 			                                              const uint8_t Type,
 198:../../tmk_core/protocol/lufa/lufa-abcminiuser/LUFA/Drivers/USB/Core/AVR8/../AVR8/../AVR8/../AVR8/Endpoint_AVR8.h **** 			                                              const uint16_t Size,
 199:../../tmk_core/protocol/lufa/lufa-abcminiuser/LUFA/Drivers/USB/Core/AVR8/../AVR8/../AVR8/../AVR8/Endpoint_AVR8.h **** 			                                              const uint8_t Banks) ATTR_ALWAYS_INLINE;
 200:../../tmk_core/protocol/lufa/lufa-abcminiuser/LUFA/Drivers/USB/Core/AVR8/../AVR8/../AVR8/../AVR8/Endpoint_AVR8.h **** 			static inline bool Endpoint_ConfigureEndpoint(const uint8_t Address,
 631               		.loc 4 200 23 view .LVU215
 632               	.LBB149:
 201:../../tmk_core/protocol/lufa/lufa-abcminiuser/LUFA/Drivers/USB/Core/AVR8/../AVR8/../AVR8/../AVR8/Endpoint_AVR8.h **** 			                                              const uint8_t Type,
 202:../../tmk_core/protocol/lufa/lufa-abcminiuser/LUFA/Drivers/USB/Core/AVR8/../AVR8/../AVR8/../AVR8/Endpoint_AVR8.h **** 			                                              const uint16_t Size,
 203:../../tmk_core/protocol/lufa/lufa-abcminiuser/LUFA/Drivers/USB/Core/AVR8/../AVR8/../AVR8/../AVR8/Endpoint_AVR8.h **** 			                                              const uint8_t Banks)
 204:../../tmk_core/protocol/lufa/lufa-abcminiuser/LUFA/Drivers/USB/Core/AVR8/../AVR8/../AVR8/../AVR8/Endpoint_AVR8.h **** 			{
 205:../../tmk_core/protocol/lufa/lufa-abcminiuser/LUFA/Drivers/USB/Core/AVR8/../AVR8/../AVR8/../AVR8/Endpoint_AVR8.h **** 				uint8_t Number = (Address & ENDPOINT_EPNUM_MASK);
 633               		.loc 4 205 5 view .LVU216
 206:../../tmk_core/protocol/lufa/lufa-abcminiuser/LUFA/Drivers/USB/Core/AVR8/../AVR8/../AVR8/../AVR8/Endpoint_AVR8.h **** 
 207:../../tmk_core/protocol/lufa/lufa-abcminiuser/LUFA/Drivers/USB/Core/AVR8/../AVR8/../AVR8/../AVR8/Endpoint_AVR8.h **** 				if (Number >= ENDPOINT_TOTAL_ENDPOINTS)
 634               		.loc 4 207 5 view .LVU217
 208:../../tmk_core/protocol/lufa/lufa-abcminiuser/LUFA/Drivers/USB/Core/AVR8/../AVR8/../AVR8/../AVR8/Endpoint_AVR8.h **** 				  return false;
 209:../../tmk_core/protocol/lufa/lufa-abcminiuser/LUFA/Drivers/USB/Core/AVR8/../AVR8/../AVR8/../AVR8/Endpoint_AVR8.h **** 
 210:../../tmk_core/protocol/lufa/lufa-abcminiuser/LUFA/Drivers/USB/Core/AVR8/../AVR8/../AVR8/../AVR8/Endpoint_AVR8.h **** 				return Endpoint_ConfigureEndpoint_Prv(Number,
 635               		.loc 4 210 5 view .LVU218
 636               		.loc 4 210 5 is_stmt 0 view .LVU219
 637               	.LBE149:
 638               	.LBE148:
  97:../../tmk_core/protocol/lufa/lufa-abcminiuser/LUFA/Drivers/USB/Core/AVR8/../AVR8/../AVR8/../AVR8/Endpoint_AVR8.h **** 				uint16_t CheckBytes = 8;
 639               		.loc 4 97 5 is_stmt 1 view .LVU220
  98:../../tmk_core/protocol/lufa/lufa-abcminiuser/LUFA/Drivers/USB/Core/AVR8/../AVR8/../AVR8/../AVR8/Endpoint_AVR8.h **** 
 640               		.loc 4 98 5 view .LVU221
 100:../../tmk_core/protocol/lufa/lufa-abcminiuser/LUFA/Drivers/USB/Core/AVR8/../AVR8/../AVR8/../AVR8/Endpoint_AVR8.h **** 				{
 641               		.loc 4 100 5 view .LVU222
 100:../../tmk_core/protocol/lufa/lufa-abcminiuser/LUFA/Drivers/USB/Core/AVR8/../AVR8/../AVR8/../AVR8/Endpoint_AVR8.h **** 				{
 642               		.loc 4 100 11 view .LVU223
 106:../../tmk_core/protocol/lufa/lufa-abcminiuser/LUFA/Drivers/USB/Core/AVR8/../AVR8/../AVR8/../AVR8/Endpoint_AVR8.h **** 			}
 643               		.loc 4 106 5 view .LVU224
 644               	.LBB151:
 645               	.LBB150:
 646               		.loc 4 210 12 is_stmt 0 view .LVU225
 647 0150 42E0      		ldi r20,lo8(2)
 648 0152 60E0      		ldi r22,0
 649 0154 80E0      		ldi r24,0
 650 0156 0E94 0000 		call Endpoint_ConfigureEndpoint_Prv
 651               	.LVL37:
 652               		.loc 4 210 12 view .LVU226
 653               	.LBE150:
 654               	.LBE151:
 174:../../tmk_core/protocol/lufa/lufa-abcminiuser/LUFA/Drivers/USB/Core/AVR8/USBInterrupt_AVR8.c **** 		                           USB_Device_ControlEndpointSize, 1);
 175:../../tmk_core/protocol/lufa/lufa-abcminiuser/LUFA/Drivers/USB/Core/AVR8/USBInterrupt_AVR8.c **** 
 176:../../tmk_core/protocol/lufa/lufa-abcminiuser/LUFA/Drivers/USB/Core/AVR8/USBInterrupt_AVR8.c **** 		#if defined(INTERRUPT_CONTROL_ENDPOINT)
 177:../../tmk_core/protocol/lufa/lufa-abcminiuser/LUFA/Drivers/USB/Core/AVR8/USBInterrupt_AVR8.c **** 		USB_INT_Enable(USB_INT_RXSTPI);
 655               		.loc 1 177 3 is_stmt 1 view .LVU227
 656               	.LBB152:
 657               	.LBI152:
  88:../../tmk_core/protocol/lufa/lufa-abcminiuser/LUFA/Drivers/USB/Core/AVR8/../AVR8/USBInterrupt_AVR8.h **** 			{
 658               		.loc 2 88 23 view .LVU228
 659               	.LBB153:
  90:../../tmk_core/protocol/lufa/lufa-abcminiuser/LUFA/Drivers/USB/Core/AVR8/../AVR8/USBInterrupt_AVR8.h **** 				{
 660               		.loc 2 90 5 view .LVU229
 116:../../tmk_core/protocol/lufa/lufa-abcminiuser/LUFA/Drivers/USB/Core/AVR8/../AVR8/USBInterrupt_AVR8.h **** 						break;
 661               		.loc 2 116 7 view .LVU230
 116:../../tmk_core/protocol/lufa/lufa-abcminiuser/LUFA/Drivers/USB/Core/AVR8/../AVR8/USBInterrupt_AVR8.h **** 						break;
 662               		.loc 2 116 14 is_stmt 0 view .LVU231
 663 015a 8091 F000 		lds r24,240
 664 015e 8860      		ori r24,lo8(8)
 665 0160 8093 F000 		sts 240,r24
 117:../../tmk_core/protocol/lufa/lufa-abcminiuser/LUFA/Drivers/USB/Core/AVR8/../AVR8/USBInterrupt_AVR8.h **** 					#endif
 666               		.loc 2 117 7 is_stmt 1 view .LVU232
 667               	.LVL38:
 117:../../tmk_core/protocol/lufa/lufa-abcminiuser/LUFA/Drivers/USB/Core/AVR8/../AVR8/USBInterrupt_AVR8.h **** 					#endif
 668               		.loc 2 117 7 is_stmt 0 view .LVU233
 669               	.LBE153:
 670               	.LBE152:
 178:../../tmk_core/protocol/lufa/lufa-abcminiuser/LUFA/Drivers/USB/Core/AVR8/USBInterrupt_AVR8.c **** 		#endif
 179:../../tmk_core/protocol/lufa/lufa-abcminiuser/LUFA/Drivers/USB/Core/AVR8/USBInterrupt_AVR8.c **** 
 180:../../tmk_core/protocol/lufa/lufa-abcminiuser/LUFA/Drivers/USB/Core/AVR8/USBInterrupt_AVR8.c **** 		EVENT_USB_Device_Reset();
 671               		.loc 1 180 3 is_stmt 1 view .LVU234
 672 0164 0E94 0000 		call EVENT_USB_Device_Reset
 673               	.LVL39:
 674               	.L3:
 675               	/* epilogue start */
 181:../../tmk_core/protocol/lufa/lufa-abcminiuser/LUFA/Drivers/USB/Core/AVR8/USBInterrupt_AVR8.c **** 	}
 182:../../tmk_core/protocol/lufa/lufa-abcminiuser/LUFA/Drivers/USB/Core/AVR8/USBInterrupt_AVR8.c **** 	#endif
 183:../../tmk_core/protocol/lufa/lufa-abcminiuser/LUFA/Drivers/USB/Core/AVR8/USBInterrupt_AVR8.c **** 
 184:../../tmk_core/protocol/lufa/lufa-abcminiuser/LUFA/Drivers/USB/Core/AVR8/USBInterrupt_AVR8.c **** 	#if defined(USB_CAN_BE_HOST)
 185:../../tmk_core/protocol/lufa/lufa-abcminiuser/LUFA/Drivers/USB/Core/AVR8/USBInterrupt_AVR8.c **** 	#if !defined(NO_SOF_EVENTS)
 186:../../tmk_core/protocol/lufa/lufa-abcminiuser/LUFA/Drivers/USB/Core/AVR8/USBInterrupt_AVR8.c **** 	if (USB_INT_HasOccurred(USB_INT_HSOFI) && USB_INT_IsEnabled(USB_INT_HSOFI))
 187:../../tmk_core/protocol/lufa/lufa-abcminiuser/LUFA/Drivers/USB/Core/AVR8/USBInterrupt_AVR8.c **** 	{
 188:../../tmk_core/protocol/lufa/lufa-abcminiuser/LUFA/Drivers/USB/Core/AVR8/USBInterrupt_AVR8.c **** 		USB_INT_Clear(USB_INT_HSOFI);
 189:../../tmk_core/protocol/lufa/lufa-abcminiuser/LUFA/Drivers/USB/Core/AVR8/USBInterrupt_AVR8.c **** 
 190:../../tmk_core/protocol/lufa/lufa-abcminiuser/LUFA/Drivers/USB/Core/AVR8/USBInterrupt_AVR8.c **** 		EVENT_USB_Host_StartOfFrame();
 191:../../tmk_core/protocol/lufa/lufa-abcminiuser/LUFA/Drivers/USB/Core/AVR8/USBInterrupt_AVR8.c **** 	}
 192:../../tmk_core/protocol/lufa/lufa-abcminiuser/LUFA/Drivers/USB/Core/AVR8/USBInterrupt_AVR8.c **** 	#endif
 193:../../tmk_core/protocol/lufa/lufa-abcminiuser/LUFA/Drivers/USB/Core/AVR8/USBInterrupt_AVR8.c **** 
 194:../../tmk_core/protocol/lufa/lufa-abcminiuser/LUFA/Drivers/USB/Core/AVR8/USBInterrupt_AVR8.c **** 	if (USB_INT_HasOccurred(USB_INT_DDISCI) && USB_INT_IsEnabled(USB_INT_DDISCI))
 195:../../tmk_core/protocol/lufa/lufa-abcminiuser/LUFA/Drivers/USB/Core/AVR8/USBInterrupt_AVR8.c **** 	{
 196:../../tmk_core/protocol/lufa/lufa-abcminiuser/LUFA/Drivers/USB/Core/AVR8/USBInterrupt_AVR8.c **** 		USB_INT_Clear(USB_INT_DDISCI);
 197:../../tmk_core/protocol/lufa/lufa-abcminiuser/LUFA/Drivers/USB/Core/AVR8/USBInterrupt_AVR8.c **** 		USB_INT_Clear(USB_INT_DCONNI);
 198:../../tmk_core/protocol/lufa/lufa-abcminiuser/LUFA/Drivers/USB/Core/AVR8/USBInterrupt_AVR8.c **** 		USB_INT_Disable(USB_INT_DDISCI);
 199:../../tmk_core/protocol/lufa/lufa-abcminiuser/LUFA/Drivers/USB/Core/AVR8/USBInterrupt_AVR8.c **** 
 200:../../tmk_core/protocol/lufa/lufa-abcminiuser/LUFA/Drivers/USB/Core/AVR8/USBInterrupt_AVR8.c **** 		EVENT_USB_Host_DeviceUnattached();
 201:../../tmk_core/protocol/lufa/lufa-abcminiuser/LUFA/Drivers/USB/Core/AVR8/USBInterrupt_AVR8.c **** 
 202:../../tmk_core/protocol/lufa/lufa-abcminiuser/LUFA/Drivers/USB/Core/AVR8/USBInterrupt_AVR8.c **** 		USB_ResetInterface();
 203:../../tmk_core/protocol/lufa/lufa-abcminiuser/LUFA/Drivers/USB/Core/AVR8/USBInterrupt_AVR8.c **** 	}
 204:../../tmk_core/protocol/lufa/lufa-abcminiuser/LUFA/Drivers/USB/Core/AVR8/USBInterrupt_AVR8.c **** 
 205:../../tmk_core/protocol/lufa/lufa-abcminiuser/LUFA/Drivers/USB/Core/AVR8/USBInterrupt_AVR8.c **** 	if (USB_INT_HasOccurred(USB_INT_VBERRI) && USB_INT_IsEnabled(USB_INT_VBERRI))
 206:../../tmk_core/protocol/lufa/lufa-abcminiuser/LUFA/Drivers/USB/Core/AVR8/USBInterrupt_AVR8.c **** 	{
 207:../../tmk_core/protocol/lufa/lufa-abcminiuser/LUFA/Drivers/USB/Core/AVR8/USBInterrupt_AVR8.c **** 		USB_INT_Clear(USB_INT_VBERRI);
 208:../../tmk_core/protocol/lufa/lufa-abcminiuser/LUFA/Drivers/USB/Core/AVR8/USBInterrupt_AVR8.c **** 
 209:../../tmk_core/protocol/lufa/lufa-abcminiuser/LUFA/Drivers/USB/Core/AVR8/USBInterrupt_AVR8.c **** 		USB_Host_VBUS_Manual_Off();
 210:../../tmk_core/protocol/lufa/lufa-abcminiuser/LUFA/Drivers/USB/Core/AVR8/USBInterrupt_AVR8.c **** 		USB_Host_VBUS_Auto_Off();
 211:../../tmk_core/protocol/lufa/lufa-abcminiuser/LUFA/Drivers/USB/Core/AVR8/USBInterrupt_AVR8.c **** 
 212:../../tmk_core/protocol/lufa/lufa-abcminiuser/LUFA/Drivers/USB/Core/AVR8/USBInterrupt_AVR8.c **** 		EVENT_USB_Host_HostError(HOST_ERROR_VBusVoltageDip);
 213:../../tmk_core/protocol/lufa/lufa-abcminiuser/LUFA/Drivers/USB/Core/AVR8/USBInterrupt_AVR8.c **** 		EVENT_USB_Host_DeviceUnattached();
 214:../../tmk_core/protocol/lufa/lufa-abcminiuser/LUFA/Drivers/USB/Core/AVR8/USBInterrupt_AVR8.c **** 
 215:../../tmk_core/protocol/lufa/lufa-abcminiuser/LUFA/Drivers/USB/Core/AVR8/USBInterrupt_AVR8.c **** 		USB_HostState = HOST_STATE_Unattached;
 216:../../tmk_core/protocol/lufa/lufa-abcminiuser/LUFA/Drivers/USB/Core/AVR8/USBInterrupt_AVR8.c **** 	}
 217:../../tmk_core/protocol/lufa/lufa-abcminiuser/LUFA/Drivers/USB/Core/AVR8/USBInterrupt_AVR8.c **** 
 218:../../tmk_core/protocol/lufa/lufa-abcminiuser/LUFA/Drivers/USB/Core/AVR8/USBInterrupt_AVR8.c **** 	if (USB_INT_HasOccurred(USB_INT_SRPI) && USB_INT_IsEnabled(USB_INT_SRPI))
 219:../../tmk_core/protocol/lufa/lufa-abcminiuser/LUFA/Drivers/USB/Core/AVR8/USBInterrupt_AVR8.c **** 	{
 220:../../tmk_core/protocol/lufa/lufa-abcminiuser/LUFA/Drivers/USB/Core/AVR8/USBInterrupt_AVR8.c **** 		USB_INT_Clear(USB_INT_SRPI);
 221:../../tmk_core/protocol/lufa/lufa-abcminiuser/LUFA/Drivers/USB/Core/AVR8/USBInterrupt_AVR8.c **** 		USB_INT_Disable(USB_INT_SRPI);
 222:../../tmk_core/protocol/lufa/lufa-abcminiuser/LUFA/Drivers/USB/Core/AVR8/USBInterrupt_AVR8.c **** 
 223:../../tmk_core/protocol/lufa/lufa-abcminiuser/LUFA/Drivers/USB/Core/AVR8/USBInterrupt_AVR8.c **** 		EVENT_USB_Host_DeviceAttached();
 224:../../tmk_core/protocol/lufa/lufa-abcminiuser/LUFA/Drivers/USB/Core/AVR8/USBInterrupt_AVR8.c **** 
 225:../../tmk_core/protocol/lufa/lufa-abcminiuser/LUFA/Drivers/USB/Core/AVR8/USBInterrupt_AVR8.c **** 		USB_INT_Enable(USB_INT_DDISCI);
 226:../../tmk_core/protocol/lufa/lufa-abcminiuser/LUFA/Drivers/USB/Core/AVR8/USBInterrupt_AVR8.c **** 
 227:../../tmk_core/protocol/lufa/lufa-abcminiuser/LUFA/Drivers/USB/Core/AVR8/USBInterrupt_AVR8.c **** 		USB_HostState = HOST_STATE_Powered;
 228:../../tmk_core/protocol/lufa/lufa-abcminiuser/LUFA/Drivers/USB/Core/AVR8/USBInterrupt_AVR8.c **** 	}
 229:../../tmk_core/protocol/lufa/lufa-abcminiuser/LUFA/Drivers/USB/Core/AVR8/USBInterrupt_AVR8.c **** 
 230:../../tmk_core/protocol/lufa/lufa-abcminiuser/LUFA/Drivers/USB/Core/AVR8/USBInterrupt_AVR8.c **** 	if (USB_INT_HasOccurred(USB_INT_BCERRI) && USB_INT_IsEnabled(USB_INT_BCERRI))
 231:../../tmk_core/protocol/lufa/lufa-abcminiuser/LUFA/Drivers/USB/Core/AVR8/USBInterrupt_AVR8.c **** 	{
 232:../../tmk_core/protocol/lufa/lufa-abcminiuser/LUFA/Drivers/USB/Core/AVR8/USBInterrupt_AVR8.c **** 		USB_INT_Clear(USB_INT_BCERRI);
 233:../../tmk_core/protocol/lufa/lufa-abcminiuser/LUFA/Drivers/USB/Core/AVR8/USBInterrupt_AVR8.c **** 
 234:../../tmk_core/protocol/lufa/lufa-abcminiuser/LUFA/Drivers/USB/Core/AVR8/USBInterrupt_AVR8.c **** 		EVENT_USB_Host_DeviceEnumerationFailed(HOST_ENUMERROR_NoDeviceDetected, 0);
 235:../../tmk_core/protocol/lufa/lufa-abcminiuser/LUFA/Drivers/USB/Core/AVR8/USBInterrupt_AVR8.c **** 		EVENT_USB_Host_DeviceUnattached();
 236:../../tmk_core/protocol/lufa/lufa-abcminiuser/LUFA/Drivers/USB/Core/AVR8/USBInterrupt_AVR8.c **** 
 237:../../tmk_core/protocol/lufa/lufa-abcminiuser/LUFA/Drivers/USB/Core/AVR8/USBInterrupt_AVR8.c **** 		USB_ResetInterface();
 238:../../tmk_core/protocol/lufa/lufa-abcminiuser/LUFA/Drivers/USB/Core/AVR8/USBInterrupt_AVR8.c **** 	}
 239:../../tmk_core/protocol/lufa/lufa-abcminiuser/LUFA/Drivers/USB/Core/AVR8/USBInterrupt_AVR8.c **** 	#endif
 240:../../tmk_core/protocol/lufa/lufa-abcminiuser/LUFA/Drivers/USB/Core/AVR8/USBInterrupt_AVR8.c **** 
 241:../../tmk_core/protocol/lufa/lufa-abcminiuser/LUFA/Drivers/USB/Core/AVR8/USBInterrupt_AVR8.c **** 	#if defined(USB_CAN_BE_BOTH)
 242:../../tmk_core/protocol/lufa/lufa-abcminiuser/LUFA/Drivers/USB/Core/AVR8/USBInterrupt_AVR8.c **** 	if (USB_INT_HasOccurred(USB_INT_IDTI) && USB_INT_IsEnabled(USB_INT_IDTI))
 243:../../tmk_core/protocol/lufa/lufa-abcminiuser/LUFA/Drivers/USB/Core/AVR8/USBInterrupt_AVR8.c **** 	{
 244:../../tmk_core/protocol/lufa/lufa-abcminiuser/LUFA/Drivers/USB/Core/AVR8/USBInterrupt_AVR8.c **** 		USB_INT_Clear(USB_INT_IDTI);
 245:../../tmk_core/protocol/lufa/lufa-abcminiuser/LUFA/Drivers/USB/Core/AVR8/USBInterrupt_AVR8.c **** 
 246:../../tmk_core/protocol/lufa/lufa-abcminiuser/LUFA/Drivers/USB/Core/AVR8/USBInterrupt_AVR8.c **** 		if (USB_DeviceState != DEVICE_STATE_Unattached)
 247:../../tmk_core/protocol/lufa/lufa-abcminiuser/LUFA/Drivers/USB/Core/AVR8/USBInterrupt_AVR8.c **** 		  EVENT_USB_Device_Disconnect();
 248:../../tmk_core/protocol/lufa/lufa-abcminiuser/LUFA/Drivers/USB/Core/AVR8/USBInterrupt_AVR8.c **** 
 249:../../tmk_core/protocol/lufa/lufa-abcminiuser/LUFA/Drivers/USB/Core/AVR8/USBInterrupt_AVR8.c **** 		if (USB_HostState != HOST_STATE_Unattached)
 250:../../tmk_core/protocol/lufa/lufa-abcminiuser/LUFA/Drivers/USB/Core/AVR8/USBInterrupt_AVR8.c **** 		  EVENT_USB_Host_DeviceUnattached();
 251:../../tmk_core/protocol/lufa/lufa-abcminiuser/LUFA/Drivers/USB/Core/AVR8/USBInterrupt_AVR8.c **** 
 252:../../tmk_core/protocol/lufa/lufa-abcminiuser/LUFA/Drivers/USB/Core/AVR8/USBInterrupt_AVR8.c **** 		USB_CurrentMode = USB_GetUSBModeFromUID();
 253:../../tmk_core/protocol/lufa/lufa-abcminiuser/LUFA/Drivers/USB/Core/AVR8/USBInterrupt_AVR8.c **** 		USB_ResetInterface();
 254:../../tmk_core/protocol/lufa/lufa-abcminiuser/LUFA/Drivers/USB/Core/AVR8/USBInterrupt_AVR8.c **** 
 255:../../tmk_core/protocol/lufa/lufa-abcminiuser/LUFA/Drivers/USB/Core/AVR8/USBInterrupt_AVR8.c **** 		EVENT_USB_UIDChange();
 256:../../tmk_core/protocol/lufa/lufa-abcminiuser/LUFA/Drivers/USB/Core/AVR8/USBInterrupt_AVR8.c **** 	}
 257:../../tmk_core/protocol/lufa/lufa-abcminiuser/LUFA/Drivers/USB/Core/AVR8/USBInterrupt_AVR8.c **** 	#endif
 258:../../tmk_core/protocol/lufa/lufa-abcminiuser/LUFA/Drivers/USB/Core/AVR8/USBInterrupt_AVR8.c **** }
 676               		.loc 1 258 1 is_stmt 0 view .LVU235
 677 0168 FF91      		pop r31
 678 016a EF91      		pop r30
 679 016c BF91      		pop r27
 680 016e AF91      		pop r26
 681 0170 9F91      		pop r25
 682 0172 8F91      		pop r24
 683 0174 7F91      		pop r23
 684 0176 6F91      		pop r22
 685 0178 5F91      		pop r21
 686 017a 4F91      		pop r20
 687 017c 3F91      		pop r19
 688 017e 2F91      		pop r18
 689 0180 0F90      		pop r0
 690 0182 0FBE      		out __SREG__,r0
 691 0184 0F90      		pop r0
 692 0186 1F90      		pop r1
 693 0188 1895      		reti
 694               	.L6:
 107:../../tmk_core/protocol/lufa/lufa-abcminiuser/LUFA/Drivers/USB/Core/AVR8/USBInterrupt_AVR8.c **** 			  USB_PLL_Off();
 695               		.loc 1 107 4 is_stmt 1 view .LVU236
 108:../../tmk_core/protocol/lufa/lufa-abcminiuser/LUFA/Drivers/USB/Core/AVR8/USBInterrupt_AVR8.c **** 
 696               		.loc 1 108 6 view .LVU237
 697               	.LBB154:
 698               	.LBI154:
 335:../../tmk_core/protocol/lufa/lufa-abcminiuser/LUFA/Drivers/USB/Core/AVR8/../AVR8/../AVR8/USBController_AVR8.h **** 			{
 699               		.loc 3 335 23 view .LVU238
 700               	.LBB155:
 337:../../tmk_core/protocol/lufa/lufa-abcminiuser/LUFA/Drivers/USB/Core/AVR8/../AVR8/../AVR8/USBController_AVR8.h **** 			}
 701               		.loc 3 337 5 view .LVU239
 337:../../tmk_core/protocol/lufa/lufa-abcminiuser/LUFA/Drivers/USB/Core/AVR8/../AVR8/../AVR8/USBController_AVR8.h **** 			}
 702               		.loc 3 337 12 is_stmt 0 view .LVU240
 703 018a 19BC      		out 0x29,__zero_reg__
 704               	.LBE155:
 705               	.LBE154:
 110:../../tmk_core/protocol/lufa/lufa-abcminiuser/LUFA/Drivers/USB/Core/AVR8/USBInterrupt_AVR8.c **** 			EVENT_USB_Device_Disconnect();
 706               		.loc 1 110 4 is_stmt 1 view .LVU241
 110:../../tmk_core/protocol/lufa/lufa-abcminiuser/LUFA/Drivers/USB/Core/AVR8/USBInterrupt_AVR8.c **** 			EVENT_USB_Device_Disconnect();
 707               		.loc 1 110 20 is_stmt 0 view .LVU242
 708 018c 1092 0000 		sts USB_DeviceState,__zero_reg__
 111:../../tmk_core/protocol/lufa/lufa-abcminiuser/LUFA/Drivers/USB/Core/AVR8/USBInterrupt_AVR8.c **** 		}
 709               		.loc 1 111 4 is_stmt 1 view .LVU243
 710 0190 0E94 0000 		call EVENT_USB_Device_Disconnect
 711               	.LVL40:
 712 0194 00C0      		rjmp .L5
 713               	.L11:
 153:../../tmk_core/protocol/lufa/lufa-abcminiuser/LUFA/Drivers/USB/Core/AVR8/USBInterrupt_AVR8.c **** 
 714               		.loc 1 153 5 view .LVU244
 715               	.LBB156:
 716               	.LBI156:
 717               		.file 5 "../../tmk_core/protocol/lufa/lufa-abcminiuser/LUFA/Drivers/USB/Core/AVR8/../AVR8/../AVR8/
   1:../../tmk_core/protocol/lufa/lufa-abcminiuser/LUFA/Drivers/USB/Core/AVR8/../AVR8/../AVR8/../AVR8/Device_AVR8.h **** /*
   2:../../tmk_core/protocol/lufa/lufa-abcminiuser/LUFA/Drivers/USB/Core/AVR8/../AVR8/../AVR8/../AVR8/Device_AVR8.h ****              LUFA Library
   3:../../tmk_core/protocol/lufa/lufa-abcminiuser/LUFA/Drivers/USB/Core/AVR8/../AVR8/../AVR8/../AVR8/Device_AVR8.h ****      Copyright (C) Dean Camera, 2019.
   4:../../tmk_core/protocol/lufa/lufa-abcminiuser/LUFA/Drivers/USB/Core/AVR8/../AVR8/../AVR8/../AVR8/Device_AVR8.h **** 
   5:../../tmk_core/protocol/lufa/lufa-abcminiuser/LUFA/Drivers/USB/Core/AVR8/../AVR8/../AVR8/../AVR8/Device_AVR8.h ****   dean [at] fourwalledcubicle [dot] com
   6:../../tmk_core/protocol/lufa/lufa-abcminiuser/LUFA/Drivers/USB/Core/AVR8/../AVR8/../AVR8/../AVR8/Device_AVR8.h ****            www.lufa-lib.org
   7:../../tmk_core/protocol/lufa/lufa-abcminiuser/LUFA/Drivers/USB/Core/AVR8/../AVR8/../AVR8/../AVR8/Device_AVR8.h **** */
   8:../../tmk_core/protocol/lufa/lufa-abcminiuser/LUFA/Drivers/USB/Core/AVR8/../AVR8/../AVR8/../AVR8/Device_AVR8.h **** 
   9:../../tmk_core/protocol/lufa/lufa-abcminiuser/LUFA/Drivers/USB/Core/AVR8/../AVR8/../AVR8/../AVR8/Device_AVR8.h **** /*
  10:../../tmk_core/protocol/lufa/lufa-abcminiuser/LUFA/Drivers/USB/Core/AVR8/../AVR8/../AVR8/../AVR8/Device_AVR8.h ****   Copyright 2019  Dean Camera (dean [at] fourwalledcubicle [dot] com)
  11:../../tmk_core/protocol/lufa/lufa-abcminiuser/LUFA/Drivers/USB/Core/AVR8/../AVR8/../AVR8/../AVR8/Device_AVR8.h **** 
  12:../../tmk_core/protocol/lufa/lufa-abcminiuser/LUFA/Drivers/USB/Core/AVR8/../AVR8/../AVR8/../AVR8/Device_AVR8.h ****   Permission to use, copy, modify, distribute, and sell this
  13:../../tmk_core/protocol/lufa/lufa-abcminiuser/LUFA/Drivers/USB/Core/AVR8/../AVR8/../AVR8/../AVR8/Device_AVR8.h ****   software and its documentation for any purpose is hereby granted
  14:../../tmk_core/protocol/lufa/lufa-abcminiuser/LUFA/Drivers/USB/Core/AVR8/../AVR8/../AVR8/../AVR8/Device_AVR8.h ****   without fee, provided that the above copyright notice appear in
  15:../../tmk_core/protocol/lufa/lufa-abcminiuser/LUFA/Drivers/USB/Core/AVR8/../AVR8/../AVR8/../AVR8/Device_AVR8.h ****   all copies and that both that the copyright notice and this
  16:../../tmk_core/protocol/lufa/lufa-abcminiuser/LUFA/Drivers/USB/Core/AVR8/../AVR8/../AVR8/../AVR8/Device_AVR8.h ****   permission notice and warranty disclaimer appear in supporting
  17:../../tmk_core/protocol/lufa/lufa-abcminiuser/LUFA/Drivers/USB/Core/AVR8/../AVR8/../AVR8/../AVR8/Device_AVR8.h ****   documentation, and that the name of the author not be used in
  18:../../tmk_core/protocol/lufa/lufa-abcminiuser/LUFA/Drivers/USB/Core/AVR8/../AVR8/../AVR8/../AVR8/Device_AVR8.h ****   advertising or publicity pertaining to distribution of the
  19:../../tmk_core/protocol/lufa/lufa-abcminiuser/LUFA/Drivers/USB/Core/AVR8/../AVR8/../AVR8/../AVR8/Device_AVR8.h ****   software without specific, written prior permission.
  20:../../tmk_core/protocol/lufa/lufa-abcminiuser/LUFA/Drivers/USB/Core/AVR8/../AVR8/../AVR8/../AVR8/Device_AVR8.h **** 
  21:../../tmk_core/protocol/lufa/lufa-abcminiuser/LUFA/Drivers/USB/Core/AVR8/../AVR8/../AVR8/../AVR8/Device_AVR8.h ****   The author disclaims all warranties with regard to this
  22:../../tmk_core/protocol/lufa/lufa-abcminiuser/LUFA/Drivers/USB/Core/AVR8/../AVR8/../AVR8/../AVR8/Device_AVR8.h ****   software, including all implied warranties of merchantability
  23:../../tmk_core/protocol/lufa/lufa-abcminiuser/LUFA/Drivers/USB/Core/AVR8/../AVR8/../AVR8/../AVR8/Device_AVR8.h ****   and fitness.  In no event shall the author be liable for any
  24:../../tmk_core/protocol/lufa/lufa-abcminiuser/LUFA/Drivers/USB/Core/AVR8/../AVR8/../AVR8/../AVR8/Device_AVR8.h ****   special, indirect or consequential damages or any damages
  25:../../tmk_core/protocol/lufa/lufa-abcminiuser/LUFA/Drivers/USB/Core/AVR8/../AVR8/../AVR8/../AVR8/Device_AVR8.h ****   whatsoever resulting from loss of use, data or profits, whether
  26:../../tmk_core/protocol/lufa/lufa-abcminiuser/LUFA/Drivers/USB/Core/AVR8/../AVR8/../AVR8/../AVR8/Device_AVR8.h ****   in an action of contract, negligence or other tortious action,
  27:../../tmk_core/protocol/lufa/lufa-abcminiuser/LUFA/Drivers/USB/Core/AVR8/../AVR8/../AVR8/../AVR8/Device_AVR8.h ****   arising out of or in connection with the use or performance of
  28:../../tmk_core/protocol/lufa/lufa-abcminiuser/LUFA/Drivers/USB/Core/AVR8/../AVR8/../AVR8/../AVR8/Device_AVR8.h ****   this software.
  29:../../tmk_core/protocol/lufa/lufa-abcminiuser/LUFA/Drivers/USB/Core/AVR8/../AVR8/../AVR8/../AVR8/Device_AVR8.h **** */
  30:../../tmk_core/protocol/lufa/lufa-abcminiuser/LUFA/Drivers/USB/Core/AVR8/../AVR8/../AVR8/../AVR8/Device_AVR8.h **** 
  31:../../tmk_core/protocol/lufa/lufa-abcminiuser/LUFA/Drivers/USB/Core/AVR8/../AVR8/../AVR8/../AVR8/Device_AVR8.h **** /** \file
  32:../../tmk_core/protocol/lufa/lufa-abcminiuser/LUFA/Drivers/USB/Core/AVR8/../AVR8/../AVR8/../AVR8/Device_AVR8.h ****  *  \brief USB Device definitions for the AVR8 microcontrollers.
  33:../../tmk_core/protocol/lufa/lufa-abcminiuser/LUFA/Drivers/USB/Core/AVR8/../AVR8/../AVR8/../AVR8/Device_AVR8.h ****  *  \copydetails Group_Device_AVR8
  34:../../tmk_core/protocol/lufa/lufa-abcminiuser/LUFA/Drivers/USB/Core/AVR8/../AVR8/../AVR8/../AVR8/Device_AVR8.h ****  *
  35:../../tmk_core/protocol/lufa/lufa-abcminiuser/LUFA/Drivers/USB/Core/AVR8/../AVR8/../AVR8/../AVR8/Device_AVR8.h ****  *  \note This file should not be included directly. It is automatically included as needed by the 
  36:../../tmk_core/protocol/lufa/lufa-abcminiuser/LUFA/Drivers/USB/Core/AVR8/../AVR8/../AVR8/../AVR8/Device_AVR8.h ****  *        dispatch header located in LUFA/Drivers/USB/USB.h.
  37:../../tmk_core/protocol/lufa/lufa-abcminiuser/LUFA/Drivers/USB/Core/AVR8/../AVR8/../AVR8/../AVR8/Device_AVR8.h ****  */
  38:../../tmk_core/protocol/lufa/lufa-abcminiuser/LUFA/Drivers/USB/Core/AVR8/../AVR8/../AVR8/../AVR8/Device_AVR8.h **** 
  39:../../tmk_core/protocol/lufa/lufa-abcminiuser/LUFA/Drivers/USB/Core/AVR8/../AVR8/../AVR8/../AVR8/Device_AVR8.h **** /** \ingroup Group_Device
  40:../../tmk_core/protocol/lufa/lufa-abcminiuser/LUFA/Drivers/USB/Core/AVR8/../AVR8/../AVR8/../AVR8/Device_AVR8.h ****  *  \defgroup Group_Device_AVR8 Device Management (AVR8)
  41:../../tmk_core/protocol/lufa/lufa-abcminiuser/LUFA/Drivers/USB/Core/AVR8/../AVR8/../AVR8/../AVR8/Device_AVR8.h ****  *  \brief USB Device definitions for the AVR8 microcontrollers.
  42:../../tmk_core/protocol/lufa/lufa-abcminiuser/LUFA/Drivers/USB/Core/AVR8/../AVR8/../AVR8/../AVR8/Device_AVR8.h ****  *
  43:../../tmk_core/protocol/lufa/lufa-abcminiuser/LUFA/Drivers/USB/Core/AVR8/../AVR8/../AVR8/../AVR8/Device_AVR8.h ****  *  Architecture specific USB Device definitions for the Atmel 8-bit AVR microcontrollers.
  44:../../tmk_core/protocol/lufa/lufa-abcminiuser/LUFA/Drivers/USB/Core/AVR8/../AVR8/../AVR8/../AVR8/Device_AVR8.h ****  *
  45:../../tmk_core/protocol/lufa/lufa-abcminiuser/LUFA/Drivers/USB/Core/AVR8/../AVR8/../AVR8/../AVR8/Device_AVR8.h ****  *  @{
  46:../../tmk_core/protocol/lufa/lufa-abcminiuser/LUFA/Drivers/USB/Core/AVR8/../AVR8/../AVR8/../AVR8/Device_AVR8.h ****  */
  47:../../tmk_core/protocol/lufa/lufa-abcminiuser/LUFA/Drivers/USB/Core/AVR8/../AVR8/../AVR8/../AVR8/Device_AVR8.h **** 
  48:../../tmk_core/protocol/lufa/lufa-abcminiuser/LUFA/Drivers/USB/Core/AVR8/../AVR8/../AVR8/../AVR8/Device_AVR8.h **** #ifndef __USBDEVICE_AVR8_H__
  49:../../tmk_core/protocol/lufa/lufa-abcminiuser/LUFA/Drivers/USB/Core/AVR8/../AVR8/../AVR8/../AVR8/Device_AVR8.h **** #define __USBDEVICE_AVR8_H__
  50:../../tmk_core/protocol/lufa/lufa-abcminiuser/LUFA/Drivers/USB/Core/AVR8/../AVR8/../AVR8/../AVR8/Device_AVR8.h **** 
  51:../../tmk_core/protocol/lufa/lufa-abcminiuser/LUFA/Drivers/USB/Core/AVR8/../AVR8/../AVR8/../AVR8/Device_AVR8.h **** 	/* Includes: */
  52:../../tmk_core/protocol/lufa/lufa-abcminiuser/LUFA/Drivers/USB/Core/AVR8/../AVR8/../AVR8/../AVR8/Device_AVR8.h **** 		#include "../../../../Common/Common.h"
  53:../../tmk_core/protocol/lufa/lufa-abcminiuser/LUFA/Drivers/USB/Core/AVR8/../AVR8/../AVR8/../AVR8/Device_AVR8.h **** 		#include "../USBController.h"
  54:../../tmk_core/protocol/lufa/lufa-abcminiuser/LUFA/Drivers/USB/Core/AVR8/../AVR8/../AVR8/../AVR8/Device_AVR8.h **** 		#include "../StdDescriptors.h"
  55:../../tmk_core/protocol/lufa/lufa-abcminiuser/LUFA/Drivers/USB/Core/AVR8/../AVR8/../AVR8/../AVR8/Device_AVR8.h **** 		#include "../USBInterrupt.h"
  56:../../tmk_core/protocol/lufa/lufa-abcminiuser/LUFA/Drivers/USB/Core/AVR8/../AVR8/../AVR8/../AVR8/Device_AVR8.h **** 		#include "../Endpoint.h"
  57:../../tmk_core/protocol/lufa/lufa-abcminiuser/LUFA/Drivers/USB/Core/AVR8/../AVR8/../AVR8/../AVR8/Device_AVR8.h **** 
  58:../../tmk_core/protocol/lufa/lufa-abcminiuser/LUFA/Drivers/USB/Core/AVR8/../AVR8/../AVR8/../AVR8/Device_AVR8.h **** 	/* Enable C linkage for C++ Compilers: */
  59:../../tmk_core/protocol/lufa/lufa-abcminiuser/LUFA/Drivers/USB/Core/AVR8/../AVR8/../AVR8/../AVR8/Device_AVR8.h **** 		#if defined(__cplusplus)
  60:../../tmk_core/protocol/lufa/lufa-abcminiuser/LUFA/Drivers/USB/Core/AVR8/../AVR8/../AVR8/../AVR8/Device_AVR8.h **** 			extern "C" {
  61:../../tmk_core/protocol/lufa/lufa-abcminiuser/LUFA/Drivers/USB/Core/AVR8/../AVR8/../AVR8/../AVR8/Device_AVR8.h **** 		#endif
  62:../../tmk_core/protocol/lufa/lufa-abcminiuser/LUFA/Drivers/USB/Core/AVR8/../AVR8/../AVR8/../AVR8/Device_AVR8.h **** 
  63:../../tmk_core/protocol/lufa/lufa-abcminiuser/LUFA/Drivers/USB/Core/AVR8/../AVR8/../AVR8/../AVR8/Device_AVR8.h **** 	/* Preprocessor Checks: */
  64:../../tmk_core/protocol/lufa/lufa-abcminiuser/LUFA/Drivers/USB/Core/AVR8/../AVR8/../AVR8/../AVR8/Device_AVR8.h **** 		#if !defined(__INCLUDE_FROM_USB_DRIVER)
  65:../../tmk_core/protocol/lufa/lufa-abcminiuser/LUFA/Drivers/USB/Core/AVR8/../AVR8/../AVR8/../AVR8/Device_AVR8.h **** 			#error Do not include this file directly. Include LUFA/Drivers/USB/USB.h instead.
  66:../../tmk_core/protocol/lufa/lufa-abcminiuser/LUFA/Drivers/USB/Core/AVR8/../AVR8/../AVR8/../AVR8/Device_AVR8.h **** 		#endif
  67:../../tmk_core/protocol/lufa/lufa-abcminiuser/LUFA/Drivers/USB/Core/AVR8/../AVR8/../AVR8/../AVR8/Device_AVR8.h **** 
  68:../../tmk_core/protocol/lufa/lufa-abcminiuser/LUFA/Drivers/USB/Core/AVR8/../AVR8/../AVR8/../AVR8/Device_AVR8.h **** 		#if (defined(USE_RAM_DESCRIPTORS) && defined(USE_EEPROM_DESCRIPTORS))
  69:../../tmk_core/protocol/lufa/lufa-abcminiuser/LUFA/Drivers/USB/Core/AVR8/../AVR8/../AVR8/../AVR8/Device_AVR8.h **** 			#error USE_RAM_DESCRIPTORS and USE_EEPROM_DESCRIPTORS are mutually exclusive.
  70:../../tmk_core/protocol/lufa/lufa-abcminiuser/LUFA/Drivers/USB/Core/AVR8/../AVR8/../AVR8/../AVR8/Device_AVR8.h **** 		#endif
  71:../../tmk_core/protocol/lufa/lufa-abcminiuser/LUFA/Drivers/USB/Core/AVR8/../AVR8/../AVR8/../AVR8/Device_AVR8.h **** 
  72:../../tmk_core/protocol/lufa/lufa-abcminiuser/LUFA/Drivers/USB/Core/AVR8/../AVR8/../AVR8/../AVR8/Device_AVR8.h **** 		#if (defined(USE_FLASH_DESCRIPTORS) && defined(USE_EEPROM_DESCRIPTORS))
  73:../../tmk_core/protocol/lufa/lufa-abcminiuser/LUFA/Drivers/USB/Core/AVR8/../AVR8/../AVR8/../AVR8/Device_AVR8.h **** 			#error USE_FLASH_DESCRIPTORS and USE_EEPROM_DESCRIPTORS are mutually exclusive.
  74:../../tmk_core/protocol/lufa/lufa-abcminiuser/LUFA/Drivers/USB/Core/AVR8/../AVR8/../AVR8/../AVR8/Device_AVR8.h **** 		#endif
  75:../../tmk_core/protocol/lufa/lufa-abcminiuser/LUFA/Drivers/USB/Core/AVR8/../AVR8/../AVR8/../AVR8/Device_AVR8.h **** 
  76:../../tmk_core/protocol/lufa/lufa-abcminiuser/LUFA/Drivers/USB/Core/AVR8/../AVR8/../AVR8/../AVR8/Device_AVR8.h **** 		#if (defined(USE_FLASH_DESCRIPTORS) && defined(USE_RAM_DESCRIPTORS))
  77:../../tmk_core/protocol/lufa/lufa-abcminiuser/LUFA/Drivers/USB/Core/AVR8/../AVR8/../AVR8/../AVR8/Device_AVR8.h **** 			#error USE_FLASH_DESCRIPTORS and USE_RAM_DESCRIPTORS are mutually exclusive.
  78:../../tmk_core/protocol/lufa/lufa-abcminiuser/LUFA/Drivers/USB/Core/AVR8/../AVR8/../AVR8/../AVR8/Device_AVR8.h **** 		#endif
  79:../../tmk_core/protocol/lufa/lufa-abcminiuser/LUFA/Drivers/USB/Core/AVR8/../AVR8/../AVR8/../AVR8/Device_AVR8.h **** 
  80:../../tmk_core/protocol/lufa/lufa-abcminiuser/LUFA/Drivers/USB/Core/AVR8/../AVR8/../AVR8/../AVR8/Device_AVR8.h **** 	/* Public Interface - May be used in end-application: */
  81:../../tmk_core/protocol/lufa/lufa-abcminiuser/LUFA/Drivers/USB/Core/AVR8/../AVR8/../AVR8/../AVR8/Device_AVR8.h **** 		/* Macros: */
  82:../../tmk_core/protocol/lufa/lufa-abcminiuser/LUFA/Drivers/USB/Core/AVR8/../AVR8/../AVR8/../AVR8/Device_AVR8.h **** 			/** \name USB Device Mode Option Masks */
  83:../../tmk_core/protocol/lufa/lufa-abcminiuser/LUFA/Drivers/USB/Core/AVR8/../AVR8/../AVR8/../AVR8/Device_AVR8.h **** 			/**@{*/
  84:../../tmk_core/protocol/lufa/lufa-abcminiuser/LUFA/Drivers/USB/Core/AVR8/../AVR8/../AVR8/../AVR8/Device_AVR8.h **** 			#if defined(USB_SERIES_4_AVR) || defined(USB_SERIES_6_AVR) || defined(USB_SERIES_7_AVR) || defin
  85:../../tmk_core/protocol/lufa/lufa-abcminiuser/LUFA/Drivers/USB/Core/AVR8/../AVR8/../AVR8/../AVR8/Device_AVR8.h **** 				/** Mask for the Options parameter of the \ref USB_Init() function. This indicates that the
  86:../../tmk_core/protocol/lufa/lufa-abcminiuser/LUFA/Drivers/USB/Core/AVR8/../AVR8/../AVR8/../AVR8/Device_AVR8.h **** 				 *  USB interface should be initialized in low speed (1.5Mb/s) mode.
  87:../../tmk_core/protocol/lufa/lufa-abcminiuser/LUFA/Drivers/USB/Core/AVR8/../AVR8/../AVR8/../AVR8/Device_AVR8.h **** 				 *
  88:../../tmk_core/protocol/lufa/lufa-abcminiuser/LUFA/Drivers/USB/Core/AVR8/../AVR8/../AVR8/../AVR8/Device_AVR8.h **** 				 *  \note Low Speed mode is not available on all USB AVR models.
  89:../../tmk_core/protocol/lufa/lufa-abcminiuser/LUFA/Drivers/USB/Core/AVR8/../AVR8/../AVR8/../AVR8/Device_AVR8.h **** 				 *        \n
  90:../../tmk_core/protocol/lufa/lufa-abcminiuser/LUFA/Drivers/USB/Core/AVR8/../AVR8/../AVR8/../AVR8/Device_AVR8.h **** 				 *
  91:../../tmk_core/protocol/lufa/lufa-abcminiuser/LUFA/Drivers/USB/Core/AVR8/../AVR8/../AVR8/../AVR8/Device_AVR8.h **** 				 *  \note Restrictions apply on the number, size and type of endpoints which can be used
  92:../../tmk_core/protocol/lufa/lufa-abcminiuser/LUFA/Drivers/USB/Core/AVR8/../AVR8/../AVR8/../AVR8/Device_AVR8.h **** 				 *        when running in low speed mode - please refer to the USB 2.0 specification.
  93:../../tmk_core/protocol/lufa/lufa-abcminiuser/LUFA/Drivers/USB/Core/AVR8/../AVR8/../AVR8/../AVR8/Device_AVR8.h **** 				 */
  94:../../tmk_core/protocol/lufa/lufa-abcminiuser/LUFA/Drivers/USB/Core/AVR8/../AVR8/../AVR8/../AVR8/Device_AVR8.h **** 				#define USB_DEVICE_OPT_LOWSPEED            (1 << 0)
  95:../../tmk_core/protocol/lufa/lufa-abcminiuser/LUFA/Drivers/USB/Core/AVR8/../AVR8/../AVR8/../AVR8/Device_AVR8.h **** 			#endif
  96:../../tmk_core/protocol/lufa/lufa-abcminiuser/LUFA/Drivers/USB/Core/AVR8/../AVR8/../AVR8/../AVR8/Device_AVR8.h **** 
  97:../../tmk_core/protocol/lufa/lufa-abcminiuser/LUFA/Drivers/USB/Core/AVR8/../AVR8/../AVR8/../AVR8/Device_AVR8.h **** 			/** Mask for the Options parameter of the \ref USB_Init() function. This indicates that the
  98:../../tmk_core/protocol/lufa/lufa-abcminiuser/LUFA/Drivers/USB/Core/AVR8/../AVR8/../AVR8/../AVR8/Device_AVR8.h **** 			 *  USB interface should be initialized in full speed (12Mb/s) mode.
  99:../../tmk_core/protocol/lufa/lufa-abcminiuser/LUFA/Drivers/USB/Core/AVR8/../AVR8/../AVR8/../AVR8/Device_AVR8.h **** 			 */
 100:../../tmk_core/protocol/lufa/lufa-abcminiuser/LUFA/Drivers/USB/Core/AVR8/../AVR8/../AVR8/../AVR8/Device_AVR8.h **** 			#define USB_DEVICE_OPT_FULLSPEED               (0 << 0)
 101:../../tmk_core/protocol/lufa/lufa-abcminiuser/LUFA/Drivers/USB/Core/AVR8/../AVR8/../AVR8/../AVR8/Device_AVR8.h **** 			/**@}*/
 102:../../tmk_core/protocol/lufa/lufa-abcminiuser/LUFA/Drivers/USB/Core/AVR8/../AVR8/../AVR8/../AVR8/Device_AVR8.h **** 
 103:../../tmk_core/protocol/lufa/lufa-abcminiuser/LUFA/Drivers/USB/Core/AVR8/../AVR8/../AVR8/../AVR8/Device_AVR8.h **** 			#if (!defined(NO_INTERNAL_SERIAL) && \
 104:../../tmk_core/protocol/lufa/lufa-abcminiuser/LUFA/Drivers/USB/Core/AVR8/../AVR8/../AVR8/../AVR8/Device_AVR8.h **** 			     (defined(USB_SERIES_7_AVR) || defined(USB_SERIES_6_AVR) || \
 105:../../tmk_core/protocol/lufa/lufa-abcminiuser/LUFA/Drivers/USB/Core/AVR8/../AVR8/../AVR8/../AVR8/Device_AVR8.h **** 			      defined(USB_SERIES_4_AVR) || defined(USB_SERIES_2_AVR) || \
 106:../../tmk_core/protocol/lufa/lufa-abcminiuser/LUFA/Drivers/USB/Core/AVR8/../AVR8/../AVR8/../AVR8/Device_AVR8.h **** 				  defined(__DOXYGEN__)))
 107:../../tmk_core/protocol/lufa/lufa-abcminiuser/LUFA/Drivers/USB/Core/AVR8/../AVR8/../AVR8/../AVR8/Device_AVR8.h **** 				/** String descriptor index for the device's unique serial number string descriptor within the 
 108:../../tmk_core/protocol/lufa/lufa-abcminiuser/LUFA/Drivers/USB/Core/AVR8/../AVR8/../AVR8/../AVR8/Device_AVR8.h **** 				 *  This unique serial number is used by the host to associate resources to the device (such as
 109:../../tmk_core/protocol/lufa/lufa-abcminiuser/LUFA/Drivers/USB/Core/AVR8/../AVR8/../AVR8/../AVR8/Device_AVR8.h **** 				 *  number allocations) to a device regardless of the port it is plugged in to on the host. Som
 110:../../tmk_core/protocol/lufa/lufa-abcminiuser/LUFA/Drivers/USB/Core/AVR8/../AVR8/../AVR8/../AVR8/Device_AVR8.h **** 				 *  a unique serial number internally, and setting the device descriptors serial number string 
 111:../../tmk_core/protocol/lufa/lufa-abcminiuser/LUFA/Drivers/USB/Core/AVR8/../AVR8/../AVR8/../AVR8/Device_AVR8.h **** 				 *  will cause it to use the internal serial number.
 112:../../tmk_core/protocol/lufa/lufa-abcminiuser/LUFA/Drivers/USB/Core/AVR8/../AVR8/../AVR8/../AVR8/Device_AVR8.h **** 				 *
 113:../../tmk_core/protocol/lufa/lufa-abcminiuser/LUFA/Drivers/USB/Core/AVR8/../AVR8/../AVR8/../AVR8/Device_AVR8.h **** 				 *  On unsupported devices, this will evaluate to \ref NO_DESCRIPTOR and so will force the host
 114:../../tmk_core/protocol/lufa/lufa-abcminiuser/LUFA/Drivers/USB/Core/AVR8/../AVR8/../AVR8/../AVR8/Device_AVR8.h **** 				 *  number for the device.
 115:../../tmk_core/protocol/lufa/lufa-abcminiuser/LUFA/Drivers/USB/Core/AVR8/../AVR8/../AVR8/../AVR8/Device_AVR8.h **** 				 */
 116:../../tmk_core/protocol/lufa/lufa-abcminiuser/LUFA/Drivers/USB/Core/AVR8/../AVR8/../AVR8/../AVR8/Device_AVR8.h **** 				#ifndef USE_INTERNAL_SERIAL
 117:../../tmk_core/protocol/lufa/lufa-abcminiuser/LUFA/Drivers/USB/Core/AVR8/../AVR8/../AVR8/../AVR8/Device_AVR8.h **** 					#define USE_INTERNAL_SERIAL         0xDC
 118:../../tmk_core/protocol/lufa/lufa-abcminiuser/LUFA/Drivers/USB/Core/AVR8/../AVR8/../AVR8/../AVR8/Device_AVR8.h **** 				#endif
 119:../../tmk_core/protocol/lufa/lufa-abcminiuser/LUFA/Drivers/USB/Core/AVR8/../AVR8/../AVR8/../AVR8/Device_AVR8.h **** 
 120:../../tmk_core/protocol/lufa/lufa-abcminiuser/LUFA/Drivers/USB/Core/AVR8/../AVR8/../AVR8/../AVR8/Device_AVR8.h **** 				/** Length of the device's unique internal serial number, in bits, if present on the selected m
 121:../../tmk_core/protocol/lufa/lufa-abcminiuser/LUFA/Drivers/USB/Core/AVR8/../AVR8/../AVR8/../AVR8/Device_AVR8.h **** 				 *  model.
 122:../../tmk_core/protocol/lufa/lufa-abcminiuser/LUFA/Drivers/USB/Core/AVR8/../AVR8/../AVR8/../AVR8/Device_AVR8.h **** 				 */
 123:../../tmk_core/protocol/lufa/lufa-abcminiuser/LUFA/Drivers/USB/Core/AVR8/../AVR8/../AVR8/../AVR8/Device_AVR8.h **** 				#define INTERNAL_SERIAL_LENGTH_BITS     80
 124:../../tmk_core/protocol/lufa/lufa-abcminiuser/LUFA/Drivers/USB/Core/AVR8/../AVR8/../AVR8/../AVR8/Device_AVR8.h **** 
 125:../../tmk_core/protocol/lufa/lufa-abcminiuser/LUFA/Drivers/USB/Core/AVR8/../AVR8/../AVR8/../AVR8/Device_AVR8.h **** 				/** Start address of the internal serial number, in the appropriate address space, if present o
 126:../../tmk_core/protocol/lufa/lufa-abcminiuser/LUFA/Drivers/USB/Core/AVR8/../AVR8/../AVR8/../AVR8/Device_AVR8.h **** 				 *  model.
 127:../../tmk_core/protocol/lufa/lufa-abcminiuser/LUFA/Drivers/USB/Core/AVR8/../AVR8/../AVR8/../AVR8/Device_AVR8.h **** 				 */
 128:../../tmk_core/protocol/lufa/lufa-abcminiuser/LUFA/Drivers/USB/Core/AVR8/../AVR8/../AVR8/../AVR8/Device_AVR8.h **** 				#define INTERNAL_SERIAL_START_ADDRESS   0x0E
 129:../../tmk_core/protocol/lufa/lufa-abcminiuser/LUFA/Drivers/USB/Core/AVR8/../AVR8/../AVR8/../AVR8/Device_AVR8.h **** 			#else
 130:../../tmk_core/protocol/lufa/lufa-abcminiuser/LUFA/Drivers/USB/Core/AVR8/../AVR8/../AVR8/../AVR8/Device_AVR8.h **** 				#undef	USE_INTERNAL_SERIAL
 131:../../tmk_core/protocol/lufa/lufa-abcminiuser/LUFA/Drivers/USB/Core/AVR8/../AVR8/../AVR8/../AVR8/Device_AVR8.h **** 				#define USE_INTERNAL_SERIAL             NO_DESCRIPTOR
 132:../../tmk_core/protocol/lufa/lufa-abcminiuser/LUFA/Drivers/USB/Core/AVR8/../AVR8/../AVR8/../AVR8/Device_AVR8.h **** 
 133:../../tmk_core/protocol/lufa/lufa-abcminiuser/LUFA/Drivers/USB/Core/AVR8/../AVR8/../AVR8/../AVR8/Device_AVR8.h **** 				#define INTERNAL_SERIAL_LENGTH_BITS     0
 134:../../tmk_core/protocol/lufa/lufa-abcminiuser/LUFA/Drivers/USB/Core/AVR8/../AVR8/../AVR8/../AVR8/Device_AVR8.h **** 				#define INTERNAL_SERIAL_START_ADDRESS   0
 135:../../tmk_core/protocol/lufa/lufa-abcminiuser/LUFA/Drivers/USB/Core/AVR8/../AVR8/../AVR8/../AVR8/Device_AVR8.h **** 			#endif
 136:../../tmk_core/protocol/lufa/lufa-abcminiuser/LUFA/Drivers/USB/Core/AVR8/../AVR8/../AVR8/../AVR8/Device_AVR8.h **** 
 137:../../tmk_core/protocol/lufa/lufa-abcminiuser/LUFA/Drivers/USB/Core/AVR8/../AVR8/../AVR8/../AVR8/Device_AVR8.h **** 		/* Function Prototypes: */
 138:../../tmk_core/protocol/lufa/lufa-abcminiuser/LUFA/Drivers/USB/Core/AVR8/../AVR8/../AVR8/../AVR8/Device_AVR8.h **** 			/** Sends a Remote Wakeup request to the host. This signals to the host that the device should
 139:../../tmk_core/protocol/lufa/lufa-abcminiuser/LUFA/Drivers/USB/Core/AVR8/../AVR8/../AVR8/../AVR8/Device_AVR8.h **** 			 *  be taken out of suspended mode, and communications should resume.
 140:../../tmk_core/protocol/lufa/lufa-abcminiuser/LUFA/Drivers/USB/Core/AVR8/../AVR8/../AVR8/../AVR8/Device_AVR8.h **** 			 *
 141:../../tmk_core/protocol/lufa/lufa-abcminiuser/LUFA/Drivers/USB/Core/AVR8/../AVR8/../AVR8/../AVR8/Device_AVR8.h **** 			 *  Typically, this is implemented so that HID devices (mice, keyboards, etc.) can wake up the
 142:../../tmk_core/protocol/lufa/lufa-abcminiuser/LUFA/Drivers/USB/Core/AVR8/../AVR8/../AVR8/../AVR8/Device_AVR8.h **** 			 *  host computer when the host has suspended all USB devices to enter a low power state.
 143:../../tmk_core/protocol/lufa/lufa-abcminiuser/LUFA/Drivers/USB/Core/AVR8/../AVR8/../AVR8/../AVR8/Device_AVR8.h **** 			 *
 144:../../tmk_core/protocol/lufa/lufa-abcminiuser/LUFA/Drivers/USB/Core/AVR8/../AVR8/../AVR8/../AVR8/Device_AVR8.h **** 			 *  \attention This function should only be used if the device has indicated to the host that it
 145:../../tmk_core/protocol/lufa/lufa-abcminiuser/LUFA/Drivers/USB/Core/AVR8/../AVR8/../AVR8/../AVR8/Device_AVR8.h **** 			 *             supports the Remote Wakeup feature in the device descriptors, and should only be
 146:../../tmk_core/protocol/lufa/lufa-abcminiuser/LUFA/Drivers/USB/Core/AVR8/../AVR8/../AVR8/../AVR8/Device_AVR8.h **** 			 *             issued if the host is currently allowing remote wakeup events from the device (i.
 147:../../tmk_core/protocol/lufa/lufa-abcminiuser/LUFA/Drivers/USB/Core/AVR8/../AVR8/../AVR8/../AVR8/Device_AVR8.h **** 			 *             the \ref USB_Device_RemoteWakeupEnabled flag is set). When the \c NO_DEVICE_REMOT
 148:../../tmk_core/protocol/lufa/lufa-abcminiuser/LUFA/Drivers/USB/Core/AVR8/../AVR8/../AVR8/../AVR8/Device_AVR8.h **** 			 *             compile time option is used, this function is unavailable.
 149:../../tmk_core/protocol/lufa/lufa-abcminiuser/LUFA/Drivers/USB/Core/AVR8/../AVR8/../AVR8/../AVR8/Device_AVR8.h **** 			 *             \n\n
 150:../../tmk_core/protocol/lufa/lufa-abcminiuser/LUFA/Drivers/USB/Core/AVR8/../AVR8/../AVR8/../AVR8/Device_AVR8.h **** 			 *
 151:../../tmk_core/protocol/lufa/lufa-abcminiuser/LUFA/Drivers/USB/Core/AVR8/../AVR8/../AVR8/../AVR8/Device_AVR8.h **** 			 *  \attention The USB clock must be running for this function to operate. If the stack is initi
 152:../../tmk_core/protocol/lufa/lufa-abcminiuser/LUFA/Drivers/USB/Core/AVR8/../AVR8/../AVR8/../AVR8/Device_AVR8.h **** 			 *             the \ref USB_OPT_MANUAL_PLL option enabled, the user must ensure that the PLL is 
 153:../../tmk_core/protocol/lufa/lufa-abcminiuser/LUFA/Drivers/USB/Core/AVR8/../AVR8/../AVR8/../AVR8/Device_AVR8.h **** 			 *             before attempting to call this function.
 154:../../tmk_core/protocol/lufa/lufa-abcminiuser/LUFA/Drivers/USB/Core/AVR8/../AVR8/../AVR8/../AVR8/Device_AVR8.h **** 			 *
 155:../../tmk_core/protocol/lufa/lufa-abcminiuser/LUFA/Drivers/USB/Core/AVR8/../AVR8/../AVR8/../AVR8/Device_AVR8.h **** 			 *  \see \ref Group_StdDescriptors for more information on the RMWAKEUP feature and device descr
 156:../../tmk_core/protocol/lufa/lufa-abcminiuser/LUFA/Drivers/USB/Core/AVR8/../AVR8/../AVR8/../AVR8/Device_AVR8.h **** 			 */
 157:../../tmk_core/protocol/lufa/lufa-abcminiuser/LUFA/Drivers/USB/Core/AVR8/../AVR8/../AVR8/../AVR8/Device_AVR8.h **** 			void USB_Device_SendRemoteWakeup(void);
 158:../../tmk_core/protocol/lufa/lufa-abcminiuser/LUFA/Drivers/USB/Core/AVR8/../AVR8/../AVR8/../AVR8/Device_AVR8.h **** 
 159:../../tmk_core/protocol/lufa/lufa-abcminiuser/LUFA/Drivers/USB/Core/AVR8/../AVR8/../AVR8/../AVR8/Device_AVR8.h **** 		/* Inline Functions: */
 160:../../tmk_core/protocol/lufa/lufa-abcminiuser/LUFA/Drivers/USB/Core/AVR8/../AVR8/../AVR8/../AVR8/Device_AVR8.h **** 			/** Returns the current USB frame number, when in device mode. Every millisecond the USB bus is 
 161:../../tmk_core/protocol/lufa/lufa-abcminiuser/LUFA/Drivers/USB/Core/AVR8/../AVR8/../AVR8/../AVR8/Device_AVR8.h **** 			 *  the frame number is incremented by one.
