   1               		.file	"mousekey.c"
   2               	__SP_H__ = 0x3e
   3               	__SP_L__ = 0x3d
   4               	__SREG__ = 0x3f
   5               	__RAMPZ__ = 0x3b
   6               	__tmp_reg__ = 0
   7               	__zero_reg__ = 1
   8               		.text
   9               	.Ltext0:
  10               		.cfi_sections	.debug_frame
  11               		.file 1 "./tmk_core/common/mousekey.c"
  12               		.section	.text.move_unit,"ax",@progbits
  14               	move_unit:
  15               	.LFB104:
   1:./tmk_core/common/mousekey.c **** /*
   2:./tmk_core/common/mousekey.c **** Copyright 2011 Jun Wako <wakojun@gmail.com>
   3:./tmk_core/common/mousekey.c **** 
   4:./tmk_core/common/mousekey.c **** This program is free software: you can redistribute it and/or modify
   5:./tmk_core/common/mousekey.c **** it under the terms of the GNU General Public License as published by
   6:./tmk_core/common/mousekey.c **** the Free Software Foundation, either version 2 of the License, or
   7:./tmk_core/common/mousekey.c **** (at your option) any later version.
   8:./tmk_core/common/mousekey.c **** 
   9:./tmk_core/common/mousekey.c **** This program is distributed in the hope that it will be useful,
  10:./tmk_core/common/mousekey.c **** but WITHOUT ANY WARRANTY; without even the implied warranty of
  11:./tmk_core/common/mousekey.c **** MERCHANTABILITY or FITNESS FOR A PARTICULAR PURPOSE.  See the
  12:./tmk_core/common/mousekey.c **** GNU General Public License for more details.
  13:./tmk_core/common/mousekey.c **** 
  14:./tmk_core/common/mousekey.c **** You should have received a copy of the GNU General Public License
  15:./tmk_core/common/mousekey.c **** along with this program.  If not, see <http://www.gnu.org/licenses/>.
  16:./tmk_core/common/mousekey.c **** */
  17:./tmk_core/common/mousekey.c **** 
  18:./tmk_core/common/mousekey.c **** #include <stdint.h>
  19:./tmk_core/common/mousekey.c **** #include "keycode.h"
  20:./tmk_core/common/mousekey.c **** #include "host.h"
  21:./tmk_core/common/mousekey.c **** #include "timer.h"
  22:./tmk_core/common/mousekey.c **** #include "print.h"
  23:./tmk_core/common/mousekey.c **** #include "debug.h"
  24:./tmk_core/common/mousekey.c **** #include "mousekey.h"
  25:./tmk_core/common/mousekey.c **** 
  26:./tmk_core/common/mousekey.c **** 
  27:./tmk_core/common/mousekey.c **** 
  28:./tmk_core/common/mousekey.c **** static report_mouse_t mouse_report = {};
  29:./tmk_core/common/mousekey.c **** static uint8_t mousekey_repeat =  0;
  30:./tmk_core/common/mousekey.c **** static uint8_t mousekey_accel = 0;
  31:./tmk_core/common/mousekey.c **** 
  32:./tmk_core/common/mousekey.c **** static void mousekey_debug(void);
  33:./tmk_core/common/mousekey.c **** 
  34:./tmk_core/common/mousekey.c **** 
  35:./tmk_core/common/mousekey.c **** /*
  36:./tmk_core/common/mousekey.c ****  * Mouse keys  acceleration algorithm
  37:./tmk_core/common/mousekey.c ****  *  http://en.wikipedia.org/wiki/Mouse_keys
  38:./tmk_core/common/mousekey.c ****  *
  39:./tmk_core/common/mousekey.c ****  *  speed = delta * max_speed * (repeat / time_to_max)**((1000+curve)/1000)
  40:./tmk_core/common/mousekey.c ****  */
  41:./tmk_core/common/mousekey.c **** /* milliseconds between the initial key press and first repeated motion event (0-2550) */
  42:./tmk_core/common/mousekey.c **** uint8_t mk_delay = MOUSEKEY_DELAY/10;
  43:./tmk_core/common/mousekey.c **** /* milliseconds between repeated motion events (0-255) */
  44:./tmk_core/common/mousekey.c **** uint8_t mk_interval = MOUSEKEY_INTERVAL;
  45:./tmk_core/common/mousekey.c **** /* steady speed (in action_delta units) applied each event (0-255) */
  46:./tmk_core/common/mousekey.c **** uint8_t mk_max_speed = MOUSEKEY_MAX_SPEED;
  47:./tmk_core/common/mousekey.c **** /* number of events (count) accelerating to steady speed (0-255) */
  48:./tmk_core/common/mousekey.c **** uint8_t mk_time_to_max = MOUSEKEY_TIME_TO_MAX;
  49:./tmk_core/common/mousekey.c **** /* ramp used to reach maximum pointer speed (NOT SUPPORTED) */
  50:./tmk_core/common/mousekey.c **** //int8_t mk_curve = 0;
  51:./tmk_core/common/mousekey.c **** /* wheel params */
  52:./tmk_core/common/mousekey.c **** uint8_t mk_wheel_max_speed = MOUSEKEY_WHEEL_MAX_SPEED;
  53:./tmk_core/common/mousekey.c **** uint8_t mk_wheel_time_to_max = MOUSEKEY_WHEEL_TIME_TO_MAX;
  54:./tmk_core/common/mousekey.c **** 
  55:./tmk_core/common/mousekey.c **** 
  56:./tmk_core/common/mousekey.c **** static uint16_t last_timer = 0;
  57:./tmk_core/common/mousekey.c **** 
  58:./tmk_core/common/mousekey.c **** 
  59:./tmk_core/common/mousekey.c **** static uint8_t move_unit(void)
  60:./tmk_core/common/mousekey.c **** {
  16               		.loc 1 60 1 view -0
  17               		.cfi_startproc
  18               	/* prologue: function */
  19               	/* frame size = 0 */
  20               	/* stack size = 0 */
  21               	.L__stack_usage = 0
  61:./tmk_core/common/mousekey.c ****     uint16_t unit;
  22               		.loc 1 61 5 view .LVU1
  62:./tmk_core/common/mousekey.c ****     if (mousekey_accel & (1<<0)) {
  23               		.loc 1 62 5 view .LVU2
  24               		.loc 1 62 24 is_stmt 0 view .LVU3
  25 0000 8091 0000 		lds r24,mousekey_accel
  26               		.loc 1 62 8 view .LVU4
  27 0004 80FF      		sbrs r24,0
  28 0006 00C0      		rjmp .L2
  63:./tmk_core/common/mousekey.c ****         unit = (MOUSEKEY_MOVE_DELTA * mk_max_speed)/4;
  29               		.loc 1 63 9 is_stmt 1 view .LVU5
  30               		.loc 1 63 37 is_stmt 0 view .LVU6
  31 0008 6091 0000 		lds r22,mk_max_speed
  32 000c 85E0      		ldi r24,lo8(5)
  33 000e 689F      		mul r22,r24
  34 0010 B001      		movw r22,r0
  35 0012 1124      		clr __zero_reg__
  36               		.loc 1 63 52 view .LVU7
  37 0014 7595      		asr r23
  38 0016 6795      		ror r22
  39 0018 7595      		asr r23
  40 001a 6795      		ror r22
  41               	.LVL0:
  42               	.L3:
  64:./tmk_core/common/mousekey.c ****     } else if (mousekey_accel & (1<<1)) {
  65:./tmk_core/common/mousekey.c ****         unit = (MOUSEKEY_MOVE_DELTA * mk_max_speed)/2;
  66:./tmk_core/common/mousekey.c ****     } else if (mousekey_accel & (1<<2)) {
  67:./tmk_core/common/mousekey.c ****         unit = (MOUSEKEY_MOVE_DELTA * mk_max_speed);
  68:./tmk_core/common/mousekey.c ****     } else if (mousekey_repeat == 0) {
  69:./tmk_core/common/mousekey.c ****         unit = MOUSEKEY_MOVE_DELTA;
  70:./tmk_core/common/mousekey.c ****     } else if (mousekey_repeat >= mk_time_to_max) {
  71:./tmk_core/common/mousekey.c ****         unit = MOUSEKEY_MOVE_DELTA * mk_max_speed;
  72:./tmk_core/common/mousekey.c ****     } else {
  73:./tmk_core/common/mousekey.c ****         unit = (MOUSEKEY_MOVE_DELTA * mk_max_speed * mousekey_repeat) / mk_time_to_max;
  74:./tmk_core/common/mousekey.c ****     }
  75:./tmk_core/common/mousekey.c ****     return (unit > MOUSEKEY_MOVE_MAX ? MOUSEKEY_MOVE_MAX : (unit == 0 ? 1 : unit));
  43               		.loc 1 75 5 is_stmt 1 view .LVU8
  44               		.loc 1 75 58 is_stmt 0 view .LVU9
  45 001c 6038      		cpi r22,-128
  46 001e 7105      		cpc r23,__zero_reg__
  47 0020 00F4      		brsh .L10
  48               	.LVL1:
  49               		.loc 1 75 58 discriminator 1 view .LVU10
  50 0022 6115      		cp r22,__zero_reg__
  51 0024 7105      		cpc r23,__zero_reg__
  52 0026 01F0      		breq .L11
  53               	.L6:
  54               		.loc 1 75 58 discriminator 3 view .LVU11
  55 0028 862F      		mov r24,r22
  56 002a 0895      		ret
  57               	.L2:
  64:./tmk_core/common/mousekey.c ****     } else if (mousekey_accel & (1<<1)) {
  58               		.loc 1 64 12 is_stmt 1 view .LVU12
  64:./tmk_core/common/mousekey.c ****     } else if (mousekey_accel & (1<<1)) {
  59               		.loc 1 64 15 is_stmt 0 view .LVU13
  60 002c 81FF      		sbrs r24,1
  61 002e 00C0      		rjmp .L4
  65:./tmk_core/common/mousekey.c ****     } else if (mousekey_accel & (1<<2)) {
  62               		.loc 1 65 9 is_stmt 1 view .LVU14
  65:./tmk_core/common/mousekey.c ****     } else if (mousekey_accel & (1<<2)) {
  63               		.loc 1 65 37 is_stmt 0 view .LVU15
  64 0030 6091 0000 		lds r22,mk_max_speed
  65 0034 85E0      		ldi r24,lo8(5)
  66 0036 689F      		mul r22,r24
  67 0038 B001      		movw r22,r0
  68 003a 1124      		clr __zero_reg__
  65:./tmk_core/common/mousekey.c ****     } else if (mousekey_accel & (1<<2)) {
  69               		.loc 1 65 52 view .LVU16
  70 003c 7595      		asr r23
  71 003e 6795      		ror r22
  72               	.LVL2:
  65:./tmk_core/common/mousekey.c ****     } else if (mousekey_accel & (1<<2)) {
  73               		.loc 1 65 52 view .LVU17
  74 0040 00C0      		rjmp .L3
  75               	.LVL3:
  76               	.L4:
  66:./tmk_core/common/mousekey.c ****         unit = (MOUSEKEY_MOVE_DELTA * mk_max_speed);
  77               		.loc 1 66 12 is_stmt 1 view .LVU18
  66:./tmk_core/common/mousekey.c ****         unit = (MOUSEKEY_MOVE_DELTA * mk_max_speed);
  78               		.loc 1 66 15 is_stmt 0 view .LVU19
  79 0042 82FF      		sbrs r24,2
  80 0044 00C0      		rjmp .L5
  67:./tmk_core/common/mousekey.c ****     } else if (mousekey_repeat == 0) {
  81               		.loc 1 67 9 is_stmt 1 view .LVU20
  67:./tmk_core/common/mousekey.c ****     } else if (mousekey_repeat == 0) {
  82               		.loc 1 67 37 is_stmt 0 view .LVU21
  83 0046 6091 0000 		lds r22,mk_max_speed
  84 004a 85E0      		ldi r24,lo8(5)
  85 004c 689F      		mul r22,r24
  86 004e B001      		movw r22,r0
  87 0050 1124      		clr __zero_reg__
  88               	.LVL4:
  67:./tmk_core/common/mousekey.c ****     } else if (mousekey_repeat == 0) {
  89               		.loc 1 67 37 view .LVU22
  90 0052 00C0      		rjmp .L3
  91               	.LVL5:
  92               	.L5:
  68:./tmk_core/common/mousekey.c ****         unit = MOUSEKEY_MOVE_DELTA;
  93               		.loc 1 68 12 is_stmt 1 view .LVU23
  68:./tmk_core/common/mousekey.c ****         unit = MOUSEKEY_MOVE_DELTA;
  94               		.loc 1 68 32 is_stmt 0 view .LVU24
  95 0054 2091 0000 		lds r18,mousekey_repeat
  68:./tmk_core/common/mousekey.c ****         unit = MOUSEKEY_MOVE_DELTA;
  96               		.loc 1 68 15 view .LVU25
  97 0058 2223      		tst r18
  98 005a 01F0      		breq .L9
  70:./tmk_core/common/mousekey.c ****         unit = MOUSEKEY_MOVE_DELTA * mk_max_speed;
  99               		.loc 1 70 12 is_stmt 1 view .LVU26
  70:./tmk_core/common/mousekey.c ****         unit = MOUSEKEY_MOVE_DELTA * mk_max_speed;
 100               		.loc 1 70 32 is_stmt 0 view .LVU27
 101 005c 6091 0000 		lds r22,mk_time_to_max
  71:./tmk_core/common/mousekey.c ****     } else {
 102               		.loc 1 71 36 view .LVU28
 103 0060 8091 0000 		lds r24,mk_max_speed
 104 0064 90E0      		ldi r25,0
  70:./tmk_core/common/mousekey.c ****         unit = MOUSEKEY_MOVE_DELTA * mk_max_speed;
 105               		.loc 1 70 15 view .LVU29
 106 0066 2617      		cp r18,r22
 107 0068 00F0      		brlo .L7
  71:./tmk_core/common/mousekey.c ****     } else {
 108               		.loc 1 71 9 is_stmt 1 view .LVU30
  71:./tmk_core/common/mousekey.c ****     } else {
 109               		.loc 1 71 36 is_stmt 0 view .LVU31
 110 006a 25E0      		ldi r18,lo8(5)
 111 006c 289F      		mul r18,r24
 112 006e B001      		movw r22,r0
 113 0070 299F      		mul r18,r25
 114 0072 700D      		add r23,r0
 115 0074 1124      		clr __zero_reg__
 116               	.LVL6:
  71:./tmk_core/common/mousekey.c ****     } else {
 117               		.loc 1 71 36 view .LVU32
 118 0076 00C0      		rjmp .L3
 119               	.LVL7:
 120               	.L7:
  73:./tmk_core/common/mousekey.c ****     }
 121               		.loc 1 73 9 is_stmt 1 view .LVU33
  73:./tmk_core/common/mousekey.c ****     }
 122               		.loc 1 73 52 is_stmt 0 view .LVU34
 123 0078 289F      		mul r18,r24
 124 007a A001      		movw r20,r0
 125 007c 299F      		mul r18,r25
 126 007e 500D      		add r21,r0
 127 0080 1124      		clr __zero_reg__
 128 0082 25E0      		ldi r18,lo8(5)
 129 0084 249F      		mul r18,r20
 130 0086 C001      		movw r24,r0
 131 0088 259F      		mul r18,r21
 132 008a 900D      		add r25,r0
 133 008c 1124      		clr __zero_reg__
  73:./tmk_core/common/mousekey.c ****     }
 134               		.loc 1 73 71 view .LVU35
 135 008e 70E0      		ldi r23,0
  73:./tmk_core/common/mousekey.c ****     }
 136               		.loc 1 73 14 view .LVU36
 137 0090 0E94 0000 		call __divmodhi4
 138               	.LVL8:
  73:./tmk_core/common/mousekey.c ****     }
 139               		.loc 1 73 14 view .LVU37
 140 0094 00C0      		rjmp .L3
 141               	.LVL9:
 142               	.L9:
  69:./tmk_core/common/mousekey.c ****     } else if (mousekey_repeat >= mk_time_to_max) {
 143               		.loc 1 69 14 view .LVU38
 144 0096 65E0      		ldi r22,lo8(5)
 145 0098 70E0      		ldi r23,0
 146 009a 00C0      		rjmp .L6
 147               	.LVL10:
 148               	.L10:
 149               		.loc 1 75 58 view .LVU39
 150 009c 8FE7      		ldi r24,lo8(127)
 151 009e 0895      		ret
 152               	.LVL11:
 153               	.L11:
 154               		.loc 1 75 58 view .LVU40
 155 00a0 81E0      		ldi r24,lo8(1)
 156               	/* epilogue start */
  76:./tmk_core/common/mousekey.c **** }
 157               		.loc 1 76 1 view .LVU41
 158 00a2 0895      		ret
 159               		.cfi_endproc
 160               	.LFE104:
 162               		.section	.text.wheel_unit,"ax",@progbits
 164               	wheel_unit:
 165               	.LFB105:
  77:./tmk_core/common/mousekey.c **** 
  78:./tmk_core/common/mousekey.c **** static uint8_t wheel_unit(void)
  79:./tmk_core/common/mousekey.c **** {
 166               		.loc 1 79 1 is_stmt 1 view -0
 167               		.cfi_startproc
 168               	/* prologue: function */
 169               	/* frame size = 0 */
 170               	/* stack size = 0 */
 171               	.L__stack_usage = 0
  80:./tmk_core/common/mousekey.c ****     uint16_t unit;
 172               		.loc 1 80 5 view .LVU43
  81:./tmk_core/common/mousekey.c ****     if (mousekey_accel & (1<<0)) {
 173               		.loc 1 81 5 view .LVU44
 174               		.loc 1 81 24 is_stmt 0 view .LVU45
 175 0000 8091 0000 		lds r24,mousekey_accel
 176               		.loc 1 81 8 view .LVU46
 177 0004 80FF      		sbrs r24,0
 178 0006 00C0      		rjmp .L13
  82:./tmk_core/common/mousekey.c ****         unit = (MOUSEKEY_WHEEL_DELTA * mk_wheel_max_speed)/4;
 179               		.loc 1 82 9 is_stmt 1 view .LVU47
 180               		.loc 1 82 38 is_stmt 0 view .LVU48
 181 0008 6091 0000 		lds r22,mk_wheel_max_speed
 182 000c 70E0      		ldi r23,0
 183               		.loc 1 82 59 view .LVU49
 184 000e 7595      		asr r23
 185 0010 6795      		ror r22
 186 0012 7595      		asr r23
 187 0014 6795      		ror r22
 188               	.LVL12:
  83:./tmk_core/common/mousekey.c ****     } else if (mousekey_accel & (1<<1)) {
  84:./tmk_core/common/mousekey.c ****         unit = (MOUSEKEY_WHEEL_DELTA * mk_wheel_max_speed)/2;
  85:./tmk_core/common/mousekey.c ****     } else if (mousekey_accel & (1<<2)) {
  86:./tmk_core/common/mousekey.c ****         unit = (MOUSEKEY_WHEEL_DELTA * mk_wheel_max_speed);
  87:./tmk_core/common/mousekey.c ****     } else if (mousekey_repeat == 0) {
  88:./tmk_core/common/mousekey.c ****         unit = MOUSEKEY_WHEEL_DELTA;
  89:./tmk_core/common/mousekey.c ****     } else if (mousekey_repeat >= mk_wheel_time_to_max) {
  90:./tmk_core/common/mousekey.c ****         unit = MOUSEKEY_WHEEL_DELTA * mk_wheel_max_speed;
  91:./tmk_core/common/mousekey.c ****     } else {
  92:./tmk_core/common/mousekey.c ****         unit = (MOUSEKEY_WHEEL_DELTA * mk_wheel_max_speed * mousekey_repeat) / mk_wheel_time_to_max
  93:./tmk_core/common/mousekey.c ****     }
  94:./tmk_core/common/mousekey.c ****     return (unit > MOUSEKEY_WHEEL_MAX ? MOUSEKEY_WHEEL_MAX : (unit == 0 ? 1 : unit));
 189               		.loc 1 94 5 is_stmt 1 view .LVU50
 190               	.L14:
 191               		.loc 1 94 60 is_stmt 0 discriminator 1 view .LVU51
 192 0016 6115      		cp r22,__zero_reg__
 193 0018 7105      		cpc r23,__zero_reg__
 194 001a 01F0      		breq .L23
 195               	.L18:
 196               		.loc 1 94 60 discriminator 3 view .LVU52
 197 001c 862F      		mov r24,r22
 198 001e 0895      		ret
 199               	.L13:
  83:./tmk_core/common/mousekey.c ****     } else if (mousekey_accel & (1<<1)) {
 200               		.loc 1 83 12 is_stmt 1 view .LVU53
  83:./tmk_core/common/mousekey.c ****     } else if (mousekey_accel & (1<<1)) {
 201               		.loc 1 83 15 is_stmt 0 view .LVU54
 202 0020 81FF      		sbrs r24,1
 203 0022 00C0      		rjmp .L15
  84:./tmk_core/common/mousekey.c ****     } else if (mousekey_accel & (1<<2)) {
 204               		.loc 1 84 9 is_stmt 1 view .LVU55
  84:./tmk_core/common/mousekey.c ****     } else if (mousekey_accel & (1<<2)) {
 205               		.loc 1 84 38 is_stmt 0 view .LVU56
 206 0024 6091 0000 		lds r22,mk_wheel_max_speed
 207 0028 70E0      		ldi r23,0
  84:./tmk_core/common/mousekey.c ****     } else if (mousekey_accel & (1<<2)) {
 208               		.loc 1 84 59 view .LVU57
 209 002a 7595      		asr r23
 210 002c 6795      		ror r22
 211               	.LVL13:
 212               		.loc 1 94 5 is_stmt 1 view .LVU58
 213 002e 00C0      		rjmp .L14
 214               	.LVL14:
 215               	.L15:
  85:./tmk_core/common/mousekey.c ****         unit = (MOUSEKEY_WHEEL_DELTA * mk_wheel_max_speed);
 216               		.loc 1 85 12 view .LVU59
  86:./tmk_core/common/mousekey.c ****     } else if (mousekey_repeat == 0) {
 217               		.loc 1 86 14 is_stmt 0 view .LVU60
 218 0030 6091 0000 		lds r22,mk_wheel_max_speed
 219 0034 70E0      		ldi r23,0
  85:./tmk_core/common/mousekey.c ****         unit = (MOUSEKEY_WHEEL_DELTA * mk_wheel_max_speed);
 220               		.loc 1 85 15 view .LVU61
 221 0036 82FD      		sbrc r24,2
 222 0038 00C0      		rjmp .L17
  87:./tmk_core/common/mousekey.c ****         unit = MOUSEKEY_WHEEL_DELTA;
 223               		.loc 1 87 12 is_stmt 1 view .LVU62
  87:./tmk_core/common/mousekey.c ****         unit = MOUSEKEY_WHEEL_DELTA;
 224               		.loc 1 87 32 is_stmt 0 view .LVU63
 225 003a 2091 0000 		lds r18,mousekey_repeat
  87:./tmk_core/common/mousekey.c ****         unit = MOUSEKEY_WHEEL_DELTA;
 226               		.loc 1 87 15 view .LVU64
 227 003e 2223      		tst r18
 228 0040 01F0      		breq .L21
  89:./tmk_core/common/mousekey.c ****         unit = MOUSEKEY_WHEEL_DELTA * mk_wheel_max_speed;
 229               		.loc 1 89 12 is_stmt 1 view .LVU65
  89:./tmk_core/common/mousekey.c ****         unit = MOUSEKEY_WHEEL_DELTA * mk_wheel_max_speed;
 230               		.loc 1 89 32 is_stmt 0 view .LVU66
 231 0042 9091 0000 		lds r25,mk_wheel_time_to_max
  82:./tmk_core/common/mousekey.c ****     } else if (mousekey_accel & (1<<1)) {
 232               		.loc 1 82 38 view .LVU67
 233 0046 6091 0000 		lds r22,mk_wheel_max_speed
 234 004a 70E0      		ldi r23,0
  89:./tmk_core/common/mousekey.c ****         unit = MOUSEKEY_WHEEL_DELTA * mk_wheel_max_speed;
 235               		.loc 1 89 15 view .LVU68
 236 004c 2917      		cp r18,r25
 237 004e 00F4      		brsh .L17
  92:./tmk_core/common/mousekey.c ****     }
 238               		.loc 1 92 9 is_stmt 1 view .LVU69
  92:./tmk_core/common/mousekey.c ****     }
 239               		.loc 1 92 59 is_stmt 0 view .LVU70
 240 0050 269F      		mul r18,r22
 241 0052 A001      		movw r20,r0
 242 0054 279F      		mul r18,r23
 243 0056 500D      		add r21,r0
 244 0058 1124      		clr __zero_reg__
  92:./tmk_core/common/mousekey.c ****     }
 245               		.loc 1 92 78 view .LVU71
 246 005a 692F      		mov r22,r25
 247 005c 70E0      		ldi r23,0
  92:./tmk_core/common/mousekey.c ****     }
 248               		.loc 1 92 14 view .LVU72
 249 005e CA01      		movw r24,r20
 250 0060 0E94 0000 		call __divmodhi4
 251               	.LVL15:
 252               	.L17:
 253               		.loc 1 94 5 is_stmt 1 view .LVU73
 254               		.loc 1 94 60 is_stmt 0 view .LVU74
 255 0064 6038      		cpi r22,-128
 256 0066 7105      		cpc r23,__zero_reg__
 257 0068 00F0      		brlo .L14
 258 006a 8FE7      		ldi r24,lo8(127)
 259 006c 0895      		ret
 260               	.LVL16:
 261               	.L21:
  88:./tmk_core/common/mousekey.c ****     } else if (mousekey_repeat >= mk_wheel_time_to_max) {
 262               		.loc 1 88 14 view .LVU75
 263 006e 61E0      		ldi r22,lo8(1)
 264 0070 70E0      		ldi r23,0
 265 0072 00C0      		rjmp .L18
 266               	.L23:
 267               		.loc 1 94 60 view .LVU76
 268 0074 81E0      		ldi r24,lo8(1)
 269               	/* epilogue start */
  95:./tmk_core/common/mousekey.c **** }
 270               		.loc 1 95 1 view .LVU77
 271 0076 0895      		ret
 272               		.cfi_endproc
 273               	.LFE105:
 275               		.section	.text.mousekey_on,"ax",@progbits
 276               	.global	mousekey_on
 278               	mousekey_on:
 279               	.LVL17:
 280               	.LFB107:
  96:./tmk_core/common/mousekey.c **** 
  97:./tmk_core/common/mousekey.c **** void mousekey_task(void)
  98:./tmk_core/common/mousekey.c **** {
  99:./tmk_core/common/mousekey.c ****     if (timer_elapsed(last_timer) < (mousekey_repeat ? mk_interval : mk_delay*10))
 100:./tmk_core/common/mousekey.c ****         return;
 101:./tmk_core/common/mousekey.c **** 
 102:./tmk_core/common/mousekey.c ****     if (mouse_report.x == 0 && mouse_report.y == 0 && mouse_report.v == 0 && mouse_report.h == 0)
 103:./tmk_core/common/mousekey.c ****         return;
 104:./tmk_core/common/mousekey.c **** 
 105:./tmk_core/common/mousekey.c ****     if (mousekey_repeat != UINT8_MAX)
 106:./tmk_core/common/mousekey.c ****         mousekey_repeat++;
 107:./tmk_core/common/mousekey.c **** 
 108:./tmk_core/common/mousekey.c **** 
 109:./tmk_core/common/mousekey.c ****     if (mouse_report.x > 0) mouse_report.x = move_unit();
 110:./tmk_core/common/mousekey.c ****     if (mouse_report.x < 0) mouse_report.x = move_unit() * -1;
 111:./tmk_core/common/mousekey.c ****     if (mouse_report.y > 0) mouse_report.y = move_unit();
 112:./tmk_core/common/mousekey.c ****     if (mouse_report.y < 0) mouse_report.y = move_unit() * -1;
 113:./tmk_core/common/mousekey.c **** 
 114:./tmk_core/common/mousekey.c ****     /* diagonal move [1/sqrt(2) = 0.7] */
 115:./tmk_core/common/mousekey.c ****     if (mouse_report.x && mouse_report.y) {
 116:./tmk_core/common/mousekey.c ****         mouse_report.x *= 0.7;
 117:./tmk_core/common/mousekey.c ****         mouse_report.y *= 0.7;
 118:./tmk_core/common/mousekey.c ****     }
 119:./tmk_core/common/mousekey.c **** 
 120:./tmk_core/common/mousekey.c ****     if (mouse_report.v > 0) mouse_report.v = wheel_unit();
 121:./tmk_core/common/mousekey.c ****     if (mouse_report.v < 0) mouse_report.v = wheel_unit() * -1;
 122:./tmk_core/common/mousekey.c ****     if (mouse_report.h > 0) mouse_report.h = wheel_unit();
 123:./tmk_core/common/mousekey.c ****     if (mouse_report.h < 0) mouse_report.h = wheel_unit() * -1;
 124:./tmk_core/common/mousekey.c **** 
 125:./tmk_core/common/mousekey.c ****     mousekey_send();
 126:./tmk_core/common/mousekey.c **** }
 127:./tmk_core/common/mousekey.c **** 
 128:./tmk_core/common/mousekey.c **** void mousekey_on(uint8_t code)
 129:./tmk_core/common/mousekey.c **** {
 281               		.loc 1 129 1 is_stmt 1 view -0
 282               		.cfi_startproc
 283               	/* prologue: function */
 284               	/* frame size = 0 */
 285               	/* stack size = 0 */
 286               	.L__stack_usage = 0
 130:./tmk_core/common/mousekey.c ****     if      (code == KC_MS_UP)       mouse_report.y = move_unit() * -1;
 287               		.loc 1 130 5 view .LVU79
 288 0000 E0E1      		ldi r30,lo8(16)
 289 0002 E80F      		add r30,r24
 290 0004 803F      		cpi r24,lo8(-16)
 291 0006 00F4      		brsh .+2
 292 0008 00C0      		rjmp .L24
 293 000a F0E0      		ldi r31,0
 294 000c E050      		subi r30,lo8(-(gs(.L27)))
 295 000e F040      		sbci r31,hi8(-(gs(.L27)))
 296 0010 0C94 0000 		jmp __tablejump2__
 297               		.section	.jumptables.gcc.mousekey_on,"a",@progbits
 298               		.p2align	1
 299               	.L27:
 300 0000 0000      		.word gs(.L42)
 301 0002 0000      		.word gs(.L41)
 302 0004 0000      		.word gs(.L40)
 303 0006 0000      		.word gs(.L39)
 304 0008 0000      		.word gs(.L38)
 305 000a 0000      		.word gs(.L37)
 306 000c 0000      		.word gs(.L36)
 307 000e 0000      		.word gs(.L35)
 308 0010 0000      		.word gs(.L34)
 309 0012 0000      		.word gs(.L33)
 310 0014 0000      		.word gs(.L32)
 311 0016 0000      		.word gs(.L31)
 312 0018 0000      		.word gs(.L30)
 313 001a 0000      		.word gs(.L29)
 314 001c 0000      		.word gs(.L28)
 315 001e 0000      		.word gs(.L26)
 316               		.section	.text.mousekey_on
 317               	.L42:
 318               		.loc 1 130 38 discriminator 1 view .LVU80
 319               		.loc 1 130 55 is_stmt 0 discriminator 1 view .LVU81
 320 0014 0E94 0000 		call move_unit
 321               	.LVL18:
 322               		.loc 1 130 53 discriminator 1 view .LVU82
 323 0018 8195      		neg r24
 324               	.L43:
 131:./tmk_core/common/mousekey.c ****     else if (code == KC_MS_DOWN)     mouse_report.y = move_unit();
 325               		.loc 1 131 53 discriminator 1 view .LVU83
 326 001a 8093 0000 		sts mouse_report+2,r24
 327 001e 0895      		ret
 328               	.LVL19:
 329               	.L41:
 330               		.loc 1 131 38 is_stmt 1 discriminator 1 view .LVU84
 331               		.loc 1 131 55 is_stmt 0 discriminator 1 view .LVU85
 332 0020 0E94 0000 		call move_unit
 333               	.LVL20:
 334               		.loc 1 131 55 discriminator 1 view .LVU86
 335 0024 00C0      		rjmp .L43
 336               	.LVL21:
 337               	.L40:
 132:./tmk_core/common/mousekey.c ****     else if (code == KC_MS_LEFT)     mouse_report.x = move_unit() * -1;
 338               		.loc 1 132 38 is_stmt 1 discriminator 1 view .LVU87
 339               		.loc 1 132 55 is_stmt 0 discriminator 1 view .LVU88
 340 0026 0E94 0000 		call move_unit
 341               	.LVL22:
 342               		.loc 1 132 53 discriminator 1 view .LVU89
 343 002a 8195      		neg r24
 344               	.L45:
 133:./tmk_core/common/mousekey.c ****     else if (code == KC_MS_RIGHT)    mouse_report.x = move_unit();
 345               		.loc 1 133 53 discriminator 1 view .LVU90
 346 002c 8093 0000 		sts mouse_report+1,r24
 347 0030 0895      		ret
 348               	.LVL23:
 349               	.L39:
 350               		.loc 1 133 38 is_stmt 1 discriminator 1 view .LVU91
 351               		.loc 1 133 55 is_stmt 0 discriminator 1 view .LVU92
 352 0032 0E94 0000 		call move_unit
 353               	.LVL24:
 354               		.loc 1 133 55 discriminator 1 view .LVU93
 355 0036 00C0      		rjmp .L45
 356               	.LVL25:
 357               	.L33:
 134:./tmk_core/common/mousekey.c ****     else if (code == KC_MS_WH_UP)    mouse_report.v = wheel_unit();
 358               		.loc 1 134 38 is_stmt 1 discriminator 1 view .LVU94
 359               		.loc 1 134 55 is_stmt 0 discriminator 1 view .LVU95
 360 0038 0E94 0000 		call wheel_unit
 361               	.LVL26:
 362               	.L47:
 135:./tmk_core/common/mousekey.c ****     else if (code == KC_MS_WH_DOWN)  mouse_report.v = wheel_unit() * -1;
 363               		.loc 1 135 53 discriminator 1 view .LVU96
 364 003c 8093 0000 		sts mouse_report+3,r24
 365 0040 0895      		ret
 366               	.LVL27:
 367               	.L32:
 368               		.loc 1 135 38 is_stmt 1 discriminator 1 view .LVU97
 369               		.loc 1 135 55 is_stmt 0 discriminator 1 view .LVU98
 370 0042 0E94 0000 		call wheel_unit
 371               	.LVL28:
 372               		.loc 1 135 53 discriminator 1 view .LVU99
 373 0046 8195      		neg r24
 374 0048 00C0      		rjmp .L47
 375               	.LVL29:
 376               	.L31:
 136:./tmk_core/common/mousekey.c ****     else if (code == KC_MS_WH_LEFT)  mouse_report.h = wheel_unit() * -1;
 377               		.loc 1 136 38 is_stmt 1 discriminator 1 view .LVU100
 378               		.loc 1 136 55 is_stmt 0 discriminator 1 view .LVU101
 379 004a 0E94 0000 		call wheel_unit
 380               	.LVL30:
 381               		.loc 1 136 53 discriminator 1 view .LVU102
 382 004e 8195      		neg r24
 383               	.L48:
 137:./tmk_core/common/mousekey.c ****     else if (code == KC_MS_WH_RIGHT) mouse_report.h = wheel_unit();
 384               		.loc 1 137 53 discriminator 1 view .LVU103
 385 0050 8093 0000 		sts mouse_report+4,r24
 386 0054 0895      		ret
 387               	.LVL31:
 388               	.L30:
 389               		.loc 1 137 38 is_stmt 1 discriminator 1 view .LVU104
 390               		.loc 1 137 55 is_stmt 0 discriminator 1 view .LVU105
 391 0056 0E94 0000 		call wheel_unit
 392               	.LVL32:
 393               		.loc 1 137 55 discriminator 1 view .LVU106
 394 005a 00C0      		rjmp .L48
 395               	.LVL33:
 396               	.L38:
 138:./tmk_core/common/mousekey.c ****     else if (code == KC_MS_BTN1)     mouse_report.buttons |= MOUSE_BTN1;
 397               		.loc 1 138 38 is_stmt 1 discriminator 1 view .LVU107
 398               		.loc 1 138 59 is_stmt 0 discriminator 1 view .LVU108
 399 005c 8091 0000 		lds r24,mouse_report
 400               	.LVL34:
 401               		.loc 1 138 59 discriminator 1 view .LVU109
 402 0060 8160      		ori r24,lo8(1)
 403               	.L46:
 139:./tmk_core/common/mousekey.c ****     else if (code == KC_MS_BTN2)     mouse_report.buttons |= MOUSE_BTN2;
 140:./tmk_core/common/mousekey.c ****     else if (code == KC_MS_BTN3)     mouse_report.buttons |= MOUSE_BTN3;
 141:./tmk_core/common/mousekey.c ****     else if (code == KC_MS_BTN4)     mouse_report.buttons |= MOUSE_BTN4;
 142:./tmk_core/common/mousekey.c ****     else if (code == KC_MS_BTN5)     mouse_report.buttons |= MOUSE_BTN5;
 404               		.loc 1 142 59 discriminator 1 view .LVU110
 405 0062 8093 0000 		sts mouse_report,r24
 406 0066 0895      		ret
 407               	.LVL35:
 408               	.L37:
 139:./tmk_core/common/mousekey.c ****     else if (code == KC_MS_BTN2)     mouse_report.buttons |= MOUSE_BTN2;
 409               		.loc 1 139 38 is_stmt 1 discriminator 1 view .LVU111
 139:./tmk_core/common/mousekey.c ****     else if (code == KC_MS_BTN2)     mouse_report.buttons |= MOUSE_BTN2;
 410               		.loc 1 139 59 is_stmt 0 discriminator 1 view .LVU112
 411 0068 8091 0000 		lds r24,mouse_report
 412               	.LVL36:
 139:./tmk_core/common/mousekey.c ****     else if (code == KC_MS_BTN2)     mouse_report.buttons |= MOUSE_BTN2;
 413               		.loc 1 139 59 discriminator 1 view .LVU113
 414 006c 8260      		ori r24,lo8(2)
 415 006e 00C0      		rjmp .L46
 416               	.LVL37:
 417               	.L36:
 140:./tmk_core/common/mousekey.c ****     else if (code == KC_MS_BTN4)     mouse_report.buttons |= MOUSE_BTN4;
 418               		.loc 1 140 38 is_stmt 1 discriminator 1 view .LVU114
 140:./tmk_core/common/mousekey.c ****     else if (code == KC_MS_BTN4)     mouse_report.buttons |= MOUSE_BTN4;
 419               		.loc 1 140 59 is_stmt 0 discriminator 1 view .LVU115
 420 0070 8091 0000 		lds r24,mouse_report
 421               	.LVL38:
 140:./tmk_core/common/mousekey.c ****     else if (code == KC_MS_BTN4)     mouse_report.buttons |= MOUSE_BTN4;
 422               		.loc 1 140 59 discriminator 1 view .LVU116
 423 0074 8460      		ori r24,lo8(4)
 424 0076 00C0      		rjmp .L46
 425               	.LVL39:
 426               	.L35:
 141:./tmk_core/common/mousekey.c ****     else if (code == KC_MS_BTN5)     mouse_report.buttons |= MOUSE_BTN5;
 427               		.loc 1 141 38 is_stmt 1 discriminator 1 view .LVU117
 141:./tmk_core/common/mousekey.c ****     else if (code == KC_MS_BTN5)     mouse_report.buttons |= MOUSE_BTN5;
 428               		.loc 1 141 59 is_stmt 0 discriminator 1 view .LVU118
 429 0078 8091 0000 		lds r24,mouse_report
 430               	.LVL40:
 141:./tmk_core/common/mousekey.c ****     else if (code == KC_MS_BTN5)     mouse_report.buttons |= MOUSE_BTN5;
 431               		.loc 1 141 59 discriminator 1 view .LVU119
 432 007c 8860      		ori r24,lo8(8)
 433 007e 00C0      		rjmp .L46
 434               	.LVL41:
 435               	.L34:
 436               		.loc 1 142 38 is_stmt 1 discriminator 1 view .LVU120
 437               		.loc 1 142 59 is_stmt 0 discriminator 1 view .LVU121
 438 0080 8091 0000 		lds r24,mouse_report
 439               	.LVL42:
 440               		.loc 1 142 59 discriminator 1 view .LVU122
 441 0084 8061      		ori r24,lo8(16)
 442 0086 00C0      		rjmp .L46
 443               	.LVL43:
 444               	.L29:
 143:./tmk_core/common/mousekey.c ****     else if (code == KC_MS_ACCEL0)   mousekey_accel |= (1<<0);
 445               		.loc 1 143 38 is_stmt 1 discriminator 1 view .LVU123
 446               		.loc 1 143 53 is_stmt 0 discriminator 1 view .LVU124
 447 0088 8091 0000 		lds r24,mousekey_accel
 448               	.LVL44:
 449               		.loc 1 143 53 discriminator 1 view .LVU125
 450 008c 8160      		ori r24,lo8(1)
 451               	.L44:
 144:./tmk_core/common/mousekey.c ****     else if (code == KC_MS_ACCEL1)   mousekey_accel |= (1<<1);
 145:./tmk_core/common/mousekey.c ****     else if (code == KC_MS_ACCEL2)   mousekey_accel |= (1<<2);
 452               		.loc 1 145 53 discriminator 1 view .LVU126
 453 008e 8093 0000 		sts mousekey_accel,r24
 454               	.L24:
 455               	/* epilogue start */
 146:./tmk_core/common/mousekey.c **** }
 456               		.loc 1 146 1 view .LVU127
 457 0092 0895      		ret
 458               	.LVL45:
 459               	.L28:
 144:./tmk_core/common/mousekey.c ****     else if (code == KC_MS_ACCEL1)   mousekey_accel |= (1<<1);
 460               		.loc 1 144 38 is_stmt 1 discriminator 1 view .LVU128
 144:./tmk_core/common/mousekey.c ****     else if (code == KC_MS_ACCEL1)   mousekey_accel |= (1<<1);
 461               		.loc 1 144 53 is_stmt 0 discriminator 1 view .LVU129
 462 0094 8091 0000 		lds r24,mousekey_accel
 463               	.LVL46:
 144:./tmk_core/common/mousekey.c ****     else if (code == KC_MS_ACCEL1)   mousekey_accel |= (1<<1);
 464               		.loc 1 144 53 discriminator 1 view .LVU130
 465 0098 8260      		ori r24,lo8(2)
 466 009a 00C0      		rjmp .L44
 467               	.LVL47:
 468               	.L26:
 145:./tmk_core/common/mousekey.c **** }
 469               		.loc 1 145 38 is_stmt 1 discriminator 1 view .LVU131
 145:./tmk_core/common/mousekey.c **** }
 470               		.loc 1 145 53 is_stmt 0 discriminator 1 view .LVU132
 471 009c 8091 0000 		lds r24,mousekey_accel
 472               	.LVL48:
 145:./tmk_core/common/mousekey.c **** }
 473               		.loc 1 145 53 discriminator 1 view .LVU133
 474 00a0 8460      		ori r24,lo8(4)
 475 00a2 00C0      		rjmp .L44
 476               		.cfi_endproc
 477               	.LFE107:
 479               		.section	.text.mousekey_off,"ax",@progbits
 480               	.global	mousekey_off
 482               	mousekey_off:
 483               	.LVL49:
 484               	.LFB108:
 147:./tmk_core/common/mousekey.c **** 
 148:./tmk_core/common/mousekey.c **** void mousekey_off(uint8_t code)
 149:./tmk_core/common/mousekey.c **** {
 485               		.loc 1 149 1 is_stmt 1 view -0
 486               		.cfi_startproc
 487               	/* prologue: function */
 488               	/* frame size = 0 */
 489               	/* stack size = 0 */
 490               	.L__stack_usage = 0
 150:./tmk_core/common/mousekey.c ****     if      (code == KC_MS_UP       && mouse_report.y < 0) mouse_report.y = 0;
 491               		.loc 1 150 5 view .LVU135
 151:./tmk_core/common/mousekey.c ****     else if (code == KC_MS_DOWN     && mouse_report.y > 0) mouse_report.y = 0;
 152:./tmk_core/common/mousekey.c ****     else if (code == KC_MS_LEFT     && mouse_report.x < 0) mouse_report.x = 0;
 153:./tmk_core/common/mousekey.c ****     else if (code == KC_MS_RIGHT    && mouse_report.x > 0) mouse_report.x = 0;
 154:./tmk_core/common/mousekey.c ****     else if (code == KC_MS_WH_UP    && mouse_report.v > 0) mouse_report.v = 0;
 492               		.loc 1 154 52 is_stmt 0 view .LVU136
 493 0000 2091 0000 		lds r18,mouse_report+3
 155:./tmk_core/common/mousekey.c ****     else if (code == KC_MS_WH_DOWN  && mouse_report.v < 0) mouse_report.v = 0;
 156:./tmk_core/common/mousekey.c ****     else if (code == KC_MS_WH_LEFT  && mouse_report.h < 0) mouse_report.h = 0;
 494               		.loc 1 156 52 view .LVU137
 495 0004 9091 0000 		lds r25,mouse_report+4
 150:./tmk_core/common/mousekey.c ****     else if (code == KC_MS_DOWN     && mouse_report.y > 0) mouse_report.y = 0;
 496               		.loc 1 150 52 view .LVU138
 497 0008 4091 0000 		lds r20,mouse_report+2
 152:./tmk_core/common/mousekey.c ****     else if (code == KC_MS_RIGHT    && mouse_report.x > 0) mouse_report.x = 0;
 498               		.loc 1 152 52 view .LVU139
 499 000c 3091 0000 		lds r19,mouse_report+1
 150:./tmk_core/common/mousekey.c ****     else if (code == KC_MS_DOWN     && mouse_report.y > 0) mouse_report.y = 0;
 500               		.loc 1 150 13 view .LVU140
 501 0010 803F      		cpi r24,lo8(-16)
 502 0012 01F4      		brne .L50
 150:./tmk_core/common/mousekey.c ****     else if (code == KC_MS_DOWN     && mouse_report.y > 0) mouse_report.y = 0;
 503               		.loc 1 150 37 view .LVU141
 504 0014 47FD      		sbrc r20,7
 505               	.L53:
 150:./tmk_core/common/mousekey.c ****     else if (code == KC_MS_DOWN     && mouse_report.y > 0) mouse_report.y = 0;
 506               		.loc 1 150 60 is_stmt 1 discriminator 2 view .LVU142
 150:./tmk_core/common/mousekey.c ****     else if (code == KC_MS_DOWN     && mouse_report.y > 0) mouse_report.y = 0;
 507               		.loc 1 150 75 is_stmt 0 discriminator 2 view .LVU143
 508 0016 1092 0000 		sts mouse_report+2,__zero_reg__
 509               	.LVL50:
 510               	.L51:
 157:./tmk_core/common/mousekey.c ****     else if (code == KC_MS_WH_RIGHT && mouse_report.h > 0) mouse_report.h = 0;
 158:./tmk_core/common/mousekey.c ****     else if (code == KC_MS_BTN1) mouse_report.buttons &= ~MOUSE_BTN1;
 159:./tmk_core/common/mousekey.c ****     else if (code == KC_MS_BTN2) mouse_report.buttons &= ~MOUSE_BTN2;
 160:./tmk_core/common/mousekey.c ****     else if (code == KC_MS_BTN3) mouse_report.buttons &= ~MOUSE_BTN3;
 161:./tmk_core/common/mousekey.c ****     else if (code == KC_MS_BTN4) mouse_report.buttons &= ~MOUSE_BTN4;
 162:./tmk_core/common/mousekey.c ****     else if (code == KC_MS_BTN5) mouse_report.buttons &= ~MOUSE_BTN5;
 163:./tmk_core/common/mousekey.c ****     else if (code == KC_MS_ACCEL0) mousekey_accel &= ~(1<<0);
 164:./tmk_core/common/mousekey.c ****     else if (code == KC_MS_ACCEL1) mousekey_accel &= ~(1<<1);
 165:./tmk_core/common/mousekey.c ****     else if (code == KC_MS_ACCEL2) mousekey_accel &= ~(1<<2);
 166:./tmk_core/common/mousekey.c **** 
 167:./tmk_core/common/mousekey.c ****     if (mouse_report.x == 0 && mouse_report.y == 0 && mouse_report.v == 0 && mouse_report.h == 0)
 511               		.loc 1 167 5 is_stmt 1 view .LVU144
 512               		.loc 1 167 75 is_stmt 0 view .LVU145
 513 001a 8091 0000 		lds r24,mouse_report+1
 514 001e 9091 0000 		lds r25,mouse_report+2
 515 0022 892B      		or r24,r25
 516 0024 9091 0000 		lds r25,mouse_report+3
 517 0028 892B      		or r24,r25
 518 002a 9091 0000 		lds r25,mouse_report+4
 519 002e 892B      		or r24,r25
 520 0030 8111      		cpse r24,__zero_reg__
 521 0032 00C0      		rjmp .L49
 168:./tmk_core/common/mousekey.c ****         mousekey_repeat = 0;
 522               		.loc 1 168 9 is_stmt 1 view .LVU146
 523               		.loc 1 168 25 is_stmt 0 view .LVU147
 524 0034 1092 0000 		sts mousekey_repeat,__zero_reg__
 525               	.L49:
 526               	/* epilogue start */
 169:./tmk_core/common/mousekey.c **** }
 527               		.loc 1 169 1 view .LVU148
 528 0038 0895      		ret
 529               	.LVL51:
 530               	.L50:
 151:./tmk_core/common/mousekey.c ****     else if (code == KC_MS_LEFT     && mouse_report.x < 0) mouse_report.x = 0;
 531               		.loc 1 151 10 is_stmt 1 view .LVU149
 151:./tmk_core/common/mousekey.c ****     else if (code == KC_MS_LEFT     && mouse_report.x < 0) mouse_report.x = 0;
 532               		.loc 1 151 13 is_stmt 0 view .LVU150
 533 003a 813F      		cpi r24,lo8(-15)
 534 003c 01F4      		brne .L52
 151:./tmk_core/common/mousekey.c ****     else if (code == KC_MS_LEFT     && mouse_report.x < 0) mouse_report.x = 0;
 535               		.loc 1 151 37 view .LVU151
 536 003e 1416      		cp __zero_reg__,r20
 537 0040 04F0      		brlt .L53
 538 0042 00C0      		rjmp .L51
 539               	.L52:
 152:./tmk_core/common/mousekey.c ****     else if (code == KC_MS_RIGHT    && mouse_report.x > 0) mouse_report.x = 0;
 540               		.loc 1 152 10 is_stmt 1 view .LVU152
 152:./tmk_core/common/mousekey.c ****     else if (code == KC_MS_RIGHT    && mouse_report.x > 0) mouse_report.x = 0;
 541               		.loc 1 152 13 is_stmt 0 view .LVU153
 542 0044 823F      		cpi r24,lo8(-14)
 543 0046 01F4      		brne .L54
 152:./tmk_core/common/mousekey.c ****     else if (code == KC_MS_RIGHT    && mouse_report.x > 0) mouse_report.x = 0;
 544               		.loc 1 152 37 view .LVU154
 545 0048 37FF      		sbrs r19,7
 546 004a 00C0      		rjmp .L51
 547               	.L56:
 152:./tmk_core/common/mousekey.c ****     else if (code == KC_MS_RIGHT    && mouse_report.x > 0) mouse_report.x = 0;
 548               		.loc 1 152 60 is_stmt 1 discriminator 2 view .LVU155
 152:./tmk_core/common/mousekey.c ****     else if (code == KC_MS_RIGHT    && mouse_report.x > 0) mouse_report.x = 0;
 549               		.loc 1 152 75 is_stmt 0 discriminator 2 view .LVU156
 550 004c 1092 0000 		sts mouse_report+1,__zero_reg__
 551 0050 00C0      		rjmp .L51
 552               	.L54:
 153:./tmk_core/common/mousekey.c ****     else if (code == KC_MS_WH_UP    && mouse_report.v > 0) mouse_report.v = 0;
 553               		.loc 1 153 10 is_stmt 1 view .LVU157
 153:./tmk_core/common/mousekey.c ****     else if (code == KC_MS_WH_UP    && mouse_report.v > 0) mouse_report.v = 0;
 554               		.loc 1 153 13 is_stmt 0 view .LVU158
 555 0052 833F      		cpi r24,lo8(-13)
 556 0054 01F4      		brne .L55
 153:./tmk_core/common/mousekey.c ****     else if (code == KC_MS_WH_UP    && mouse_report.v > 0) mouse_report.v = 0;
 557               		.loc 1 153 37 view .LVU159
 558 0056 1316      		cp __zero_reg__,r19
 559 0058 04F0      		brlt .L56
 560 005a 00C0      		rjmp .L51
 561               	.L55:
 154:./tmk_core/common/mousekey.c ****     else if (code == KC_MS_WH_DOWN  && mouse_report.v < 0) mouse_report.v = 0;
 562               		.loc 1 154 10 is_stmt 1 view .LVU160
 154:./tmk_core/common/mousekey.c ****     else if (code == KC_MS_WH_DOWN  && mouse_report.v < 0) mouse_report.v = 0;
 563               		.loc 1 154 13 is_stmt 0 view .LVU161
 564 005c 893F      		cpi r24,lo8(-7)
 565 005e 01F4      		brne .L57
 154:./tmk_core/common/mousekey.c ****     else if (code == KC_MS_WH_DOWN  && mouse_report.v < 0) mouse_report.v = 0;
 566               		.loc 1 154 37 discriminator 1 view .LVU162
 567 0060 1216      		cp __zero_reg__,r18
 568 0062 04F4      		brge .L51
 569               	.L59:
 154:./tmk_core/common/mousekey.c ****     else if (code == KC_MS_WH_DOWN  && mouse_report.v < 0) mouse_report.v = 0;
 570               		.loc 1 154 60 is_stmt 1 discriminator 2 view .LVU163
 154:./tmk_core/common/mousekey.c ****     else if (code == KC_MS_WH_DOWN  && mouse_report.v < 0) mouse_report.v = 0;
 571               		.loc 1 154 75 is_stmt 0 discriminator 2 view .LVU164
 572 0064 1092 0000 		sts mouse_report+3,__zero_reg__
 573 0068 00C0      		rjmp .L51
 574               	.L57:
 155:./tmk_core/common/mousekey.c ****     else if (code == KC_MS_WH_LEFT  && mouse_report.h < 0) mouse_report.h = 0;
 575               		.loc 1 155 10 is_stmt 1 view .LVU165
 155:./tmk_core/common/mousekey.c ****     else if (code == KC_MS_WH_LEFT  && mouse_report.h < 0) mouse_report.h = 0;
 576               		.loc 1 155 13 is_stmt 0 view .LVU166
 577 006a 8A3F      		cpi r24,lo8(-6)
 578 006c 01F4      		brne .L58
 155:./tmk_core/common/mousekey.c ****     else if (code == KC_MS_WH_LEFT  && mouse_report.h < 0) mouse_report.h = 0;
 579               		.loc 1 155 37 discriminator 1 view .LVU167
 580 006e 27FF      		sbrs r18,7
 581 0070 00C0      		rjmp .L51
 582 0072 00C0      		rjmp .L59
 583               	.L58:
 156:./tmk_core/common/mousekey.c ****     else if (code == KC_MS_WH_RIGHT && mouse_report.h > 0) mouse_report.h = 0;
 584               		.loc 1 156 10 is_stmt 1 view .LVU168
 156:./tmk_core/common/mousekey.c ****     else if (code == KC_MS_WH_RIGHT && mouse_report.h > 0) mouse_report.h = 0;
 585               		.loc 1 156 13 is_stmt 0 view .LVU169
 586 0074 8B3F      		cpi r24,lo8(-5)
 587 0076 01F4      		brne .L60
 156:./tmk_core/common/mousekey.c ****     else if (code == KC_MS_WH_RIGHT && mouse_report.h > 0) mouse_report.h = 0;
 588               		.loc 1 156 37 discriminator 1 view .LVU170
 589 0078 97FF      		sbrs r25,7
 590 007a 00C0      		rjmp .L51
 591               	.L62:
 156:./tmk_core/common/mousekey.c ****     else if (code == KC_MS_WH_RIGHT && mouse_report.h > 0) mouse_report.h = 0;
 592               		.loc 1 156 60 is_stmt 1 discriminator 2 view .LVU171
 156:./tmk_core/common/mousekey.c ****     else if (code == KC_MS_WH_RIGHT && mouse_report.h > 0) mouse_report.h = 0;
 593               		.loc 1 156 75 is_stmt 0 discriminator 2 view .LVU172
 594 007c 1092 0000 		sts mouse_report+4,__zero_reg__
 595 0080 00C0      		rjmp .L51
 596               	.L60:
 157:./tmk_core/common/mousekey.c ****     else if (code == KC_MS_BTN1) mouse_report.buttons &= ~MOUSE_BTN1;
 597               		.loc 1 157 10 is_stmt 1 view .LVU173
 157:./tmk_core/common/mousekey.c ****     else if (code == KC_MS_BTN1) mouse_report.buttons &= ~MOUSE_BTN1;
 598               		.loc 1 157 13 is_stmt 0 view .LVU174
 599 0082 8C3F      		cpi r24,lo8(-4)
 600 0084 01F4      		brne .L61
 157:./tmk_core/common/mousekey.c ****     else if (code == KC_MS_BTN1) mouse_report.buttons &= ~MOUSE_BTN1;
 601               		.loc 1 157 37 discriminator 1 view .LVU175
 602 0086 1916      		cp __zero_reg__,r25
 603 0088 04F0      		brlt .L62
 604 008a 00C0      		rjmp .L51
 605               	.L61:
 158:./tmk_core/common/mousekey.c ****     else if (code == KC_MS_BTN2) mouse_report.buttons &= ~MOUSE_BTN2;
 606               		.loc 1 158 10 is_stmt 1 view .LVU176
 607 008c ECE0      		ldi r30,lo8(12)
 608 008e E80F      		add r30,r24
 609 0090 843F      		cpi r24,lo8(-12)
 610 0092 00F4      		brsh .+2
 611 0094 00C0      		rjmp .L51
 612 0096 F0E0      		ldi r31,0
 613 0098 E050      		subi r30,lo8(-(gs(.L64)))
 614 009a F040      		sbci r31,hi8(-(gs(.L64)))
 615 009c 0C94 0000 		jmp __tablejump2__
 616               		.section	.jumptables.gcc.mousekey_off,"a",@progbits
 617               		.p2align	1
 618               	.L64:
 619 0000 0000      		.word gs(.L71)
 620 0002 0000      		.word gs(.L70)
 621 0004 0000      		.word gs(.L69)
 622 0006 0000      		.word gs(.L68)
 623 0008 0000      		.word gs(.L67)
 624 000a 0000      		.word gs(.L51)
 625 000c 0000      		.word gs(.L51)
 626 000e 0000      		.word gs(.L51)
 627 0010 0000      		.word gs(.L51)
 628 0012 0000      		.word gs(.L66)
 629 0014 0000      		.word gs(.L65)
 630 0016 0000      		.word gs(.L63)
 631               		.section	.text.mousekey_off
 632               	.L71:
 158:./tmk_core/common/mousekey.c ****     else if (code == KC_MS_BTN2) mouse_report.buttons &= ~MOUSE_BTN2;
 633               		.loc 1 158 34 discriminator 1 view .LVU177
 158:./tmk_core/common/mousekey.c ****     else if (code == KC_MS_BTN2) mouse_report.buttons &= ~MOUSE_BTN2;
 634               		.loc 1 158 55 is_stmt 0 discriminator 1 view .LVU178
 635 00a0 8091 0000 		lds r24,mouse_report
 636               	.LVL52:
 158:./tmk_core/common/mousekey.c ****     else if (code == KC_MS_BTN2) mouse_report.buttons &= ~MOUSE_BTN2;
 637               		.loc 1 158 55 discriminator 1 view .LVU179
 638 00a4 8E7F      		andi r24,lo8(-2)
 639               	.L74:
 159:./tmk_core/common/mousekey.c ****     else if (code == KC_MS_BTN3) mouse_report.buttons &= ~MOUSE_BTN3;
 640               		.loc 1 159 55 discriminator 1 view .LVU180
 641 00a6 8093 0000 		sts mouse_report,r24
 642 00aa 00C0      		rjmp .L51
 643               	.LVL53:
 644               	.L70:
 159:./tmk_core/common/mousekey.c ****     else if (code == KC_MS_BTN3) mouse_report.buttons &= ~MOUSE_BTN3;
 645               		.loc 1 159 34 is_stmt 1 discriminator 1 view .LVU181
 159:./tmk_core/common/mousekey.c ****     else if (code == KC_MS_BTN3) mouse_report.buttons &= ~MOUSE_BTN3;
 646               		.loc 1 159 55 is_stmt 0 discriminator 1 view .LVU182
 647 00ac 8091 0000 		lds r24,mouse_report
 648               	.LVL54:
 159:./tmk_core/common/mousekey.c ****     else if (code == KC_MS_BTN3) mouse_report.buttons &= ~MOUSE_BTN3;
 649               		.loc 1 159 55 discriminator 1 view .LVU183
 650 00b0 8D7F      		andi r24,lo8(-3)
 651 00b2 00C0      		rjmp .L74
 652               	.LVL55:
 653               	.L69:
 160:./tmk_core/common/mousekey.c ****     else if (code == KC_MS_BTN4) mouse_report.buttons &= ~MOUSE_BTN4;
 654               		.loc 1 160 34 is_stmt 1 discriminator 1 view .LVU184
 160:./tmk_core/common/mousekey.c ****     else if (code == KC_MS_BTN4) mouse_report.buttons &= ~MOUSE_BTN4;
 655               		.loc 1 160 55 is_stmt 0 discriminator 1 view .LVU185
 656 00b4 8091 0000 		lds r24,mouse_report
 657               	.LVL56:
 160:./tmk_core/common/mousekey.c ****     else if (code == KC_MS_BTN4) mouse_report.buttons &= ~MOUSE_BTN4;
 658               		.loc 1 160 55 discriminator 1 view .LVU186
 659 00b8 8B7F      		andi r24,lo8(-5)
 660 00ba 00C0      		rjmp .L74
 661               	.LVL57:
 662               	.L68:
 161:./tmk_core/common/mousekey.c ****     else if (code == KC_MS_BTN5) mouse_report.buttons &= ~MOUSE_BTN5;
 663               		.loc 1 161 34 is_stmt 1 discriminator 1 view .LVU187
 161:./tmk_core/common/mousekey.c ****     else if (code == KC_MS_BTN5) mouse_report.buttons &= ~MOUSE_BTN5;
 664               		.loc 1 161 55 is_stmt 0 discriminator 1 view .LVU188
 665 00bc 8091 0000 		lds r24,mouse_report
 666               	.LVL58:
 161:./tmk_core/common/mousekey.c ****     else if (code == KC_MS_BTN5) mouse_report.buttons &= ~MOUSE_BTN5;
 667               		.loc 1 161 55 discriminator 1 view .LVU189
 668 00c0 877F      		andi r24,lo8(-9)
 669 00c2 00C0      		rjmp .L74
 670               	.LVL59:
 671               	.L67:
 162:./tmk_core/common/mousekey.c ****     else if (code == KC_MS_ACCEL0) mousekey_accel &= ~(1<<0);
 672               		.loc 1 162 34 is_stmt 1 discriminator 1 view .LVU190
 162:./tmk_core/common/mousekey.c ****     else if (code == KC_MS_ACCEL0) mousekey_accel &= ~(1<<0);
 673               		.loc 1 162 55 is_stmt 0 discriminator 1 view .LVU191
 674 00c4 8091 0000 		lds r24,mouse_report
 675               	.LVL60:
 162:./tmk_core/common/mousekey.c ****     else if (code == KC_MS_ACCEL0) mousekey_accel &= ~(1<<0);
 676               		.loc 1 162 55 discriminator 1 view .LVU192
 677 00c8 8F7E      		andi r24,lo8(-17)
 678 00ca 00C0      		rjmp .L74
 679               	.LVL61:
 680               	.L66:
 163:./tmk_core/common/mousekey.c ****     else if (code == KC_MS_ACCEL1) mousekey_accel &= ~(1<<1);
 681               		.loc 1 163 36 is_stmt 1 discriminator 1 view .LVU193
 163:./tmk_core/common/mousekey.c ****     else if (code == KC_MS_ACCEL1) mousekey_accel &= ~(1<<1);
 682               		.loc 1 163 51 is_stmt 0 discriminator 1 view .LVU194
 683 00cc 8091 0000 		lds r24,mousekey_accel
 684               	.LVL62:
 163:./tmk_core/common/mousekey.c ****     else if (code == KC_MS_ACCEL1) mousekey_accel &= ~(1<<1);
 685               		.loc 1 163 51 discriminator 1 view .LVU195
 686 00d0 8E7F      		andi r24,lo8(-2)
 687               	.L73:
 165:./tmk_core/common/mousekey.c **** 
 688               		.loc 1 165 51 discriminator 1 view .LVU196
 689 00d2 8093 0000 		sts mousekey_accel,r24
 690 00d6 00C0      		rjmp .L51
 691               	.LVL63:
 692               	.L65:
 164:./tmk_core/common/mousekey.c ****     else if (code == KC_MS_ACCEL2) mousekey_accel &= ~(1<<2);
 693               		.loc 1 164 36 is_stmt 1 discriminator 1 view .LVU197
 164:./tmk_core/common/mousekey.c ****     else if (code == KC_MS_ACCEL2) mousekey_accel &= ~(1<<2);
 694               		.loc 1 164 51 is_stmt 0 discriminator 1 view .LVU198
 695 00d8 8091 0000 		lds r24,mousekey_accel
 696               	.LVL64:
 164:./tmk_core/common/mousekey.c ****     else if (code == KC_MS_ACCEL2) mousekey_accel &= ~(1<<2);
 697               		.loc 1 164 51 discriminator 1 view .LVU199
 698 00dc 8D7F      		andi r24,lo8(-3)
 699 00de 00C0      		rjmp .L73
 700               	.LVL65:
 701               	.L63:
 165:./tmk_core/common/mousekey.c **** 
 702               		.loc 1 165 36 is_stmt 1 discriminator 1 view .LVU200
 165:./tmk_core/common/mousekey.c **** 
 703               		.loc 1 165 51 is_stmt 0 discriminator 1 view .LVU201
 704 00e0 8091 0000 		lds r24,mousekey_accel
 705               	.LVL66:
 165:./tmk_core/common/mousekey.c **** 
 706               		.loc 1 165 51 discriminator 1 view .LVU202
 707 00e4 8B7F      		andi r24,lo8(-5)
 708 00e6 00C0      		rjmp .L73
 709               		.cfi_endproc
 710               	.LFE108:
 712               		.section	.text.mousekey_send,"ax",@progbits
 713               	.global	mousekey_send
 715               	mousekey_send:
 716               	.LFB109:
 170:./tmk_core/common/mousekey.c **** 
 171:./tmk_core/common/mousekey.c **** void mousekey_send(void)
 172:./tmk_core/common/mousekey.c **** {
 717               		.loc 1 172 1 is_stmt 1 view -0
 718               		.cfi_startproc
 719               	/* prologue: function */
 720               	/* frame size = 0 */
 721               	/* stack size = 0 */
 722               	.L__stack_usage = 0
 173:./tmk_core/common/mousekey.c ****     mousekey_debug();
 723               		.loc 1 173 5 view .LVU204
 174:./tmk_core/common/mousekey.c ****     host_mouse_send(&mouse_report);
 724               		.loc 1 174 5 view .LVU205
 725 0000 80E0      		ldi r24,lo8(mouse_report)
 726 0002 90E0      		ldi r25,hi8(mouse_report)
 727 0004 0E94 0000 		call host_mouse_send
 728               	.LVL67:
 175:./tmk_core/common/mousekey.c ****     last_timer = timer_read();
 729               		.loc 1 175 5 view .LVU206
 730               		.loc 1 175 18 is_stmt 0 view .LVU207
 731 0008 0E94 0000 		call timer_read
 732               	.LVL68:
 733               		.loc 1 175 16 view .LVU208
 734 000c 9093 0000 		sts last_timer+1,r25
 735 0010 8093 0000 		sts last_timer,r24
 736               	/* epilogue start */
 176:./tmk_core/common/mousekey.c **** }
 737               		.loc 1 176 1 view .LVU209
 738 0014 0895      		ret
 739               		.cfi_endproc
 740               	.LFE109:
 742               	.global	__floatsisf
 743               	.global	__mulsf3
 744               	.global	__fixsfsi
 745               		.section	.text.mousekey_task,"ax",@progbits
 746               	.global	mousekey_task
 748               	mousekey_task:
 749               	.LFB106:
  98:./tmk_core/common/mousekey.c ****     if (timer_elapsed(last_timer) < (mousekey_repeat ? mk_interval : mk_delay*10))
 750               		.loc 1 98 1 is_stmt 1 view -0
 751               		.cfi_startproc
 752 0000 CF93      		push r28
 753               	.LCFI0:
 754               		.cfi_def_cfa_offset 3
 755               		.cfi_offset 28, -2
 756 0002 DF93      		push r29
 757               	.LCFI1:
 758               		.cfi_def_cfa_offset 4
 759               		.cfi_offset 29, -3
 760 0004 00D0      		rcall .
 761 0006 00D0      		rcall .
 762 0008 0F92      		push __tmp_reg__
 763               	.LCFI2:
 764               		.cfi_def_cfa_offset 9
 765 000a CDB7      		in r28,__SP_L__
 766 000c DEB7      		in r29,__SP_H__
 767               	.LCFI3:
 768               		.cfi_def_cfa_register 28
 769               	/* prologue: function */
 770               	/* frame size = 5 */
 771               	/* stack size = 7 */
 772               	.L__stack_usage = 7
  99:./tmk_core/common/mousekey.c ****         return;
 773               		.loc 1 99 5 view .LVU211
  99:./tmk_core/common/mousekey.c ****         return;
 774               		.loc 1 99 9 is_stmt 0 view .LVU212
 775 000e 8091 0000 		lds r24,last_timer
 776 0012 9091 0000 		lds r25,last_timer+1
 777 0016 0E94 0000 		call timer_elapsed
 778               	.LVL69:
 779 001a 9C01      		movw r18,r24
  99:./tmk_core/common/mousekey.c ****         return;
 780               		.loc 1 99 54 view .LVU213
 781 001c 8091 0000 		lds r24,mousekey_repeat
  99:./tmk_core/common/mousekey.c ****         return;
 782               		.loc 1 99 68 view .LVU214
 783 0020 8823      		tst r24
 784 0022 01F0      		breq .L77
  99:./tmk_core/common/mousekey.c ****         return;
 785               		.loc 1 99 68 discriminator 1 view .LVU215
 786 0024 4091 0000 		lds r20,mk_interval
 787 0028 50E0      		ldi r21,0
  99:./tmk_core/common/mousekey.c ****         return;
 788               		.loc 1 99 8 discriminator 1 view .LVU216
 789 002a 2417      		cp r18,r20
 790 002c 3507      		cpc r19,r21
 791 002e 00F4      		brsh .L117
 792               	.L76:
 793               	/* epilogue start */
 126:./tmk_core/common/mousekey.c **** 
 794               		.loc 1 126 1 view .LVU217
 795 0030 0F90      		pop __tmp_reg__
 796 0032 0F90      		pop __tmp_reg__
 797 0034 0F90      		pop __tmp_reg__
 798 0036 0F90      		pop __tmp_reg__
 799 0038 0F90      		pop __tmp_reg__
 800 003a DF91      		pop r29
 801 003c CF91      		pop r28
 802 003e 0895      		ret
 803               	.L77:
  99:./tmk_core/common/mousekey.c ****         return;
 804               		.loc 1 99 78 discriminator 2 view .LVU218
 805 0040 4091 0000 		lds r20,mk_delay
 806 0044 9AE0      		ldi r25,lo8(10)
 807 0046 499F      		mul r20,r25
 808 0048 A001      		movw r20,r0
 809 004a 1124      		clr __zero_reg__
  99:./tmk_core/common/mousekey.c ****         return;
 810               		.loc 1 99 8 discriminator 2 view .LVU219
 811 004c 2417      		cp r18,r20
 812 004e 3507      		cpc r19,r21
 813 0050 00F0      		brlo .L76
 102:./tmk_core/common/mousekey.c ****         return;
 814               		.loc 1 102 5 is_stmt 1 view .LVU220
 102:./tmk_core/common/mousekey.c ****         return;
 815               		.loc 1 102 21 is_stmt 0 view .LVU221
 816 0052 9091 0000 		lds r25,mouse_report+1
 102:./tmk_core/common/mousekey.c ****         return;
 817               		.loc 1 102 8 view .LVU222
 818 0056 9111      		cpse r25,__zero_reg__
 819 0058 00C0      		rjmp .L80
 102:./tmk_core/common/mousekey.c ****         return;
 820               		.loc 1 102 29 view .LVU223
 821 005a 9091 0000 		lds r25,mouse_report+2
 822 005e 9111      		cpse r25,__zero_reg__
 823 0060 00C0      		rjmp .L81
 102:./tmk_core/common/mousekey.c ****         return;
 824               		.loc 1 102 52 view .LVU224
 825 0062 9091 0000 		lds r25,mouse_report+3
 826 0066 9111      		cpse r25,__zero_reg__
 827 0068 00C0      		rjmp .L81
 102:./tmk_core/common/mousekey.c ****         return;
 828               		.loc 1 102 90 view .LVU225
 829 006a 9091 0000 		lds r25,mouse_report+4
 830               	.L83:
 102:./tmk_core/common/mousekey.c ****         return;
 831               		.loc 1 102 75 discriminator 3 view .LVU226
 832 006e 9111      		cpse r25,__zero_reg__
 833 0070 00C0      		rjmp .L85
 834 0072 00C0      		rjmp .L76
 835               	.L117:
 102:./tmk_core/common/mousekey.c ****         return;
 836               		.loc 1 102 5 is_stmt 1 view .LVU227
 102:./tmk_core/common/mousekey.c ****         return;
 837               		.loc 1 102 21 is_stmt 0 view .LVU228
 838 0074 9091 0000 		lds r25,mouse_report+1
 102:./tmk_core/common/mousekey.c ****         return;
 839               		.loc 1 102 8 view .LVU229
 840 0078 9111      		cpse r25,__zero_reg__
 841 007a 00C0      		rjmp .L84
 102:./tmk_core/common/mousekey.c ****         return;
 842               		.loc 1 102 67 discriminator 1 view .LVU230
 843 007c 2091 0000 		lds r18,mouse_report+3
 102:./tmk_core/common/mousekey.c ****         return;
 844               		.loc 1 102 90 discriminator 1 view .LVU231
 845 0080 9091 0000 		lds r25,mouse_report+4
 102:./tmk_core/common/mousekey.c ****         return;
 846               		.loc 1 102 29 discriminator 1 view .LVU232
 847 0084 3091 0000 		lds r19,mouse_report+2
 848 0088 3111      		cpse r19,__zero_reg__
 849 008a 00C0      		rjmp .L85
 102:./tmk_core/common/mousekey.c ****         return;
 850               		.loc 1 102 52 discriminator 2 view .LVU233
 851 008c 2223      		tst r18
 852 008e 01F0      		breq .L83
 853               	.L85:
 105:./tmk_core/common/mousekey.c ****         mousekey_repeat++;
 854               		.loc 1 105 5 is_stmt 1 view .LVU234
 105:./tmk_core/common/mousekey.c ****         mousekey_repeat++;
 855               		.loc 1 105 8 is_stmt 0 view .LVU235
 856 0090 8F3F      		cpi r24,lo8(-1)
 857 0092 01F0      		breq .L88
 858               	.L81:
 106:./tmk_core/common/mousekey.c **** 
 859               		.loc 1 106 9 is_stmt 1 view .LVU236
 106:./tmk_core/common/mousekey.c **** 
 860               		.loc 1 106 24 is_stmt 0 view .LVU237
 861 0094 8F5F      		subi r24,lo8(-(1))
 862 0096 8093 0000 		sts mousekey_repeat,r24
 109:./tmk_core/common/mousekey.c ****     if (mouse_report.x < 0) mouse_report.x = move_unit() * -1;
 863               		.loc 1 109 5 is_stmt 1 view .LVU238
 864               	.L88:
 110:./tmk_core/common/mousekey.c ****     if (mouse_report.y > 0) mouse_report.y = move_unit();
 865               		.loc 1 110 5 view .LVU239
 110:./tmk_core/common/mousekey.c ****     if (mouse_report.y > 0) mouse_report.y = move_unit();
 866               		.loc 1 110 8 is_stmt 0 view .LVU240
 867 009a 8091 0000 		lds r24,mouse_report+1
 868 009e 87FF      		sbrs r24,7
 869 00a0 00C0      		rjmp .L91
 110:./tmk_core/common/mousekey.c ****     if (mouse_report.y > 0) mouse_report.y = move_unit();
 870               		.loc 1 110 29 is_stmt 1 discriminator 1 view .LVU241
 110:./tmk_core/common/mousekey.c ****     if (mouse_report.y > 0) mouse_report.y = move_unit();
 871               		.loc 1 110 46 is_stmt 0 discriminator 1 view .LVU242
 872 00a2 0E94 0000 		call move_unit
 873               	.LVL70:
 110:./tmk_core/common/mousekey.c ****     if (mouse_report.y > 0) mouse_report.y = move_unit();
 874               		.loc 1 110 44 discriminator 1 view .LVU243
 875 00a6 8195      		neg r24
 876 00a8 8093 0000 		sts mouse_report+1,r24
 877               	.L91:
 111:./tmk_core/common/mousekey.c ****     if (mouse_report.y < 0) mouse_report.y = move_unit() * -1;
 878               		.loc 1 111 5 is_stmt 1 view .LVU244
 111:./tmk_core/common/mousekey.c ****     if (mouse_report.y < 0) mouse_report.y = move_unit() * -1;
 879               		.loc 1 111 8 is_stmt 0 view .LVU245
 880 00ac 8091 0000 		lds r24,mouse_report+2
 881 00b0 1816      		cp __zero_reg__,r24
 882 00b2 04F4      		brge .L92
 111:./tmk_core/common/mousekey.c ****     if (mouse_report.y < 0) mouse_report.y = move_unit() * -1;
 883               		.loc 1 111 29 is_stmt 1 discriminator 1 view .LVU246
 111:./tmk_core/common/mousekey.c ****     if (mouse_report.y < 0) mouse_report.y = move_unit() * -1;
 884               		.loc 1 111 46 is_stmt 0 discriminator 1 view .LVU247
 885 00b4 0E94 0000 		call move_unit
 886               	.LVL71:
 111:./tmk_core/common/mousekey.c ****     if (mouse_report.y < 0) mouse_report.y = move_unit() * -1;
 887               		.loc 1 111 44 discriminator 1 view .LVU248
 888 00b8 8093 0000 		sts mouse_report+2,r24
 889               	.L92:
 112:./tmk_core/common/mousekey.c **** 
 890               		.loc 1 112 5 is_stmt 1 view .LVU249
 112:./tmk_core/common/mousekey.c **** 
 891               		.loc 1 112 8 is_stmt 0 view .LVU250
 892 00bc 8091 0000 		lds r24,mouse_report+2
 893 00c0 87FF      		sbrs r24,7
 894 00c2 00C0      		rjmp .L93
 112:./tmk_core/common/mousekey.c **** 
 895               		.loc 1 112 29 is_stmt 1 discriminator 1 view .LVU251
 112:./tmk_core/common/mousekey.c **** 
 896               		.loc 1 112 46 is_stmt 0 discriminator 1 view .LVU252
 897 00c4 0E94 0000 		call move_unit
 898               	.LVL72:
 112:./tmk_core/common/mousekey.c **** 
 899               		.loc 1 112 44 discriminator 1 view .LVU253
 900 00c8 8195      		neg r24
 901 00ca 8093 0000 		sts mouse_report+2,r24
 902               	.L93:
 115:./tmk_core/common/mousekey.c ****         mouse_report.x *= 0.7;
 903               		.loc 1 115 5 is_stmt 1 view .LVU254
 115:./tmk_core/common/mousekey.c ****         mouse_report.x *= 0.7;
 904               		.loc 1 115 21 is_stmt 0 view .LVU255
 905 00ce 8091 0000 		lds r24,mouse_report+1
 115:./tmk_core/common/mousekey.c ****         mouse_report.x *= 0.7;
 906               		.loc 1 115 8 view .LVU256
 907 00d2 8823      		tst r24
 908 00d4 01F4      		brne .+2
 909 00d6 00C0      		rjmp .L94
 115:./tmk_core/common/mousekey.c ****         mouse_report.x *= 0.7;
 910               		.loc 1 115 39 discriminator 1 view .LVU257
 911 00d8 A091 0000 		lds r26,mouse_report+2
 912 00dc AD83      		std Y+5,r26
 115:./tmk_core/common/mousekey.c ****         mouse_report.x *= 0.7;
 913               		.loc 1 115 24 discriminator 1 view .LVU258
 914 00de AA23      		tst r26
 915 00e0 01F4      		brne .+2
 916 00e2 00C0      		rjmp .L94
 116:./tmk_core/common/mousekey.c ****         mouse_report.y *= 0.7;
 917               		.loc 1 116 9 is_stmt 1 view .LVU259
 116:./tmk_core/common/mousekey.c ****         mouse_report.y *= 0.7;
 918               		.loc 1 116 24 is_stmt 0 view .LVU260
 919 00e4 282F      		mov r18,r24
 920 00e6 880F      		lsl r24
 921 00e8 330B      		sbc r19,r19
 922 00ea 440B      		sbc r20,r20
 923 00ec 550B      		sbc r21,r21
 924 00ee 2983      		std Y+1,r18
 925 00f0 3A83      		std Y+2,r19
 926 00f2 4B83      		std Y+3,r20
 927 00f4 5C83      		std Y+4,r21
 928 00f6 CA01      		movw r24,r20
 929 00f8 B901      		movw r22,r18
 930 00fa 0E94 0000 		call __floatsisf
 931               	.LVL73:
 932 00fe 23E3      		ldi r18,lo8(51)
 933 0100 33E3      		ldi r19,lo8(51)
 934 0102 43E3      		ldi r20,lo8(51)
 935 0104 5FE3      		ldi r21,lo8(63)
 936 0106 6983      		std Y+1,r22
 937 0108 7A83      		std Y+2,r23
 938 010a 8B83      		std Y+3,r24
 939 010c 9C83      		std Y+4,r25
 940 010e 6981      		ldd r22,Y+1
 941 0110 7A81      		ldd r23,Y+2
 942 0112 8B81      		ldd r24,Y+3
 943 0114 9C81      		ldd r25,Y+4
 944 0116 0E94 0000 		call __mulsf3
 945               	.LVL74:
 946 011a 6983      		std Y+1,r22
 947 011c 7A83      		std Y+2,r23
 948 011e 8B83      		std Y+3,r24
 949 0120 9C83      		std Y+4,r25
 950 0122 6981      		ldd r22,Y+1
 951 0124 7A81      		ldd r23,Y+2
 952 0126 8B81      		ldd r24,Y+3
 953 0128 9C81      		ldd r25,Y+4
 954 012a 0E94 0000 		call __fixsfsi
 955               	.LVL75:
 956 012e 6093 0000 		sts mouse_report+1,r22
 117:./tmk_core/common/mousekey.c ****     }
 957               		.loc 1 117 9 is_stmt 1 view .LVU261
 117:./tmk_core/common/mousekey.c ****     }
 958               		.loc 1 117 24 is_stmt 0 view .LVU262
 959 0132 8D81      		ldd r24,Y+5
 960 0134 082E      		mov __tmp_reg__,r24
 961 0136 000C      		lsl r0
 962 0138 990B      		sbc r25,r25
 963 013a AA0B      		sbc r26,r26
 964 013c BB0B      		sbc r27,r27
 965 013e 8983      		std Y+1,r24
 966 0140 9A83      		std Y+2,r25
 967 0142 AB83      		std Y+3,r26
 968 0144 BC83      		std Y+4,r27
 969 0146 BC01      		movw r22,r24
 970 0148 CD01      		movw r24,r26
 971 014a 0E94 0000 		call __floatsisf
 972               	.LVL76:
 973 014e 23E3      		ldi r18,lo8(51)
 974 0150 33E3      		ldi r19,lo8(51)
 975 0152 43E3      		ldi r20,lo8(51)
 976 0154 5FE3      		ldi r21,lo8(63)
 977 0156 6983      		std Y+1,r22
 978 0158 7A83      		std Y+2,r23
 979 015a 8B83      		std Y+3,r24
 980 015c 9C83      		std Y+4,r25
 981 015e 6981      		ldd r22,Y+1
 982 0160 7A81      		ldd r23,Y+2
 983 0162 8B81      		ldd r24,Y+3
 984 0164 9C81      		ldd r25,Y+4
 985 0166 0E94 0000 		call __mulsf3
 986               	.LVL77:
 987 016a 6983      		std Y+1,r22
 988 016c 7A83      		std Y+2,r23
 989 016e 8B83      		std Y+3,r24
 990 0170 9C83      		std Y+4,r25
 991 0172 6981      		ldd r22,Y+1
 992 0174 7A81      		ldd r23,Y+2
 993 0176 8B81      		ldd r24,Y+3
 994 0178 9C81      		ldd r25,Y+4
 995 017a 0E94 0000 		call __fixsfsi
 996               	.LVL78:
 997 017e 6093 0000 		sts mouse_report+2,r22
 998               	.L94:
 120:./tmk_core/common/mousekey.c ****     if (mouse_report.v < 0) mouse_report.v = wheel_unit() * -1;
 999               		.loc 1 120 5 is_stmt 1 view .LVU263
 120:./tmk_core/common/mousekey.c ****     if (mouse_report.v < 0) mouse_report.v = wheel_unit() * -1;
 1000               		.loc 1 120 8 is_stmt 0 view .LVU264
 1001 0182 8091 0000 		lds r24,mouse_report+3
 1002 0186 1816      		cp __zero_reg__,r24
 1003 0188 04F4      		brge .L95
 120:./tmk_core/common/mousekey.c ****     if (mouse_report.v < 0) mouse_report.v = wheel_unit() * -1;
 1004               		.loc 1 120 29 is_stmt 1 discriminator 1 view .LVU265
 120:./tmk_core/common/mousekey.c ****     if (mouse_report.v < 0) mouse_report.v = wheel_unit() * -1;
 1005               		.loc 1 120 46 is_stmt 0 discriminator 1 view .LVU266
 1006 018a 0E94 0000 		call wheel_unit
 1007               	.LVL79:
 120:./tmk_core/common/mousekey.c ****     if (mouse_report.v < 0) mouse_report.v = wheel_unit() * -1;
 1008               		.loc 1 120 44 discriminator 1 view .LVU267
 1009 018e 8093 0000 		sts mouse_report+3,r24
 1010               	.L95:
 121:./tmk_core/common/mousekey.c ****     if (mouse_report.h > 0) mouse_report.h = wheel_unit();
 1011               		.loc 1 121 5 is_stmt 1 view .LVU268
 121:./tmk_core/common/mousekey.c ****     if (mouse_report.h > 0) mouse_report.h = wheel_unit();
 1012               		.loc 1 121 8 is_stmt 0 view .LVU269
 1013 0192 8091 0000 		lds r24,mouse_report+3
 1014 0196 87FF      		sbrs r24,7
 1015 0198 00C0      		rjmp .L96
 121:./tmk_core/common/mousekey.c ****     if (mouse_report.h > 0) mouse_report.h = wheel_unit();
 1016               		.loc 1 121 29 is_stmt 1 discriminator 1 view .LVU270
 121:./tmk_core/common/mousekey.c ****     if (mouse_report.h > 0) mouse_report.h = wheel_unit();
 1017               		.loc 1 121 46 is_stmt 0 discriminator 1 view .LVU271
 1018 019a 0E94 0000 		call wheel_unit
 1019               	.LVL80:
 121:./tmk_core/common/mousekey.c ****     if (mouse_report.h > 0) mouse_report.h = wheel_unit();
 1020               		.loc 1 121 44 discriminator 1 view .LVU272
 1021 019e 8195      		neg r24
 1022 01a0 8093 0000 		sts mouse_report+3,r24
 1023               	.L96:
 122:./tmk_core/common/mousekey.c ****     if (mouse_report.h < 0) mouse_report.h = wheel_unit() * -1;
 1024               		.loc 1 122 5 is_stmt 1 view .LVU273
 122:./tmk_core/common/mousekey.c ****     if (mouse_report.h < 0) mouse_report.h = wheel_unit() * -1;
 1025               		.loc 1 122 8 is_stmt 0 view .LVU274
 1026 01a4 8091 0000 		lds r24,mouse_report+4
 1027 01a8 1816      		cp __zero_reg__,r24
 1028 01aa 04F4      		brge .L97
 122:./tmk_core/common/mousekey.c ****     if (mouse_report.h < 0) mouse_report.h = wheel_unit() * -1;
 1029               		.loc 1 122 29 is_stmt 1 discriminator 1 view .LVU275
 122:./tmk_core/common/mousekey.c ****     if (mouse_report.h < 0) mouse_report.h = wheel_unit() * -1;
 1030               		.loc 1 122 46 is_stmt 0 discriminator 1 view .LVU276
 1031 01ac 0E94 0000 		call wheel_unit
 1032               	.LVL81:
 122:./tmk_core/common/mousekey.c ****     if (mouse_report.h < 0) mouse_report.h = wheel_unit() * -1;
 1033               		.loc 1 122 44 discriminator 1 view .LVU277
 1034 01b0 8093 0000 		sts mouse_report+4,r24
 1035               	.L97:
 123:./tmk_core/common/mousekey.c **** 
 1036               		.loc 1 123 5 is_stmt 1 view .LVU278
 123:./tmk_core/common/mousekey.c **** 
 1037               		.loc 1 123 8 is_stmt 0 view .LVU279
 1038 01b4 8091 0000 		lds r24,mouse_report+4
 1039 01b8 87FF      		sbrs r24,7
 1040 01ba 00C0      		rjmp .L98
 123:./tmk_core/common/mousekey.c **** 
 1041               		.loc 1 123 29 is_stmt 1 discriminator 1 view .LVU280
 123:./tmk_core/common/mousekey.c **** 
 1042               		.loc 1 123 46 is_stmt 0 discriminator 1 view .LVU281
 1043 01bc 0E94 0000 		call wheel_unit
 1044               	.LVL82:
 123:./tmk_core/common/mousekey.c **** 
 1045               		.loc 1 123 44 discriminator 1 view .LVU282
 1046 01c0 8195      		neg r24
 1047 01c2 8093 0000 		sts mouse_report+4,r24
 1048               	.L98:
 125:./tmk_core/common/mousekey.c **** }
 1049               		.loc 1 125 5 is_stmt 1 view .LVU283
 1050               	/* epilogue start */
 126:./tmk_core/common/mousekey.c **** 
 1051               		.loc 1 126 1 is_stmt 0 view .LVU284
 1052 01c6 0F90      		pop __tmp_reg__
 1053 01c8 0F90      		pop __tmp_reg__
 1054 01ca 0F90      		pop __tmp_reg__
 1055 01cc 0F90      		pop __tmp_reg__
 1056 01ce 0F90      		pop __tmp_reg__
 1057 01d0 DF91      		pop r29
 1058 01d2 CF91      		pop r28
 125:./tmk_core/common/mousekey.c **** }
 1059               		.loc 1 125 5 view .LVU285
 1060 01d4 0C94 0000 		jmp mousekey_send
 1061               	.LVL83:
 1062               	.L84:
 105:./tmk_core/common/mousekey.c ****         mousekey_repeat++;
 1063               		.loc 1 105 5 is_stmt 1 view .LVU286
 105:./tmk_core/common/mousekey.c ****         mousekey_repeat++;
 1064               		.loc 1 105 8 is_stmt 0 view .LVU287
 1065 01d8 8F3F      		cpi r24,lo8(-1)
 1066 01da 01F0      		breq .L90
 1067               	.L80:
 106:./tmk_core/common/mousekey.c **** 
 1068               		.loc 1 106 9 is_stmt 1 view .LVU288
 106:./tmk_core/common/mousekey.c **** 
 1069               		.loc 1 106 24 is_stmt 0 view .LVU289
 1070 01dc 8F5F      		subi r24,lo8(-(1))
 1071 01de 8093 0000 		sts mousekey_repeat,r24
 1072               	.L90:
 109:./tmk_core/common/mousekey.c ****     if (mouse_report.x < 0) mouse_report.x = move_unit() * -1;
 1073               		.loc 1 109 5 is_stmt 1 view .LVU290
 109:./tmk_core/common/mousekey.c ****     if (mouse_report.x < 0) mouse_report.x = move_unit() * -1;
 1074               		.loc 1 109 8 is_stmt 0 view .LVU291
 1075 01e2 1916      		cp __zero_reg__,r25
 1076 01e4 04F0      		brlt .+2
 1077 01e6 00C0      		rjmp .L88
 109:./tmk_core/common/mousekey.c ****     if (mouse_report.x < 0) mouse_report.x = move_unit() * -1;
 1078               		.loc 1 109 29 is_stmt 1 discriminator 1 view .LVU292
 109:./tmk_core/common/mousekey.c ****     if (mouse_report.x < 0) mouse_report.x = move_unit() * -1;
 1079               		.loc 1 109 46 is_stmt 0 discriminator 1 view .LVU293
 1080 01e8 0E94 0000 		call move_unit
 1081               	.LVL84:
 109:./tmk_core/common/mousekey.c ****     if (mouse_report.x < 0) mouse_report.x = move_unit() * -1;
 1082               		.loc 1 109 44 discriminator 1 view .LVU294
 1083 01ec 8093 0000 		sts mouse_report+1,r24
 1084 01f0 00C0      		rjmp .L88
 1085               		.cfi_endproc
 1086               	.LFE106:
 1088               		.section	.text.mousekey_clear,"ax",@progbits
 1089               	.global	mousekey_clear
 1091               	mousekey_clear:
 1092               	.LFB110:
 177:./tmk_core/common/mousekey.c **** 
 178:./tmk_core/common/mousekey.c **** void mousekey_clear(void)
 179:./tmk_core/common/mousekey.c **** {
 1093               		.loc 1 179 1 is_stmt 1 view -0
 1094               		.cfi_startproc
 1095               	/* prologue: function */
 1096               	/* frame size = 0 */
 1097               	/* stack size = 0 */
 1098               	.L__stack_usage = 0
 180:./tmk_core/common/mousekey.c ****     mouse_report = (report_mouse_t){};
 1099               		.loc 1 180 5 view .LVU296
 1100               		.loc 1 180 18 is_stmt 0 view .LVU297
 1101 0000 85E0      		ldi r24,lo8(5)
 1102 0002 E0E0      		ldi r30,lo8(mouse_report)
 1103 0004 F0E0      		ldi r31,hi8(mouse_report)
 1104 0006 DF01      		movw r26,r30
 1105               		0:
 1106 0008 1D92      		st X+,__zero_reg__
 1107 000a 8A95      		dec r24
 1108 000c 01F4      		brne 0b
 181:./tmk_core/common/mousekey.c ****     mousekey_repeat = 0;
 1109               		.loc 1 181 5 is_stmt 1 view .LVU298
 1110               		.loc 1 181 21 is_stmt 0 view .LVU299
 1111 000e 1092 0000 		sts mousekey_repeat,__zero_reg__
 182:./tmk_core/common/mousekey.c ****     mousekey_accel = 0;
 1112               		.loc 1 182 5 is_stmt 1 view .LVU300
 1113               		.loc 1 182 20 is_stmt 0 view .LVU301
 1114 0012 1092 0000 		sts mousekey_accel,__zero_reg__
 1115               	/* epilogue start */
 183:./tmk_core/common/mousekey.c **** }
 1116               		.loc 1 183 1 view .LVU302
 1117 0016 0895      		ret
 1118               		.cfi_endproc
 1119               	.LFE110:
 1121               		.section	.bss.last_timer,"aw",@nobits
 1124               	last_timer:
 1125 0000 0000      		.zero	2
 1126               	.global	mk_wheel_time_to_max
 1127               		.section	.data.mk_wheel_time_to_max,"aw"
 1130               	mk_wheel_time_to_max:
 1131 0000 28        		.byte	40
 1132               	.global	mk_wheel_max_speed
 1133               		.section	.data.mk_wheel_max_speed,"aw"
 1136               	mk_wheel_max_speed:
 1137 0000 08        		.byte	8
 1138               	.global	mk_time_to_max
 1139               		.section	.data.mk_time_to_max,"aw"
 1142               	mk_time_to_max:
 1143 0000 14        		.byte	20
 1144               	.global	mk_max_speed
 1145               		.section	.data.mk_max_speed,"aw"
 1148               	mk_max_speed:
 1149 0000 0A        		.byte	10
 1150               	.global	mk_interval
 1151               		.section	.data.mk_interval,"aw"
 1154               	mk_interval:
 1155 0000 32        		.byte	50
 1156               	.global	mk_delay
 1157               		.section	.data.mk_delay,"aw"
 1160               	mk_delay:
 1161 0000 1E        		.byte	30
 1162               		.section	.bss.mousekey_accel,"aw",@nobits
 1165               	mousekey_accel:
 1166 0000 00        		.zero	1
 1167               		.section	.bss.mousekey_repeat,"aw",@nobits
 1170               	mousekey_repeat:
 1171 0000 00        		.zero	1
 1172               		.section	.bss.mouse_report,"aw",@nobits
 1175               	mouse_report:
 1176 0000 0000 0000 		.zero	5
 1176      00
 1177               		.text
 1178               	.Letext0:
 1179               		.file 2 "/usr/avr/include/stdint.h"
 1180               		.file 3 "./tmk_core/common/report.h"
 1181               		.file 4 "./tmk_core/common/debug.h"
 1182               		.file 5 "./tmk_core/common/mousekey.h"
 1183               		.file 6 "./tmk_core/common/keycode.h"
 1184               		.file 7 "./tmk_core/common/timer.h"
 1185               		.file 8 "./tmk_core/common/host.h"