   1               		.file	"bootmagic.c"
   2               	__SP_H__ = 0x3e
   3               	__SP_L__ = 0x3d
   4               	__SREG__ = 0x3f
   5               	__RAMPZ__ = 0x3b
   6               	__tmp_reg__ = 0
   7               	__zero_reg__ = 1
   8               		.text
   9               	.Ltext0:
  10               		.cfi_sections	.debug_frame
  11               		.section	.text.scan_keycode,"ax",@progbits
  13               	scan_keycode:
  14               	.LVL0:
  15               	.LFB104:
  16               		.file 1 "./tmk_core/common/bootmagic.c"
   1:./tmk_core/common/bootmagic.c **** #include <stdint.h>
   2:./tmk_core/common/bootmagic.c **** #include <stdbool.h>
   3:./tmk_core/common/bootmagic.c **** #include "wait.h"
   4:./tmk_core/common/bootmagic.c **** #include "matrix.h"
   5:./tmk_core/common/bootmagic.c **** #include "bootloader.h"
   6:./tmk_core/common/bootmagic.c **** #include "debug.h"
   7:./tmk_core/common/bootmagic.c **** #include "keymap.h"
   8:./tmk_core/common/bootmagic.c **** #include "host.h"
   9:./tmk_core/common/bootmagic.c **** #include "action_layer.h"
  10:./tmk_core/common/bootmagic.c **** #include "eeconfig.h"
  11:./tmk_core/common/bootmagic.c **** #include "bootmagic.h"
  12:./tmk_core/common/bootmagic.c **** 
  13:./tmk_core/common/bootmagic.c **** keymap_config_t keymap_config;
  14:./tmk_core/common/bootmagic.c **** 
  15:./tmk_core/common/bootmagic.c **** void bootmagic(void)
  16:./tmk_core/common/bootmagic.c **** {
  17:./tmk_core/common/bootmagic.c ****     /* check signature */
  18:./tmk_core/common/bootmagic.c ****     if (!eeconfig_is_enabled()) {
  19:./tmk_core/common/bootmagic.c ****         eeconfig_init();
  20:./tmk_core/common/bootmagic.c ****     }
  21:./tmk_core/common/bootmagic.c **** 
  22:./tmk_core/common/bootmagic.c ****     /* do scans in case of bounce */
  23:./tmk_core/common/bootmagic.c ****     print("bootmagic scan: ... ");
  24:./tmk_core/common/bootmagic.c ****     uint8_t scan = 100;
  25:./tmk_core/common/bootmagic.c ****     while (scan--) { matrix_scan(); wait_ms(10); }
  26:./tmk_core/common/bootmagic.c ****     print("done.\n");
  27:./tmk_core/common/bootmagic.c **** 
  28:./tmk_core/common/bootmagic.c ****     /* bootmagic skip */
  29:./tmk_core/common/bootmagic.c ****     if (bootmagic_scan_keycode(BOOTMAGIC_KEY_SKIP)) {
  30:./tmk_core/common/bootmagic.c ****         return;
  31:./tmk_core/common/bootmagic.c ****     }
  32:./tmk_core/common/bootmagic.c **** 
  33:./tmk_core/common/bootmagic.c ****     /* eeconfig clear */
  34:./tmk_core/common/bootmagic.c ****     if (bootmagic_scan_keycode(BOOTMAGIC_KEY_EEPROM_CLEAR)) {
  35:./tmk_core/common/bootmagic.c ****         eeconfig_init();
  36:./tmk_core/common/bootmagic.c ****     }
  37:./tmk_core/common/bootmagic.c **** 
  38:./tmk_core/common/bootmagic.c ****     /* bootloader */
  39:./tmk_core/common/bootmagic.c ****     if (bootmagic_scan_keycode(BOOTMAGIC_KEY_BOOTLOADER)) {
  40:./tmk_core/common/bootmagic.c ****         bootloader_jump();
  41:./tmk_core/common/bootmagic.c ****     }
  42:./tmk_core/common/bootmagic.c **** 
  43:./tmk_core/common/bootmagic.c ****     /* debug enable */
  44:./tmk_core/common/bootmagic.c ****     debug_config.raw = eeconfig_read_debug();
  45:./tmk_core/common/bootmagic.c ****     if (bootmagic_scan_keycode(BOOTMAGIC_KEY_DEBUG_ENABLE)) {
  46:./tmk_core/common/bootmagic.c ****         if (bootmagic_scan_keycode(BOOTMAGIC_KEY_DEBUG_MATRIX)) {
  47:./tmk_core/common/bootmagic.c ****             debug_config.matrix = !debug_config.matrix;
  48:./tmk_core/common/bootmagic.c ****         } else if (bootmagic_scan_keycode(BOOTMAGIC_KEY_DEBUG_KEYBOARD)) {
  49:./tmk_core/common/bootmagic.c ****             debug_config.keyboard = !debug_config.keyboard;
  50:./tmk_core/common/bootmagic.c ****         } else if (bootmagic_scan_keycode(BOOTMAGIC_KEY_DEBUG_MOUSE)) {
  51:./tmk_core/common/bootmagic.c ****             debug_config.mouse = !debug_config.mouse;
  52:./tmk_core/common/bootmagic.c ****         } else {
  53:./tmk_core/common/bootmagic.c ****             debug_config.enable = !debug_config.enable;
  54:./tmk_core/common/bootmagic.c ****         }
  55:./tmk_core/common/bootmagic.c ****     }
  56:./tmk_core/common/bootmagic.c ****     eeconfig_update_debug(debug_config.raw);
  57:./tmk_core/common/bootmagic.c **** 
  58:./tmk_core/common/bootmagic.c ****     /* keymap config */
  59:./tmk_core/common/bootmagic.c ****     keymap_config.raw = eeconfig_read_keymap();
  60:./tmk_core/common/bootmagic.c ****     if (bootmagic_scan_keycode(BOOTMAGIC_KEY_SWAP_CONTROL_CAPSLOCK)) {
  61:./tmk_core/common/bootmagic.c ****         keymap_config.swap_control_capslock = !keymap_config.swap_control_capslock;
  62:./tmk_core/common/bootmagic.c ****     }
  63:./tmk_core/common/bootmagic.c ****     if (bootmagic_scan_keycode(BOOTMAGIC_KEY_CAPSLOCK_TO_CONTROL)) {
  64:./tmk_core/common/bootmagic.c ****         keymap_config.capslock_to_control = !keymap_config.capslock_to_control;
  65:./tmk_core/common/bootmagic.c ****     }
  66:./tmk_core/common/bootmagic.c ****     if (bootmagic_scan_keycode(BOOTMAGIC_KEY_SWAP_LALT_LGUI)) {
  67:./tmk_core/common/bootmagic.c ****         keymap_config.swap_lalt_lgui = !keymap_config.swap_lalt_lgui;
  68:./tmk_core/common/bootmagic.c ****     }
  69:./tmk_core/common/bootmagic.c ****     if (bootmagic_scan_keycode(BOOTMAGIC_KEY_SWAP_RALT_RGUI)) {
  70:./tmk_core/common/bootmagic.c ****         keymap_config.swap_ralt_rgui = !keymap_config.swap_ralt_rgui;
  71:./tmk_core/common/bootmagic.c ****     }
  72:./tmk_core/common/bootmagic.c ****     if (bootmagic_scan_keycode(BOOTMAGIC_KEY_NO_GUI)) {
  73:./tmk_core/common/bootmagic.c ****         keymap_config.no_gui = !keymap_config.no_gui;
  74:./tmk_core/common/bootmagic.c ****     }
  75:./tmk_core/common/bootmagic.c ****     if (bootmagic_scan_keycode(BOOTMAGIC_KEY_SWAP_GRAVE_ESC)) {
  76:./tmk_core/common/bootmagic.c ****         keymap_config.swap_grave_esc = !keymap_config.swap_grave_esc;
  77:./tmk_core/common/bootmagic.c ****     }
  78:./tmk_core/common/bootmagic.c ****     if (bootmagic_scan_keycode(BOOTMAGIC_KEY_SWAP_BACKSLASH_BACKSPACE)) {
  79:./tmk_core/common/bootmagic.c ****         keymap_config.swap_backslash_backspace = !keymap_config.swap_backslash_backspace;
  80:./tmk_core/common/bootmagic.c ****     }
  81:./tmk_core/common/bootmagic.c ****     if (bootmagic_scan_keycode(BOOTMAGIC_HOST_NKRO)) {
  82:./tmk_core/common/bootmagic.c ****         keymap_config.nkro = !keymap_config.nkro;
  83:./tmk_core/common/bootmagic.c ****     }
  84:./tmk_core/common/bootmagic.c ****     eeconfig_update_keymap(keymap_config.raw);
  85:./tmk_core/common/bootmagic.c **** 
  86:./tmk_core/common/bootmagic.c ****     /* default layer */
  87:./tmk_core/common/bootmagic.c ****     uint8_t default_layer = 0;
  88:./tmk_core/common/bootmagic.c ****     if (bootmagic_scan_keycode(BOOTMAGIC_KEY_DEFAULT_LAYER_0)) { default_layer |= (1<<0); }
  89:./tmk_core/common/bootmagic.c ****     if (bootmagic_scan_keycode(BOOTMAGIC_KEY_DEFAULT_LAYER_1)) { default_layer |= (1<<1); }
  90:./tmk_core/common/bootmagic.c ****     if (bootmagic_scan_keycode(BOOTMAGIC_KEY_DEFAULT_LAYER_2)) { default_layer |= (1<<2); }
  91:./tmk_core/common/bootmagic.c ****     if (bootmagic_scan_keycode(BOOTMAGIC_KEY_DEFAULT_LAYER_3)) { default_layer |= (1<<3); }
  92:./tmk_core/common/bootmagic.c ****     if (bootmagic_scan_keycode(BOOTMAGIC_KEY_DEFAULT_LAYER_4)) { default_layer |= (1<<4); }
  93:./tmk_core/common/bootmagic.c ****     if (bootmagic_scan_keycode(BOOTMAGIC_KEY_DEFAULT_LAYER_5)) { default_layer |= (1<<5); }
  94:./tmk_core/common/bootmagic.c ****     if (bootmagic_scan_keycode(BOOTMAGIC_KEY_DEFAULT_LAYER_6)) { default_layer |= (1<<6); }
  95:./tmk_core/common/bootmagic.c ****     if (bootmagic_scan_keycode(BOOTMAGIC_KEY_DEFAULT_LAYER_7)) { default_layer |= (1<<7); }
  96:./tmk_core/common/bootmagic.c ****     if (default_layer) {
  97:./tmk_core/common/bootmagic.c ****         eeconfig_update_default_layer(default_layer);
  98:./tmk_core/common/bootmagic.c ****         default_layer_set((uint32_t)default_layer);
  99:./tmk_core/common/bootmagic.c ****     } else {
 100:./tmk_core/common/bootmagic.c ****         default_layer = eeconfig_read_default_layer();
 101:./tmk_core/common/bootmagic.c ****         default_layer_set((uint32_t)default_layer);
 102:./tmk_core/common/bootmagic.c ****     }
 103:./tmk_core/common/bootmagic.c **** }
 104:./tmk_core/common/bootmagic.c **** 
 105:./tmk_core/common/bootmagic.c **** static bool scan_keycode(uint8_t keycode)
 106:./tmk_core/common/bootmagic.c **** {
  17               		.loc 1 106 1 view -0
  18               		.cfi_startproc
  19               		.loc 1 106 1 is_stmt 0 view .LVU1
  20 0000 AF92      		push r10
  21               	.LCFI0:
  22               		.cfi_def_cfa_offset 3
  23               		.cfi_offset 10, -2
  24 0002 BF92      		push r11
  25               	.LCFI1:
  26               		.cfi_def_cfa_offset 4
  27               		.cfi_offset 11, -3
  28 0004 CF92      		push r12
  29               	.LCFI2:
  30               		.cfi_def_cfa_offset 5
  31               		.cfi_offset 12, -4
  32 0006 DF92      		push r13
  33               	.LCFI3:
  34               		.cfi_def_cfa_offset 6
  35               		.cfi_offset 13, -5
  36 0008 EF92      		push r14
  37               	.LCFI4:
  38               		.cfi_def_cfa_offset 7
  39               		.cfi_offset 14, -6
  40 000a FF92      		push r15
  41               	.LCFI5:
  42               		.cfi_def_cfa_offset 8
  43               		.cfi_offset 15, -7
  44 000c 0F93      		push r16
  45               	.LCFI6:
  46               		.cfi_def_cfa_offset 9
  47               		.cfi_offset 16, -8
  48 000e 1F93      		push r17
  49               	.LCFI7:
  50               		.cfi_def_cfa_offset 10
  51               		.cfi_offset 17, -9
  52 0010 CF93      		push r28
  53               	.LCFI8:
  54               		.cfi_def_cfa_offset 11
  55               		.cfi_offset 28, -10
  56               	/* prologue: function */
  57               	/* frame size = 0 */
  58               	/* stack size = 9 */
  59               	.L__stack_usage = 9
 107:./tmk_core/common/bootmagic.c ****     for (uint8_t r = 0; r < MATRIX_ROWS; r++) {
  60               		.loc 1 107 5 is_stmt 1 view .LVU2
  61               	.LBB4:
  62               		.loc 1 107 10 view .LVU3
  63               	.LVL1:
  64               		.loc 1 107 25 view .LVU4
  65               		.loc 1 107 18 is_stmt 0 view .LVU5
  66 0012 C0E0      		ldi r28,0
  67               	.LBB5:
  68               	.LBB6:
 108:./tmk_core/common/bootmagic.c ****         matrix_row_t matrix_row = matrix_get_row(r);
 109:./tmk_core/common/bootmagic.c ****         for (uint8_t c = 0; c < MATRIX_COLS; c++) {
 110:./tmk_core/common/bootmagic.c ****             if (matrix_row & ((matrix_row_t)1<<c)) {
  69               		.loc 1 110 46 view .LVU6
  70 0014 AA24      		clr r10
  71 0016 A394      		inc r10
  72 0018 B12C      		mov r11,__zero_reg__
  73               	.LBB7:
 111:./tmk_core/common/bootmagic.c ****                 if (keycode == keymap_key_to_keycode(0, (keypos_t){ .row = r, .col = c })) {
  74               		.loc 1 111 29 view .LVU7
  75 001a E82E      		mov r14,r24
  76 001c F12C      		mov r15,__zero_reg__
  77               	.LVL2:
  78               	.L6:
  79               		.loc 1 111 29 view .LVU8
  80               	.LBE7:
  81               	.LBE6:
 108:./tmk_core/common/bootmagic.c ****         matrix_row_t matrix_row = matrix_get_row(r);
  82               		.loc 1 108 9 is_stmt 1 view .LVU9
 108:./tmk_core/common/bootmagic.c ****         matrix_row_t matrix_row = matrix_get_row(r);
  83               		.loc 1 108 35 is_stmt 0 view .LVU10
  84 001e 8C2F      		mov r24,r28
  85 0020 0E94 0000 		call matrix_get_row
  86               	.LVL3:
  87 0024 6C01      		movw r12,r24
  88               	.LVL4:
 109:./tmk_core/common/bootmagic.c ****             if (matrix_row & ((matrix_row_t)1<<c)) {
  89               		.loc 1 109 9 is_stmt 1 view .LVU11
  90               	.LBB9:
 109:./tmk_core/common/bootmagic.c ****             if (matrix_row & ((matrix_row_t)1<<c)) {
  91               		.loc 1 109 14 view .LVU12
 109:./tmk_core/common/bootmagic.c ****             if (matrix_row & ((matrix_row_t)1<<c)) {
  92               		.loc 1 109 29 view .LVU13
  93               	.LBE9:
 108:./tmk_core/common/bootmagic.c ****         matrix_row_t matrix_row = matrix_get_row(r);
  94               		.loc 1 108 35 is_stmt 0 view .LVU14
  95 0026 10E0      		ldi r17,0
  96 0028 00E0      		ldi r16,0
  97               	.LVL5:
  98               	.L5:
  99               	.LBB10:
 110:./tmk_core/common/bootmagic.c ****                 if (keycode == keymap_key_to_keycode(0, (keypos_t){ .row = r, .col = c })) {
 100               		.loc 1 110 13 is_stmt 1 view .LVU15
 110:./tmk_core/common/bootmagic.c ****                 if (keycode == keymap_key_to_keycode(0, (keypos_t){ .row = r, .col = c })) {
 101               		.loc 1 110 46 is_stmt 0 view .LVU16
 102 002a C501      		movw r24,r10
 103 002c 002E      		mov r0,r16
 104 002e 00C0      		rjmp 2f
 105               		1:
 106 0030 880F      		lsl r24
 107 0032 991F      		rol r25
 108               		2:
 109 0034 0A94      		dec r0
 110 0036 02F4      		brpl 1b
 110:./tmk_core/common/bootmagic.c ****                 if (keycode == keymap_key_to_keycode(0, (keypos_t){ .row = r, .col = c })) {
 111               		.loc 1 110 28 view .LVU17
 112 0038 8C21      		and r24,r12
 113 003a 9D21      		and r25,r13
 110:./tmk_core/common/bootmagic.c ****                 if (keycode == keymap_key_to_keycode(0, (keypos_t){ .row = r, .col = c })) {
 114               		.loc 1 110 16 view .LVU18
 115 003c 892B      		or r24,r25
 116 003e 01F0      		breq .L2
 117               		.loc 1 111 17 is_stmt 1 view .LVU19
 118               	.LBB8:
 119               		.loc 1 111 32 is_stmt 0 view .LVU20
 120 0040 602F      		mov r22,r16
 121 0042 7C2F      		mov r23,r28
 122 0044 80E0      		ldi r24,0
 123 0046 0E94 0000 		call keymap_key_to_keycode
 124               	.LVL6:
 125               		.loc 1 111 20 view .LVU21
 126 004a E816      		cp r14,r24
 127 004c F906      		cpc r15,r25
 128 004e 01F4      		brne .L2
 112:./tmk_core/common/bootmagic.c ****                     return true;
 129               		.loc 1 112 21 is_stmt 1 view .LVU22
 130               		.loc 1 112 28 is_stmt 0 view .LVU23
 131 0050 81E0      		ldi r24,lo8(1)
 132               	.LVL7:
 133               	.L1:
 134               	/* epilogue start */
 135               		.loc 1 112 28 view .LVU24
 136               	.LBE8:
 137               	.LBE10:
 138               	.LBE5:
 139               	.LBE4:
 113:./tmk_core/common/bootmagic.c ****                 }
 114:./tmk_core/common/bootmagic.c ****             }
 115:./tmk_core/common/bootmagic.c ****         }
 116:./tmk_core/common/bootmagic.c ****     }
 117:./tmk_core/common/bootmagic.c ****     return false;
 118:./tmk_core/common/bootmagic.c **** }
 140               		.loc 1 118 1 view .LVU25
 141 0052 CF91      		pop r28
 142               	.LVL8:
 143               		.loc 1 118 1 view .LVU26
 144 0054 1F91      		pop r17
 145 0056 0F91      		pop r16
 146 0058 FF90      		pop r15
 147 005a EF90      		pop r14
 148               	.LVL9:
 149               		.loc 1 118 1 view .LVU27
 150 005c DF90      		pop r13
 151 005e CF90      		pop r12
 152               	.LVL10:
 153               		.loc 1 118 1 view .LVU28
 154 0060 BF90      		pop r11
 155 0062 AF90      		pop r10
 156 0064 0895      		ret
 157               	.LVL11:
 158               	.L2:
 159               	.LBB13:
 160               	.LBB12:
 161               	.LBB11:
 109:./tmk_core/common/bootmagic.c ****             if (matrix_row & ((matrix_row_t)1<<c)) {
 162               		.loc 1 109 46 is_stmt 1 discriminator 2 view .LVU29
 109:./tmk_core/common/bootmagic.c ****             if (matrix_row & ((matrix_row_t)1<<c)) {
 163               		.loc 1 109 29 discriminator 2 view .LVU30
 109:./tmk_core/common/bootmagic.c ****             if (matrix_row & ((matrix_row_t)1<<c)) {
 164               		.loc 1 109 9 is_stmt 0 discriminator 2 view .LVU31
 165 0066 0F5F      		subi r16,-1
 166 0068 1F4F      		sbci r17,-1
 167               	.LVL12:
 109:./tmk_core/common/bootmagic.c ****             if (matrix_row & ((matrix_row_t)1<<c)) {
 168               		.loc 1 109 9 discriminator 2 view .LVU32
 169 006a 0031      		cpi r16,16
 170 006c 1105      		cpc r17,__zero_reg__
 171 006e 01F4      		brne .L5
 172               	.LBE11:
 173               	.LBE12:
 107:./tmk_core/common/bootmagic.c ****         matrix_row_t matrix_row = matrix_get_row(r);
 174               		.loc 1 107 42 is_stmt 1 discriminator 2 view .LVU33
 107:./tmk_core/common/bootmagic.c ****         matrix_row_t matrix_row = matrix_get_row(r);
 175               		.loc 1 107 43 is_stmt 0 discriminator 2 view .LVU34
 176 0070 CF5F      		subi r28,lo8(-(1))
 177               	.LVL13:
 107:./tmk_core/common/bootmagic.c ****         matrix_row_t matrix_row = matrix_get_row(r);
 178               		.loc 1 107 25 is_stmt 1 discriminator 2 view .LVU35
 107:./tmk_core/common/bootmagic.c ****         matrix_row_t matrix_row = matrix_get_row(r);
 179               		.loc 1 107 5 is_stmt 0 discriminator 2 view .LVU36
 180 0072 C830      		cpi r28,lo8(8)
 181 0074 01F4      		brne .L6
 182               	.LBE13:
 117:./tmk_core/common/bootmagic.c **** }
 183               		.loc 1 117 12 view .LVU37
 184 0076 80E0      		ldi r24,0
 185 0078 00C0      		rjmp .L1
 186               		.cfi_endproc
 187               	.LFE104:
 189               		.section	.text.bootmagic_scan_keycode,"ax",@progbits
 190               	.global	bootmagic_scan_keycode
 192               	bootmagic_scan_keycode:
 193               	.LVL14:
 194               	.LFB105:
 119:./tmk_core/common/bootmagic.c **** 
 120:./tmk_core/common/bootmagic.c **** bool bootmagic_scan_keycode(uint8_t keycode)
 121:./tmk_core/common/bootmagic.c **** {
 195               		.loc 1 121 1 is_stmt 1 view -0
 196               		.cfi_startproc
 197               		.loc 1 121 1 is_stmt 0 view .LVU39
 198 0000 CF93      		push r28
 199               	.LCFI9:
 200               		.cfi_def_cfa_offset 3
 201               		.cfi_offset 28, -2
 202               	/* prologue: function */
 203               	/* frame size = 0 */
 204               	/* stack size = 1 */
 205               	.L__stack_usage = 1
 206 0002 C82F      		mov r28,r24
 122:./tmk_core/common/bootmagic.c ****     if (!scan_keycode(BOOTMAGIC_KEY_SALT)) return false;
 207               		.loc 1 122 5 is_stmt 1 view .LVU40
 208               		.loc 1 122 10 is_stmt 0 view .LVU41
 209 0004 8CE2      		ldi r24,lo8(44)
 210               	.LVL15:
 211               		.loc 1 122 10 view .LVU42
 212 0006 0E94 0000 		call scan_keycode
 213               	.LVL16:
 214               		.loc 1 122 8 view .LVU43
 215 000a 8823      		tst r24
 216 000c 01F0      		breq .L12
 123:./tmk_core/common/bootmagic.c **** 
 124:./tmk_core/common/bootmagic.c ****     return scan_keycode(keycode);
 217               		.loc 1 124 5 is_stmt 1 view .LVU44
 218               		.loc 1 124 12 is_stmt 0 view .LVU45
 219 000e 8C2F      		mov r24,r28
 220               	/* epilogue start */
 125:./tmk_core/common/bootmagic.c **** }...
 221               		.loc 1 125 1 view .LVU46
 222 0010 CF91      		pop r28
 223               	.LVL17:
 124:./tmk_core/common/bootmagic.c ****     return scan_keycode(keycode);
 224               		.loc 1 124 12 view .LVU47
 225 0012 0C94 0000 		jmp scan_keycode
 226               	.LVL18:
 227               	.L12:
 228               		.loc 1 125 1 view .LVU48
 229 0016 80E0      		ldi r24,0
 230               	/* epilogue start */
 231 0018 CF91      		pop r28
 232               	.LVL19:
 233               		.loc 1 125 1 view .LVU49
 234 001a 0895      		ret
 235               		.cfi_endproc
 236               	.LFE105:
 238               		.section	.text.bootmagic,"ax",@progbits
 239               	.global	bootmagic
 241               	bootmagic:
 242               	.LFB103:
  16:./tmk_core/common/bootmagic.c **** {
 243               		.loc 1 16 1 is_stmt 1 view -0
 244               		.cfi_startproc
 245 0000 CF93      		push r28
 246               	.LCFI10:
 247               		.cfi_def_cfa_offset 3
 248               		.cfi_offset 28, -2
 249 0002 DF93      		push r29
 250               	.LCFI11:
 251               		.cfi_def_cfa_offset 4
 252               		.cfi_offset 29, -3
 253 0004 00D0      		rcall .
 254 0006 00D0      		rcall .
 255               	.LCFI12:
 256               		.cfi_def_cfa_offset 8
 257 0008 CDB7      		in r28,__SP_L__
 258 000a DEB7      		in r29,__SP_H__
 259               	.LCFI13:
 260               		.cfi_def_cfa_register 28
 261               	/* prologue: function */
 262               	/* frame size = 4 */
 263               	/* stack size = 6 */
 264               	.L__stack_usage = 6
  18:./tmk_core/common/bootmagic.c ****     if (!eeconfig_is_enabled()) {
 265               		.loc 1 18 5 view .LVU51
  18:./tmk_core/common/bootmagic.c ****     if (!eeconfig_is_enabled()) {
 266               		.loc 1 18 10 is_stmt 0 view .LVU52
 267 000c 0E94 0000 		call eeconfig_is_enabled
 268               	.LVL20:
  18:./tmk_core/common/bootmagic.c ****     if (!eeconfig_is_enabled()) {
 269               		.loc 1 18 8 view .LVU53
 270 0010 8111      		cpse r24,__zero_reg__
 271 0012 00C0      		rjmp .L15
  19:./tmk_core/common/bootmagic.c ****         eeconfig_init();
 272               		.loc 1 19 9 is_stmt 1 view .LVU54
 273 0014 0E94 0000 		call eeconfig_init
 274               	.LVL21:
 275               	.L15:
  16:./tmk_core/common/bootmagic.c **** {
 276               		.loc 1 16 1 is_stmt 0 discriminator 1 view .LVU55
 277 0018 95E6      		ldi r25,lo8(101)
 278 001a 9983      		std Y+1,r25
 279 001c 00C0      		rjmp .L16
 280               	.LVL22:
 281               	.L17:
  25:./tmk_core/common/bootmagic.c ****     while (scan--) { matrix_scan(); wait_ms(10); }
 282               		.loc 1 25 22 is_stmt 1 discriminator 2 view .LVU56
 283 001e 0E94 0000 		call matrix_scan
 284               	.LVL23:
  25:./tmk_core/common/bootmagic.c ****     while (scan--) { matrix_scan(); wait_ms(10); }
 285               		.loc 1 25 37 discriminator 2 view .LVU57
 286               	.LBB14:
 287               	.LBI14:
 288               		.file 2 "/usr/avr/include/util/delay.h"
   1:/usr/avr/include/util/delay.h **** /* Copyright (c) 2002, Marek Michalkiewicz
   2:/usr/avr/include/util/delay.h ****    Copyright (c) 2004,2005,2007 Joerg Wunsch
   3:/usr/avr/include/util/delay.h ****    Copyright (c) 2007  Florin-Viorel Petrov
   4:/usr/avr/include/util/delay.h ****    All rights reserved.
   5:/usr/avr/include/util/delay.h **** 
   6:/usr/avr/include/util/delay.h ****    Redistribution and use in source and binary forms, with or without
   7:/usr/avr/include/util/delay.h ****    modification, are permitted provided that the following conditions are met:
   8:/usr/avr/include/util/delay.h **** 
   9:/usr/avr/include/util/delay.h ****    * Redistributions of source code must retain the above copyright
  10:/usr/avr/include/util/delay.h ****      notice, this list of conditions and the following disclaimer.
  11:/usr/avr/include/util/delay.h **** 
  12:/usr/avr/include/util/delay.h ****    * Redistributions in binary form must reproduce the above copyright
  13:/usr/avr/include/util/delay.h ****      notice, this list of conditions and the following disclaimer in
  14:/usr/avr/include/util/delay.h ****      the documentation and/or other materials provided with the
  15:/usr/avr/include/util/delay.h ****      distribution.
  16:/usr/avr/include/util/delay.h **** 
  17:/usr/avr/include/util/delay.h ****    * Neither the name of the copyright holders nor the names of
  18:/usr/avr/include/util/delay.h ****      contributors may be used to endorse or promote products derived
  19:/usr/avr/include/util/delay.h ****      from this software without specific prior written permission.
  20:/usr/avr/include/util/delay.h **** 
  21:/usr/avr/include/util/delay.h ****   THIS SOFTWARE IS PROVIDED BY THE COPYRIGHT HOLDERS AND CONTRIBUTORS "AS IS"
  22:/usr/avr/include/util/delay.h ****   AND ANY EXPRESS OR IMPLIED WARRANTIES, INCLUDING, BUT NOT LIMITED TO, THE
  23:/usr/avr/include/util/delay.h ****   IMPLIED WARRANTIES OF MERCHANTABILITY AND FITNESS FOR A PARTICULAR PURPOSE
  24:/usr/avr/include/util/delay.h ****   ARE DISCLAIMED. IN NO EVENT SHALL THE COPYRIGHT OWNER OR CONTRIBUTORS BE
  25:/usr/avr/include/util/delay.h ****   LIABLE FOR ANY DIRECT, INDIRECT, INCIDENTAL, SPECIAL, EXEMPLARY, OR
  26:/usr/avr/include/util/delay.h ****   CONSEQUENTIAL DAMAGES (INCLUDING, BUT NOT LIMITED TO, PROCUREMENT OF
  27:/usr/avr/include/util/delay.h ****   SUBSTITUTE GOODS OR SERVICES; LOSS OF USE, DATA, OR PROFITS; OR BUSINESS
  28:/usr/avr/include/util/delay.h ****   INTERRUPTION) HOWEVER CAUSED AND ON ANY THEORY OF LIABILITY, WHETHER IN
  29:/usr/avr/include/util/delay.h ****   CONTRACT, STRICT LIABILITY, OR TORT (INCLUDING NEGLIGENCE OR OTHERWISE)
  30:/usr/avr/include/util/delay.h ****   ARISING IN ANY WAY OUT OF THE USE OF THIS SOFTWARE, EVEN IF ADVISED OF THE
  31:/usr/avr/include/util/delay.h ****   POSSIBILITY OF SUCH DAMAGE. */
  32:/usr/avr/include/util/delay.h **** 
  33:/usr/avr/include/util/delay.h **** /* $Id: delay.h.in 2506 2016-02-08 10:05:45Z joerg_wunsch $ */
  34:/usr/avr/include/util/delay.h **** 
  35:/usr/avr/include/util/delay.h **** #ifndef _UTIL_DELAY_H_
  36:/usr/avr/include/util/delay.h **** #define _UTIL_DELAY_H_ 1
  37:/usr/avr/include/util/delay.h **** 
  38:/usr/avr/include/util/delay.h **** #ifndef __DOXYGEN__
  39:/usr/avr/include/util/delay.h **** #  ifndef __HAS_DELAY_CYCLES
  40:/usr/avr/include/util/delay.h **** #    define __HAS_DELAY_CYCLES 1
  41:/usr/avr/include/util/delay.h **** #  endif
  42:/usr/avr/include/util/delay.h **** #endif  /* __DOXYGEN__ */
  43:/usr/avr/include/util/delay.h **** 
  44:/usr/avr/include/util/delay.h **** #include <inttypes.h>
  45:/usr/avr/include/util/delay.h **** #include <util/delay_basic.h>
  46:/usr/avr/include/util/delay.h **** #include <math.h>
  47:/usr/avr/include/util/delay.h **** 
  48:/usr/avr/include/util/delay.h **** /** \file */
  49:/usr/avr/include/util/delay.h **** /** \defgroup util_delay <util/delay.h>: Convenience functions for busy-wait delay loops
  50:/usr/avr/include/util/delay.h ****     \code
  51:/usr/avr/include/util/delay.h ****     #define F_CPU 1000000UL  // 1 MHz
  52:/usr/avr/include/util/delay.h ****     //#define F_CPU 14.7456E6
  53:/usr/avr/include/util/delay.h ****     #include <util/delay.h>
  54:/usr/avr/include/util/delay.h ****     \endcode
  55:/usr/avr/include/util/delay.h **** 
  56:/usr/avr/include/util/delay.h ****     \note As an alternative method, it is possible to pass the
  57:/usr/avr/include/util/delay.h ****     F_CPU macro down to the compiler from the Makefile.
  58:/usr/avr/include/util/delay.h ****     Obviously, in that case, no \c \#define statement should be
  59:/usr/avr/include/util/delay.h ****     used.
  60:/usr/avr/include/util/delay.h **** 
  61:/usr/avr/include/util/delay.h ****     The functions in this header file are wrappers around the basic
  62:/usr/avr/include/util/delay.h ****     busy-wait functions from <util/delay_basic.h>.  They are meant as
  63:/usr/avr/include/util/delay.h ****     convenience functions where actual time values can be specified
  64:/usr/avr/include/util/delay.h ****     rather than a number of cycles to wait for.  The idea behind is
  65:/usr/avr/include/util/delay.h ****     that compile-time constant expressions will be eliminated by
  66:/usr/avr/include/util/delay.h ****     compiler optimization so floating-point expressions can be used
  67:/usr/avr/include/util/delay.h ****     to calculate the number of delay cycles needed based on the CPU
  68:/usr/avr/include/util/delay.h ****     frequency passed by the macro F_CPU.
  69:/usr/avr/include/util/delay.h **** 
  70:/usr/avr/include/util/delay.h ****     \note In order for these functions to work as intended, compiler
  71:/usr/avr/include/util/delay.h ****     optimizations <em>must</em> be enabled, and the delay time
  72:/usr/avr/include/util/delay.h ****     <em>must</em> be an expression that is a known constant at
  73:/usr/avr/include/util/delay.h ****     compile-time.  If these requirements are not met, the resulting
  74:/usr/avr/include/util/delay.h ****     delay will be much longer (and basically unpredictable), and
  75:/usr/avr/include/util/delay.h ****     applications that otherwise do not use floating-point calculations
  76:/usr/avr/include/util/delay.h ****     will experience severe code bloat by the floating-point library
  77:/usr/avr/include/util/delay.h ****     routines linked into the application.
  78:/usr/avr/include/util/delay.h **** 
  79:/usr/avr/include/util/delay.h ****     The functions available allow the specification of microsecond, and
  80:/usr/avr/include/util/delay.h ****     millisecond delays directly, using the application-supplied macro
  81:/usr/avr/include/util/delay.h ****     F_CPU as the CPU clock frequency (in Hertz).
  82:/usr/avr/include/util/delay.h **** 
  83:/usr/avr/include/util/delay.h **** */
  84:/usr/avr/include/util/delay.h **** 
  85:/usr/avr/include/util/delay.h **** #if !defined(__DOXYGEN__)
  86:/usr/avr/include/util/delay.h **** static __inline__ void _delay_us(double __us) __attribute__((__always_inline__));
  87:/usr/avr/include/util/delay.h **** static __inline__ void _delay_ms(double __ms) __attribute__((__always_inline__));
  88:/usr/avr/include/util/delay.h **** #endif
  89:/usr/avr/include/util/delay.h **** 
  90:/usr/avr/include/util/delay.h **** #ifndef F_CPU
  91:/usr/avr/include/util/delay.h **** /* prevent compiler error by supplying a default */
  92:/usr/avr/include/util/delay.h **** # warning "F_CPU not defined for <util/delay.h>"
  93:/usr/avr/include/util/delay.h **** /** \ingroup util_delay
  94:/usr/avr/include/util/delay.h ****     \def F_CPU
  95:/usr/avr/include/util/delay.h ****     \brief CPU frequency in Hz
  96:/usr/avr/include/util/delay.h **** 
  97:/usr/avr/include/util/delay.h ****     The macro F_CPU specifies the CPU frequency to be considered by
  98:/usr/avr/include/util/delay.h ****     the delay macros.  This macro is normally supplied by the
  99:/usr/avr/include/util/delay.h ****     environment (e.g. from within a project header, or the project's
 100:/usr/avr/include/util/delay.h ****     Makefile).  The value 1 MHz here is only provided as a "vanilla"
 101:/usr/avr/include/util/delay.h ****     fallback if no such user-provided definition could be found.
 102:/usr/avr/include/util/delay.h **** 
 103:/usr/avr/include/util/delay.h ****     In terms of the delay functions, the CPU frequency can be given as
 104:/usr/avr/include/util/delay.h ****     a floating-point constant (e.g. 3.6864E6 for 3.6864 MHz).
 105:/usr/avr/include/util/delay.h ****     However, the macros in <util/setbaud.h> require it to be an
 106:/usr/avr/include/util/delay.h ****     integer value.
 107:/usr/avr/include/util/delay.h ****  */
 108:/usr/avr/include/util/delay.h **** # define F_CPU 1000000UL
 109:/usr/avr/include/util/delay.h **** #endif
 110:/usr/avr/include/util/delay.h **** 
 111:/usr/avr/include/util/delay.h **** #ifndef __OPTIMIZE__
 112:/usr/avr/include/util/delay.h **** # warning "Compiler optimizations disabled; functions from <util/delay.h> won't work as designed"
 113:/usr/avr/include/util/delay.h **** #endif
 114:/usr/avr/include/util/delay.h **** 
 115:/usr/avr/include/util/delay.h **** #if __HAS_DELAY_CYCLES && defined(__OPTIMIZE__) && \
 116:/usr/avr/include/util/delay.h ****   !defined(__DELAY_BACKWARD_COMPATIBLE__) &&	   \
 117:/usr/avr/include/util/delay.h ****   __STDC_HOSTED__
 118:/usr/avr/include/util/delay.h **** #  include <math.h>
 119:/usr/avr/include/util/delay.h **** #endif
 120:/usr/avr/include/util/delay.h **** 
 121:/usr/avr/include/util/delay.h **** /**
 122:/usr/avr/include/util/delay.h ****    \ingroup util_delay
 123:/usr/avr/include/util/delay.h **** 
 124:/usr/avr/include/util/delay.h ****    Perform a delay of \c __ms milliseconds, using _delay_loop_2().
 125:/usr/avr/include/util/delay.h **** 
 126:/usr/avr/include/util/delay.h ****    The macro F_CPU is supposed to be defined to a
 127:/usr/avr/include/util/delay.h ****    constant defining the CPU clock frequency (in Hertz).
 128:/usr/avr/include/util/delay.h **** 
 129:/usr/avr/include/util/delay.h ****    The maximal possible delay is 262.14 ms / F_CPU in MHz.
 130:/usr/avr/include/util/delay.h **** 
 131:/usr/avr/include/util/delay.h ****    When the user request delay which exceed the maximum possible one,
 132:/usr/avr/include/util/delay.h ****    _delay_ms() provides a decreased resolution functionality. In this
 133:/usr/avr/include/util/delay.h ****    mode _delay_ms() will work with a resolution of 1/10 ms, providing
 134:/usr/avr/include/util/delay.h ****    delays up to 6.5535 seconds (independent from CPU frequency).  The
 135:/usr/avr/include/util/delay.h ****    user will not be informed about decreased resolution.
 136:/usr/avr/include/util/delay.h **** 
 137:/usr/avr/include/util/delay.h ****    If the avr-gcc toolchain has __builtin_avr_delay_cycles()
 138:/usr/avr/include/util/delay.h ****    support, maximal possible delay is 4294967.295 ms/ F_CPU in MHz. For
 139:/usr/avr/include/util/delay.h ****    values greater than the maximal possible delay, overflows results in
 140:/usr/avr/include/util/delay.h ****    no delay i.e., 0ms.
 141:/usr/avr/include/util/delay.h **** 
 142:/usr/avr/include/util/delay.h ****    Conversion of \c __ms into clock cycles may not always result in
 143:/usr/avr/include/util/delay.h ****    integer.  By default, the clock cycles rounded up to next
 144:/usr/avr/include/util/delay.h ****    integer. This ensures that the user gets at least \c __ms
 145:/usr/avr/include/util/delay.h ****    microseconds of delay.
 146:/usr/avr/include/util/delay.h **** 
 147:/usr/avr/include/util/delay.h ****    Alternatively, by defining the macro \c __DELAY_ROUND_DOWN__, or
 148:/usr/avr/include/util/delay.h ****    \c __DELAY_ROUND_CLOSEST__, before including this header file, the
 149:/usr/avr/include/util/delay.h ****    algorithm can be made to round down, or round to closest integer,
 150:/usr/avr/include/util/delay.h ****    respectively.
 151:/usr/avr/include/util/delay.h **** 
 152:/usr/avr/include/util/delay.h ****    \note
 153:/usr/avr/include/util/delay.h **** 
 154:/usr/avr/include/util/delay.h ****    The implementation of _delay_ms() based on
 155:/usr/avr/include/util/delay.h ****    __builtin_avr_delay_cycles() is not backward compatible with older
 156:/usr/avr/include/util/delay.h ****    implementations.  In order to get functionality backward compatible
 157:/usr/avr/include/util/delay.h ****    with previous versions, the macro \c "__DELAY_BACKWARD_COMPATIBLE__"
 158:/usr/avr/include/util/delay.h ****    must be defined before including this header file. Also, the
 159:/usr/avr/include/util/delay.h ****    backward compatible algorithm will be chosen if the code is
 160:/usr/avr/include/util/delay.h ****    compiled in a <em>freestanding environment</em> (GCC option
 161:/usr/avr/include/util/delay.h ****    \c -ffreestanding), as the math functions required for rounding are
 162:/usr/avr/include/util/delay.h ****    not available to the compiler then.
 163:/usr/avr/include/util/delay.h **** 
 164:/usr/avr/include/util/delay.h ****  */
 165:/usr/avr/include/util/delay.h **** void
 166:/usr/avr/include/util/delay.h **** _delay_ms(double __ms)
 289               		.loc 2 166 1 discriminator 2 view .LVU58
 290               	.LBB15:
 167:/usr/avr/include/util/delay.h **** {
 168:/usr/avr/include/util/delay.h **** 	double __tmp ;
 291               		.loc 2 168 2 discriminator 2 view .LVU59
 169:/usr/avr/include/util/delay.h **** #if __HAS_DELAY_CYCLES && defined(__OPTIMIZE__) && \
 170:/usr/avr/include/util/delay.h ****   !defined(__DELAY_BACKWARD_COMPATIBLE__) &&	   \
 171:/usr/avr/include/util/delay.h ****   __STDC_HOSTED__
 172:/usr/avr/include/util/delay.h **** 	uint32_t __ticks_dc;
 292               		.loc 2 172 2 discriminator 2 view .LVU60
 173:/usr/avr/include/util/delay.h **** 	extern void __builtin_avr_delay_cycles(unsigned long);
 293               		.loc 2 173 2 discriminator 2 view .LVU61
 174:/usr/avr/include/util/delay.h **** 	__tmp = ((F_CPU) / 1e3) * __ms;
 294               		.loc 2 174 2 discriminator 2 view .LVU62
 175:/usr/avr/include/util/delay.h **** 
 176:/usr/avr/include/util/delay.h **** 	#if defined(__DELAY_ROUND_DOWN__)
 177:/usr/avr/include/util/delay.h **** 		__ticks_dc = (uint32_t)fabs(__tmp);
 178:/usr/avr/include/util/delay.h **** 
 179:/usr/avr/include/util/delay.h **** 	#elif defined(__DELAY_ROUND_CLOSEST__)
 180:/usr/avr/include/util/delay.h **** 		__ticks_dc = (uint32_t)(fabs(__tmp)+0.5);
 181:/usr/avr/include/util/delay.h **** 
 182:/usr/avr/include/util/delay.h **** 	#else
 183:/usr/avr/include/util/delay.h **** 		//round up by default
 184:/usr/avr/include/util/delay.h **** 		__ticks_dc = (uint32_t)(ceil(fabs(__tmp)));
 295               		.loc 2 184 3 discriminator 2 view .LVU63
 185:/usr/avr/include/util/delay.h **** 	#endif
 186:/usr/avr/include/util/delay.h **** 
 187:/usr/avr/include/util/delay.h **** 	__builtin_avr_delay_cycles(__ticks_dc);
 296               		.loc 2 187 2 discriminator 2 view .LVU64
 297 0022 8FE3      		ldi r24,lo8(-25537)
 298 0024 9CE9      		ldi r25,hi8(-25537)
 299 0026 0197      	1:	sbiw r24,1
 300 0028 01F4      		brne 1b
 301 002a 00C0      		rjmp .
 302 002c 0000      		nop
 303               	.LVL24:
 304               	.L16:
 305               		.loc 2 187 2 is_stmt 0 discriminator 2 view .LVU65
 306               	.LBE15:
 307               	.LBE14:
  25:./tmk_core/common/bootmagic.c ****     while (scan--) { matrix_scan(); wait_ms(10); }
 308               		.loc 1 25 11 is_stmt 1 discriminator 1 view .LVU66
  25:./tmk_core/common/bootmagic.c ****     while (scan--) { matrix_scan(); wait_ms(10); }
 309               		.loc 1 25 11 is_stmt 0 discriminator 1 view .LVU67
 310 002e A981      		ldd r26,Y+1
 311 0030 A150      		subi r26,lo8(-(-1))
 312 0032 A983      		std Y+1,r26
 313               	.LVL25:
  25:./tmk_core/common/bootmagic.c ****     while (scan--) { matrix_scan(); wait_ms(10); }
 314               		.loc 1 25 11 discriminator 1 view .LVU68
 315 0034 A111      		cpse r26,__zero_reg__
 316 0036 00C0      		rjmp .L17
  26:./tmk_core/common/bootmagic.c ****     print("done.\n");
 317               		.loc 1 26 21 is_stmt 1 view .LVU69
  29:./tmk_core/common/bootmagic.c ****     if (bootmagic_scan_keycode(BOOTMAGIC_KEY_SKIP)) {
 318               		.loc 1 29 5 view .LVU70
  29:./tmk_core/common/bootmagic.c ****     if (bootmagic_scan_keycode(BOOTMAGIC_KEY_SKIP)) {
 319               		.loc 1 29 9 is_stmt 0 view .LVU71
 320 0038 89E2      		ldi r24,lo8(41)
 321 003a 0E94 0000 		call bootmagic_scan_keycode
 322               	.LVL26:
  29:./tmk_core/common/bootmagic.c ****     if (bootmagic_scan_keycode(BOOTMAGIC_KEY_SKIP)) {
 323               		.loc 1 29 8 view .LVU72
 324 003e 8111      		cpse r24,__zero_reg__
 325 0040 00C0      		rjmp .L14
  34:./tmk_core/common/bootmagic.c ****     if (bootmagic_scan_keycode(BOOTMAGIC_KEY_EEPROM_CLEAR)) {
 326               		.loc 1 34 5 is_stmt 1 view .LVU73
  34:./tmk_core/common/bootmagic.c ****     if (bootmagic_scan_keycode(BOOTMAGIC_KEY_EEPROM_CLEAR)) {
 327               		.loc 1 34 9 is_stmt 0 view .LVU74
 328 0042 8AE2      		ldi r24,lo8(42)
 329 0044 0E94 0000 		call bootmagic_scan_keycode
 330               	.LVL27:
  34:./tmk_core/common/bootmagic.c ****     if (bootmagic_scan_keycode(BOOTMAGIC_KEY_EEPROM_CLEAR)) {
 331               		.loc 1 34 8 view .LVU75
 332 0048 8111      		cpse r24,__zero_reg__
  35:./tmk_core/common/bootmagic.c ****         eeconfig_init();
 333               		.loc 1 35 9 is_stmt 1 view .LVU76
 334 004a 0E94 0000 		call eeconfig_init
 335               	.LVL28:
 336               	.L19:
  39:./tmk_core/common/bootmagic.c ****     if (bootmagic_scan_keycode(BOOTMAGIC_KEY_BOOTLOADER)) {
 337               		.loc 1 39 5 view .LVU77
  39:./tmk_core/common/bootmagic.c ****     if (bootmagic_scan_keycode(BOOTMAGIC_KEY_BOOTLOADER)) {
 338               		.loc 1 39 9 is_stmt 0 view .LVU78
 339 004e 85E0      		ldi r24,lo8(5)
 340 0050 0E94 0000 		call bootmagic_scan_keycode
 341               	.LVL29:
  39:./tmk_core/common/bootmagic.c ****     if (bootmagic_scan_keycode(BOOTMAGIC_KEY_BOOTLOADER)) {
 342               		.loc 1 39 8 view .LVU79
 343 0054 8111      		cpse r24,__zero_reg__
  40:./tmk_core/common/bootmagic.c ****         bootloader_jump();
 344               		.loc 1 40 9 is_stmt 1 view .LVU80
 345 0056 0E94 0000 		call bootloader_jump
 346               	.LVL30:
 347               	.L20:
  44:./tmk_core/common/bootmagic.c ****     debug_config.raw = eeconfig_read_debug();
 348               		.loc 1 44 5 view .LVU81
  44:./tmk_core/common/bootmagic.c ****     debug_config.raw = eeconfig_read_debug();
 349               		.loc 1 44 24 is_stmt 0 view .LVU82
 350 005a 0E94 0000 		call eeconfig_read_debug
 351               	.LVL31:
  44:./tmk_core/common/bootmagic.c ****     debug_config.raw = eeconfig_read_debug();
 352               		.loc 1 44 22 view .LVU83
 353 005e 8093 0000 		sts debug_config,r24
  45:./tmk_core/common/bootmagic.c ****     if (bootmagic_scan_keycode(BOOTMAGIC_KEY_DEBUG_ENABLE)) {
 354               		.loc 1 45 5 is_stmt 1 view .LVU84
  45:./tmk_core/common/bootmagic.c ****     if (bootmagic_scan_keycode(BOOTMAGIC_KEY_DEBUG_ENABLE)) {
 355               		.loc 1 45 9 is_stmt 0 view .LVU85
 356 0062 87E0      		ldi r24,lo8(7)
 357 0064 0E94 0000 		call bootmagic_scan_keycode
 358               	.LVL32:
  45:./tmk_core/common/bootmagic.c ****     if (bootmagic_scan_keycode(BOOTMAGIC_KEY_DEBUG_ENABLE)) {
 359               		.loc 1 45 8 view .LVU86
 360 0068 8823      		tst r24
 361 006a 01F0      		breq .L21
  46:./tmk_core/common/bootmagic.c ****         if (bootmagic_scan_keycode(BOOTMAGIC_KEY_DEBUG_MATRIX)) {
 362               		.loc 1 46 9 is_stmt 1 view .LVU87
  46:./tmk_core/common/bootmagic.c ****         if (bootmagic_scan_keycode(BOOTMAGIC_KEY_DEBUG_MATRIX)) {
 363               		.loc 1 46 13 is_stmt 0 view .LVU88
 364 006c 8BE1      		ldi r24,lo8(27)
 365 006e 0E94 0000 		call bootmagic_scan_keycode
 366               	.LVL33:
  46:./tmk_core/common/bootmagic.c ****         if (bootmagic_scan_keycode(BOOTMAGIC_KEY_DEBUG_MATRIX)) {
 367               		.loc 1 46 12 view .LVU89
 368 0072 8823      		tst r24
 369 0074 01F4      		brne .+2
 370 0076 00C0      		rjmp .L22
  47:./tmk_core/common/bootmagic.c ****             debug_config.matrix = !debug_config.matrix;
 371               		.loc 1 47 13 is_stmt 1 view .LVU90
  47:./tmk_core/common/bootmagic.c ****             debug_config.matrix = !debug_config.matrix;
 372               		.loc 1 47 48 is_stmt 0 view .LVU91
 373 0078 9091 0000 		lds r25,debug_config
  47:./tmk_core/common/bootmagic.c ****             debug_config.matrix = !debug_config.matrix;
 374               		.loc 1 47 33 view .LVU92
 375 007c 892F      		mov r24,r25
 376 007e 8D7F      		andi r24,~(1<<1)
 377 0080 91FF      		sbrs r25,1
 378 0082 8260      		ori r24,1<<1
 379               	.L93:
  53:./tmk_core/common/bootmagic.c ****             debug_config.enable = !debug_config.enable;
 380               		.loc 1 53 33 view .LVU93
 381 0084 8093 0000 		sts debug_config,r24
 382               	.LVL34:
 383               	.L21:
  56:./tmk_core/common/bootmagic.c ****     eeconfig_update_debug(debug_config.raw);
 384               		.loc 1 56 5 is_stmt 1 view .LVU94
 385 0088 8091 0000 		lds r24,debug_config
 386 008c 0E94 0000 		call eeconfig_update_debug
 387               	.LVL35:
  59:./tmk_core/common/bootmagic.c ****     keymap_config.raw = eeconfig_read_keymap();
 388               		.loc 1 59 5 view .LVU95
  59:./tmk_core/common/bootmagic.c ****     keymap_config.raw = eeconfig_read_keymap();
 389               		.loc 1 59 25 is_stmt 0 view .LVU96
 390 0090 0E94 0000 		call eeconfig_read_keymap
 391               	.LVL36:
 392 0094 90E0      		ldi r25,0
 393 0096 9093 0000 		sts keymap_config+1,r25
 394 009a 8093 0000 		sts keymap_config,r24
  60:./tmk_core/common/bootmagic.c ****     if (bootmagic_scan_keycode(BOOTMAGIC_KEY_SWAP_CONTROL_CAPSLOCK)) {
 395               		.loc 1 60 5 is_stmt 1 view .LVU97
  60:./tmk_core/common/bootmagic.c ****     if (bootmagic_scan_keycode(BOOTMAGIC_KEY_SWAP_CONTROL_CAPSLOCK)) {
 396               		.loc 1 60 9 is_stmt 0 view .LVU98
 397 009e 80EE      		ldi r24,lo8(-32)
 398 00a0 0E94 0000 		call bootmagic_scan_keycode
 399               	.LVL37:
  60:./tmk_core/common/bootmagic.c ****     if (bootmagic_scan_keycode(BOOTMAGIC_KEY_SWAP_CONTROL_CAPSLOCK)) {
 400               		.loc 1 60 8 view .LVU99
 401 00a4 8823      		tst r24
 402 00a6 01F0      		breq .L25
  61:./tmk_core/common/bootmagic.c ****         keymap_config.swap_control_capslock = !keymap_config.swap_control_capslock;
 403               		.loc 1 61 9 is_stmt 1 view .LVU100
  61:./tmk_core/common/bootmagic.c ****         keymap_config.swap_control_capslock = !keymap_config.swap_control_capslock;
 404               		.loc 1 61 61 is_stmt 0 view .LVU101
 405 00a8 9091 0000 		lds r25,keymap_config
  61:./tmk_core/common/bootmagic.c ****         keymap_config.swap_control_capslock = !keymap_config.swap_control_capslock;
 406               		.loc 1 61 45 view .LVU102
 407 00ac 892F      		mov r24,r25
 408 00ae 8E7F      		andi r24,~(1<<0)
 409 00b0 90FF      		sbrs r25,0
 410 00b2 8160      		ori r24,1<<0
 411 00b4 8093 0000 		sts keymap_config,r24
 412               	.L25:
  63:./tmk_core/common/bootmagic.c ****     if (bootmagic_scan_keycode(BOOTMAGIC_KEY_CAPSLOCK_TO_CONTROL)) {
 413               		.loc 1 63 5 is_stmt 1 view .LVU103
  63:./tmk_core/common/bootmagic.c ****     if (bootmagic_scan_keycode(BOOTMAGIC_KEY_CAPSLOCK_TO_CONTROL)) {
 414               		.loc 1 63 9 is_stmt 0 view .LVU104
 415 00b8 89E3      		ldi r24,lo8(57)
 416 00ba 0E94 0000 		call bootmagic_scan_keycode
 417               	.LVL38:
  63:./tmk_core/common/bootmagic.c ****     if (bootmagic_scan_keycode(BOOTMAGIC_KEY_CAPSLOCK_TO_CONTROL)) {
 418               		.loc 1 63 8 view .LVU105
 419 00be 8823      		tst r24
 420 00c0 01F0      		breq .L26
  64:./tmk_core/common/bootmagic.c ****         keymap_config.capslock_to_control = !keymap_config.capslock_to_control;
 421               		.loc 1 64 9 is_stmt 1 view .LVU106
  64:./tmk_core/common/bootmagic.c ****         keymap_config.capslock_to_control = !keymap_config.capslock_to_control;
 422               		.loc 1 64 59 is_stmt 0 view .LVU107
 423 00c2 9091 0000 		lds r25,keymap_config
  64:./tmk_core/common/bootmagic.c ****         keymap_config.capslock_to_control = !keymap_config.capslock_to_control;
 424               		.loc 1 64 43 view .LVU108
 425 00c6 892F      		mov r24,r25
 426 00c8 8D7F      		andi r24,~(1<<1)
 427 00ca 91FF      		sbrs r25,1
 428 00cc 8260      		ori r24,1<<1
 429 00ce 8093 0000 		sts keymap_config,r24
 430               	.L26:
  66:./tmk_core/common/bootmagic.c ****     if (bootmagic_scan_keycode(BOOTMAGIC_KEY_SWAP_LALT_LGUI)) {
 431               		.loc 1 66 5 is_stmt 1 view .LVU109
  66:./tmk_core/common/bootmagic.c ****     if (bootmagic_scan_keycode(BOOTMAGIC_KEY_SWAP_LALT_LGUI)) {
 432               		.loc 1 66 9 is_stmt 0 view .LVU110
 433 00d2 82EE      		ldi r24,lo8(-30)
 434 00d4 0E94 0000 		call bootmagic_scan_keycode
 435               	.LVL39:
  66:./tmk_core/common/bootmagic.c ****     if (bootmagic_scan_keycode(BOOTMAGIC_KEY_SWAP_LALT_LGUI)) {
 436               		.loc 1 66 8 view .LVU111
 437 00d8 8823      		tst r24
 438 00da 01F0      		breq .L27
  67:./tmk_core/common/bootmagic.c ****         keymap_config.swap_lalt_lgui = !keymap_config.swap_lalt_lgui;
 439               		.loc 1 67 9 is_stmt 1 view .LVU112
  67:./tmk_core/common/bootmagic.c ****         keymap_config.swap_lalt_lgui = !keymap_config.swap_lalt_lgui;
 440               		.loc 1 67 54 is_stmt 0 view .LVU113
 441 00dc 9091 0000 		lds r25,keymap_config
  67:./tmk_core/common/bootmagic.c ****         keymap_config.swap_lalt_lgui = !keymap_config.swap_lalt_lgui;
 442               		.loc 1 67 38 view .LVU114
 443 00e0 892F      		mov r24,r25
 444 00e2 8B7F      		andi r24,~(1<<2)
 445 00e4 92FF      		sbrs r25,2
 446 00e6 8460      		ori r24,1<<2
 447 00e8 8093 0000 		sts keymap_config,r24
 448               	.L27:
  69:./tmk_core/common/bootmagic.c ****     if (bootmagic_scan_keycode(BOOTMAGIC_KEY_SWAP_RALT_RGUI)) {
 449               		.loc 1 69 5 is_stmt 1 view .LVU115
  69:./tmk_core/common/bootmagic.c ****     if (bootmagic_scan_keycode(BOOTMAGIC_KEY_SWAP_RALT_RGUI)) {
 450               		.loc 1 69 9 is_stmt 0 view .LVU116
 451 00ec 86EE      		ldi r24,lo8(-26)
 452 00ee 0E94 0000 		call bootmagic_scan_keycode
 453               	.LVL40:
  69:./tmk_core/common/bootmagic.c ****     if (bootmagic_scan_keycode(BOOTMAGIC_KEY_SWAP_RALT_RGUI)) {
 454               		.loc 1 69 8 view .LVU117
 455 00f2 8823      		tst r24
 456 00f4 01F0      		breq .L28
  70:./tmk_core/common/bootmagic.c ****         keymap_config.swap_ralt_rgui = !keymap_config.swap_ralt_rgui;
 457               		.loc 1 70 9 is_stmt 1 view .LVU118
  70:./tmk_core/common/bootmagic.c ****         keymap_config.swap_ralt_rgui = !keymap_config.swap_ralt_rgui;
 458               		.loc 1 70 54 is_stmt 0 view .LVU119
 459 00f6 9091 0000 		lds r25,keymap_config
  70:./tmk_core/common/bootmagic.c ****         keymap_config.swap_ralt_rgui = !keymap_config.swap_ralt_rgui;
 460               		.loc 1 70 38 view .LVU120
 461 00fa 892F      		mov r24,r25
 462 00fc 877F      		andi r24,~(1<<3)
 463 00fe 93FF      		sbrs r25,3
 464 0100 8860      		ori r24,1<<3
 465 0102 8093 0000 		sts keymap_config,r24
 466               	.L28:
  72:./tmk_core/common/bootmagic.c ****     if (bootmagic_scan_keycode(BOOTMAGIC_KEY_NO_GUI)) {
 467               		.loc 1 72 5 is_stmt 1 view .LVU121
  72:./tmk_core/common/bootmagic.c ****     if (bootmagic_scan_keycode(BOOTMAGIC_KEY_NO_GUI)) {
 468               		.loc 1 72 9 is_stmt 0 view .LVU122
 469 0106 83EE      		ldi r24,lo8(-29)
 470 0108 0E94 0000 		call bootmagic_scan_keycode
 471               	.LVL41:
  72:./tmk_core/common/bootmagic.c ****     if (bootmagic_scan_keycode(BOOTMAGIC_KEY_NO_GUI)) {
 472               		.loc 1 72 8 view .LVU123
 473 010c 8823      		tst r24
 474 010e 01F0      		breq .L29
  73:./tmk_core/common/bootmagic.c ****         keymap_config.no_gui = !keymap_config.no_gui;
 475               		.loc 1 73 9 is_stmt 1 view .LVU124
  73:./tmk_core/common/bootmagic.c ****         keymap_config.no_gui = !keymap_config.no_gui;
 476               		.loc 1 73 46 is_stmt 0 view .LVU125
 477 0110 9091 0000 		lds r25,keymap_config
  73:./tmk_core/common/bootmagic.c ****         keymap_config.no_gui = !keymap_config.no_gui;
 478               		.loc 1 73 30 view .LVU126
 479 0114 892F      		mov r24,r25
 480 0116 8F7E      		andi r24,~(1<<4)
 481 0118 94FF      		sbrs r25,4
 482 011a 8061      		ori r24,1<<4
 483 011c 8093 0000 		sts keymap_config,r24
 484               	.L29:
  75:./tmk_core/common/bootmagic.c ****     if (bootmagic_scan_keycode(BOOTMAGIC_KEY_SWAP_GRAVE_ESC)) {
 485               		.loc 1 75 5 is_stmt 1 view .LVU127
  75:./tmk_core/common/bootmagic.c ****     if (bootmagic_scan_keycode(BOOTMAGIC_KEY_SWAP_GRAVE_ESC)) {
 486               		.loc 1 75 9 is_stmt 0 view .LVU128
 487 0120 85E3      		ldi r24,lo8(53)
 488 0122 0E94 0000 		call bootmagic_scan_keycode
 489               	.LVL42:
  75:./tmk_core/common/bootmagic.c ****     if (bootmagic_scan_keycode(BOOTMAGIC_KEY_SWAP_GRAVE_ESC)) {
 490               		.loc 1 75 8 view .LVU129
 491 0126 8823      		tst r24
 492 0128 01F0      		breq .L30
  76:./tmk_core/common/bootmagic.c ****         keymap_config.swap_grave_esc = !keymap_config.swap_grave_esc;
 493               		.loc 1 76 9 is_stmt 1 view .LVU130
  76:./tmk_core/common/bootmagic.c ****         keymap_config.swap_grave_esc = !keymap_config.swap_grave_esc;
 494               		.loc 1 76 54 is_stmt 0 view .LVU131
 495 012a 9091 0000 		lds r25,keymap_config
  76:./tmk_core/common/bootmagic.c ****         keymap_config.swap_grave_esc = !keymap_config.swap_grave_esc;
 496               		.loc 1 76 38 view .LVU132
 497 012e 892F      		mov r24,r25
 498 0130 8F7D      		andi r24,~(1<<5)
 499 0132 95FF      		sbrs r25,5
 500 0134 8062      		ori r24,1<<5
 501 0136 8093 0000 		sts keymap_config,r24
 502               	.L30:
  78:./tmk_core/common/bootmagic.c ****     if (bootmagic_scan_keycode(BOOTMAGIC_KEY_SWAP_BACKSLASH_BACKSPACE)) {
 503               		.loc 1 78 5 is_stmt 1 view .LVU133
  78:./tmk_core/common/bootmagic.c ****     if (bootmagic_scan_keycode(BOOTMAGIC_KEY_SWAP_BACKSLASH_BACKSPACE)) {
 504               		.loc 1 78 9 is_stmt 0 view .LVU134
 505 013a 81E3      		ldi r24,lo8(49)
 506 013c 0E94 0000 		call bootmagic_scan_keycode
 507               	.LVL43:
  78:./tmk_core/common/bootmagic.c ****     if (bootmagic_scan_keycode(BOOTMAGIC_KEY_SWAP_BACKSLASH_BACKSPACE)) {
 508               		.loc 1 78 8 view .LVU135
 509 0140 8823      		tst r24
 510 0142 01F0      		breq .L31
  79:./tmk_core/common/bootmagic.c ****         keymap_config.swap_backslash_backspace = !keymap_config.swap_backslash_backspace;
 511               		.loc 1 79 9 is_stmt 1 view .LVU136
  79:./tmk_core/common/bootmagic.c ****         keymap_config.swap_backslash_backspace = !keymap_config.swap_backslash_backspace;
 512               		.loc 1 79 64 is_stmt 0 view .LVU137
 513 0144 9091 0000 		lds r25,keymap_config
  79:./tmk_core/common/bootmagic.c ****         keymap_config.swap_backslash_backspace = !keymap_config.swap_backslash_backspace;
 514               		.loc 1 79 48 view .LVU138
 515 0148 892F      		mov r24,r25
 516 014a 8F7B      		andi r24,~(1<<6)
 517 014c 96FF      		sbrs r25,6
 518 014e 8064      		ori r24,1<<6
 519 0150 8093 0000 		sts keymap_config,r24
 520               	.L31:
  81:./tmk_core/common/bootmagic.c ****     if (bootmagic_scan_keycode(BOOTMAGIC_HOST_NKRO)) {
 521               		.loc 1 81 5 is_stmt 1 view .LVU139
  81:./tmk_core/common/bootmagic.c ****     if (bootmagic_scan_keycode(BOOTMAGIC_HOST_NKRO)) {
 522               		.loc 1 81 9 is_stmt 0 view .LVU140
 523 0154 81E1      		ldi r24,lo8(17)
 524 0156 0E94 0000 		call bootmagic_scan_keycode
 525               	.LVL44:
  81:./tmk_core/common/bootmagic.c ****     if (bootmagic_scan_keycode(BOOTMAGIC_HOST_NKRO)) {
 526               		.loc 1 81 8 view .LVU141
 527 015a 8823      		tst r24
 528 015c 01F0      		breq .L32
  82:./tmk_core/common/bootmagic.c ****         keymap_config.nkro = !keymap_config.nkro;
 529               		.loc 1 82 9 is_stmt 1 view .LVU142
  82:./tmk_core/common/bootmagic.c ****         keymap_config.nkro = !keymap_config.nkro;
 530               		.loc 1 82 44 is_stmt 0 view .LVU143
 531 015e 9091 0000 		lds r25,keymap_config
  82:./tmk_core/common/bootmagic.c ****         keymap_config.nkro = !keymap_config.nkro;
 532               		.loc 1 82 28 view .LVU144
 533 0162 892F      		mov r24,r25
 534 0164 97FB      		bst r25,7
 535 0166 87F9      		bld r24,7
 536 0168 8058      		subi r24,0x80
 537 016a 8093 0000 		sts keymap_config,r24
 538               	.L32:
  84:./tmk_core/common/bootmagic.c ****     eeconfig_update_keymap(keymap_config.raw);
 539               		.loc 1 84 5 is_stmt 1 view .LVU145
 540 016e 8091 0000 		lds r24,keymap_config
 541 0172 0E94 0000 		call eeconfig_update_keymap
 542               	.LVL45:
  87:./tmk_core/common/bootmagic.c ****     uint8_t default_layer = 0;
 543               		.loc 1 87 5 view .LVU146
  88:./tmk_core/common/bootmagic.c ****     if (bootmagic_scan_keycode(BOOTMAGIC_KEY_DEFAULT_LAYER_0)) { default_layer |= (1<<0); }
 544               		.loc 1 88 5 view .LVU147
  88:./tmk_core/common/bootmagic.c ****     if (bootmagic_scan_keycode(BOOTMAGIC_KEY_DEFAULT_LAYER_0)) { default_layer |= (1<<0); }
 545               		.loc 1 88 9 is_stmt 0 view .LVU148
 546 0176 87E2      		ldi r24,lo8(39)
 547 0178 0E94 0000 		call bootmagic_scan_keycode
 548               	.LVL46:
 549 017c 8983      		std Y+1,r24
 550               	.LVL47:
  89:./tmk_core/common/bootmagic.c ****     if (bootmagic_scan_keycode(BOOTMAGIC_KEY_DEFAULT_LAYER_1)) { default_layer |= (1<<1); }
 551               		.loc 1 89 5 is_stmt 1 view .LVU149
  89:./tmk_core/common/bootmagic.c ****     if (bootmagic_scan_keycode(BOOTMAGIC_KEY_DEFAULT_LAYER_1)) { default_layer |= (1<<1); }
 552               		.loc 1 89 9 is_stmt 0 view .LVU150
 553 017e 8EE1      		ldi r24,lo8(30)
 554               	.LVL48:
  89:./tmk_core/common/bootmagic.c ****     if (bootmagic_scan_keycode(BOOTMAGIC_KEY_DEFAULT_LAYER_1)) { default_layer |= (1<<1); }
 555               		.loc 1 89 9 view .LVU151
 556 0180 0E94 0000 		call bootmagic_scan_keycode
 557               	.LVL49:
  89:./tmk_core/common/bootmagic.c ****     if (bootmagic_scan_keycode(BOOTMAGIC_KEY_DEFAULT_LAYER_1)) { default_layer |= (1<<1); }
 558               		.loc 1 89 8 view .LVU152
 559 0184 8823      		tst r24
 560 0186 01F0      		breq .L33
  89:./tmk_core/common/bootmagic.c ****     if (bootmagic_scan_keycode(BOOTMAGIC_KEY_DEFAULT_LAYER_1)) { default_layer |= (1<<1); }
 561               		.loc 1 89 66 is_stmt 1 discriminator 1 view .LVU153
  89:./tmk_core/common/bootmagic.c ****     if (bootmagic_scan_keycode(BOOTMAGIC_KEY_DEFAULT_LAYER_1)) { default_layer |= (1<<1); }
 562               		.loc 1 89 80 is_stmt 0 discriminator 1 view .LVU154
 563 0188 B981      		ldd r27,Y+1
 564 018a B260      		ori r27,lo8(2)
 565 018c B983      		std Y+1,r27
 566               	.LVL50:
 567               	.L33:
  90:./tmk_core/common/bootmagic.c ****     if (bootmagic_scan_keycode(BOOTMAGIC_KEY_DEFAULT_LAYER_2)) { default_layer |= (1<<2); }
 568               		.loc 1 90 5 is_stmt 1 view .LVU155
  90:./tmk_core/common/bootmagic.c ****     if (bootmagic_scan_keycode(BOOTMAGIC_KEY_DEFAULT_LAYER_2)) { default_layer |= (1<<2); }
 569               		.loc 1 90 9 is_stmt 0 view .LVU156
 570 018e 8FE1      		ldi r24,lo8(31)
 571 0190 0E94 0000 		call bootmagic_scan_keycode
 572               	.LVL51:
  90:./tmk_core/common/bootmagic.c ****     if (bootmagic_scan_keycode(BOOTMAGIC_KEY_DEFAULT_LAYER_2)) { default_layer |= (1<<2); }
 573               		.loc 1 90 8 view .LVU157
 574 0194 8823      		tst r24
 575 0196 01F0      		breq .L34
  90:./tmk_core/common/bootmagic.c ****     if (bootmagic_scan_keycode(BOOTMAGIC_KEY_DEFAULT_LAYER_2)) { default_layer |= (1<<2); }
 576               		.loc 1 90 66 is_stmt 1 discriminator 1 view .LVU158
  90:./tmk_core/common/bootmagic.c ****     if (bootmagic_scan_keycode(BOOTMAGIC_KEY_DEFAULT_LAYER_2)) { default_layer |= (1<<2); }
 577               		.loc 1 90 80 is_stmt 0 discriminator 1 view .LVU159
 578 0198 2981      		ldd r18,Y+1
 579 019a 2460      		ori r18,lo8(4)
 580 019c 2983      		std Y+1,r18
 581               	.LVL52:
 582               	.L34:
  91:./tmk_core/common/bootmagic.c ****     if (bootmagic_scan_keycode(BOOTMAGIC_KEY_DEFAULT_LAYER_3)) { default_layer |= (1<<3); }
 583               		.loc 1 91 5 is_stmt 1 view .LVU160
  91:./tmk_core/common/bootmagic.c ****     if (bootmagic_scan_keycode(BOOTMAGIC_KEY_DEFAULT_LAYER_3)) { default_layer |= (1<<3); }
 584               		.loc 1 91 9 is_stmt 0 view .LVU161
 585 019e 80E2      		ldi r24,lo8(32)
 586 01a0 0E94 0000 		call bootmagic_scan_keycode
 587               	.LVL53:
  91:./tmk_core/common/bootmagic.c ****     if (bootmagic_scan_keycode(BOOTMAGIC_KEY_DEFAULT_LAYER_3)) { default_layer |= (1<<3); }
 588               		.loc 1 91 8 view .LVU162
 589 01a4 8823      		tst r24
 590 01a6 01F0      		breq .L35
  91:./tmk_core/common/bootmagic.c ****     if (bootmagic_scan_keycode(BOOTMAGIC_KEY_DEFAULT_LAYER_3)) { default_layer |= (1<<3); }
 591               		.loc 1 91 66 is_stmt 1 discriminator 1 view .LVU163
  91:./tmk_core/common/bootmagic.c ****     if (bootmagic_scan_keycode(BOOTMAGIC_KEY_DEFAULT_LAYER_3)) { default_layer |= (1<<3); }
 592               		.loc 1 91 80 is_stmt 0 discriminator 1 view .LVU164
 593 01a8 3981      		ldd r19,Y+1
 594 01aa 3860      		ori r19,lo8(8)
 595 01ac 3983      		std Y+1,r19
 596               	.LVL54:
 597               	.L35:
  92:./tmk_core/common/bootmagic.c ****     if (bootmagic_scan_keycode(BOOTMAGIC_KEY_DEFAULT_LAYER_4)) { default_layer |= (1<<4); }
 598               		.loc 1 92 5 is_stmt 1 view .LVU165
  92:./tmk_core/common/bootmagic.c ****     if (bootmagic_scan_keycode(BOOTMAGIC_KEY_DEFAULT_LAYER_4)) { default_layer |= (1<<4); }
 599               		.loc 1 92 9 is_stmt 0 view .LVU166
 600 01ae 81E2      		ldi r24,lo8(33)
 601 01b0 0E94 0000 		call bootmagic_scan_keycode
 602               	.LVL55:
  92:./tmk_core/common/bootmagic.c ****     if (bootmagic_scan_keycode(BOOTMAGIC_KEY_DEFAULT_LAYER_4)) { default_layer |= (1<<4); }
 603               		.loc 1 92 8 view .LVU167
 604 01b4 8823      		tst r24
 605 01b6 01F0      		breq .L36
  92:./tmk_core/common/bootmagic.c ****     if (bootmagic_scan_keycode(BOOTMAGIC_KEY_DEFAULT_LAYER_4)) { default_layer |= (1<<4); }
 606               		.loc 1 92 66 is_stmt 1 discriminator 1 view .LVU168
  92:./tmk_core/common/bootmagic.c ****     if (bootmagic_scan_keycode(BOOTMAGIC_KEY_DEFAULT_LAYER_4)) { default_layer |= (1<<4); }
 607               		.loc 1 92 80 is_stmt 0 discriminator 1 view .LVU169
 608 01b8 4981      		ldd r20,Y+1
 609 01ba 4061      		ori r20,lo8(16)
 610 01bc 4983      		std Y+1,r20
 611               	.LVL56:
 612               	.L36:
  93:./tmk_core/common/bootmagic.c ****     if (bootmagic_scan_keycode(BOOTMAGIC_KEY_DEFAULT_LAYER_5)) { default_layer |= (1<<5); }
 613               		.loc 1 93 5 is_stmt 1 view .LVU170
  93:./tmk_core/common/bootmagic.c ****     if (bootmagic_scan_keycode(BOOTMAGIC_KEY_DEFAULT_LAYER_5)) { default_layer |= (1<<5); }
 614               		.loc 1 93 9 is_stmt 0 view .LVU171
 615 01be 82E2      		ldi r24,lo8(34)
 616 01c0 0E94 0000 		call bootmagic_scan_keycode
 617               	.LVL57:
  93:./tmk_core/common/bootmagic.c ****     if (bootmagic_scan_keycode(BOOTMAGIC_KEY_DEFAULT_LAYER_5)) { default_layer |= (1<<5); }
 618               		.loc 1 93 8 view .LVU172
 619 01c4 8823      		tst r24
 620 01c6 01F0      		breq .L37
  93:./tmk_core/common/bootmagic.c ****     if (bootmagic_scan_keycode(BOOTMAGIC_KEY_DEFAULT_LAYER_5)) { default_layer |= (1<<5); }
 621               		.loc 1 93 66 is_stmt 1 discriminator 1 view .LVU173
  93:./tmk_core/common/bootmagic.c ****     if (bootmagic_scan_keycode(BOOTMAGIC_KEY_DEFAULT_LAYER_5)) { default_layer |= (1<<5); }
 622               		.loc 1 93 80 is_stmt 0 discriminator 1 view .LVU174
 623 01c8 5981      		ldd r21,Y+1
 624 01ca 5062      		ori r21,lo8(32)
 625 01cc 5983      		std Y+1,r21
 626               	.LVL58:
 627               	.L37:
  94:./tmk_core/common/bootmagic.c ****     if (bootmagic_scan_keycode(BOOTMAGIC_KEY_DEFAULT_LAYER_6)) { default_layer |= (1<<6); }
 628               		.loc 1 94 5 is_stmt 1 view .LVU175
  94:./tmk_core/common/bootmagic.c ****     if (bootmagic_scan_keycode(BOOTMAGIC_KEY_DEFAULT_LAYER_6)) { default_layer |= (1<<6); }
 629               		.loc 1 94 9 is_stmt 0 view .LVU176
 630 01ce 83E2      		ldi r24,lo8(35)
 631 01d0 0E94 0000 		call bootmagic_scan_keycode
 632               	.LVL59:
  94:./tmk_core/common/bootmagic.c ****     if (bootmagic_scan_keycode(BOOTMAGIC_KEY_DEFAULT_LAYER_6)) { default_layer |= (1<<6); }
 633               		.loc 1 94 8 view .LVU177
 634 01d4 8823      		tst r24
 635 01d6 01F0      		breq .L38
  94:./tmk_core/common/bootmagic.c ****     if (bootmagic_scan_keycode(BOOTMAGIC_KEY_DEFAULT_LAYER_6)) { default_layer |= (1<<6); }
 636               		.loc 1 94 66 is_stmt 1 discriminator 1 view .LVU178
  94:./tmk_core/common/bootmagic.c ****     if (bootmagic_scan_keycode(BOOTMAGIC_KEY_DEFAULT_LAYER_6)) { default_layer |= (1<<6); }
 637               		.loc 1 94 80 is_stmt 0 discriminator 1 view .LVU179
 638 01d8 8981      		ldd r24,Y+1
 639 01da 8064      		ori r24,lo8(64)
 640 01dc 8983      		std Y+1,r24
 641               	.LVL60:
 642               	.L38:
  95:./tmk_core/common/bootmagic.c ****     if (bootmagic_scan_keycode(BOOTMAGIC_KEY_DEFAULT_LAYER_7)) { default_layer |= (1<<7); }
 643               		.loc 1 95 5 is_stmt 1 view .LVU180
  95:./tmk_core/common/bootmagic.c ****     if (bootmagic_scan_keycode(BOOTMAGIC_KEY_DEFAULT_LAYER_7)) { default_layer |= (1<<7); }
 644               		.loc 1 95 9 is_stmt 0 view .LVU181
 645 01de 84E2      		ldi r24,lo8(36)
 646 01e0 0E94 0000 		call bootmagic_scan_keycode
 647               	.LVL61:
  95:./tmk_core/common/bootmagic.c ****     if (bootmagic_scan_keycode(BOOTMAGIC_KEY_DEFAULT_LAYER_7)) { default_layer |= (1<<7); }
 648               		.loc 1 95 8 view .LVU182
 649 01e4 8823      		tst r24
 650 01e6 01F0      		breq .L39
  95:./tmk_core/common/bootmagic.c ****     if (bootmagic_scan_keycode(BOOTMAGIC_KEY_DEFAULT_LAYER_7)) { default_layer |= (1<<7); }
 651               		.loc 1 95 66 is_stmt 1 discriminator 1 view .LVU183
  95:./tmk_core/common/bootmagic.c ****     if (bootmagic_scan_keycode(BOOTMAGIC_KEY_DEFAULT_LAYER_7)) { default_layer |= (1<<7); }
 652               		.loc 1 95 80 is_stmt 0 discriminator 1 view .LVU184
 653 01e8 9981      		ldd r25,Y+1
 654 01ea 9068      		ori r25,lo8(-128)
 655 01ec 9983      		std Y+1,r25
 656               	.LVL62:
  96:./tmk_core/common/bootmagic.c ****     if (default_layer) {
 657               		.loc 1 96 5 is_stmt 1 discriminator 1 view .LVU185
 658               	.L40:
  97:./tmk_core/common/bootmagic.c ****         eeconfig_update_default_layer(default_layer);
 659               		.loc 1 97 9 view .LVU186
 660 01ee 8981      		ldd r24,Y+1
 661 01f0 0E94 0000 		call eeconfig_update_default_layer
 662               	.LVL63:
  98:./tmk_core/common/bootmagic.c ****         default_layer_set((uint32_t)default_layer);
 663               		.loc 1 98 9 view .LVU187
 664 01f4 3981      		ldd r19,Y+1
 665 01f6 232F      		mov r18,r19
 666               	.LVL64:
 667               	.L94:
 101:./tmk_core/common/bootmagic.c ****         default_layer_set((uint32_t)default_layer);
 668               		.loc 1 101 9 is_stmt 0 view .LVU188
 669 01f8 30E0      		ldi r19,0
 670 01fa 50E0      		ldi r21,0
 671 01fc 40E0      		ldi r20,0
 672 01fe 2983      		std Y+1,r18
 673 0200 3A83      		std Y+2,r19
 674 0202 4B83      		std Y+3,r20
 675 0204 5C83      		std Y+4,r21
 676 0206 CA01      		movw r24,r20
 677 0208 B901      		movw r22,r18
 678               	/* epilogue start */
 103:./tmk_core/common/bootmagic.c **** }
 679               		.loc 1 103 1 view .LVU189
 680 020a 0F90      		pop __tmp_reg__
 681 020c 0F90      		pop __tmp_reg__
 682 020e 0F90      		pop __tmp_reg__
 683 0210 0F90      		pop __tmp_reg__
 684 0212 DF91      		pop r29
 685 0214 CF91      		pop r28
 101:./tmk_core/common/bootmagic.c ****         default_layer_set((uint32_t)default_layer);
 686               		.loc 1 101 9 view .LVU190
 687 0216 0C94 0000 		jmp default_layer_set
 688               	.LVL65:
 689               	.L22:
  48:./tmk_core/common/bootmagic.c ****         } else if (bootmagic_scan_keycode(BOOTMAGIC_KEY_DEBUG_KEYBOARD)) {
 690               		.loc 1 48 16 is_stmt 1 view .LVU191
  48:./tmk_core/common/bootmagic.c ****         } else if (bootmagic_scan_keycode(BOOTMAGIC_KEY_DEBUG_KEYBOARD)) {
 691               		.loc 1 48 20 is_stmt 0 view .LVU192
 692 021a 8EE0      		ldi r24,lo8(14)
 693 021c 0E94 0000 		call bootmagic_scan_keycode
 694               	.LVL66:
  48:./tmk_core/common/bootmagic.c ****         } else if (bootmagic_scan_keycode(BOOTMAGIC_KEY_DEBUG_KEYBOARD)) {
 695               		.loc 1 48 19 view .LVU193
 696 0220 8823      		tst r24
 697 0222 01F0      		breq .L23
  49:./tmk_core/common/bootmagic.c ****             debug_config.keyboard = !debug_config.keyboard;
 698               		.loc 1 49 13 is_stmt 1 view .LVU194
  49:./tmk_core/common/bootmagic.c ****             debug_config.keyboard = !debug_config.keyboard;
 699               		.loc 1 49 50 is_stmt 0 view .LVU195
 700 0224 9091 0000 		lds r25,debug_config
  49:./tmk_core/common/bootmagic.c ****             debug_config.keyboard = !debug_config.keyboard;
 701               		.loc 1 49 35 view .LVU196
 702 0228 892F      		mov r24,r25
 703 022a 8B7F      		andi r24,~(1<<2)
 704 022c 92FF      		sbrs r25,2
 705 022e 8460      		ori r24,1<<2
 706 0230 00C0      		rjmp .L93
 707               	.L23:
  50:./tmk_core/common/bootmagic.c ****         } else if (bootmagic_scan_keycode(BOOTMAGIC_KEY_DEBUG_MOUSE)) {
 708               		.loc 1 50 16 is_stmt 1 view .LVU197
  50:./tmk_core/common/bootmagic.c ****         } else if (bootmagic_scan_keycode(BOOTMAGIC_KEY_DEBUG_MOUSE)) {
 709               		.loc 1 50 20 is_stmt 0 view .LVU198
 710 0232 80E1      		ldi r24,lo8(16)
 711 0234 0E94 0000 		call bootmagic_scan_keycode
 712               	.LVL67:
 713 0238 9091 0000 		lds r25,debug_config
  50:./tmk_core/common/bootmagic.c ****         } else if (bootmagic_scan_keycode(BOOTMAGIC_KEY_DEBUG_MOUSE)) {
 714               		.loc 1 50 19 view .LVU199
 715 023c 8823      		tst r24
 716 023e 01F0      		breq .L24
  51:./tmk_core/common/bootmagic.c ****             debug_config.mouse = !debug_config.mouse;
 717               		.loc 1 51 13 is_stmt 1 view .LVU200
  51:./tmk_core/common/bootmagic.c ****             debug_config.mouse = !debug_config.mouse;
 718               		.loc 1 51 32 is_stmt 0 view .LVU201
 719 0240 892F      		mov r24,r25
 720 0242 877F      		andi r24,~(1<<3)
 721 0244 93FF      		sbrs r25,3
 722 0246 8860      		ori r24,1<<3
 723 0248 00C0      		rjmp .L93
 724               	.L24:
  53:./tmk_core/common/bootmagic.c ****             debug_config.enable = !debug_config.enable;
 725               		.loc 1 53 13 is_stmt 1 view .LVU202
  53:./tmk_core/common/bootmagic.c ****             debug_config.enable = !debug_config.enable;
 726               		.loc 1 53 33 is_stmt 0 view .LVU203
 727 024a 892F      		mov r24,r25
 728 024c 8E7F      		andi r24,~(1<<0)
 729 024e 90FF      		sbrs r25,0
 730 0250 8160      		ori r24,1<<0
 731 0252 00C0      		rjmp .L93
 732               	.LVL68:
 733               	.L39:
  96:./tmk_core/common/bootmagic.c ****     if (default_layer) {
 734               		.loc 1 96 5 is_stmt 1 view .LVU204
  96:./tmk_core/common/bootmagic.c ****     if (default_layer) {
 735               		.loc 1 96 8 is_stmt 0 view .LVU205
 736 0254 A981      		ldd r26,Y+1
 737 0256 A111      		cpse r26,__zero_reg__
 738 0258 00C0      		rjmp .L40
 100:./tmk_core/common/bootmagic.c ****         default_layer = eeconfig_read_default_layer();
 739               		.loc 1 100 9 is_stmt 1 view .LVU206
 100:./tmk_core/common/bootmagic.c ****         default_layer = eeconfig_read_default_layer();
 740               		.loc 1 100 25 is_stmt 0 view .LVU207
 741 025a 0E94 0000 		call eeconfig_read_default_layer
 742               	.LVL69:
 101:./tmk_core/common/bootmagic.c ****         default_layer_set((uint32_t)default_layer);
 743               		.loc 1 101 9 is_stmt 1 view .LVU208
 744 025e 282F      		mov r18,r24
 745 0260 00C0      		rjmp .L94
 746               	.LVL70:
 747               	.L14:
 748               	/* epilogue start */
 103:./tmk_core/common/bootmagic.c **** }
 749               		.loc 1 103 1 is_stmt 0 view .LVU209
 750 0262 0F90      		pop __tmp_reg__
 751 0264 0F90      		pop __tmp_reg__
 752 0266 0F90      		pop __tmp_reg__
 753 0268 0F90      		pop __tmp_reg__
 754 026a DF91      		pop r29
 755 026c CF91      		pop r28
 756 026e 0895      		ret
 757               		.cfi_endproc
 758               	.LFE103:
 760               	.global	keymap_config
 761               		.section	.bss.keymap_config,"aw",@nobits
 764               	keymap_config:
 765 0000 0000      		.zero	2
 766               		.text
 767               	.Letext0:
 768               		.file 3 "/usr/avr/include/stdint.h"
 769               		.file 4 "./tmk_core/common/matrix.h"
 770               		.file 5 "./tmk_core/common/debug.h"
 771               		.file 6 "./tmk_core/common/keyboard.h"
 772               		.file 7 "./quantum/keycode_config.h"
 773               		.file 8 "./quantum/keymap.h"
 774               		.file 9 "./tmk_core/common/eeconfig.h"
 775               		.file 10 "./tmk_core/common/bootloader.h"
 776               		.file 11 "./tmk_core/common/action_layer.h"
 777               		.file 12 "./tmk_core/common/keycode.h"