Archive member included to satisfy reference by file (symbol)

/usr/lib/gcc/avr/8.3.0/../../../../avr/lib/avr51/libm.a(fixunssfsi.o)
                              .build/obj_PanasonicBusinessPartner286_default/protocol/host.o (__fixunssfsi)
/usr/lib/gcc/avr/8.3.0/../../../../avr/lib/avr51/libm.a(fp_split3.o)
                              /usr/lib/gcc/avr/8.3.0/../../../../avr/lib/avr51/libm.a(fixunssfsi.o) (__fp_splitA)
/usr/lib/gcc/avr/8.3.0/../../../../avr/lib/avr51/libm.a(fp_zero.o)
                              /usr/lib/gcc/avr/8.3.0/../../../../avr/lib/avr51/libm.a(fixunssfsi.o) (__fp_zero)
/usr/lib/gcc/avr/8.3.0/../../../../avr/lib/avr51/libm.a(mulsf3.o)
                              .build/obj_PanasonicBusinessPartner286_default/protocol/host.o (__mulsf3)
/usr/lib/gcc/avr/8.3.0/../../../../avr/lib/avr51/libm.a(mulsf3x.o)
                              /usr/lib/gcc/avr/8.3.0/../../../../avr/lib/avr51/libm.a(mulsf3.o) (__mulsf3x)
/usr/lib/gcc/avr/8.3.0/../../../../avr/lib/avr51/libm.a(fp_inf.o)
                              /usr/lib/gcc/avr/8.3.0/../../../../avr/lib/avr51/libm.a(mulsf3x.o) (__fp_inf)
/usr/lib/gcc/avr/8.3.0/../../../../avr/lib/avr51/libm.a(fp_nan.o)
                              /usr/lib/gcc/avr/8.3.0/../../../../avr/lib/avr51/libm.a(mulsf3x.o) (__fp_nan)
/usr/lib/gcc/avr/8.3.0/../../../../avr/lib/avr51/libm.a(fp_pscA.o)
                              /usr/lib/gcc/avr/8.3.0/../../../../avr/lib/avr51/libm.a(mulsf3x.o) (__fp_pscA)
/usr/lib/gcc/avr/8.3.0/../../../../avr/lib/avr51/libm.a(fp_pscB.o)
                              /usr/lib/gcc/avr/8.3.0/../../../../avr/lib/avr51/libm.a(mulsf3x.o) (__fp_pscB)
/usr/lib/gcc/avr/8.3.0/../../../../avr/lib/avr51/libm.a(fp_round.o)
                              /usr/lib/gcc/avr/8.3.0/../../../../avr/lib/avr51/libm.a(mulsf3.o) (__fp_round)
/usr/lib/gcc/avr/8.3.0/avr51/libgcc.a(_divmodhi4.o)
                              .build/obj_PanasonicBusinessPartner286_default/quantum/send_string.o (__divmodhi4)
/usr/lib/gcc/avr/8.3.0/avr51/libgcc.a(_udivmodsi4.o)
                              .build/obj_PanasonicBusinessPartner286_default/quantum/quantum.o (__udivmodsi4)
/usr/lib/gcc/avr/8.3.0/avr51/libgcc.a(_exit.o)
                              /usr/lib/gcc/avr/8.3.0/../../../../avr/lib/avr51/crtat90usb1286.o (exit)
/usr/lib/gcc/avr/8.3.0/avr51/libgcc.a(_tablejump2.o)
                              .build/obj_PanasonicBusinessPartner286_default/quantum/action.o (__tablejump2__)
/usr/lib/gcc/avr/8.3.0/avr51/libgcc.a(_copy_data.o)
                              .build/obj_PanasonicBusinessPartner286_default/quantum/quantum.o (__do_copy_data)
/usr/lib/gcc/avr/8.3.0/avr51/libgcc.a(_clear_bss.o)
                              .build/obj_PanasonicBusinessPartner286_default/quantum/quantum.o (__do_clear_bss)
/usr/lib/gcc/avr/8.3.0/avr51/libgcc.a(_udivmodhi4.o)
                              /usr/lib/gcc/avr/8.3.0/avr51/libgcc.a(_divmodhi4.o) (__udivmodhi4)
/usr/lib/gcc/avr/8.3.0/../../../../avr/lib/avr51/libc.a(rand.o)
                              .build/obj_PanasonicBusinessPartner286_default/quantum/send_string.o (rand)
/usr/lib/gcc/avr/8.3.0/../../../../avr/lib/avr51/libc.a(memcmp.o)
                              .build/obj_PanasonicBusinessPartner286_default/quantum/action_util.o (memcmp)
/usr/lib/gcc/avr/8.3.0/../../../../avr/lib/avr51/libat90usb1286.a(eerd_byte.o)
                              .build/obj_PanasonicBusinessPartner286_default/quantum/eeconfig.o (eeprom_read_byte)
/usr/lib/gcc/avr/8.3.0/../../../../avr/lib/avr51/libat90usb1286.a(eerd_dword.o)
                              .build/obj_PanasonicBusinessPartner286_default/quantum/eeconfig.o (eeprom_read_dword)
/usr/lib/gcc/avr/8.3.0/../../../../avr/lib/avr51/libat90usb1286.a(eerd_word.o)
                              .build/obj_PanasonicBusinessPartner286_default/quantum/eeconfig.o (eeprom_read_word)
/usr/lib/gcc/avr/8.3.0/../../../../avr/lib/avr51/libat90usb1286.a(eeupd_byte.o)
                              .build/obj_PanasonicBusinessPartner286_default/quantum/eeconfig.o (eeprom_update_byte)
/usr/lib/gcc/avr/8.3.0/../../../../avr/lib/avr51/libat90usb1286.a(eeupd_dword.o)
                              .build/obj_PanasonicBusinessPartner286_default/quantum/eeconfig.o (eeprom_update_dword)
/usr/lib/gcc/avr/8.3.0/../../../../avr/lib/avr51/libat90usb1286.a(eeupd_word.o)
                              .build/obj_PanasonicBusinessPartner286_default/quantum/eeconfig.o (eeprom_update_word)
/usr/lib/gcc/avr/8.3.0/../../../../avr/lib/avr51/libat90usb1286.a(eerd_block.o)
                              /usr/lib/gcc/avr/8.3.0/../../../../avr/lib/avr51/libat90usb1286.a(eerd_dword.o) (eeprom_read_blraw)
/usr/lib/gcc/avr/8.3.0/avr51/libgcc.a(_divmodsi4.o)
                              /usr/lib/gcc/avr/8.3.0/../../../../avr/lib/avr51/libc.a(rand.o) (__divmodsi4)
/usr/lib/gcc/avr/8.3.0/avr51/libgcc.a(_negsi2.o)
                              /usr/lib/gcc/avr/8.3.0/avr51/libgcc.a(_divmodsi4.o) (__negsi2)
/usr/lib/gcc/avr/8.3.0/avr51/libgcc.a(_muluhisi3.o)
                              /usr/lib/gcc/avr/8.3.0/../../../../avr/lib/avr51/libc.a(rand.o) (__muluhisi3)
/usr/lib/gcc/avr/8.3.0/avr51/libgcc.a(_mulshisi3.o)
                              /usr/lib/gcc/avr/8.3.0/../../../../avr/lib/avr51/libc.a(rand.o) (__mulohisi3)
/usr/lib/gcc/avr/8.3.0/avr51/libgcc.a(_umulhisi3.o)
                              /usr/lib/gcc/avr/8.3.0/avr51/libgcc.a(_muluhisi3.o) (__umulhisi3)

Allocating common symbols
Common symbol       size              file

USB_IsInitialized   0x1               .build/obj_PanasonicBusinessPartner286_default/lib/lufa/LUFA/Drivers/USB/Core/USBTask.o
keymap_config       0x2               .build/obj_PanasonicBusinessPartner286_default/quantum/bootmagic/magic.o
USB_DeviceState     0x1               .build/obj_PanasonicBusinessPartner286_default/lib/lufa/LUFA/Drivers/USB/Core/USBTask.o
USB_Device_ConfigurationNumber
                    0x1               .build/obj_PanasonicBusinessPartner286_default/lib/lufa/LUFA/Drivers/USB/Core/DeviceStandardReq.o
raw_matrix          0x10              .build/obj_PanasonicBusinessPartner286_default/quantum/matrix_common.o
USB_Device_CurrentlySelfPowered
                    0x1               .build/obj_PanasonicBusinessPartner286_default/lib/lufa/LUFA/Drivers/USB/Core/DeviceStandardReq.o
matrix              0x10              .build/obj_PanasonicBusinessPartner286_default/quantum/matrix_common.o
USB_ControlRequest  0x8               .build/obj_PanasonicBusinessPartner286_default/lib/lufa/LUFA/Drivers/USB/Core/USBTask.o
tp_buttons          0x2               .build/obj_PanasonicBusinessPartner286_default/quantum/action.o
USB_Device_RemoteWakeupEnabled
                    0x1               .build/obj_PanasonicBusinessPartner286_default/lib/lufa/LUFA/Drivers/USB/Core/DeviceStandardReq.o
timer_count         0x4               .build/obj_PanasonicBusinessPartner286_default/platforms/avr/timer.o

Discarded input sections

 .data          0x0000000000000000        0x0 /usr/lib/gcc/avr/8.3.0/../../../../avr/lib/avr51/crtat90usb1286.o
 .bss           0x0000000000000000        0x0 /usr/lib/gcc/avr/8.3.0/../../../../avr/lib/avr51/crtat90usb1286.o
 .text          0x0000000000000000        0x0 .build/obj_PanasonicBusinessPartner286_default/keyboards/PanasonicBusinessPartner286/PanasonicBusinessPartner286.o
 .data          0x0000000000000000        0x0 .build/obj_PanasonicBusinessPartner286_default/keyboards/PanasonicBusinessPartner286/PanasonicBusinessPartner286.o
 .bss           0x0000000000000000        0x0 .build/obj_PanasonicBusinessPartner286_default/keyboards/PanasonicBusinessPartner286/PanasonicBusinessPartner286.o
 .debug_info    0x0000000000000000      0x77a .build/obj_PanasonicBusinessPartner286_default/keyboards/PanasonicBusinessPartner286/PanasonicBusinessPartner286.o
 .debug_abbrev  0x0000000000000000      0x182 .build/obj_PanasonicBusinessPartner286_default/keyboards/PanasonicBusinessPartner286/PanasonicBusinessPartner286.o
 .debug_aranges
                0x0000000000000000       0x18 .build/obj_PanasonicBusinessPartner286_default/keyboards/PanasonicBusinessPartner286/PanasonicBusinessPartner286.o
 .debug_line    0x0000000000000000      0x1f0 .build/obj_PanasonicBusinessPartner286_default/keyboards/PanasonicBusinessPartner286/PanasonicBusinessPartner286.o
 .debug_str     0x0000000000000000      0x6d0 .build/obj_PanasonicBusinessPartner286_default/keyboards/PanasonicBusinessPartner286/PanasonicBusinessPartner286.o
 .comment       0x0000000000000000       0x12 .build/obj_PanasonicBusinessPartner286_default/keyboards/PanasonicBusinessPartner286/PanasonicBusinessPartner286.o
 .text          0x0000000000000000        0x0 .build/obj_PanasonicBusinessPartner286_default/keyboards/PanasonicBusinessPartner286/keymaps/default/keymap.o
 .data          0x0000000000000000        0x0 .build/obj_PanasonicBusinessPartner286_default/keyboards/PanasonicBusinessPartner286/keymaps/default/keymap.o
 .bss           0x0000000000000000        0x0 .build/obj_PanasonicBusinessPartner286_default/keyboards/PanasonicBusinessPartner286/keymaps/default/keymap.o
 .text          0x0000000000000000        0x0 .build/obj_PanasonicBusinessPartner286_default/quantum/quantum.o
 .data          0x0000000000000000        0x0 .build/obj_PanasonicBusinessPartner286_default/quantum/quantum.o
 .bss           0x0000000000000000        0x0 .build/obj_PanasonicBusinessPartner286_default/quantum/quantum.o
 .text.extract_mod_bits
                0x0000000000000000       0x62 .build/obj_PanasonicBusinessPartner286_default/quantum/quantum.o
 .text.do_code16
                0x0000000000000000       0x12 .build/obj_PanasonicBusinessPartner286_default/quantum/quantum.o
 .text.register_code16
                0x0000000000000000       0x2a .build/obj_PanasonicBusinessPartner286_default/quantum/quantum.o
 .text.unregister_code16
                0x0000000000000000       0x2a .build/obj_PanasonicBusinessPartner286_default/quantum/quantum.o
 .text.tap_code16
                0x0000000000000000       0x2c .build/obj_PanasonicBusinessPartner286_default/quantum/quantum.o
 .text.set_single_persistent_default_layer
                0x0000000000000000       0x34 .build/obj_PanasonicBusinessPartner286_default/quantum/quantum.o
 .text.update_tri_layer_state
                0x0000000000000000       0xa8 .build/obj_PanasonicBusinessPartner286_default/quantum/quantum.o
 .text.update_tri_layer
                0x0000000000000000       0x24 .build/obj_PanasonicBusinessPartner286_default/quantum/quantum.o
 .text.startup_user
                0x0000000000000000        0x2 .build/obj_PanasonicBusinessPartner286_default/quantum/quantum.o
 .text.get_numeric_str
                0x0000000000000000       0xb0 .build/obj_PanasonicBusinessPartner286_default/quantum/quantum.o
 .text.get_u8_str
                0x0000000000000000       0x3a .build/obj_PanasonicBusinessPartner286_default/quantum/quantum.o
 .text.get_u16_str
                0x0000000000000000       0x42 .build/obj_PanasonicBusinessPartner286_default/quantum/quantum.o
 .bss.buf.6464  0x0000000000000000        0x6 .build/obj_PanasonicBusinessPartner286_default/quantum/quantum.o
 .bss.last_pad.6466
                0x0000000000000000        0x1 .build/obj_PanasonicBusinessPartner286_default/quantum/quantum.o
 .data.last_num.6465
                0x0000000000000000        0x2 .build/obj_PanasonicBusinessPartner286_default/quantum/quantum.o
 .bss.buf.6457  0x0000000000000000        0x4 .build/obj_PanasonicBusinessPartner286_default/quantum/quantum.o
 .bss.last_pad.6459
                0x0000000000000000        0x1 .build/obj_PanasonicBusinessPartner286_default/quantum/quantum.o
 .data.last_num.6458
                0x0000000000000000        0x1 .build/obj_PanasonicBusinessPartner286_default/quantum/quantum.o
 .text          0x0000000000000000        0x0 .build/obj_PanasonicBusinessPartner286_default/quantum/send_string.o
 .data          0x0000000000000000        0x0 .build/obj_PanasonicBusinessPartner286_default/quantum/send_string.o
 .bss           0x0000000000000000        0x0 .build/obj_PanasonicBusinessPartner286_default/quantum/send_string.o
 .text.send_char
                0x0000000000000000       0xcc .build/obj_PanasonicBusinessPartner286_default/quantum/send_string.o
 .text.send_string_with_delay
                0x0000000000000000       0xd0 .build/obj_PanasonicBusinessPartner286_default/quantum/send_string.o
 .text.send_string
                0x0000000000000000        0x6 .build/obj_PanasonicBusinessPartner286_default/quantum/send_string.o
 .text.send_string_with_delay_P
                0x0000000000000000       0xd4 .build/obj_PanasonicBusinessPartner286_default/quantum/send_string.o
 .text.send_string_P
                0x0000000000000000        0x6 .build/obj_PanasonicBusinessPartner286_default/quantum/send_string.o
 .text.send_nibble
                0x0000000000000000       0x14 .build/obj_PanasonicBusinessPartner286_default/quantum/send_string.o
 .text.send_byte
                0x0000000000000000       0x16 .build/obj_PanasonicBusinessPartner286_default/quantum/send_string.o
 .text.send_word
                0x0000000000000000       0x12 .build/obj_PanasonicBusinessPartner286_default/quantum/send_string.o
 .text.send_dword
                0x0000000000000000       0x1c .build/obj_PanasonicBusinessPartner286_default/quantum/send_string.o
 .text.tap_random_base64
                0x0000000000000000       0x46 .build/obj_PanasonicBusinessPartner286_default/quantum/send_string.o
 .progmem.data.ascii_to_keycode_lut
                0x0000000000000000       0x80 .build/obj_PanasonicBusinessPartner286_default/quantum/send_string.o
 .progmem.data.ascii_to_dead_lut
                0x0000000000000000       0x10 .build/obj_PanasonicBusinessPartner286_default/quantum/send_string.o
 .progmem.data.ascii_to_altgr_lut
                0x0000000000000000       0x10 .build/obj_PanasonicBusinessPartner286_default/quantum/send_string.o
 .progmem.data.ascii_to_shift_lut
                0x0000000000000000       0x10 .build/obj_PanasonicBusinessPartner286_default/quantum/send_string.o
 .debug_info    0x0000000000000000     0x1581 .build/obj_PanasonicBusinessPartner286_default/quantum/send_string.o
 .debug_abbrev  0x0000000000000000      0x3ac .build/obj_PanasonicBusinessPartner286_default/quantum/send_string.o
 .debug_loc     0x0000000000000000      0xe31 .build/obj_PanasonicBusinessPartner286_default/quantum/send_string.o
 .debug_aranges
                0x0000000000000000       0x68 .build/obj_PanasonicBusinessPartner286_default/quantum/send_string.o
 .debug_ranges  0x0000000000000000      0x190 .build/obj_PanasonicBusinessPartner286_default/quantum/send_string.o
 .debug_line    0x0000000000000000      0xc80 .build/obj_PanasonicBusinessPartner286_default/quantum/send_string.o
 .debug_str     0x0000000000000000      0xeba .build/obj_PanasonicBusinessPartner286_default/quantum/send_string.o
 .comment       0x0000000000000000       0x12 .build/obj_PanasonicBusinessPartner286_default/quantum/send_string.o
 .debug_frame   0x0000000000000000      0x13c .build/obj_PanasonicBusinessPartner286_default/quantum/send_string.o
 .text          0x0000000000000000        0x0 .build/obj_PanasonicBusinessPartner286_default/quantum/bitwise.o
 .data          0x0000000000000000        0x0 .build/obj_PanasonicBusinessPartner286_default/quantum/bitwise.o
 .bss           0x0000000000000000        0x0 .build/obj_PanasonicBusinessPartner286_default/quantum/bitwise.o
 .text.bitpop   0x0000000000000000       0x14 .build/obj_PanasonicBusinessPartner286_default/quantum/bitwise.o
 .text.bitpop16
                0x0000000000000000       0x18 .build/obj_PanasonicBusinessPartner286_default/quantum/bitwise.o
 .text.bitpop32
                0x0000000000000000       0x3a .build/obj_PanasonicBusinessPartner286_default/quantum/bitwise.o
 .text.biton    0x0000000000000000       0x22 .build/obj_PanasonicBusinessPartner286_default/quantum/bitwise.o
 .text.biton16  0x0000000000000000       0x48 .build/obj_PanasonicBusinessPartner286_default/quantum/bitwise.o
 .text.biton32  0x0000000000000000       0x9a .build/obj_PanasonicBusinessPartner286_default/quantum/bitwise.o
 .text.bitrev   0x0000000000000000       0x30 .build/obj_PanasonicBusinessPartner286_default/quantum/bitwise.o
 .text.bitrev16
                0x0000000000000000       0x1a .build/obj_PanasonicBusinessPartner286_default/quantum/bitwise.o
 .text.bitrev32
                0x0000000000000000       0x4c .build/obj_PanasonicBusinessPartner286_default/quantum/bitwise.o
 .debug_info    0x0000000000000000      0x2f9 .build/obj_PanasonicBusinessPartner286_default/quantum/bitwise.o
 .debug_abbrev  0x0000000000000000       0xdd .build/obj_PanasonicBusinessPartner286_default/quantum/bitwise.o
 .debug_loc     0x0000000000000000      0x58d .build/obj_PanasonicBusinessPartner286_default/quantum/bitwise.o
 .debug_aranges
                0x0000000000000000       0x60 .build/obj_PanasonicBusinessPartner286_default/quantum/bitwise.o
 .debug_ranges  0x0000000000000000       0x50 .build/obj_PanasonicBusinessPartner286_default/quantum/bitwise.o
 .debug_line    0x0000000000000000      0x62d .build/obj_PanasonicBusinessPartner286_default/quantum/bitwise.o
 .debug_str     0x0000000000000000      0x1ed .build/obj_PanasonicBusinessPartner286_default/quantum/bitwise.o
 .comment       0x0000000000000000       0x12 .build/obj_PanasonicBusinessPartner286_default/quantum/bitwise.o
 .debug_frame   0x0000000000000000      0x100 .build/obj_PanasonicBusinessPartner286_default/quantum/bitwise.o
 .text          0x0000000000000000        0x0 .build/obj_PanasonicBusinessPartner286_default/quantum/led.o
 .data          0x0000000000000000        0x0 .build/obj_PanasonicBusinessPartner286_default/quantum/led.o
 .bss           0x0000000000000000        0x0 .build/obj_PanasonicBusinessPartner286_default/quantum/led.o
 .text.led_update_kb
                0x0000000000000000        0x4 .build/obj_PanasonicBusinessPartner286_default/quantum/led.o
 .text          0x0000000000000000        0x0 .build/obj_PanasonicBusinessPartner286_default/quantum/action.o
 .data          0x0000000000000000        0x0 .build/obj_PanasonicBusinessPartner286_default/quantum/action.o
 .bss           0x0000000000000000        0x0 .build/obj_PanasonicBusinessPartner286_default/quantum/action.o
 .text.process_record_quantum
                0x0000000000000000        0x4 .build/obj_PanasonicBusinessPartner286_default/quantum/action.o
 .text.pre_process_record_quantum
                0x0000000000000000        0x4 .build/obj_PanasonicBusinessPartner286_default/quantum/action.o
 .text.post_process_record_quantum
                0x0000000000000000        0x2 .build/obj_PanasonicBusinessPartner286_default/quantum/action.o
 .text.process_record_nocache
                0x0000000000000000       0x10 .build/obj_PanasonicBusinessPartner286_default/quantum/action.o
 .text.register_weak_mods
                0x0000000000000000        0xe .build/obj_PanasonicBusinessPartner286_default/quantum/action.o
 .text.unregister_weak_mods
                0x0000000000000000        0xe .build/obj_PanasonicBusinessPartner286_default/quantum/action.o
 .text.is_tap_key
                0x0000000000000000        0x8 .build/obj_PanasonicBusinessPartner286_default/quantum/action.o
 .text.debug_action
                0x0000000000000000        0x2 .build/obj_PanasonicBusinessPartner286_default/quantum/action.o
 COMMON         0x0000000000000000        0x2 .build/obj_PanasonicBusinessPartner286_default/quantum/action.o
 .text          0x0000000000000000        0x0 .build/obj_PanasonicBusinessPartner286_default/quantum/action_layer.o
 .data          0x0000000000000000        0x0 .build/obj_PanasonicBusinessPartner286_default/quantum/action_layer.o
 .bss           0x0000000000000000        0x0 .build/obj_PanasonicBusinessPartner286_default/quantum/action_layer.o
 .text.layer_state_cmp
                0x0000000000000000       0x2a .build/obj_PanasonicBusinessPartner286_default/quantum/action_layer.o
 .text.layer_state_is
                0x0000000000000000       0x16 .build/obj_PanasonicBusinessPartner286_default/quantum/action_layer.o
 .text          0x0000000000000000        0x0 .build/obj_PanasonicBusinessPartner286_default/quantum/action_tapping.o
 .data          0x0000000000000000        0x0 .build/obj_PanasonicBusinessPartner286_default/quantum/action_tapping.o
 .bss           0x0000000000000000        0x0 .build/obj_PanasonicBusinessPartner286_default/quantum/action_tapping.o
 .text.get_tapping_term
                0x0000000000000000        0xa .build/obj_PanasonicBusinessPartner286_default/quantum/action_tapping.o
 .text          0x0000000000000000        0x0 .build/obj_PanasonicBusinessPartner286_default/quantum/action_util.o
 .data          0x0000000000000000        0x0 .build/obj_PanasonicBusinessPartner286_default/quantum/action_util.o
 .bss           0x0000000000000000        0x0 .build/obj_PanasonicBusinessPartner286_default/quantum/action_util.o
 .text.get_oneshot_locked_mods
                0x0000000000000000        0x6 .build/obj_PanasonicBusinessPartner286_default/quantum/action_util.o
 .text.has_oneshot_mods_timed_out
                0x0000000000000000        0x4 .build/obj_PanasonicBusinessPartner286_default/quantum/action_util.o
 .text.is_oneshot_enabled
                0x0000000000000000        0xc .build/obj_PanasonicBusinessPartner286_default/quantum/action_util.o
 .text.set_mods
                0x0000000000000000        0x6 .build/obj_PanasonicBusinessPartner286_default/quantum/action_util.o
 .text.get_weak_mods
                0x0000000000000000        0x6 .build/obj_PanasonicBusinessPartner286_default/quantum/action_util.o
 .text.set_weak_mods
                0x0000000000000000        0x6 .build/obj_PanasonicBusinessPartner286_default/quantum/action_util.o
 .text.oneshot_locked_mods_changed_user
                0x0000000000000000        0x2 .build/obj_PanasonicBusinessPartner286_default/quantum/action_util.o
 .text.oneshot_locked_mods_changed_kb
                0x0000000000000000        0x4 .build/obj_PanasonicBusinessPartner286_default/quantum/action_util.o
 .text.set_oneshot_locked_mods
                0x0000000000000000       0x12 .build/obj_PanasonicBusinessPartner286_default/quantum/action_util.o
 .text.clear_oneshot_locked_mods
                0x0000000000000000       0x14 .build/obj_PanasonicBusinessPartner286_default/quantum/action_util.o
 .text.add_oneshot_mods
                0x0000000000000000       0x18 .build/obj_PanasonicBusinessPartner286_default/quantum/action_util.o
 .text.del_oneshot_mods
                0x0000000000000000       0x18 .build/obj_PanasonicBusinessPartner286_default/quantum/action_util.o
 .text.has_anymod
                0x0000000000000000        0x8 .build/obj_PanasonicBusinessPartner286_default/quantum/action_util.o
 .bss.oneshot_locked_mods
                0x0000000000000000        0x1 .build/obj_PanasonicBusinessPartner286_default/quantum/action_util.o
 .text          0x0000000000000000        0x0 .build/obj_PanasonicBusinessPartner286_default/quantum/eeconfig.o
 .data          0x0000000000000000        0x0 .build/obj_PanasonicBusinessPartner286_default/quantum/eeconfig.o
 .bss           0x0000000000000000        0x0 .build/obj_PanasonicBusinessPartner286_default/quantum/eeconfig.o
 .text.eeconfig_enable
                0x0000000000000000        0xc .build/obj_PanasonicBusinessPartner286_default/quantum/eeconfig.o
 .text.eeconfig_is_disabled
                0x0000000000000000       0x14 .build/obj_PanasonicBusinessPartner286_default/quantum/eeconfig.o
 .text.eeconfig_update_debug
                0x0000000000000000        0xa .build/obj_PanasonicBusinessPartner286_default/quantum/eeconfig.o
 .text.eeconfig_update_default_layer
                0x0000000000000000        0xa .build/obj_PanasonicBusinessPartner286_default/quantum/eeconfig.o
 .text.eeconfig_read_audio
                0x0000000000000000        0x8 .build/obj_PanasonicBusinessPartner286_default/quantum/eeconfig.o
 .text.eeconfig_update_audio
                0x0000000000000000        0xa .build/obj_PanasonicBusinessPartner286_default/quantum/eeconfig.o
 .text.eeconfig_read_kb
                0x0000000000000000        0x8 .build/obj_PanasonicBusinessPartner286_default/quantum/eeconfig.o
 .text.eeconfig_read_user
                0x0000000000000000        0x8 .build/obj_PanasonicBusinessPartner286_default/quantum/eeconfig.o
 .text.eeconfig_read_haptic
                0x0000000000000000        0x8 .build/obj_PanasonicBusinessPartner286_default/quantum/eeconfig.o
 .text.eeconfig_update_haptic
                0x0000000000000000        0xc .build/obj_PanasonicBusinessPartner286_default/quantum/eeconfig.o
 .text.eeconfig_read_handedness
                0x0000000000000000       0x14 .build/obj_PanasonicBusinessPartner286_default/quantum/eeconfig.o
 .text          0x0000000000000000        0x0 .build/obj_PanasonicBusinessPartner286_default/quantum/keyboard.o
 .data          0x0000000000000000        0x0 .build/obj_PanasonicBusinessPartner286_default/quantum/keyboard.o
 .bss           0x0000000000000000        0x0 .build/obj_PanasonicBusinessPartner286_default/quantum/keyboard.o
 .text.last_input_activity_time
                0x0000000000000000       0x12 .build/obj_PanasonicBusinessPartner286_default/quantum/keyboard.o
 .text.last_input_activity_elapsed
                0x0000000000000000       0x14 .build/obj_PanasonicBusinessPartner286_default/quantum/keyboard.o
 .text.last_matrix_activity_time
                0x0000000000000000       0x12 .build/obj_PanasonicBusinessPartner286_default/quantum/keyboard.o
 .text.last_matrix_activity_elapsed
                0x0000000000000000       0x14 .build/obj_PanasonicBusinessPartner286_default/quantum/keyboard.o
 .text.last_encoder_activity_time
                0x0000000000000000       0x12 .build/obj_PanasonicBusinessPartner286_default/quantum/keyboard.o
 .text.last_encoder_activity_elapsed
                0x0000000000000000       0x14 .build/obj_PanasonicBusinessPartner286_default/quantum/keyboard.o
 .text.last_encoder_activity_trigger
                0x0000000000000000       0x26 .build/obj_PanasonicBusinessPartner286_default/quantum/keyboard.o
 .text.is_keyboard_left
                0x0000000000000000        0x4 .build/obj_PanasonicBusinessPartner286_default/quantum/keyboard.o
 .text.switch_events
                0x0000000000000000        0x2 .build/obj_PanasonicBusinessPartner286_default/quantum/keyboard.o
 .text.quantum_task
                0x0000000000000000        0x2 .build/obj_PanasonicBusinessPartner286_default/quantum/keyboard.o
 .bss.last_encoder_modification_time
                0x0000000000000000        0x4 .build/obj_PanasonicBusinessPartner286_default/quantum/keyboard.o
 .text          0x0000000000000000        0x0 .build/obj_PanasonicBusinessPartner286_default/quantum/keymap_common.o
 .data          0x0000000000000000        0x0 .build/obj_PanasonicBusinessPartner286_default/quantum/keymap_common.o
 .bss           0x0000000000000000        0x0 .build/obj_PanasonicBusinessPartner286_default/quantum/keymap_common.o
 .text          0x0000000000000000        0x0 .build/obj_PanasonicBusinessPartner286_default/quantum/keycode_config.o
 .data          0x0000000000000000        0x0 .build/obj_PanasonicBusinessPartner286_default/quantum/keycode_config.o
 .bss           0x0000000000000000        0x0 .build/obj_PanasonicBusinessPartner286_default/quantum/keycode_config.o
 .text          0x0000000000000000        0x0 .build/obj_PanasonicBusinessPartner286_default/quantum/sync_timer.o
 .data          0x0000000000000000        0x0 .build/obj_PanasonicBusinessPartner286_default/quantum/sync_timer.o
 .bss           0x0000000000000000        0x0 .build/obj_PanasonicBusinessPartner286_default/quantum/sync_timer.o
 .debug_info    0x0000000000000000       0x7c .build/obj_PanasonicBusinessPartner286_default/quantum/sync_timer.o
 .debug_abbrev  0x0000000000000000       0x4f .build/obj_PanasonicBusinessPartner286_default/quantum/sync_timer.o
 .debug_aranges
                0x0000000000000000       0x18 .build/obj_PanasonicBusinessPartner286_default/quantum/sync_timer.o
 .debug_line    0x0000000000000000       0x4f .build/obj_PanasonicBusinessPartner286_default/quantum/sync_timer.o
 .debug_str     0x0000000000000000      0x1a4 .build/obj_PanasonicBusinessPartner286_default/quantum/sync_timer.o
 .comment       0x0000000000000000       0x12 .build/obj_PanasonicBusinessPartner286_default/quantum/sync_timer.o
 .text          0x0000000000000000        0x0 .build/obj_PanasonicBusinessPartner286_default/quantum/logging/debug.o
 .data          0x0000000000000000        0x0 .build/obj_PanasonicBusinessPartner286_default/quantum/logging/debug.o
 .bss           0x0000000000000000        0x0 .build/obj_PanasonicBusinessPartner286_default/quantum/logging/debug.o
 .text          0x0000000000000000        0x0 .build/obj_PanasonicBusinessPartner286_default/quantum/logging/sendchar.o
 .data          0x0000000000000000        0x0 .build/obj_PanasonicBusinessPartner286_default/quantum/logging/sendchar.o
 .bss           0x0000000000000000        0x0 .build/obj_PanasonicBusinessPartner286_default/quantum/logging/sendchar.o
 .text          0x0000000000000000        0x0 .build/obj_PanasonicBusinessPartner286_default/quantum/bootmagic/bootmagic_lite.o
 .data          0x0000000000000000        0x0 .build/obj_PanasonicBusinessPartner286_default/quantum/bootmagic/bootmagic_lite.o
 .bss           0x0000000000000000        0x0 .build/obj_PanasonicBusinessPartner286_default/quantum/bootmagic/bootmagic_lite.o
 .text          0x0000000000000000        0x0 .build/obj_PanasonicBusinessPartner286_default/quantum/bootmagic/magic.o
 .data          0x0000000000000000        0x0 .build/obj_PanasonicBusinessPartner286_default/quantum/bootmagic/magic.o
 .bss           0x0000000000000000        0x0 .build/obj_PanasonicBusinessPartner286_default/quantum/bootmagic/magic.o
 .text.bootmagic
                0x0000000000000000        0x2 .build/obj_PanasonicBusinessPartner286_default/quantum/bootmagic/magic.o
 .text          0x0000000000000000        0x0 .build/obj_PanasonicBusinessPartner286_default/quantum/matrix_common.o
 .data          0x0000000000000000        0x0 .build/obj_PanasonicBusinessPartner286_default/quantum/matrix_common.o
 .bss           0x0000000000000000        0x0 .build/obj_PanasonicBusinessPartner286_default/quantum/matrix_common.o
 .text.matrix_init_user
                0x0000000000000000        0x2 .build/obj_PanasonicBusinessPartner286_default/quantum/matrix_common.o
 .text.matrix_rows
                0x0000000000000000        0x4 .build/obj_PanasonicBusinessPartner286_default/quantum/matrix_common.o
 .text.matrix_cols
                0x0000000000000000        0x4 .build/obj_PanasonicBusinessPartner286_default/quantum/matrix_common.o
 .text.matrix_is_on
                0x0000000000000000       0x2c .build/obj_PanasonicBusinessPartner286_default/quantum/matrix_common.o
 .text.matrix_key_count
                0x0000000000000000       0x2c .build/obj_PanasonicBusinessPartner286_default/quantum/matrix_common.o
 .text.matrix_init_custom
                0x0000000000000000        0x2 .build/obj_PanasonicBusinessPartner286_default/quantum/matrix_common.o
 .text.matrix_scan_custom
                0x0000000000000000        0x4 .build/obj_PanasonicBusinessPartner286_default/quantum/matrix_common.o
 .text.matrix_init
                0x0000000000000000       0x26 .build/obj_PanasonicBusinessPartner286_default/quantum/matrix_common.o
 .text.matrix_scan
                0x0000000000000000       0x26 .build/obj_PanasonicBusinessPartner286_default/quantum/matrix_common.o
 .text.peek_matrix
                0x0000000000000000       0x36 .build/obj_PanasonicBusinessPartner286_default/quantum/matrix_common.o
 .text          0x0000000000000000        0x0 .build/obj_PanasonicBusinessPartner286_default/quantum/matrix.o
 .data          0x0000000000000000        0x0 .build/obj_PanasonicBusinessPartner286_default/quantum/matrix.o
 .bss           0x0000000000000000        0x0 .build/obj_PanasonicBusinessPartner286_default/quantum/matrix.o
 .text          0x0000000000000000        0x0 .build/obj_PanasonicBusinessPartner286_default/quantum/debounce/sym_defer_g.o
 .data          0x0000000000000000        0x0 .build/obj_PanasonicBusinessPartner286_default/quantum/debounce/sym_defer_g.o
 .bss           0x0000000000000000        0x0 .build/obj_PanasonicBusinessPartner286_default/quantum/debounce/sym_defer_g.o
 .text.debounce_free
                0x0000000000000000        0x2 .build/obj_PanasonicBusinessPartner286_default/quantum/debounce/sym_defer_g.o
 .text          0x0000000000000000        0x0 .build/obj_PanasonicBusinessPartner286_default/quantum/main.o
 .data          0x0000000000000000        0x0 .build/obj_PanasonicBusinessPartner286_default/quantum/main.o
 .bss           0x0000000000000000        0x0 .build/obj_PanasonicBusinessPartner286_default/quantum/main.o
 .text          0x0000000000000000        0x0 .build/obj_PanasonicBusinessPartner286_default/quantum/mousekey.o
 .data          0x0000000000000000        0x0 .build/obj_PanasonicBusinessPartner286_default/quantum/mousekey.o
 .bss           0x0000000000000000        0x0 .build/obj_PanasonicBusinessPartner286_default/quantum/mousekey.o
 .text.mousekey_get_report
                0x0000000000000000       0x42 .build/obj_PanasonicBusinessPartner286_default/quantum/mousekey.o
 .text          0x0000000000000000        0x0 .build/obj_PanasonicBusinessPartner286_default/quantum/process_keycode/process_magic.o
 .data          0x0000000000000000        0x0 .build/obj_PanasonicBusinessPartner286_default/quantum/process_keycode/process_magic.o
 .bss           0x0000000000000000        0x0 .build/obj_PanasonicBusinessPartner286_default/quantum/process_keycode/process_magic.o
 .text          0x0000000000000000        0x0 .build/obj_PanasonicBusinessPartner286_default/quantum/process_keycode/process_grave_esc.o
 .data          0x0000000000000000        0x0 .build/obj_PanasonicBusinessPartner286_default/quantum/process_keycode/process_grave_esc.o
 .bss           0x0000000000000000        0x0 .build/obj_PanasonicBusinessPartner286_default/quantum/process_keycode/process_grave_esc.o
 .text          0x0000000000000000        0x0 .build/obj_PanasonicBusinessPartner286_default/quantum/process_keycode/process_space_cadet.o
 .data          0x0000000000000000        0x0 .build/obj_PanasonicBusinessPartner286_default/quantum/process_keycode/process_space_cadet.o
 .bss           0x0000000000000000        0x0 .build/obj_PanasonicBusinessPartner286_default/quantum/process_keycode/process_space_cadet.o
 .text          0x0000000000000000      0x15c .build/obj_PanasonicBusinessPartner286_default/platforms/avr/xprintf.o
 .data          0x0000000000000000        0x0 .build/obj_PanasonicBusinessPartner286_default/platforms/avr/xprintf.o
 .text          0x0000000000000000        0x0 .build/obj_PanasonicBusinessPartner286_default/platforms/avr/printf.o
 .data          0x0000000000000000        0x0 .build/obj_PanasonicBusinessPartner286_default/platforms/avr/printf.o
 .bss           0x0000000000000000        0x0 .build/obj_PanasonicBusinessPartner286_default/platforms/avr/printf.o
 .text          0x0000000000000000        0x0 .build/obj_PanasonicBusinessPartner286_default/protocol/host.o
 .data          0x0000000000000000        0x0 .build/obj_PanasonicBusinessPartner286_default/protocol/host.o
 .bss           0x0000000000000000        0x0 .build/obj_PanasonicBusinessPartner286_default/protocol/host.o
 .text.host_get_driver
                0x0000000000000000        0xa .build/obj_PanasonicBusinessPartner286_default/protocol/host.o
 .text.host_keyboard_led_state
                0x0000000000000000        0x6 .build/obj_PanasonicBusinessPartner286_default/protocol/host.o
 .text.send_digitizer
                0x0000000000000000        0x2 .build/obj_PanasonicBusinessPartner286_default/protocol/host.o
 .text.host_digitizer_send
                0x0000000000000000       0x84 .build/obj_PanasonicBusinessPartner286_default/protocol/host.o
 .text.host_programmable_button_send
                0x0000000000000000       0x4c .build/obj_PanasonicBusinessPartner286_default/protocol/host.o
 .text.host_last_system_report
                0x0000000000000000        0xa .build/obj_PanasonicBusinessPartner286_default/protocol/host.o
 .text.host_last_consumer_report
                0x0000000000000000        0xa .build/obj_PanasonicBusinessPartner286_default/protocol/host.o
 .text.host_last_programmable_button_report
                0x0000000000000000       0x12 .build/obj_PanasonicBusinessPartner286_default/protocol/host.o
 .bss.last_programmable_button_report
                0x0000000000000000        0x4 .build/obj_PanasonicBusinessPartner286_default/protocol/host.o
 .text          0x0000000000000000        0x0 .build/obj_PanasonicBusinessPartner286_default/protocol/report.o
 .data          0x0000000000000000        0x0 .build/obj_PanasonicBusinessPartner286_default/protocol/report.o
 .bss           0x0000000000000000        0x0 .build/obj_PanasonicBusinessPartner286_default/protocol/report.o
 .text.get_first_key
                0x0000000000000000       0x4a .build/obj_PanasonicBusinessPartner286_default/protocol/report.o
 .text          0x0000000000000000        0x0 .build/obj_PanasonicBusinessPartner286_default/protocol/usb_device_state.o
 .data          0x0000000000000000        0x0 .build/obj_PanasonicBusinessPartner286_default/protocol/usb_device_state.o
 .bss           0x0000000000000000        0x0 .build/obj_PanasonicBusinessPartner286_default/protocol/usb_device_state.o
 .text          0x0000000000000000        0x0 .build/obj_PanasonicBusinessPartner286_default/protocol/usb_util.o
 .data          0x0000000000000000        0x0 .build/obj_PanasonicBusinessPartner286_default/protocol/usb_util.o
 .bss           0x0000000000000000        0x0 .build/obj_PanasonicBusinessPartner286_default/protocol/usb_util.o
 .text.usb_disconnect
                0x0000000000000000        0x2 .build/obj_PanasonicBusinessPartner286_default/protocol/usb_util.o
 .text.usb_connected_state
                0x0000000000000000        0x4 .build/obj_PanasonicBusinessPartner286_default/protocol/usb_util.o
 .text.usb_vbus_state
                0x0000000000000000        0x4 .build/obj_PanasonicBusinessPartner286_default/protocol/usb_util.o
 .debug_info    0x0000000000000000      0x7cc .build/obj_PanasonicBusinessPartner286_default/protocol/usb_util.o
 .debug_abbrev  0x0000000000000000      0x1da .build/obj_PanasonicBusinessPartner286_default/protocol/usb_util.o
 .debug_aranges
                0x0000000000000000       0x28 .build/obj_PanasonicBusinessPartner286_default/protocol/usb_util.o
 .debug_ranges  0x0000000000000000       0x18 .build/obj_PanasonicBusinessPartner286_default/protocol/usb_util.o
 .debug_line    0x0000000000000000      0x244 .build/obj_PanasonicBusinessPartner286_default/protocol/usb_util.o
 .debug_str     0x0000000000000000      0x6db .build/obj_PanasonicBusinessPartner286_default/protocol/usb_util.o
 .comment       0x0000000000000000       0x12 .build/obj_PanasonicBusinessPartner286_default/protocol/usb_util.o
 .debug_frame   0x0000000000000000       0x44 .build/obj_PanasonicBusinessPartner286_default/protocol/usb_util.o
 .text          0x0000000000000000        0x0 .build/obj_PanasonicBusinessPartner286_default/platforms/suspend.o
 .data          0x0000000000000000        0x0 .build/obj_PanasonicBusinessPartner286_default/platforms/suspend.o
 .bss           0x0000000000000000        0x0 .build/obj_PanasonicBusinessPartner286_default/platforms/suspend.o
 .text          0x0000000000000000        0x0 .build/obj_PanasonicBusinessPartner286_default/platforms/avr/platform.o
 .data          0x0000000000000000        0x0 .build/obj_PanasonicBusinessPartner286_default/platforms/avr/platform.o
 .bss           0x0000000000000000        0x0 .build/obj_PanasonicBusinessPartner286_default/platforms/avr/platform.o
 .text          0x0000000000000000        0x0 .build/obj_PanasonicBusinessPartner286_default/platforms/avr/suspend.o
 .data          0x0000000000000000        0x0 .build/obj_PanasonicBusinessPartner286_default/platforms/avr/suspend.o
 .bss           0x0000000000000000        0x0 .build/obj_PanasonicBusinessPartner286_default/platforms/avr/suspend.o
 .text          0x0000000000000000        0x0 .build/obj_PanasonicBusinessPartner286_default/platforms/avr/timer.o
 .data          0x0000000000000000        0x0 .build/obj_PanasonicBusinessPartner286_default/platforms/avr/timer.o
 .bss           0x0000000000000000        0x0 .build/obj_PanasonicBusinessPartner286_default/platforms/avr/timer.o
 .text.timer_clear
                0x0000000000000000       0x18 .build/obj_PanasonicBusinessPartner286_default/platforms/avr/timer.o
 .text.timer_elapsed32
                0x0000000000000000       0x38 .build/obj_PanasonicBusinessPartner286_default/platforms/avr/timer.o
 .text          0x0000000000000000        0x0 .build/obj_PanasonicBusinessPartner286_default/platforms/avr/bootloaders/halfkay.o
 .data          0x0000000000000000        0x0 .build/obj_PanasonicBusinessPartner286_default/platforms/avr/bootloaders/halfkay.o
 .bss           0x0000000000000000        0x0 .build/obj_PanasonicBusinessPartner286_default/platforms/avr/bootloaders/halfkay.o
 .text          0x0000000000000000        0x0 .build/obj_PanasonicBusinessPartner286_default/lufa.o
 .data          0x0000000000000000        0x0 .build/obj_PanasonicBusinessPartner286_default/lufa.o
 .bss           0x0000000000000000        0x0 .build/obj_PanasonicBusinessPartner286_default/lufa.o
 .text.send_digitizer
                0x0000000000000000        0x2 .build/obj_PanasonicBusinessPartner286_default/lufa.o
 .text          0x0000000000000000        0x0 .build/obj_PanasonicBusinessPartner286_default/usb_descriptor.o
 .data          0x0000000000000000        0x0 .build/obj_PanasonicBusinessPartner286_default/usb_descriptor.o
 .bss           0x0000000000000000        0x0 .build/obj_PanasonicBusinessPartner286_default/usb_descriptor.o
 .text          0x0000000000000000        0x0 .build/obj_PanasonicBusinessPartner286_default/lib/lufa/LUFA/Drivers/USB/Class/Common/HIDParser.o
 .data          0x0000000000000000        0x0 .build/obj_PanasonicBusinessPartner286_default/lib/lufa/LUFA/Drivers/USB/Class/Common/HIDParser.o
 .bss           0x0000000000000000        0x0 .build/obj_PanasonicBusinessPartner286_default/lib/lufa/LUFA/Drivers/USB/Class/Common/HIDParser.o
 .text.USB_ProcessHIDReport
                0x0000000000000000      0x6c0 .build/obj_PanasonicBusinessPartner286_default/lib/lufa/LUFA/Drivers/USB/Class/Common/HIDParser.o
 .text.USB_GetHIDReportItemInfo
                0x0000000000000000       0xc0 .build/obj_PanasonicBusinessPartner286_default/lib/lufa/LUFA/Drivers/USB/Class/Common/HIDParser.o
 .text.USB_SetHIDReportItemInfo
                0x0000000000000000       0xb6 .build/obj_PanasonicBusinessPartner286_default/lib/lufa/LUFA/Drivers/USB/Class/Common/HIDParser.o
 .text.USB_GetHIDReportSize
                0x0000000000000000       0x52 .build/obj_PanasonicBusinessPartner286_default/lib/lufa/LUFA/Drivers/USB/Class/Common/HIDParser.o
 .debug_info    0x0000000000000000      0x804 .build/obj_PanasonicBusinessPartner286_default/lib/lufa/LUFA/Drivers/USB/Class/Common/HIDParser.o
 .debug_abbrev  0x0000000000000000      0x253 .build/obj_PanasonicBusinessPartner286_default/lib/lufa/LUFA/Drivers/USB/Class/Common/HIDParser.o
 .debug_loc     0x0000000000000000      0xcd9 .build/obj_PanasonicBusinessPartner286_default/lib/lufa/LUFA/Drivers/USB/Class/Common/HIDParser.o
 .debug_aranges
                0x0000000000000000       0x38 .build/obj_PanasonicBusinessPartner286_default/lib/lufa/LUFA/Drivers/USB/Class/Common/HIDParser.o
 .debug_ranges  0x0000000000000000      0x100 .build/obj_PanasonicBusinessPartner286_default/lib/lufa/LUFA/Drivers/USB/Class/Common/HIDParser.o
 .debug_line    0x0000000000000000      0xdaa .build/obj_PanasonicBusinessPartner286_default/lib/lufa/LUFA/Drivers/USB/Class/Common/HIDParser.o
 .debug_str     0x0000000000000000      0x6c0 .build/obj_PanasonicBusinessPartner286_default/lib/lufa/LUFA/Drivers/USB/Class/Common/HIDParser.o
 .comment       0x0000000000000000       0x12 .build/obj_PanasonicBusinessPartner286_default/lib/lufa/LUFA/Drivers/USB/Class/Common/HIDParser.o
 .debug_frame   0x0000000000000000      0x114 .build/obj_PanasonicBusinessPartner286_default/lib/lufa/LUFA/Drivers/USB/Class/Common/HIDParser.o
 .text          0x0000000000000000        0x0 .build/obj_PanasonicBusinessPartner286_default/lib/lufa/LUFA/Drivers/USB/Core/AVR8/Device_AVR8.o
 .data          0x0000000000000000        0x0 .build/obj_PanasonicBusinessPartner286_default/lib/lufa/LUFA/Drivers/USB/Core/AVR8/Device_AVR8.o
 .bss           0x0000000000000000        0x0 .build/obj_PanasonicBusinessPartner286_default/lib/lufa/LUFA/Drivers/USB/Core/AVR8/Device_AVR8.o
 .text          0x0000000000000000        0x0 .build/obj_PanasonicBusinessPartner286_default/lib/lufa/LUFA/Drivers/USB/Core/AVR8/EndpointStream_AVR8.o
 .data          0x0000000000000000        0x0 .build/obj_PanasonicBusinessPartner286_default/lib/lufa/LUFA/Drivers/USB/Core/AVR8/EndpointStream_AVR8.o
 .bss           0x0000000000000000        0x0 .build/obj_PanasonicBusinessPartner286_default/lib/lufa/LUFA/Drivers/USB/Core/AVR8/EndpointStream_AVR8.o
 .text.Endpoint_Discard_Stream
                0x0000000000000000       0x78 .build/obj_PanasonicBusinessPartner286_default/lib/lufa/LUFA/Drivers/USB/Core/AVR8/EndpointStream_AVR8.o
 .text.Endpoint_Null_Stream
                0x0000000000000000       0x78 .build/obj_PanasonicBusinessPartner286_default/lib/lufa/LUFA/Drivers/USB/Core/AVR8/EndpointStream_AVR8.o
 .text.Endpoint_Write_Stream_BE
                0x0000000000000000       0xa8 .build/obj_PanasonicBusinessPartner286_default/lib/lufa/LUFA/Drivers/USB/Core/AVR8/EndpointStream_AVR8.o
 .text.Endpoint_Read_Stream_LE
                0x0000000000000000       0x9e .build/obj_PanasonicBusinessPartner286_default/lib/lufa/LUFA/Drivers/USB/Core/AVR8/EndpointStream_AVR8.o
 .text.Endpoint_Read_Stream_BE
                0x0000000000000000       0xa8 .build/obj_PanasonicBusinessPartner286_default/lib/lufa/LUFA/Drivers/USB/Core/AVR8/EndpointStream_AVR8.o
 .text.Endpoint_Write_PStream_LE
                0x0000000000000000       0xa0 .build/obj_PanasonicBusinessPartner286_default/lib/lufa/LUFA/Drivers/USB/Core/AVR8/EndpointStream_AVR8.o
 .text.Endpoint_Write_PStream_BE
                0x0000000000000000       0xaa .build/obj_PanasonicBusinessPartner286_default/lib/lufa/LUFA/Drivers/USB/Core/AVR8/EndpointStream_AVR8.o
 .text.Endpoint_Write_EStream_LE
                0x0000000000000000       0xa2 .build/obj_PanasonicBusinessPartner286_default/lib/lufa/LUFA/Drivers/USB/Core/AVR8/EndpointStream_AVR8.o
 .text.Endpoint_Write_EStream_BE
                0x0000000000000000       0xac .build/obj_PanasonicBusinessPartner286_default/lib/lufa/LUFA/Drivers/USB/Core/AVR8/EndpointStream_AVR8.o
 .text.Endpoint_Read_EStream_LE
                0x0000000000000000       0xa2 .build/obj_PanasonicBusinessPartner286_default/lib/lufa/LUFA/Drivers/USB/Core/AVR8/EndpointStream_AVR8.o
 .text.Endpoint_Read_EStream_BE
                0x0000000000000000       0xac .build/obj_PanasonicBusinessPartner286_default/lib/lufa/LUFA/Drivers/USB/Core/AVR8/EndpointStream_AVR8.o
 .text.Endpoint_Write_Control_Stream_BE
                0x0000000000000000       0xc6 .build/obj_PanasonicBusinessPartner286_default/lib/lufa/LUFA/Drivers/USB/Core/AVR8/EndpointStream_AVR8.o
 .text.Endpoint_Read_Control_Stream_LE
                0x0000000000000000       0x72 .build/obj_PanasonicBusinessPartner286_default/lib/lufa/LUFA/Drivers/USB/Core/AVR8/EndpointStream_AVR8.o
 .text.Endpoint_Read_Control_Stream_BE
                0x0000000000000000       0x7e .build/obj_PanasonicBusinessPartner286_default/lib/lufa/LUFA/Drivers/USB/Core/AVR8/EndpointStream_AVR8.o
 .text.Endpoint_Write_Control_PStream_BE
                0x0000000000000000       0xc2 .build/obj_PanasonicBusinessPartner286_default/lib/lufa/LUFA/Drivers/USB/Core/AVR8/EndpointStream_AVR8.o
 .text.Endpoint_Write_Control_EStream_LE
                0x0000000000000000       0xd6 .build/obj_PanasonicBusinessPartner286_default/lib/lufa/LUFA/Drivers/USB/Core/AVR8/EndpointStream_AVR8.o
 .text.Endpoint_Write_Control_EStream_BE
                0x0000000000000000       0xe2 .build/obj_PanasonicBusinessPartner286_default/lib/lufa/LUFA/Drivers/USB/Core/AVR8/EndpointStream_AVR8.o
 .text.Endpoint_Read_Control_EStream_LE
                0x0000000000000000       0x86 .build/obj_PanasonicBusinessPartner286_default/lib/lufa/LUFA/Drivers/USB/Core/AVR8/EndpointStream_AVR8.o
 .text.Endpoint_Read_Control_EStream_BE
                0x0000000000000000       0x8e .build/obj_PanasonicBusinessPartner286_default/lib/lufa/LUFA/Drivers/USB/Core/AVR8/EndpointStream_AVR8.o
 .text          0x0000000000000000        0x0 .build/obj_PanasonicBusinessPartner286_default/lib/lufa/LUFA/Drivers/USB/Core/AVR8/Endpoint_AVR8.o
 .data          0x0000000000000000        0x0 .build/obj_PanasonicBusinessPartner286_default/lib/lufa/LUFA/Drivers/USB/Core/AVR8/Endpoint_AVR8.o
 .bss           0x0000000000000000        0x0 .build/obj_PanasonicBusinessPartner286_default/lib/lufa/LUFA/Drivers/USB/Core/AVR8/Endpoint_AVR8.o
 .text.Endpoint_ConfigureEndpointTable
                0x0000000000000000       0x7a .build/obj_PanasonicBusinessPartner286_default/lib/lufa/LUFA/Drivers/USB/Core/AVR8/Endpoint_AVR8.o
 .text.Endpoint_ClearEndpoints
                0x0000000000000000       0x28 .build/obj_PanasonicBusinessPartner286_default/lib/lufa/LUFA/Drivers/USB/Core/AVR8/Endpoint_AVR8.o
 .text          0x0000000000000000        0x0 .build/obj_PanasonicBusinessPartner286_default/lib/lufa/LUFA/Drivers/USB/Core/AVR8/Host_AVR8.o
 .data          0x0000000000000000        0x0 .build/obj_PanasonicBusinessPartner286_default/lib/lufa/LUFA/Drivers/USB/Core/AVR8/Host_AVR8.o
 .bss           0x0000000000000000        0x0 .build/obj_PanasonicBusinessPartner286_default/lib/lufa/LUFA/Drivers/USB/Core/AVR8/Host_AVR8.o
 .debug_info    0x0000000000000000       0x56 .build/obj_PanasonicBusinessPartner286_default/lib/lufa/LUFA/Drivers/USB/Core/AVR8/Host_AVR8.o
 .debug_abbrev  0x0000000000000000       0x26 .build/obj_PanasonicBusinessPartner286_default/lib/lufa/LUFA/Drivers/USB/Core/AVR8/Host_AVR8.o
 .debug_aranges
                0x0000000000000000       0x18 .build/obj_PanasonicBusinessPartner286_default/lib/lufa/LUFA/Drivers/USB/Core/AVR8/Host_AVR8.o
 .debug_line    0x0000000000000000       0x1d .build/obj_PanasonicBusinessPartner286_default/lib/lufa/LUFA/Drivers/USB/Core/AVR8/Host_AVR8.o
 .debug_str     0x0000000000000000      0x1a4 .build/obj_PanasonicBusinessPartner286_default/lib/lufa/LUFA/Drivers/USB/Core/AVR8/Host_AVR8.o
 .comment       0x0000000000000000       0x12 .build/obj_PanasonicBusinessPartner286_default/lib/lufa/LUFA/Drivers/USB/Core/AVR8/Host_AVR8.o
 .text          0x0000000000000000        0x0 .build/obj_PanasonicBusinessPartner286_default/lib/lufa/LUFA/Drivers/USB/Core/AVR8/PipeStream_AVR8.o
 .data          0x0000000000000000        0x0 .build/obj_PanasonicBusinessPartner286_default/lib/lufa/LUFA/Drivers/USB/Core/AVR8/PipeStream_AVR8.o
 .bss           0x0000000000000000        0x0 .build/obj_PanasonicBusinessPartner286_default/lib/lufa/LUFA/Drivers/USB/Core/AVR8/PipeStream_AVR8.o
 .debug_info    0x0000000000000000       0x56 .build/obj_PanasonicBusinessPartner286_default/lib/lufa/LUFA/Drivers/USB/Core/AVR8/PipeStream_AVR8.o
 .debug_abbrev  0x0000000000000000       0x26 .build/obj_PanasonicBusinessPartner286_default/lib/lufa/LUFA/Drivers/USB/Core/AVR8/PipeStream_AVR8.o
 .debug_aranges
                0x0000000000000000       0x18 .build/obj_PanasonicBusinessPartner286_default/lib/lufa/LUFA/Drivers/USB/Core/AVR8/PipeStream_AVR8.o
 .debug_line    0x0000000000000000       0x1d .build/obj_PanasonicBusinessPartner286_default/lib/lufa/LUFA/Drivers/USB/Core/AVR8/PipeStream_AVR8.o
 .debug_str     0x0000000000000000      0x1aa .build/obj_PanasonicBusinessPartner286_default/lib/lufa/LUFA/Drivers/USB/Core/AVR8/PipeStream_AVR8.o
 .comment       0x0000000000000000       0x12 .build/obj_PanasonicBusinessPartner286_default/lib/lufa/LUFA/Drivers/USB/Core/AVR8/PipeStream_AVR8.o
 .text          0x0000000000000000        0x0 .build/obj_PanasonicBusinessPartner286_default/lib/lufa/LUFA/Drivers/USB/Core/AVR8/Pipe_AVR8.o
 .data          0x0000000000000000        0x0 .build/obj_PanasonicBusinessPartner286_default/lib/lufa/LUFA/Drivers/USB/Core/AVR8/Pipe_AVR8.o
 .bss           0x0000000000000000        0x0 .build/obj_PanasonicBusinessPartner286_default/lib/lufa/LUFA/Drivers/USB/Core/AVR8/Pipe_AVR8.o
 .debug_info    0x0000000000000000       0x56 .build/obj_PanasonicBusinessPartner286_default/lib/lufa/LUFA/Drivers/USB/Core/AVR8/Pipe_AVR8.o
 .debug_abbrev  0x0000000000000000       0x26 .build/obj_PanasonicBusinessPartner286_default/lib/lufa/LUFA/Drivers/USB/Core/AVR8/Pipe_AVR8.o
 .debug_aranges
                0x0000000000000000       0x18 .build/obj_PanasonicBusinessPartner286_default/lib/lufa/LUFA/Drivers/USB/Core/AVR8/Pipe_AVR8.o
 .debug_line    0x0000000000000000       0x1d .build/obj_PanasonicBusinessPartner286_default/lib/lufa/LUFA/Drivers/USB/Core/AVR8/Pipe_AVR8.o
 .debug_str     0x0000000000000000      0x1a4 .build/obj_PanasonicBusinessPartner286_default/lib/lufa/LUFA/Drivers/USB/Core/AVR8/Pipe_AVR8.o
 .comment       0x0000000000000000       0x12 .build/obj_PanasonicBusinessPartner286_default/lib/lufa/LUFA/Drivers/USB/Core/AVR8/Pipe_AVR8.o
 .text          0x0000000000000000        0x0 .build/obj_PanasonicBusinessPartner286_default/lib/lufa/LUFA/Drivers/USB/Core/AVR8/USBController_AVR8.o
 .data          0x0000000000000000        0x0 .build/obj_PanasonicBusinessPartner286_default/lib/lufa/LUFA/Drivers/USB/Core/AVR8/USBController_AVR8.o
 .bss           0x0000000000000000        0x0 .build/obj_PanasonicBusinessPartner286_default/lib/lufa/LUFA/Drivers/USB/Core/AVR8/USBController_AVR8.o
 .text          0x0000000000000000        0x0 .build/obj_PanasonicBusinessPartner286_default/lib/lufa/LUFA/Drivers/USB/Core/AVR8/USBInterrupt_AVR8.o
 .data          0x0000000000000000        0x0 .build/obj_PanasonicBusinessPartner286_default/lib/lufa/LUFA/Drivers/USB/Core/AVR8/USBInterrupt_AVR8.o
 .bss           0x0000000000000000        0x0 .build/obj_PanasonicBusinessPartner286_default/lib/lufa/LUFA/Drivers/USB/Core/AVR8/USBInterrupt_AVR8.o
 .text          0x0000000000000000        0x0 .build/obj_PanasonicBusinessPartner286_default/lib/lufa/LUFA/Drivers/USB/Core/ConfigDescriptors.o
 .data          0x0000000000000000        0x0 .build/obj_PanasonicBusinessPartner286_default/lib/lufa/LUFA/Drivers/USB/Core/ConfigDescriptors.o
 .bss           0x0000000000000000        0x0 .build/obj_PanasonicBusinessPartner286_default/lib/lufa/LUFA/Drivers/USB/Core/ConfigDescriptors.o
 .text.USB_GetNextDescriptor
                0x0000000000000000       0x3c .build/obj_PanasonicBusinessPartner286_default/lib/lufa/LUFA/Drivers/USB/Core/ConfigDescriptors.o
 .text.USB_GetNextDescriptorOfType
                0x0000000000000000       0x38 .build/obj_PanasonicBusinessPartner286_default/lib/lufa/LUFA/Drivers/USB/Core/ConfigDescriptors.o
 .text.USB_GetNextDescriptorOfTypeBefore
                0x0000000000000000       0x46 .build/obj_PanasonicBusinessPartner286_default/lib/lufa/LUFA/Drivers/USB/Core/ConfigDescriptors.o
 .text.USB_GetNextDescriptorOfTypeAfter
                0x0000000000000000       0x3e .build/obj_PanasonicBusinessPartner286_default/lib/lufa/LUFA/Drivers/USB/Core/ConfigDescriptors.o
 .text.USB_GetNextDescriptorComp
                0x0000000000000000       0x66 .build/obj_PanasonicBusinessPartner286_default/lib/lufa/LUFA/Drivers/USB/Core/ConfigDescriptors.o
 .debug_info    0x0000000000000000      0x50f .build/obj_PanasonicBusinessPartner286_default/lib/lufa/LUFA/Drivers/USB/Core/ConfigDescriptors.o
 .debug_abbrev  0x0000000000000000      0x1e5 .build/obj_PanasonicBusinessPartner286_default/lib/lufa/LUFA/Drivers/USB/Core/ConfigDescriptors.o
 .debug_loc     0x0000000000000000      0x611 .build/obj_PanasonicBusinessPartner286_default/lib/lufa/LUFA/Drivers/USB/Core/ConfigDescriptors.o
 .debug_aranges
                0x0000000000000000       0x40 .build/obj_PanasonicBusinessPartner286_default/lib/lufa/LUFA/Drivers/USB/Core/ConfigDescriptors.o
 .debug_ranges  0x0000000000000000       0x30 .build/obj_PanasonicBusinessPartner286_default/lib/lufa/LUFA/Drivers/USB/Core/ConfigDescriptors.o
 .debug_line    0x0000000000000000      0x3d5 .build/obj_PanasonicBusinessPartner286_default/lib/lufa/LUFA/Drivers/USB/Core/ConfigDescriptors.o
 .debug_str     0x0000000000000000      0x4dc .build/obj_PanasonicBusinessPartner286_default/lib/lufa/LUFA/Drivers/USB/Core/ConfigDescriptors.o
 .comment       0x0000000000000000       0x12 .build/obj_PanasonicBusinessPartner286_default/lib/lufa/LUFA/Drivers/USB/Core/ConfigDescriptors.o
 .debug_frame   0x0000000000000000       0xfc .build/obj_PanasonicBusinessPartner286_default/lib/lufa/LUFA/Drivers/USB/Core/ConfigDescriptors.o
 .text          0x0000000000000000        0x0 .build/obj_PanasonicBusinessPartner286_default/lib/lufa/LUFA/Drivers/USB/Core/DeviceStandardReq.o
 .data          0x0000000000000000        0x0 .build/obj_PanasonicBusinessPartner286_default/lib/lufa/LUFA/Drivers/USB/Core/DeviceStandardReq.o
 .bss           0x0000000000000000        0x0 .build/obj_PanasonicBusinessPartner286_default/lib/lufa/LUFA/Drivers/USB/Core/DeviceStandardReq.o
 .text          0x0000000000000000        0x0 .build/obj_PanasonicBusinessPartner286_default/lib/lufa/LUFA/Drivers/USB/Core/Events.o
 .data          0x0000000000000000        0x0 .build/obj_PanasonicBusinessPartner286_default/lib/lufa/LUFA/Drivers/USB/Core/Events.o
 .bss           0x0000000000000000        0x0 .build/obj_PanasonicBusinessPartner286_default/lib/lufa/LUFA/Drivers/USB/Core/Events.o
 .text.USB_Event_Stub_2
                0x0000000000000000        0x2 .build/obj_PanasonicBusinessPartner286_default/lib/lufa/LUFA/Drivers/USB/Core/Events.o
 .text.USB_Event_Stub_3
                0x0000000000000000        0x2 .build/obj_PanasonicBusinessPartner286_default/lib/lufa/LUFA/Drivers/USB/Core/Events.o
 .text          0x0000000000000000        0x0 .build/obj_PanasonicBusinessPartner286_default/lib/lufa/LUFA/Drivers/USB/Core/HostStandardReq.o
 .data          0x0000000000000000        0x0 .build/obj_PanasonicBusinessPartner286_default/lib/lufa/LUFA/Drivers/USB/Core/HostStandardReq.o
 .bss           0x0000000000000000        0x0 .build/obj_PanasonicBusinessPartner286_default/lib/lufa/LUFA/Drivers/USB/Core/HostStandardReq.o
 .debug_info    0x0000000000000000       0x56 .build/obj_PanasonicBusinessPartner286_default/lib/lufa/LUFA/Drivers/USB/Core/HostStandardReq.o
 .debug_abbrev  0x0000000000000000       0x26 .build/obj_PanasonicBusinessPartner286_default/lib/lufa/LUFA/Drivers/USB/Core/HostStandardReq.o
 .debug_aranges
                0x0000000000000000       0x18 .build/obj_PanasonicBusinessPartner286_default/lib/lufa/LUFA/Drivers/USB/Core/HostStandardReq.o
 .debug_line    0x0000000000000000       0x1d .build/obj_PanasonicBusinessPartner286_default/lib/lufa/LUFA/Drivers/USB/Core/HostStandardReq.o
 .debug_str     0x0000000000000000      0x1a5 .build/obj_PanasonicBusinessPartner286_default/lib/lufa/LUFA/Drivers/USB/Core/HostStandardReq.o
 .comment       0x0000000000000000       0x12 .build/obj_PanasonicBusinessPartner286_default/lib/lufa/LUFA/Drivers/USB/Core/HostStandardReq.o
 .text          0x0000000000000000        0x0 .build/obj_PanasonicBusinessPartner286_default/lib/lufa/LUFA/Drivers/USB/Core/USBTask.o
 .data          0x0000000000000000        0x0 .build/obj_PanasonicBusinessPartner286_default/lib/lufa/LUFA/Drivers/USB/Core/USBTask.o
 .bss           0x0000000000000000        0x0 .build/obj_PanasonicBusinessPartner286_default/lib/lufa/LUFA/Drivers/USB/Core/USBTask.o
 .text          0x0000000000000000        0x0 .build/obj_PanasonicBusinessPartner286_default/protocol/lufa/usb_util.o
 .data          0x0000000000000000        0x0 .build/obj_PanasonicBusinessPartner286_default/protocol/lufa/usb_util.o
 .bss           0x0000000000000000        0x0 .build/obj_PanasonicBusinessPartner286_default/protocol/lufa/usb_util.o
 .text.usb_disconnect
                0x0000000000000000        0xa .build/obj_PanasonicBusinessPartner286_default/protocol/lufa/usb_util.o
 .text.usb_connected_state
                0x0000000000000000        0xc .build/obj_PanasonicBusinessPartner286_default/protocol/lufa/usb_util.o
 .text.usb_vbus_state
                0x0000000000000000       0x1a .build/obj_PanasonicBusinessPartner286_default/protocol/lufa/usb_util.o
 .debug_info    0x0000000000000000      0x416 .build/obj_PanasonicBusinessPartner286_default/protocol/lufa/usb_util.o
 .debug_abbrev  0x0000000000000000      0x260 .build/obj_PanasonicBusinessPartner286_default/protocol/lufa/usb_util.o
 .debug_loc     0x0000000000000000       0x4b .build/obj_PanasonicBusinessPartner286_default/protocol/lufa/usb_util.o
 .debug_aranges
                0x0000000000000000       0x30 .build/obj_PanasonicBusinessPartner286_default/protocol/lufa/usb_util.o
 .debug_ranges  0x0000000000000000       0x38 .build/obj_PanasonicBusinessPartner286_default/protocol/lufa/usb_util.o
 .debug_line    0x0000000000000000      0x2f2 .build/obj_PanasonicBusinessPartner286_default/protocol/lufa/usb_util.o
 .debug_str     0x0000000000000000      0x42b .build/obj_PanasonicBusinessPartner286_default/protocol/lufa/usb_util.o
 .comment       0x0000000000000000       0x12 .build/obj_PanasonicBusinessPartner286_default/protocol/lufa/usb_util.o
 .debug_frame   0x0000000000000000       0x44 .build/obj_PanasonicBusinessPartner286_default/protocol/lufa/usb_util.o
 .text          0x0000000000000000        0x0 /usr/lib/gcc/avr/8.3.0/../../../../avr/lib/avr51/libm.a(fixunssfsi.o)
 .data          0x0000000000000000        0x0 /usr/lib/gcc/avr/8.3.0/../../../../avr/lib/avr51/libm.a(fixunssfsi.o)
 .bss           0x0000000000000000        0x0 /usr/lib/gcc/avr/8.3.0/../../../../avr/lib/avr51/libm.a(fixunssfsi.o)
 .text.avr-libc.fplib
                0x0000000000000000       0x5e /usr/lib/gcc/avr/8.3.0/../../../../avr/lib/avr51/libm.a(fixunssfsi.o)
 .text          0x0000000000000000        0x0 /usr/lib/gcc/avr/8.3.0/../../../../avr/lib/avr51/libm.a(fp_split3.o)
 .data          0x0000000000000000        0x0 /usr/lib/gcc/avr/8.3.0/../../../../avr/lib/avr51/libm.a(fp_split3.o)
 .bss           0x0000000000000000        0x0 /usr/lib/gcc/avr/8.3.0/../../../../avr/lib/avr51/libm.a(fp_split3.o)
 .text.avr-libc.fplib
                0x0000000000000000       0x44 /usr/lib/gcc/avr/8.3.0/../../../../avr/lib/avr51/libm.a(fp_split3.o)
 .text          0x0000000000000000        0x0 /usr/lib/gcc/avr/8.3.0/../../../../avr/lib/avr51/libm.a(fp_zero.o)
 .data          0x0000000000000000        0x0 /usr/lib/gcc/avr/8.3.0/../../../../avr/lib/avr51/libm.a(fp_zero.o)
 .bss           0x0000000000000000        0x0 /usr/lib/gcc/avr/8.3.0/../../../../avr/lib/avr51/libm.a(fp_zero.o)
 .text.avr-libc.fplib
                0x0000000000000000        0xe /usr/lib/gcc/avr/8.3.0/../../../../avr/lib/avr51/libm.a(fp_zero.o)
 .text          0x0000000000000000        0x0 /usr/lib/gcc/avr/8.3.0/../../../../avr/lib/avr51/libm.a(mulsf3.o)
 .data          0x0000000000000000        0x0 /usr/lib/gcc/avr/8.3.0/../../../../avr/lib/avr51/libm.a(mulsf3.o)
 .bss           0x0000000000000000        0x0 /usr/lib/gcc/avr/8.3.0/../../../../avr/lib/avr51/libm.a(mulsf3.o)
 .text.avr-libc.fplib
                0x0000000000000000        0x8 /usr/lib/gcc/avr/8.3.0/../../../../avr/lib/avr51/libm.a(mulsf3.o)
 .text          0x0000000000000000        0x0 /usr/lib/gcc/avr/8.3.0/../../../../avr/lib/avr51/libm.a(mulsf3x.o)
 .data          0x0000000000000000        0x0 /usr/lib/gcc/avr/8.3.0/../../../../avr/lib/avr51/libm.a(mulsf3x.o)
 .bss           0x0000000000000000        0x0 /usr/lib/gcc/avr/8.3.0/../../../../avr/lib/avr51/libm.a(mulsf3x.o)
 .text.avr-libc.fplib
                0x0000000000000000       0xd2 /usr/lib/gcc/avr/8.3.0/../../../../avr/lib/avr51/libm.a(mulsf3x.o)
 .text          0x0000000000000000        0x0 /usr/lib/gcc/avr/8.3.0/../../../../avr/lib/avr51/libm.a(fp_inf.o)
 .data          0x0000000000000000        0x0 /usr/lib/gcc/avr/8.3.0/../../../../avr/lib/avr51/libm.a(fp_inf.o)
 .bss           0x0000000000000000        0x0 /usr/lib/gcc/avr/8.3.0/../../../../avr/lib/avr51/libm.a(fp_inf.o)
 .text.avr-libc.fplib
                0x0000000000000000        0xc /usr/lib/gcc/avr/8.3.0/../../../../avr/lib/avr51/libm.a(fp_inf.o)
 .text          0x0000000000000000        0x0 /usr/lib/gcc/avr/8.3.0/../../../../avr/lib/avr51/libm.a(fp_nan.o)
 .data          0x0000000000000000        0x0 /usr/lib/gcc/avr/8.3.0/../../../../avr/lib/avr51/libm.a(fp_nan.o)
 .bss           0x0000000000000000        0x0 /usr/lib/gcc/avr/8.3.0/../../../../avr/lib/avr51/libm.a(fp_nan.o)
 .text.avr-libc.fplib
                0x0000000000000000        0x6 /usr/lib/gcc/avr/8.3.0/../../../../avr/lib/avr51/libm.a(fp_nan.o)
 .text          0x0000000000000000        0x0 /usr/lib/gcc/avr/8.3.0/../../../../avr/lib/avr51/libm.a(fp_pscA.o)
 .data          0x0000000000000000        0x0 /usr/lib/gcc/avr/8.3.0/../../../../avr/lib/avr51/libm.a(fp_pscA.o)
 .bss           0x0000000000000000        0x0 /usr/lib/gcc/avr/8.3.0/../../../../avr/lib/avr51/libm.a(fp_pscA.o)
 .text.avr-libc.fplib
                0x0000000000000000        0xe /usr/lib/gcc/avr/8.3.0/../../../../avr/lib/avr51/libm.a(fp_pscA.o)
 .text          0x0000000000000000        0x0 /usr/lib/gcc/avr/8.3.0/../../../../avr/lib/avr51/libm.a(fp_pscB.o)
 .data          0x0000000000000000        0x0 /usr/lib/gcc/avr/8.3.0/../../../../avr/lib/avr51/libm.a(fp_pscB.o)
 .bss           0x0000000000000000        0x0 /usr/lib/gcc/avr/8.3.0/../../../../avr/lib/avr51/libm.a(fp_pscB.o)
 .text.avr-libc.fplib
                0x0000000000000000        0xe /usr/lib/gcc/avr/8.3.0/../../../../avr/lib/avr51/libm.a(fp_pscB.o)
 .text          0x0000000000000000        0x0 /usr/lib/gcc/avr/8.3.0/../../../../avr/lib/avr51/libm.a(fp_round.o)
 .data          0x0000000000000000        0x0 /usr/lib/gcc/avr/8.3.0/../../../../avr/lib/avr51/libm.a(fp_round.o)
 .bss           0x0000000000000000        0x0 /usr/lib/gcc/avr/8.3.0/../../../../avr/lib/avr51/libm.a(fp_round.o)
 .text.avr-libc.fplib
                0x0000000000000000       0x22 /usr/lib/gcc/avr/8.3.0/../../../../avr/lib/avr51/libm.a(fp_round.o)
 .text          0x0000000000000000        0x0 /usr/lib/gcc/avr/8.3.0/avr51/libgcc.a(_divmodhi4.o)
 .data          0x0000000000000000        0x0 /usr/lib/gcc/avr/8.3.0/avr51/libgcc.a(_divmodhi4.o)
 .bss           0x0000000000000000        0x0 /usr/lib/gcc/avr/8.3.0/avr51/libgcc.a(_divmodhi4.o)
 .text.libgcc.mul
                0x0000000000000000        0x0 /usr/lib/gcc/avr/8.3.0/avr51/libgcc.a(_divmodhi4.o)
 .text.libgcc   0x0000000000000000        0x0 /usr/lib/gcc/avr/8.3.0/avr51/libgcc.a(_divmodhi4.o)
 .text.libgcc.prologue
                0x0000000000000000        0x0 /usr/lib/gcc/avr/8.3.0/avr51/libgcc.a(_divmodhi4.o)
 .text.libgcc.builtins
                0x0000000000000000        0x0 /usr/lib/gcc/avr/8.3.0/avr51/libgcc.a(_divmodhi4.o)
 .text.libgcc.fmul
                0x0000000000000000        0x0 /usr/lib/gcc/avr/8.3.0/avr51/libgcc.a(_divmodhi4.o)
 .text.libgcc.fixed
                0x0000000000000000        0x0 /usr/lib/gcc/avr/8.3.0/avr51/libgcc.a(_divmodhi4.o)
 .text          0x0000000000000000        0x0 /usr/lib/gcc/avr/8.3.0/avr51/libgcc.a(_udivmodsi4.o)
 .data          0x0000000000000000        0x0 /usr/lib/gcc/avr/8.3.0/avr51/libgcc.a(_udivmodsi4.o)
 .bss           0x0000000000000000        0x0 /usr/lib/gcc/avr/8.3.0/avr51/libgcc.a(_udivmodsi4.o)
 .text.libgcc.mul
                0x0000000000000000        0x0 /usr/lib/gcc/avr/8.3.0/avr51/libgcc.a(_udivmodsi4.o)
 .text.libgcc.div
                0x0000000000000000       0x44 /usr/lib/gcc/avr/8.3.0/avr51/libgcc.a(_udivmodsi4.o)
 .text.libgcc   0x0000000000000000        0x0 /usr/lib/gcc/avr/8.3.0/avr51/libgcc.a(_udivmodsi4.o)
 .text.libgcc.prologue
                0x0000000000000000        0x0 /usr/lib/gcc/avr/8.3.0/avr51/libgcc.a(_udivmodsi4.o)
 .text.libgcc.builtins
                0x0000000000000000        0x0 /usr/lib/gcc/avr/8.3.0/avr51/libgcc.a(_udivmodsi4.o)
 .text.libgcc.fmul
                0x0000000000000000        0x0 /usr/lib/gcc/avr/8.3.0/avr51/libgcc.a(_udivmodsi4.o)
 .text.libgcc.fixed
                0x0000000000000000        0x0 /usr/lib/gcc/avr/8.3.0/avr51/libgcc.a(_udivmodsi4.o)
 .text          0x0000000000000000        0x0 /usr/lib/gcc/avr/8.3.0/avr51/libgcc.a(_exit.o)
 .data          0x0000000000000000        0x0 /usr/lib/gcc/avr/8.3.0/avr51/libgcc.a(_exit.o)
 .bss           0x0000000000000000        0x0 /usr/lib/gcc/avr/8.3.0/avr51/libgcc.a(_exit.o)
 .text.libgcc.mul
                0x0000000000000000        0x0 /usr/lib/gcc/avr/8.3.0/avr51/libgcc.a(_exit.o)
 .text.libgcc.div
                0x0000000000000000        0x0 /usr/lib/gcc/avr/8.3.0/avr51/libgcc.a(_exit.o)
 .text.libgcc   0x0000000000000000        0x0 /usr/lib/gcc/avr/8.3.0/avr51/libgcc.a(_exit.o)
 .text.libgcc.prologue
                0x0000000000000000        0x0 /usr/lib/gcc/avr/8.3.0/avr51/libgcc.a(_exit.o)
 .text.libgcc.builtins
                0x0000000000000000        0x0 /usr/lib/gcc/avr/8.3.0/avr51/libgcc.a(_exit.o)
 .text.libgcc.fmul
                0x0000000000000000        0x0 /usr/lib/gcc/avr/8.3.0/avr51/libgcc.a(_exit.o)
 .text.libgcc.fixed
                0x0000000000000000        0x0 /usr/lib/gcc/avr/8.3.0/avr51/libgcc.a(_exit.o)
 .text          0x0000000000000000        0x0 /usr/lib/gcc/avr/8.3.0/avr51/libgcc.a(_tablejump2.o)
 .data          0x0000000000000000        0x0 /usr/lib/gcc/avr/8.3.0/avr51/libgcc.a(_tablejump2.o)
 .bss           0x0000000000000000        0x0 /usr/lib/gcc/avr/8.3.0/avr51/libgcc.a(_tablejump2.o)
 .text.libgcc.mul
                0x0000000000000000        0x0 /usr/lib/gcc/avr/8.3.0/avr51/libgcc.a(_tablejump2.o)
 .text.libgcc.div
                0x0000000000000000        0x0 /usr/lib/gcc/avr/8.3.0/avr51/libgcc.a(_tablejump2.o)
 .text.libgcc.prologue
                0x0000000000000000        0x0 /usr/lib/gcc/avr/8.3.0/avr51/libgcc.a(_tablejump2.o)
 .text.libgcc.builtins
                0x0000000000000000        0x0 /usr/lib/gcc/avr/8.3.0/avr51/libgcc.a(_tablejump2.o)
 .text.libgcc.fmul
                0x0000000000000000        0x0 /usr/lib/gcc/avr/8.3.0/avr51/libgcc.a(_tablejump2.o)
 .text.libgcc.fixed
                0x0000000000000000        0x0 /usr/lib/gcc/avr/8.3.0/avr51/libgcc.a(_tablejump2.o)
 .text          0x0000000000000000        0x0 /usr/lib/gcc/avr/8.3.0/avr51/libgcc.a(_copy_data.o)
 .data          0x0000000000000000        0x0 /usr/lib/gcc/avr/8.3.0/avr51/libgcc.a(_copy_data.o)
 .bss           0x0000000000000000        0x0 /usr/lib/gcc/avr/8.3.0/avr51/libgcc.a(_copy_data.o)
 .text.libgcc.mul
                0x0000000000000000        0x0 /usr/lib/gcc/avr/8.3.0/avr51/libgcc.a(_copy_data.o)
 .text.libgcc.div
                0x0000000000000000        0x0 /usr/lib/gcc/avr/8.3.0/avr51/libgcc.a(_copy_data.o)
 .text.libgcc   0x0000000000000000        0x0 /usr/lib/gcc/avr/8.3.0/avr51/libgcc.a(_copy_data.o)
 .text.libgcc.prologue
                0x0000000000000000        0x0 /usr/lib/gcc/avr/8.3.0/avr51/libgcc.a(_copy_data.o)
 .text.libgcc.builtins
                0x0000000000000000        0x0 /usr/lib/gcc/avr/8.3.0/avr51/libgcc.a(_copy_data.o)
 .text.libgcc.fmul
                0x0000000000000000        0x0 /usr/lib/gcc/avr/8.3.0/avr51/libgcc.a(_copy_data.o)
 .text.libgcc.fixed
                0x0000000000000000        0x0 /usr/lib/gcc/avr/8.3.0/avr51/libgcc.a(_copy_data.o)
 .text          0x0000000000000000        0x0 /usr/lib/gcc/avr/8.3.0/avr51/libgcc.a(_clear_bss.o)
 .data          0x0000000000000000        0x0 /usr/lib/gcc/avr/8.3.0/avr51/libgcc.a(_clear_bss.o)
 .bss           0x0000000000000000        0x0 /usr/lib/gcc/avr/8.3.0/avr51/libgcc.a(_clear_bss.o)
 .text.libgcc.mul
                0x0000000000000000        0x0 /usr/lib/gcc/avr/8.3.0/avr51/libgcc.a(_clear_bss.o)
 .text.libgcc.div
                0x0000000000000000        0x0 /usr/lib/gcc/avr/8.3.0/avr51/libgcc.a(_clear_bss.o)
 .text.libgcc   0x0000000000000000        0x0 /usr/lib/gcc/avr/8.3.0/avr51/libgcc.a(_clear_bss.o)
 .text.libgcc.prologue
                0x0000000000000000        0x0 /usr/lib/gcc/avr/8.3.0/avr51/libgcc.a(_clear_bss.o)
 .text.libgcc.builtins
                0x0000000000000000        0x0 /usr/lib/gcc/avr/8.3.0/avr51/libgcc.a(_clear_bss.o)
 .text.libgcc.fmul
                0x0000000000000000        0x0 /usr/lib/gcc/avr/8.3.0/avr51/libgcc.a(_clear_bss.o)
 .text.libgcc.fixed
                0x0000000000000000        0x0 /usr/lib/gcc/avr/8.3.0/avr51/libgcc.a(_clear_bss.o)
 .text          0x0000000000000000        0x0 /usr/lib/gcc/avr/8.3.0/avr51/libgcc.a(_udivmodhi4.o)
 .data          0x0000000000000000        0x0 /usr/lib/gcc/avr/8.3.0/avr51/libgcc.a(_udivmodhi4.o)
 .bss           0x0000000000000000        0x0 /usr/lib/gcc/avr/8.3.0/avr51/libgcc.a(_udivmodhi4.o)
 .text.libgcc.mul
                0x0000000000000000        0x0 /usr/lib/gcc/avr/8.3.0/avr51/libgcc.a(_udivmodhi4.o)
 .text.libgcc   0x0000000000000000        0x0 /usr/lib/gcc/avr/8.3.0/avr51/libgcc.a(_udivmodhi4.o)
 .text.libgcc.prologue
                0x0000000000000000        0x0 /usr/lib/gcc/avr/8.3.0/avr51/libgcc.a(_udivmodhi4.o)
 .text.libgcc.builtins
                0x0000000000000000        0x0 /usr/lib/gcc/avr/8.3.0/avr51/libgcc.a(_udivmodhi4.o)
 .text.libgcc.fmul
                0x0000000000000000        0x0 /usr/lib/gcc/avr/8.3.0/avr51/libgcc.a(_udivmodhi4.o)
 .text.libgcc.fixed
                0x0000000000000000        0x0 /usr/lib/gcc/avr/8.3.0/avr51/libgcc.a(_udivmodhi4.o)
 .text          0x0000000000000000        0x0 /usr/lib/gcc/avr/8.3.0/../../../../avr/lib/avr51/libc.a(rand.o)
 .data          0x0000000000000000        0x4 /usr/lib/gcc/avr/8.3.0/../../../../avr/lib/avr51/libc.a(rand.o)
 .bss           0x0000000000000000        0x0 /usr/lib/gcc/avr/8.3.0/../../../../avr/lib/avr51/libc.a(rand.o)
 .text.avr-libc
                0x0000000000000000       0xec /usr/lib/gcc/avr/8.3.0/../../../../avr/lib/avr51/libc.a(rand.o)
 .comment       0x0000000000000000       0x13 /usr/lib/gcc/avr/8.3.0/../../../../avr/lib/avr51/libc.a(rand.o)
 .text          0x0000000000000000        0x0 /usr/lib/gcc/avr/8.3.0/../../../../avr/lib/avr51/libc.a(memcmp.o)
 .data          0x0000000000000000        0x0 /usr/lib/gcc/avr/8.3.0/../../../../avr/lib/avr51/libc.a(memcmp.o)
 .bss           0x0000000000000000        0x0 /usr/lib/gcc/avr/8.3.0/../../../../avr/lib/avr51/libc.a(memcmp.o)
 .text          0x0000000000000000        0x0 /usr/lib/gcc/avr/8.3.0/../../../../avr/lib/avr51/libat90usb1286.a(eerd_byte.o)
 .data          0x0000000000000000        0x0 /usr/lib/gcc/avr/8.3.0/../../../../avr/lib/avr51/libat90usb1286.a(eerd_byte.o)
 .bss           0x0000000000000000        0x0 /usr/lib/gcc/avr/8.3.0/../../../../avr/lib/avr51/libat90usb1286.a(eerd_byte.o)
 .text          0x0000000000000000        0x0 /usr/lib/gcc/avr/8.3.0/../../../../avr/lib/avr51/libat90usb1286.a(eerd_dword.o)
 .data          0x0000000000000000        0x0 /usr/lib/gcc/avr/8.3.0/../../../../avr/lib/avr51/libat90usb1286.a(eerd_dword.o)
 .bss           0x0000000000000000        0x0 /usr/lib/gcc/avr/8.3.0/../../../../avr/lib/avr51/libat90usb1286.a(eerd_dword.o)
 .text.avr-libc
                0x0000000000000000        0xc /usr/lib/gcc/avr/8.3.0/../../../../avr/lib/avr51/libat90usb1286.a(eerd_dword.o)
 .text          0x0000000000000000        0x0 /usr/lib/gcc/avr/8.3.0/../../../../avr/lib/avr51/libat90usb1286.a(eerd_word.o)
 .data          0x0000000000000000        0x0 /usr/lib/gcc/avr/8.3.0/../../../../avr/lib/avr51/libat90usb1286.a(eerd_word.o)
 .bss           0x0000000000000000        0x0 /usr/lib/gcc/avr/8.3.0/../../../../avr/lib/avr51/libat90usb1286.a(eerd_word.o)
 .text          0x0000000000000000        0x0 /usr/lib/gcc/avr/8.3.0/../../../../avr/lib/avr51/libat90usb1286.a(eeupd_byte.o)
 .data          0x0000000000000000        0x0 /usr/lib/gcc/avr/8.3.0/../../../../avr/lib/avr51/libat90usb1286.a(eeupd_byte.o)
 .bss           0x0000000000000000        0x0 /usr/lib/gcc/avr/8.3.0/../../../../avr/lib/avr51/libat90usb1286.a(eeupd_byte.o)
 .text          0x0000000000000000        0x0 /usr/lib/gcc/avr/8.3.0/../../../../avr/lib/avr51/libat90usb1286.a(eeupd_dword.o)
 .data          0x0000000000000000        0x0 /usr/lib/gcc/avr/8.3.0/../../../../avr/lib/avr51/libat90usb1286.a(eeupd_dword.o)
 .bss           0x0000000000000000        0x0 /usr/lib/gcc/avr/8.3.0/../../../../avr/lib/avr51/libat90usb1286.a(eeupd_dword.o)
 .text          0x0000000000000000        0x0 /usr/lib/gcc/avr/8.3.0/../../../../avr/lib/avr51/libat90usb1286.a(eeupd_word.o)
 .data          0x0000000000000000        0x0 /usr/lib/gcc/avr/8.3.0/../../../../avr/lib/avr51/libat90usb1286.a(eeupd_word.o)
 .bss           0x0000000000000000        0x0 /usr/lib/gcc/avr/8.3.0/../../../../avr/lib/avr51/libat90usb1286.a(eeupd_word.o)
 .text          0x0000000000000000        0x0 /usr/lib/gcc/avr/8.3.0/../../../../avr/lib/avr51/libat90usb1286.a(eerd_block.o)
 .data          0x0000000000000000        0x0 /usr/lib/gcc/avr/8.3.0/../../../../avr/lib/avr51/libat90usb1286.a(eerd_block.o)
 .bss           0x0000000000000000        0x0 /usr/lib/gcc/avr/8.3.0/../../../../avr/lib/avr51/libat90usb1286.a(eerd_block.o)
 .text          0x0000000000000000        0x0 /usr/lib/gcc/avr/8.3.0/avr51/libgcc.a(_divmodsi4.o)
 .data          0x0000000000000000        0x0 /usr/lib/gcc/avr/8.3.0/avr51/libgcc.a(_divmodsi4.o)
 .bss           0x0000000000000000        0x0 /usr/lib/gcc/avr/8.3.0/avr51/libgcc.a(_divmodsi4.o)
 .text.libgcc.mul
                0x0000000000000000        0x0 /usr/lib/gcc/avr/8.3.0/avr51/libgcc.a(_divmodsi4.o)
 .text.libgcc.div
                0x0000000000000000       0x2e /usr/lib/gcc/avr/8.3.0/avr51/libgcc.a(_divmodsi4.o)
 .text.libgcc   0x0000000000000000        0x0 /usr/lib/gcc/avr/8.3.0/avr51/libgcc.a(_divmodsi4.o)
 .text.libgcc.prologue
                0x0000000000000000        0x0 /usr/lib/gcc/avr/8.3.0/avr51/libgcc.a(_divmodsi4.o)
 .text.libgcc.builtins
                0x0000000000000000        0x0 /usr/lib/gcc/avr/8.3.0/avr51/libgcc.a(_divmodsi4.o)
 .text.libgcc.fmul
                0x0000000000000000        0x0 /usr/lib/gcc/avr/8.3.0/avr51/libgcc.a(_divmodsi4.o)
 .text.libgcc.fixed
                0x0000000000000000        0x0 /usr/lib/gcc/avr/8.3.0/avr51/libgcc.a(_divmodsi4.o)
 .text          0x0000000000000000        0x0 /usr/lib/gcc/avr/8.3.0/avr51/libgcc.a(_negsi2.o)
 .data          0x0000000000000000        0x0 /usr/lib/gcc/avr/8.3.0/avr51/libgcc.a(_negsi2.o)
 .bss           0x0000000000000000        0x0 /usr/lib/gcc/avr/8.3.0/avr51/libgcc.a(_negsi2.o)
 .text.libgcc.mul
                0x0000000000000000        0x0 /usr/lib/gcc/avr/8.3.0/avr51/libgcc.a(_negsi2.o)
 .text.libgcc.div
                0x0000000000000000       0x10 /usr/lib/gcc/avr/8.3.0/avr51/libgcc.a(_negsi2.o)
 .text.libgcc   0x0000000000000000        0x0 /usr/lib/gcc/avr/8.3.0/avr51/libgcc.a(_negsi2.o)
 .text.libgcc.prologue
                0x0000000000000000        0x0 /usr/lib/gcc/avr/8.3.0/avr51/libgcc.a(_negsi2.o)
 .text.libgcc.builtins
                0x0000000000000000        0x0 /usr/lib/gcc/avr/8.3.0/avr51/libgcc.a(_negsi2.o)
 .text.libgcc.fmul
                0x0000000000000000        0x0 /usr/lib/gcc/avr/8.3.0/avr51/libgcc.a(_negsi2.o)
 .text.libgcc.fixed
                0x0000000000000000        0x0 /usr/lib/gcc/avr/8.3.0/avr51/libgcc.a(_negsi2.o)
 .text          0x0000000000000000        0x0 /usr/lib/gcc/avr/8.3.0/avr51/libgcc.a(_muluhisi3.o)
 .data          0x0000000000000000        0x0 /usr/lib/gcc/avr/8.3.0/avr51/libgcc.a(_muluhisi3.o)
 .bss           0x0000000000000000        0x0 /usr/lib/gcc/avr/8.3.0/avr51/libgcc.a(_muluhisi3.o)
 .text.libgcc.mul
                0x0000000000000000       0x16 /usr/lib/gcc/avr/8.3.0/avr51/libgcc.a(_muluhisi3.o)
 .text.libgcc.div
                0x0000000000000000        0x0 /usr/lib/gcc/avr/8.3.0/avr51/libgcc.a(_muluhisi3.o)
 .text.libgcc   0x0000000000000000        0x0 /usr/lib/gcc/avr/8.3.0/avr51/libgcc.a(_muluhisi3.o)
 .text.libgcc.prologue
                0x0000000000000000        0x0 /usr/lib/gcc/avr/8.3.0/avr51/libgcc.a(_muluhisi3.o)
 .text.libgcc.builtins
                0x0000000000000000        0x0 /usr/lib/gcc/avr/8.3.0/avr51/libgcc.a(_muluhisi3.o)
 .text.libgcc.fmul
                0x0000000000000000        0x0 /usr/lib/gcc/avr/8.3.0/avr51/libgcc.a(_muluhisi3.o)
 .text.libgcc.fixed
                0x0000000000000000        0x0 /usr/lib/gcc/avr/8.3.0/avr51/libgcc.a(_muluhisi3.o)
 .text          0x0000000000000000        0x0 /usr/lib/gcc/avr/8.3.0/avr51/libgcc.a(_mulshisi3.o)
 .data          0x0000000000000000        0x0 /usr/lib/gcc/avr/8.3.0/avr51/libgcc.a(_mulshisi3.o)
 .bss           0x0000000000000000        0x0 /usr/lib/gcc/avr/8.3.0/avr51/libgcc.a(_mulshisi3.o)
 .text.libgcc.mul
                0x0000000000000000       0x10 /usr/lib/gcc/avr/8.3.0/avr51/libgcc.a(_mulshisi3.o)
 .text.libgcc.div
                0x0000000000000000        0x0 /usr/lib/gcc/avr/8.3.0/avr51/libgcc.a(_mulshisi3.o)
 .text.libgcc   0x0000000000000000        0x0 /usr/lib/gcc/avr/8.3.0/avr51/libgcc.a(_mulshisi3.o)
 .text.libgcc.prologue
                0x0000000000000000        0x0 /usr/lib/gcc/avr/8.3.0/avr51/libgcc.a(_mulshisi3.o)
 .text.libgcc.builtins
                0x0000000000000000        0x0 /usr/lib/gcc/avr/8.3.0/avr51/libgcc.a(_mulshisi3.o)
 .text.libgcc.fmul
                0x0000000000000000        0x0 /usr/lib/gcc/avr/8.3.0/avr51/libgcc.a(_mulshisi3.o)
 .text.libgcc.fixed
                0x0000000000000000        0x0 /usr/lib/gcc/avr/8.3.0/avr51/libgcc.a(_mulshisi3.o)
 .text          0x0000000000000000        0x0 /usr/lib/gcc/avr/8.3.0/avr51/libgcc.a(_umulhisi3.o)
 .data          0x0000000000000000        0x0 /usr/lib/gcc/avr/8.3.0/avr51/libgcc.a(_umulhisi3.o)
 .bss           0x0000000000000000        0x0 /usr/lib/gcc/avr/8.3.0/avr51/libgcc.a(_umulhisi3.o)
 .text.libgcc.mul
                0x0000000000000000       0x1e /usr/lib/gcc/avr/8.3.0/avr51/libgcc.a(_umulhisi3.o)
 .text.libgcc.div
                0x0000000000000000        0x0 /usr/lib/gcc/avr/8.3.0/avr51/libgcc.a(_umulhisi3.o)
 .text.libgcc   0x0000000000000000        0x0 /usr/lib/gcc/avr/8.3.0/avr51/libgcc.a(_umulhisi3.o)
 .text.libgcc.prologue
                0x0000000000000000        0x0 /usr/lib/gcc/avr/8.3.0/avr51/libgcc.a(_umulhisi3.o)
 .text.libgcc.builtins
                0x0000000000000000        0x0 /usr/lib/gcc/avr/8.3.0/avr51/libgcc.a(_umulhisi3.o)
 .text.libgcc.fmul
                0x0000000000000000        0x0 /usr/lib/gcc/avr/8.3.0/avr51/libgcc.a(_umulhisi3.o)
 .text.libgcc.fixed
                0x0000000000000000        0x0 /usr/lib/gcc/avr/8.3.0/avr51/libgcc.a(_umulhisi3.o)

Memory Configuration

Name             Origin             Length             Attributes
text             0x0000000000000000 0x0000000000020000 xr
data             0x0000000000800100 0x000000000000ff00 rw !x
eeprom           0x0000000000810000 0x0000000000010000 rw !x
fuse             0x0000000000820000 0x0000000000000003 rw !x
lock             0x0000000000830000 0x0000000000000400 rw !x
signature        0x0000000000840000 0x0000000000000400 rw !x
user_signatures  0x0000000000850000 0x0000000000000400 rw !x
*default*        0x0000000000000000 0xffffffffffffffff

Linker script and memory map

Address of section .data set to 0x800100
LOAD /usr/lib/gcc/avr/8.3.0/../../../../avr/lib/avr51/crtat90usb1286.o
LOAD .build/obj_PanasonicBusinessPartner286_default/keyboards/PanasonicBusinessPartner286/PanasonicBusinessPartner286.o
LOAD .build/obj_PanasonicBusinessPartner286_default/keyboards/PanasonicBusinessPartner286/keymaps/default/keymap.o
LOAD .build/obj_PanasonicBusinessPartner286_default/quantum/quantum.o
LOAD .build/obj_PanasonicBusinessPartner286_default/quantum/send_string.o
LOAD .build/obj_PanasonicBusinessPartner286_default/quantum/bitwise.o
LOAD .build/obj_PanasonicBusinessPartner286_default/quantum/led.o
LOAD .build/obj_PanasonicBusinessPartner286_default/quantum/action.o
LOAD .build/obj_PanasonicBusinessPartner286_default/quantum/action_layer.o
LOAD .build/obj_PanasonicBusinessPartner286_default/quantum/action_tapping.o
LOAD .build/obj_PanasonicBusinessPartner286_default/quantum/action_util.o
LOAD .build/obj_PanasonicBusinessPartner286_default/quantum/eeconfig.o
LOAD .build/obj_PanasonicBusinessPartner286_default/quantum/keyboard.o
LOAD .build/obj_PanasonicBusinessPartner286_default/quantum/keymap_common.o
LOAD .build/obj_PanasonicBusinessPartner286_default/quantum/keycode_config.o
LOAD .build/obj_PanasonicBusinessPartner286_default/quantum/sync_timer.o
LOAD .build/obj_PanasonicBusinessPartner286_default/quantum/logging/debug.o
LOAD .build/obj_PanasonicBusinessPartner286_default/quantum/logging/sendchar.o
LOAD .build/obj_PanasonicBusinessPartner286_default/quantum/bootmagic/bootmagic_lite.o
LOAD .build/obj_PanasonicBusinessPartner286_default/quantum/bootmagic/magic.o
LOAD .build/obj_PanasonicBusinessPartner286_default/quantum/matrix_common.o
LOAD .build/obj_PanasonicBusinessPartner286_default/quantum/matrix.o
LOAD .build/obj_PanasonicBusinessPartner286_default/quantum/debounce/sym_defer_g.o
LOAD .build/obj_PanasonicBusinessPartner286_default/quantum/main.o
LOAD .build/obj_PanasonicBusinessPartner286_default/quantum/mousekey.o
LOAD .build/obj_PanasonicBusinessPartner286_default/quantum/process_keycode/process_magic.o
LOAD .build/obj_PanasonicBusinessPartner286_default/quantum/process_keycode/process_grave_esc.o
LOAD .build/obj_PanasonicBusinessPartner286_default/quantum/process_keycode/process_space_cadet.o
LOAD .build/obj_PanasonicBusinessPartner286_default/platforms/avr/xprintf.o
LOAD .build/obj_PanasonicBusinessPartner286_default/platforms/avr/printf.o
LOAD .build/obj_PanasonicBusinessPartner286_default/protocol/host.o
LOAD .build/obj_PanasonicBusinessPartner286_default/protocol/report.o
LOAD .build/obj_PanasonicBusinessPartner286_default/protocol/usb_device_state.o
LOAD .build/obj_PanasonicBusinessPartner286_default/protocol/usb_util.o
LOAD .build/obj_PanasonicBusinessPartner286_default/platforms/suspend.o
LOAD .build/obj_PanasonicBusinessPartner286_default/platforms/avr/platform.o
LOAD .build/obj_PanasonicBusinessPartner286_default/platforms/avr/suspend.o
LOAD .build/obj_PanasonicBusinessPartner286_default/platforms/avr/timer.o
LOAD .build/obj_PanasonicBusinessPartner286_default/platforms/avr/bootloaders/halfkay.o
LOAD .build/obj_PanasonicBusinessPartner286_default/lufa.o
LOAD .build/obj_PanasonicBusinessPartner286_default/usb_descriptor.o
LOAD .build/obj_PanasonicBusinessPartner286_default/lib/lufa/LUFA/Drivers/USB/Class/Common/HIDParser.o
LOAD .build/obj_PanasonicBusinessPartner286_default/lib/lufa/LUFA/Drivers/USB/Core/AVR8/Device_AVR8.o
LOAD .build/obj_PanasonicBusinessPartner286_default/lib/lufa/LUFA/Drivers/USB/Core/AVR8/EndpointStream_AVR8.o
LOAD .build/obj_PanasonicBusinessPartner286_default/lib/lufa/LUFA/Drivers/USB/Core/AVR8/Endpoint_AVR8.o
LOAD .build/obj_PanasonicBusinessPartner286_default/lib/lufa/LUFA/Drivers/USB/Core/AVR8/Host_AVR8.o
LOAD .build/obj_PanasonicBusinessPartner286_default/lib/lufa/LUFA/Drivers/USB/Core/AVR8/PipeStream_AVR8.o
LOAD .build/obj_PanasonicBusinessPartner286_default/lib/lufa/LUFA/Drivers/USB/Core/AVR8/Pipe_AVR8.o
LOAD .build/obj_PanasonicBusinessPartner286_default/lib/lufa/LUFA/Drivers/USB/Core/AVR8/USBController_AVR8.o
LOAD .build/obj_PanasonicBusinessPartner286_default/lib/lufa/LUFA/Drivers/USB/Core/AVR8/USBInterrupt_AVR8.o
LOAD .build/obj_PanasonicBusinessPartner286_default/lib/lufa/LUFA/Drivers/USB/Core/ConfigDescriptors.o
LOAD .build/obj_PanasonicBusinessPartner286_default/lib/lufa/LUFA/Drivers/USB/Core/DeviceStandardReq.o
LOAD .build/obj_PanasonicBusinessPartner286_default/lib/lufa/LUFA/Drivers/USB/Core/Events.o
LOAD .build/obj_PanasonicBusinessPartner286_default/lib/lufa/LUFA/Drivers/USB/Core/HostStandardReq.o
LOAD .build/obj_PanasonicBusinessPartner286_default/lib/lufa/LUFA/Drivers/USB/Core/USBTask.o
LOAD .build/obj_PanasonicBusinessPartner286_default/protocol/lufa/usb_util.o
LOAD /usr/lib/gcc/avr/8.3.0/../../../../avr/lib/avr51/libm.a
START GROUP
LOAD /usr/lib/gcc/avr/8.3.0/avr51/libgcc.a
LOAD /usr/lib/gcc/avr/8.3.0/../../../../avr/lib/avr51/libm.a
LOAD /usr/lib/gcc/avr/8.3.0/../../../../avr/lib/avr51/libc.a
LOAD /usr/lib/gcc/avr/8.3.0/../../../../avr/lib/avr51/libat90usb1286.a
END GROUP
                0x0000000000020000                __TEXT_REGION_LENGTH__ = DEFINED (__TEXT_REGION_LENGTH__)?__TEXT_REGION_LENGTH__:0x20000
                0x000000000000ff00                __DATA_REGION_LENGTH__ = DEFINED (__DATA_REGION_LENGTH__)?__DATA_REGION_LENGTH__:0xff00
                0x0000000000010000                __EEPROM_REGION_LENGTH__ = DEFINED (__EEPROM_REGION_LENGTH__)?__EEPROM_REGION_LENGTH__:0x10000
                [0x0000000000000003]                __FUSE_REGION_LENGTH__ = DEFINED (__FUSE_REGION_LENGTH__)?__FUSE_REGION_LENGTH__:0x400
                0x0000000000000400                __LOCK_REGION_LENGTH__ = DEFINED (__LOCK_REGION_LENGTH__)?__LOCK_REGION_LENGTH__:0x400
                0x0000000000000400                __SIGNATURE_REGION_LENGTH__ = DEFINED (__SIGNATURE_REGION_LENGTH__)?__SIGNATURE_REGION_LENGTH__:0x400
                0x0000000000000400                __USER_SIGNATURE_REGION_LENGTH__ = DEFINED (__USER_SIGNATURE_REGION_LENGTH__)?__USER_SIGNATURE_REGION_LENGTH__:0x400

.hash
 *(.hash)

.dynsym
 *(.dynsym)

.dynstr
 *(.dynstr)

.gnu.version
 *(.gnu.version)

.gnu.version_d
 *(.gnu.version_d)

.gnu.version_r
 *(.gnu.version_r)

.rel.init
 *(.rel.init)

.rela.init
 *(.rela.init)

.rel.text
 *(.rel.text)
 *(.rel.text.*)
 *(.rel.gnu.linkonce.t*)

.rela.text
 *(.rela.text)
 *(.rela.text.*)
 *(.rela.gnu.linkonce.t*)

.rel.fini
 *(.rel.fini)

.rela.fini
 *(.rela.fini)

.rel.rodata
 *(.rel.rodata)
 *(.rel.rodata.*)
 *(.rel.gnu.linkonce.r*)

.rela.rodata
 *(.rela.rodata)
 *(.rela.rodata.*)
 *(.rela.gnu.linkonce.r*)

.rel.data
 *(.rel.data)
 *(.rel.data.*)
 *(.rel.gnu.linkonce.d*)

.rela.data
 *(.rela.data)
 *(.rela.data.*)
 *(.rela.gnu.linkonce.d*)

.rel.ctors
 *(.rel.ctors)

.rela.ctors
 *(.rela.ctors)

.rel.dtors
 *(.rel.dtors)

.rela.dtors
 *(.rela.dtors)

.rel.got
 *(.rel.got)

.rela.got
 *(.rela.got)

.rel.bss
 *(.rel.bss)

.rela.bss
 *(.rela.bss)

.rel.plt
 *(.rel.plt)

.rela.plt
 *(.rela.plt)

.text           0x0000000000000000     0x406e
 *(.vectors)
 .vectors       0x0000000000000000       0x98 /usr/lib/gcc/avr/8.3.0/../../../../avr/lib/avr51/crtat90usb1286.o
                0x0000000000000000                __vectors
                0x0000000000000000                __vector_default
 *(.vectors)
 *(.progmem.gcc*)
                0x0000000000000098                . = ALIGN (0x2)
                0x0000000000000098                __trampolines_start = .
 *(.trampolines)
 .trampolines   0x0000000000000098        0x0 linker stubs
 *(.trampolines*)
                0x0000000000000098                __trampolines_end = .
 *libprintf_flt.a:*(.progmem.data)
 *libc.a:*(.progmem.data)
 *(.progmem.*)
 .progmem.data.keymaps
                0x0000000000000098      0x200 .build/obj_PanasonicBusinessPartner286_default/keyboards/PanasonicBusinessPartner286/keymaps/default/keymap.o
                0x0000000000000098                keymaps
 .progmem.data.ProductString
                0x0000000000000298       0x30 .build/obj_PanasonicBusinessPartner286_default/usb_descriptor.o
                0x0000000000000298                ProductString
 .progmem.data.ManufacturerString
                0x00000000000002c8       0x1a .build/obj_PanasonicBusinessPartner286_default/usb_descriptor.o
                0x00000000000002c8                ManufacturerString
 .progmem.data.LanguageString
                0x00000000000002e2        0x4 .build/obj_PanasonicBusinessPartner286_default/usb_descriptor.o
                0x00000000000002e2                LanguageString
 .progmem.data.ConfigurationDescriptor
                0x00000000000002e6       0x3b .build/obj_PanasonicBusinessPartner286_default/usb_descriptor.o
                0x00000000000002e6                ConfigurationDescriptor
 .progmem.data.DeviceDescriptor
                0x0000000000000321       0x12 .build/obj_PanasonicBusinessPartner286_default/usb_descriptor.o
                0x0000000000000321                DeviceDescriptor
 .progmem.data.SharedReport
                0x0000000000000333       0xb6 .build/obj_PanasonicBusinessPartner286_default/usb_descriptor.o
                0x0000000000000333                SharedReport
 .progmem.data.KeyboardReport
                0x00000000000003e9       0x40 .build/obj_PanasonicBusinessPartner286_default/usb_descriptor.o
                0x00000000000003e9                KeyboardReport
                0x000000000000042a                . = ALIGN (0x2)
 *fill*         0x0000000000000429        0x1 
 *(.lowtext)
 *(.lowtext*)
                0x000000000000042a                __ctors_start = .
 *(.ctors)
                0x000000000000042a                __ctors_end = .
                0x000000000000042a                __dtors_start = .
 *(.dtors)
                0x000000000000042a                __dtors_end = .
 SORT_BY_NAME(*)(.ctors)
 SORT_BY_NAME(*)(.dtors)
 *(.init0)
 .init0         0x000000000000042a        0x0 /usr/lib/gcc/avr/8.3.0/../../../../avr/lib/avr51/crtat90usb1286.o
                0x000000000000042a                __init
 *(.init0)
 *(.init1)
 *(.init1)
 *(.init2)
 .init2         0x000000000000042a        0xc /usr/lib/gcc/avr/8.3.0/../../../../avr/lib/avr51/crtat90usb1286.o
 *(.init2)
 *(.init3)
 *(.init3)
 *(.init4)
 .init4         0x0000000000000436       0x1a /usr/lib/gcc/avr/8.3.0/avr51/libgcc.a(_copy_data.o)
                0x0000000000000436                __do_copy_data
 .init4         0x0000000000000450       0x10 /usr/lib/gcc/avr/8.3.0/avr51/libgcc.a(_clear_bss.o)
                0x0000000000000450                __do_clear_bss
 *(.init4)
 *(.init5)
 *(.init5)
 *(.init6)
 *(.init6)
 *(.init7)
 *(.init7)
 *(.init8)
 *(.init8)
 *(.init9)
 .init9         0x0000000000000460        0x8 /usr/lib/gcc/avr/8.3.0/../../../../avr/lib/avr51/crtat90usb1286.o
 *(.init9)
 *(.text)
 .text          0x0000000000000468        0x4 /usr/lib/gcc/avr/8.3.0/../../../../avr/lib/avr51/crtat90usb1286.o
                0x0000000000000468                __vector_22
                0x0000000000000468                __vector_28
                0x0000000000000468                __vector_1
                0x0000000000000468                __vector_32
                0x0000000000000468                __vector_34
                0x0000000000000468                __vector_24
                0x0000000000000468                __bad_interrupt
                0x0000000000000468                __vector_6
                0x0000000000000468                __vector_31
                0x0000000000000468                __vector_35
                0x0000000000000468                __vector_3
                0x0000000000000468                __vector_23
                0x0000000000000468                __vector_30
                0x0000000000000468                __vector_25
                0x0000000000000468                __vector_13
                0x0000000000000468                __vector_17
                0x0000000000000468                __vector_19
                0x0000000000000468                __vector_7
                0x0000000000000468                __vector_27
                0x0000000000000468                __vector_5
                0x0000000000000468                __vector_33
                0x0000000000000468                __vector_37
                0x0000000000000468                __vector_4
                0x0000000000000468                __vector_9
                0x0000000000000468                __vector_2
                0x0000000000000468                __vector_15
                0x0000000000000468                __vector_36
                0x0000000000000468                __vector_29
                0x0000000000000468                __vector_8
                0x0000000000000468                __vector_26
                0x0000000000000468                __vector_14
                0x0000000000000468                __vector_16
                0x0000000000000468                __vector_18
                0x0000000000000468                __vector_20
                0x000000000000046c                . = ALIGN (0x2)
 *(.text.*)
 .text.matrix_init_user
                0x000000000000046c        0xe .build/obj_PanasonicBusinessPartner286_default/keyboards/PanasonicBusinessPartner286/keymaps/default/keymap.o
                0x000000000000046c                matrix_init_user
 .text.led_update_kb
                0x000000000000047a       0x2e .build/obj_PanasonicBusinessPartner286_default/keyboards/PanasonicBusinessPartner286/keymaps/default/keymap.o
                0x000000000000047a                led_update_kb
 .text.process_action_kb
                0x00000000000004a8        0x4 .build/obj_PanasonicBusinessPartner286_default/quantum/quantum.o
                0x00000000000004a8                process_action_kb
 .text.process_record_user
                0x00000000000004ac        0x4 .build/obj_PanasonicBusinessPartner286_default/quantum/quantum.o
                0x00000000000004ac                process_record_user
 .text.process_record_kb
                0x00000000000004b0        0x4 .build/obj_PanasonicBusinessPartner286_default/quantum/quantum.o
                0x00000000000004b0                process_record_kb
 .text.post_process_record_user
                0x00000000000004b4        0x2 .build/obj_PanasonicBusinessPartner286_default/quantum/quantum.o
                0x00000000000004b4                post_process_record_user
 .text.post_process_record_kb
                0x00000000000004b6        0x4 .build/obj_PanasonicBusinessPartner286_default/quantum/quantum.o
                0x00000000000004b6                post_process_record_kb
 .text.get_event_keycode
                0x00000000000004ba       0x66 .build/obj_PanasonicBusinessPartner286_default/quantum/quantum.o
                0x00000000000004ba                get_event_keycode
 .text.get_record_keycode
                0x0000000000000520       0x12 .build/obj_PanasonicBusinessPartner286_default/quantum/quantum.o
                0x0000000000000520                get_record_keycode
 .text.pre_process_record_quantum
                0x0000000000000532        0x4 .build/obj_PanasonicBusinessPartner286_default/quantum/quantum.o
                0x0000000000000532                pre_process_record_quantum
 .text.post_process_record_quantum
                0x0000000000000536       0x16 .build/obj_PanasonicBusinessPartner286_default/quantum/quantum.o
                0x0000000000000536                post_process_record_quantum
 .text.matrix_init_quantum
                0x000000000000054c        0x4 .build/obj_PanasonicBusinessPartner286_default/quantum/quantum.o
                0x000000000000054c                matrix_init_quantum
 .text.matrix_scan_quantum
                0x0000000000000550        0x4 .build/obj_PanasonicBusinessPartner286_default/quantum/quantum.o
                0x0000000000000550                matrix_scan_quantum
 .text.shutdown_user
                0x0000000000000554        0x2 .build/obj_PanasonicBusinessPartner286_default/quantum/quantum.o
                0x0000000000000554                shutdown_user
 .text.reset_keyboard
                0x0000000000000556       0x1e .build/obj_PanasonicBusinessPartner286_default/quantum/quantum.o
                0x0000000000000556                reset_keyboard
 .text.process_record_quantum
                0x0000000000000574       0xa4 .build/obj_PanasonicBusinessPartner286_default/quantum/quantum.o
                0x0000000000000574                process_record_quantum
 .text.suspend_power_down_quantum
                0x0000000000000618        0x8 .build/obj_PanasonicBusinessPartner286_default/quantum/quantum.o
                0x0000000000000618                suspend_power_down_quantum
 .text.suspend_wakeup_init_quantum
                0x0000000000000620        0x8 .build/obj_PanasonicBusinessPartner286_default/quantum/quantum.o
                0x0000000000000620                suspend_wakeup_init_quantum
 .text.led_set_user
                0x0000000000000628        0x2 .build/obj_PanasonicBusinessPartner286_default/quantum/led.o
                0x0000000000000628                led_set_user
 .text.led_set_kb
                0x000000000000062a        0x4 .build/obj_PanasonicBusinessPartner286_default/quantum/led.o
                0x000000000000062a                led_set_kb
 .text.led_update_user
                0x000000000000062e        0x4 .build/obj_PanasonicBusinessPartner286_default/quantum/led.o
                0x000000000000062e                led_update_user
 .text.led_init_ports
                0x0000000000000632        0x2 .build/obj_PanasonicBusinessPartner286_default/quantum/led.o
                0x0000000000000632                led_init_ports
 .text.led_set  0x0000000000000634       0x10 .build/obj_PanasonicBusinessPartner286_default/quantum/led.o
                0x0000000000000634                led_set
 .text.led_suspend
                0x0000000000000644        0x6 .build/obj_PanasonicBusinessPartner286_default/quantum/led.o
                0x0000000000000644                led_suspend
 .text.led_wakeup
                0x000000000000064a        0x8 .build/obj_PanasonicBusinessPartner286_default/quantum/led.o
                0x000000000000064a                led_wakeup
 .text.led_task
                0x0000000000000652       0x16 .build/obj_PanasonicBusinessPartner286_default/quantum/led.o
                0x0000000000000652                led_task
 .text.action_exec
                0x0000000000000668       0x7c .build/obj_PanasonicBusinessPartner286_default/quantum/action.o
                0x0000000000000668                action_exec
 .text.process_record_tap_hint
                0x00000000000006e4        0xa .build/obj_PanasonicBusinessPartner286_default/quantum/action.o
                0x00000000000006e4                process_record_tap_hint
 .text.register_code
                0x00000000000006ee       0x9c .build/obj_PanasonicBusinessPartner286_default/quantum/action.o
                0x00000000000006ee                register_code
 .text.unregister_code
                0x000000000000078a       0x5e .build/obj_PanasonicBusinessPartner286_default/quantum/action.o
                0x000000000000078a                unregister_code
 .text.tap_code_delay
                0x00000000000007e8       0x2e .build/obj_PanasonicBusinessPartner286_default/quantum/action.o
                0x00000000000007e8                tap_code_delay
 .text.tap_code
                0x0000000000000816       0x10 .build/obj_PanasonicBusinessPartner286_default/quantum/action.o
                0x0000000000000816                tap_code
 .text.register_mods
                0x0000000000000826        0xe .build/obj_PanasonicBusinessPartner286_default/quantum/action.o
                0x0000000000000826                register_mods
 .text.unregister_mods
                0x0000000000000834        0xe .build/obj_PanasonicBusinessPartner286_default/quantum/action.o
                0x0000000000000834                unregister_mods
 .text.process_action
                0x0000000000000842      0x44c .build/obj_PanasonicBusinessPartner286_default/quantum/action.o
                0x0000000000000842                process_action
 .text.process_record_handler
                0x0000000000000c8e       0x2e .build/obj_PanasonicBusinessPartner286_default/quantum/action.o
                0x0000000000000c8e                process_record_handler
 .text.process_record
                0x0000000000000cbc       0x58 .build/obj_PanasonicBusinessPartner286_default/quantum/action.o
                0x0000000000000cbc                process_record
 .text.clear_keyboard_but_mods_and_keys
                0x0000000000000d14       0x20 .build/obj_PanasonicBusinessPartner286_default/quantum/action.o
                0x0000000000000d14                clear_keyboard_but_mods_and_keys
 .text.clear_keyboard_but_mods
                0x0000000000000d34        0x8 .build/obj_PanasonicBusinessPartner286_default/quantum/action.o
                0x0000000000000d34                clear_keyboard_but_mods
 .text.clear_keyboard
                0x0000000000000d3c        0x8 .build/obj_PanasonicBusinessPartner286_default/quantum/action.o
                0x0000000000000d3c                clear_keyboard
 .text.is_tap_action
                0x0000000000000d44       0x36 .build/obj_PanasonicBusinessPartner286_default/quantum/action.o
                0x0000000000000d44                is_tap_action
 .text.is_tap_record
                0x0000000000000d7a        0xe .build/obj_PanasonicBusinessPartner286_default/quantum/action.o
                0x0000000000000d7a                is_tap_record
 .text.debug_event
                0x0000000000000d88       0x1e .build/obj_PanasonicBusinessPartner286_default/quantum/action.o
                0x0000000000000d88                debug_event
 .text.debug_record
                0x0000000000000da6       0x20 .build/obj_PanasonicBusinessPartner286_default/quantum/action.o
                0x0000000000000da6                debug_record
 .text.default_layer_state_set_user
                0x0000000000000dc6        0x2 .build/obj_PanasonicBusinessPartner286_default/quantum/action_layer.o
                0x0000000000000dc6                default_layer_state_set_user
 .text.default_layer_state_set_kb
                0x0000000000000dc8        0x4 .build/obj_PanasonicBusinessPartner286_default/quantum/action_layer.o
                0x0000000000000dc8                default_layer_state_set_kb
 .text.default_layer_state_set
                0x0000000000000dcc       0x18 .build/obj_PanasonicBusinessPartner286_default/quantum/action_layer.o
 .text.default_layer_debug
                0x0000000000000de4        0x2 .build/obj_PanasonicBusinessPartner286_default/quantum/action_layer.o
                0x0000000000000de4                default_layer_debug
 .text.default_layer_set
                0x0000000000000de6        0x4 .build/obj_PanasonicBusinessPartner286_default/quantum/action_layer.o
                0x0000000000000de6                default_layer_set
 .text.default_layer_or
                0x0000000000000dea       0x24 .build/obj_PanasonicBusinessPartner286_default/quantum/action_layer.o
                0x0000000000000dea                default_layer_or
 .text.default_layer_and
                0x0000000000000e0e       0x24 .build/obj_PanasonicBusinessPartner286_default/quantum/action_layer.o
                0x0000000000000e0e                default_layer_and
 .text.default_layer_xor
                0x0000000000000e32       0x24 .build/obj_PanasonicBusinessPartner286_default/quantum/action_layer.o
                0x0000000000000e32                default_layer_xor
 .text.layer_state_set_user
                0x0000000000000e56        0x4 .build/obj_PanasonicBusinessPartner286_default/quantum/action_layer.o
                0x0000000000000e56                layer_state_set_user
 .text.layer_state_set_kb
                0x0000000000000e5a        0x4 .build/obj_PanasonicBusinessPartner286_default/quantum/action_layer.o
                0x0000000000000e5a                layer_state_set_kb
 .text.layer_state_set
                0x0000000000000e5e       0x18 .build/obj_PanasonicBusinessPartner286_default/quantum/action_layer.o
                0x0000000000000e5e                layer_state_set
 .text.layer_clear
                0x0000000000000e76        0xa .build/obj_PanasonicBusinessPartner286_default/quantum/action_layer.o
                0x0000000000000e76                layer_clear
 .text.layer_move
                0x0000000000000e80       0x2a .build/obj_PanasonicBusinessPartner286_default/quantum/action_layer.o
                0x0000000000000e80                layer_move
 .text.layer_on
                0x0000000000000eaa       0x42 .build/obj_PanasonicBusinessPartner286_default/quantum/action_layer.o
                0x0000000000000eaa                layer_on
 .text.layer_off
                0x0000000000000eec       0x46 .build/obj_PanasonicBusinessPartner286_default/quantum/action_layer.o
                0x0000000000000eec                layer_off
 .text.layer_invert
                0x0000000000000f32       0x42 .build/obj_PanasonicBusinessPartner286_default/quantum/action_layer.o
                0x0000000000000f32                layer_invert
 .text.layer_or
                0x0000000000000f74       0x24 .build/obj_PanasonicBusinessPartner286_default/quantum/action_layer.o
                0x0000000000000f74                layer_or
 .text.layer_and
                0x0000000000000f98       0x24 .build/obj_PanasonicBusinessPartner286_default/quantum/action_layer.o
                0x0000000000000f98                layer_and
 .text.layer_xor
                0x0000000000000fbc       0x24 .build/obj_PanasonicBusinessPartner286_default/quantum/action_layer.o
                0x0000000000000fbc                layer_xor
 .text.layer_debug
                0x0000000000000fe0        0x2 .build/obj_PanasonicBusinessPartner286_default/quantum/action_layer.o
                0x0000000000000fe0                layer_debug
 .text.update_source_layers_cache
                0x0000000000000fe2       0x58 .build/obj_PanasonicBusinessPartner286_default/quantum/action_layer.o
                0x0000000000000fe2                update_source_layers_cache
 .text.read_source_layers_cache
                0x000000000000103a       0x4e .build/obj_PanasonicBusinessPartner286_default/quantum/action_layer.o
                0x000000000000103a                read_source_layers_cache
 .text.layer_switch_get_layer
                0x0000000000001088       0x84 .build/obj_PanasonicBusinessPartner286_default/quantum/action_layer.o
                0x0000000000001088                layer_switch_get_layer
 .text.layer_switch_get_action
                0x000000000000110c       0x14 .build/obj_PanasonicBusinessPartner286_default/quantum/action_layer.o
                0x000000000000110c                layer_switch_get_action
 .text.store_or_get_action
                0x0000000000001120       0x48 .build/obj_PanasonicBusinessPartner286_default/quantum/action_layer.o
                0x0000000000001120                store_or_get_action
 .text.debug_waiting_buffer
                0x0000000000001168       0x42 .build/obj_PanasonicBusinessPartner286_default/quantum/action_tapping.o
 .text.debug_tapping_key
                0x00000000000011aa       0x1c .build/obj_PanasonicBusinessPartner286_default/quantum/action_tapping.o
 .text.waiting_buffer_scan_tap
                0x00000000000011c6       0xc2 .build/obj_PanasonicBusinessPartner286_default/quantum/action_tapping.o
 .text.process_tapping
                0x0000000000001288      0x348 .build/obj_PanasonicBusinessPartner286_default/quantum/action_tapping.o
 .text.action_tapping_process
                0x00000000000015d0      0x134 .build/obj_PanasonicBusinessPartner286_default/quantum/action_tapping.o
                0x00000000000015d0                action_tapping_process
 .text.add_key  0x0000000000001704        0xe .build/obj_PanasonicBusinessPartner286_default/quantum/action_util.o
                0x0000000000001704                add_key
 .text.del_key  0x0000000000001712        0xe .build/obj_PanasonicBusinessPartner286_default/quantum/action_util.o
                0x0000000000001712                del_key
 .text.clear_keys
                0x0000000000001720        0xc .build/obj_PanasonicBusinessPartner286_default/quantum/action_util.o
                0x0000000000001720                clear_keys
 .text.get_oneshot_layer
                0x000000000000172c        0xc .build/obj_PanasonicBusinessPartner286_default/quantum/action_util.o
                0x000000000000172c                get_oneshot_layer
 .text.get_oneshot_layer_state
                0x0000000000001738        0x8 .build/obj_PanasonicBusinessPartner286_default/quantum/action_util.o
                0x0000000000001738                get_oneshot_layer_state
 .text.is_oneshot_layer_active
                0x0000000000001740        0xe .build/obj_PanasonicBusinessPartner286_default/quantum/action_util.o
                0x0000000000001740                is_oneshot_layer_active
 .text.get_mods
                0x000000000000174e        0x6 .build/obj_PanasonicBusinessPartner286_default/quantum/action_util.o
                0x000000000000174e                get_mods
 .text.add_mods
                0x0000000000001754        0xc .build/obj_PanasonicBusinessPartner286_default/quantum/action_util.o
                0x0000000000001754                add_mods
 .text.del_mods
                0x0000000000001760        0xe .build/obj_PanasonicBusinessPartner286_default/quantum/action_util.o
                0x0000000000001760                del_mods
 .text.clear_mods
                0x000000000000176e        0x6 .build/obj_PanasonicBusinessPartner286_default/quantum/action_util.o
                0x000000000000176e                clear_mods
 .text.add_weak_mods
                0x0000000000001774        0xc .build/obj_PanasonicBusinessPartner286_default/quantum/action_util.o
                0x0000000000001774                add_weak_mods
 .text.del_weak_mods
                0x0000000000001780        0xe .build/obj_PanasonicBusinessPartner286_default/quantum/action_util.o
                0x0000000000001780                del_weak_mods
 .text.clear_weak_mods
                0x000000000000178e        0x6 .build/obj_PanasonicBusinessPartner286_default/quantum/action_util.o
                0x000000000000178e                clear_weak_mods
 .text.get_oneshot_mods
                0x0000000000001794        0x6 .build/obj_PanasonicBusinessPartner286_default/quantum/action_util.o
                0x0000000000001794                get_oneshot_mods
 .text.oneshot_mods_changed_user
                0x000000000000179a        0x2 .build/obj_PanasonicBusinessPartner286_default/quantum/action_util.o
                0x000000000000179a                oneshot_mods_changed_user
 .text.oneshot_mods_changed_kb
                0x000000000000179c        0x4 .build/obj_PanasonicBusinessPartner286_default/quantum/action_util.o
                0x000000000000179c                oneshot_mods_changed_kb
 .text.set_oneshot_mods
                0x00000000000017a0       0x1a .build/obj_PanasonicBusinessPartner286_default/quantum/action_util.o
                0x00000000000017a0                set_oneshot_mods
 .text.clear_oneshot_mods
                0x00000000000017ba       0x14 .build/obj_PanasonicBusinessPartner286_default/quantum/action_util.o
                0x00000000000017ba                clear_oneshot_mods
 .text.send_keyboard_report
                0x00000000000017ce       0x86 .build/obj_PanasonicBusinessPartner286_default/quantum/action_util.o
                0x00000000000017ce                send_keyboard_report
 .text.oneshot_layer_changed_user
                0x0000000000001854        0x2 .build/obj_PanasonicBusinessPartner286_default/quantum/action_util.o
                0x0000000000001854                oneshot_layer_changed_user
 .text.oneshot_layer_changed_kb
                0x0000000000001856        0x4 .build/obj_PanasonicBusinessPartner286_default/quantum/action_util.o
                0x0000000000001856                oneshot_layer_changed_kb
 .text.set_oneshot_layer
                0x000000000000185a       0x2c .build/obj_PanasonicBusinessPartner286_default/quantum/action_util.o
                0x000000000000185a                set_oneshot_layer
 .text.reset_oneshot_layer
                0x0000000000001886        0xa .build/obj_PanasonicBusinessPartner286_default/quantum/action_util.o
                0x0000000000001886                reset_oneshot_layer
 .text.clear_oneshot_layer_state
                0x0000000000001890       0x38 .build/obj_PanasonicBusinessPartner286_default/quantum/action_util.o
                0x0000000000001890                clear_oneshot_layer_state
 .text.oneshot_set
                0x00000000000018c8       0x2a .build/obj_PanasonicBusinessPartner286_default/quantum/action_util.o
                0x00000000000018c8                oneshot_set
 .text.oneshot_toggle
                0x00000000000018f2       0x12 .build/obj_PanasonicBusinessPartner286_default/quantum/action_util.o
                0x00000000000018f2                oneshot_toggle
 .text.oneshot_enable
                0x0000000000001904        0x6 .build/obj_PanasonicBusinessPartner286_default/quantum/action_util.o
                0x0000000000001904                oneshot_enable
 .text.oneshot_disable
                0x000000000000190a        0x6 .build/obj_PanasonicBusinessPartner286_default/quantum/action_util.o
                0x000000000000190a                oneshot_disable
 .text.eeconfig_disable
                0x0000000000001910        0xc .build/obj_PanasonicBusinessPartner286_default/quantum/eeconfig.o
                0x0000000000001910                eeconfig_disable
 .text.eeconfig_is_enabled
                0x000000000000191c       0x16 .build/obj_PanasonicBusinessPartner286_default/quantum/eeconfig.o
                0x000000000000191c                eeconfig_is_enabled
 .text.eeconfig_read_debug
                0x0000000000001932        0x8 .build/obj_PanasonicBusinessPartner286_default/quantum/eeconfig.o
                0x0000000000001932                eeconfig_read_debug
 .text.eeconfig_read_default_layer
                0x000000000000193a        0x8 .build/obj_PanasonicBusinessPartner286_default/quantum/eeconfig.o
                0x000000000000193a                eeconfig_read_default_layer
 .text.eeconfig_read_keymap
                0x0000000000001942       0x1c .build/obj_PanasonicBusinessPartner286_default/quantum/eeconfig.o
                0x0000000000001942                eeconfig_read_keymap
 .text.eeconfig_update_keymap
                0x000000000000195e       0x1a .build/obj_PanasonicBusinessPartner286_default/quantum/eeconfig.o
                0x000000000000195e                eeconfig_update_keymap
 .text.eeconfig_update_kb
                0x0000000000001978        0xc .build/obj_PanasonicBusinessPartner286_default/quantum/eeconfig.o
                0x0000000000001978                eeconfig_update_kb
 .text.eeconfig_update_user
                0x0000000000001984        0xc .build/obj_PanasonicBusinessPartner286_default/quantum/eeconfig.o
                0x0000000000001984                eeconfig_update_user
 .text.eeconfig_init_user
                0x0000000000001990        0xa .build/obj_PanasonicBusinessPartner286_default/quantum/eeconfig.o
                0x0000000000001990                eeconfig_init_user
 .text.eeconfig_init_kb
                0x000000000000199a        0xe .build/obj_PanasonicBusinessPartner286_default/quantum/eeconfig.o
                0x000000000000199a                eeconfig_init_kb
 .text.eeconfig_init_quantum
                0x00000000000019a8       0xbe .build/obj_PanasonicBusinessPartner286_default/quantum/eeconfig.o
                0x00000000000019a8                eeconfig_init_quantum
 .text.eeconfig_init
                0x0000000000001a66        0x4 .build/obj_PanasonicBusinessPartner286_default/quantum/eeconfig.o
                0x0000000000001a66                eeconfig_init
 .text.eeconfig_update_handedness
                0x0000000000001a6a        0xa .build/obj_PanasonicBusinessPartner286_default/quantum/eeconfig.o
                0x0000000000001a6a                eeconfig_update_handedness
 .text.last_matrix_activity_trigger
                0x0000000000001a74       0x26 .build/obj_PanasonicBusinessPartner286_default/quantum/keyboard.o
                0x0000000000001a74                last_matrix_activity_trigger
 .text.disable_jtag
                0x0000000000001a9a        0xe .build/obj_PanasonicBusinessPartner286_default/quantum/keyboard.o
                0x0000000000001a9a                disable_jtag
 .text.matrix_setup
                0x0000000000001aa8        0x2 .build/obj_PanasonicBusinessPartner286_default/quantum/keyboard.o
                0x0000000000001aa8                matrix_setup
 .text.keyboard_pre_init_user
                0x0000000000001aaa        0x2 .build/obj_PanasonicBusinessPartner286_default/quantum/keyboard.o
                0x0000000000001aaa                keyboard_pre_init_user
 .text.keyboard_pre_init_kb
                0x0000000000001aac        0x4 .build/obj_PanasonicBusinessPartner286_default/quantum/keyboard.o
                0x0000000000001aac                keyboard_pre_init_kb
 .text.keyboard_post_init_user
                0x0000000000001ab0        0x2 .build/obj_PanasonicBusinessPartner286_default/quantum/keyboard.o
                0x0000000000001ab0                keyboard_post_init_user
 .text.keyboard_post_init_kb
                0x0000000000001ab2        0x4 .build/obj_PanasonicBusinessPartner286_default/quantum/keyboard.o
                0x0000000000001ab2                keyboard_post_init_kb
 .text.keyboard_setup
                0x0000000000001ab6       0x14 .build/obj_PanasonicBusinessPartner286_default/quantum/keyboard.o
                0x0000000000001ab6                keyboard_setup
 .text.is_keyboard_master
                0x0000000000001aca        0x4 .build/obj_PanasonicBusinessPartner286_default/quantum/keyboard.o
                0x0000000000001aca                is_keyboard_master
 .text.should_process_keypress
                0x0000000000001ace        0x4 .build/obj_PanasonicBusinessPartner286_default/quantum/keyboard.o
                0x0000000000001ace                should_process_keypress
 .text.housekeeping_task_kb
                0x0000000000001ad2        0x2 .build/obj_PanasonicBusinessPartner286_default/quantum/keyboard.o
                0x0000000000001ad2                housekeeping_task_kb
 .text.housekeeping_task_user
                0x0000000000001ad4        0x2 .build/obj_PanasonicBusinessPartner286_default/quantum/keyboard.o
                0x0000000000001ad4                housekeeping_task_user
 .text.housekeeping_task
                0x0000000000001ad6        0x8 .build/obj_PanasonicBusinessPartner286_default/quantum/keyboard.o
                0x0000000000001ad6                housekeeping_task
 .text.quantum_init
                0x0000000000001ade        0x8 .build/obj_PanasonicBusinessPartner286_default/quantum/keyboard.o
                0x0000000000001ade                quantum_init
 .text.keyboard_init
                0x0000000000001ae6       0x26 .build/obj_PanasonicBusinessPartner286_default/quantum/keyboard.o
                0x0000000000001ae6                keyboard_init
 .text.matrix_scan_task
                0x0000000000001b0c      0x136 .build/obj_PanasonicBusinessPartner286_default/quantum/keyboard.o
                0x0000000000001b0c                matrix_scan_task
 .text.keyboard_task
                0x0000000000001c42        0xc .build/obj_PanasonicBusinessPartner286_default/quantum/keyboard.o
                0x0000000000001c42                keyboard_task
 .text.action_for_keycode
                0x0000000000001c4e      0x1f0 .build/obj_PanasonicBusinessPartner286_default/quantum/keymap_common.o
                0x0000000000001c4e                action_for_keycode
 .text.keymap_key_to_keycode
                0x0000000000001e3e       0x2a .build/obj_PanasonicBusinessPartner286_default/quantum/keymap_common.o
                0x0000000000001e3e                keymap_key_to_keycode
 .text.action_for_key
                0x0000000000001e68        0x8 .build/obj_PanasonicBusinessPartner286_default/quantum/keymap_common.o
                0x0000000000001e68                action_for_key
 .text.keycode_config
                0x0000000000001e70      0x12e .build/obj_PanasonicBusinessPartner286_default/quantum/keycode_config.o
                0x0000000000001e70                keycode_config
 .text.mod_config
                0x0000000000001f9e       0x86 .build/obj_PanasonicBusinessPartner286_default/quantum/keycode_config.o
                0x0000000000001f9e                mod_config
 .text.sendchar
                0x0000000000002024        0x4 .build/obj_PanasonicBusinessPartner286_default/quantum/logging/sendchar.o
                0x0000000000002024                sendchar
 .text.bootmagic_lite_reset_eeprom
                0x0000000000002028        0x4 .build/obj_PanasonicBusinessPartner286_default/quantum/bootmagic/bootmagic_lite.o
                0x0000000000002028                bootmagic_lite_reset_eeprom
 .text.bootmagic_lite
                0x000000000000202c       0x2e .build/obj_PanasonicBusinessPartner286_default/quantum/bootmagic/bootmagic_lite.o
                0x000000000000202c                bootmagic_lite
 .text.bootmagic
                0x000000000000205a        0x4 .build/obj_PanasonicBusinessPartner286_default/quantum/bootmagic/bootmagic_lite.o
                0x000000000000205a                bootmagic
 .text.magic    0x000000000000205e       0x48 .build/obj_PanasonicBusinessPartner286_default/quantum/bootmagic/magic.o
                0x000000000000205e                magic
 .text.matrix_init_kb
                0x00000000000020a6        0x4 .build/obj_PanasonicBusinessPartner286_default/quantum/matrix_common.o
                0x00000000000020a6                matrix_init_kb
 .text.matrix_scan_user
                0x00000000000020aa        0x2 .build/obj_PanasonicBusinessPartner286_default/quantum/matrix_common.o
                0x00000000000020aa                matrix_scan_user
 .text.matrix_scan_kb
                0x00000000000020ac        0x4 .build/obj_PanasonicBusinessPartner286_default/quantum/matrix_common.o
                0x00000000000020ac                matrix_scan_kb
 .text.matrix_get_row
                0x00000000000020b0       0x12 .build/obj_PanasonicBusinessPartner286_default/quantum/matrix_common.o
                0x00000000000020b0                matrix_get_row
 .text.matrix_print
                0x00000000000020c2        0x2 .build/obj_PanasonicBusinessPartner286_default/quantum/matrix_common.o
                0x00000000000020c2                matrix_print
 .text.matrix_io_delay
                0x00000000000020c4        0x8 .build/obj_PanasonicBusinessPartner286_default/quantum/matrix_common.o
                0x00000000000020c4                matrix_io_delay
 .text.matrix_output_select_delay
                0x00000000000020cc        0x4 .build/obj_PanasonicBusinessPartner286_default/quantum/matrix_common.o
                0x00000000000020cc                matrix_output_select_delay
 .text.matrix_output_unselect_delay
                0x00000000000020d0        0x4 .build/obj_PanasonicBusinessPartner286_default/quantum/matrix_common.o
                0x00000000000020d0                matrix_output_unselect_delay
 .text.setPinInputHigh_atomic
                0x00000000000020d4       0x2e .build/obj_PanasonicBusinessPartner286_default/quantum/matrix.o
 .text.matrix_init_pins
                0x0000000000002102       0x40 .build/obj_PanasonicBusinessPartner286_default/quantum/matrix.o
                0x0000000000002102                matrix_init_pins
 .text.matrix_read_rows_on_col
                0x0000000000002142      0x10e .build/obj_PanasonicBusinessPartner286_default/quantum/matrix.o
                0x0000000000002142                matrix_read_rows_on_col
 .text.matrix_init
                0x0000000000002250       0x2a .build/obj_PanasonicBusinessPartner286_default/quantum/matrix.o
                0x0000000000002250                matrix_init
 .text.matrix_scan
                0x000000000000227a       0xaa .build/obj_PanasonicBusinessPartner286_default/quantum/matrix.o
                0x000000000000227a                matrix_scan
 .text.debounce_init
                0x0000000000002324        0x2 .build/obj_PanasonicBusinessPartner286_default/quantum/debounce/sym_defer_g.o
                0x0000000000002324                debounce_init
 .text.debounce
                0x0000000000002326       0x72 .build/obj_PanasonicBusinessPartner286_default/quantum/debounce/sym_defer_g.o
                0x0000000000002326                debounce
 .text.protocol_init
                0x0000000000002398        0xc .build/obj_PanasonicBusinessPartner286_default/quantum/main.o
                0x0000000000002398                protocol_init
 .text.protocol_task
                0x00000000000023a4        0xc .build/obj_PanasonicBusinessPartner286_default/quantum/main.o
                0x00000000000023a4                protocol_task
 .text.startup.main
                0x00000000000023b0       0x1a .build/obj_PanasonicBusinessPartner286_default/quantum/main.o
                0x00000000000023b0                main
 .text.move_unit
                0x00000000000023ca       0x7c .build/obj_PanasonicBusinessPartner286_default/quantum/mousekey.o
 .text.wheel_unit
                0x0000000000002446       0x72 .build/obj_PanasonicBusinessPartner286_default/quantum/mousekey.o
 .text.mousekey_on
                0x00000000000024b8       0xb4 .build/obj_PanasonicBusinessPartner286_default/quantum/mousekey.o
                0x00000000000024b8                mousekey_on
 .text.mousekey_off
                0x000000000000256c       0xf2 .build/obj_PanasonicBusinessPartner286_default/quantum/mousekey.o
                0x000000000000256c                mousekey_off
 .text.mousekey_send
                0x000000000000265e       0x36 .build/obj_PanasonicBusinessPartner286_default/quantum/mousekey.o
                0x000000000000265e                mousekey_send
 .text.mousekey_task
                0x0000000000002694      0x218 .build/obj_PanasonicBusinessPartner286_default/quantum/mousekey.o
                0x0000000000002694                mousekey_task
 .text.mousekey_clear
                0x00000000000028ac       0x1c .build/obj_PanasonicBusinessPartner286_default/quantum/mousekey.o
                0x00000000000028ac                mousekey_clear
 .text.process_magic
                0x00000000000028c8      0x27a .build/obj_PanasonicBusinessPartner286_default/quantum/process_keycode/process_magic.o
                0x00000000000028c8                process_magic
 .text.process_grave_esc
                0x0000000000002b42       0x5e .build/obj_PanasonicBusinessPartner286_default/quantum/process_keycode/process_grave_esc.o
                0x0000000000002b42                process_grave_esc
 .text.perform_space_cadet
                0x0000000000002ba0       0xd8 .build/obj_PanasonicBusinessPartner286_default/quantum/process_keycode/process_space_cadet.o
                0x0000000000002ba0                perform_space_cadet
 .text.process_space_cadet
                0x0000000000002c78       0xa4 .build/obj_PanasonicBusinessPartner286_default/quantum/process_keycode/process_space_cadet.o
                0x0000000000002c78                process_space_cadet
 .text.print_set_sendchar
                0x0000000000002d1c        0xa .build/obj_PanasonicBusinessPartner286_default/platforms/avr/printf.o
                0x0000000000002d1c                print_set_sendchar
 .text.host_set_driver
                0x0000000000002d26        0xa .build/obj_PanasonicBusinessPartner286_default/protocol/host.o
                0x0000000000002d26                host_set_driver
 .text.host_keyboard_leds
                0x0000000000002d30       0x18 .build/obj_PanasonicBusinessPartner286_default/protocol/host.o
                0x0000000000002d30                host_keyboard_leds
 .text.host_keyboard_send
                0x0000000000002d48       0x34 .build/obj_PanasonicBusinessPartner286_default/protocol/host.o
                0x0000000000002d48                host_keyboard_send
 .text.host_mouse_send
                0x0000000000002d7c       0x1c .build/obj_PanasonicBusinessPartner286_default/protocol/host.o
                0x0000000000002d7c                host_mouse_send
 .text.host_system_send
                0x0000000000002d98       0x2c .build/obj_PanasonicBusinessPartner286_default/protocol/host.o
                0x0000000000002d98                host_system_send
 .text.host_consumer_send
                0x0000000000002dc4       0x2c .build/obj_PanasonicBusinessPartner286_default/protocol/host.o
                0x0000000000002dc4                host_consumer_send
 .text.has_anykey
                0x0000000000002df0       0x28 .build/obj_PanasonicBusinessPartner286_default/protocol/report.o
                0x0000000000002df0                has_anykey
 .text.is_key_pressed
                0x0000000000002e18       0x60 .build/obj_PanasonicBusinessPartner286_default/protocol/report.o
                0x0000000000002e18                is_key_pressed
 .text.add_key_byte
                0x0000000000002e78       0x34 .build/obj_PanasonicBusinessPartner286_default/protocol/report.o
                0x0000000000002e78                add_key_byte
 .text.del_key_byte
                0x0000000000002eac       0x1a .build/obj_PanasonicBusinessPartner286_default/protocol/report.o
                0x0000000000002eac                del_key_byte
 .text.add_key_bit
                0x0000000000002ec6       0x28 .build/obj_PanasonicBusinessPartner286_default/protocol/report.o
                0x0000000000002ec6                add_key_bit
 .text.del_key_bit
                0x0000000000002eee       0x2a .build/obj_PanasonicBusinessPartner286_default/protocol/report.o
                0x0000000000002eee                del_key_bit
 .text.add_key_to_report
                0x0000000000002f18       0x16 .build/obj_PanasonicBusinessPartner286_default/protocol/report.o
                0x0000000000002f18                add_key_to_report
 .text.del_key_from_report
                0x0000000000002f2e       0x16 .build/obj_PanasonicBusinessPartner286_default/protocol/report.o
                0x0000000000002f2e                del_key_from_report
 .text.clear_keys_from_report
                0x0000000000002f44       0x24 .build/obj_PanasonicBusinessPartner286_default/protocol/report.o
                0x0000000000002f44                clear_keys_from_report
 .text.notify_usb_device_state_change_user
                0x0000000000002f68        0x2 .build/obj_PanasonicBusinessPartner286_default/protocol/usb_device_state.o
                0x0000000000002f68                notify_usb_device_state_change_user
 .text.notify_usb_device_state_change_kb
                0x0000000000002f6a        0x4 .build/obj_PanasonicBusinessPartner286_default/protocol/usb_device_state.o
                0x0000000000002f6a                notify_usb_device_state_change_kb
 .text.usb_device_state_set_configuration
                0x0000000000002f6e       0x12 .build/obj_PanasonicBusinessPartner286_default/protocol/usb_device_state.o
                0x0000000000002f6e                usb_device_state_set_configuration
 .text.usb_device_state_set_suspend
                0x0000000000002f80        0xa .build/obj_PanasonicBusinessPartner286_default/protocol/usb_device_state.o
                0x0000000000002f80                usb_device_state_set_suspend
 .text.usb_device_state_set_resume
                0x0000000000002f8a        0x4 .build/obj_PanasonicBusinessPartner286_default/protocol/usb_device_state.o
                0x0000000000002f8a                usb_device_state_set_resume
 .text.usb_device_state_set_reset
                0x0000000000002f8e        0xa .build/obj_PanasonicBusinessPartner286_default/protocol/usb_device_state.o
                0x0000000000002f8e                usb_device_state_set_reset
 .text.usb_device_state_init
                0x0000000000002f98        0x4 .build/obj_PanasonicBusinessPartner286_default/protocol/usb_device_state.o
                0x0000000000002f98                usb_device_state_init
 .text.suspend_wakeup_init_user
                0x0000000000002f9c        0x2 .build/obj_PanasonicBusinessPartner286_default/platforms/suspend.o
                0x0000000000002f9c                suspend_wakeup_init_user
 .text.suspend_power_down_user
                0x0000000000002f9e        0x2 .build/obj_PanasonicBusinessPartner286_default/platforms/suspend.o
                0x0000000000002f9e                suspend_power_down_user
 .text.suspend_power_down_kb
                0x0000000000002fa0        0x4 .build/obj_PanasonicBusinessPartner286_default/platforms/suspend.o
                0x0000000000002fa0                suspend_power_down_kb
 .text.matrix_power_up
                0x0000000000002fa4        0x2 .build/obj_PanasonicBusinessPartner286_default/platforms/suspend.o
                0x0000000000002fa4                matrix_power_up
 .text.matrix_power_down
                0x0000000000002fa6        0x2 .build/obj_PanasonicBusinessPartner286_default/platforms/suspend.o
                0x0000000000002fa6                matrix_power_down
 .text.suspend_wakeup_init_kb
                0x0000000000002fa8        0x4 .build/obj_PanasonicBusinessPartner286_default/platforms/suspend.o
                0x0000000000002fa8                suspend_wakeup_init_kb
 .text.suspend_wakeup_condition
                0x0000000000002fac       0x2a .build/obj_PanasonicBusinessPartner286_default/platforms/suspend.o
                0x0000000000002fac                suspend_wakeup_condition
 .text.platform_setup
                0x0000000000002fd6        0x2 .build/obj_PanasonicBusinessPartner286_default/platforms/avr/platform.o
                0x0000000000002fd6                platform_setup
 .text.__vector_12
                0x0000000000002fd8       0x4e .build/obj_PanasonicBusinessPartner286_default/platforms/avr/suspend.o
                0x0000000000002fd8                __vector_12
 .text.suspend_power_down
                0x0000000000003026       0x56 .build/obj_PanasonicBusinessPartner286_default/platforms/avr/suspend.o
                0x0000000000003026                suspend_power_down
 .text.suspend_wakeup_init
                0x000000000000307c        0x8 .build/obj_PanasonicBusinessPartner286_default/platforms/avr/suspend.o
                0x000000000000307c                suspend_wakeup_init
 .text.timer_init
                0x0000000000003084       0x12 .build/obj_PanasonicBusinessPartner286_default/platforms/avr/timer.o
                0x0000000000003084                timer_init
 .text.timer_read
                0x0000000000003096       0x18 .build/obj_PanasonicBusinessPartner286_default/platforms/avr/timer.o
                0x0000000000003096                timer_read
 .text.timer_read32
                0x00000000000030ae       0x18 .build/obj_PanasonicBusinessPartner286_default/platforms/avr/timer.o
                0x00000000000030ae                timer_read32
 .text.timer_elapsed
                0x00000000000030c6       0x1e .build/obj_PanasonicBusinessPartner286_default/platforms/avr/timer.o
                0x00000000000030c6                timer_elapsed
 .text.__vector_21
                0x00000000000030e4       0x48 .build/obj_PanasonicBusinessPartner286_default/platforms/avr/timer.o
                0x00000000000030e4                __vector_21
 .text.bootloader_jump
                0x000000000000312c       0x64 .build/obj_PanasonicBusinessPartner286_default/platforms/avr/bootloaders/halfkay.o
                0x000000000000312c                bootloader_jump
 .text.keyboard_leds
                0x0000000000003190        0x6 .build/obj_PanasonicBusinessPartner286_default/lufa.o
 .text.send_programmable_button
                0x0000000000003196        0x2 .build/obj_PanasonicBusinessPartner286_default/lufa.o
 .text.send_mouse
                0x0000000000003198       0x42 .build/obj_PanasonicBusinessPartner286_default/lufa.o
 .text.send_keyboard
                0x00000000000031da       0x80 .build/obj_PanasonicBusinessPartner286_default/lufa.o
 .text.send_extra
                0x000000000000325a       0x56 .build/obj_PanasonicBusinessPartner286_default/lufa.o
 .text.send_consumer
                0x00000000000032b0        0x8 .build/obj_PanasonicBusinessPartner286_default/lufa.o
 .text.send_system
                0x00000000000032b8        0x8 .build/obj_PanasonicBusinessPartner286_default/lufa.o
 .text.EVENT_USB_Device_Connect
                0x00000000000032c0       0x1c .build/obj_PanasonicBusinessPartner286_default/lufa.o
                0x00000000000032c0                EVENT_USB_Device_Connect
 .text.EVENT_USB_Device_Disconnect
                0x00000000000032dc        0x6 .build/obj_PanasonicBusinessPartner286_default/lufa.o
                0x00000000000032dc                EVENT_USB_Device_Disconnect
 .text.EVENT_USB_Device_Reset
                0x00000000000032e2        0x4 .build/obj_PanasonicBusinessPartner286_default/lufa.o
                0x00000000000032e2                EVENT_USB_Device_Reset
 .text.EVENT_USB_Device_Suspend
                0x00000000000032e6       0x10 .build/obj_PanasonicBusinessPartner286_default/lufa.o
                0x00000000000032e6                EVENT_USB_Device_Suspend
 .text.EVENT_USB_Device_WakeUp
                0x00000000000032f6       0x14 .build/obj_PanasonicBusinessPartner286_default/lufa.o
                0x00000000000032f6                EVENT_USB_Device_WakeUp
 .text.EVENT_USB_Device_ConfigurationChanged
                0x000000000000330a       0x28 .build/obj_PanasonicBusinessPartner286_default/lufa.o
                0x000000000000330a                EVENT_USB_Device_ConfigurationChanged
 .text.EVENT_USB_Device_ControlRequest
                0x0000000000003332      0x170 .build/obj_PanasonicBusinessPartner286_default/lufa.o
                0x0000000000003332                EVENT_USB_Device_ControlRequest
 .text.protocol_setup
                0x00000000000034a2       0x32 .build/obj_PanasonicBusinessPartner286_default/lufa.o
                0x00000000000034a2                protocol_setup
 .text.protocol_pre_init
                0x00000000000034d4       0x18 .build/obj_PanasonicBusinessPartner286_default/lufa.o
                0x00000000000034d4                protocol_pre_init
 .text.protocol_post_init
                0x00000000000034ec        0x8 .build/obj_PanasonicBusinessPartner286_default/lufa.o
                0x00000000000034ec                protocol_post_init
 .text.protocol_pre_task
                0x00000000000034f4       0x34 .build/obj_PanasonicBusinessPartner286_default/lufa.o
                0x00000000000034f4                protocol_pre_task
 .text.protocol_post_task
                0x0000000000003528        0x2 .build/obj_PanasonicBusinessPartner286_default/lufa.o
                0x0000000000003528                protocol_post_task
 .text.CALLBACK_USB_GetDescriptor
                0x000000000000352a        0x4 .build/obj_PanasonicBusinessPartner286_default/lufa.o
                0x000000000000352a                CALLBACK_USB_GetDescriptor
 .text.get_usb_descriptor
                0x000000000000352e       0xb0 .build/obj_PanasonicBusinessPartner286_default/usb_descriptor.o
                0x000000000000352e                get_usb_descriptor
 .text.USB_Device_SendRemoteWakeup
                0x00000000000035de       0x2c .build/obj_PanasonicBusinessPartner286_default/lib/lufa/LUFA/Drivers/USB/Core/AVR8/Device_AVR8.o
                0x00000000000035de                USB_Device_SendRemoteWakeup
 .text.Endpoint_Write_Stream_LE
                0x000000000000360a       0x9e .build/obj_PanasonicBusinessPartner286_default/lib/lufa/LUFA/Drivers/USB/Core/AVR8/EndpointStream_AVR8.o
                0x000000000000360a                Endpoint_Write_Stream_LE
 .text.Endpoint_Write_Control_Stream_LE
                0x00000000000036a8       0xba .build/obj_PanasonicBusinessPartner286_default/lib/lufa/LUFA/Drivers/USB/Core/AVR8/EndpointStream_AVR8.o
                0x00000000000036a8                Endpoint_Write_Control_Stream_LE
 .text.Endpoint_Write_Control_PStream_LE
                0x0000000000003762       0xbc .build/obj_PanasonicBusinessPartner286_default/lib/lufa/LUFA/Drivers/USB/Core/AVR8/EndpointStream_AVR8.o
                0x0000000000003762                Endpoint_Write_Control_PStream_LE
 .text.Endpoint_ConfigureEndpoint_Prv
                0x000000000000381e       0x68 .build/obj_PanasonicBusinessPartner286_default/lib/lufa/LUFA/Drivers/USB/Core/AVR8/Endpoint_AVR8.o
                0x000000000000381e                Endpoint_ConfigureEndpoint_Prv
 .text.Endpoint_ClearStatusStage
                0x0000000000003886       0x3e .build/obj_PanasonicBusinessPartner286_default/lib/lufa/LUFA/Drivers/USB/Core/AVR8/Endpoint_AVR8.o
                0x0000000000003886                Endpoint_ClearStatusStage
 .text.Endpoint_WaitUntilReady
                0x00000000000038c4       0x62 .build/obj_PanasonicBusinessPartner286_default/lib/lufa/LUFA/Drivers/USB/Core/AVR8/Endpoint_AVR8.o
                0x00000000000038c4                Endpoint_WaitUntilReady
 .text.USB_Disable
                0x0000000000003926       0x34 .build/obj_PanasonicBusinessPartner286_default/lib/lufa/LUFA/Drivers/USB/Core/AVR8/USBController_AVR8.o
                0x0000000000003926                USB_Disable
 .text.USB_ResetInterface
                0x000000000000395a       0x90 .build/obj_PanasonicBusinessPartner286_default/lib/lufa/LUFA/Drivers/USB/Core/AVR8/USBController_AVR8.o
                0x000000000000395a                USB_ResetInterface
 .text.USB_Init
                0x00000000000039ea       0x1e .build/obj_PanasonicBusinessPartner286_default/lib/lufa/LUFA/Drivers/USB/Core/AVR8/USBController_AVR8.o
                0x00000000000039ea                USB_Init
 .text.USB_INT_DisableAllInterrupts
                0x0000000000003a08       0x10 .build/obj_PanasonicBusinessPartner286_default/lib/lufa/LUFA/Drivers/USB/Core/AVR8/USBInterrupt_AVR8.o
                0x0000000000003a08                USB_INT_DisableAllInterrupts
 .text.USB_INT_ClearAllInterrupts
                0x0000000000003a18        0xa .build/obj_PanasonicBusinessPartner286_default/lib/lufa/LUFA/Drivers/USB/Core/AVR8/USBInterrupt_AVR8.o
                0x0000000000003a18                USB_INT_ClearAllInterrupts
 .text.__vector_10
                0x0000000000003a22      0x1b0 .build/obj_PanasonicBusinessPartner286_default/lib/lufa/LUFA/Drivers/USB/Core/AVR8/USBInterrupt_AVR8.o
                0x0000000000003a22                __vector_10
 .text.__vector_11
                0x0000000000003bd2       0x90 .build/obj_PanasonicBusinessPartner286_default/lib/lufa/LUFA/Drivers/USB/Core/AVR8/USBInterrupt_AVR8.o
                0x0000000000003bd2                __vector_11
 .text.USB_Device_ProcessControlRequest
                0x0000000000003c62      0x2a4 .build/obj_PanasonicBusinessPartner286_default/lib/lufa/LUFA/Drivers/USB/Core/DeviceStandardReq.o
                0x0000000000003c62                USB_Device_ProcessControlRequest
 .text.USB_Event_Stub
                0x0000000000003f06        0x2 .build/obj_PanasonicBusinessPartner286_default/lib/lufa/LUFA/Drivers/USB/Core/Events.o
                0x0000000000003f06                USB_Event_Stub
                0x0000000000003f06                EVENT_USB_Device_StartOfFrame
 .text.USB_USBTask
                0x0000000000003f08       0x36 .build/obj_PanasonicBusinessPartner286_default/lib/lufa/LUFA/Drivers/USB/Core/USBTask.o
                0x0000000000003f08                USB_USBTask
 .text.libgcc.div
                0x0000000000003f3e       0x28 /usr/lib/gcc/avr/8.3.0/avr51/libgcc.a(_divmodhi4.o)
                0x0000000000003f3e                __divmodhi4
                0x0000000000003f3e                _div
 .text.libgcc   0x0000000000003f66       0x12 /usr/lib/gcc/avr/8.3.0/avr51/libgcc.a(_tablejump2.o)
                0x0000000000003f66                __tablejump2__
 .text.libgcc.div
                0x0000000000003f78       0x28 /usr/lib/gcc/avr/8.3.0/avr51/libgcc.a(_udivmodhi4.o)
                0x0000000000003f78                __udivmodhi4
 .text.avr-libc
                0x0000000000003fa0       0x1a /usr/lib/gcc/avr/8.3.0/../../../../avr/lib/avr51/libc.a(memcmp.o)
                0x0000000000003fa0                memcmp
 .text.avr-libc
                0x0000000000003fba       0x10 /usr/lib/gcc/avr/8.3.0/../../../../avr/lib/avr51/libat90usb1286.a(eerd_byte.o)
                0x0000000000003fba                eeprom_read_byte
 .text.avr-libc
                0x0000000000003fca        0xc /usr/lib/gcc/avr/8.3.0/../../../../avr/lib/avr51/libat90usb1286.a(eerd_word.o)
                0x0000000000003fca                eeprom_read_word
 .text.avr-libc
                0x0000000000003fd6       0x24 /usr/lib/gcc/avr/8.3.0/../../../../avr/lib/avr51/libat90usb1286.a(eeupd_byte.o)
                0x0000000000003fd6                eeprom_update_byte
                0x0000000000003fd8                eeprom_update_r18
 .text.avr-libc
                0x0000000000003ffa       0x18 /usr/lib/gcc/avr/8.3.0/../../../../avr/lib/avr51/libat90usb1286.a(eeupd_dword.o)
                0x0000000000003ffa                eeprom_update_dword
                0x0000000000003ffa                eeprom_update_float
 .text.avr-libc
                0x0000000000004012        0xc /usr/lib/gcc/avr/8.3.0/../../../../avr/lib/avr51/libat90usb1286.a(eeupd_word.o)
                0x0000000000004012                eeprom_update_word
 .text.avr-libc
                0x000000000000401e       0x20 /usr/lib/gcc/avr/8.3.0/../../../../avr/lib/avr51/libat90usb1286.a(eerd_block.o)
                0x000000000000401e                eeprom_read_block
                0x0000000000004022                eeprom_read_blraw
                0x000000000000403e                . = ALIGN (0x2)
 *(.fini9)
 .fini9         0x000000000000403e        0x0 /usr/lib/gcc/avr/8.3.0/avr51/libgcc.a(_exit.o)
                0x000000000000403e                exit
                0x000000000000403e                _exit
 *(.fini9)
 *(.fini8)
 *(.fini8)
 *(.fini7)
 *(.fini7)
 *(.fini6)
 *(.fini6)
 *(.fini5)
 *(.fini5)
 *(.fini4)
 *(.fini4)
 *(.fini3)
 *(.fini3)
 *(.fini2)
 *(.fini2)
 *(.fini1)
 *(.fini1)
 *(.fini0)
 .fini0         0x000000000000403e        0x4 /usr/lib/gcc/avr/8.3.0/avr51/libgcc.a(_exit.o)
 *(.fini0)
 *(.hightext)
 *(.hightext*)
 *(.progmemx.*)
                0x0000000000004042                . = ALIGN (0x2)
 *(.jumptables)
 *(.jumptables*)
 .jumptables.gcc.process_action
                0x0000000000004042       0x18 .build/obj_PanasonicBusinessPartner286_default/quantum/action.o
 .jumptables.gcc.USB_Device_ProcessControlRequest
                0x000000000000405a       0x14 .build/obj_PanasonicBusinessPartner286_default/lib/lufa/LUFA/Drivers/USB/Core/DeviceStandardReq.o
                0x000000000000406e                _etext = .

.data           0x0000000000800100       0x94 load address 0x000000000000406e
                0x0000000000800100                PROVIDE (__data_start = .)
 *(.data)
 *(.data*)
 .data.g_tapping_term
                0x0000000000800100        0x2 .build/obj_PanasonicBusinessPartner286_default/quantum/action_tapping.o
                0x0000000000800100                g_tapping_term
 .data.keyboard_report
                0x0000000000800102        0x2 .build/obj_PanasonicBusinessPartner286_default/quantum/action_util.o
                0x0000000000800102                keyboard_report
 .data.mk_wheel_time_to_max
                0x0000000000800104        0x1 .build/obj_PanasonicBusinessPartner286_default/quantum/mousekey.o
                0x0000000000800104                mk_wheel_time_to_max
 .data.mk_wheel_max_speed
                0x0000000000800105        0x1 .build/obj_PanasonicBusinessPartner286_default/quantum/mousekey.o
                0x0000000000800105                mk_wheel_max_speed
 .data.mk_wheel_interval
                0x0000000000800106        0x1 .build/obj_PanasonicBusinessPartner286_default/quantum/mousekey.o
                0x0000000000800106                mk_wheel_interval
 .data.mk_wheel_delay
                0x0000000000800107        0x1 .build/obj_PanasonicBusinessPartner286_default/quantum/mousekey.o
                0x0000000000800107                mk_wheel_delay
 .data.mk_time_to_max
                0x0000000000800108        0x1 .build/obj_PanasonicBusinessPartner286_default/quantum/mousekey.o
                0x0000000000800108                mk_time_to_max
 .data.mk_max_speed
                0x0000000000800109        0x1 .build/obj_PanasonicBusinessPartner286_default/quantum/mousekey.o
                0x0000000000800109                mk_max_speed
 .data.mk_interval
                0x000000000080010a        0x1 .build/obj_PanasonicBusinessPartner286_default/quantum/mousekey.o
                0x000000000080010a                mk_interval
 .data.mk_delay
                0x000000000080010b        0x1 .build/obj_PanasonicBusinessPartner286_default/quantum/mousekey.o
                0x000000000080010b                mk_delay
 .data.lufa_driver
                0x000000000080010c        0xc .build/obj_PanasonicBusinessPartner286_default/lufa.o
                0x000000000080010c                lufa_driver
 .data.keyboard_protocol
                0x0000000000800118        0x1 .build/obj_PanasonicBusinessPartner286_default/lufa.o
                0x0000000000800118                keyboard_protocol
 *(.gnu.linkonce.d*)
 *(.rodata)
 *(.rodata*)
 .rodata.CSWTCH.12
                0x0000000000800119       0x2e .build/obj_PanasonicBusinessPartner286_default/quantum/action.o
 .rodata.CSWTCH.11
                0x0000000000800147        0x3 .build/obj_PanasonicBusinessPartner286_default/quantum/action.o
 .rodata.CSWTCH.1
                0x000000000080014a       0x2e .build/obj_PanasonicBusinessPartner286_default/quantum/keymap_common.o
 .rodata.CSWTCH.0
                0x0000000000800178        0x3 .build/obj_PanasonicBusinessPartner286_default/quantum/keymap_common.o
 .rodata.col_pins
                0x000000000080017b       0x10 .build/obj_PanasonicBusinessPartner286_default/quantum/matrix.o
 .rodata.row_pins
                0x000000000080018b        0x8 .build/obj_PanasonicBusinessPartner286_default/quantum/matrix.o
 *(.gnu.linkonce.r*)
                0x0000000000800194                . = ALIGN (0x2)
 *fill*         0x0000000000800193        0x1 
                0x0000000000800194                _edata = .
                0x0000000000800194                PROVIDE (__data_end = .)

.bss            0x0000000000800194      0x165
                0x0000000000800194                PROVIDE (__bss_start = .)
 *(.bss)
 .bss           0x0000000000800194        0x2 .build/obj_PanasonicBusinessPartner286_default/platforms/avr/xprintf.o
                0x0000000000800194                xfunc_out
 *(.bss*)
 .bss.last_led_status.4966
                0x0000000000800196        0x1 .build/obj_PanasonicBusinessPartner286_default/quantum/led.o
 .bss.disable_action_cache
                0x0000000000800197        0x1 .build/obj_PanasonicBusinessPartner286_default/quantum/action.o
                0x0000000000800197                disable_action_cache
 .bss.source_layers_cache
                0x0000000000800198       0x50 .build/obj_PanasonicBusinessPartner286_default/quantum/action_layer.o
                0x0000000000800198                source_layers_cache
 .bss.layer_state
                0x00000000008001e8        0x4 .build/obj_PanasonicBusinessPartner286_default/quantum/action_layer.o
                0x00000000008001e8                layer_state
 .bss.default_layer_state
                0x00000000008001ec        0x4 .build/obj_PanasonicBusinessPartner286_default/quantum/action_layer.o
                0x00000000008001ec                default_layer_state
 .bss.waiting_buffer_tail
                0x00000000008001f0        0x1 .build/obj_PanasonicBusinessPartner286_default/quantum/action_tapping.o
 .bss.waiting_buffer_head
                0x00000000008001f1        0x1 .build/obj_PanasonicBusinessPartner286_default/quantum/action_tapping.o
 .bss.waiting_buffer
                0x00000000008001f2       0x30 .build/obj_PanasonicBusinessPartner286_default/quantum/action_tapping.o
 .bss.tapping_key
                0x0000000000800222        0x6 .build/obj_PanasonicBusinessPartner286_default/quantum/action_tapping.o
 .bss.last_report.5464
                0x0000000000800228       0x20 .build/obj_PanasonicBusinessPartner286_default/quantum/action_util.o
 .bss.oneshot_layer_data
                0x0000000000800248        0x1 .build/obj_PanasonicBusinessPartner286_default/quantum/action_util.o
 .bss.oneshot_mods
                0x0000000000800249        0x1 .build/obj_PanasonicBusinessPartner286_default/quantum/action_util.o
 .bss.__compound_literal.0
                0x000000000080024a       0x20 .build/obj_PanasonicBusinessPartner286_default/quantum/action_util.o
 .bss.weak_mods
                0x000000000080026a        0x1 .build/obj_PanasonicBusinessPartner286_default/quantum/action_util.o
 .bss.real_mods
                0x000000000080026b        0x1 .build/obj_PanasonicBusinessPartner286_default/quantum/action_util.o
 .bss.matrix_prev.6440
                0x000000000080026c       0x10 .build/obj_PanasonicBusinessPartner286_default/quantum/keyboard.o
 .bss.last_matrix_modification_time
                0x000000000080027c        0x4 .build/obj_PanasonicBusinessPartner286_default/quantum/keyboard.o
 .bss.last_input_modification_time
                0x0000000000800280        0x4 .build/obj_PanasonicBusinessPartner286_default/quantum/keyboard.o
 .bss.debug_config
                0x0000000000800284        0x1 .build/obj_PanasonicBusinessPartner286_default/quantum/logging/debug.o
                0x0000000000800284                debug_config
 .bss.debouncing_time
                0x0000000000800285        0x2 .build/obj_PanasonicBusinessPartner286_default/quantum/debounce/sym_defer_g.o
 .bss.debouncing
                0x0000000000800287        0x1 .build/obj_PanasonicBusinessPartner286_default/quantum/debounce/sym_defer_g.o
 .bss.last_timer_w
                0x0000000000800288        0x2 .build/obj_PanasonicBusinessPartner286_default/quantum/mousekey.o
 .bss.last_timer_c
                0x000000000080028a        0x2 .build/obj_PanasonicBusinessPartner286_default/quantum/mousekey.o
 .bss.mousekey_wheel_repeat
                0x000000000080028c        0x1 .build/obj_PanasonicBusinessPartner286_default/quantum/mousekey.o
 .bss.mousekey_repeat
                0x000000000080028d        0x1 .build/obj_PanasonicBusinessPartner286_default/quantum/mousekey.o
 .bss.mousekey_accel
                0x000000000080028e        0x1 .build/obj_PanasonicBusinessPartner286_default/quantum/mousekey.o
 .bss.mouse_report
                0x000000000080028f        0x6 .build/obj_PanasonicBusinessPartner286_default/quantum/mousekey.o
 .bss.grave_esc_was_shifted
                0x0000000000800295        0x1 .build/obj_PanasonicBusinessPartner286_default/quantum/process_keycode/process_grave_esc.o
 .bss.sc_timer  0x0000000000800296        0x2 .build/obj_PanasonicBusinessPartner286_default/quantum/process_keycode/process_space_cadet.o
 .bss.sc_last   0x0000000000800298        0x1 .build/obj_PanasonicBusinessPartner286_default/quantum/process_keycode/process_space_cadet.o
 .bss.last_consumer_report
                0x0000000000800299        0x2 .build/obj_PanasonicBusinessPartner286_default/protocol/host.o
 .bss.last_system_report
                0x000000000080029b        0x2 .build/obj_PanasonicBusinessPartner286_default/protocol/host.o
 .bss.driver    0x000000000080029d        0x2 .build/obj_PanasonicBusinessPartner286_default/protocol/host.o
 .bss.usb_device_state
                0x000000000080029f        0x1 .build/obj_PanasonicBusinessPartner286_default/protocol/usb_device_state.o
                0x000000000080029f                usb_device_state
 .bss.wdt_timeout
                0x00000000008002a0        0x1 .build/obj_PanasonicBusinessPartner286_default/platforms/avr/suspend.o
 .bss.r.6477    0x00000000008002a1        0x3 .build/obj_PanasonicBusinessPartner286_default/lufa.o
 .bss.keyboard_report_sent
                0x00000000008002a4       0x20 .build/obj_PanasonicBusinessPartner286_default/lufa.o
 .bss.keyboard_led_state
                0x00000000008002c4        0x1 .build/obj_PanasonicBusinessPartner286_default/lufa.o
 .bss.keyboard_idle
                0x00000000008002c5        0x1 .build/obj_PanasonicBusinessPartner286_default/lufa.o
                0x00000000008002c5                keyboard_idle
 *(COMMON)
 COMMON         0x00000000008002c6        0x2 .build/obj_PanasonicBusinessPartner286_default/quantum/bootmagic/magic.o
                0x00000000008002c6                keymap_config
 COMMON         0x00000000008002c8       0x20 .build/obj_PanasonicBusinessPartner286_default/quantum/matrix_common.o
                0x00000000008002c8                raw_matrix
                0x00000000008002d8                matrix
 COMMON         0x00000000008002e8        0x4 .build/obj_PanasonicBusinessPartner286_default/platforms/avr/timer.o
                0x00000000008002e8                timer_count
 COMMON         0x00000000008002ec        0x3 .build/obj_PanasonicBusinessPartner286_default/lib/lufa/LUFA/Drivers/USB/Core/DeviceStandardReq.o
                0x00000000008002ec                USB_Device_ConfigurationNumber
                0x00000000008002ed                USB_Device_CurrentlySelfPowered
                0x00000000008002ee                USB_Device_RemoteWakeupEnabled
 COMMON         0x00000000008002ef        0xa .build/obj_PanasonicBusinessPartner286_default/lib/lufa/LUFA/Drivers/USB/Core/USBTask.o
                0x00000000008002ef                USB_IsInitialized
                0x00000000008002f0                USB_DeviceState
                0x00000000008002f1                USB_ControlRequest
                0x00000000008002f9                PROVIDE (__bss_end = .)
                0x000000000000406e                __data_load_start = LOADADDR (.data)
                0x0000000000004102                __data_load_end = (__data_load_start + SIZEOF (.data))

.noinit         0x00000000008002f9        0x0
                [!provide]                        PROVIDE (__noinit_start = .)
 *(.noinit .noinit.* .gnu.linkonce.n.*)
                [!provide]                        PROVIDE (__noinit_end = .)
                0x00000000008002f9                _end = .
                [!provide]                        PROVIDE (__heap_start = .)

.eeprom         0x0000000000810000        0x0
 *(.eeprom*)
                0x0000000000810000                __eeprom_end = .

.fuse
 *(.fuse)
 *(.lfuse)
 *(.hfuse)
 *(.efuse)

.lock
 *(.lock*)

.signature
 *(.signature*)

.stab
 *(.stab)

.stabstr
 *(.stabstr)

.stab.excl
 *(.stab.excl)

.stab.exclstr
 *(.stab.exclstr)

.stab.index
 *(.stab.index)

.stab.indexstr
 *(.stab.indexstr)

.comment        0x0000000000000000       0x11
 *(.comment)
 .comment       0x0000000000000000       0x11 .build/obj_PanasonicBusinessPartner286_default/keyboards/PanasonicBusinessPartner286/keymaps/default/keymap.o
                                         0x12 (size before relaxing)
 .comment       0x0000000000000011       0x12 .build/obj_PanasonicBusinessPartner286_default/quantum/quantum.o
 .comment       0x0000000000000011       0x12 .build/obj_PanasonicBusinessPartner286_default/quantum/led.o
 .comment       0x0000000000000011       0x12 .build/obj_PanasonicBusinessPartner286_default/quantum/action.o
 .comment       0x0000000000000011       0x12 .build/obj_PanasonicBusinessPartner286_default/quantum/action_layer.o
 .comment       0x0000000000000011       0x12 .build/obj_PanasonicBusinessPartner286_default/quantum/action_tapping.o
 .comment       0x0000000000000011       0x12 .build/obj_PanasonicBusinessPartner286_default/quantum/action_util.o
 .comment       0x0000000000000011       0x12 .build/obj_PanasonicBusinessPartner286_default/quantum/eeconfig.o
 .comment       0x0000000000000011       0x12 .build/obj_PanasonicBusinessPartner286_default/quantum/keyboard.o
 .comment       0x0000000000000011       0x12 .build/obj_PanasonicBusinessPartner286_default/quantum/keymap_common.o
 .comment       0x0000000000000011       0x12 .build/obj_PanasonicBusinessPartner286_default/quantum/keycode_config.o
 .comment       0x0000000000000011       0x12 .build/obj_PanasonicBusinessPartner286_default/quantum/logging/debug.o
 .comment       0x0000000000000011       0x12 .build/obj_PanasonicBusinessPartner286_default/quantum/logging/sendchar.o
 .comment       0x0000000000000011       0x12 .build/obj_PanasonicBusinessPartner286_default/quantum/bootmagic/bootmagic_lite.o
 .comment       0x0000000000000011       0x12 .build/obj_PanasonicBusinessPartner286_default/quantum/bootmagic/magic.o
 .comment       0x0000000000000011       0x12 .build/obj_PanasonicBusinessPartner286_default/quantum/matrix_common.o
 .comment       0x0000000000000011       0x12 .build/obj_PanasonicBusinessPartner286_default/quantum/matrix.o
 .comment       0x0000000000000011       0x12 .build/obj_PanasonicBusinessPartner286_default/quantum/debounce/sym_defer_g.o
 .comment       0x0000000000000011       0x12 .build/obj_PanasonicBusinessPartner286_default/quantum/main.o
 .comment       0x0000000000000011       0x12 .build/obj_PanasonicBusinessPartner286_default/quantum/mousekey.o
 .comment       0x0000000000000011       0x12 .build/obj_PanasonicBusinessPartner286_default/quantum/process_keycode/process_magic.o
 .comment       0x0000000000000011       0x12 .build/obj_PanasonicBusinessPartner286_default/quantum/process_keycode/process_grave_esc.o
 .comment       0x0000000000000011       0x12 .build/obj_PanasonicBusinessPartner286_default/quantum/process_keycode/process_space_cadet.o
 .comment       0x0000000000000011       0x12 .build/obj_PanasonicBusinessPartner286_default/platforms/avr/printf.o
 .comment       0x0000000000000011       0x12 .build/obj_PanasonicBusinessPartner286_default/protocol/host.o
 .comment       0x0000000000000011       0x12 .build/obj_PanasonicBusinessPartner286_default/protocol/report.o
 .comment       0x0000000000000011       0x12 .build/obj_PanasonicBusinessPartner286_default/protocol/usb_device_state.o
 .comment       0x0000000000000011       0x12 .build/obj_PanasonicBusinessPartner286_default/platforms/suspend.o
 .comment       0x0000000000000011       0x12 .build/obj_PanasonicBusinessPartner286_default/platforms/avr/platform.o
 .comment       0x0000000000000011       0x12 .build/obj_PanasonicBusinessPartner286_default/platforms/avr/suspend.o
 .comment       0x0000000000000011       0x12 .build/obj_PanasonicBusinessPartner286_default/platforms/avr/timer.o
 .comment       0x0000000000000011       0x12 .build/obj_PanasonicBusinessPartner286_default/platforms/avr/bootloaders/halfkay.o
 .comment       0x0000000000000011       0x12 .build/obj_PanasonicBusinessPartner286_default/lufa.o
 .comment       0x0000000000000011       0x12 .build/obj_PanasonicBusinessPartner286_default/usb_descriptor.o
 .comment       0x0000000000000011       0x12 .build/obj_PanasonicBusinessPartner286_default/lib/lufa/LUFA/Drivers/USB/Core/AVR8/Device_AVR8.o
 .comment       0x0000000000000011       0x12 .build/obj_PanasonicBusinessPartner286_default/lib/lufa/LUFA/Drivers/USB/Core/AVR8/EndpointStream_AVR8.o
 .comment       0x0000000000000011       0x12 .build/obj_PanasonicBusinessPartner286_default/lib/lufa/LUFA/Drivers/USB/Core/AVR8/Endpoint_AVR8.o
 .comment       0x0000000000000011       0x12 .build/obj_PanasonicBusinessPartner286_default/lib/lufa/LUFA/Drivers/USB/Core/AVR8/USBController_AVR8.o
 .comment       0x0000000000000011       0x12 .build/obj_PanasonicBusinessPartner286_default/lib/lufa/LUFA/Drivers/USB/Core/AVR8/USBInterrupt_AVR8.o
 .comment       0x0000000000000011       0x12 .build/obj_PanasonicBusinessPartner286_default/lib/lufa/LUFA/Drivers/USB/Core/DeviceStandardReq.o
 .comment       0x0000000000000011       0x12 .build/obj_PanasonicBusinessPartner286_default/lib/lufa/LUFA/Drivers/USB/Core/Events.o
 .comment       0x0000000000000011       0x12 .build/obj_PanasonicBusinessPartner286_default/lib/lufa/LUFA/Drivers/USB/Core/USBTask.o

.note.gnu.avr.deviceinfo
                0x0000000000000000       0x40
 .note.gnu.avr.deviceinfo
                0x0000000000000000       0x40 /usr/lib/gcc/avr/8.3.0/../../../../avr/lib/avr51/crtat90usb1286.o

.note.gnu.build-id
 *(.note.gnu.build-id)

.debug
 *(.debug)

.line
 *(.line)

.debug_srcinfo
 *(.debug_srcinfo)

.debug_sfnames
 *(.debug_sfnames)

.debug_aranges  0x0000000000000000      0xe78
 *(.debug_aranges)
 .debug_aranges
                0x0000000000000000       0x28 .build/obj_PanasonicBusinessPartner286_default/keyboards/PanasonicBusinessPartner286/keymaps/default/keymap.o
 .debug_aranges
                0x0000000000000028       0xf0 .build/obj_PanasonicBusinessPartner286_default/quantum/quantum.o
 .debug_aranges
                0x0000000000000118       0x60 .build/obj_PanasonicBusinessPartner286_default/quantum/led.o
 .debug_aranges
                0x0000000000000178       0xe0 .build/obj_PanasonicBusinessPartner286_default/quantum/action.o
 .debug_aranges
                0x0000000000000258       0xe0 .build/obj_PanasonicBusinessPartner286_default/quantum/action_layer.o
 .debug_aranges
                0x0000000000000338       0x48 .build/obj_PanasonicBusinessPartner286_default/quantum/action_tapping.o
 .debug_aranges
                0x0000000000000380      0x150 .build/obj_PanasonicBusinessPartner286_default/quantum/action_util.o
 .debug_aranges
                0x00000000000004d0       0xd8 .build/obj_PanasonicBusinessPartner286_default/quantum/eeconfig.o
 .debug_aranges
                0x00000000000005a8       0xc8 .build/obj_PanasonicBusinessPartner286_default/quantum/keyboard.o
 .debug_aranges
                0x0000000000000670       0x30 .build/obj_PanasonicBusinessPartner286_default/quantum/keymap_common.o
 .debug_aranges
                0x00000000000006a0       0x28 .build/obj_PanasonicBusinessPartner286_default/quantum/keycode_config.o
 .debug_aranges
                0x00000000000006c8       0x18 .build/obj_PanasonicBusinessPartner286_default/quantum/logging/debug.o
 .debug_aranges
                0x00000000000006e0       0x20 .build/obj_PanasonicBusinessPartner286_default/quantum/logging/sendchar.o
 .debug_aranges
                0x0000000000000700       0x30 .build/obj_PanasonicBusinessPartner286_default/quantum/bootmagic/bootmagic_lite.o
 .debug_aranges
                0x0000000000000730       0x28 .build/obj_PanasonicBusinessPartner286_default/quantum/bootmagic/magic.o
 .debug_aranges
                0x0000000000000758       0x98 .build/obj_PanasonicBusinessPartner286_default/quantum/matrix_common.o
 .debug_aranges
                0x00000000000007f0       0x40 .build/obj_PanasonicBusinessPartner286_default/quantum/matrix.o
 .debug_aranges
                0x0000000000000830       0x30 .build/obj_PanasonicBusinessPartner286_default/quantum/debounce/sym_defer_g.o
 .debug_aranges
                0x0000000000000860       0x30 .build/obj_PanasonicBusinessPartner286_default/quantum/main.o
 .debug_aranges
                0x0000000000000890       0x58 .build/obj_PanasonicBusinessPartner286_default/quantum/mousekey.o
 .debug_aranges
                0x00000000000008e8       0x20 .build/obj_PanasonicBusinessPartner286_default/quantum/process_keycode/process_magic.o
 .debug_aranges
                0x0000000000000908       0x20 .build/obj_PanasonicBusinessPartner286_default/quantum/process_keycode/process_grave_esc.o
 .debug_aranges
                0x0000000000000928       0x28 .build/obj_PanasonicBusinessPartner286_default/quantum/process_keycode/process_space_cadet.o
 .debug_aranges
                0x0000000000000950       0x20 .build/obj_PanasonicBusinessPartner286_default/platforms/avr/printf.o
 .debug_aranges
                0x0000000000000970       0x88 .build/obj_PanasonicBusinessPartner286_default/protocol/host.o
 .debug_aranges
                0x00000000000009f8       0x68 .build/obj_PanasonicBusinessPartner286_default/protocol/report.o
 .debug_aranges
                0x0000000000000a60       0x40 .build/obj_PanasonicBusinessPartner286_default/protocol/usb_device_state.o
 .debug_aranges
                0x0000000000000aa0       0x38 .build/obj_PanasonicBusinessPartner286_default/platforms/suspend.o
 .debug_aranges
                0x0000000000000ad8       0x20 .build/obj_PanasonicBusinessPartner286_default/platforms/avr/platform.o
 .debug_aranges
                0x0000000000000af8       0x30 .build/obj_PanasonicBusinessPartner286_default/platforms/avr/suspend.o
 .debug_aranges
                0x0000000000000b28       0x50 .build/obj_PanasonicBusinessPartner286_default/platforms/avr/timer.o
 .debug_aranges
                0x0000000000000b78       0x20 .build/obj_PanasonicBusinessPartner286_default/platforms/avr/bootloaders/halfkay.o
 .debug_aranges
                0x0000000000000b98       0xc0 .build/obj_PanasonicBusinessPartner286_default/lufa.o
 .debug_aranges
                0x0000000000000c58       0x20 .build/obj_PanasonicBusinessPartner286_default/usb_descriptor.o
 .debug_aranges
                0x0000000000000c78       0x20 .build/obj_PanasonicBusinessPartner286_default/lib/lufa/LUFA/Drivers/USB/Core/AVR8/Device_AVR8.o
 .debug_aranges
                0x0000000000000c98       0xc8 .build/obj_PanasonicBusinessPartner286_default/lib/lufa/LUFA/Drivers/USB/Core/AVR8/EndpointStream_AVR8.o
 .debug_aranges
                0x0000000000000d60       0x40 .build/obj_PanasonicBusinessPartner286_default/lib/lufa/LUFA/Drivers/USB/Core/AVR8/Endpoint_AVR8.o
 .debug_aranges
                0x0000000000000da0       0x30 .build/obj_PanasonicBusinessPartner286_default/lib/lufa/LUFA/Drivers/USB/Core/AVR8/USBController_AVR8.o
 .debug_aranges
                0x0000000000000dd0       0x38 .build/obj_PanasonicBusinessPartner286_default/lib/lufa/LUFA/Drivers/USB/Core/AVR8/USBInterrupt_AVR8.o
 .debug_aranges
                0x0000000000000e08       0x20 .build/obj_PanasonicBusinessPartner286_default/lib/lufa/LUFA/Drivers/USB/Core/DeviceStandardReq.o
 .debug_aranges
                0x0000000000000e28       0x30 .build/obj_PanasonicBusinessPartner286_default/lib/lufa/LUFA/Drivers/USB/Core/Events.o
 .debug_aranges
                0x0000000000000e58       0x20 .build/obj_PanasonicBusinessPartner286_default/lib/lufa/LUFA/Drivers/USB/Core/USBTask.o

.debug_pubnames
 *(.debug_pubnames)

.debug_info     0x0000000000000000    0x1fead
 *(.debug_info .gnu.linkonce.wi.*)
 .debug_info    0x0000000000000000      0x995 /usr/lib/gcc/avr/8.3.0/../../../../avr/lib/avr51/crtat90usb1286.o
 .debug_info    0x0000000000000995     0x19cf .build/obj_PanasonicBusinessPartner286_default/keyboards/PanasonicBusinessPartner286/keymaps/default/keymap.o
 .debug_info    0x0000000000002364     0x2738 .build/obj_PanasonicBusinessPartner286_default/quantum/quantum.o
 .debug_info    0x0000000000004a9c      0x5ad .build/obj_PanasonicBusinessPartner286_default/quantum/led.o
 .debug_info    0x0000000000005049     0x2263 .build/obj_PanasonicBusinessPartner286_default/quantum/action.o
 .debug_info    0x00000000000072ac      0xc52 .build/obj_PanasonicBusinessPartner286_default/quantum/action_layer.o
 .debug_info    0x0000000000007efe      0xf49 .build/obj_PanasonicBusinessPartner286_default/quantum/action_tapping.o
 .debug_info    0x0000000000008e47      0xead .build/obj_PanasonicBusinessPartner286_default/quantum/action_util.o
 .debug_info    0x0000000000009cf4      0x8b5 .build/obj_PanasonicBusinessPartner286_default/quantum/eeconfig.o
 .debug_info    0x000000000000a5a9      0xe8a .build/obj_PanasonicBusinessPartner286_default/quantum/keyboard.o
 .debug_info    0x000000000000b433     0x2190 .build/obj_PanasonicBusinessPartner286_default/quantum/keymap_common.o
 .debug_info    0x000000000000d5c3      0x64e .build/obj_PanasonicBusinessPartner286_default/quantum/keycode_config.o
 .debug_info    0x000000000000dc11      0x110 .build/obj_PanasonicBusinessPartner286_default/quantum/logging/debug.o
 .debug_info    0x000000000000dd21       0xa8 .build/obj_PanasonicBusinessPartner286_default/quantum/logging/sendchar.o
 .debug_info    0x000000000000ddc9      0x935 .build/obj_PanasonicBusinessPartner286_default/quantum/bootmagic/bootmagic_lite.o
 .debug_info    0x000000000000e6fe      0x6fd .build/obj_PanasonicBusinessPartner286_default/quantum/bootmagic/magic.o
 .debug_info    0x000000000000edfb      0xc96 .build/obj_PanasonicBusinessPartner286_default/quantum/matrix_common.o
 .debug_info    0x000000000000fa91      0xdb9 .build/obj_PanasonicBusinessPartner286_default/quantum/matrix.o
 .debug_info    0x000000000001084a      0x92b .build/obj_PanasonicBusinessPartner286_default/quantum/debounce/sym_defer_g.o
 .debug_info    0x0000000000011175      0x1bb .build/obj_PanasonicBusinessPartner286_default/quantum/main.o
 .debug_info    0x0000000000011330      0x83d .build/obj_PanasonicBusinessPartner286_default/quantum/mousekey.o
 .debug_info    0x0000000000011b6d     0x1666 .build/obj_PanasonicBusinessPartner286_default/quantum/process_keycode/process_magic.o
 .debug_info    0x00000000000131d3     0x1ac6 .build/obj_PanasonicBusinessPartner286_default/quantum/process_keycode/process_grave_esc.o
 .debug_info    0x0000000000014c99     0x1b7b .build/obj_PanasonicBusinessPartner286_default/quantum/process_keycode/process_space_cadet.o
 .debug_info    0x0000000000016814       0xe7 .build/obj_PanasonicBusinessPartner286_default/platforms/avr/printf.o
 .debug_info    0x00000000000168fb      0xd8f .build/obj_PanasonicBusinessPartner286_default/protocol/host.o
 .debug_info    0x000000000001768a      0xc94 .build/obj_PanasonicBusinessPartner286_default/protocol/report.o
 .debug_info    0x000000000001831e      0x299 .build/obj_PanasonicBusinessPartner286_default/protocol/usb_device_state.o
 .debug_info    0x00000000000185b7      0x179 .build/obj_PanasonicBusinessPartner286_default/platforms/suspend.o
 .debug_info    0x0000000000018730       0x79 .build/obj_PanasonicBusinessPartner286_default/platforms/avr/platform.o
 .debug_info    0x00000000000187a9      0x61c .build/obj_PanasonicBusinessPartner286_default/platforms/avr/suspend.o
 .debug_info    0x0000000000018dc5      0x443 .build/obj_PanasonicBusinessPartner286_default/platforms/avr/timer.o
 .debug_info    0x0000000000019208      0x13b .build/obj_PanasonicBusinessPartner286_default/platforms/avr/bootloaders/halfkay.o
 .debug_info    0x0000000000019343     0x1a65 .build/obj_PanasonicBusinessPartner286_default/lufa.o
 .debug_info    0x000000000001ada8      0x9be .build/obj_PanasonicBusinessPartner286_default/usb_descriptor.o
 .debug_info    0x000000000001b766      0x1c0 .build/obj_PanasonicBusinessPartner286_default/lib/lufa/LUFA/Drivers/USB/Core/AVR8/Device_AVR8.o
 .debug_info    0x000000000001b926     0x1da4 .build/obj_PanasonicBusinessPartner286_default/lib/lufa/LUFA/Drivers/USB/Core/AVR8/EndpointStream_AVR8.o
 .debug_info    0x000000000001d6ca      0x75d .build/obj_PanasonicBusinessPartner286_default/lib/lufa/LUFA/Drivers/USB/Core/AVR8/Endpoint_AVR8.o
 .debug_info    0x000000000001de27      0x606 .build/obj_PanasonicBusinessPartner286_default/lib/lufa/LUFA/Drivers/USB/Core/AVR8/USBController_AVR8.o
 .debug_info    0x000000000001e42d      0xa43 .build/obj_PanasonicBusinessPartner286_default/lib/lufa/LUFA/Drivers/USB/Core/AVR8/USBInterrupt_AVR8.o
 .debug_info    0x000000000001ee70      0xc59 .build/obj_PanasonicBusinessPartner286_default/lib/lufa/LUFA/Drivers/USB/Core/DeviceStandardReq.o
 .debug_info    0x000000000001fac9       0xe9 .build/obj_PanasonicBusinessPartner286_default/lib/lufa/LUFA/Drivers/USB/Core/Events.o
 .debug_info    0x000000000001fbb2      0x2fb .build/obj_PanasonicBusinessPartner286_default/lib/lufa/LUFA/Drivers/USB/Core/USBTask.o

.debug_abbrev   0x0000000000000000     0x6a58
 *(.debug_abbrev)
 .debug_abbrev  0x0000000000000000      0x910 /usr/lib/gcc/avr/8.3.0/../../../../avr/lib/avr51/crtat90usb1286.o
 .debug_abbrev  0x0000000000000910      0x22b .build/obj_PanasonicBusinessPartner286_default/keyboards/PanasonicBusinessPartner286/keymaps/default/keymap.o
 .debug_abbrev  0x0000000000000b3b      0x491 .build/obj_PanasonicBusinessPartner286_default/quantum/quantum.o
 .debug_abbrev  0x0000000000000fcc      0x266 .build/obj_PanasonicBusinessPartner286_default/quantum/led.o
 .debug_abbrev  0x0000000000001232      0x517 .build/obj_PanasonicBusinessPartner286_default/quantum/action.o
 .debug_abbrev  0x0000000000001749      0x305 .build/obj_PanasonicBusinessPartner286_default/quantum/action_layer.o
 .debug_abbrev  0x0000000000001a4e      0x372 .build/obj_PanasonicBusinessPartner286_default/quantum/action_tapping.o
 .debug_abbrev  0x0000000000001dc0      0x3a5 .build/obj_PanasonicBusinessPartner286_default/quantum/action_util.o
 .debug_abbrev  0x0000000000002165      0x179 .build/obj_PanasonicBusinessPartner286_default/quantum/eeconfig.o
 .debug_abbrev  0x00000000000022de      0x392 .build/obj_PanasonicBusinessPartner286_default/quantum/keyboard.o
 .debug_abbrev  0x0000000000002670      0x2f1 .build/obj_PanasonicBusinessPartner286_default/quantum/keymap_common.o
 .debug_abbrev  0x0000000000002961      0x119 .build/obj_PanasonicBusinessPartner286_default/quantum/keycode_config.o
 .debug_abbrev  0x0000000000002a7a       0xa2 .build/obj_PanasonicBusinessPartner286_default/quantum/logging/debug.o
 .debug_abbrev  0x0000000000002b1c       0x6b .build/obj_PanasonicBusinessPartner286_default/quantum/logging/sendchar.o
 .debug_abbrev  0x0000000000002b87      0x2ae .build/obj_PanasonicBusinessPartner286_default/quantum/bootmagic/bootmagic_lite.o
 .debug_abbrev  0x0000000000002e35      0x1ff .build/obj_PanasonicBusinessPartner286_default/quantum/bootmagic/magic.o
 .debug_abbrev  0x0000000000003034      0x3fb .build/obj_PanasonicBusinessPartner286_default/quantum/matrix_common.o
 .debug_abbrev  0x000000000000342f      0x3ff .build/obj_PanasonicBusinessPartner286_default/quantum/matrix.o
 .debug_abbrev  0x000000000000382e      0x2d5 .build/obj_PanasonicBusinessPartner286_default/quantum/debounce/sym_defer_g.o
 .debug_abbrev  0x0000000000003b03       0x93 .build/obj_PanasonicBusinessPartner286_default/quantum/main.o
 .debug_abbrev  0x0000000000003b96      0x2e8 .build/obj_PanasonicBusinessPartner286_default/quantum/mousekey.o
 .debug_abbrev  0x0000000000003e7e      0x1e2 .build/obj_PanasonicBusinessPartner286_default/quantum/process_keycode/process_magic.o
 .debug_abbrev  0x0000000000004060      0x230 .build/obj_PanasonicBusinessPartner286_default/quantum/process_keycode/process_grave_esc.o
 .debug_abbrev  0x0000000000004290      0x246 .build/obj_PanasonicBusinessPartner286_default/quantum/process_keycode/process_space_cadet.o
 .debug_abbrev  0x00000000000044d6       0x9d .build/obj_PanasonicBusinessPartner286_default/platforms/avr/printf.o
 .debug_abbrev  0x0000000000004573      0x314 .build/obj_PanasonicBusinessPartner286_default/protocol/host.o
 .debug_abbrev  0x0000000000004887      0x2bd .build/obj_PanasonicBusinessPartner286_default/protocol/report.o
 .debug_abbrev  0x0000000000004b44      0x16f .build/obj_PanasonicBusinessPartner286_default/protocol/usb_device_state.o
 .debug_abbrev  0x0000000000004cb3      0x101 .build/obj_PanasonicBusinessPartner286_default/platforms/suspend.o
 .debug_abbrev  0x0000000000004db4       0x46 .build/obj_PanasonicBusinessPartner286_default/platforms/avr/platform.o
 .debug_abbrev  0x0000000000004dfa      0x275 .build/obj_PanasonicBusinessPartner286_default/platforms/avr/suspend.o
 .debug_abbrev  0x000000000000506f      0x1ba .build/obj_PanasonicBusinessPartner286_default/platforms/avr/timer.o
 .debug_abbrev  0x0000000000005229       0xf7 .build/obj_PanasonicBusinessPartner286_default/platforms/avr/bootloaders/halfkay.o
 .debug_abbrev  0x0000000000005320      0x572 .build/obj_PanasonicBusinessPartner286_default/lufa.o
 .debug_abbrev  0x0000000000005892      0x207 .build/obj_PanasonicBusinessPartner286_default/usb_descriptor.o
 .debug_abbrev  0x0000000000005a99       0xcb .build/obj_PanasonicBusinessPartner286_default/lib/lufa/LUFA/Drivers/USB/Core/AVR8/Device_AVR8.o
 .debug_abbrev  0x0000000000005b64      0x23b .build/obj_PanasonicBusinessPartner286_default/lib/lufa/LUFA/Drivers/USB/Core/AVR8/EndpointStream_AVR8.o
 .debug_abbrev  0x0000000000005d9f      0x29d .build/obj_PanasonicBusinessPartner286_default/lib/lufa/LUFA/Drivers/USB/Core/AVR8/Endpoint_AVR8.o
 .debug_abbrev  0x000000000000603c      0x1f5 .build/obj_PanasonicBusinessPartner286_default/lib/lufa/LUFA/Drivers/USB/Core/AVR8/USBController_AVR8.o
 .debug_abbrev  0x0000000000006231      0x2a5 .build/obj_PanasonicBusinessPartner286_default/lib/lufa/LUFA/Drivers/USB/Core/AVR8/USBInterrupt_AVR8.o
 .debug_abbrev  0x00000000000064d6      0x346 .build/obj_PanasonicBusinessPartner286_default/lib/lufa/LUFA/Drivers/USB/Core/DeviceStandardReq.o
 .debug_abbrev  0x000000000000681c       0x89 .build/obj_PanasonicBusinessPartner286_default/lib/lufa/LUFA/Drivers/USB/Core/Events.o
 .debug_abbrev  0x00000000000068a5      0x1b3 .build/obj_PanasonicBusinessPartner286_default/lib/lufa/LUFA/Drivers/USB/Core/USBTask.o

.debug_line     0x0000000000000000    0x12aca
 *(.debug_line .debug_line.* .debug_line_end)
 .debug_line    0x0000000000000000       0x1d /usr/lib/gcc/avr/8.3.0/../../../../avr/lib/avr51/crtat90usb1286.o
 .debug_line    0x000000000000001d      0x362 .build/obj_PanasonicBusinessPartner286_default/keyboards/PanasonicBusinessPartner286/keymaps/default/keymap.o
 .debug_line    0x000000000000037f      0xefb .build/obj_PanasonicBusinessPartner286_default/quantum/quantum.o
 .debug_line    0x000000000000127a      0x2d9 .build/obj_PanasonicBusinessPartner286_default/quantum/led.o
 .debug_line    0x0000000000001553     0x152d .build/obj_PanasonicBusinessPartner286_default/quantum/action.o
 .debug_line    0x0000000000002a80      0x8f1 .build/obj_PanasonicBusinessPartner286_default/quantum/action_layer.o
 .debug_line    0x0000000000003371      0xce5 .build/obj_PanasonicBusinessPartner286_default/quantum/action_tapping.o
 .debug_line    0x0000000000004056      0xb1a .build/obj_PanasonicBusinessPartner286_default/quantum/action_util.o
 .debug_line    0x0000000000004b70      0x4b3 .build/obj_PanasonicBusinessPartner286_default/quantum/eeconfig.o
 .debug_line    0x0000000000005023      0x815 .build/obj_PanasonicBusinessPartner286_default/quantum/keyboard.o
 .debug_line    0x0000000000005838      0x5f8 .build/obj_PanasonicBusinessPartner286_default/quantum/keymap_common.o
 .debug_line    0x0000000000005e30      0x56b .build/obj_PanasonicBusinessPartner286_default/quantum/keycode_config.o
 .debug_line    0x000000000000639b       0x60 .build/obj_PanasonicBusinessPartner286_default/quantum/logging/debug.o
 .debug_line    0x00000000000063fb       0x81 .build/obj_PanasonicBusinessPartner286_default/quantum/logging/sendchar.o
 .debug_line    0x000000000000647c      0x362 .build/obj_PanasonicBusinessPartner286_default/quantum/bootmagic/bootmagic_lite.o
 .debug_line    0x00000000000067de      0x279 .build/obj_PanasonicBusinessPartner286_default/quantum/bootmagic/magic.o
 .debug_line    0x0000000000006a57      0x657 .build/obj_PanasonicBusinessPartner286_default/quantum/matrix_common.o
 .debug_line    0x00000000000070ae      0x6f4 .build/obj_PanasonicBusinessPartner286_default/quantum/matrix.o
 .debug_line    0x00000000000077a2      0x3a3 .build/obj_PanasonicBusinessPartner286_default/quantum/debounce/sym_defer_g.o
 .debug_line    0x0000000000007b45       0xd5 .build/obj_PanasonicBusinessPartner286_default/quantum/main.o
 .debug_line    0x0000000000007c1a      0xe8f .build/obj_PanasonicBusinessPartner286_default/quantum/mousekey.o
 .debug_line    0x0000000000008aa9      0x540 .build/obj_PanasonicBusinessPartner286_default/quantum/process_keycode/process_magic.o
 .debug_line    0x0000000000008fe9      0x361 .build/obj_PanasonicBusinessPartner286_default/quantum/process_keycode/process_grave_esc.o
 .debug_line    0x000000000000934a      0x51a .build/obj_PanasonicBusinessPartner286_default/quantum/process_keycode/process_space_cadet.o
 .debug_line    0x0000000000009864       0xa2 .build/obj_PanasonicBusinessPartner286_default/platforms/avr/printf.o
 .debug_line    0x0000000000009906      0x631 .build/obj_PanasonicBusinessPartner286_default/protocol/host.o
 .debug_line    0x0000000000009f37      0x6ca .build/obj_PanasonicBusinessPartner286_default/protocol/report.o
 .debug_line    0x000000000000a601      0x1ae .build/obj_PanasonicBusinessPartner286_default/protocol/usb_device_state.o
 .debug_line    0x000000000000a7af      0x149 .build/obj_PanasonicBusinessPartner286_default/platforms/suspend.o
 .debug_line    0x000000000000a8f8       0x53 .build/obj_PanasonicBusinessPartner286_default/platforms/avr/platform.o
 .debug_line    0x000000000000a94b      0x2e2 .build/obj_PanasonicBusinessPartner286_default/platforms/avr/suspend.o
 .debug_line    0x000000000000ac2d      0x429 .build/obj_PanasonicBusinessPartner286_default/platforms/avr/timer.o
 .debug_line    0x000000000000b056      0x2f7 .build/obj_PanasonicBusinessPartner286_default/platforms/avr/bootloaders/halfkay.o
 .debug_line    0x000000000000b34d     0x11d6 .build/obj_PanasonicBusinessPartner286_default/lufa.o
 .debug_line    0x000000000000c523      0x350 .build/obj_PanasonicBusinessPartner286_default/usb_descriptor.o
 .debug_line    0x000000000000c873      0x225 .build/obj_PanasonicBusinessPartner286_default/lib/lufa/LUFA/Drivers/USB/Core/AVR8/Device_AVR8.o
 .debug_line    0x000000000000ca98     0x32bb .build/obj_PanasonicBusinessPartner286_default/lib/lufa/LUFA/Drivers/USB/Core/AVR8/EndpointStream_AVR8.o
 .debug_line    0x000000000000fd53      0x97f .build/obj_PanasonicBusinessPartner286_default/lib/lufa/LUFA/Drivers/USB/Core/AVR8/Endpoint_AVR8.o
 .debug_line    0x00000000000106d2      0x67a .build/obj_PanasonicBusinessPartner286_default/lib/lufa/LUFA/Drivers/USB/Core/AVR8/USBController_AVR8.o
 .debug_line    0x0000000000010d4c      0xd18 .build/obj_PanasonicBusinessPartner286_default/lib/lufa/LUFA/Drivers/USB/Core/AVR8/USBInterrupt_AVR8.o
 .debug_line    0x0000000000011a64      0xd42 .build/obj_PanasonicBusinessPartner286_default/lib/lufa/LUFA/Drivers/USB/Core/DeviceStandardReq.o
 .debug_line    0x00000000000127a6       0xd5 .build/obj_PanasonicBusinessPartner286_default/lib/lufa/LUFA/Drivers/USB/Core/Events.o
 .debug_line    0x000000000001287b      0x24f .build/obj_PanasonicBusinessPartner286_default/lib/lufa/LUFA/Drivers/USB/Core/USBTask.o

.debug_frame    0x0000000000000000     0x21e8
 *(.debug_frame)
 .debug_frame   0x0000000000000000       0x3c .build/obj_PanasonicBusinessPartner286_default/keyboards/PanasonicBusinessPartner286/keymaps/default/keymap.o
 .debug_frame   0x000000000000003c      0x2f4 .build/obj_PanasonicBusinessPartner286_default/quantum/quantum.o
 .debug_frame   0x0000000000000330       0xac .build/obj_PanasonicBusinessPartner286_default/quantum/led.o
 .debug_frame   0x00000000000003dc      0x24c .build/obj_PanasonicBusinessPartner286_default/quantum/action.o
 .debug_frame   0x0000000000000628      0x288 .build/obj_PanasonicBusinessPartner286_default/quantum/action_layer.o
 .debug_frame   0x00000000000008b0       0xf0 .build/obj_PanasonicBusinessPartner286_default/quantum/action_tapping.o
 .debug_frame   0x00000000000009a0      0x2b0 .build/obj_PanasonicBusinessPartner286_default/quantum/action_util.o
 .debug_frame   0x0000000000000c50      0x1a4 .build/obj_PanasonicBusinessPartner286_default/quantum/eeconfig.o
 .debug_frame   0x0000000000000df4      0x218 .build/obj_PanasonicBusinessPartner286_default/quantum/keyboard.o
 .debug_frame   0x000000000000100c       0x50 .build/obj_PanasonicBusinessPartner286_default/quantum/keymap_common.o
 .debug_frame   0x000000000000105c       0x34 .build/obj_PanasonicBusinessPartner286_default/quantum/keycode_config.o
 .debug_frame   0x0000000000001090       0x24 .build/obj_PanasonicBusinessPartner286_default/quantum/logging/sendchar.o
 .debug_frame   0x00000000000010b4       0x44 .build/obj_PanasonicBusinessPartner286_default/quantum/bootmagic/bootmagic_lite.o
 .debug_frame   0x00000000000010f8       0x34 .build/obj_PanasonicBusinessPartner286_default/quantum/bootmagic/magic.o
 .debug_frame   0x000000000000112c      0x14c .build/obj_PanasonicBusinessPartner286_default/quantum/matrix_common.o
 .debug_frame   0x0000000000001278       0xdc .build/obj_PanasonicBusinessPartner286_default/quantum/matrix.o
 .debug_frame   0x0000000000001354       0x60 .build/obj_PanasonicBusinessPartner286_default/quantum/debounce/sym_defer_g.o
 .debug_frame   0x00000000000013b4       0x44 .build/obj_PanasonicBusinessPartner286_default/quantum/main.o
 .debug_frame   0x00000000000013f8       0xc8 .build/obj_PanasonicBusinessPartner286_default/quantum/mousekey.o
 .debug_frame   0x00000000000014c0       0x30 .build/obj_PanasonicBusinessPartner286_default/quantum/process_keycode/process_magic.o
 .debug_frame   0x00000000000014f0       0x30 .build/obj_PanasonicBusinessPartner286_default/quantum/process_keycode/process_grave_esc.o
 .debug_frame   0x0000000000001520       0x50 .build/obj_PanasonicBusinessPartner286_default/quantum/process_keycode/process_space_cadet.o
 .debug_frame   0x0000000000001570       0x24 .build/obj_PanasonicBusinessPartner286_default/platforms/avr/printf.o
 .debug_frame   0x0000000000001594      0x11c .build/obj_PanasonicBusinessPartner286_default/protocol/host.o
 .debug_frame   0x00000000000016b0       0xc0 .build/obj_PanasonicBusinessPartner286_default/protocol/report.o
 .debug_frame   0x0000000000001770       0x84 .build/obj_PanasonicBusinessPartner286_default/protocol/usb_device_state.o
 .debug_frame   0x00000000000017f4       0x8c .build/obj_PanasonicBusinessPartner286_default/platforms/suspend.o
 .debug_frame   0x0000000000001880       0x24 .build/obj_PanasonicBusinessPartner286_default/platforms/avr/platform.o
 .debug_frame   0x00000000000018a4       0x54 .build/obj_PanasonicBusinessPartner286_default/platforms/avr/suspend.o
 .debug_frame   0x00000000000018f8       0xa8 .build/obj_PanasonicBusinessPartner286_default/platforms/avr/timer.o
 .debug_frame   0x00000000000019a0       0x24 .build/obj_PanasonicBusinessPartner286_default/platforms/avr/bootloaders/halfkay.o
 .debug_frame   0x00000000000019c4      0x170 .build/obj_PanasonicBusinessPartner286_default/lufa.o
 .debug_frame   0x0000000000001b34       0x24 .build/obj_PanasonicBusinessPartner286_default/usb_descriptor.o
 .debug_frame   0x0000000000001b58       0x24 .build/obj_PanasonicBusinessPartner286_default/lib/lufa/LUFA/Drivers/USB/Core/AVR8/Device_AVR8.o
 .debug_frame   0x0000000000001b7c      0x404 .build/obj_PanasonicBusinessPartner286_default/lib/lufa/LUFA/Drivers/USB/Core/AVR8/EndpointStream_AVR8.o
 .debug_frame   0x0000000000001f80       0x78 .build/obj_PanasonicBusinessPartner286_default/lib/lufa/LUFA/Drivers/USB/Core/AVR8/Endpoint_AVR8.o
 .debug_frame   0x0000000000001ff8       0x58 .build/obj_PanasonicBusinessPartner286_default/lib/lufa/LUFA/Drivers/USB/Core/AVR8/USBController_AVR8.o
 .debug_frame   0x0000000000002050       0xec .build/obj_PanasonicBusinessPartner286_default/lib/lufa/LUFA/Drivers/USB/Core/AVR8/USBInterrupt_AVR8.o
 .debug_frame   0x000000000000213c       0x3c .build/obj_PanasonicBusinessPartner286_default/lib/lufa/LUFA/Drivers/USB/Core/DeviceStandardReq.o
 .debug_frame   0x0000000000002178       0x44 .build/obj_PanasonicBusinessPartner286_default/lib/lufa/LUFA/Drivers/USB/Core/Events.o
 .debug_frame   0x00000000000021bc       0x2c .build/obj_PanasonicBusinessPartner286_default/lib/lufa/LUFA/Drivers/USB/Core/USBTask.o

.debug_str      0x0000000000000000     0x69c6
 *(.debug_str)
 .debug_str     0x0000000000000000      0x349 /usr/lib/gcc/avr/8.3.0/../../../../avr/lib/avr51/crtat90usb1286.o
 .debug_str     0x0000000000000349     0x22db .build/obj_PanasonicBusinessPartner286_default/keyboards/PanasonicBusinessPartner286/keymaps/default/keymap.o
                                       0x2374 (size before relaxing)
 .debug_str     0x0000000000002624      0x46b .build/obj_PanasonicBusinessPartner286_default/quantum/quantum.o
                                       0x27e7 (size before relaxing)
 .debug_str     0x0000000000002a8f       0x7a .build/obj_PanasonicBusinessPartner286_default/quantum/led.o
                                        0x3fe (size before relaxing)
 .debug_str     0x0000000000002b09      0xc5d .build/obj_PanasonicBusinessPartner286_default/quantum/action.o
                                       0x19fd (size before relaxing)
 .debug_str     0x0000000000003766       0xda .build/obj_PanasonicBusinessPartner286_default/quantum/action_layer.o
                                        0x581 (size before relaxing)
 .debug_str     0x0000000000003840       0xfe .build/obj_PanasonicBusinessPartner286_default/quantum/action_tapping.o
                                        0xc93 (size before relaxing)
 .debug_str     0x000000000000393e      0x27b .build/obj_PanasonicBusinessPartner286_default/quantum/action_util.o
                                        0x8c4 (size before relaxing)
 .debug_str     0x0000000000003bb9      0x25b .build/obj_PanasonicBusinessPartner286_default/quantum/eeconfig.o
                                        0x475 (size before relaxing)
 .debug_str     0x0000000000003e14      0x381 .build/obj_PanasonicBusinessPartner286_default/quantum/keyboard.o
                                        0xaff (size before relaxing)
 .debug_str     0x0000000000004195       0x69 .build/obj_PanasonicBusinessPartner286_default/quantum/keymap_common.o
                                       0x2b70 (size before relaxing)
 .debug_str     0x00000000000041fe       0x6a .build/obj_PanasonicBusinessPartner286_default/quantum/keycode_config.o
                                        0x9a0 (size before relaxing)
 .debug_str     0x0000000000004268       0x18 .build/obj_PanasonicBusinessPartner286_default/quantum/logging/debug.o
                                        0x1dc (size before relaxing)
 .debug_str     0x0000000000004280       0x1b .build/obj_PanasonicBusinessPartner286_default/quantum/logging/sendchar.o
                                        0x1a7 (size before relaxing)
 .debug_str     0x000000000000429b       0x58 .build/obj_PanasonicBusinessPartner286_default/quantum/bootmagic/bootmagic_lite.o
                                        0x767 (size before relaxing)
 .debug_str     0x00000000000042f3       0x1a .build/obj_PanasonicBusinessPartner286_default/quantum/bootmagic/magic.o
                                        0x67f (size before relaxing)
 .debug_str     0x000000000000430d      0x13b .build/obj_PanasonicBusinessPartner286_default/quantum/matrix_common.o
                                        0x8b1 (size before relaxing)
 .debug_str     0x0000000000004448       0xf6 .build/obj_PanasonicBusinessPartner286_default/quantum/matrix.o
                                        0x868 (size before relaxing)
 .debug_str     0x000000000000453e       0x96 .build/obj_PanasonicBusinessPartner286_default/quantum/debounce/sym_defer_g.o
                                        0x75e (size before relaxing)
 .debug_str     0x00000000000045d4       0x98 .build/obj_PanasonicBusinessPartner286_default/quantum/main.o
                                        0x24f (size before relaxing)
 .debug_str     0x000000000000466c       0xfd .build/obj_PanasonicBusinessPartner286_default/quantum/mousekey.o
                                        0x5e4 (size before relaxing)
 .debug_str     0x0000000000004769       0x28 .build/obj_PanasonicBusinessPartner286_default/quantum/process_keycode/process_magic.o
                                       0x1d0d (size before relaxing)
 .debug_str     0x0000000000004791       0x42 .build/obj_PanasonicBusinessPartner286_default/quantum/process_keycode/process_grave_esc.o
                                       0x23cc (size before relaxing)
 .debug_str     0x00000000000047d3       0x6d .build/obj_PanasonicBusinessPartner286_default/quantum/process_keycode/process_space_cadet.o
                                       0x2403 (size before relaxing)
 .debug_str     0x0000000000004840       0x36 .build/obj_PanasonicBusinessPartner286_default/platforms/avr/printf.o
                                        0x1cc (size before relaxing)
 .debug_str     0x0000000000004876      0x21d .build/obj_PanasonicBusinessPartner286_default/protocol/host.o
                                        0x9d4 (size before relaxing)
 .debug_str     0x0000000000004a93       0x67 .build/obj_PanasonicBusinessPartner286_default/protocol/report.o
                                        0xba2 (size before relaxing)
 .debug_str     0x0000000000004afa      0x1ad .build/obj_PanasonicBusinessPartner286_default/protocol/usb_device_state.o
                                        0x32f (size before relaxing)
 .debug_str     0x0000000000004ca7       0x80 .build/obj_PanasonicBusinessPartner286_default/platforms/suspend.o
                                        0x24a (size before relaxing)
 .debug_str     0x0000000000004d27       0x19 .build/obj_PanasonicBusinessPartner286_default/platforms/avr/platform.o
                                        0x19c (size before relaxing)
 .debug_str     0x0000000000004d40      0x119 .build/obj_PanasonicBusinessPartner286_default/platforms/avr/suspend.o
                                        0x525 (size before relaxing)
 .debug_str     0x0000000000004e59       0x43 .build/obj_PanasonicBusinessPartner286_default/platforms/avr/timer.o
                                        0x241 (size before relaxing)
 .debug_str     0x0000000000004e9c       0x24 .build/obj_PanasonicBusinessPartner286_default/platforms/avr/bootloaders/halfkay.o
                                        0x200 (size before relaxing)
 .debug_str     0x0000000000004ec0      0x596 .build/obj_PanasonicBusinessPartner286_default/lufa.o
                                       0x1090 (size before relaxing)
 .debug_str     0x0000000000005456      0x6a9 .build/obj_PanasonicBusinessPartner286_default/usb_descriptor.o
                                        0xafc (size before relaxing)
 .debug_str     0x0000000000005aff       0x5e .build/obj_PanasonicBusinessPartner286_default/lib/lufa/LUFA/Drivers/USB/Core/AVR8/Device_AVR8.o
                                        0x2da (size before relaxing)
 .debug_str     0x0000000000005b5d      0x4a3 .build/obj_PanasonicBusinessPartner286_default/lib/lufa/LUFA/Drivers/USB/Core/AVR8/EndpointStream_AVR8.o
                                        0x8ce (size before relaxing)
 .debug_str     0x0000000000006000      0x254 .build/obj_PanasonicBusinessPartner286_default/lib/lufa/LUFA/Drivers/USB/Core/AVR8/Endpoint_AVR8.o
                                        0x68e (size before relaxing)
 .debug_str     0x0000000000006254      0x181 .build/obj_PanasonicBusinessPartner286_default/lib/lufa/LUFA/Drivers/USB/Core/AVR8/USBController_AVR8.o
                                        0x5b2 (size before relaxing)
 .debug_str     0x00000000000063d5      0x146 .build/obj_PanasonicBusinessPartner286_default/lib/lufa/LUFA/Drivers/USB/Core/AVR8/USBInterrupt_AVR8.o
                                        0x682 (size before relaxing)
 .debug_str     0x000000000000651b      0x40d .build/obj_PanasonicBusinessPartner286_default/lib/lufa/LUFA/Drivers/USB/Core/DeviceStandardReq.o
                                        0x9bf (size before relaxing)
 .debug_str     0x0000000000006928       0x59 .build/obj_PanasonicBusinessPartner286_default/lib/lufa/LUFA/Drivers/USB/Core/Events.o
                                        0x1d5 (size before relaxing)
 .debug_str     0x0000000000006981       0x45 .build/obj_PanasonicBusinessPartner286_default/lib/lufa/LUFA/Drivers/USB/Core/USBTask.o
                                        0x3e1 (size before relaxing)

.debug_loc      0x0000000000000000     0x993e
 *(.debug_loc)
 .debug_loc     0x0000000000000000       0x66 .build/obj_PanasonicBusinessPartner286_default/keyboards/PanasonicBusinessPartner286/keymaps/default/keymap.o
 .debug_loc     0x0000000000000066      0xe8a .build/obj_PanasonicBusinessPartner286_default/quantum/quantum.o
 .debug_loc     0x0000000000000ef0       0xd2 .build/obj_PanasonicBusinessPartner286_default/quantum/led.o
 .debug_loc     0x0000000000000fc2      0xb31 .build/obj_PanasonicBusinessPartner286_default/quantum/action.o
 .debug_loc     0x0000000000001af3      0x92e .build/obj_PanasonicBusinessPartner286_default/quantum/action_layer.o
 .debug_loc     0x0000000000002421      0x6da .build/obj_PanasonicBusinessPartner286_default/quantum/action_tapping.o
 .debug_loc     0x0000000000002afb      0x36e .build/obj_PanasonicBusinessPartner286_default/quantum/action_util.o
 .debug_loc     0x0000000000002e69      0x203 .build/obj_PanasonicBusinessPartner286_default/quantum/eeconfig.o
 .debug_loc     0x000000000000306c      0x21c .build/obj_PanasonicBusinessPartner286_default/quantum/keyboard.o
 .debug_loc     0x0000000000003288      0x4e4 .build/obj_PanasonicBusinessPartner286_default/quantum/keymap_common.o
 .debug_loc     0x000000000000376c      0x203 .build/obj_PanasonicBusinessPartner286_default/quantum/keycode_config.o
 .debug_loc     0x000000000000396f       0x25 .build/obj_PanasonicBusinessPartner286_default/quantum/logging/sendchar.o
 .debug_loc     0x0000000000003994       0x4e .build/obj_PanasonicBusinessPartner286_default/quantum/bootmagic/bootmagic_lite.o
 .debug_loc     0x00000000000039e2       0x2c .build/obj_PanasonicBusinessPartner286_default/quantum/bootmagic/magic.o
 .debug_loc     0x0000000000003a0e      0x225 .build/obj_PanasonicBusinessPartner286_default/quantum/matrix_common.o
 .debug_loc     0x0000000000003c33      0x64e .build/obj_PanasonicBusinessPartner286_default/quantum/matrix.o
 .debug_loc     0x0000000000004281      0x153 .build/obj_PanasonicBusinessPartner286_default/quantum/debounce/sym_defer_g.o
 .debug_loc     0x00000000000043d4      0x475 .build/obj_PanasonicBusinessPartner286_default/quantum/mousekey.o
 .debug_loc     0x0000000000004849       0xdb .build/obj_PanasonicBusinessPartner286_default/quantum/process_keycode/process_magic.o
 .debug_loc     0x0000000000004924      0x131 .build/obj_PanasonicBusinessPartner286_default/quantum/process_keycode/process_grave_esc.o
 .debug_loc     0x0000000000004a55      0x4a6 .build/obj_PanasonicBusinessPartner286_default/quantum/process_keycode/process_space_cadet.o
 .debug_loc     0x0000000000004efb      0x205 .build/obj_PanasonicBusinessPartner286_default/protocol/host.o
 .debug_loc     0x0000000000005100      0x510 .build/obj_PanasonicBusinessPartner286_default/protocol/report.o
 .debug_loc     0x0000000000005610       0xf8 .build/obj_PanasonicBusinessPartner286_default/protocol/usb_device_state.o
 .debug_loc     0x0000000000005708       0x52 .build/obj_PanasonicBusinessPartner286_default/platforms/suspend.o
 .debug_loc     0x000000000000575a       0x52 .build/obj_PanasonicBusinessPartner286_default/platforms/avr/suspend.o
 .debug_loc     0x00000000000057ac      0x2c0 .build/obj_PanasonicBusinessPartner286_default/platforms/avr/timer.o
 .debug_loc     0x0000000000005a6c       0x4e .build/obj_PanasonicBusinessPartner286_default/platforms/avr/bootloaders/halfkay.o
 .debug_loc     0x0000000000005aba      0x6a2 .build/obj_PanasonicBusinessPartner286_default/lufa.o
 .debug_loc     0x000000000000615c      0x27d .build/obj_PanasonicBusinessPartner286_default/usb_descriptor.o
 .debug_loc     0x00000000000063d9     0x2752 .build/obj_PanasonicBusinessPartner286_default/lib/lufa/LUFA/Drivers/USB/Core/AVR8/EndpointStream_AVR8.o
 .debug_loc     0x0000000000008b2b      0x4a0 .build/obj_PanasonicBusinessPartner286_default/lib/lufa/LUFA/Drivers/USB/Core/AVR8/Endpoint_AVR8.o
 .debug_loc     0x0000000000008fcb       0xf9 .build/obj_PanasonicBusinessPartner286_default/lib/lufa/LUFA/Drivers/USB/Core/AVR8/USBController_AVR8.o
 .debug_loc     0x00000000000090c4      0x492 .build/obj_PanasonicBusinessPartner286_default/lib/lufa/LUFA/Drivers/USB/Core/AVR8/USBInterrupt_AVR8.o
 .debug_loc     0x0000000000009556      0x386 .build/obj_PanasonicBusinessPartner286_default/lib/lufa/LUFA/Drivers/USB/Core/DeviceStandardReq.o
 .debug_loc     0x00000000000098dc       0x62 .build/obj_PanasonicBusinessPartner286_default/lib/lufa/LUFA/Drivers/USB/Core/USBTask.o

.debug_macinfo
 *(.debug_macinfo)

.debug_weaknames
 *(.debug_weaknames)

.debug_funcnames
 *(.debug_funcnames)

.debug_typenames
 *(.debug_typenames)

.debug_varnames
 *(.debug_varnames)

.debug_pubtypes
 *(.debug_pubtypes)

.debug_ranges   0x0000000000000000     0x1438
 *(.debug_ranges)
 .debug_ranges  0x0000000000000000       0x18 .build/obj_PanasonicBusinessPartner286_default/keyboards/PanasonicBusinessPartner286/keymaps/default/keymap.o
 .debug_ranges  0x0000000000000018      0x158 .build/obj_PanasonicBusinessPartner286_default/quantum/quantum.o
 .debug_ranges  0x0000000000000170       0x50 .build/obj_PanasonicBusinessPartner286_default/quantum/led.o
 .debug_ranges  0x00000000000001c0      0x188 .build/obj_PanasonicBusinessPartner286_default/quantum/action.o
 .debug_ranges  0x0000000000000348      0x128 .build/obj_PanasonicBusinessPartner286_default/quantum/action_layer.o
 .debug_ranges  0x0000000000000470       0xf0 .build/obj_PanasonicBusinessPartner286_default/quantum/action_tapping.o
 .debug_ranges  0x0000000000000560      0x140 .build/obj_PanasonicBusinessPartner286_default/quantum/action_util.o
 .debug_ranges  0x00000000000006a0       0xc8 .build/obj_PanasonicBusinessPartner286_default/quantum/eeconfig.o
 .debug_ranges  0x0000000000000768      0x110 .build/obj_PanasonicBusinessPartner286_default/quantum/keyboard.o
 .debug_ranges  0x0000000000000878       0x20 .build/obj_PanasonicBusinessPartner286_default/quantum/keymap_common.o
 .debug_ranges  0x0000000000000898       0x18 .build/obj_PanasonicBusinessPartner286_default/quantum/keycode_config.o
 .debug_ranges  0x00000000000008b0       0x10 .build/obj_PanasonicBusinessPartner286_default/quantum/logging/sendchar.o
 .debug_ranges  0x00000000000008c0       0x38 .build/obj_PanasonicBusinessPartner286_default/quantum/bootmagic/bootmagic_lite.o
 .debug_ranges  0x00000000000008f8       0x18 .build/obj_PanasonicBusinessPartner286_default/quantum/bootmagic/magic.o
 .debug_ranges  0x0000000000000910       0xb8 .build/obj_PanasonicBusinessPartner286_default/quantum/matrix_common.o
 .debug_ranges  0x00000000000009c8       0xb0 .build/obj_PanasonicBusinessPartner286_default/quantum/matrix.o
 .debug_ranges  0x0000000000000a78       0x38 .build/obj_PanasonicBusinessPartner286_default/quantum/debounce/sym_defer_g.o
 .debug_ranges  0x0000000000000ab0       0x20 .build/obj_PanasonicBusinessPartner286_default/quantum/main.o
 .debug_ranges  0x0000000000000ad0       0x48 .build/obj_PanasonicBusinessPartner286_default/quantum/mousekey.o
 .debug_ranges  0x0000000000000b18       0x10 .build/obj_PanasonicBusinessPartner286_default/quantum/process_keycode/process_magic.o
 .debug_ranges  0x0000000000000b28       0x28 .build/obj_PanasonicBusinessPartner286_default/quantum/process_keycode/process_grave_esc.o
 .debug_ranges  0x0000000000000b50       0x18 .build/obj_PanasonicBusinessPartner286_default/quantum/process_keycode/process_space_cadet.o
 .debug_ranges  0x0000000000000b68       0x10 .build/obj_PanasonicBusinessPartner286_default/platforms/avr/printf.o
 .debug_ranges  0x0000000000000b78       0x78 .build/obj_PanasonicBusinessPartner286_default/protocol/host.o
 .debug_ranges  0x0000000000000bf0       0x58 .build/obj_PanasonicBusinessPartner286_default/protocol/report.o
 .debug_ranges  0x0000000000000c48       0x30 .build/obj_PanasonicBusinessPartner286_default/protocol/usb_device_state.o
 .debug_ranges  0x0000000000000c78       0x40 .build/obj_PanasonicBusinessPartner286_default/platforms/suspend.o
 .debug_ranges  0x0000000000000cb8       0x10 .build/obj_PanasonicBusinessPartner286_default/platforms/avr/platform.o
 .debug_ranges  0x0000000000000cc8       0x50 .build/obj_PanasonicBusinessPartner286_default/platforms/avr/suspend.o
 .debug_ranges  0x0000000000000d18       0x40 .build/obj_PanasonicBusinessPartner286_default/platforms/avr/timer.o
 .debug_ranges  0x0000000000000d58       0x28 .build/obj_PanasonicBusinessPartner286_default/platforms/avr/bootloaders/halfkay.o
 .debug_ranges  0x0000000000000d80      0x1d0 .build/obj_PanasonicBusinessPartner286_default/lufa.o
 .debug_ranges  0x0000000000000f50       0x28 .build/obj_PanasonicBusinessPartner286_default/usb_descriptor.o
 .debug_ranges  0x0000000000000f78       0x10 .build/obj_PanasonicBusinessPartner286_default/lib/lufa/LUFA/Drivers/USB/Core/AVR8/Device_AVR8.o
 .debug_ranges  0x0000000000000f88      0x1f8 .build/obj_PanasonicBusinessPartner286_default/lib/lufa/LUFA/Drivers/USB/Core/AVR8/EndpointStream_AVR8.o
 .debug_ranges  0x0000000000001180       0xd8 .build/obj_PanasonicBusinessPartner286_default/lib/lufa/LUFA/Drivers/USB/Core/AVR8/Endpoint_AVR8.o
 .debug_ranges  0x0000000000001258       0x50 .build/obj_PanasonicBusinessPartner286_default/lib/lufa/LUFA/Drivers/USB/Core/AVR8/USBController_AVR8.o
 .debug_ranges  0x00000000000012a8       0x70 .build/obj_PanasonicBusinessPartner286_default/lib/lufa/LUFA/Drivers/USB/Core/AVR8/USBInterrupt_AVR8.o
 .debug_ranges  0x0000000000001318       0xf0 .build/obj_PanasonicBusinessPartner286_default/lib/lufa/LUFA/Drivers/USB/Core/DeviceStandardReq.o
 .debug_ranges  0x0000000000001408       0x20 .build/obj_PanasonicBusinessPartner286_default/lib/lufa/LUFA/Drivers/USB/Core/Events.o
 .debug_ranges  0x0000000000001428       0x10 .build/obj_PanasonicBusinessPartner286_default/lib/lufa/LUFA/Drivers/USB/Core/USBTask.o

.debug_addr
 *(.debug_addr)

.debug_line_str
 *(.debug_line_str)

.debug_loclists
 *(.debug_loclists)

.debug_macro
 *(.debug_macro)

.debug_names
 *(.debug_names)

.debug_rnglists
 *(.debug_rnglists)

.debug_str_offsets
 *(.debug_str_offsets)

.debug_sup
 *(.debug_sup)
OUTPUT(.build/PanasonicBusinessPartner286_default.elf elf32-avr)
LOAD linker stubs

Cross Reference Table

Symbol                                            File
CALLBACK_HIDParser_FilterHIDReportItem            .build/obj_PanasonicBusinessPartner286_default/lib/lufa/LUFA/Drivers/USB/Class/Common/HIDParser.o
CALLBACK_USB_GetDescriptor                        .build/obj_PanasonicBusinessPartner286_default/lufa.o
                                                  .build/obj_PanasonicBusinessPartner286_default/lib/lufa/LUFA/Drivers/USB/Core/DeviceStandardReq.o
ConfigurationDescriptor                           .build/obj_PanasonicBusinessPartner286_default/usb_descriptor.o
DeviceDescriptor                                  .build/obj_PanasonicBusinessPartner286_default/usb_descriptor.o
EVENT_USB_Device_ConfigurationChanged             .build/obj_PanasonicBusinessPartner286_default/lufa.o
                                                  .build/obj_PanasonicBusinessPartner286_default/lib/lufa/LUFA/Drivers/USB/Core/DeviceStandardReq.o
EVENT_USB_Device_Connect                          .build/obj_PanasonicBusinessPartner286_default/lufa.o
                                                  .build/obj_PanasonicBusinessPartner286_default/lib/lufa/LUFA/Drivers/USB/Core/AVR8/USBInterrupt_AVR8.o
EVENT_USB_Device_ControlRequest                   .build/obj_PanasonicBusinessPartner286_default/lufa.o
                                                  .build/obj_PanasonicBusinessPartner286_default/lib/lufa/LUFA/Drivers/USB/Core/DeviceStandardReq.o
EVENT_USB_Device_Disconnect                       .build/obj_PanasonicBusinessPartner286_default/lufa.o
                                                  .build/obj_PanasonicBusinessPartner286_default/lib/lufa/LUFA/Drivers/USB/Core/AVR8/USBInterrupt_AVR8.o
EVENT_USB_Device_Reset                            .build/obj_PanasonicBusinessPartner286_default/lufa.o
                                                  .build/obj_PanasonicBusinessPartner286_default/lib/lufa/LUFA/Drivers/USB/Core/AVR8/USBInterrupt_AVR8.o
EVENT_USB_Device_StartOfFrame                     .build/obj_PanasonicBusinessPartner286_default/lib/lufa/LUFA/Drivers/USB/Core/Events.o
                                                  .build/obj_PanasonicBusinessPartner286_default/lib/lufa/LUFA/Drivers/USB/Core/AVR8/USBInterrupt_AVR8.o
EVENT_USB_Device_Suspend                          .build/obj_PanasonicBusinessPartner286_default/lufa.o
                                                  .build/obj_PanasonicBusinessPartner286_default/lib/lufa/LUFA/Drivers/USB/Core/AVR8/USBInterrupt_AVR8.o
EVENT_USB_Device_WakeUp                           .build/obj_PanasonicBusinessPartner286_default/lufa.o
                                                  .build/obj_PanasonicBusinessPartner286_default/lib/lufa/LUFA/Drivers/USB/Core/AVR8/USBInterrupt_AVR8.o
Endpoint_ClearEndpoints                           .build/obj_PanasonicBusinessPartner286_default/lib/lufa/LUFA/Drivers/USB/Core/AVR8/Endpoint_AVR8.o
Endpoint_ClearStatusStage                         .build/obj_PanasonicBusinessPartner286_default/lib/lufa/LUFA/Drivers/USB/Core/AVR8/Endpoint_AVR8.o
                                                  .build/obj_PanasonicBusinessPartner286_default/lib/lufa/LUFA/Drivers/USB/Core/DeviceStandardReq.o
                                                  .build/obj_PanasonicBusinessPartner286_default/lufa.o
Endpoint_ConfigureEndpointTable                   .build/obj_PanasonicBusinessPartner286_default/lib/lufa/LUFA/Drivers/USB/Core/AVR8/Endpoint_AVR8.o
Endpoint_ConfigureEndpoint_Prv                    .build/obj_PanasonicBusinessPartner286_default/lib/lufa/LUFA/Drivers/USB/Core/AVR8/Endpoint_AVR8.o
                                                  .build/obj_PanasonicBusinessPartner286_default/lib/lufa/LUFA/Drivers/USB/Core/AVR8/USBInterrupt_AVR8.o
                                                  .build/obj_PanasonicBusinessPartner286_default/lib/lufa/LUFA/Drivers/USB/Core/AVR8/USBController_AVR8.o
                                                  .build/obj_PanasonicBusinessPartner286_default/lufa.o
Endpoint_Discard_Stream                           .build/obj_PanasonicBusinessPartner286_default/lib/lufa/LUFA/Drivers/USB/Core/AVR8/EndpointStream_AVR8.o
Endpoint_Null_Stream                              .build/obj_PanasonicBusinessPartner286_default/lib/lufa/LUFA/Drivers/USB/Core/AVR8/EndpointStream_AVR8.o
Endpoint_Read_Control_EStream_BE                  .build/obj_PanasonicBusinessPartner286_default/lib/lufa/LUFA/Drivers/USB/Core/AVR8/EndpointStream_AVR8.o
Endpoint_Read_Control_EStream_LE                  .build/obj_PanasonicBusinessPartner286_default/lib/lufa/LUFA/Drivers/USB/Core/AVR8/EndpointStream_AVR8.o
Endpoint_Read_Control_Stream_BE                   .build/obj_PanasonicBusinessPartner286_default/lib/lufa/LUFA/Drivers/USB/Core/AVR8/EndpointStream_AVR8.o
Endpoint_Read_Control_Stream_LE                   .build/obj_PanasonicBusinessPartner286_default/lib/lufa/LUFA/Drivers/USB/Core/AVR8/EndpointStream_AVR8.o
Endpoint_Read_EStream_BE                          .build/obj_PanasonicBusinessPartner286_default/lib/lufa/LUFA/Drivers/USB/Core/AVR8/EndpointStream_AVR8.o
Endpoint_Read_EStream_LE                          .build/obj_PanasonicBusinessPartner286_default/lib/lufa/LUFA/Drivers/USB/Core/AVR8/EndpointStream_AVR8.o
Endpoint_Read_Stream_BE                           .build/obj_PanasonicBusinessPartner286_default/lib/lufa/LUFA/Drivers/USB/Core/AVR8/EndpointStream_AVR8.o
Endpoint_Read_Stream_LE                           .build/obj_PanasonicBusinessPartner286_default/lib/lufa/LUFA/Drivers/USB/Core/AVR8/EndpointStream_AVR8.o
Endpoint_WaitUntilReady                           .build/obj_PanasonicBusinessPartner286_default/lib/lufa/LUFA/Drivers/USB/Core/AVR8/Endpoint_AVR8.o
                                                  .build/obj_PanasonicBusinessPartner286_default/lib/lufa/LUFA/Drivers/USB/Core/AVR8/EndpointStream_AVR8.o
Endpoint_Write_Control_EStream_BE                 .build/obj_PanasonicBusinessPartner286_default/lib/lufa/LUFA/Drivers/USB/Core/AVR8/EndpointStream_AVR8.o
Endpoint_Write_Control_EStream_LE                 .build/obj_PanasonicBusinessPartner286_default/lib/lufa/LUFA/Drivers/USB/Core/AVR8/EndpointStream_AVR8.o
Endpoint_Write_Control_PStream_BE                 .build/obj_PanasonicBusinessPartner286_default/lib/lufa/LUFA/Drivers/USB/Core/AVR8/EndpointStream_AVR8.o
Endpoint_Write_Control_PStream_LE                 .build/obj_PanasonicBusinessPartner286_default/lib/lufa/LUFA/Drivers/USB/Core/AVR8/EndpointStream_AVR8.o
                                                  .build/obj_PanasonicBusinessPartner286_default/lib/lufa/LUFA/Drivers/USB/Core/DeviceStandardReq.o
Endpoint_Write_Control_Stream_BE                  .build/obj_PanasonicBusinessPartner286_default/lib/lufa/LUFA/Drivers/USB/Core/AVR8/EndpointStream_AVR8.o
Endpoint_Write_Control_Stream_LE                  .build/obj_PanasonicBusinessPartner286_default/lib/lufa/LUFA/Drivers/USB/Core/AVR8/EndpointStream_AVR8.o
                                                  .build/obj_PanasonicBusinessPartner286_default/lib/lufa/LUFA/Drivers/USB/Core/DeviceStandardReq.o
                                                  .build/obj_PanasonicBusinessPartner286_default/lufa.o
Endpoint_Write_EStream_BE                         .build/obj_PanasonicBusinessPartner286_default/lib/lufa/LUFA/Drivers/USB/Core/AVR8/EndpointStream_AVR8.o
Endpoint_Write_EStream_LE                         .build/obj_PanasonicBusinessPartner286_default/lib/lufa/LUFA/Drivers/USB/Core/AVR8/EndpointStream_AVR8.o
Endpoint_Write_PStream_BE                         .build/obj_PanasonicBusinessPartner286_default/lib/lufa/LUFA/Drivers/USB/Core/AVR8/EndpointStream_AVR8.o
Endpoint_Write_PStream_LE                         .build/obj_PanasonicBusinessPartner286_default/lib/lufa/LUFA/Drivers/USB/Core/AVR8/EndpointStream_AVR8.o
Endpoint_Write_Stream_BE                          .build/obj_PanasonicBusinessPartner286_default/lib/lufa/LUFA/Drivers/USB/Core/AVR8/EndpointStream_AVR8.o
Endpoint_Write_Stream_LE                          .build/obj_PanasonicBusinessPartner286_default/lib/lufa/LUFA/Drivers/USB/Core/AVR8/EndpointStream_AVR8.o
                                                  .build/obj_PanasonicBusinessPartner286_default/lufa.o
KeyboardReport                                    .build/obj_PanasonicBusinessPartner286_default/usb_descriptor.o
LanguageString                                    .build/obj_PanasonicBusinessPartner286_default/usb_descriptor.o
ManufacturerString                                .build/obj_PanasonicBusinessPartner286_default/usb_descriptor.o
ProductString                                     .build/obj_PanasonicBusinessPartner286_default/usb_descriptor.o
SharedReport                                      .build/obj_PanasonicBusinessPartner286_default/usb_descriptor.o
USB_ControlRequest                                .build/obj_PanasonicBusinessPartner286_default/lib/lufa/LUFA/Drivers/USB/Core/USBTask.o
                                                  .build/obj_PanasonicBusinessPartner286_default/lib/lufa/LUFA/Drivers/USB/Core/DeviceStandardReq.o
                                                  .build/obj_PanasonicBusinessPartner286_default/lib/lufa/LUFA/Drivers/USB/Core/AVR8/Endpoint_AVR8.o
                                                  .build/obj_PanasonicBusinessPartner286_default/lib/lufa/LUFA/Drivers/USB/Core/AVR8/EndpointStream_AVR8.o
                                                  .build/obj_PanasonicBusinessPartner286_default/lufa.o
USB_DeviceState                                   .build/obj_PanasonicBusinessPartner286_default/lib/lufa/LUFA/Drivers/USB/Core/USBTask.o
                                                  .build/obj_PanasonicBusinessPartner286_default/protocol/lufa/usb_util.o
                                                  .build/obj_PanasonicBusinessPartner286_default/lib/lufa/LUFA/Drivers/USB/Core/DeviceStandardReq.o
                                                  .build/obj_PanasonicBusinessPartner286_default/lib/lufa/LUFA/Drivers/USB/Core/AVR8/USBInterrupt_AVR8.o
                                                  .build/obj_PanasonicBusinessPartner286_default/lib/lufa/LUFA/Drivers/USB/Core/AVR8/USBController_AVR8.o
                                                  .build/obj_PanasonicBusinessPartner286_default/lib/lufa/LUFA/Drivers/USB/Core/AVR8/Endpoint_AVR8.o
                                                  .build/obj_PanasonicBusinessPartner286_default/lib/lufa/LUFA/Drivers/USB/Core/AVR8/EndpointStream_AVR8.o
                                                  .build/obj_PanasonicBusinessPartner286_default/lufa.o
                                                  .build/obj_PanasonicBusinessPartner286_default/platforms/avr/suspend.o
USB_Device_ConfigurationNumber                    .build/obj_PanasonicBusinessPartner286_default/lib/lufa/LUFA/Drivers/USB/Core/DeviceStandardReq.o
                                                  .build/obj_PanasonicBusinessPartner286_default/lib/lufa/LUFA/Drivers/USB/Core/AVR8/USBInterrupt_AVR8.o
                                                  .build/obj_PanasonicBusinessPartner286_default/lib/lufa/LUFA/Drivers/USB/Core/AVR8/USBController_AVR8.o
                                                  .build/obj_PanasonicBusinessPartner286_default/lufa.o
USB_Device_CurrentlySelfPowered                   .build/obj_PanasonicBusinessPartner286_default/lib/lufa/LUFA/Drivers/USB/Core/DeviceStandardReq.o
                                                  .build/obj_PanasonicBusinessPartner286_default/lib/lufa/LUFA/Drivers/USB/Core/AVR8/USBController_AVR8.o
USB_Device_ProcessControlRequest                  .build/obj_PanasonicBusinessPartner286_default/lib/lufa/LUFA/Drivers/USB/Core/DeviceStandardReq.o
                                                  .build/obj_PanasonicBusinessPartner286_default/lib/lufa/LUFA/Drivers/USB/Core/USBTask.o
                                                  .build/obj_PanasonicBusinessPartner286_default/lib/lufa/LUFA/Drivers/USB/Core/AVR8/USBInterrupt_AVR8.o
USB_Device_RemoteWakeupEnabled                    .build/obj_PanasonicBusinessPartner286_default/lib/lufa/LUFA/Drivers/USB/Core/DeviceStandardReq.o
                                                  .build/obj_PanasonicBusinessPartner286_default/lib/lufa/LUFA/Drivers/USB/Core/AVR8/USBController_AVR8.o
                                                  .build/obj_PanasonicBusinessPartner286_default/lufa.o
USB_Device_SendRemoteWakeup                       .build/obj_PanasonicBusinessPartner286_default/lib/lufa/LUFA/Drivers/USB/Core/AVR8/Device_AVR8.o
                                                  .build/obj_PanasonicBusinessPartner286_default/lufa.o
USB_Disable                                       .build/obj_PanasonicBusinessPartner286_default/lib/lufa/LUFA/Drivers/USB/Core/AVR8/USBController_AVR8.o
                                                  .build/obj_PanasonicBusinessPartner286_default/protocol/lufa/usb_util.o
                                                  .build/obj_PanasonicBusinessPartner286_default/lufa.o
USB_Event_Stub                                    .build/obj_PanasonicBusinessPartner286_default/lib/lufa/LUFA/Drivers/USB/Core/Events.o
USB_Event_Stub_2                                  .build/obj_PanasonicBusinessPartner286_default/lib/lufa/LUFA/Drivers/USB/Core/Events.o
USB_Event_Stub_3                                  .build/obj_PanasonicBusinessPartner286_default/lib/lufa/LUFA/Drivers/USB/Core/Events.o
USB_GetHIDReportItemInfo                          .build/obj_PanasonicBusinessPartner286_default/lib/lufa/LUFA/Drivers/USB/Class/Common/HIDParser.o
USB_GetHIDReportSize                              .build/obj_PanasonicBusinessPartner286_default/lib/lufa/LUFA/Drivers/USB/Class/Common/HIDParser.o
USB_GetNextDescriptorComp                         .build/obj_PanasonicBusinessPartner286_default/lib/lufa/LUFA/Drivers/USB/Core/ConfigDescriptors.o
USB_GetNextDescriptorOfType                       .build/obj_PanasonicBusinessPartner286_default/lib/lufa/LUFA/Drivers/USB/Core/ConfigDescriptors.o
USB_GetNextDescriptorOfTypeAfter                  .build/obj_PanasonicBusinessPartner286_default/lib/lufa/LUFA/Drivers/USB/Core/ConfigDescriptors.o
USB_GetNextDescriptorOfTypeBefore                 .build/obj_PanasonicBusinessPartner286_default/lib/lufa/LUFA/Drivers/USB/Core/ConfigDescriptors.o
USB_INT_ClearAllInterrupts                        .build/obj_PanasonicBusinessPartner286_default/lib/lufa/LUFA/Drivers/USB/Core/AVR8/USBInterrupt_AVR8.o
                                                  .build/obj_PanasonicBusinessPartner286_default/lib/lufa/LUFA/Drivers/USB/Core/AVR8/USBController_AVR8.o
USB_INT_DisableAllInterrupts                      .build/obj_PanasonicBusinessPartner286_default/lib/lufa/LUFA/Drivers/USB/Core/AVR8/USBInterrupt_AVR8.o
                                                  .build/obj_PanasonicBusinessPartner286_default/lib/lufa/LUFA/Drivers/USB/Core/AVR8/USBController_AVR8.o
USB_Init                                          .build/obj_PanasonicBusinessPartner286_default/lib/lufa/LUFA/Drivers/USB/Core/AVR8/USBController_AVR8.o
                                                  .build/obj_PanasonicBusinessPartner286_default/lufa.o
USB_IsInitialized                                 .build/obj_PanasonicBusinessPartner286_default/lib/lufa/LUFA/Drivers/USB/Core/USBTask.o
                                                  .build/obj_PanasonicBusinessPartner286_default/lib/lufa/LUFA/Drivers/USB/Core/AVR8/USBController_AVR8.o
                                                  .build/obj_PanasonicBusinessPartner286_default/lufa.o
USB_ProcessHIDReport                              .build/obj_PanasonicBusinessPartner286_default/lib/lufa/LUFA/Drivers/USB/Class/Common/HIDParser.o
USB_ResetInterface                                .build/obj_PanasonicBusinessPartner286_default/lib/lufa/LUFA/Drivers/USB/Core/AVR8/USBController_AVR8.o
USB_SetHIDReportItemInfo                          .build/obj_PanasonicBusinessPartner286_default/lib/lufa/LUFA/Drivers/USB/Class/Common/HIDParser.o
USB_USBTask                                       .build/obj_PanasonicBusinessPartner286_default/lib/lufa/LUFA/Drivers/USB/Core/USBTask.o
                                                  .build/obj_PanasonicBusinessPartner286_default/lufa.o
__FUSE_REGION_LENGTH__                            /usr/lib/gcc/avr/8.3.0/../../../../avr/lib/avr51/crtat90usb1286.o
__bad_interrupt                                   /usr/lib/gcc/avr/8.3.0/../../../../avr/lib/avr51/crtat90usb1286.o
__bss_end                                         /usr/lib/gcc/avr/8.3.0/avr51/libgcc.a(_clear_bss.o)
__bss_start                                       /usr/lib/gcc/avr/8.3.0/avr51/libgcc.a(_clear_bss.o)
__data_end                                        /usr/lib/gcc/avr/8.3.0/avr51/libgcc.a(_copy_data.o)
__data_load_start                                 /usr/lib/gcc/avr/8.3.0/avr51/libgcc.a(_copy_data.o)
__data_start                                      /usr/lib/gcc/avr/8.3.0/avr51/libgcc.a(_copy_data.o)
__divmodhi4                                       /usr/lib/gcc/avr/8.3.0/avr51/libgcc.a(_divmodhi4.o)
                                                  .build/obj_PanasonicBusinessPartner286_default/quantum/mousekey.o
                                                  .build/obj_PanasonicBusinessPartner286_default/quantum/send_string.o
__divmodsi4                                       /usr/lib/gcc/avr/8.3.0/avr51/libgcc.a(_divmodsi4.o)
                                                  /usr/lib/gcc/avr/8.3.0/../../../../avr/lib/avr51/libc.a(rand.o)
__do_clear_bss                                    /usr/lib/gcc/avr/8.3.0/avr51/libgcc.a(_clear_bss.o)
                                                  .build/obj_PanasonicBusinessPartner286_default/lib/lufa/LUFA/Drivers/USB/Core/USBTask.o
                                                  .build/obj_PanasonicBusinessPartner286_default/lib/lufa/LUFA/Drivers/USB/Core/DeviceStandardReq.o
                                                  .build/obj_PanasonicBusinessPartner286_default/lufa.o
                                                  .build/obj_PanasonicBusinessPartner286_default/platforms/avr/timer.o
                                                  .build/obj_PanasonicBusinessPartner286_default/platforms/avr/suspend.o
                                                  .build/obj_PanasonicBusinessPartner286_default/protocol/usb_device_state.o
                                                  .build/obj_PanasonicBusinessPartner286_default/protocol/host.o
                                                  .build/obj_PanasonicBusinessPartner286_default/quantum/process_keycode/process_space_cadet.o
                                                  .build/obj_PanasonicBusinessPartner286_default/quantum/process_keycode/process_grave_esc.o
                                                  .build/obj_PanasonicBusinessPartner286_default/quantum/mousekey.o
                                                  .build/obj_PanasonicBusinessPartner286_default/quantum/debounce/sym_defer_g.o
                                                  .build/obj_PanasonicBusinessPartner286_default/quantum/matrix_common.o
                                                  .build/obj_PanasonicBusinessPartner286_default/quantum/bootmagic/magic.o
                                                  .build/obj_PanasonicBusinessPartner286_default/quantum/logging/debug.o
                                                  .build/obj_PanasonicBusinessPartner286_default/quantum/keyboard.o
                                                  .build/obj_PanasonicBusinessPartner286_default/quantum/action_util.o
                                                  .build/obj_PanasonicBusinessPartner286_default/quantum/action_tapping.o
                                                  .build/obj_PanasonicBusinessPartner286_default/quantum/action_layer.o
                                                  .build/obj_PanasonicBusinessPartner286_default/quantum/action.o
                                                  .build/obj_PanasonicBusinessPartner286_default/quantum/led.o
                                                  .build/obj_PanasonicBusinessPartner286_default/quantum/quantum.o
__do_copy_data                                    /usr/lib/gcc/avr/8.3.0/avr51/libgcc.a(_copy_data.o)
                                                  /usr/lib/gcc/avr/8.3.0/../../../../avr/lib/avr51/libc.a(rand.o)
                                                  .build/obj_PanasonicBusinessPartner286_default/lufa.o
                                                  .build/obj_PanasonicBusinessPartner286_default/quantum/mousekey.o
                                                  .build/obj_PanasonicBusinessPartner286_default/quantum/matrix.o
                                                  .build/obj_PanasonicBusinessPartner286_default/quantum/keymap_common.o
                                                  .build/obj_PanasonicBusinessPartner286_default/quantum/action_util.o
                                                  .build/obj_PanasonicBusinessPartner286_default/quantum/action_tapping.o
                                                  .build/obj_PanasonicBusinessPartner286_default/quantum/action.o
                                                  .build/obj_PanasonicBusinessPartner286_default/quantum/quantum.o
__fixunssfsi                                      /usr/lib/gcc/avr/8.3.0/../../../../avr/lib/avr51/libm.a(fixunssfsi.o)
                                                  .build/obj_PanasonicBusinessPartner286_default/protocol/host.o
__fp_inf                                          /usr/lib/gcc/avr/8.3.0/../../../../avr/lib/avr51/libm.a(fp_inf.o)
                                                  /usr/lib/gcc/avr/8.3.0/../../../../avr/lib/avr51/libm.a(mulsf3x.o)
__fp_nan                                          /usr/lib/gcc/avr/8.3.0/../../../../avr/lib/avr51/libm.a(fp_nan.o)
                                                  /usr/lib/gcc/avr/8.3.0/../../../../avr/lib/avr51/libm.a(mulsf3x.o)
__fp_pscA                                         /usr/lib/gcc/avr/8.3.0/../../../../avr/lib/avr51/libm.a(fp_pscA.o)
                                                  /usr/lib/gcc/avr/8.3.0/../../../../avr/lib/avr51/libm.a(mulsf3x.o)
__fp_pscB                                         /usr/lib/gcc/avr/8.3.0/../../../../avr/lib/avr51/libm.a(fp_pscB.o)
                                                  /usr/lib/gcc/avr/8.3.0/../../../../avr/lib/avr51/libm.a(mulsf3x.o)
__fp_round                                        /usr/lib/gcc/avr/8.3.0/../../../../avr/lib/avr51/libm.a(fp_round.o)
                                                  /usr/lib/gcc/avr/8.3.0/../../../../avr/lib/avr51/libm.a(mulsf3.o)
__fp_split3                                       /usr/lib/gcc/avr/8.3.0/../../../../avr/lib/avr51/libm.a(fp_split3.o)
                                                  /usr/lib/gcc/avr/8.3.0/../../../../avr/lib/avr51/libm.a(mulsf3x.o)
__fp_splitA                                       /usr/lib/gcc/avr/8.3.0/../../../../avr/lib/avr51/libm.a(fp_split3.o)
                                                  /usr/lib/gcc/avr/8.3.0/../../../../avr/lib/avr51/libm.a(fixunssfsi.o)
__fp_szero                                        /usr/lib/gcc/avr/8.3.0/../../../../avr/lib/avr51/libm.a(fp_zero.o)
                                                  /usr/lib/gcc/avr/8.3.0/../../../../avr/lib/avr51/libm.a(mulsf3x.o)
__fp_zero                                         /usr/lib/gcc/avr/8.3.0/../../../../avr/lib/avr51/libm.a(fp_zero.o)
                                                  /usr/lib/gcc/avr/8.3.0/../../../../avr/lib/avr51/libm.a(fixunssfsi.o)
__heap_end                                        /usr/lib/gcc/avr/8.3.0/../../../../avr/lib/avr51/crtat90usb1286.o
__init                                            /usr/lib/gcc/avr/8.3.0/../../../../avr/lib/avr51/crtat90usb1286.o
__mulohisi3                                       /usr/lib/gcc/avr/8.3.0/avr51/libgcc.a(_mulshisi3.o)
                                                  /usr/lib/gcc/avr/8.3.0/../../../../avr/lib/avr51/libc.a(rand.o)
__mulsf3                                          /usr/lib/gcc/avr/8.3.0/../../../../avr/lib/avr51/libm.a(mulsf3.o)
                                                  .build/obj_PanasonicBusinessPartner286_default/protocol/host.o
__mulsf3_pse                                      /usr/lib/gcc/avr/8.3.0/../../../../avr/lib/avr51/libm.a(mulsf3x.o)
__mulsf3x                                         /usr/lib/gcc/avr/8.3.0/../../../../avr/lib/avr51/libm.a(mulsf3x.o)
                                                  /usr/lib/gcc/avr/8.3.0/../../../../avr/lib/avr51/libm.a(mulsf3.o)
__mulshisi3                                       /usr/lib/gcc/avr/8.3.0/avr51/libgcc.a(_mulshisi3.o)
__muluhisi3                                       /usr/lib/gcc/avr/8.3.0/avr51/libgcc.a(_muluhisi3.o)
                                                  /usr/lib/gcc/avr/8.3.0/avr51/libgcc.a(_mulshisi3.o)
                                                  /usr/lib/gcc/avr/8.3.0/../../../../avr/lib/avr51/libc.a(rand.o)
__negsi2                                          /usr/lib/gcc/avr/8.3.0/avr51/libgcc.a(_negsi2.o)
                                                  /usr/lib/gcc/avr/8.3.0/avr51/libgcc.a(_divmodsi4.o)
__stack                                           /usr/lib/gcc/avr/8.3.0/../../../../avr/lib/avr51/crtat90usb1286.o
__tablejump2__                                    /usr/lib/gcc/avr/8.3.0/avr51/libgcc.a(_tablejump2.o)
                                                  .build/obj_PanasonicBusinessPartner286_default/lib/lufa/LUFA/Drivers/USB/Core/DeviceStandardReq.o
                                                  .build/obj_PanasonicBusinessPartner286_default/quantum/action.o
__udivmodhi4                                      /usr/lib/gcc/avr/8.3.0/avr51/libgcc.a(_udivmodhi4.o)
                                                  /usr/lib/gcc/avr/8.3.0/avr51/libgcc.a(_divmodhi4.o)
__udivmodsi4                                      /usr/lib/gcc/avr/8.3.0/avr51/libgcc.a(_udivmodsi4.o)
                                                  /usr/lib/gcc/avr/8.3.0/avr51/libgcc.a(_divmodsi4.o)
                                                  .build/obj_PanasonicBusinessPartner286_default/quantum/quantum.o
__umulhisi3                                       /usr/lib/gcc/avr/8.3.0/avr51/libgcc.a(_umulhisi3.o)
                                                  /usr/lib/gcc/avr/8.3.0/avr51/libgcc.a(_muluhisi3.o)
__vector_1                                        /usr/lib/gcc/avr/8.3.0/../../../../avr/lib/avr51/crtat90usb1286.o
__vector_10                                       .build/obj_PanasonicBusinessPartner286_default/lib/lufa/LUFA/Drivers/USB/Core/AVR8/USBInterrupt_AVR8.o
                                                  /usr/lib/gcc/avr/8.3.0/../../../../avr/lib/avr51/crtat90usb1286.o
__vector_11                                       .build/obj_PanasonicBusinessPartner286_default/lib/lufa/LUFA/Drivers/USB/Core/AVR8/USBInterrupt_AVR8.o
                                                  /usr/lib/gcc/avr/8.3.0/../../../../avr/lib/avr51/crtat90usb1286.o
__vector_12                                       .build/obj_PanasonicBusinessPartner286_default/platforms/avr/suspend.o
                                                  /usr/lib/gcc/avr/8.3.0/../../../../avr/lib/avr51/crtat90usb1286.o
__vector_13                                       /usr/lib/gcc/avr/8.3.0/../../../../avr/lib/avr51/crtat90usb1286.o
__vector_14                                       /usr/lib/gcc/avr/8.3.0/../../../../avr/lib/avr51/crtat90usb1286.o
__vector_15                                       /usr/lib/gcc/avr/8.3.0/../../../../avr/lib/avr51/crtat90usb1286.o
__vector_16                                       /usr/lib/gcc/avr/8.3.0/../../../../avr/lib/avr51/crtat90usb1286.o
__vector_17                                       /usr/lib/gcc/avr/8.3.0/../../../../avr/lib/avr51/crtat90usb1286.o
__vector_18                                       /usr/lib/gcc/avr/8.3.0/../../../../avr/lib/avr51/crtat90usb1286.o
__vector_19                                       /usr/lib/gcc/avr/8.3.0/../../../../avr/lib/avr51/crtat90usb1286.o
__vector_2                                        /usr/lib/gcc/avr/8.3.0/../../../../avr/lib/avr51/crtat90usb1286.o
__vector_20                                       /usr/lib/gcc/avr/8.3.0/../../../../avr/lib/avr51/crtat90usb1286.o
__vector_21                                       .build/obj_PanasonicBusinessPartner286_default/platforms/avr/timer.o
                                                  /usr/lib/gcc/avr/8.3.0/../../../../avr/lib/avr51/crtat90usb1286.o
__vector_22                                       /usr/lib/gcc/avr/8.3.0/../../../../avr/lib/avr51/crtat90usb1286.o
__vector_23                                       /usr/lib/gcc/avr/8.3.0/../../../../avr/lib/avr51/crtat90usb1286.o
__vector_24                                       /usr/lib/gcc/avr/8.3.0/../../../../avr/lib/avr51/crtat90usb1286.o
__vector_25                                       /usr/lib/gcc/avr/8.3.0/../../../../avr/lib/avr51/crtat90usb1286.o
__vector_26                                       /usr/lib/gcc/avr/8.3.0/../../../../avr/lib/avr51/crtat90usb1286.o
__vector_27                                       /usr/lib/gcc/avr/8.3.0/../../../../avr/lib/avr51/crtat90usb1286.o
__vector_28                                       /usr/lib/gcc/avr/8.3.0/../../../../avr/lib/avr51/crtat90usb1286.o
__vector_29                                       /usr/lib/gcc/avr/8.3.0/../../../../avr/lib/avr51/crtat90usb1286.o
__vector_3                                        /usr/lib/gcc/avr/8.3.0/../../../../avr/lib/avr51/crtat90usb1286.o
__vector_30                                       /usr/lib/gcc/avr/8.3.0/../../../../avr/lib/avr51/crtat90usb1286.o
__vector_31                                       /usr/lib/gcc/avr/8.3.0/../../../../avr/lib/avr51/crtat90usb1286.o
__vector_32                                       /usr/lib/gcc/avr/8.3.0/../../../../avr/lib/avr51/crtat90usb1286.o
__vector_33                                       /usr/lib/gcc/avr/8.3.0/../../../../avr/lib/avr51/crtat90usb1286.o
__vector_34                                       /usr/lib/gcc/avr/8.3.0/../../../../avr/lib/avr51/crtat90usb1286.o
__vector_35                                       /usr/lib/gcc/avr/8.3.0/../../../../avr/lib/avr51/crtat90usb1286.o
__vector_36                                       /usr/lib/gcc/avr/8.3.0/../../../../avr/lib/avr51/crtat90usb1286.o
__vector_37                                       /usr/lib/gcc/avr/8.3.0/../../../../avr/lib/avr51/crtat90usb1286.o
__vector_4                                        /usr/lib/gcc/avr/8.3.0/../../../../avr/lib/avr51/crtat90usb1286.o
__vector_5                                        /usr/lib/gcc/avr/8.3.0/../../../../avr/lib/avr51/crtat90usb1286.o
__vector_6                                        /usr/lib/gcc/avr/8.3.0/../../../../avr/lib/avr51/crtat90usb1286.o
__vector_7                                        /usr/lib/gcc/avr/8.3.0/../../../../avr/lib/avr51/crtat90usb1286.o
__vector_8                                        /usr/lib/gcc/avr/8.3.0/../../../../avr/lib/avr51/crtat90usb1286.o
__vector_9                                        /usr/lib/gcc/avr/8.3.0/../../../../avr/lib/avr51/crtat90usb1286.o
__vector_default                                  /usr/lib/gcc/avr/8.3.0/../../../../avr/lib/avr51/crtat90usb1286.o
__vectors                                         /usr/lib/gcc/avr/8.3.0/../../../../avr/lib/avr51/crtat90usb1286.o
__xprintf                                         .build/obj_PanasonicBusinessPartner286_default/platforms/avr/xprintf.o
_div                                              /usr/lib/gcc/avr/8.3.0/avr51/libgcc.a(_divmodhi4.o)
_exit                                             /usr/lib/gcc/avr/8.3.0/avr51/libgcc.a(_exit.o)
action_exec                                       .build/obj_PanasonicBusinessPartner286_default/quantum/action.o
                                                  .build/obj_PanasonicBusinessPartner286_default/quantum/keyboard.o
action_for_key                                    .build/obj_PanasonicBusinessPartner286_default/quantum/keymap_common.o
                                                  .build/obj_PanasonicBusinessPartner286_default/quantum/action_layer.o
action_for_keycode                                .build/obj_PanasonicBusinessPartner286_default/quantum/keymap_common.o
action_tapping_process                            .build/obj_PanasonicBusinessPartner286_default/quantum/action_tapping.o
                                                  .build/obj_PanasonicBusinessPartner286_default/quantum/action.o
add_key                                           .build/obj_PanasonicBusinessPartner286_default/quantum/action_util.o
                                                  .build/obj_PanasonicBusinessPartner286_default/quantum/process_keycode/process_grave_esc.o
                                                  .build/obj_PanasonicBusinessPartner286_default/quantum/action.o
add_key_bit                                       .build/obj_PanasonicBusinessPartner286_default/protocol/report.o
add_key_byte                                      .build/obj_PanasonicBusinessPartner286_default/protocol/report.o
add_key_to_report                                 .build/obj_PanasonicBusinessPartner286_default/protocol/report.o
                                                  .build/obj_PanasonicBusinessPartner286_default/quantum/action_util.o
add_mods                                          .build/obj_PanasonicBusinessPartner286_default/quantum/action_util.o
                                                  .build/obj_PanasonicBusinessPartner286_default/quantum/action.o
add_oneshot_mods                                  .build/obj_PanasonicBusinessPartner286_default/quantum/action_util.o
add_weak_mods                                     .build/obj_PanasonicBusinessPartner286_default/quantum/action_util.o
                                                  .build/obj_PanasonicBusinessPartner286_default/quantum/action.o
ascii_to_altgr_lut                                .build/obj_PanasonicBusinessPartner286_default/quantum/send_string.o
ascii_to_dead_lut                                 .build/obj_PanasonicBusinessPartner286_default/quantum/send_string.o
ascii_to_keycode_lut                              .build/obj_PanasonicBusinessPartner286_default/quantum/send_string.o
ascii_to_shift_lut                                .build/obj_PanasonicBusinessPartner286_default/quantum/send_string.o
biton                                             .build/obj_PanasonicBusinessPartner286_default/quantum/bitwise.o
                                                  .build/obj_PanasonicBusinessPartner286_default/protocol/report.o
biton16                                           .build/obj_PanasonicBusinessPartner286_default/quantum/bitwise.o
biton32                                           .build/obj_PanasonicBusinessPartner286_default/quantum/bitwise.o
bitpop                                            .build/obj_PanasonicBusinessPartner286_default/quantum/bitwise.o
                                                  .build/obj_PanasonicBusinessPartner286_default/quantum/action_util.o
bitpop16                                          .build/obj_PanasonicBusinessPartner286_default/quantum/bitwise.o
                                                  .build/obj_PanasonicBusinessPartner286_default/quantum/matrix_common.o
bitpop32                                          .build/obj_PanasonicBusinessPartner286_default/quantum/bitwise.o
bitrev                                            .build/obj_PanasonicBusinessPartner286_default/quantum/bitwise.o
bitrev16                                          .build/obj_PanasonicBusinessPartner286_default/quantum/bitwise.o
bitrev32                                          .build/obj_PanasonicBusinessPartner286_default/quantum/bitwise.o
bootloader_jump                                   .build/obj_PanasonicBusinessPartner286_default/platforms/avr/bootloaders/halfkay.o
                                                  .build/obj_PanasonicBusinessPartner286_default/quantum/bootmagic/bootmagic_lite.o
                                                  .build/obj_PanasonicBusinessPartner286_default/quantum/quantum.o
bootmagic                                         .build/obj_PanasonicBusinessPartner286_default/quantum/bootmagic/bootmagic_lite.o
bootmagic_lite                                    .build/obj_PanasonicBusinessPartner286_default/quantum/bootmagic/bootmagic_lite.o
bootmagic_lite_reset_eeprom                       .build/obj_PanasonicBusinessPartner286_default/quantum/bootmagic/bootmagic_lite.o
clear_keyboard                                    .build/obj_PanasonicBusinessPartner286_default/quantum/action.o
                                                  .build/obj_PanasonicBusinessPartner286_default/lufa.o
                                                  .build/obj_PanasonicBusinessPartner286_default/platforms/avr/suspend.o
                                                  .build/obj_PanasonicBusinessPartner286_default/quantum/process_keycode/process_magic.o
                                                  .build/obj_PanasonicBusinessPartner286_default/quantum/action_tapping.o
                                                  .build/obj_PanasonicBusinessPartner286_default/quantum/quantum.o
clear_keyboard_but_mods                           .build/obj_PanasonicBusinessPartner286_default/quantum/action.o
clear_keyboard_but_mods_and_keys                  .build/obj_PanasonicBusinessPartner286_default/quantum/action.o
                                                  .build/obj_PanasonicBusinessPartner286_default/quantum/action_layer.o
clear_keys                                        .build/obj_PanasonicBusinessPartner286_default/quantum/action_util.o
                                                  .build/obj_PanasonicBusinessPartner286_default/quantum/action.o
clear_keys_from_report                            .build/obj_PanasonicBusinessPartner286_default/protocol/report.o
                                                  .build/obj_PanasonicBusinessPartner286_default/quantum/action_util.o
clear_mods                                        .build/obj_PanasonicBusinessPartner286_default/quantum/action_util.o
                                                  .build/obj_PanasonicBusinessPartner286_default/quantum/action.o
clear_oneshot_layer_state                         .build/obj_PanasonicBusinessPartner286_default/quantum/action_util.o
                                                  .build/obj_PanasonicBusinessPartner286_default/quantum/action.o
clear_oneshot_locked_mods                         .build/obj_PanasonicBusinessPartner286_default/quantum/action_util.o
clear_oneshot_mods                                .build/obj_PanasonicBusinessPartner286_default/quantum/action_util.o
                                                  .build/obj_PanasonicBusinessPartner286_default/quantum/action.o
clear_weak_mods                                   .build/obj_PanasonicBusinessPartner286_default/quantum/action_util.o
                                                  .build/obj_PanasonicBusinessPartner286_default/quantum/action.o
debounce                                          .build/obj_PanasonicBusinessPartner286_default/quantum/debounce/sym_defer_g.o
                                                  .build/obj_PanasonicBusinessPartner286_default/quantum/matrix.o
                                                  .build/obj_PanasonicBusinessPartner286_default/quantum/matrix_common.o
debounce_free                                     .build/obj_PanasonicBusinessPartner286_default/quantum/debounce/sym_defer_g.o
debounce_init                                     .build/obj_PanasonicBusinessPartner286_default/quantum/debounce/sym_defer_g.o
                                                  .build/obj_PanasonicBusinessPartner286_default/quantum/matrix.o
                                                  .build/obj_PanasonicBusinessPartner286_default/quantum/matrix_common.o
debug_action                                      .build/obj_PanasonicBusinessPartner286_default/quantum/action.o
debug_config                                      .build/obj_PanasonicBusinessPartner286_default/quantum/logging/debug.o
                                                  .build/obj_PanasonicBusinessPartner286_default/quantum/bootmagic/magic.o
                                                  .build/obj_PanasonicBusinessPartner286_default/quantum/keyboard.o
debug_event                                       .build/obj_PanasonicBusinessPartner286_default/quantum/action.o
                                                  .build/obj_PanasonicBusinessPartner286_default/quantum/action_tapping.o
debug_record                                      .build/obj_PanasonicBusinessPartner286_default/quantum/action.o
                                                  .build/obj_PanasonicBusinessPartner286_default/quantum/action_tapping.o
default_layer_and                                 .build/obj_PanasonicBusinessPartner286_default/quantum/action_layer.o
                                                  .build/obj_PanasonicBusinessPartner286_default/quantum/action.o
default_layer_debug                               .build/obj_PanasonicBusinessPartner286_default/quantum/action_layer.o
                                                  .build/obj_PanasonicBusinessPartner286_default/quantum/action.o
default_layer_or                                  .build/obj_PanasonicBusinessPartner286_default/quantum/action_layer.o
                                                  .build/obj_PanasonicBusinessPartner286_default/quantum/action.o
default_layer_set                                 .build/obj_PanasonicBusinessPartner286_default/quantum/action_layer.o
                                                  .build/obj_PanasonicBusinessPartner286_default/quantum/bootmagic/magic.o
                                                  .build/obj_PanasonicBusinessPartner286_default/quantum/action.o
                                                  .build/obj_PanasonicBusinessPartner286_default/quantum/quantum.o
default_layer_state                               .build/obj_PanasonicBusinessPartner286_default/quantum/action_layer.o
                                                  .build/obj_PanasonicBusinessPartner286_default/quantum/eeconfig.o
default_layer_state_set_kb                        .build/obj_PanasonicBusinessPartner286_default/quantum/action_layer.o
default_layer_state_set_user                      .build/obj_PanasonicBusinessPartner286_default/quantum/action_layer.o
default_layer_xor                                 .build/obj_PanasonicBusinessPartner286_default/quantum/action_layer.o
                                                  .build/obj_PanasonicBusinessPartner286_default/quantum/action.o
del_key                                           .build/obj_PanasonicBusinessPartner286_default/quantum/action_util.o
                                                  .build/obj_PanasonicBusinessPartner286_default/quantum/process_keycode/process_grave_esc.o
                                                  .build/obj_PanasonicBusinessPartner286_default/quantum/action.o
del_key_bit                                       .build/obj_PanasonicBusinessPartner286_default/protocol/report.o
del_key_byte                                      .build/obj_PanasonicBusinessPartner286_default/protocol/report.o
del_key_from_report                               .build/obj_PanasonicBusinessPartner286_default/protocol/report.o
                                                  .build/obj_PanasonicBusinessPartner286_default/quantum/action_util.o
del_mods                                          .build/obj_PanasonicBusinessPartner286_default/quantum/action_util.o
                                                  .build/obj_PanasonicBusinessPartner286_default/quantum/action.o
del_oneshot_mods                                  .build/obj_PanasonicBusinessPartner286_default/quantum/action_util.o
del_weak_mods                                     .build/obj_PanasonicBusinessPartner286_default/quantum/action_util.o
                                                  .build/obj_PanasonicBusinessPartner286_default/quantum/action.o
disable_action_cache                              .build/obj_PanasonicBusinessPartner286_default/quantum/action.o
                                                  .build/obj_PanasonicBusinessPartner286_default/quantum/action_layer.o
                                                  .build/obj_PanasonicBusinessPartner286_default/quantum/quantum.o
disable_jtag                                      .build/obj_PanasonicBusinessPartner286_default/quantum/keyboard.o
do_code16                                         .build/obj_PanasonicBusinessPartner286_default/quantum/quantum.o
eeconfig_disable                                  .build/obj_PanasonicBusinessPartner286_default/quantum/eeconfig.o
                                                  .build/obj_PanasonicBusinessPartner286_default/quantum/bootmagic/bootmagic_lite.o
eeconfig_enable                                   .build/obj_PanasonicBusinessPartner286_default/quantum/eeconfig.o
eeconfig_init                                     .build/obj_PanasonicBusinessPartner286_default/quantum/eeconfig.o
                                                  .build/obj_PanasonicBusinessPartner286_default/quantum/bootmagic/magic.o
                                                  .build/obj_PanasonicBusinessPartner286_default/quantum/quantum.o
eeconfig_init_kb                                  .build/obj_PanasonicBusinessPartner286_default/quantum/eeconfig.o
eeconfig_init_quantum                             .build/obj_PanasonicBusinessPartner286_default/quantum/eeconfig.o
eeconfig_init_user                                .build/obj_PanasonicBusinessPartner286_default/quantum/eeconfig.o
eeconfig_is_disabled                              .build/obj_PanasonicBusinessPartner286_default/quantum/eeconfig.o
eeconfig_is_enabled                               .build/obj_PanasonicBusinessPartner286_default/quantum/eeconfig.o
                                                  .build/obj_PanasonicBusinessPartner286_default/quantum/bootmagic/magic.o
eeconfig_read_audio                               .build/obj_PanasonicBusinessPartner286_default/quantum/eeconfig.o
eeconfig_read_debug                               .build/obj_PanasonicBusinessPartner286_default/quantum/eeconfig.o
                                                  .build/obj_PanasonicBusinessPartner286_default/quantum/bootmagic/magic.o
eeconfig_read_default_layer                       .build/obj_PanasonicBusinessPartner286_default/quantum/eeconfig.o
                                                  .build/obj_PanasonicBusinessPartner286_default/quantum/bootmagic/magic.o
eeconfig_read_handedness                          .build/obj_PanasonicBusinessPartner286_default/quantum/eeconfig.o
eeconfig_read_haptic                              .build/obj_PanasonicBusinessPartner286_default/quantum/eeconfig.o
eeconfig_read_kb                                  .build/obj_PanasonicBusinessPartner286_default/quantum/eeconfig.o
eeconfig_read_keymap                              .build/obj_PanasonicBusinessPartner286_default/quantum/eeconfig.o
                                                  .build/obj_PanasonicBusinessPartner286_default/quantum/process_keycode/process_magic.o
                                                  .build/obj_PanasonicBusinessPartner286_default/quantum/bootmagic/magic.o
eeconfig_read_user                                .build/obj_PanasonicBusinessPartner286_default/quantum/eeconfig.o
eeconfig_update_audio                             .build/obj_PanasonicBusinessPartner286_default/quantum/eeconfig.o
eeconfig_update_debug                             .build/obj_PanasonicBusinessPartner286_default/quantum/eeconfig.o
eeconfig_update_default_layer                     .build/obj_PanasonicBusinessPartner286_default/quantum/eeconfig.o
                                                  .build/obj_PanasonicBusinessPartner286_default/quantum/quantum.o
eeconfig_update_handedness                        .build/obj_PanasonicBusinessPartner286_default/quantum/eeconfig.o
                                                  .build/obj_PanasonicBusinessPartner286_default/quantum/process_keycode/process_magic.o
eeconfig_update_haptic                            .build/obj_PanasonicBusinessPartner286_default/quantum/eeconfig.o
eeconfig_update_kb                                .build/obj_PanasonicBusinessPartner286_default/quantum/eeconfig.o
eeconfig_update_keymap                            .build/obj_PanasonicBusinessPartner286_default/quantum/eeconfig.o
                                                  .build/obj_PanasonicBusinessPartner286_default/quantum/process_keycode/process_magic.o
                                                  .build/obj_PanasonicBusinessPartner286_default/quantum/keyboard.o
                                                  .build/obj_PanasonicBusinessPartner286_default/quantum/action_util.o
eeconfig_update_user                              .build/obj_PanasonicBusinessPartner286_default/quantum/eeconfig.o
eeprom_read_block                                 /usr/lib/gcc/avr/8.3.0/../../../../avr/lib/avr51/libat90usb1286.a(eerd_block.o)
eeprom_read_blraw                                 /usr/lib/gcc/avr/8.3.0/../../../../avr/lib/avr51/libat90usb1286.a(eerd_block.o)
                                                  /usr/lib/gcc/avr/8.3.0/../../../../avr/lib/avr51/libat90usb1286.a(eerd_word.o)
                                                  /usr/lib/gcc/avr/8.3.0/../../../../avr/lib/avr51/libat90usb1286.a(eerd_dword.o)
eeprom_read_byte                                  /usr/lib/gcc/avr/8.3.0/../../../../avr/lib/avr51/libat90usb1286.a(eerd_byte.o)
                                                  .build/obj_PanasonicBusinessPartner286_default/lib/lufa/LUFA/Drivers/USB/Core/AVR8/EndpointStream_AVR8.o
                                                  .build/obj_PanasonicBusinessPartner286_default/quantum/eeconfig.o
eeprom_read_dword                                 /usr/lib/gcc/avr/8.3.0/../../../../avr/lib/avr51/libat90usb1286.a(eerd_dword.o)
                                                  .build/obj_PanasonicBusinessPartner286_default/quantum/eeconfig.o
eeprom_read_float                                 /usr/lib/gcc/avr/8.3.0/../../../../avr/lib/avr51/libat90usb1286.a(eerd_dword.o)
eeprom_read_word                                  /usr/lib/gcc/avr/8.3.0/../../../../avr/lib/avr51/libat90usb1286.a(eerd_word.o)
                                                  .build/obj_PanasonicBusinessPartner286_default/quantum/eeconfig.o
eeprom_update_byte                                /usr/lib/gcc/avr/8.3.0/../../../../avr/lib/avr51/libat90usb1286.a(eeupd_byte.o)
                                                  /usr/lib/gcc/avr/8.3.0/../../../../avr/lib/avr51/libat90usb1286.a(eeupd_word.o)
                                                  /usr/lib/gcc/avr/8.3.0/../../../../avr/lib/avr51/libat90usb1286.a(eeupd_dword.o)
                                                  .build/obj_PanasonicBusinessPartner286_default/lib/lufa/LUFA/Drivers/USB/Core/AVR8/EndpointStream_AVR8.o
                                                  .build/obj_PanasonicBusinessPartner286_default/quantum/eeconfig.o
eeprom_update_dword                               /usr/lib/gcc/avr/8.3.0/../../../../avr/lib/avr51/libat90usb1286.a(eeupd_dword.o)
                                                  .build/obj_PanasonicBusinessPartner286_default/quantum/eeconfig.o
eeprom_update_float                               /usr/lib/gcc/avr/8.3.0/../../../../avr/lib/avr51/libat90usb1286.a(eeupd_dword.o)
eeprom_update_r18                                 /usr/lib/gcc/avr/8.3.0/../../../../avr/lib/avr51/libat90usb1286.a(eeupd_byte.o)
                                                  /usr/lib/gcc/avr/8.3.0/../../../../avr/lib/avr51/libat90usb1286.a(eeupd_word.o)
                                                  /usr/lib/gcc/avr/8.3.0/../../../../avr/lib/avr51/libat90usb1286.a(eeupd_dword.o)
eeprom_update_word                                /usr/lib/gcc/avr/8.3.0/../../../../avr/lib/avr51/libat90usb1286.a(eeupd_word.o)
                                                  .build/obj_PanasonicBusinessPartner286_default/quantum/eeconfig.o
exit                                              /usr/lib/gcc/avr/8.3.0/avr51/libgcc.a(_exit.o)
                                                  /usr/lib/gcc/avr/8.3.0/../../../../avr/lib/avr51/crtat90usb1286.o
extract_mod_bits                                  .build/obj_PanasonicBusinessPartner286_default/quantum/quantum.o
g_tapping_term                                    .build/obj_PanasonicBusinessPartner286_default/quantum/action_tapping.o
get_event_keycode                                 .build/obj_PanasonicBusinessPartner286_default/quantum/quantum.o
get_first_key                                     .build/obj_PanasonicBusinessPartner286_default/protocol/report.o
get_mods                                          .build/obj_PanasonicBusinessPartner286_default/quantum/action_util.o
                                                  .build/obj_PanasonicBusinessPartner286_default/quantum/process_keycode/process_grave_esc.o
get_numeric_str                                   .build/obj_PanasonicBusinessPartner286_default/quantum/quantum.o
get_oneshot_layer                                 .build/obj_PanasonicBusinessPartner286_default/quantum/action_util.o
                                                  .build/obj_PanasonicBusinessPartner286_default/quantum/action.o
get_oneshot_layer_state                           .build/obj_PanasonicBusinessPartner286_default/quantum/action_util.o
                                                  .build/obj_PanasonicBusinessPartner286_default/quantum/action.o
get_oneshot_locked_mods                           .build/obj_PanasonicBusinessPartner286_default/quantum/action_util.o
get_oneshot_mods                                  .build/obj_PanasonicBusinessPartner286_default/quantum/action_util.o
                                                  .build/obj_PanasonicBusinessPartner286_default/quantum/action.o
get_record_keycode                                .build/obj_PanasonicBusinessPartner286_default/quantum/quantum.o
get_tapping_term                                  .build/obj_PanasonicBusinessPartner286_default/quantum/action_tapping.o
get_u16_str                                       .build/obj_PanasonicBusinessPartner286_default/quantum/quantum.o
get_u8_str                                        .build/obj_PanasonicBusinessPartner286_default/quantum/quantum.o
get_usb_descriptor                                .build/obj_PanasonicBusinessPartner286_default/usb_descriptor.o
                                                  .build/obj_PanasonicBusinessPartner286_default/lufa.o
get_weak_mods                                     .build/obj_PanasonicBusinessPartner286_default/quantum/action_util.o
has_anykey                                        .build/obj_PanasonicBusinessPartner286_default/protocol/report.o
                                                  .build/obj_PanasonicBusinessPartner286_default/quantum/action_util.o
has_anymod                                        .build/obj_PanasonicBusinessPartner286_default/quantum/action_util.o
has_oneshot_mods_timed_out                        .build/obj_PanasonicBusinessPartner286_default/quantum/action_util.o
host_consumer_send                                .build/obj_PanasonicBusinessPartner286_default/protocol/host.o
                                                  .build/obj_PanasonicBusinessPartner286_default/quantum/action.o
host_digitizer_send                               .build/obj_PanasonicBusinessPartner286_default/protocol/host.o
host_get_driver                                   .build/obj_PanasonicBusinessPartner286_default/protocol/host.o
host_keyboard_led_state                           .build/obj_PanasonicBusinessPartner286_default/protocol/host.o
host_keyboard_leds                                .build/obj_PanasonicBusinessPartner286_default/protocol/host.o
                                                  .build/obj_PanasonicBusinessPartner286_default/quantum/action.o
                                                  .build/obj_PanasonicBusinessPartner286_default/quantum/led.o
host_keyboard_send                                .build/obj_PanasonicBusinessPartner286_default/protocol/host.o
                                                  .build/obj_PanasonicBusinessPartner286_default/quantum/action_util.o
host_last_consumer_report                         .build/obj_PanasonicBusinessPartner286_default/protocol/host.o
host_last_programmable_button_report              .build/obj_PanasonicBusinessPartner286_default/protocol/host.o
host_last_system_report                           .build/obj_PanasonicBusinessPartner286_default/protocol/host.o
host_mouse_send                                   .build/obj_PanasonicBusinessPartner286_default/protocol/host.o
                                                  .build/obj_PanasonicBusinessPartner286_default/quantum/mousekey.o
host_programmable_button_send                     .build/obj_PanasonicBusinessPartner286_default/protocol/host.o
host_set_driver                                   .build/obj_PanasonicBusinessPartner286_default/protocol/host.o
                                                  .build/obj_PanasonicBusinessPartner286_default/lufa.o
host_system_send                                  .build/obj_PanasonicBusinessPartner286_default/protocol/host.o
                                                  .build/obj_PanasonicBusinessPartner286_default/quantum/action.o
housekeeping_task                                 .build/obj_PanasonicBusinessPartner286_default/quantum/keyboard.o
                                                  .build/obj_PanasonicBusinessPartner286_default/quantum/main.o
housekeeping_task_kb                              .build/obj_PanasonicBusinessPartner286_default/quantum/keyboard.o
housekeeping_task_user                            .build/obj_PanasonicBusinessPartner286_default/quantum/keyboard.o
is_key_pressed                                    .build/obj_PanasonicBusinessPartner286_default/protocol/report.o
                                                  .build/obj_PanasonicBusinessPartner286_default/quantum/action.o
is_keyboard_left                                  .build/obj_PanasonicBusinessPartner286_default/quantum/keyboard.o
is_keyboard_master                                .build/obj_PanasonicBusinessPartner286_default/quantum/keyboard.o
is_oneshot_enabled                                .build/obj_PanasonicBusinessPartner286_default/quantum/action_util.o
is_oneshot_layer_active                           .build/obj_PanasonicBusinessPartner286_default/quantum/action_util.o
                                                  .build/obj_PanasonicBusinessPartner286_default/quantum/action.o
is_tap_action                                     .build/obj_PanasonicBusinessPartner286_default/quantum/action.o
is_tap_key                                        .build/obj_PanasonicBusinessPartner286_default/quantum/action.o
is_tap_record                                     .build/obj_PanasonicBusinessPartner286_default/quantum/action.o
                                                  .build/obj_PanasonicBusinessPartner286_default/quantum/action_tapping.o
keyboard_idle                                     .build/obj_PanasonicBusinessPartner286_default/lufa.o
keyboard_init                                     .build/obj_PanasonicBusinessPartner286_default/quantum/keyboard.o
                                                  .build/obj_PanasonicBusinessPartner286_default/quantum/main.o
keyboard_post_init_kb                             .build/obj_PanasonicBusinessPartner286_default/quantum/keyboard.o
keyboard_post_init_user                           .build/obj_PanasonicBusinessPartner286_default/quantum/keyboard.o
keyboard_pre_init_kb                              .build/obj_PanasonicBusinessPartner286_default/quantum/keyboard.o
keyboard_pre_init_user                            .build/obj_PanasonicBusinessPartner286_default/quantum/keyboard.o
keyboard_protocol                                 .build/obj_PanasonicBusinessPartner286_default/lufa.o
                                                  .build/obj_PanasonicBusinessPartner286_default/protocol/report.o
                                                  .build/obj_PanasonicBusinessPartner286_default/protocol/host.o
keyboard_report                                   .build/obj_PanasonicBusinessPartner286_default/quantum/action_util.o
                                                  .build/obj_PanasonicBusinessPartner286_default/quantum/action.o
keyboard_setup                                    .build/obj_PanasonicBusinessPartner286_default/quantum/keyboard.o
                                                  .build/obj_PanasonicBusinessPartner286_default/quantum/main.o
keyboard_task                                     .build/obj_PanasonicBusinessPartner286_default/quantum/keyboard.o
                                                  .build/obj_PanasonicBusinessPartner286_default/quantum/main.o
keycode_config                                    .build/obj_PanasonicBusinessPartner286_default/quantum/keycode_config.o
                                                  .build/obj_PanasonicBusinessPartner286_default/quantum/keymap_common.o
keymap_config                                     .build/obj_PanasonicBusinessPartner286_default/quantum/bootmagic/magic.o
                                                  .build/obj_PanasonicBusinessPartner286_default/lufa.o
                                                  .build/obj_PanasonicBusinessPartner286_default/protocol/report.o
                                                  .build/obj_PanasonicBusinessPartner286_default/protocol/host.o
                                                  .build/obj_PanasonicBusinessPartner286_default/quantum/process_keycode/process_magic.o
                                                  .build/obj_PanasonicBusinessPartner286_default/quantum/keycode_config.o
                                                  .build/obj_PanasonicBusinessPartner286_default/quantum/keyboard.o
                                                  .build/obj_PanasonicBusinessPartner286_default/quantum/action_util.o
                                                  .build/obj_PanasonicBusinessPartner286_default/quantum/action.o
keymap_key_to_keycode                             .build/obj_PanasonicBusinessPartner286_default/quantum/keymap_common.o
                                                  .build/obj_PanasonicBusinessPartner286_default/quantum/quantum.o
keymaps                                           .build/obj_PanasonicBusinessPartner286_default/keyboards/PanasonicBusinessPartner286/keymaps/default/keymap.o
                                                  .build/obj_PanasonicBusinessPartner286_default/quantum/keymap_common.o
last_encoder_activity_elapsed                     .build/obj_PanasonicBusinessPartner286_default/quantum/keyboard.o
last_encoder_activity_time                        .build/obj_PanasonicBusinessPartner286_default/quantum/keyboard.o
last_encoder_activity_trigger                     .build/obj_PanasonicBusinessPartner286_default/quantum/keyboard.o
last_input_activity_elapsed                       .build/obj_PanasonicBusinessPartner286_default/quantum/keyboard.o
last_input_activity_time                          .build/obj_PanasonicBusinessPartner286_default/quantum/keyboard.o
last_matrix_activity_elapsed                      .build/obj_PanasonicBusinessPartner286_default/quantum/keyboard.o
last_matrix_activity_time                         .build/obj_PanasonicBusinessPartner286_default/quantum/keyboard.o
last_matrix_activity_trigger                      .build/obj_PanasonicBusinessPartner286_default/quantum/keyboard.o
layer_and                                         .build/obj_PanasonicBusinessPartner286_default/quantum/action_layer.o
                                                  .build/obj_PanasonicBusinessPartner286_default/quantum/action.o
layer_clear                                       .build/obj_PanasonicBusinessPartner286_default/quantum/action_layer.o
                                                  .build/obj_PanasonicBusinessPartner286_default/quantum/action.o
layer_debug                                       .build/obj_PanasonicBusinessPartner286_default/quantum/action_layer.o
                                                  .build/obj_PanasonicBusinessPartner286_default/quantum/action.o
layer_invert                                      .build/obj_PanasonicBusinessPartner286_default/quantum/action_layer.o
                                                  .build/obj_PanasonicBusinessPartner286_default/quantum/action.o
layer_move                                        .build/obj_PanasonicBusinessPartner286_default/quantum/action_layer.o
                                                  .build/obj_PanasonicBusinessPartner286_default/quantum/action.o
layer_off                                         .build/obj_PanasonicBusinessPartner286_default/quantum/action_layer.o
                                                  .build/obj_PanasonicBusinessPartner286_default/quantum/action_util.o
                                                  .build/obj_PanasonicBusinessPartner286_default/quantum/action.o
layer_on                                          .build/obj_PanasonicBusinessPartner286_default/quantum/action_layer.o
                                                  .build/obj_PanasonicBusinessPartner286_default/quantum/action_util.o
                                                  .build/obj_PanasonicBusinessPartner286_default/quantum/action.o
layer_or                                          .build/obj_PanasonicBusinessPartner286_default/quantum/action_layer.o
                                                  .build/obj_PanasonicBusinessPartner286_default/quantum/action.o
layer_state                                       .build/obj_PanasonicBusinessPartner286_default/quantum/action_layer.o
                                                  .build/obj_PanasonicBusinessPartner286_default/quantum/bootmagic/magic.o
                                                  .build/obj_PanasonicBusinessPartner286_default/quantum/quantum.o
layer_state_cmp                                   .build/obj_PanasonicBusinessPartner286_default/quantum/action_layer.o
layer_state_is                                    .build/obj_PanasonicBusinessPartner286_default/quantum/action_layer.o
layer_state_set                                   .build/obj_PanasonicBusinessPartner286_default/quantum/action_layer.o
                                                  .build/obj_PanasonicBusinessPartner286_default/quantum/action.o
                                                  .build/obj_PanasonicBusinessPartner286_default/quantum/quantum.o
layer_state_set_kb                                .build/obj_PanasonicBusinessPartner286_default/quantum/action_layer.o
                                                  .build/obj_PanasonicBusinessPartner286_default/quantum/bootmagic/magic.o
layer_state_set_user                              .build/obj_PanasonicBusinessPartner286_default/quantum/action_layer.o
layer_switch_get_action                           .build/obj_PanasonicBusinessPartner286_default/quantum/action_layer.o
                                                  .build/obj_PanasonicBusinessPartner286_default/quantum/action_tapping.o
                                                  .build/obj_PanasonicBusinessPartner286_default/quantum/action.o
layer_switch_get_layer                            .build/obj_PanasonicBusinessPartner286_default/quantum/action_layer.o
                                                  .build/obj_PanasonicBusinessPartner286_default/quantum/quantum.o
layer_xor                                         .build/obj_PanasonicBusinessPartner286_default/quantum/action_layer.o
                                                  .build/obj_PanasonicBusinessPartner286_default/quantum/action.o
led_init_ports                                    .build/obj_PanasonicBusinessPartner286_default/quantum/led.o
                                                  .build/obj_PanasonicBusinessPartner286_default/quantum/keyboard.o
led_set                                           .build/obj_PanasonicBusinessPartner286_default/quantum/led.o
                                                  .build/obj_PanasonicBusinessPartner286_default/quantum/action.o
led_set_kb                                        .build/obj_PanasonicBusinessPartner286_default/quantum/led.o
led_set_user                                      .build/obj_PanasonicBusinessPartner286_default/quantum/led.o
led_suspend                                       .build/obj_PanasonicBusinessPartner286_default/quantum/led.o
                                                  .build/obj_PanasonicBusinessPartner286_default/quantum/quantum.o
led_task                                          .build/obj_PanasonicBusinessPartner286_default/quantum/led.o
                                                  .build/obj_PanasonicBusinessPartner286_default/quantum/keyboard.o
led_update_kb                                     .build/obj_PanasonicBusinessPartner286_default/keyboards/PanasonicBusinessPartner286/keymaps/default/keymap.o
led_update_user                                   .build/obj_PanasonicBusinessPartner286_default/quantum/led.o
                                                  .build/obj_PanasonicBusinessPartner286_default/keyboards/PanasonicBusinessPartner286/keymaps/default/keymap.o
led_wakeup                                        .build/obj_PanasonicBusinessPartner286_default/quantum/led.o
                                                  .build/obj_PanasonicBusinessPartner286_default/quantum/quantum.o
lufa_driver                                       .build/obj_PanasonicBusinessPartner286_default/lufa.o
magic                                             .build/obj_PanasonicBusinessPartner286_default/quantum/bootmagic/magic.o
                                                  .build/obj_PanasonicBusinessPartner286_default/quantum/keyboard.o
main                                              .build/obj_PanasonicBusinessPartner286_default/quantum/main.o
                                                  /usr/lib/gcc/avr/8.3.0/../../../../avr/lib/avr51/crtat90usb1286.o
matrix                                            .build/obj_PanasonicBusinessPartner286_default/quantum/matrix_common.o
                                                  .build/obj_PanasonicBusinessPartner286_default/quantum/matrix.o
matrix_cols                                       .build/obj_PanasonicBusinessPartner286_default/quantum/matrix_common.o
matrix_get_row                                    .build/obj_PanasonicBusinessPartner286_default/quantum/matrix_common.o
                                                  .build/obj_PanasonicBusinessPartner286_default/platforms/suspend.o
                                                  .build/obj_PanasonicBusinessPartner286_default/quantum/bootmagic/bootmagic_lite.o
                                                  .build/obj_PanasonicBusinessPartner286_default/quantum/keyboard.o
matrix_init                                       .build/obj_PanasonicBusinessPartner286_default/quantum/matrix.o
                                                  .build/obj_PanasonicBusinessPartner286_default/quantum/matrix_common.o
                                                  .build/obj_PanasonicBusinessPartner286_default/quantum/keyboard.o
matrix_init_custom                                .build/obj_PanasonicBusinessPartner286_default/quantum/matrix_common.o
matrix_init_kb                                    .build/obj_PanasonicBusinessPartner286_default/quantum/matrix_common.o
                                                  .build/obj_PanasonicBusinessPartner286_default/quantum/quantum.o
matrix_init_pins                                  .build/obj_PanasonicBusinessPartner286_default/quantum/matrix.o
matrix_init_quantum                               .build/obj_PanasonicBusinessPartner286_default/quantum/quantum.o
                                                  .build/obj_PanasonicBusinessPartner286_default/quantum/matrix.o
                                                  .build/obj_PanasonicBusinessPartner286_default/quantum/matrix_common.o
matrix_init_user                                  .build/obj_PanasonicBusinessPartner286_default/keyboards/PanasonicBusinessPartner286/keymaps/default/keymap.o
matrix_io_delay                                   .build/obj_PanasonicBusinessPartner286_default/quantum/matrix_common.o
matrix_is_on                                      .build/obj_PanasonicBusinessPartner286_default/quantum/matrix_common.o
matrix_key_count                                  .build/obj_PanasonicBusinessPartner286_default/quantum/matrix_common.o
matrix_output_select_delay                        .build/obj_PanasonicBusinessPartner286_default/quantum/matrix_common.o
                                                  .build/obj_PanasonicBusinessPartner286_default/quantum/matrix.o
matrix_output_unselect_delay                      .build/obj_PanasonicBusinessPartner286_default/quantum/matrix_common.o
                                                  .build/obj_PanasonicBusinessPartner286_default/quantum/matrix.o
matrix_power_down                                 .build/obj_PanasonicBusinessPartner286_default/platforms/suspend.o
matrix_power_up                                   .build/obj_PanasonicBusinessPartner286_default/platforms/suspend.o
matrix_print                                      .build/obj_PanasonicBusinessPartner286_default/quantum/matrix_common.o
                                                  .build/obj_PanasonicBusinessPartner286_default/quantum/keyboard.o
matrix_read_rows_on_col                           .build/obj_PanasonicBusinessPartner286_default/quantum/matrix.o
matrix_rows                                       .build/obj_PanasonicBusinessPartner286_default/quantum/matrix_common.o
matrix_scan                                       .build/obj_PanasonicBusinessPartner286_default/quantum/matrix.o
                                                  .build/obj_PanasonicBusinessPartner286_default/quantum/matrix_common.o
                                                  .build/obj_PanasonicBusinessPartner286_default/platforms/suspend.o
                                                  .build/obj_PanasonicBusinessPartner286_default/quantum/bootmagic/bootmagic_lite.o
                                                  .build/obj_PanasonicBusinessPartner286_default/quantum/keyboard.o
matrix_scan_custom                                .build/obj_PanasonicBusinessPartner286_default/quantum/matrix_common.o
matrix_scan_kb                                    .build/obj_PanasonicBusinessPartner286_default/quantum/matrix_common.o
                                                  .build/obj_PanasonicBusinessPartner286_default/quantum/quantum.o
matrix_scan_quantum                               .build/obj_PanasonicBusinessPartner286_default/quantum/quantum.o
                                                  .build/obj_PanasonicBusinessPartner286_default/quantum/matrix.o
                                                  .build/obj_PanasonicBusinessPartner286_default/quantum/matrix_common.o
matrix_scan_task                                  .build/obj_PanasonicBusinessPartner286_default/quantum/keyboard.o
matrix_scan_user                                  .build/obj_PanasonicBusinessPartner286_default/quantum/matrix_common.o
matrix_setup                                      .build/obj_PanasonicBusinessPartner286_default/quantum/keyboard.o
memcmp                                            /usr/lib/gcc/avr/8.3.0/../../../../avr/lib/avr51/libc.a(memcmp.o)
                                                  .build/obj_PanasonicBusinessPartner286_default/quantum/matrix.o
                                                  .build/obj_PanasonicBusinessPartner286_default/quantum/action_util.o
mk_delay                                          .build/obj_PanasonicBusinessPartner286_default/quantum/mousekey.o
mk_interval                                       .build/obj_PanasonicBusinessPartner286_default/quantum/mousekey.o
mk_max_speed                                      .build/obj_PanasonicBusinessPartner286_default/quantum/mousekey.o
mk_time_to_max                                    .build/obj_PanasonicBusinessPartner286_default/quantum/mousekey.o
mk_wheel_delay                                    .build/obj_PanasonicBusinessPartner286_default/quantum/mousekey.o
mk_wheel_interval                                 .build/obj_PanasonicBusinessPartner286_default/quantum/mousekey.o
mk_wheel_max_speed                                .build/obj_PanasonicBusinessPartner286_default/quantum/mousekey.o
mk_wheel_time_to_max                              .build/obj_PanasonicBusinessPartner286_default/quantum/mousekey.o
mod_config                                        .build/obj_PanasonicBusinessPartner286_default/quantum/keycode_config.o
                                                  .build/obj_PanasonicBusinessPartner286_default/quantum/keymap_common.o
mousekey_clear                                    .build/obj_PanasonicBusinessPartner286_default/quantum/mousekey.o
                                                  .build/obj_PanasonicBusinessPartner286_default/quantum/action.o
mousekey_get_report                               .build/obj_PanasonicBusinessPartner286_default/quantum/mousekey.o
mousekey_off                                      .build/obj_PanasonicBusinessPartner286_default/quantum/mousekey.o
                                                  .build/obj_PanasonicBusinessPartner286_default/quantum/action.o
mousekey_on                                       .build/obj_PanasonicBusinessPartner286_default/quantum/mousekey.o
                                                  .build/obj_PanasonicBusinessPartner286_default/quantum/action.o
mousekey_send                                     .build/obj_PanasonicBusinessPartner286_default/quantum/mousekey.o
                                                  .build/obj_PanasonicBusinessPartner286_default/quantum/action.o
mousekey_task                                     .build/obj_PanasonicBusinessPartner286_default/quantum/mousekey.o
                                                  .build/obj_PanasonicBusinessPartner286_default/quantum/keyboard.o
notify_usb_device_state_change_kb                 .build/obj_PanasonicBusinessPartner286_default/protocol/usb_device_state.o
notify_usb_device_state_change_user               .build/obj_PanasonicBusinessPartner286_default/protocol/usb_device_state.o
oneshot_disable                                   .build/obj_PanasonicBusinessPartner286_default/quantum/action_util.o
                                                  .build/obj_PanasonicBusinessPartner286_default/quantum/quantum.o
oneshot_enable                                    .build/obj_PanasonicBusinessPartner286_default/quantum/action_util.o
                                                  .build/obj_PanasonicBusinessPartner286_default/quantum/quantum.o
oneshot_layer_changed_kb                          .build/obj_PanasonicBusinessPartner286_default/quantum/action_util.o
oneshot_layer_changed_user                        .build/obj_PanasonicBusinessPartner286_default/quantum/action_util.o
oneshot_locked_mods_changed_kb                    .build/obj_PanasonicBusinessPartner286_default/quantum/action_util.o
oneshot_locked_mods_changed_user                  .build/obj_PanasonicBusinessPartner286_default/quantum/action_util.o
oneshot_mods_changed_kb                           .build/obj_PanasonicBusinessPartner286_default/quantum/action_util.o
oneshot_mods_changed_user                         .build/obj_PanasonicBusinessPartner286_default/quantum/action_util.o
oneshot_set                                       .build/obj_PanasonicBusinessPartner286_default/quantum/action_util.o
oneshot_toggle                                    .build/obj_PanasonicBusinessPartner286_default/quantum/action_util.o
                                                  .build/obj_PanasonicBusinessPartner286_default/quantum/quantum.o
peek_matrix                                       .build/obj_PanasonicBusinessPartner286_default/quantum/matrix_common.o
perform_space_cadet                               .build/obj_PanasonicBusinessPartner286_default/quantum/process_keycode/process_space_cadet.o
platform_setup                                    .build/obj_PanasonicBusinessPartner286_default/platforms/avr/platform.o
                                                  .build/obj_PanasonicBusinessPartner286_default/quantum/main.o
post_process_record_kb                            .build/obj_PanasonicBusinessPartner286_default/quantum/quantum.o
post_process_record_quantum                       .build/obj_PanasonicBusinessPartner286_default/quantum/quantum.o
post_process_record_user                          .build/obj_PanasonicBusinessPartner286_default/quantum/quantum.o
pre_process_record_quantum                        .build/obj_PanasonicBusinessPartner286_default/quantum/quantum.o
print_set_sendchar                                .build/obj_PanasonicBusinessPartner286_default/platforms/avr/printf.o
                                                  .build/obj_PanasonicBusinessPartner286_default/quantum/keyboard.o
process_action                                    .build/obj_PanasonicBusinessPartner286_default/quantum/action.o
process_action_kb                                 .build/obj_PanasonicBusinessPartner286_default/quantum/quantum.o
process_grave_esc                                 .build/obj_PanasonicBusinessPartner286_default/quantum/process_keycode/process_grave_esc.o
                                                  .build/obj_PanasonicBusinessPartner286_default/quantum/quantum.o
process_magic                                     .build/obj_PanasonicBusinessPartner286_default/quantum/process_keycode/process_magic.o
                                                  .build/obj_PanasonicBusinessPartner286_default/quantum/quantum.o
process_record                                    .build/obj_PanasonicBusinessPartner286_default/quantum/action.o
                                                  .build/obj_PanasonicBusinessPartner286_default/quantum/action_tapping.o
process_record_handler                            .build/obj_PanasonicBusinessPartner286_default/quantum/action.o
process_record_kb                                 .build/obj_PanasonicBusinessPartner286_default/quantum/quantum.o
process_record_nocache                            .build/obj_PanasonicBusinessPartner286_default/quantum/action.o
process_record_quantum                            .build/obj_PanasonicBusinessPartner286_default/quantum/quantum.o
process_record_tap_hint                           .build/obj_PanasonicBusinessPartner286_default/quantum/action.o
                                                  .build/obj_PanasonicBusinessPartner286_default/quantum/action_tapping.o
process_record_user                               .build/obj_PanasonicBusinessPartner286_default/quantum/quantum.o
process_space_cadet                               .build/obj_PanasonicBusinessPartner286_default/quantum/process_keycode/process_space_cadet.o
                                                  .build/obj_PanasonicBusinessPartner286_default/quantum/quantum.o
protocol_init                                     .build/obj_PanasonicBusinessPartner286_default/quantum/main.o
protocol_post_init                                .build/obj_PanasonicBusinessPartner286_default/lufa.o
                                                  .build/obj_PanasonicBusinessPartner286_default/quantum/main.o
protocol_post_task                                .build/obj_PanasonicBusinessPartner286_default/lufa.o
                                                  .build/obj_PanasonicBusinessPartner286_default/quantum/main.o
protocol_pre_init                                 .build/obj_PanasonicBusinessPartner286_default/lufa.o
                                                  .build/obj_PanasonicBusinessPartner286_default/quantum/main.o
protocol_pre_task                                 .build/obj_PanasonicBusinessPartner286_default/lufa.o
                                                  .build/obj_PanasonicBusinessPartner286_default/quantum/main.o
protocol_setup                                    .build/obj_PanasonicBusinessPartner286_default/lufa.o
                                                  .build/obj_PanasonicBusinessPartner286_default/quantum/main.o
protocol_task                                     .build/obj_PanasonicBusinessPartner286_default/quantum/main.o
quantum_init                                      .build/obj_PanasonicBusinessPartner286_default/quantum/keyboard.o
quantum_task                                      .build/obj_PanasonicBusinessPartner286_default/quantum/keyboard.o
rand                                              /usr/lib/gcc/avr/8.3.0/../../../../avr/lib/avr51/libc.a(rand.o)
                                                  .build/obj_PanasonicBusinessPartner286_default/quantum/send_string.o
rand_r                                            /usr/lib/gcc/avr/8.3.0/../../../../avr/lib/avr51/libc.a(rand.o)
raw_matrix                                        .build/obj_PanasonicBusinessPartner286_default/quantum/matrix_common.o
                                                  .build/obj_PanasonicBusinessPartner286_default/quantum/matrix.o
read_source_layers_cache                          .build/obj_PanasonicBusinessPartner286_default/quantum/action_layer.o
                                                  .build/obj_PanasonicBusinessPartner286_default/quantum/quantum.o
register_code                                     .build/obj_PanasonicBusinessPartner286_default/quantum/action.o
                                                  .build/obj_PanasonicBusinessPartner286_default/quantum/send_string.o
                                                  .build/obj_PanasonicBusinessPartner286_default/quantum/quantum.o
register_code16                                   .build/obj_PanasonicBusinessPartner286_default/quantum/quantum.o
register_mods                                     .build/obj_PanasonicBusinessPartner286_default/quantum/action.o
                                                  .build/obj_PanasonicBusinessPartner286_default/quantum/process_keycode/process_space_cadet.o
                                                  .build/obj_PanasonicBusinessPartner286_default/quantum/quantum.o
register_weak_mods                                .build/obj_PanasonicBusinessPartner286_default/quantum/action.o
                                                  .build/obj_PanasonicBusinessPartner286_default/quantum/quantum.o
reset_keyboard                                    .build/obj_PanasonicBusinessPartner286_default/quantum/quantum.o
reset_oneshot_layer                               .build/obj_PanasonicBusinessPartner286_default/quantum/action_util.o
send_byte                                         .build/obj_PanasonicBusinessPartner286_default/quantum/send_string.o
send_char                                         .build/obj_PanasonicBusinessPartner286_default/quantum/send_string.o
send_digitizer                                    .build/obj_PanasonicBusinessPartner286_default/lufa.o
                                                  .build/obj_PanasonicBusinessPartner286_default/protocol/host.o
send_dword                                        .build/obj_PanasonicBusinessPartner286_default/quantum/send_string.o
send_keyboard_report                              .build/obj_PanasonicBusinessPartner286_default/quantum/action_util.o
                                                  .build/obj_PanasonicBusinessPartner286_default/quantum/process_keycode/process_grave_esc.o
                                                  .build/obj_PanasonicBusinessPartner286_default/quantum/action.o
send_nibble                                       .build/obj_PanasonicBusinessPartner286_default/quantum/send_string.o
send_string                                       .build/obj_PanasonicBusinessPartner286_default/quantum/send_string.o
send_string_P                                     .build/obj_PanasonicBusinessPartner286_default/quantum/send_string.o
send_string_with_delay                            .build/obj_PanasonicBusinessPartner286_default/quantum/send_string.o
send_string_with_delay_P                          .build/obj_PanasonicBusinessPartner286_default/quantum/send_string.o
send_word                                         .build/obj_PanasonicBusinessPartner286_default/quantum/send_string.o
sendchar                                          .build/obj_PanasonicBusinessPartner286_default/quantum/logging/sendchar.o
                                                  .build/obj_PanasonicBusinessPartner286_default/quantum/keyboard.o
set_mods                                          .build/obj_PanasonicBusinessPartner286_default/quantum/action_util.o
set_oneshot_layer                                 .build/obj_PanasonicBusinessPartner286_default/quantum/action_util.o
                                                  .build/obj_PanasonicBusinessPartner286_default/quantum/action.o
set_oneshot_locked_mods                           .build/obj_PanasonicBusinessPartner286_default/quantum/action_util.o
set_oneshot_mods                                  .build/obj_PanasonicBusinessPartner286_default/quantum/action_util.o
                                                  .build/obj_PanasonicBusinessPartner286_default/quantum/action.o
set_single_persistent_default_layer               .build/obj_PanasonicBusinessPartner286_default/quantum/quantum.o
set_weak_mods                                     .build/obj_PanasonicBusinessPartner286_default/quantum/action_util.o
should_process_keypress                           .build/obj_PanasonicBusinessPartner286_default/quantum/keyboard.o
shutdown_user                                     .build/obj_PanasonicBusinessPartner286_default/quantum/quantum.o
source_layers_cache                               .build/obj_PanasonicBusinessPartner286_default/quantum/action_layer.o
srand                                             /usr/lib/gcc/avr/8.3.0/../../../../avr/lib/avr51/libc.a(rand.o)
startup_user                                      .build/obj_PanasonicBusinessPartner286_default/quantum/quantum.o
store_or_get_action                               .build/obj_PanasonicBusinessPartner286_default/quantum/action_layer.o
                                                  .build/obj_PanasonicBusinessPartner286_default/quantum/action.o
suspend_power_down                                .build/obj_PanasonicBusinessPartner286_default/platforms/avr/suspend.o
                                                  .build/obj_PanasonicBusinessPartner286_default/lufa.o
suspend_power_down_kb                             .build/obj_PanasonicBusinessPartner286_default/platforms/suspend.o
                                                  .build/obj_PanasonicBusinessPartner286_default/quantum/quantum.o
suspend_power_down_quantum                        .build/obj_PanasonicBusinessPartner286_default/quantum/quantum.o
                                                  .build/obj_PanasonicBusinessPartner286_default/platforms/avr/suspend.o
suspend_power_down_user                           .build/obj_PanasonicBusinessPartner286_default/platforms/suspend.o
suspend_wakeup_condition                          .build/obj_PanasonicBusinessPartner286_default/platforms/suspend.o
                                                  .build/obj_PanasonicBusinessPartner286_default/lufa.o
suspend_wakeup_init                               .build/obj_PanasonicBusinessPartner286_default/platforms/avr/suspend.o
                                                  .build/obj_PanasonicBusinessPartner286_default/lufa.o
suspend_wakeup_init_kb                            .build/obj_PanasonicBusinessPartner286_default/platforms/suspend.o
                                                  .build/obj_PanasonicBusinessPartner286_default/quantum/quantum.o
suspend_wakeup_init_quantum                       .build/obj_PanasonicBusinessPartner286_default/quantum/quantum.o
                                                  .build/obj_PanasonicBusinessPartner286_default/platforms/avr/suspend.o
suspend_wakeup_init_user                          .build/obj_PanasonicBusinessPartner286_default/platforms/suspend.o
switch_events                                     .build/obj_PanasonicBusinessPartner286_default/quantum/keyboard.o
tap_code                                          .build/obj_PanasonicBusinessPartner286_default/quantum/action.o
                                                  .build/obj_PanasonicBusinessPartner286_default/quantum/process_keycode/process_space_cadet.o
                                                  .build/obj_PanasonicBusinessPartner286_default/quantum/send_string.o
tap_code16                                        .build/obj_PanasonicBusinessPartner286_default/quantum/quantum.o
tap_code_delay                                    .build/obj_PanasonicBusinessPartner286_default/quantum/action.o
tap_random_base64                                 .build/obj_PanasonicBusinessPartner286_default/quantum/send_string.o
timer_clear                                       .build/obj_PanasonicBusinessPartner286_default/platforms/avr/timer.o
timer_count                                       .build/obj_PanasonicBusinessPartner286_default/platforms/avr/timer.o
                                                  .build/obj_PanasonicBusinessPartner286_default/platforms/avr/suspend.o
timer_elapsed                                     .build/obj_PanasonicBusinessPartner286_default/platforms/avr/timer.o
                                                  .build/obj_PanasonicBusinessPartner286_default/quantum/process_keycode/process_space_cadet.o
                                                  .build/obj_PanasonicBusinessPartner286_default/quantum/mousekey.o
                                                  .build/obj_PanasonicBusinessPartner286_default/quantum/debounce/sym_defer_g.o
timer_elapsed32                                   .build/obj_PanasonicBusinessPartner286_default/platforms/avr/timer.o
                                                  .build/obj_PanasonicBusinessPartner286_default/quantum/keyboard.o
timer_init                                        .build/obj_PanasonicBusinessPartner286_default/platforms/avr/timer.o
                                                  .build/obj_PanasonicBusinessPartner286_default/quantum/keyboard.o
timer_read                                        .build/obj_PanasonicBusinessPartner286_default/platforms/avr/timer.o
                                                  .build/obj_PanasonicBusinessPartner286_default/quantum/process_keycode/process_space_cadet.o
                                                  .build/obj_PanasonicBusinessPartner286_default/quantum/mousekey.o
                                                  .build/obj_PanasonicBusinessPartner286_default/quantum/debounce/sym_defer_g.o
                                                  .build/obj_PanasonicBusinessPartner286_default/quantum/keyboard.o
timer_read32                                      .build/obj_PanasonicBusinessPartner286_default/platforms/avr/timer.o
                                                  .build/obj_PanasonicBusinessPartner286_default/quantum/keyboard.o
tp_buttons                                        .build/obj_PanasonicBusinessPartner286_default/quantum/action.o
unregister_code                                   .build/obj_PanasonicBusinessPartner286_default/quantum/action.o
                                                  .build/obj_PanasonicBusinessPartner286_default/quantum/send_string.o
                                                  .build/obj_PanasonicBusinessPartner286_default/quantum/quantum.o
unregister_code16                                 .build/obj_PanasonicBusinessPartner286_default/quantum/quantum.o
unregister_mods                                   .build/obj_PanasonicBusinessPartner286_default/quantum/action.o
                                                  .build/obj_PanasonicBusinessPartner286_default/quantum/process_keycode/process_space_cadet.o
                                                  .build/obj_PanasonicBusinessPartner286_default/quantum/quantum.o
unregister_weak_mods                              .build/obj_PanasonicBusinessPartner286_default/quantum/action.o
                                                  .build/obj_PanasonicBusinessPartner286_default/quantum/quantum.o
update_source_layers_cache                        .build/obj_PanasonicBusinessPartner286_default/quantum/action_layer.o
                                                  .build/obj_PanasonicBusinessPartner286_default/quantum/quantum.o
update_tri_layer                                  .build/obj_PanasonicBusinessPartner286_default/quantum/quantum.o
update_tri_layer_state                            .build/obj_PanasonicBusinessPartner286_default/quantum/quantum.o
usb_connected_state                               .build/obj_PanasonicBusinessPartner286_default/protocol/lufa/usb_util.o
                                                  .build/obj_PanasonicBusinessPartner286_default/protocol/usb_util.o
usb_device_state                                  .build/obj_PanasonicBusinessPartner286_default/protocol/usb_device_state.o
usb_device_state_init                             .build/obj_PanasonicBusinessPartner286_default/protocol/usb_device_state.o
                                                  .build/obj_PanasonicBusinessPartner286_default/lufa.o
usb_device_state_set_configuration                .build/obj_PanasonicBusinessPartner286_default/protocol/usb_device_state.o
                                                  .build/obj_PanasonicBusinessPartner286_default/lufa.o
usb_device_state_set_reset                        .build/obj_PanasonicBusinessPartner286_default/protocol/usb_device_state.o
                                                  .build/obj_PanasonicBusinessPartner286_default/lufa.o
usb_device_state_set_resume                       .build/obj_PanasonicBusinessPartner286_default/protocol/usb_device_state.o
                                                  .build/obj_PanasonicBusinessPartner286_default/lufa.o
usb_device_state_set_suspend                      .build/obj_PanasonicBusinessPartner286_default/protocol/usb_device_state.o
                                                  .build/obj_PanasonicBusinessPartner286_default/lufa.o
usb_disconnect                                    .build/obj_PanasonicBusinessPartner286_default/protocol/lufa/usb_util.o
                                                  .build/obj_PanasonicBusinessPartner286_default/protocol/usb_util.o
usb_vbus_state                                    .build/obj_PanasonicBusinessPartner286_default/protocol/lufa/usb_util.o
                                                  .build/obj_PanasonicBusinessPartner286_default/protocol/usb_util.o
xfunc_out                                         .build/obj_PanasonicBusinessPartner286_default/platforms/avr/xprintf.o
                                                  .build/obj_PanasonicBusinessPartner286_default/platforms/avr/printf.o
xitoa                                             .build/obj_PanasonicBusinessPartner286_default/platforms/avr/xprintf.o
xputc                                             .build/obj_PanasonicBusinessPartner286_default/platforms/avr/xprintf.o
xputs                                             .build/obj_PanasonicBusinessPartner286_default/platforms/avr/xprintf.o
