Archive member included to satisfy reference by file (symbol)

/usr/lib/gcc/avr/12.1.0/avr5/libgcc.a(_exit.o)
                              /usr/lib/gcc/avr/12.1.0/../../../../avr/lib/avr5/crtatmega32u4.o (exit)
/usr/lib/gcc/avr/12.1.0/avr5/libgcc.a(_tablejump2.o)
                              usb/usb.o (__tablejump2__)
/usr/lib/gcc/avr/12.1.0/avr5/libgcc.a(_copy_data.o)
                              usb/usb.o (__do_copy_data)
/usr/lib/gcc/avr/12.1.0/avr5/libgcc.a(_clear_bss.o)
                              usb/usb.o (__do_clear_bss)

Discarded input sections

 .data          0x0000000000000000        0x0 /usr/lib/gcc/avr/12.1.0/../../../../avr/lib/avr5/crtatmega32u4.o
 .bss           0x0000000000000000        0x0 /usr/lib/gcc/avr/12.1.0/../../../../avr/lib/avr5/crtatmega32u4.o
 .data          0x0000000000000000        0x0 usb/usb.o
 .bss           0x0000000000000000        0x0 usb/usb.o
 .text          0x0000000000000000      0x29c drivers/twi/twi.o
 .data          0x0000000000000000        0x0 drivers/twi/twi.o
 .bss           0x0000000000000000        0x0 drivers/twi/twi.o
 .bss.twi_buffer
                0x0000000000000000        0xa drivers/twi/twi.o
 .bss.twi_buffer_index
                0x0000000000000000        0x1 drivers/twi/twi.o
 .bss.twi_failed
                0x0000000000000000        0x1 drivers/twi/twi.o
 .data.twi_status
                0x0000000000000000        0x1 drivers/twi/twi.o
 .comment       0x0000000000000000       0x13 drivers/twi/twi.o
 .data          0x0000000000000000        0x0 keyboards/converter/PC8801-Compact/keyboard.o
 .bss           0x0000000000000000        0x0 keyboards/converter/PC8801-Compact/keyboard.o
 .text          0x0000000000000000        0x0 kbd/kbd.o
 .data          0x0000000000000000        0x0 kbd/kbd.o
 .bss           0x0000000000000000        0x0 kbd/kbd.o
 .data          0x0000000000000000        0x0 kbd/matrix.o
 .bss           0x0000000000000000        0x0 kbd/matrix.o
 .data          0x0000000000000000        0x0 kbd/user.o
 .bss           0x0000000000000000        0x0 kbd/user.o
 .data          0x0000000000000000        0x0 promicro/pinlogic.o
 .bss           0x0000000000000000        0x0 promicro/pinlogic.o
 .data          0x0000000000000000        0x0 promicro/promicro.o
 .bss           0x0000000000000000        0x0 promicro/promicro.o
 .data          0x0000000000000000        0x0 drivers/demux/SN74159N.o
 .bss           0x0000000000000000        0x0 drivers/demux/SN74159N.o
 .text          0x0000000000000000        0x0 /usr/lib/gcc/avr/12.1.0/avr5/libgcc.a(_exit.o)
 .data          0x0000000000000000        0x0 /usr/lib/gcc/avr/12.1.0/avr5/libgcc.a(_exit.o)
 .bss           0x0000000000000000        0x0 /usr/lib/gcc/avr/12.1.0/avr5/libgcc.a(_exit.o)
 .text.libgcc.mul
                0x0000000000000000        0x0 /usr/lib/gcc/avr/12.1.0/avr5/libgcc.a(_exit.o)
 .text.libgcc.div
                0x0000000000000000        0x0 /usr/lib/gcc/avr/12.1.0/avr5/libgcc.a(_exit.o)
 .text.libgcc   0x0000000000000000        0x0 /usr/lib/gcc/avr/12.1.0/avr5/libgcc.a(_exit.o)
 .text.libgcc.prologue
                0x0000000000000000        0x0 /usr/lib/gcc/avr/12.1.0/avr5/libgcc.a(_exit.o)
 .text.libgcc.builtins
                0x0000000000000000        0x0 /usr/lib/gcc/avr/12.1.0/avr5/libgcc.a(_exit.o)
 .text.libgcc.fmul
                0x0000000000000000        0x0 /usr/lib/gcc/avr/12.1.0/avr5/libgcc.a(_exit.o)
 .text.libgcc.fixed
                0x0000000000000000        0x0 /usr/lib/gcc/avr/12.1.0/avr5/libgcc.a(_exit.o)
 .text          0x0000000000000000        0x0 /usr/lib/gcc/avr/12.1.0/avr5/libgcc.a(_tablejump2.o)
 .data          0x0000000000000000        0x0 /usr/lib/gcc/avr/12.1.0/avr5/libgcc.a(_tablejump2.o)
 .bss           0x0000000000000000        0x0 /usr/lib/gcc/avr/12.1.0/avr5/libgcc.a(_tablejump2.o)
 .text.libgcc.mul
                0x0000000000000000        0x0 /usr/lib/gcc/avr/12.1.0/avr5/libgcc.a(_tablejump2.o)
 .text.libgcc.div
                0x0000000000000000        0x0 /usr/lib/gcc/avr/12.1.0/avr5/libgcc.a(_tablejump2.o)
 .text.libgcc.prologue
                0x0000000000000000        0x0 /usr/lib/gcc/avr/12.1.0/avr5/libgcc.a(_tablejump2.o)
 .text.libgcc.builtins
                0x0000000000000000        0x0 /usr/lib/gcc/avr/12.1.0/avr5/libgcc.a(_tablejump2.o)
 .text.libgcc.fmul
                0x0000000000000000        0x0 /usr/lib/gcc/avr/12.1.0/avr5/libgcc.a(_tablejump2.o)
 .text.libgcc.fixed
                0x0000000000000000        0x0 /usr/lib/gcc/avr/12.1.0/avr5/libgcc.a(_tablejump2.o)
 .text          0x0000000000000000        0x0 /usr/lib/gcc/avr/12.1.0/avr5/libgcc.a(_copy_data.o)
 .data          0x0000000000000000        0x0 /usr/lib/gcc/avr/12.1.0/avr5/libgcc.a(_copy_data.o)
 .bss           0x0000000000000000        0x0 /usr/lib/gcc/avr/12.1.0/avr5/libgcc.a(_copy_data.o)
 .text.libgcc.mul
                0x0000000000000000        0x0 /usr/lib/gcc/avr/12.1.0/avr5/libgcc.a(_copy_data.o)
 .text.libgcc.div
                0x0000000000000000        0x0 /usr/lib/gcc/avr/12.1.0/avr5/libgcc.a(_copy_data.o)
 .text.libgcc   0x0000000000000000        0x0 /usr/lib/gcc/avr/12.1.0/avr5/libgcc.a(_copy_data.o)
 .text.libgcc.prologue
                0x0000000000000000        0x0 /usr/lib/gcc/avr/12.1.0/avr5/libgcc.a(_copy_data.o)
 .text.libgcc.builtins
                0x0000000000000000        0x0 /usr/lib/gcc/avr/12.1.0/avr5/libgcc.a(_copy_data.o)
 .text.libgcc.fmul
                0x0000000000000000        0x0 /usr/lib/gcc/avr/12.1.0/avr5/libgcc.a(_copy_data.o)
 .text.libgcc.fixed
                0x0000000000000000        0x0 /usr/lib/gcc/avr/12.1.0/avr5/libgcc.a(_copy_data.o)
 .text          0x0000000000000000        0x0 /usr/lib/gcc/avr/12.1.0/avr5/libgcc.a(_clear_bss.o)
 .data          0x0000000000000000        0x0 /usr/lib/gcc/avr/12.1.0/avr5/libgcc.a(_clear_bss.o)
 .bss           0x0000000000000000        0x0 /usr/lib/gcc/avr/12.1.0/avr5/libgcc.a(_clear_bss.o)
 .text.libgcc.mul
                0x0000000000000000        0x0 /usr/lib/gcc/avr/12.1.0/avr5/libgcc.a(_clear_bss.o)
 .text.libgcc.div
                0x0000000000000000        0x0 /usr/lib/gcc/avr/12.1.0/avr5/libgcc.a(_clear_bss.o)
 .text.libgcc   0x0000000000000000        0x0 /usr/lib/gcc/avr/12.1.0/avr5/libgcc.a(_clear_bss.o)
 .text.libgcc.prologue
                0x0000000000000000        0x0 /usr/lib/gcc/avr/12.1.0/avr5/libgcc.a(_clear_bss.o)
 .text.libgcc.builtins
                0x0000000000000000        0x0 /usr/lib/gcc/avr/12.1.0/avr5/libgcc.a(_clear_bss.o)
 .text.libgcc.fmul
                0x0000000000000000        0x0 /usr/lib/gcc/avr/12.1.0/avr5/libgcc.a(_clear_bss.o)
 .text.libgcc.fixed
                0x0000000000000000        0x0 /usr/lib/gcc/avr/12.1.0/avr5/libgcc.a(_clear_bss.o)

Memory Configuration

Name             Origin             Length             Attributes
text             0x0000000000000000 0x0000000000020000 xr
data             0x0000000000800060 0x000000000000ffa0 rw !x
eeprom           0x0000000000810000 0x0000000000010000 rw !x
fuse             0x0000000000820000 0x0000000000000003 rw !x
lock             0x0000000000830000 0x0000000000000400 rw !x
signature        0x0000000000840000 0x0000000000000400 rw !x
user_signatures  0x0000000000850000 0x0000000000000400 rw !x
*default*        0x0000000000000000 0xffffffffffffffff

Linker script and memory map

Address of section .data set to 0x800100
LOAD /usr/lib/gcc/avr/12.1.0/../../../../avr/lib/avr5/crtatmega32u4.o
START GROUP
LOAD /usr/lib/gcc/avr/12.1.0/../../../../avr/lib/avr5/libm.a
END GROUP
LOAD usb/usb.o
LOAD drivers/twi/twi.o
LOAD keyboards/converter/PC8801-Compact/keyboard.o
LOAD kbd/kbd.o
LOAD kbd/matrix.o
LOAD kbd/user.o
LOAD promicro/pinlogic.o
LOAD promicro/promicro.o
LOAD drivers/demux/SN74159N.o
START GROUP
LOAD /usr/lib/gcc/avr/12.1.0/avr5/libgcc.a
LOAD /usr/lib/gcc/avr/12.1.0/../../../../avr/lib/avr5/libm.a
LOAD /usr/lib/gcc/avr/12.1.0/../../../../avr/lib/avr5/libc.a
LOAD /usr/lib/gcc/avr/12.1.0/../../../../avr/lib/avr5/libatmega32u4.a
END GROUP
                0x0000000000020000                __TEXT_REGION_LENGTH__ = DEFINED (__TEXT_REGION_LENGTH__)?__TEXT_REGION_LENGTH__:0x20000
                0x000000000000ffa0                __DATA_REGION_LENGTH__ = DEFINED (__DATA_REGION_LENGTH__)?__DATA_REGION_LENGTH__:0xffa0
                0x0000000000010000                __EEPROM_REGION_LENGTH__ = DEFINED (__EEPROM_REGION_LENGTH__)?__EEPROM_REGION_LENGTH__:0x10000
                [0x0000000000000003]                __FUSE_REGION_LENGTH__ = DEFINED (__FUSE_REGION_LENGTH__)?__FUSE_REGION_LENGTH__:0x400
                0x0000000000000400                __LOCK_REGION_LENGTH__ = DEFINED (__LOCK_REGION_LENGTH__)?__LOCK_REGION_LENGTH__:0x400
                0x0000000000000400                __SIGNATURE_REGION_LENGTH__ = DEFINED (__SIGNATURE_REGION_LENGTH__)?__SIGNATURE_REGION_LENGTH__:0x400
                0x0000000000000400                __USER_SIGNATURE_REGION_LENGTH__ = DEFINED (__USER_SIGNATURE_REGION_LENGTH__)?__USER_SIGNATURE_REGION_LENGTH__:0x400

.hash
 *(.hash)

.dynsym
 *(.dynsym)

.dynstr
 *(.dynstr)

.gnu.version
 *(.gnu.version)

.gnu.version_d
 *(.gnu.version_d)

.gnu.version_r
 *(.gnu.version_r)

.rel.init
 *(.rel.init)

.rela.init
 *(.rela.init)

.rel.text
 *(.rel.text)
 *(.rel.text.*)
 *(.rel.gnu.linkonce.t*)

.rela.text
 *(.rela.text)
 *(.rela.text.*)
 *(.rela.gnu.linkonce.t*)

.rel.fini
 *(.rel.fini)

.rela.fini
 *(.rela.fini)

.rel.rodata
 *(.rel.rodata)
 *(.rel.rodata.*)
 *(.rel.gnu.linkonce.r*)

.rela.rodata
 *(.rela.rodata)
 *(.rela.rodata.*)
 *(.rela.gnu.linkonce.r*)

.rel.data
 *(.rel.data)
 *(.rel.data.*)
 *(.rel.gnu.linkonce.d*)

.rela.data
 *(.rela.data)
 *(.rela.data.*)
 *(.rela.gnu.linkonce.d*)

.rel.ctors
 *(.rel.ctors)

.rela.ctors
 *(.rela.ctors)

.rel.dtors
 *(.rel.dtors)

.rela.dtors
 *(.rela.dtors)

.rel.got
 *(.rel.got)

.rela.got
 *(.rela.got)

.rel.bss
 *(.rel.bss)

.rela.bss
 *(.rela.bss)

.rel.plt
 *(.rel.plt)

.rela.plt
 *(.rela.plt)

.text           0x0000000000000000     0x2294
 *(.vectors)
 .vectors       0x0000000000000000       0xac /usr/lib/gcc/avr/12.1.0/../../../../avr/lib/avr5/crtatmega32u4.o
                0x0000000000000000                __vectors
                0x0000000000000000                __vector_default
 *(.vectors)
 *(.progmem.gcc*)
                0x00000000000000ac                . = ALIGN (0x2)
                0x00000000000000ac                __trampolines_start = .
 *(.trampolines)
 .trampolines   0x00000000000000ac        0x0 linker stubs
 *(.trampolines*)
                0x00000000000000ac                __trampolines_end = .
 *libprintf_flt.a:*(.progmem.data)
 *libc.a:*(.progmem.data)
 *(.progmem.*)
 .progmem.data.descriptor_list
                0x00000000000000ac       0x4d usb/usb.o
 .progmem.data.string2
                0x00000000000000f9       0x26 usb/usb.o
 .progmem.data.string1
                0x000000000000011f       0x14 usb/usb.o
 .progmem.data.string0
                0x0000000000000133        0x4 usb/usb.o
 .progmem.data.config1_descriptor
                0x0000000000000137       0x54 usb/usb.o
 .progmem.data.debug_tx_hid_report_desc
                0x000000000000018b       0x15 usb/usb.o
 .progmem.data.extra_hid_report_desc
                0x00000000000001a0       0x19 usb/usb.o
 .progmem.data.keyboard_hid_report_desc
                0x00000000000001b9       0x2e usb/usb.o
 .progmem.data.device_descriptor
                0x00000000000001e7       0x12 usb/usb.o
 .progmem.data.endpoint_config_table
                0x00000000000001f9        0xa usb/usb.o
 .progmem.data.kblayer_list
                0x0000000000000203      0x153 kbd/matrix.o
                0x0000000000000203                kblayer_list
                0x0000000000000356                . = ALIGN (0x2)
 *(.lowtext)
 *(.lowtext*)
                0x0000000000000356                __ctors_start = .
 *(.ctors)
                0x0000000000000356                __ctors_end = .
                0x0000000000000356                __dtors_start = .
 *(.dtors)
                0x0000000000000356                __dtors_end = .
 SORT_BY_NAME(*)(.ctors)
 SORT_BY_NAME(*)(.dtors)
 *(.init0)
 .init0         0x0000000000000356        0x0 /usr/lib/gcc/avr/12.1.0/../../../../avr/lib/avr5/crtatmega32u4.o
                0x0000000000000356                __init
 *(.init0)
 *(.init1)
 *(.init1)
 *(.init2)
 .init2         0x0000000000000356        0xc /usr/lib/gcc/avr/12.1.0/../../../../avr/lib/avr5/crtatmega32u4.o
 *(.init2)
 *(.init3)
 *(.init3)
 *(.init4)
 .init4         0x0000000000000362       0x16 /usr/lib/gcc/avr/12.1.0/avr5/libgcc.a(_copy_data.o)
                0x0000000000000362                __do_copy_data
 .init4         0x0000000000000378       0x10 /usr/lib/gcc/avr/12.1.0/avr5/libgcc.a(_clear_bss.o)
                0x0000000000000378                __do_clear_bss
 *(.init4)
 *(.init5)
 *(.init5)
 *(.init6)
 *(.init6)
 *(.init7)
 *(.init7)
 *(.init8)
 *(.init8)
 *(.init9)
 .init9         0x0000000000000388        0x8 /usr/lib/gcc/avr/12.1.0/../../../../avr/lib/avr5/crtatmega32u4.o
 *(.init9)
 *(.text)
 .text          0x0000000000000390        0x4 /usr/lib/gcc/avr/12.1.0/../../../../avr/lib/avr5/crtatmega32u4.o
                0x0000000000000390                __vector_38
                0x0000000000000390                __vector_22
                0x0000000000000390                __vector_28
                0x0000000000000390                __vector_1
                0x0000000000000390                __vector_32
                0x0000000000000390                __vector_34
                0x0000000000000390                __vector_24
                0x0000000000000390                __vector_12
                0x0000000000000390                __bad_interrupt
                0x0000000000000390                __vector_6
                0x0000000000000390                __vector_31
                0x0000000000000390                __vector_35
                0x0000000000000390                __vector_39
                0x0000000000000390                __vector_3
                0x0000000000000390                __vector_23
                0x0000000000000390                __vector_30
                0x0000000000000390                __vector_25
                0x0000000000000390                __vector_13
                0x0000000000000390                __vector_17
                0x0000000000000390                __vector_19
                0x0000000000000390                __vector_7
                0x0000000000000390                __vector_41
                0x0000000000000390                __vector_27
                0x0000000000000390                __vector_5
                0x0000000000000390                __vector_33
                0x0000000000000390                __vector_37
                0x0000000000000390                __vector_4
                0x0000000000000390                __vector_9
                0x0000000000000390                __vector_2
                0x0000000000000390                __vector_21
                0x0000000000000390                __vector_15
                0x0000000000000390                __vector_36
                0x0000000000000390                __vector_29
                0x0000000000000390                __vector_40
                0x0000000000000390                __vector_8
                0x0000000000000390                __vector_26
                0x0000000000000390                __vector_14
                0x0000000000000390                __vector_16
                0x0000000000000390                __vector_18
                0x0000000000000390                __vector_20
                0x0000000000000390                __vector_42
 .text          0x0000000000000394      0xe9e usb/usb.o
                0x0000000000000394                reset_sending
                0x00000000000003c0                usb_init
                0x0000000000000418                usb_configured
                0x000000000000041e                kbsend
                0x0000000000000542                kbd_press_release
                0x000000000000067a                usb_keyboard_press
                0x00000000000007d8                usb_extra_press
                0x0000000000000936                usb_extra_consumer_send
                0x00000000000009d8                prepare_send
                0x0000000000000a32                usb_keyboard_send
                0x0000000000000ac0                usb_extra_send
                0x0000000000000b36                usb_debug_putchar
                0x0000000000000bd4                usb_debug_flush_output
                0x0000000000000c08                print
                0x0000000000000c2a                __vector_10
                0x0000000000000d16                __vector_11
 .text          0x0000000000001232      0x142 keyboards/converter/PC8801-Compact/keyboard.o
                0x0000000000001232                init_pins
                0x00000000000012ea                init
                0x00000000000012f2                set
 .text          0x0000000000001374      0x6fe kbd/matrix.o
                0x0000000000001374                get_layer_key
                0x00000000000013cc                layer_select
                0x0000000000001662                press_release
                0x0000000000001790                setup_keys
                0x00000000000018ea                reset_keys
 .text          0x0000000000001a72       0xc0 kbd/user.o
                0x0000000000001a72                capslock
                0x0000000000001a8e                play_pause_media
                0x0000000000001aa8                mute
                0x0000000000001ac2                overrides
                0x0000000000001afa                reset_user
                0x0000000000001afc                functions
 .text          0x0000000000001b32      0x590 promicro/pinlogic.o
                0x0000000000001b32                set_PORTX_bit
                0x0000000000001c10                set_DDRX_bit
                0x0000000000001cee                read_PINX_bit
                0x0000000000001d6c                set_PINX_variable_output
                0x0000000000001e7e                set_PINX_output
                0x0000000000001f50                set_PINX_input
                0x0000000000002062                u4_reverse
                0x0000000000002094                u8_reverse
 .text          0x00000000000020c2       0x48 promicro/promicro.o
                0x00000000000020c2                init_inputs
                0x00000000000020f8                init_promicro
 .text          0x000000000000210a       0xe8 drivers/demux/SN74159N.o
                0x000000000000210a                scan
                0x00000000000021f2                . = ALIGN (0x2)
 *(.text.*)
 .text.startup  0x00000000000021f2       0x82 kbd/kbd.o
                0x00000000000021f2                main
 .text.libgcc   0x0000000000002274        0xc /usr/lib/gcc/avr/12.1.0/avr5/libgcc.a(_tablejump2.o)
                0x0000000000002274                __tablejump2__
                0x0000000000002280                . = ALIGN (0x2)
 *(.fini9)
 .fini9         0x0000000000002280        0x0 /usr/lib/gcc/avr/12.1.0/avr5/libgcc.a(_exit.o)
                0x0000000000002280                exit
                0x0000000000002280                _exit
 *(.fini9)
 *(.fini8)
 *(.fini8)
 *(.fini7)
 *(.fini7)
 *(.fini6)
 *(.fini6)
 *(.fini5)
 *(.fini5)
 *(.fini4)
 *(.fini4)
 *(.fini3)
 *(.fini3)
 *(.fini2)
 *(.fini2)
 *(.fini1)
 *(.fini1)
 *(.fini0)
 .fini0         0x0000000000002280        0x4 /usr/lib/gcc/avr/12.1.0/avr5/libgcc.a(_exit.o)
 *(.fini0)
 *(.hightext)
 *(.hightext*)
 *(.progmemx.*)
                0x0000000000002284                . = ALIGN (0x2)
 *(.jumptables)
 *(.jumptables*)
 .jumptables.gcc.kbd_press_release
                0x0000000000002284       0x10 usb/usb.o
                0x0000000000002294                _etext = .

.data           0x0000000000800100       0x44 load address 0x0000000000002294
                0x0000000000800100                PROVIDE (__data_start = .)
 *(.data)
 *(.data*)
 .data.keyboard_idle_config
                0x0000000000800100        0x1 usb/usb.o
 .data.keyboard_protocol
                0x0000000000800101        0x1 usb/usb.o
 .data.default_press
                0x0000000000800102        0x3 usb/usb.o
                0x0000000000800102                default_press
 .data.layer_keys
                0x0000000000800105        0xf kbd/matrix.o
                0x0000000000800105                layer_keys
 .data.layer    0x0000000000800114        0x2 kbd/matrix.o
                0x0000000000800114                layer
 .data.default_state
                0x0000000000800116        0x3 kbd/matrix.o
                0x0000000000800116                default_state
 *(.gnu.linkonce.d*)
 *(.rodata)
 *(.rodata*)
 .rodata.consumer_lookup
                0x0000000000800119        0xe usb/usb.o
                0x0000000000800119                consumer_lookup
 .rodata.input_pins
                0x0000000000800127       0x10 keyboards/converter/PC8801-Compact/keyboard.o
                0x0000000000800127                input_pins
 .rodata.demux_pins
                0x0000000000800137        0x8 keyboards/converter/PC8801-Compact/keyboard.o
                0x0000000000800137                demux_pins
 .rodata.base_layer
                0x000000000080013f        0x5 kbd/matrix.o
                0x000000000080013f                base_layer
 *(.gnu.linkonce.r*)
                0x0000000000800144                . = ALIGN (0x2)
                0x0000000000800144                _edata = .
                0x0000000000800144                PROVIDE (__data_end = .)

.bss            0x0000000000800144      0x163
                0x0000000000800144                PROVIDE (__bss_start = .)
 *(.bss)
 *(.bss*)
 .bss.div4.0    0x0000000000800144        0x1 usb/usb.o
 .bss.previous_timeout.1
                0x0000000000800145        0x1 usb/usb.o
 .bss.debug_flush_timer
                0x0000000000800146        0x1 usb/usb.o
 .bss.intr_state
                0x0000000000800147        0x1 usb/usb.o
                0x0000000000800147                intr_state
 .bss.last_consumer_key
                0x0000000000800148        0x2 usb/usb.o
                0x0000000000800148                last_consumer_key
 .bss.consumer_key
                0x000000000080014a        0x2 usb/usb.o
                0x000000000080014a                consumer_key
 .bss.keyboard_idle_count
                0x000000000080014c        0x1 usb/usb.o
 .bss.keyboard_keys
                0x000000000080014d       0xc0 usb/usb.o
                0x000000000080014d                keyboard_keys
 .bss.keyboard_modifier_keys
                0x000000000080020d        0x1 usb/usb.o
                0x000000000080020d                keyboard_modifier_keys
 .bss.usb_configuration
                0x000000000080020e        0x1 usb/usb.o
 .bss.previous_presses
                0x000000000080020f       0x70 kbd/matrix.o
                0x000000000080020f                previous_presses
 .bss.currently_pressing
                0x000000000080027f       0x18 kbd/matrix.o
                0x000000000080027f                currently_pressing
 .bss.row       0x0000000000800297        0x1 kbd/matrix.o
                0x0000000000800297                row
 .bss.ispressed
                0x0000000000800298        0x8 kbd/matrix.o
                0x0000000000800298                ispressed
 .bss.kbd       0x00000000008002a0        0x4 kbd/matrix.o
                0x00000000008002a0                kbd
 .bss.reset     0x00000000008002a4        0x1 kbd/user.o
                0x00000000008002a4                reset
 .bss.DRIVER_ROWS
                0x00000000008002a5        0x1 drivers/demux/SN74159N.o
                0x00000000008002a5                DRIVER_ROWS
 .bss.pin_state
                0x00000000008002a6        0x1 drivers/demux/SN74159N.o
 *(COMMON)
                0x00000000008002a7                PROVIDE (__bss_end = .)
                0x0000000000002294                __data_load_start = LOADADDR (.data)
                0x00000000000022d8                __data_load_end = (__data_load_start + SIZEOF (.data))

.noinit         0x00000000008002a7        0x0
                [!provide]                        PROVIDE (__noinit_start = .)
 *(.noinit .noinit.* .gnu.linkonce.n.*)
                [!provide]                        PROVIDE (__noinit_end = .)
                0x00000000008002a7                _end = .
                [!provide]                        PROVIDE (__heap_start = .)

.eeprom         0x0000000000810000        0x0
 *(.eeprom*)
                0x0000000000810000                __eeprom_end = .

.fuse
 *(.fuse)
 *(.lfuse)
 *(.hfuse)
 *(.efuse)

.lock
 *(.lock*)

.signature
 *(.signature*)

.stab
 *(.stab)

.stabstr
 *(.stabstr)

.stab.excl
 *(.stab.excl)

.stab.exclstr
 *(.stab.exclstr)

.stab.index
 *(.stab.index)

.stab.indexstr
 *(.stab.indexstr)

.comment        0x0000000000000000       0x12
 *(.comment)
 .comment       0x0000000000000000       0x12 usb/usb.o
                                         0x13 (size before relaxing)
 .comment       0x0000000000000012       0x13 keyboards/converter/PC8801-Compact/keyboard.o
 .comment       0x0000000000000012       0x13 kbd/kbd.o
 .comment       0x0000000000000012       0x13 kbd/matrix.o
 .comment       0x0000000000000012       0x13 kbd/user.o
 .comment       0x0000000000000012       0x13 promicro/pinlogic.o
 .comment       0x0000000000000012       0x13 promicro/promicro.o
 .comment       0x0000000000000012       0x13 drivers/demux/SN74159N.o

.note.gnu.avr.deviceinfo
                0x0000000000000000       0x40
 .note.gnu.avr.deviceinfo
                0x0000000000000000       0x40 /usr/lib/gcc/avr/12.1.0/../../../../avr/lib/avr5/crtatmega32u4.o

.note.gnu.build-id
 *(.note.gnu.build-id)

.debug
 *(.debug)

.line
 *(.line)

.debug_srcinfo
 *(.debug_srcinfo)

.debug_sfnames
 *(.debug_sfnames)

.debug_aranges
 *(.debug_aranges)

.debug_pubnames
 *(.debug_pubnames)

.debug_info     0x0000000000000000      0x9f4
 *(.debug_info .gnu.linkonce.wi.*)
 .debug_info    0x0000000000000000      0x9f4 /usr/lib/gcc/avr/12.1.0/../../../../avr/lib/avr5/crtatmega32u4.o

.debug_abbrev   0x0000000000000000      0x96a
 *(.debug_abbrev)
 .debug_abbrev  0x0000000000000000      0x96a /usr/lib/gcc/avr/12.1.0/../../../../avr/lib/avr5/crtatmega32u4.o

.debug_line     0x0000000000000000       0x1d
 *(.debug_line .debug_line.* .debug_line_end)
 .debug_line    0x0000000000000000       0x1d /usr/lib/gcc/avr/12.1.0/../../../../avr/lib/avr5/crtatmega32u4.o

.debug_frame
 *(.debug_frame)

.debug_str      0x0000000000000000      0x371
 *(.debug_str)
 .debug_str     0x0000000000000000      0x371 /usr/lib/gcc/avr/12.1.0/../../../../avr/lib/avr5/crtatmega32u4.o

.debug_loc
 *(.debug_loc)

.debug_macinfo
 *(.debug_macinfo)

.debug_weaknames
 *(.debug_weaknames)

.debug_funcnames
 *(.debug_funcnames)

.debug_typenames
 *(.debug_typenames)

.debug_varnames
 *(.debug_varnames)

.debug_pubtypes
 *(.debug_pubtypes)

.debug_ranges
 *(.debug_ranges)

.debug_addr
 *(.debug_addr)

.debug_line_str
 *(.debug_line_str)

.debug_loclists
 *(.debug_loclists)

.debug_macro
 *(.debug_macro)

.debug_names
 *(.debug_names)

.debug_rnglists
 *(.debug_rnglists)

.debug_str_offsets
 *(.debug_str_offsets)

.debug_sup
 *(.debug_sup)
OUTPUT(kbd.elf elf32-avr)
LOAD linker stubs
