   1               		.file	"action_tapping.c"
   2               	__SP_H__ = 0x3e
   3               	__SP_L__ = 0x3d
   4               	__SREG__ = 0x3f
   5               	__tmp_reg__ = 0
   6               	__zero_reg__ = 1
   7               		.text
   8               	.Ltext0:
   9               		.cfi_sections	.debug_frame
  10               		.file 1 "./tmk_core/common/action_tapping.c"
  11               		.section	.text.debug_waiting_buffer,"ax",@progbits
  13               	debug_waiting_buffer:
  14               	.LFB12:
   1:./tmk_core/common/action_tapping.c **** #include <stdint.h>
   2:./tmk_core/common/action_tapping.c **** #include <stdbool.h>
   3:./tmk_core/common/action_tapping.c **** #include "action.h"
   4:./tmk_core/common/action_tapping.c **** #include "action_layer.h"
   5:./tmk_core/common/action_tapping.c **** #include "action_tapping.h"
   6:./tmk_core/common/action_tapping.c **** #include "keycode.h"
   7:./tmk_core/common/action_tapping.c **** #include "timer.h"
   8:./tmk_core/common/action_tapping.c **** 
   9:./tmk_core/common/action_tapping.c **** #ifdef DEBUG_ACTION
  10:./tmk_core/common/action_tapping.c **** #include "debug.h"
  11:./tmk_core/common/action_tapping.c **** #else
  12:./tmk_core/common/action_tapping.c **** #include "nodebug.h"
  13:./tmk_core/common/action_tapping.c **** #endif
  14:./tmk_core/common/action_tapping.c **** 
  15:./tmk_core/common/action_tapping.c **** #ifndef NO_ACTION_TAPPING
  16:./tmk_core/common/action_tapping.c **** 
  17:./tmk_core/common/action_tapping.c **** #define IS_TAPPING()            !IS_NOEVENT(tapping_key.event)
  18:./tmk_core/common/action_tapping.c **** #define IS_TAPPING_PRESSED()    (IS_TAPPING() && tapping_key.event.pressed)
  19:./tmk_core/common/action_tapping.c **** #define IS_TAPPING_RELEASED()   (IS_TAPPING() && !tapping_key.event.pressed)
  20:./tmk_core/common/action_tapping.c **** #define IS_TAPPING_KEY(k)       (IS_TAPPING() && KEYEQ(tapping_key.event.key, (k)))
  21:./tmk_core/common/action_tapping.c **** #define WITHIN_TAPPING_TERM(e)  (TIMER_DIFF_16(e.time, tapping_key.event.time) < TAPPING_TERM)
  22:./tmk_core/common/action_tapping.c **** 
  23:./tmk_core/common/action_tapping.c **** 
  24:./tmk_core/common/action_tapping.c **** static keyrecord_t tapping_key = {};
  25:./tmk_core/common/action_tapping.c **** static keyrecord_t waiting_buffer[WAITING_BUFFER_SIZE] = {};
  26:./tmk_core/common/action_tapping.c **** static uint8_t waiting_buffer_head = 0;
  27:./tmk_core/common/action_tapping.c **** static uint8_t waiting_buffer_tail = 0;
  28:./tmk_core/common/action_tapping.c **** 
  29:./tmk_core/common/action_tapping.c **** static bool process_tapping(keyrecord_t *record);
  30:./tmk_core/common/action_tapping.c **** static bool waiting_buffer_enq(keyrecord_t record);
  31:./tmk_core/common/action_tapping.c **** static void waiting_buffer_clear(void);
  32:./tmk_core/common/action_tapping.c **** static bool waiting_buffer_typed(keyevent_t event);
  33:./tmk_core/common/action_tapping.c **** static bool waiting_buffer_has_anykey_pressed(void);
  34:./tmk_core/common/action_tapping.c **** static void waiting_buffer_scan_tap(void);
  35:./tmk_core/common/action_tapping.c **** static void debug_tapping_key(void);
  36:./tmk_core/common/action_tapping.c **** static void debug_waiting_buffer(void);
  37:./tmk_core/common/action_tapping.c **** 
  38:./tmk_core/common/action_tapping.c **** 
  39:./tmk_core/common/action_tapping.c **** void action_tapping_process(keyrecord_t record)
  40:./tmk_core/common/action_tapping.c **** {
  41:./tmk_core/common/action_tapping.c ****     if (process_tapping(&record)) {
  42:./tmk_core/common/action_tapping.c ****         if (!IS_NOEVENT(record.event)) {
  43:./tmk_core/common/action_tapping.c ****             debug("processed: "); debug_record(record); debug("\n");
  44:./tmk_core/common/action_tapping.c ****         }
  45:./tmk_core/common/action_tapping.c ****     } else {
  46:./tmk_core/common/action_tapping.c ****         if (!waiting_buffer_enq(record)) {
  47:./tmk_core/common/action_tapping.c ****             // clear all in case of overflow.
  48:./tmk_core/common/action_tapping.c ****             debug("OVERFLOW: CLEAR ALL STATES\n");
  49:./tmk_core/common/action_tapping.c ****             clear_keyboard();
  50:./tmk_core/common/action_tapping.c ****             waiting_buffer_clear();
  51:./tmk_core/common/action_tapping.c ****             tapping_key = (keyrecord_t){};
  52:./tmk_core/common/action_tapping.c ****         }
  53:./tmk_core/common/action_tapping.c ****     }
  54:./tmk_core/common/action_tapping.c **** 
  55:./tmk_core/common/action_tapping.c ****     // process waiting_buffer
  56:./tmk_core/common/action_tapping.c ****     if (!IS_NOEVENT(record.event) && waiting_buffer_head != waiting_buffer_tail) {
  57:./tmk_core/common/action_tapping.c ****         debug("---- action_exec: process waiting_buffer -----\n");
  58:./tmk_core/common/action_tapping.c ****     }
  59:./tmk_core/common/action_tapping.c ****     for (; waiting_buffer_tail != waiting_buffer_head; waiting_buffer_tail = (waiting_buffer_tail +
  60:./tmk_core/common/action_tapping.c ****         if (process_tapping(&waiting_buffer[waiting_buffer_tail])) {
  61:./tmk_core/common/action_tapping.c ****             debug("processed: waiting_buffer["); debug_dec(waiting_buffer_tail); debug("] = ");
  62:./tmk_core/common/action_tapping.c ****             debug_record(waiting_buffer[waiting_buffer_tail]); debug("\n\n");
  63:./tmk_core/common/action_tapping.c ****         } else {
  64:./tmk_core/common/action_tapping.c ****             break;
  65:./tmk_core/common/action_tapping.c ****         }
  66:./tmk_core/common/action_tapping.c ****     }
  67:./tmk_core/common/action_tapping.c ****     if (!IS_NOEVENT(record.event)) {
  68:./tmk_core/common/action_tapping.c ****         debug("\n");
  69:./tmk_core/common/action_tapping.c ****     }
  70:./tmk_core/common/action_tapping.c **** }
  71:./tmk_core/common/action_tapping.c **** 
  72:./tmk_core/common/action_tapping.c **** 
  73:./tmk_core/common/action_tapping.c **** /* Tapping
  74:./tmk_core/common/action_tapping.c ****  *
  75:./tmk_core/common/action_tapping.c ****  * Rule: Tap key is typed(pressed and released) within TAPPING_TERM.
  76:./tmk_core/common/action_tapping.c ****  *       (without interfering by typing other key)
  77:./tmk_core/common/action_tapping.c ****  */
  78:./tmk_core/common/action_tapping.c **** /* return true when key event is processed or consumed. */
  79:./tmk_core/common/action_tapping.c **** bool process_tapping(keyrecord_t *keyp)
  80:./tmk_core/common/action_tapping.c **** {
  81:./tmk_core/common/action_tapping.c ****     keyevent_t event = keyp->event;
  82:./tmk_core/common/action_tapping.c **** 
  83:./tmk_core/common/action_tapping.c ****     // if tapping
  84:./tmk_core/common/action_tapping.c ****     if (IS_TAPPING_PRESSED()) {
  85:./tmk_core/common/action_tapping.c ****         if (WITHIN_TAPPING_TERM(event)) {
  86:./tmk_core/common/action_tapping.c ****             if (tapping_key.tap.count == 0) {
  87:./tmk_core/common/action_tapping.c ****                 if (IS_TAPPING_KEY(event.key) && !event.pressed) {
  88:./tmk_core/common/action_tapping.c ****                     // first tap!
  89:./tmk_core/common/action_tapping.c ****                     debug("Tapping: First tap(0->1).\n");
  90:./tmk_core/common/action_tapping.c ****                     tapping_key.tap.count = 1;
  91:./tmk_core/common/action_tapping.c ****                     debug_tapping_key();
  92:./tmk_core/common/action_tapping.c ****                     process_record(&tapping_key);
  93:./tmk_core/common/action_tapping.c **** 
  94:./tmk_core/common/action_tapping.c ****                     // copy tapping state
  95:./tmk_core/common/action_tapping.c ****                     keyp->tap = tapping_key.tap;
  96:./tmk_core/common/action_tapping.c ****                     // enqueue
  97:./tmk_core/common/action_tapping.c ****                     return false;
  98:./tmk_core/common/action_tapping.c ****                 }
  99:./tmk_core/common/action_tapping.c **** #if TAPPING_TERM >= 500
 100:./tmk_core/common/action_tapping.c ****                 /* Process a key typed within TAPPING_TERM
 101:./tmk_core/common/action_tapping.c ****                  * This can register the key before settlement of tapping,
 102:./tmk_core/common/action_tapping.c ****                  * useful for long TAPPING_TERM but may prevent fast typing.
 103:./tmk_core/common/action_tapping.c ****                  */
 104:./tmk_core/common/action_tapping.c ****                 else if (IS_RELEASED(event) && waiting_buffer_typed(event)) {
 105:./tmk_core/common/action_tapping.c ****                     debug("Tapping: End. No tap. Interfered by typing key\n");
 106:./tmk_core/common/action_tapping.c ****                     process_record(&tapping_key);
 107:./tmk_core/common/action_tapping.c ****                     tapping_key = (keyrecord_t){};
 108:./tmk_core/common/action_tapping.c ****                     debug_tapping_key();
 109:./tmk_core/common/action_tapping.c ****                     // enqueue
 110:./tmk_core/common/action_tapping.c ****                     return false;
 111:./tmk_core/common/action_tapping.c ****                 }
 112:./tmk_core/common/action_tapping.c **** #endif
 113:./tmk_core/common/action_tapping.c ****                 /* Process release event of a key pressed before tapping starts
 114:./tmk_core/common/action_tapping.c ****                  * Without this unexpected repeating will occur with having fast repeating setting
 115:./tmk_core/common/action_tapping.c ****                  * https://github.com/tmk/tmk_keyboard/issues/60
 116:./tmk_core/common/action_tapping.c ****                  */
 117:./tmk_core/common/action_tapping.c ****                 else if (IS_RELEASED(event) && !waiting_buffer_typed(event)) {
 118:./tmk_core/common/action_tapping.c ****                     // Modifier should be retained till end of this tapping.
 119:./tmk_core/common/action_tapping.c ****                     action_t action = layer_switch_get_action(event.key);
 120:./tmk_core/common/action_tapping.c ****                     switch (action.kind.id) {
 121:./tmk_core/common/action_tapping.c ****                         case ACT_LMODS:
 122:./tmk_core/common/action_tapping.c ****                         case ACT_RMODS:
 123:./tmk_core/common/action_tapping.c ****                             if (action.key.mods && !action.key.code) return false;
 124:./tmk_core/common/action_tapping.c ****                             if (IS_MOD(action.key.code)) return false;
 125:./tmk_core/common/action_tapping.c ****                             break;
 126:./tmk_core/common/action_tapping.c ****                         case ACT_LMODS_TAP:
 127:./tmk_core/common/action_tapping.c ****                         case ACT_RMODS_TAP:
 128:./tmk_core/common/action_tapping.c ****                             if (action.key.mods && keyp->tap.count == 0) return false;
 129:./tmk_core/common/action_tapping.c ****                             if (IS_MOD(action.key.code)) return false;
 130:./tmk_core/common/action_tapping.c ****                             break;
 131:./tmk_core/common/action_tapping.c ****                     }
 132:./tmk_core/common/action_tapping.c ****                     // Release of key should be process immediately.
 133:./tmk_core/common/action_tapping.c ****                     debug("Tapping: release event of a key pressed before tapping\n");
 134:./tmk_core/common/action_tapping.c ****                     process_record(keyp);
 135:./tmk_core/common/action_tapping.c ****                     return true;
 136:./tmk_core/common/action_tapping.c ****                 }
 137:./tmk_core/common/action_tapping.c ****                 else {
 138:./tmk_core/common/action_tapping.c ****                     // set interrupted flag when other key preesed during tapping
 139:./tmk_core/common/action_tapping.c ****                     if (event.pressed) {
 140:./tmk_core/common/action_tapping.c ****                         tapping_key.tap.interrupted = true;
 141:./tmk_core/common/action_tapping.c ****                     }
 142:./tmk_core/common/action_tapping.c ****                     // enqueue
 143:./tmk_core/common/action_tapping.c ****                     return false;
 144:./tmk_core/common/action_tapping.c ****                 }
 145:./tmk_core/common/action_tapping.c ****             }
 146:./tmk_core/common/action_tapping.c ****             // tap_count > 0
 147:./tmk_core/common/action_tapping.c ****             else {
 148:./tmk_core/common/action_tapping.c ****                 if (IS_TAPPING_KEY(event.key) && !event.pressed) {
 149:./tmk_core/common/action_tapping.c ****                     debug("Tapping: Tap release("); debug_dec(tapping_key.tap.count); debug(")\n");
 150:./tmk_core/common/action_tapping.c ****                     keyp->tap = tapping_key.tap;
 151:./tmk_core/common/action_tapping.c ****                     process_record(keyp);
 152:./tmk_core/common/action_tapping.c ****                     tapping_key = *keyp;
 153:./tmk_core/common/action_tapping.c ****                     debug_tapping_key();
 154:./tmk_core/common/action_tapping.c ****                     return true;
 155:./tmk_core/common/action_tapping.c ****                 }
 156:./tmk_core/common/action_tapping.c ****                 else if (is_tap_key(event.key) && event.pressed) {
 157:./tmk_core/common/action_tapping.c ****                     if (tapping_key.tap.count > 1) {
 158:./tmk_core/common/action_tapping.c ****                         debug("Tapping: Start new tap with releasing last tap(>1).\n");
 159:./tmk_core/common/action_tapping.c ****                         // unregister key
 160:./tmk_core/common/action_tapping.c ****                         process_record(&(keyrecord_t){
 161:./tmk_core/common/action_tapping.c ****                                 .tap = tapping_key.tap,
 162:./tmk_core/common/action_tapping.c ****                                 .event.key = tapping_key.event.key,
 163:./tmk_core/common/action_tapping.c ****                                 .event.time = event.time,
 164:./tmk_core/common/action_tapping.c ****                                 .event.pressed = false
 165:./tmk_core/common/action_tapping.c ****                         });
 166:./tmk_core/common/action_tapping.c ****                     } else {
 167:./tmk_core/common/action_tapping.c ****                         debug("Tapping: Start while last tap(1).\n");
 168:./tmk_core/common/action_tapping.c ****                     }
 169:./tmk_core/common/action_tapping.c ****                     tapping_key = *keyp;
 170:./tmk_core/common/action_tapping.c ****                     waiting_buffer_scan_tap();
 171:./tmk_core/common/action_tapping.c ****                     debug_tapping_key();
 172:./tmk_core/common/action_tapping.c ****                     return true;
 173:./tmk_core/common/action_tapping.c ****                 }
 174:./tmk_core/common/action_tapping.c ****                 else {
 175:./tmk_core/common/action_tapping.c ****                     if (!IS_NOEVENT(event)) {
 176:./tmk_core/common/action_tapping.c ****                         debug("Tapping: key event while last tap(>0).\n");
 177:./tmk_core/common/action_tapping.c ****                     }
 178:./tmk_core/common/action_tapping.c ****                     process_record(keyp);
 179:./tmk_core/common/action_tapping.c ****                     return true;
 180:./tmk_core/common/action_tapping.c ****                 }
 181:./tmk_core/common/action_tapping.c ****             }
 182:./tmk_core/common/action_tapping.c ****         }
 183:./tmk_core/common/action_tapping.c ****         // after TAPPING_TERM
 184:./tmk_core/common/action_tapping.c ****         else {
 185:./tmk_core/common/action_tapping.c ****             if (tapping_key.tap.count == 0) {
 186:./tmk_core/common/action_tapping.c ****                 debug("Tapping: End. Timeout. Not tap(0): ");
 187:./tmk_core/common/action_tapping.c ****                 debug_event(event); debug("\n");
 188:./tmk_core/common/action_tapping.c ****                 process_record(&tapping_key);
 189:./tmk_core/common/action_tapping.c ****                 tapping_key = (keyrecord_t){};
 190:./tmk_core/common/action_tapping.c ****                 debug_tapping_key();
 191:./tmk_core/common/action_tapping.c ****                 return false;
 192:./tmk_core/common/action_tapping.c ****             }  else {
 193:./tmk_core/common/action_tapping.c ****                 if (IS_TAPPING_KEY(event.key) && !event.pressed) {
 194:./tmk_core/common/action_tapping.c ****                     debug("Tapping: End. last timeout tap release(>0).");
 195:./tmk_core/common/action_tapping.c ****                     keyp->tap = tapping_key.tap;
 196:./tmk_core/common/action_tapping.c ****                     process_record(keyp);
 197:./tmk_core/common/action_tapping.c ****                     tapping_key = (keyrecord_t){};
 198:./tmk_core/common/action_tapping.c ****                     return true;
 199:./tmk_core/common/action_tapping.c ****                 }
 200:./tmk_core/common/action_tapping.c ****                 else if (is_tap_key(event.key) && event.pressed) {
 201:./tmk_core/common/action_tapping.c ****                     if (tapping_key.tap.count > 1) {
 202:./tmk_core/common/action_tapping.c ****                         debug("Tapping: Start new tap with releasing last timeout tap(>1).\n");
 203:./tmk_core/common/action_tapping.c ****                         // unregister key
 204:./tmk_core/common/action_tapping.c ****                         process_record(&(keyrecord_t){
 205:./tmk_core/common/action_tapping.c ****                                 .tap = tapping_key.tap,
 206:./tmk_core/common/action_tapping.c ****                                 .event.key = tapping_key.event.key,
 207:./tmk_core/common/action_tapping.c ****                                 .event.time = event.time,
 208:./tmk_core/common/action_tapping.c ****                                 .event.pressed = false
 209:./tmk_core/common/action_tapping.c ****                         });
 210:./tmk_core/common/action_tapping.c ****                     } else {
 211:./tmk_core/common/action_tapping.c ****                         debug("Tapping: Start while last timeout tap(1).\n");
 212:./tmk_core/common/action_tapping.c ****                     }
 213:./tmk_core/common/action_tapping.c ****                     tapping_key = *keyp;
 214:./tmk_core/common/action_tapping.c ****                     waiting_buffer_scan_tap();
 215:./tmk_core/common/action_tapping.c ****                     debug_tapping_key();
 216:./tmk_core/common/action_tapping.c ****                     return true;
 217:./tmk_core/common/action_tapping.c ****                 }
 218:./tmk_core/common/action_tapping.c ****                 else {
 219:./tmk_core/common/action_tapping.c ****                     if (!IS_NOEVENT(event)) {
 220:./tmk_core/common/action_tapping.c ****                         debug("Tapping: key event while last timeout tap(>0).\n");
 221:./tmk_core/common/action_tapping.c ****                     }
 222:./tmk_core/common/action_tapping.c ****                     process_record(keyp);
 223:./tmk_core/common/action_tapping.c ****                     return true;
 224:./tmk_core/common/action_tapping.c ****                 }
 225:./tmk_core/common/action_tapping.c ****             }
 226:./tmk_core/common/action_tapping.c ****         }
 227:./tmk_core/common/action_tapping.c ****     } else if (IS_TAPPING_RELEASED()) {
 228:./tmk_core/common/action_tapping.c ****         if (WITHIN_TAPPING_TERM(event)) {
 229:./tmk_core/common/action_tapping.c ****             if (event.pressed) {
 230:./tmk_core/common/action_tapping.c ****                 if (IS_TAPPING_KEY(event.key)) {
 231:./tmk_core/common/action_tapping.c ****                     if (!tapping_key.tap.interrupted && tapping_key.tap.count > 0) {
 232:./tmk_core/common/action_tapping.c ****                         // sequential tap.
 233:./tmk_core/common/action_tapping.c ****                         keyp->tap = tapping_key.tap;
 234:./tmk_core/common/action_tapping.c ****                         if (keyp->tap.count < 15) keyp->tap.count += 1;
 235:./tmk_core/common/action_tapping.c ****                         debug("Tapping: Tap press("); debug_dec(keyp->tap.count); debug(")\n");
 236:./tmk_core/common/action_tapping.c ****                         process_record(keyp);
 237:./tmk_core/common/action_tapping.c ****                         tapping_key = *keyp;
 238:./tmk_core/common/action_tapping.c ****                         debug_tapping_key();
 239:./tmk_core/common/action_tapping.c ****                         return true;
 240:./tmk_core/common/action_tapping.c ****                     } else {
 241:./tmk_core/common/action_tapping.c ****                         // FIX: start new tap again
 242:./tmk_core/common/action_tapping.c ****                         tapping_key = *keyp;
 243:./tmk_core/common/action_tapping.c ****                         return true;
 244:./tmk_core/common/action_tapping.c ****                     }
 245:./tmk_core/common/action_tapping.c ****                 } else if (is_tap_key(event.key)) {
 246:./tmk_core/common/action_tapping.c ****                     // Sequential tap can be interfered with other tap key.
 247:./tmk_core/common/action_tapping.c ****                     debug("Tapping: Start with interfering other tap.\n");
 248:./tmk_core/common/action_tapping.c ****                     tapping_key = *keyp;
 249:./tmk_core/common/action_tapping.c ****                     waiting_buffer_scan_tap();
 250:./tmk_core/common/action_tapping.c ****                     debug_tapping_key();
 251:./tmk_core/common/action_tapping.c ****                     return true;
 252:./tmk_core/common/action_tapping.c ****                 } else {
 253:./tmk_core/common/action_tapping.c ****                     // should none in buffer
 254:./tmk_core/common/action_tapping.c ****                     // FIX: interrupted when other key is pressed
 255:./tmk_core/common/action_tapping.c ****                     tapping_key.tap.interrupted = true;
 256:./tmk_core/common/action_tapping.c ****                     process_record(keyp);
 257:./tmk_core/common/action_tapping.c ****                     return true;
 258:./tmk_core/common/action_tapping.c ****                 }
 259:./tmk_core/common/action_tapping.c ****             } else {
 260:./tmk_core/common/action_tapping.c ****                 if (!IS_NOEVENT(event)) debug("Tapping: other key just after tap.\n") {};
 261:./tmk_core/common/action_tapping.c ****                 process_record(keyp);
 262:./tmk_core/common/action_tapping.c ****                 return true;
 263:./tmk_core/common/action_tapping.c ****             }
 264:./tmk_core/common/action_tapping.c ****         } else {
 265:./tmk_core/common/action_tapping.c ****             // FIX: process_aciton here?
 266:./tmk_core/common/action_tapping.c ****             // timeout. no sequential tap.
 267:./tmk_core/common/action_tapping.c ****             debug("Tapping: End(Timeout after releasing last tap): ");
 268:./tmk_core/common/action_tapping.c ****             debug_event(event); debug("\n");
 269:./tmk_core/common/action_tapping.c ****             tapping_key = (keyrecord_t){};
 270:./tmk_core/common/action_tapping.c ****             debug_tapping_key();
 271:./tmk_core/common/action_tapping.c ****             return false;
 272:./tmk_core/common/action_tapping.c ****         }
 273:./tmk_core/common/action_tapping.c ****     }
 274:./tmk_core/common/action_tapping.c ****     // not tapping state
 275:./tmk_core/common/action_tapping.c ****     else {
 276:./tmk_core/common/action_tapping.c ****         if (event.pressed && is_tap_key(event.key)) {
 277:./tmk_core/common/action_tapping.c ****             debug("Tapping: Start(Press tap key).\n");
 278:./tmk_core/common/action_tapping.c ****             tapping_key = *keyp;
 279:./tmk_core/common/action_tapping.c ****             waiting_buffer_scan_tap();
 280:./tmk_core/common/action_tapping.c ****             debug_tapping_key();
 281:./tmk_core/common/action_tapping.c ****             return true;
 282:./tmk_core/common/action_tapping.c ****         } else {
 283:./tmk_core/common/action_tapping.c ****             process_record(keyp);
 284:./tmk_core/common/action_tapping.c ****             return true;
 285:./tmk_core/common/action_tapping.c ****         }
 286:./tmk_core/common/action_tapping.c ****     }
 287:./tmk_core/common/action_tapping.c **** }
 288:./tmk_core/common/action_tapping.c **** 
 289:./tmk_core/common/action_tapping.c **** 
 290:./tmk_core/common/action_tapping.c **** /*
 291:./tmk_core/common/action_tapping.c ****  * Waiting buffer
 292:./tmk_core/common/action_tapping.c ****  */
 293:./tmk_core/common/action_tapping.c **** bool waiting_buffer_enq(keyrecord_t record)
 294:./tmk_core/common/action_tapping.c **** {
 295:./tmk_core/common/action_tapping.c ****     if (IS_NOEVENT(record.event)) {
 296:./tmk_core/common/action_tapping.c ****         return true;
 297:./tmk_core/common/action_tapping.c ****     }
 298:./tmk_core/common/action_tapping.c **** 
 299:./tmk_core/common/action_tapping.c ****     if ((waiting_buffer_head + 1) % WAITING_BUFFER_SIZE == waiting_buffer_tail) {
 300:./tmk_core/common/action_tapping.c ****         debug("waiting_buffer_enq: Over flow.\n");
 301:./tmk_core/common/action_tapping.c ****         return false;
 302:./tmk_core/common/action_tapping.c ****     }
 303:./tmk_core/common/action_tapping.c **** 
 304:./tmk_core/common/action_tapping.c ****     waiting_buffer[waiting_buffer_head] = record;
 305:./tmk_core/common/action_tapping.c ****     waiting_buffer_head = (waiting_buffer_head + 1) % WAITING_BUFFER_SIZE;
 306:./tmk_core/common/action_tapping.c **** 
 307:./tmk_core/common/action_tapping.c ****     debug("waiting_buffer_enq: "); debug_waiting_buffer();
 308:./tmk_core/common/action_tapping.c ****     return true;
 309:./tmk_core/common/action_tapping.c **** }
 310:./tmk_core/common/action_tapping.c **** 
 311:./tmk_core/common/action_tapping.c **** void waiting_buffer_clear(void)
 312:./tmk_core/common/action_tapping.c **** {
 313:./tmk_core/common/action_tapping.c ****     waiting_buffer_head = 0;
 314:./tmk_core/common/action_tapping.c ****     waiting_buffer_tail = 0;
 315:./tmk_core/common/action_tapping.c **** }
 316:./tmk_core/common/action_tapping.c **** 
 317:./tmk_core/common/action_tapping.c **** bool waiting_buffer_typed(keyevent_t event)
 318:./tmk_core/common/action_tapping.c **** {
 319:./tmk_core/common/action_tapping.c ****     for (uint8_t i = waiting_buffer_tail; i != waiting_buffer_head; i = (i + 1) % WAITING_BUFFER_SI
 320:./tmk_core/common/action_tapping.c ****         if (KEYEQ(event.key, waiting_buffer[i].event.key) && event.pressed !=  waiting_buffer[i].ev
 321:./tmk_core/common/action_tapping.c ****             return true;
 322:./tmk_core/common/action_tapping.c ****         }
 323:./tmk_core/common/action_tapping.c ****     }
 324:./tmk_core/common/action_tapping.c ****     return false;
 325:./tmk_core/common/action_tapping.c **** }
 326:./tmk_core/common/action_tapping.c **** 
 327:./tmk_core/common/action_tapping.c **** __attribute__((unused))
 328:./tmk_core/common/action_tapping.c **** bool waiting_buffer_has_anykey_pressed(void)
 329:./tmk_core/common/action_tapping.c **** {
 330:./tmk_core/common/action_tapping.c ****     for (uint8_t i = waiting_buffer_tail; i != waiting_buffer_head; i = (i + 1) % WAITING_BUFFER_SI
 331:./tmk_core/common/action_tapping.c ****         if (waiting_buffer[i].event.pressed) return true;
 332:./tmk_core/common/action_tapping.c ****     }
 333:./tmk_core/common/action_tapping.c ****     return false;
 334:./tmk_core/common/action_tapping.c **** }
 335:./tmk_core/common/action_tapping.c **** 
 336:./tmk_core/common/action_tapping.c **** /* scan buffer for tapping */
 337:./tmk_core/common/action_tapping.c **** void waiting_buffer_scan_tap(void)
 338:./tmk_core/common/action_tapping.c **** {
 339:./tmk_core/common/action_tapping.c ****     // tapping already is settled
 340:./tmk_core/common/action_tapping.c ****     if (tapping_key.tap.count > 0) return;
 341:./tmk_core/common/action_tapping.c ****     // invalid state: tapping_key released && tap.count == 0
 342:./tmk_core/common/action_tapping.c ****     if (!tapping_key.event.pressed) return;
 343:./tmk_core/common/action_tapping.c **** 
 344:./tmk_core/common/action_tapping.c ****     for (uint8_t i = waiting_buffer_tail; i != waiting_buffer_head; i = (i + 1) % WAITING_BUFFER_SI
 345:./tmk_core/common/action_tapping.c ****         if (IS_TAPPING_KEY(waiting_buffer[i].event.key) &&
 346:./tmk_core/common/action_tapping.c ****                 !waiting_buffer[i].event.pressed &&
 347:./tmk_core/common/action_tapping.c ****                 WITHIN_TAPPING_TERM(waiting_buffer[i].event)) {
 348:./tmk_core/common/action_tapping.c ****             tapping_key.tap.count = 1;
 349:./tmk_core/common/action_tapping.c ****             waiting_buffer[i].tap.count = 1;
 350:./tmk_core/common/action_tapping.c ****             process_record(&tapping_key);
 351:./tmk_core/common/action_tapping.c **** 
 352:./tmk_core/common/action_tapping.c ****             debug("waiting_buffer_scan_tap: found at ["); debug_dec(i); debug("]\n");
 353:./tmk_core/common/action_tapping.c ****             debug_waiting_buffer();
 354:./tmk_core/common/action_tapping.c ****             return;
 355:./tmk_core/common/action_tapping.c ****         }
 356:./tmk_core/common/action_tapping.c ****     }
 357:./tmk_core/common/action_tapping.c **** }
 358:./tmk_core/common/action_tapping.c **** 
 359:./tmk_core/common/action_tapping.c **** 
 360:./tmk_core/common/action_tapping.c **** /*
 361:./tmk_core/common/action_tapping.c ****  * debug print
 362:./tmk_core/common/action_tapping.c ****  */
 363:./tmk_core/common/action_tapping.c **** static void debug_tapping_key(void)
 364:./tmk_core/common/action_tapping.c **** {
 365:./tmk_core/common/action_tapping.c ****     debug("TAPPING_KEY="); debug_record(tapping_key); debug("\n");
 366:./tmk_core/common/action_tapping.c **** }
 367:./tmk_core/common/action_tapping.c **** 
 368:./tmk_core/common/action_tapping.c **** static void debug_waiting_buffer(void)
 369:./tmk_core/common/action_tapping.c **** {
  15               		.loc 1 369 1 view -0
  16               		.cfi_startproc
  17 0000 0F93      		push r16
  18               	.LCFI0:
  19               		.cfi_def_cfa_offset 3
  20               		.cfi_offset 16, -2
  21 0002 1F93      		push r17
  22               	.LCFI1:
  23               		.cfi_def_cfa_offset 4
  24               		.cfi_offset 17, -3
  25 0004 CF93      		push r28
  26               	.LCFI2:
  27               		.cfi_def_cfa_offset 5
  28               		.cfi_offset 28, -4
  29               	/* prologue: function */
  30               	/* frame size = 0 */
  31               	/* stack size = 3 */
  32               	.L__stack_usage = 3
 370:./tmk_core/common/action_tapping.c ****     debug("{ ");
  33               		.loc 1 370 16 view .LVU1
 371:./tmk_core/common/action_tapping.c ****     for (uint8_t i = waiting_buffer_tail; i != waiting_buffer_head; i = (i + 1) % WAITING_BUFFER_SI
  34               		.loc 1 371 5 view .LVU2
  35               	.LBB40:
  36               		.loc 1 371 10 view .LVU3
  37               		.loc 1 371 18 is_stmt 0 view .LVU4
  38 0006 E091 0000 		lds r30,waiting_buffer_tail
  39               	.LVL0:
 372:./tmk_core/common/action_tapping.c ****         debug("["); debug_dec(i); debug("]="); debug_record(waiting_buffer[i]); debug(" ");
  40               		.loc 1 372 48 view .LVU5
  41 000a C6E0      		ldi r28,lo8(6)
  42               	.LVL1:
  43               	.L2:
 371:./tmk_core/common/action_tapping.c ****     for (uint8_t i = waiting_buffer_tail; i != waiting_buffer_head; i = (i + 1) % WAITING_BUFFER_SI
  44               		.loc 1 371 45 is_stmt 1 discriminator 1 view .LVU6
  45 000c 8091 0000 		lds r24,waiting_buffer_head
  46 0010 8E13      		cpse r24,r30
  47 0012 00C0      		rjmp .L3
  48               	/* epilogue start */
  49               	.LBE40:
 373:./tmk_core/common/action_tapping.c ****     }
 374:./tmk_core/common/action_tapping.c ****     debug("}\n");
 375:./tmk_core/common/action_tapping.c **** }
  50               		.loc 1 375 1 is_stmt 0 view .LVU7
  51 0014 CF91      		pop r28
  52 0016 1F91      		pop r17
  53 0018 0F91      		pop r16
  54 001a 0895      		ret
  55               	.L3:
  56               	.LBB41:
 372:./tmk_core/common/action_tapping.c ****         debug("["); debug_dec(i); debug("]="); debug_record(waiting_buffer[i]); debug(" ");
  57               		.loc 1 372 19 is_stmt 1 discriminator 3 view .LVU8
 372:./tmk_core/common/action_tapping.c ****         debug("["); debug_dec(i); debug("]="); debug_record(waiting_buffer[i]); debug(" ");
  58               		.loc 1 372 33 discriminator 3 view .LVU9
 372:./tmk_core/common/action_tapping.c ****         debug("["); debug_dec(i); debug("]="); debug_record(waiting_buffer[i]); debug(" ");
  59               		.loc 1 372 46 discriminator 3 view .LVU10
 372:./tmk_core/common/action_tapping.c ****         debug("["); debug_dec(i); debug("]="); debug_record(waiting_buffer[i]); debug(" ");
  60               		.loc 1 372 48 discriminator 3 view .LVU11
  61 001c 0E2F      		mov r16,r30
  62 001e 10E0      		ldi r17,0
  63 0020 CE9F      		mul r28,r30
  64 0022 F001      		movw r30,r0
  65 0024 1124      		clr __zero_reg__
  66               	.LVL2:
 372:./tmk_core/common/action_tapping.c ****         debug("["); debug_dec(i); debug("]="); debug_record(waiting_buffer[i]); debug(" ");
  67               		.loc 1 372 48 is_stmt 0 discriminator 3 view .LVU12
  68 0026 E050      		subi r30,lo8(-(waiting_buffer))
  69 0028 F040      		sbci r31,hi8(-(waiting_buffer))
  70 002a 4081      		ld r20,Z
  71 002c 5181      		ldd r21,Z+1
  72 002e 6281      		ldd r22,Z+2
  73 0030 7381      		ldd r23,Z+3
  74 0032 8481      		ldd r24,Z+4
  75 0034 9581      		ldd r25,Z+5
  76 0036 0E94 0000 		call debug_record
  77               	.LVL3:
 372:./tmk_core/common/action_tapping.c ****         debug("["); debug_dec(i); debug("]="); debug_record(waiting_buffer[i]); debug(" ");
  78               		.loc 1 372 91 is_stmt 1 discriminator 3 view .LVU13
 371:./tmk_core/common/action_tapping.c ****         debug("["); debug_dec(i); debug("]="); debug_record(waiting_buffer[i]); debug(" ");
  79               		.loc 1 371 71 discriminator 3 view .LVU14
 371:./tmk_core/common/action_tapping.c ****         debug("["); debug_dec(i); debug("]="); debug_record(waiting_buffer[i]); debug(" ");
  80               		.loc 1 371 76 is_stmt 0 discriminator 3 view .LVU15
  81 003a F801      		movw r30,r16
  82 003c 3196      		adiw r30,1
 371:./tmk_core/common/action_tapping.c ****         debug("["); debug_dec(i); debug("]="); debug_record(waiting_buffer[i]); debug(" ");
  83               		.loc 1 371 71 discriminator 3 view .LVU16
  84 003e E770      		andi r30,lo8(7)
  85               	.LVL4:
 371:./tmk_core/common/action_tapping.c ****         debug("["); debug_dec(i); debug("]="); debug_record(waiting_buffer[i]); debug(" ");
  86               		.loc 1 371 71 discriminator 3 view .LVU17
  87 0040 00C0      		rjmp .L2
  88               	.LBE41:
  89               		.cfi_endproc
  90               	.LFE12:
  92               		.section	.text.debug_tapping_key,"ax",@progbits
  94               	debug_tapping_key:
  95               	.LFB11:
 364:./tmk_core/common/action_tapping.c ****     debug("TAPPING_KEY="); debug_record(tapping_key); debug("\n");
  96               		.loc 1 364 1 is_stmt 1 view -0
  97               		.cfi_startproc
  98               	/* prologue: function */
  99               	/* frame size = 0 */
 100               	/* stack size = 0 */
 101               	.L__stack_usage = 0
 365:./tmk_core/common/action_tapping.c **** }
 102               		.loc 1 365 26 view .LVU19
 365:./tmk_core/common/action_tapping.c **** }
 103               		.loc 1 365 28 view .LVU20
 104 0000 4091 0000 		lds r20,tapping_key
 105 0004 5091 0000 		lds r21,tapping_key+1
 106 0008 6091 0000 		lds r22,tapping_key+2
 107 000c 7091 0000 		lds r23,tapping_key+3
 108 0010 8091 0000 		lds r24,tapping_key+4
 109 0014 9091 0000 		lds r25,tapping_key+5
 110 0018 0C94 0000 		jmp debug_record
 111               	.LVL5:
 112               		.cfi_endproc
 113               	.LFE11:
 115               		.section	.text.waiting_buffer_scan_tap,"ax",@progbits
 117               	waiting_buffer_scan_tap:
 118               	.LFB10:
 338:./tmk_core/common/action_tapping.c ****     // tapping already is settled
 119               		.loc 1 338 1 view -0
 120               		.cfi_startproc
 121 0000 CF93      		push r28
 122               	.LCFI3:
 123               		.cfi_def_cfa_offset 3
 124               		.cfi_offset 28, -2
 125               	/* prologue: function */
 126               	/* frame size = 0 */
 127               	/* stack size = 1 */
 128               	.L__stack_usage = 1
 340:./tmk_core/common/action_tapping.c ****     // invalid state: tapping_key released && tap.count == 0
 129               		.loc 1 340 5 view .LVU22
 340:./tmk_core/common/action_tapping.c ****     // invalid state: tapping_key released && tap.count == 0
 130               		.loc 1 340 8 is_stmt 0 view .LVU23
 131 0002 8091 0000 		lds r24,tapping_key+5
 132 0006 8031      		cpi r24,lo8(16)
 133 0008 00F0      		brlo .+2
 134 000a 00C0      		rjmp .L5
 342:./tmk_core/common/action_tapping.c **** 
 135               		.loc 1 342 5 is_stmt 1 view .LVU24
 342:./tmk_core/common/action_tapping.c **** 
 136               		.loc 1 342 8 is_stmt 0 view .LVU25
 137 000c 8091 0000 		lds r24,tapping_key+2
 138 0010 8823      		tst r24
 139 0012 01F4      		brne .+2
 140 0014 00C0      		rjmp .L5
 344:./tmk_core/common/action_tapping.c ****         if (IS_TAPPING_KEY(waiting_buffer[i].event.key) &&
 141               		.loc 1 344 5 is_stmt 1 view .LVU26
 142               	.LBB42:
 344:./tmk_core/common/action_tapping.c ****         if (IS_TAPPING_KEY(waiting_buffer[i].event.key) &&
 143               		.loc 1 344 10 view .LVU27
 344:./tmk_core/common/action_tapping.c ****         if (IS_TAPPING_KEY(waiting_buffer[i].event.key) &&
 144               		.loc 1 344 18 is_stmt 0 view .LVU28
 145 0016 8091 0000 		lds r24,waiting_buffer_tail
 146               	.LVL6:
 344:./tmk_core/common/action_tapping.c ****         if (IS_TAPPING_KEY(waiting_buffer[i].event.key) &&
 147               		.loc 1 344 45 view .LVU29
 148 001a 2091 0000 		lds r18,waiting_buffer_head
 149 001e A091 0000 		lds r26,tapping_key
 150 0022 3091 0000 		lds r19,tapping_key+1
 151 0026 6091 0000 		lds r22,tapping_key+3
 152 002a 7091 0000 		lds r23,tapping_key+3+1
 153 002e B32F      		mov r27,r19
 154 0030 BA23      		and r27,r26
 345:./tmk_core/common/action_tapping.c ****                 !waiting_buffer[i].event.pressed &&
 155               		.loc 1 345 13 view .LVU30
 156 0032 C6E0      		ldi r28,lo8(6)
 157               	.LVL7:
 158               	.L7:
 344:./tmk_core/common/action_tapping.c ****         if (IS_TAPPING_KEY(waiting_buffer[i].event.key) &&
 159               		.loc 1 344 45 is_stmt 1 discriminator 1 view .LVU31
 160 0034 2817      		cp r18,r24
 161 0036 01F4      		brne .+2
 162 0038 00C0      		rjmp .L5
 345:./tmk_core/common/action_tapping.c ****                 !waiting_buffer[i].event.pressed &&
 163               		.loc 1 345 9 view .LVU32
 164               	.LVL8:
 165               	.LBB43:
 166               	.LBI43:
 167               		.file 2 "./tmk_core/common/keyboard.h"
   1:./tmk_core/common/keyboard.h **** /*
   2:./tmk_core/common/keyboard.h **** Copyright 2011,2012,2013 Jun Wako <wakojun@gmail.com>
   3:./tmk_core/common/keyboard.h **** 
   4:./tmk_core/common/keyboard.h **** This program is free software: you can redistribute it and/or modify
   5:./tmk_core/common/keyboard.h **** it under the terms of the GNU General Public License as published by
   6:./tmk_core/common/keyboard.h **** the Free Software Foundation, either version 2 of the License, or
   7:./tmk_core/common/keyboard.h **** (at your option) any later version.
   8:./tmk_core/common/keyboard.h **** 
   9:./tmk_core/common/keyboard.h **** This program is distributed in the hope that it will be useful,
  10:./tmk_core/common/keyboard.h **** but WITHOUT ANY WARRANTY; without even the implied warranty of
  11:./tmk_core/common/keyboard.h **** MERCHANTABILITY or FITNESS FOR A PARTICULAR PURPOSE.  See the
  12:./tmk_core/common/keyboard.h **** GNU General Public License for more details.
  13:./tmk_core/common/keyboard.h **** 
  14:./tmk_core/common/keyboard.h **** You should have received a copy of the GNU General Public License
  15:./tmk_core/common/keyboard.h **** along with this program.  If not, see <http://www.gnu.org/licenses/>.
  16:./tmk_core/common/keyboard.h **** */
  17:./tmk_core/common/keyboard.h **** 
  18:./tmk_core/common/keyboard.h **** #ifndef KEYBOARD_H
  19:./tmk_core/common/keyboard.h **** #define KEYBOARD_H
  20:./tmk_core/common/keyboard.h **** 
  21:./tmk_core/common/keyboard.h **** #include <stdbool.h>
  22:./tmk_core/common/keyboard.h **** #include <stdint.h>
  23:./tmk_core/common/keyboard.h **** 
  24:./tmk_core/common/keyboard.h **** 
  25:./tmk_core/common/keyboard.h **** #ifdef __cplusplus
  26:./tmk_core/common/keyboard.h **** extern "C" {
  27:./tmk_core/common/keyboard.h **** #endif
  28:./tmk_core/common/keyboard.h **** 
  29:./tmk_core/common/keyboard.h **** /* key matrix position */
  30:./tmk_core/common/keyboard.h **** typedef struct {
  31:./tmk_core/common/keyboard.h ****     uint8_t col;
  32:./tmk_core/common/keyboard.h ****     uint8_t row;
  33:./tmk_core/common/keyboard.h **** } keypos_t;
  34:./tmk_core/common/keyboard.h **** 
  35:./tmk_core/common/keyboard.h **** /* key event */
  36:./tmk_core/common/keyboard.h **** typedef struct {
  37:./tmk_core/common/keyboard.h ****     keypos_t key;
  38:./tmk_core/common/keyboard.h ****     bool     pressed;
  39:./tmk_core/common/keyboard.h ****     uint16_t time;
  40:./tmk_core/common/keyboard.h **** } keyevent_t;
  41:./tmk_core/common/keyboard.h **** 
  42:./tmk_core/common/keyboard.h **** /* equivalent test of keypos_t */
  43:./tmk_core/common/keyboard.h **** #define KEYEQ(keya, keyb)       ((keya).row == (keyb).row && (keya).col == (keyb).col)
  44:./tmk_core/common/keyboard.h **** 
  45:./tmk_core/common/keyboard.h **** /* Rules for No Event:
  46:./tmk_core/common/keyboard.h ****  * 1) (time == 0) to handle (keyevent_t){} as empty event
  47:./tmk_core/common/keyboard.h ****  * 2) Matrix(255, 255) to make TICK event available
  48:./tmk_core/common/keyboard.h ****  */
  49:./tmk_core/common/keyboard.h **** static inline bool IS_NOEVENT(keyevent_t event) { return event.time == 0 || (event.key.row == 255 &
 168               		.loc 2 49 20 view .LVU33
 169               	.LBB44:
 170               		.loc 2 49 51 view .LVU34
 171               	.LBE44:
 172               	.LBE43:
 345:./tmk_core/common/action_tapping.c ****                 !waiting_buffer[i].event.pressed &&
 173               		.loc 1 345 13 is_stmt 0 view .LVU35
 174 003a 90E0      		ldi r25,0
 175               	.LBB46:
 176               	.LBB45:
 177               		.loc 2 49 74 view .LVU36
 178 003c 6115      		cp r22,__zero_reg__
 179 003e 7105      		cpc r23,__zero_reg__
 180 0040 01F4      		brne .+2
 181 0042 00C0      		rjmp .L8
 182               	.LVL9:
 183               	.L9:
 184               		.loc 2 49 74 view .LVU37
 185 0044 BF3F      		cpi r27,lo8(-1)
 186 0046 01F4      		brne .+2
 187 0048 00C0      		rjmp .L8
 188               	.L10:
 189               	.LBE45:
 190               	.LBE46:
 345:./tmk_core/common/action_tapping.c ****                 !waiting_buffer[i].event.pressed &&
 191               		.loc 1 345 13 view .LVU38
 192 004a C89F      		mul r28,r24
 193 004c F001      		movw r30,r0
 194 004e C99F      		mul r28,r25
 195 0050 F00D      		add r31,r0
 196 0052 1124      		clr __zero_reg__
 197 0054 E050      		subi r30,lo8(-(waiting_buffer))
 198 0056 F040      		sbci r31,hi8(-(waiting_buffer))
 199 0058 4181      		ldd r20,Z+1
 200 005a 3413      		cpse r19,r20
 201 005c 00C0      		rjmp .L11
 345:./tmk_core/common/action_tapping.c ****                 !waiting_buffer[i].event.pressed &&
 202               		.loc 1 345 13 discriminator 2 view .LVU39
 203 005e 4081      		ld r20,Z
 204 0060 4A13      		cpse r20,r26
 205 0062 00C0      		rjmp .L30
 345:./tmk_core/common/action_tapping.c ****                 !waiting_buffer[i].event.pressed &&
 206               		.loc 1 345 57 discriminator 3 view .LVU40
 207 0064 4281      		ldd r20,Z+2
 208 0066 4111      		cpse r20,__zero_reg__
 209 0068 00C0      		rjmp .L30
 347:./tmk_core/common/action_tapping.c ****             tapping_key.tap.count = 1;
 210               		.loc 1 347 17 view .LVU41
 211 006a 0380      		ldd __tmp_reg__,Z+3
 212 006c F481      		ldd r31,Z+4
 213 006e E02D      		mov r30,__tmp_reg__
 214 0070 AF01      		movw r20,r30
 215 0072 461B      		sub r20,r22
 216 0074 570B      		sbc r21,r23
 217 0076 E617      		cp r30,r22
 218 0078 F707      		cpc r31,r23
 219 007a 00F0      		brlo .L14
 346:./tmk_core/common/action_tapping.c ****                 WITHIN_TAPPING_TERM(waiting_buffer[i].event)) {
 220               		.loc 1 346 50 discriminator 1 view .LVU42
 221 007c 483C      		cpi r20,-56
 222 007e 5105      		cpc r21,__zero_reg__
 223 0080 00F4      		brsh .L30
 224               	.L15:
 348:./tmk_core/common/action_tapping.c ****             waiting_buffer[i].tap.count = 1;
 225               		.loc 1 348 13 is_stmt 1 view .LVU43
 348:./tmk_core/common/action_tapping.c ****             waiting_buffer[i].tap.count = 1;
 226               		.loc 1 348 35 is_stmt 0 view .LVU44
 227 0082 2091 0000 		lds r18,tapping_key+5
 228 0086 2F70      		andi r18,lo8(15)
 229 0088 2061      		ori r18,lo8(16)
 230 008a 2093 0000 		sts tapping_key+5,r18
 349:./tmk_core/common/action_tapping.c ****             process_record(&tapping_key);
 231               		.loc 1 349 13 is_stmt 1 view .LVU45
 349:./tmk_core/common/action_tapping.c ****             process_record(&tapping_key);
 232               		.loc 1 349 41 is_stmt 0 view .LVU46
 233 008e 26E0      		ldi r18,lo8(6)
 234 0090 289F      		mul r18,r24
 235 0092 F001      		movw r30,r0
 236 0094 299F      		mul r18,r25
 237 0096 F00D      		add r31,r0
 238 0098 1124      		clr __zero_reg__
 239 009a E050      		subi r30,lo8(-(waiting_buffer+5))
 240 009c F040      		sbci r31,hi8(-(waiting_buffer+5))
 241 009e 8081      		ld r24,Z
 242 00a0 8F70      		andi r24,lo8(15)
 243 00a2 8061      		ori r24,lo8(16)
 244 00a4 8083      		st Z,r24
 350:./tmk_core/common/action_tapping.c **** 
 245               		.loc 1 350 13 is_stmt 1 view .LVU47
 246 00a6 80E0      		ldi r24,lo8(tapping_key)
 247 00a8 90E0      		ldi r25,hi8(tapping_key)
 248 00aa 0E94 0000 		call process_record
 249               	.LVL10:
 352:./tmk_core/common/action_tapping.c ****             debug_waiting_buffer();
 250               		.loc 1 352 57 view .LVU48
 352:./tmk_core/common/action_tapping.c ****             debug_waiting_buffer();
 251               		.loc 1 352 71 view .LVU49
 352:./tmk_core/common/action_tapping.c ****             debug_waiting_buffer();
 252               		.loc 1 352 85 view .LVU50
 353:./tmk_core/common/action_tapping.c ****             return;
 253               		.loc 1 353 13 view .LVU51
 254               	/* epilogue start */
 255               	.LBE42:
 357:./tmk_core/common/action_tapping.c **** 
 256               		.loc 1 357 1 is_stmt 0 view .LVU52
 257 00ae CF91      		pop r28
 258               	.LBB47:
 353:./tmk_core/common/action_tapping.c ****             return;
 259               		.loc 1 353 13 view .LVU53
 260 00b0 0C94 0000 		jmp debug_waiting_buffer
 261               	.LVL11:
 262               	.L14:
 347:./tmk_core/common/action_tapping.c ****             tapping_key.tap.count = 1;
 263               		.loc 1 347 17 discriminator 2 view .LVU54
 264 00b4 4150      		subi r20,1
 265 00b6 5109      		sbc r21,__zero_reg__
 346:./tmk_core/common/action_tapping.c ****                 WITHIN_TAPPING_TERM(waiting_buffer[i].event)) {
 266               		.loc 1 346 50 discriminator 2 view .LVU55
 267 00b8 483C      		cpi r20,-56
 268 00ba 5105      		cpc r21,__zero_reg__
 269 00bc 00F0      		brlo .L15
 270               	.L11:
 344:./tmk_core/common/action_tapping.c ****         if (IS_TAPPING_KEY(waiting_buffer[i].event.key) &&
 271               		.loc 1 344 71 is_stmt 1 view .LVU56
 344:./tmk_core/common/action_tapping.c ****         if (IS_TAPPING_KEY(waiting_buffer[i].event.key) &&
 272               		.loc 1 344 76 is_stmt 0 view .LVU57
 273 00be 0196      		adiw r24,1
 344:./tmk_core/common/action_tapping.c ****         if (IS_TAPPING_KEY(waiting_buffer[i].event.key) &&
 274               		.loc 1 344 81 view .LVU58
 275 00c0 8770      		andi r24,7
 276 00c2 9927      		clr r25
 277               	.LVL12:
 344:./tmk_core/common/action_tapping.c ****         if (IS_TAPPING_KEY(waiting_buffer[i].event.key) &&
 278               		.loc 1 344 45 is_stmt 1 view .LVU59
 279 00c4 2813      		cpse r18,r24
 280 00c6 00C0      		rjmp .L9
 281               	.LVL13:
 282               	.L5:
 283               	/* epilogue start */
 344:./tmk_core/common/action_tapping.c ****         if (IS_TAPPING_KEY(waiting_buffer[i].event.key) &&
 284               		.loc 1 344 45 is_stmt 0 view .LVU60
 285               	.LBE47:
 357:./tmk_core/common/action_tapping.c **** 
 286               		.loc 1 357 1 view .LVU61
 287 00c8 CF91      		pop r28
 288 00ca 0895      		ret
 289               	.L30:
 290               	.LBB48:
 344:./tmk_core/common/action_tapping.c ****         if (IS_TAPPING_KEY(waiting_buffer[i].event.key) &&
 291               		.loc 1 344 71 is_stmt 1 view .LVU62
 344:./tmk_core/common/action_tapping.c ****         if (IS_TAPPING_KEY(waiting_buffer[i].event.key) &&
 292               		.loc 1 344 76 is_stmt 0 view .LVU63
 293 00cc 0196      		adiw r24,1
 344:./tmk_core/common/action_tapping.c ****         if (IS_TAPPING_KEY(waiting_buffer[i].event.key) &&
 294               		.loc 1 344 81 view .LVU64
 295 00ce 8770      		andi r24,7
 296 00d0 9927      		clr r25
 297               	.LVL14:
 344:./tmk_core/common/action_tapping.c ****         if (IS_TAPPING_KEY(waiting_buffer[i].event.key) &&
 298               		.loc 1 344 45 is_stmt 1 view .LVU65
 299 00d2 2813      		cpse r18,r24
 300 00d4 00C0      		rjmp .L10
 301 00d6 00C0      		rjmp .L5
 302               	.LVL15:
 303               	.L8:
 344:./tmk_core/common/action_tapping.c ****         if (IS_TAPPING_KEY(waiting_buffer[i].event.key) &&
 304               		.loc 1 344 71 discriminator 2 view .LVU66
 344:./tmk_core/common/action_tapping.c ****         if (IS_TAPPING_KEY(waiting_buffer[i].event.key) &&
 305               		.loc 1 344 76 is_stmt 0 discriminator 2 view .LVU67
 306 00d8 0196      		adiw r24,1
 344:./tmk_core/common/action_tapping.c ****         if (IS_TAPPING_KEY(waiting_buffer[i].event.key) &&
 307               		.loc 1 344 71 discriminator 2 view .LVU68
 308 00da 8770      		andi r24,lo8(7)
 309               	.LVL16:
 344:./tmk_core/common/action_tapping.c ****         if (IS_TAPPING_KEY(waiting_buffer[i].event.key) &&
 310               		.loc 1 344 71 discriminator 2 view .LVU69
 311 00dc 00C0      		rjmp .L7
 312               	.LBE48:
 313               		.cfi_endproc
 314               	.LFE10:
 316               		.section	.text.process_tapping,"ax",@progbits
 318               	process_tapping:
 319               	.LVL17:
 320               	.LFB5:
  80:./tmk_core/common/action_tapping.c ****     keyevent_t event = keyp->event;
 321               		.loc 1 80 1 is_stmt 1 view -0
 322               		.cfi_startproc
  80:./tmk_core/common/action_tapping.c ****     keyevent_t event = keyp->event;
 323               		.loc 1 80 1 is_stmt 0 view .LVU71
 324 0000 AF92      		push r10
 325               	.LCFI4:
 326               		.cfi_def_cfa_offset 3
 327               		.cfi_offset 10, -2
 328 0002 BF92      		push r11
 329               	.LCFI5:
 330               		.cfi_def_cfa_offset 4
 331               		.cfi_offset 11, -3
 332 0004 DF92      		push r13
 333               	.LCFI6:
 334               		.cfi_def_cfa_offset 5
 335               		.cfi_offset 13, -4
 336 0006 EF92      		push r14
 337               	.LCFI7:
 338               		.cfi_def_cfa_offset 6
 339               		.cfi_offset 14, -5
 340 0008 FF92      		push r15
 341               	.LCFI8:
 342               		.cfi_def_cfa_offset 7
 343               		.cfi_offset 15, -6
 344 000a 0F93      		push r16
 345               	.LCFI9:
 346               		.cfi_def_cfa_offset 8
 347               		.cfi_offset 16, -7
 348 000c 1F93      		push r17
 349               	.LCFI10:
 350               		.cfi_def_cfa_offset 9
 351               		.cfi_offset 17, -8
 352 000e CF93      		push r28
 353               	.LCFI11:
 354               		.cfi_def_cfa_offset 10
 355               		.cfi_offset 28, -9
 356 0010 DF93      		push r29
 357               	.LCFI12:
 358               		.cfi_def_cfa_offset 11
 359               		.cfi_offset 29, -10
 360 0012 CDB7      		in r28,__SP_L__
 361 0014 DEB7      		in r29,__SP_H__
 362               	.LCFI13:
 363               		.cfi_def_cfa_register 28
 364 0016 2B97      		sbiw r28,11
 365               	.LCFI14:
 366               		.cfi_def_cfa_offset 22
 367 0018 0FB6      		in __tmp_reg__,__SREG__
 368 001a F894      		cli
 369 001c DEBF      		out __SP_H__,r29
 370 001e 0FBE      		out __SREG__,__tmp_reg__
 371 0020 CDBF      		out __SP_L__,r28
 372               	/* prologue: function */
 373               	/* frame size = 11 */
 374               	/* stack size = 20 */
 375               	.L__stack_usage = 20
 376 0022 8C01      		movw r16,r24
  81:./tmk_core/common/action_tapping.c **** 
 377               		.loc 1 81 5 is_stmt 1 view .LVU72
  81:./tmk_core/common/action_tapping.c **** 
 378               		.loc 1 81 16 is_stmt 0 view .LVU73
 379 0024 85E0      		ldi r24,lo8(5)
 380               	.LVL18:
  81:./tmk_core/common/action_tapping.c **** 
 381               		.loc 1 81 16 view .LVU74
 382 0026 F801      		movw r30,r16
 383 0028 DE01      		movw r26,r28
 384 002a 1796      		adiw r26,7
 385               		0:
 386 002c 0190      		ld r0,Z+
 387 002e 0D92      		st X+,r0
 388 0030 8A95      		dec r24
 389 0032 01F4      		brne 0b
 390 0034 D801      		movw r26,r16
 391 0036 1296      		adiw r26,2
 392 0038 FC90      		ld r15,X
 393 003a 1297      		sbiw r26,2
 394               	.LVL19:
  81:./tmk_core/common/action_tapping.c **** 
 395               		.loc 1 81 16 view .LVU75
 396 003c 2C91      		ld r18,X
 397               	.LVL20:
  81:./tmk_core/common/action_tapping.c **** 
 398               		.loc 1 81 16 view .LVU76
 399 003e 1196      		adiw r26,1
 400 0040 3C91      		ld r19,X
 401 0042 1197      		sbiw r26,1
 402               	.LVL21:
  81:./tmk_core/common/action_tapping.c **** 
 403               		.loc 1 81 16 view .LVU77
 404 0044 1396      		adiw r26,3
 405 0046 AD90      		ld r10,X+
 406 0048 BC90      		ld r11,X
 407               	.LVL22:
  84:./tmk_core/common/action_tapping.c ****         if (WITHIN_TAPPING_TERM(event)) {
 408               		.loc 1 84 5 is_stmt 1 view .LVU78
 409 004a 4091 0000 		lds r20,tapping_key
 410               	.LVL23:
  84:./tmk_core/common/action_tapping.c ****         if (WITHIN_TAPPING_TERM(event)) {
 411               		.loc 1 84 5 is_stmt 0 view .LVU79
 412 004e 5091 0000 		lds r21,tapping_key+1
 413               	.LVL24:
  84:./tmk_core/common/action_tapping.c ****         if (WITHIN_TAPPING_TERM(event)) {
 414               		.loc 1 84 5 view .LVU80
 415 0052 E091 0000 		lds r30,tapping_key+3
 416 0056 F091 0000 		lds r31,tapping_key+3+1
 417               	.LVL25:
 418               	.LBB75:
 419               	.LBI75:
 420               		.loc 2 49 20 is_stmt 1 view .LVU81
 421               	.LBB76:
 422               		.loc 2 49 51 view .LVU82
 423               		.loc 2 49 74 is_stmt 0 view .LVU83
 424 005a 3097      		sbiw r30,0
 425 005c 01F4      		brne .+2
 426 005e 00C0      		rjmp .L32
 427 0060 842F      		mov r24,r20
 428 0062 8523      		and r24,r21
 429 0064 8F3F      		cpi r24,lo8(-1)
 430 0066 01F4      		brne .+2
 431 0068 00C0      		rjmp .L32
 432               	.LVL26:
 433               		.loc 2 49 74 view .LVU84
 434               	.LBE76:
 435               	.LBE75:
  84:./tmk_core/common/action_tapping.c ****         if (WITHIN_TAPPING_TERM(event)) {
 436               		.loc 1 84 9 view .LVU85
 437 006a D090 0000 		lds r13,tapping_key+2
 438 006e C501      		movw r24,r10
 439 0070 8E1B      		sub r24,r30
 440 0072 9F0B      		sbc r25,r31
 441 0074 DD20      		tst r13
 442 0076 01F4      		brne .+2
 443 0078 00C0      		rjmp .L33
  85:./tmk_core/common/action_tapping.c ****             if (tapping_key.tap.count == 0) {
 444               		.loc 1 85 9 is_stmt 1 view .LVU86
  86:./tmk_core/common/action_tapping.c ****                 if (IS_TAPPING_KEY(event.key) && !event.pressed) {
 445               		.loc 1 86 39 is_stmt 0 view .LVU87
 446 007a 6091 0000 		lds r22,tapping_key+5
  85:./tmk_core/common/action_tapping.c ****             if (tapping_key.tap.count == 0) {
 447               		.loc 1 85 13 view .LVU88
 448 007e AE16      		cp r10,r30
 449 0080 BF06      		cpc r11,r31
 450 0082 00F0      		brlo .L34
  85:./tmk_core/common/action_tapping.c ****             if (tapping_key.tap.count == 0) {
 451               		.loc 1 85 12 discriminator 1 view .LVU89
 452 0084 883C      		cpi r24,-56
 453 0086 9105      		cpc r25,__zero_reg__
 454 0088 00F0      		brlo .L35
 455               	.L119:
 185:./tmk_core/common/action_tapping.c ****                 debug("Tapping: End. Timeout. Not tap(0): ");
 456               		.loc 1 185 13 is_stmt 1 view .LVU90
 185:./tmk_core/common/action_tapping.c ****                 debug("Tapping: End. Timeout. Not tap(0): ");
 457               		.loc 1 185 16 is_stmt 0 view .LVU91
 458 008a 6031      		cpi r22,lo8(16)
 459 008c 00F0      		brlo .+2
 460 008e 00C0      		rjmp .L41
 461               	.LBB77:
 186:./tmk_core/common/action_tapping.c ****                 debug_event(event); debug("\n");
 462               		.loc 1 186 61 is_stmt 1 view .LVU92
 187:./tmk_core/common/action_tapping.c ****                 process_record(&tapping_key);
 463               		.loc 1 187 17 view .LVU93
 464 0090 4F81      		ldd r20,Y+7
 465 0092 5885      		ldd r21,Y+8
 466 0094 6985      		ldd r22,Y+9
 467 0096 7A85      		ldd r23,Y+10
 468 0098 8B85      		ldd r24,Y+11
 469 009a 0E94 0000 		call debug_event
 470               	.LVL27:
 187:./tmk_core/common/action_tapping.c ****                 process_record(&tapping_key);
 471               		.loc 1 187 48 view .LVU94
 188:./tmk_core/common/action_tapping.c ****                 tapping_key = (keyrecord_t){};
 472               		.loc 1 188 17 view .LVU95
 473 009e 80E0      		ldi r24,lo8(tapping_key)
 474 00a0 90E0      		ldi r25,hi8(tapping_key)
 475 00a2 0E94 0000 		call process_record
 476               	.LVL28:
 189:./tmk_core/common/action_tapping.c ****                 debug_tapping_key();
 477               		.loc 1 189 17 view .LVU96
 478               	.L126:
 479               	.LBE77:
 480               	.LBB78:
 268:./tmk_core/common/action_tapping.c ****             tapping_key = (keyrecord_t){};
 481               		.loc 1 268 44 view .LVU97
 269:./tmk_core/common/action_tapping.c ****             debug_tapping_key();
 482               		.loc 1 269 13 view .LVU98
 269:./tmk_core/common/action_tapping.c ****             debug_tapping_key();
 483               		.loc 1 269 25 is_stmt 0 view .LVU99
 484 00a6 86E0      		ldi r24,lo8(6)
 485 00a8 E0E0      		ldi r30,lo8(tapping_key)
 486 00aa F0E0      		ldi r31,hi8(tapping_key)
 487 00ac DF01      		movw r26,r30
 488               		0:
 489 00ae 1D92      		st X+,__zero_reg__
 490 00b0 8A95      		dec r24
 491 00b2 01F4      		brne 0b
 270:./tmk_core/common/action_tapping.c ****             return false;
 492               		.loc 1 270 13 is_stmt 1 view .LVU100
 493 00b4 0E94 0000 		call debug_tapping_key
 494               	.LVL29:
 271:./tmk_core/common/action_tapping.c ****         }
 495               		.loc 1 271 13 view .LVU101
 496 00b8 00C0      		rjmp .L46
 497               	.LVL30:
 498               	.L34:
 271:./tmk_core/common/action_tapping.c ****         }
 499               		.loc 1 271 13 is_stmt 0 view .LVU102
 500               	.LBE78:
  85:./tmk_core/common/action_tapping.c ****             if (tapping_key.tap.count == 0) {
 501               		.loc 1 85 13 discriminator 2 view .LVU103
 502 00ba 0197      		sbiw r24,1
  85:./tmk_core/common/action_tapping.c ****             if (tapping_key.tap.count == 0) {
 503               		.loc 1 85 12 discriminator 2 view .LVU104
 504 00bc 883C      		cpi r24,-56
 505 00be 9105      		cpc r25,__zero_reg__
 506 00c0 00F4      		brsh .L119
  86:./tmk_core/common/action_tapping.c ****                 if (IS_TAPPING_KEY(event.key) && !event.pressed) {
 507               		.loc 1 86 13 is_stmt 1 view .LVU105
  86:./tmk_core/common/action_tapping.c ****                 if (IS_TAPPING_KEY(event.key) && !event.pressed) {
 508               		.loc 1 86 16 is_stmt 0 view .LVU106
 509 00c2 6031      		cpi r22,lo8(16)
 510 00c4 00F0      		brlo .L38
 511               	.L39:
 148:./tmk_core/common/action_tapping.c ****                     debug("Tapping: Tap release("); debug_dec(tapping_key.tap.count); debug(")\n");
 512               		.loc 1 148 21 view .LVU107
 513 00c6 3513      		cpse r19,r21
 514 00c8 00C0      		rjmp .L58
 148:./tmk_core/common/action_tapping.c ****                     debug("Tapping: Tap release("); debug_dec(tapping_key.tap.count); debug(")\n");
 515               		.loc 1 148 21 discriminator 2 view .LVU108
 516 00ca 4213      		cpse r20,r18
 517 00cc 00C0      		rjmp .L58
 148:./tmk_core/common/action_tapping.c ****                     debug("Tapping: Tap release("); debug_dec(tapping_key.tap.count); debug(")\n");
 518               		.loc 1 148 47 discriminator 3 view .LVU109
 519 00ce F110      		cpse r15,__zero_reg__
 520 00d0 00C0      		rjmp .L58
 149:./tmk_core/common/action_tapping.c ****                     keyp->tap = tapping_key.tap;
 521               		.loc 1 149 51 is_stmt 1 view .LVU110
 149:./tmk_core/common/action_tapping.c ****                     keyp->tap = tapping_key.tap;
 522               		.loc 1 149 85 view .LVU111
 149:./tmk_core/common/action_tapping.c ****                     keyp->tap = tapping_key.tap;
 523               		.loc 1 149 99 view .LVU112
 150:./tmk_core/common/action_tapping.c ****                     process_record(keyp);
 524               		.loc 1 150 21 view .LVU113
 150:./tmk_core/common/action_tapping.c ****                     process_record(keyp);
 525               		.loc 1 150 31 is_stmt 0 view .LVU114
 526 00d2 F801      		movw r30,r16
 527 00d4 6583      		std Z+5,r22
 151:./tmk_core/common/action_tapping.c ****                     tapping_key = *keyp;
 528               		.loc 1 151 21 is_stmt 1 view .LVU115
 529               	.L71:
 235:./tmk_core/common/action_tapping.c ****                         process_record(keyp);
 530               		.loc 1 235 53 view .LVU116
 235:./tmk_core/common/action_tapping.c ****                         process_record(keyp);
 531               		.loc 1 235 81 view .LVU117
 235:./tmk_core/common/action_tapping.c ****                         process_record(keyp);
 532               		.loc 1 235 95 view .LVU118
 236:./tmk_core/common/action_tapping.c ****                         tapping_key = *keyp;
 533               		.loc 1 236 25 view .LVU119
 534 00d6 C801      		movw r24,r16
 535 00d8 0E94 0000 		call process_record
 536               	.LVL31:
 237:./tmk_core/common/action_tapping.c ****                         debug_tapping_key();
 537               		.loc 1 237 25 view .LVU120
 237:./tmk_core/common/action_tapping.c ****                         debug_tapping_key();
 538               		.loc 1 237 37 is_stmt 0 view .LVU121
 539 00dc 86E0      		ldi r24,lo8(6)
 540 00de F801      		movw r30,r16
 541 00e0 A0E0      		ldi r26,lo8(tapping_key)
 542 00e2 B0E0      		ldi r27,hi8(tapping_key)
 543               		0:
 544 00e4 0190      		ld r0,Z+
 545 00e6 0D92      		st X+,r0
 546 00e8 8A95      		dec r24
 547 00ea 01F4      		brne 0b
 238:./tmk_core/common/action_tapping.c ****                         return true;
 548               		.loc 1 238 25 is_stmt 1 view .LVU122
 549 00ec 00C0      		rjmp .L131
 550               	.LVL32:
 551               	.L35:
  86:./tmk_core/common/action_tapping.c ****                 if (IS_TAPPING_KEY(event.key) && !event.pressed) {
 552               		.loc 1 86 13 view .LVU123
  86:./tmk_core/common/action_tapping.c ****                 if (IS_TAPPING_KEY(event.key) && !event.pressed) {
 553               		.loc 1 86 16 is_stmt 0 view .LVU124
 554 00ee 6031      		cpi r22,lo8(16)
 555 00f0 00F4      		brsh .L39
  87:./tmk_core/common/action_tapping.c ****                     // first tap!
 556               		.loc 1 87 56 view .LVU125
 557 00f2 EF2C      		mov r14,r15
  87:./tmk_core/common/action_tapping.c ****                     // first tap!
 558               		.loc 1 87 21 view .LVU126
 559 00f4 3513      		cpse r19,r21
 560 00f6 00C0      		rjmp .L42
 561               	.LVL33:
  87:./tmk_core/common/action_tapping.c ****                     // first tap!
 562               		.loc 1 87 21 view .LVU127
 563 00f8 4213      		cpse r20,r18
 564 00fa 00C0      		rjmp .L42
 565               	.L124:
  87:./tmk_core/common/action_tapping.c ****                     // first tap!
 566               		.loc 1 87 47 discriminator 3 view .LVU128
 567 00fc F110      		cpse r15,__zero_reg__
 568 00fe 00C0      		rjmp .L43
  89:./tmk_core/common/action_tapping.c ****                     tapping_key.tap.count = 1;
 569               		.loc 1 89 57 is_stmt 1 view .LVU129
  90:./tmk_core/common/action_tapping.c ****                     debug_tapping_key();
 570               		.loc 1 90 21 view .LVU130
  90:./tmk_core/common/action_tapping.c ****                     debug_tapping_key();
 571               		.loc 1 90 43 is_stmt 0 view .LVU131
 572 0100 8091 0000 		lds r24,tapping_key+5
 573 0104 8F70      		andi r24,lo8(15)
 574 0106 8061      		ori r24,lo8(16)
 575 0108 8093 0000 		sts tapping_key+5,r24
  91:./tmk_core/common/action_tapping.c ****                     process_record(&tapping_key);
 576               		.loc 1 91 21 is_stmt 1 view .LVU132
 577 010c 0E94 0000 		call debug_tapping_key
 578               	.LVL34:
  92:./tmk_core/common/action_tapping.c **** 
 579               		.loc 1 92 21 view .LVU133
 580 0110 80E0      		ldi r24,lo8(tapping_key)
 581 0112 90E0      		ldi r25,hi8(tapping_key)
 582 0114 0E94 0000 		call process_record
 583               	.LVL35:
  95:./tmk_core/common/action_tapping.c ****                     // enqueue
 584               		.loc 1 95 21 view .LVU134
  95:./tmk_core/common/action_tapping.c ****                     // enqueue
 585               		.loc 1 95 31 is_stmt 0 view .LVU135
 586 0118 8091 0000 		lds r24,tapping_key+5
 587 011c F801      		movw r30,r16
 588 011e 8583      		std Z+5,r24
  97:./tmk_core/common/action_tapping.c ****                 }
 589               		.loc 1 97 21 is_stmt 1 view .LVU136
 590               	.LVL36:
 591               	.L46:
  97:./tmk_core/common/action_tapping.c ****                 }
 592               		.loc 1 97 28 is_stmt 0 view .LVU137
 593 0120 E12C      		mov r14,__zero_reg__
 594 0122 00C0      		rjmp .L31
 595               	.LVL37:
 596               	.L38:
  87:./tmk_core/common/action_tapping.c ****                     // first tap!
 597               		.loc 1 87 56 view .LVU138
 598 0124 EF2C      		mov r14,r15
  87:./tmk_core/common/action_tapping.c ****                     // first tap!
 599               		.loc 1 87 21 view .LVU139
 600 0126 3513      		cpse r19,r21
 601 0128 00C0      		rjmp .L45
 602               	.LVL38:
  87:./tmk_core/common/action_tapping.c ****                     // first tap!
 603               		.loc 1 87 21 discriminator 2 view .LVU140
 604 012a 4217      		cp r20,r18
 605 012c 01F0      		breq .L124
 606               	.L45:
 117:./tmk_core/common/action_tapping.c ****                     // Modifier should be retained till end of this tapping.
 607               		.loc 1 117 22 is_stmt 1 view .LVU141
 608               	.LBB79:
 609               	.LBI79:
  50:./tmk_core/common/keyboard.h **** static inline bool IS_PRESSED(keyevent_t event) { return (!IS_NOEVENT(event) && event.pressed); }
  51:./tmk_core/common/keyboard.h **** static inline bool IS_RELEASED(keyevent_t event) { return (!IS_NOEVENT(event) && !event.pressed); }
 610               		.loc 2 51 20 view .LVU142
 611               	.LVL39:
 612               	.LBB80:
 613               		.loc 2 51 52 view .LVU143
 614               	.LBB81:
 615               	.LBI81:
  49:./tmk_core/common/keyboard.h **** static inline bool IS_PRESSED(keyevent_t event) { return (!IS_NOEVENT(event) && event.pressed); }
 616               		.loc 2 49 20 view .LVU144
 617               	.LBB82:
  49:./tmk_core/common/keyboard.h **** static inline bool IS_PRESSED(keyevent_t event) { return (!IS_NOEVENT(event) && event.pressed); }
 618               		.loc 2 49 51 view .LVU145
  49:./tmk_core/common/keyboard.h **** static inline bool IS_PRESSED(keyevent_t event) { return (!IS_NOEVENT(event) && event.pressed); }
 619               		.loc 2 49 74 is_stmt 0 view .LVU146
 620 012e AB28      		or r10,r11
 621 0130 01F4      		brne .+2
 622 0132 00C0      		rjmp .L47
 623               	.LVL40:
 624               	.L42:
  49:./tmk_core/common/keyboard.h **** static inline bool IS_PRESSED(keyevent_t event) { return (!IS_NOEVENT(event) && event.pressed); }
 625               		.loc 2 49 74 view .LVU147
 626 0134 832F      		mov r24,r19
 627 0136 8223      		and r24,r18
 628 0138 8F3F      		cpi r24,lo8(-1)
 629 013a 01F4      		brne .+2
 630 013c 00C0      		rjmp .L47
 631               	.LVL41:
  49:./tmk_core/common/keyboard.h **** static inline bool IS_PRESSED(keyevent_t event) { return (!IS_NOEVENT(event) && event.pressed); }
 632               		.loc 2 49 74 view .LVU148
 633               	.LBE82:
 634               	.LBE81:
 635               	.LBE80:
 636               	.LBE79:
 637               	.LBB84:
 638               	.LBB85:
 319:./tmk_core/common/action_tapping.c ****         if (KEYEQ(event.key, waiting_buffer[i].event.key) && event.pressed !=  waiting_buffer[i].ev
 639               		.loc 1 319 18 view .LVU149
 640 013e E091 0000 		lds r30,waiting_buffer_tail
 641               	.LVL42:
 319:./tmk_core/common/action_tapping.c ****         if (KEYEQ(event.key, waiting_buffer[i].event.key) && event.pressed !=  waiting_buffer[i].ev
 642               		.loc 1 319 45 view .LVU150
 643 0142 8091 0000 		lds r24,waiting_buffer_head
 320:./tmk_core/common/action_tapping.c ****             return true;
 644               		.loc 1 320 13 view .LVU151
 645 0146 96E0      		ldi r25,lo8(6)
 646               	.LBE85:
 647               	.LBE84:
 648               	.LBB87:
 649               	.LBB83:
 650               		.loc 2 51 79 view .LVU152
 651 0148 FF20      		tst r15
 652 014a 01F0      		breq .L48
 653               	.LVL43:
 654               	.L43:
 655               		.loc 2 51 79 view .LVU153
 656               	.LBE83:
 657               	.LBE87:
 140:./tmk_core/common/action_tapping.c ****                     }
 658               		.loc 1 140 25 is_stmt 1 view .LVU154
 140:./tmk_core/common/action_tapping.c ****                     }
 659               		.loc 1 140 53 is_stmt 0 view .LVU155
 660 014c 8091 0000 		lds r24,tapping_key+5
 661 0150 8160      		ori r24,lo8(1<<0)
 662 0152 8093 0000 		sts tapping_key+5,r24
 663 0156 00C0      		rjmp .L46
 664               	.LVL44:
 665               	.L50:
 666               	.LBB88:
 667               	.LBB86:
 320:./tmk_core/common/action_tapping.c ****             return true;
 668               		.loc 1 320 9 is_stmt 1 view .LVU156
 320:./tmk_core/common/action_tapping.c ****             return true;
 669               		.loc 1 320 13 is_stmt 0 view .LVU157
 670 0158 4E2F      		mov r20,r30
 671 015a 50E0      		ldi r21,0
 672 015c 9E9F      		mul r25,r30
 673 015e F001      		movw r30,r0
 674 0160 1124      		clr __zero_reg__
 675               	.LVL45:
 320:./tmk_core/common/action_tapping.c ****             return true;
 676               		.loc 1 320 13 view .LVU158
 677 0162 E050      		subi r30,lo8(-(waiting_buffer))
 678 0164 F040      		sbci r31,hi8(-(waiting_buffer))
 320:./tmk_core/common/action_tapping.c ****             return true;
 679               		.loc 1 320 12 view .LVU159
 680 0166 6181      		ldd r22,Z+1
 681 0168 3613      		cpse r19,r22
 682 016a 00C0      		rjmp .L49
 320:./tmk_core/common/action_tapping.c ****             return true;
 683               		.loc 1 320 13 view .LVU160
 684 016c 6081      		ld r22,Z
 685 016e 2613      		cpse r18,r22
 686 0170 00C0      		rjmp .L49
 320:./tmk_core/common/action_tapping.c ****             return true;
 687               		.loc 1 320 59 view .LVU161
 688 0172 6281      		ldd r22,Z+2
 689 0174 6111      		cpse r22,__zero_reg__
 690 0176 00C0      		rjmp .L46
 691               	.L49:
 319:./tmk_core/common/action_tapping.c ****         if (KEYEQ(event.key, waiting_buffer[i].event.key) && event.pressed !=  waiting_buffer[i].ev
 692               		.loc 1 319 71 is_stmt 1 view .LVU162
 319:./tmk_core/common/action_tapping.c ****         if (KEYEQ(event.key, waiting_buffer[i].event.key) && event.pressed !=  waiting_buffer[i].ev
 693               		.loc 1 319 76 is_stmt 0 view .LVU163
 694 0178 FA01      		movw r30,r20
 695 017a 3196      		adiw r30,1
 319:./tmk_core/common/action_tapping.c ****         if (KEYEQ(event.key, waiting_buffer[i].event.key) && event.pressed !=  waiting_buffer[i].ev
 696               		.loc 1 319 71 view .LVU164
 697 017c E770      		andi r30,lo8(7)
 698               	.LVL46:
 699               	.L48:
 319:./tmk_core/common/action_tapping.c ****         if (KEYEQ(event.key, waiting_buffer[i].event.key) && event.pressed !=  waiting_buffer[i].ev
 700               		.loc 1 319 45 is_stmt 1 view .LVU165
 701 017e E813      		cpse r30,r24
 702 0180 00C0      		rjmp .L50
 703               	.LVL47:
 319:./tmk_core/common/action_tapping.c ****         if (KEYEQ(event.key, waiting_buffer[i].event.key) && event.pressed !=  waiting_buffer[i].ev
 704               		.loc 1 319 45 is_stmt 0 view .LVU166
 705               	.LBE86:
 706               	.LBE88:
 707               	.LBB89:
 119:./tmk_core/common/action_tapping.c ****                     switch (action.kind.id) {
 708               		.loc 1 119 21 is_stmt 1 view .LVU167
 119:./tmk_core/common/action_tapping.c ****                     switch (action.kind.id) {
 709               		.loc 1 119 39 is_stmt 0 view .LVU168
 710 0182 8F81      		ldd r24,Y+7
 711 0184 9885      		ldd r25,Y+8
 712 0186 0E94 0000 		call layer_switch_get_action
 713               	.LVL48:
 120:./tmk_core/common/action_tapping.c ****                         case ACT_LMODS:
 714               		.loc 1 120 21 is_stmt 1 view .LVU169
 120:./tmk_core/common/action_tapping.c ****                         case ACT_LMODS:
 715               		.loc 1 120 40 is_stmt 0 view .LVU170
 716 018a 292F      		mov r18,r25
 717 018c 2295      		swap r18
 718 018e 2F70      		andi r18,lo8(15)
 120:./tmk_core/common/action_tapping.c ****                         case ACT_LMODS:
 719               		.loc 1 120 21 view .LVU171
 720 0190 9032      		cpi r25,lo8(32)
 721 0192 00F4      		brsh .L72
 123:./tmk_core/common/action_tapping.c ****                             if (IS_MOD(action.key.code)) return false;
 722               		.loc 1 123 29 is_stmt 1 view .LVU172
 123:./tmk_core/common/action_tapping.c ****                             if (IS_MOD(action.key.code)) return false;
 723               		.loc 1 123 33 is_stmt 0 view .LVU173
 724 0194 9F70      		andi r25,lo8(15)
 725               	.LVL49:
 123:./tmk_core/common/action_tapping.c ****                             if (IS_MOD(action.key.code)) return false;
 726               		.loc 1 123 32 view .LVU174
 727 0196 9923      		tst r25
 728 0198 01F0      		breq .L56
 123:./tmk_core/common/action_tapping.c ****                             if (IS_MOD(action.key.code)) return false;
 729               		.loc 1 123 49 discriminator 1 view .LVU175
 730 019a 8823      		tst r24
 731 019c 01F0      		breq .L31
 732               	.L56:
 129:./tmk_core/common/action_tapping.c ****                             break;
 733               		.loc 1 129 29 is_stmt 1 view .LVU176
 129:./tmk_core/common/action_tapping.c ****                             break;
 734               		.loc 1 129 33 is_stmt 0 view .LVU177
 735 019e 805E      		subi r24,lo8(-(32))
 736               	.LVL50:
 129:./tmk_core/common/action_tapping.c ****                             break;
 737               		.loc 1 129 32 view .LVU178
 738 01a0 8830      		cpi r24,lo8(8)
 739 01a2 00F0      		brlo .L31
 740 01a4 00C0      		rjmp .L52
 741               	.LVL51:
 742               	.L72:
 120:./tmk_core/common/action_tapping.c ****                         case ACT_LMODS:
 743               		.loc 1 120 21 view .LVU179
 744 01a6 225F      		subi r18,lo8(-(14))
 745 01a8 2F70      		andi r18,lo8(15)
 746 01aa 2230      		cpi r18,lo8(2)
 747 01ac 00F0      		brlo .L121
 748               	.LVL52:
 749               	.L52:
 133:./tmk_core/common/action_tapping.c ****                     process_record(keyp);
 750               		.loc 1 133 86 is_stmt 1 view .LVU180
 134:./tmk_core/common/action_tapping.c ****                     return true;
 751               		.loc 1 134 21 view .LVU181
 752 01ae C801      		movw r24,r16
 753               	.LVL53:
 134:./tmk_core/common/action_tapping.c ****                     return true;
 754               		.loc 1 134 21 is_stmt 0 view .LVU182
 755 01b0 0E94 0000 		call process_record
 756               	.LVL54:
 135:./tmk_core/common/action_tapping.c ****                 }
 757               		.loc 1 135 21 is_stmt 1 view .LVU183
 135:./tmk_core/common/action_tapping.c ****                 }
 758               		.loc 1 135 28 is_stmt 0 view .LVU184
 759 01b4 ED2C      		mov r14,r13
 760               	.LVL55:
 135:./tmk_core/common/action_tapping.c ****                 }
 761               		.loc 1 135 28 view .LVU185
 762 01b6 00C0      		rjmp .L31
 763               	.LVL56:
 764               	.L121:
 128:./tmk_core/common/action_tapping.c ****                             if (IS_MOD(action.key.code)) return false;
 765               		.loc 1 128 29 is_stmt 1 view .LVU186
 128:./tmk_core/common/action_tapping.c ****                             if (IS_MOD(action.key.code)) return false;
 766               		.loc 1 128 33 is_stmt 0 view .LVU187
 767 01b8 9F70      		andi r25,lo8(15)
 768               	.LVL57:
 128:./tmk_core/common/action_tapping.c ****                             if (IS_MOD(action.key.code)) return false;
 769               		.loc 1 128 32 view .LVU188
 770 01ba 9923      		tst r25
 771 01bc 01F0      		breq .L56
 128:./tmk_core/common/action_tapping.c ****                             if (IS_MOD(action.key.code)) return false;
 772               		.loc 1 128 49 discriminator 1 view .LVU189
 773 01be D801      		movw r26,r16
 774 01c0 1596      		adiw r26,5
 775 01c2 9C91      		ld r25,X
 776 01c4 9031      		cpi r25,lo8(16)
 777 01c6 00F4      		brsh .L56
 778               	.LVL58:
 779               	.L31:
 128:./tmk_core/common/action_tapping.c ****                             if (IS_MOD(action.key.code)) return false;
 780               		.loc 1 128 49 discriminator 1 view .LVU190
 781               	.LBE89:
 287:./tmk_core/common/action_tapping.c **** 
 782               		.loc 1 287 1 view .LVU191
 783 01c8 8E2D      		mov r24,r14
 784               	.LVL59:
 785               	/* epilogue start */
 287:./tmk_core/common/action_tapping.c **** 
 786               		.loc 1 287 1 view .LVU192
 787 01ca 2B96      		adiw r28,11
 788 01cc 0FB6      		in __tmp_reg__,__SREG__
 789 01ce F894      		cli
 790 01d0 DEBF      		out __SP_H__,r29
 791 01d2 0FBE      		out __SREG__,__tmp_reg__
 792 01d4 CDBF      		out __SP_L__,r28
 793 01d6 DF91      		pop r29
 794 01d8 CF91      		pop r28
 795 01da 1F91      		pop r17
 796 01dc 0F91      		pop r16
 797               	.LVL60:
 287:./tmk_core/common/action_tapping.c **** 
 798               		.loc 1 287 1 view .LVU193
 799 01de FF90      		pop r15
 800               	.LVL61:
 287:./tmk_core/common/action_tapping.c **** 
 801               		.loc 1 287 1 view .LVU194
 802 01e0 EF90      		pop r14
 803 01e2 DF90      		pop r13
 804 01e4 BF90      		pop r11
 805 01e6 AF90      		pop r10
 806 01e8 0895      		ret
 807               	.LVL62:
 808               	.L47:
 139:./tmk_core/common/action_tapping.c ****                         tapping_key.tap.interrupted = true;
 809               		.loc 1 139 21 is_stmt 1 view .LVU195
 139:./tmk_core/common/action_tapping.c ****                         tapping_key.tap.interrupted = true;
 810               		.loc 1 139 24 is_stmt 0 view .LVU196
 811 01ea FF20      		tst r15
 812 01ec 01F4      		brne .+2
 813 01ee 00C0      		rjmp .L46
 814 01f0 00C0      		rjmp .L43
 815               	.LVL63:
 816               	.L58:
 156:./tmk_core/common/action_tapping.c ****                     if (tapping_key.tap.count > 1) {
 817               		.loc 1 156 22 is_stmt 1 view .LVU197
 156:./tmk_core/common/action_tapping.c ****                     if (tapping_key.tap.count > 1) {
 818               		.loc 1 156 26 is_stmt 0 view .LVU198
 819 01f2 8F81      		ldd r24,Y+7
 820 01f4 9885      		ldd r25,Y+8
 821 01f6 0E94 0000 		call is_tap_key
 822               	.LVL64:
 156:./tmk_core/common/action_tapping.c ****                     if (tapping_key.tap.count > 1) {
 823               		.loc 1 156 25 view .LVU199
 824 01fa 8823      		tst r24
 825 01fc 01F4      		brne .+2
 826 01fe 00C0      		rjmp .L132
 156:./tmk_core/common/action_tapping.c ****                     if (tapping_key.tap.count > 1) {
 827               		.loc 1 156 48 discriminator 1 view .LVU200
 828 0200 FF20      		tst r15
 829 0202 01F4      		brne .+2
 830 0204 00C0      		rjmp .L132
 157:./tmk_core/common/action_tapping.c ****                         debug("Tapping: Start new tap with releasing last tap(>1).\n");
 831               		.loc 1 157 21 is_stmt 1 view .LVU201
 157:./tmk_core/common/action_tapping.c ****                         debug("Tapping: Start new tap with releasing last tap(>1).\n");
 832               		.loc 1 157 40 is_stmt 0 view .LVU202
 833 0206 8091 0000 		lds r24,tapping_key+5
 157:./tmk_core/common/action_tapping.c ****                         debug("Tapping: Start new tap with releasing last tap(>1).\n");
 834               		.loc 1 157 24 view .LVU203
 835 020a 8032      		cpi r24,lo8(32)
 836 020c 00F0      		brlo .L62
 837               	.LBB90:
 158:./tmk_core/common/action_tapping.c ****                         // unregister key
 838               		.loc 1 158 87 is_stmt 1 view .LVU204
 160:./tmk_core/common/action_tapping.c ****                                 .tap = tapping_key.tap,
 839               		.loc 1 160 25 view .LVU205
 160:./tmk_core/common/action_tapping.c ****                                 .tap = tapping_key.tap,
 840               		.loc 1 160 54 is_stmt 0 view .LVU206
 841 020e 2091 0000 		lds r18,tapping_key
 842 0212 3091 0000 		lds r19,tapping_key+1
 843 0216 3A83      		std Y+2,r19
 844 0218 2983      		std Y+1,r18
 845 021a 1B82      		std Y+3,__zero_reg__
 846 021c BD82      		std Y+5,r11
 847 021e AC82      		std Y+4,r10
 848 0220 8E83      		std Y+6,r24
 160:./tmk_core/common/action_tapping.c ****                                 .tap = tapping_key.tap,
 849               		.loc 1 160 25 view .LVU207
 850 0222 CE01      		movw r24,r28
 851 0224 0196      		adiw r24,1
 852 0226 0E94 0000 		call process_record
 853               	.LVL65:
 854               	.L62:
 160:./tmk_core/common/action_tapping.c ****                                 .tap = tapping_key.tap,
 855               		.loc 1 160 25 view .LVU208
 856               	.LBE90:
 167:./tmk_core/common/action_tapping.c ****                     }
 857               		.loc 1 167 69 is_stmt 1 view .LVU209
 169:./tmk_core/common/action_tapping.c ****                     waiting_buffer_scan_tap();
 858               		.loc 1 169 21 view .LVU210
 169:./tmk_core/common/action_tapping.c ****                     waiting_buffer_scan_tap();
 859               		.loc 1 169 33 is_stmt 0 view .LVU211
 860 022a 86E0      		ldi r24,lo8(6)
 861 022c F801      		movw r30,r16
 862 022e A0E0      		ldi r26,lo8(tapping_key)
 863 0230 B0E0      		ldi r27,hi8(tapping_key)
 864               		0:
 865 0232 0190      		ld r0,Z+
 866 0234 0D92      		st X+,r0
 867 0236 8A95      		dec r24
 868 0238 01F4      		brne 0b
 170:./tmk_core/common/action_tapping.c ****                     debug_tapping_key();
 869               		.loc 1 170 21 is_stmt 1 view .LVU212
 870 023a 0E94 0000 		call waiting_buffer_scan_tap
 871               	.LVL66:
 872               	.L131:
 171:./tmk_core/common/action_tapping.c ****                     return true;
 873               		.loc 1 171 21 view .LVU213
 874 023e 0E94 0000 		call debug_tapping_key
 875               	.LVL67:
 172:./tmk_core/common/action_tapping.c ****                 }
 876               		.loc 1 172 21 view .LVU214
 877               	.L59:
 154:./tmk_core/common/action_tapping.c ****                 }
 878               		.loc 1 154 28 is_stmt 0 view .LVU215
 879 0242 EE24      		clr r14
 880 0244 E394      		inc r14
 881               	.LVL68:
 154:./tmk_core/common/action_tapping.c ****                 }
 882               		.loc 1 154 28 view .LVU216
 883 0246 00C0      		rjmp .L31
 884               	.LVL69:
 885               	.L41:
 193:./tmk_core/common/action_tapping.c ****                     debug("Tapping: End. last timeout tap release(>0).");
 886               		.loc 1 193 21 view .LVU217
 887 0248 3513      		cpse r19,r21
 888 024a 00C0      		rjmp .L58
 193:./tmk_core/common/action_tapping.c ****                     debug("Tapping: End. last timeout tap release(>0).");
 889               		.loc 1 193 21 discriminator 2 view .LVU218
 890 024c 4213      		cpse r20,r18
 891 024e 00C0      		rjmp .L58
 193:./tmk_core/common/action_tapping.c ****                     debug("Tapping: End. last timeout tap release(>0).");
 892               		.loc 1 193 47 discriminator 3 view .LVU219
 893 0250 F110      		cpse r15,__zero_reg__
 894 0252 00C0      		rjmp .L58
 895               	.LBB91:
 194:./tmk_core/common/action_tapping.c ****                     keyp->tap = tapping_key.tap;
 896               		.loc 1 194 73 is_stmt 1 view .LVU220
 195:./tmk_core/common/action_tapping.c ****                     process_record(keyp);
 897               		.loc 1 195 21 view .LVU221
 195:./tmk_core/common/action_tapping.c ****                     process_record(keyp);
 898               		.loc 1 195 31 is_stmt 0 view .LVU222
 899 0254 F801      		movw r30,r16
 900 0256 6583      		std Z+5,r22
 196:./tmk_core/common/action_tapping.c ****                     tapping_key = (keyrecord_t){};
 901               		.loc 1 196 21 is_stmt 1 view .LVU223
 902 0258 C801      		movw r24,r16
 903 025a 0E94 0000 		call process_record
 904               	.LVL70:
 197:./tmk_core/common/action_tapping.c ****                     return true;
 905               		.loc 1 197 21 view .LVU224
 197:./tmk_core/common/action_tapping.c ****                     return true;
 906               		.loc 1 197 33 is_stmt 0 view .LVU225
 907 025e E0E0      		ldi r30,lo8(tapping_key)
 908 0260 F0E0      		ldi r31,hi8(tapping_key)
 909 0262 86E0      		ldi r24,lo8(6)
 910 0264 DF01      		movw r26,r30
 911               		0:
 912 0266 1D92      		st X+,__zero_reg__
 913 0268 8A95      		dec r24
 914 026a 01F4      		brne 0b
 198:./tmk_core/common/action_tapping.c ****                 }
 915               		.loc 1 198 21 is_stmt 1 view .LVU226
 916 026c 00C0      		rjmp .L59
 917               	.LVL71:
 918               	.L33:
 198:./tmk_core/common/action_tapping.c ****                 }
 919               		.loc 1 198 21 is_stmt 0 view .LVU227
 920               	.LBE91:
 228:./tmk_core/common/action_tapping.c ****             if (event.pressed) {
 921               		.loc 1 228 9 is_stmt 1 view .LVU228
 228:./tmk_core/common/action_tapping.c ****             if (event.pressed) {
 922               		.loc 1 228 13 is_stmt 0 view .LVU229
 923 026e AE16      		cp r10,r30
 924 0270 BF06      		cpc r11,r31
 925 0272 00F0      		brlo .L65
 926               	.L130:
 228:./tmk_core/common/action_tapping.c ****             if (event.pressed) {
 927               		.loc 1 228 12 discriminator 2 view .LVU230
 928 0274 883C      		cpi r24,-56
 929 0276 9105      		cpc r25,__zero_reg__
 930 0278 00F4      		brsh .L67
 229:./tmk_core/common/action_tapping.c ****                 if (IS_TAPPING_KEY(event.key)) {
 931               		.loc 1 229 13 is_stmt 1 view .LVU231
 229:./tmk_core/common/action_tapping.c ****                 if (IS_TAPPING_KEY(event.key)) {
 932               		.loc 1 229 16 is_stmt 0 view .LVU232
 933 027a FF20      		tst r15
 934 027c 01F0      		breq .L132
 230:./tmk_core/common/action_tapping.c ****                     if (!tapping_key.tap.interrupted && tapping_key.tap.count > 0) {
 935               		.loc 1 230 21 view .LVU233
 936 027e 3513      		cpse r19,r21
 937 0280 00C0      		rjmp .L69
 230:./tmk_core/common/action_tapping.c ****                     if (!tapping_key.tap.interrupted && tapping_key.tap.count > 0) {
 938               		.loc 1 230 21 discriminator 2 view .LVU234
 939 0282 4213      		cpse r20,r18
 940 0284 00C0      		rjmp .L69
 231:./tmk_core/common/action_tapping.c ****                         // sequential tap.
 941               		.loc 1 231 21 is_stmt 1 view .LVU235
 231:./tmk_core/common/action_tapping.c ****                         // sequential tap.
 942               		.loc 1 231 41 is_stmt 0 view .LVU236
 943 0286 8091 0000 		lds r24,tapping_key+5
 231:./tmk_core/common/action_tapping.c ****                         // sequential tap.
 944               		.loc 1 231 24 view .LVU237
 945 028a 80FD      		sbrc r24,0
 946 028c 00C0      		rjmp .L70
 231:./tmk_core/common/action_tapping.c ****                         // sequential tap.
 947               		.loc 1 231 54 discriminator 1 view .LVU238
 948 028e 8031      		cpi r24,lo8(16)
 949 0290 00F0      		brlo .L70
 233:./tmk_core/common/action_tapping.c ****                         if (keyp->tap.count < 15) keyp->tap.count += 1;
 950               		.loc 1 233 25 is_stmt 1 view .LVU239
 233:./tmk_core/common/action_tapping.c ****                         if (keyp->tap.count < 15) keyp->tap.count += 1;
 951               		.loc 1 233 35 is_stmt 0 view .LVU240
 952 0292 F801      		movw r30,r16
 953 0294 8583      		std Z+5,r24
 234:./tmk_core/common/action_tapping.c ****                         debug("Tapping: Tap press("); debug_dec(keyp->tap.count); debug(")\n");
 954               		.loc 1 234 25 is_stmt 1 view .LVU241
 231:./tmk_core/common/action_tapping.c ****                         // sequential tap.
 955               		.loc 1 231 79 is_stmt 0 view .LVU242
 956 0296 982F      		mov r25,r24
 957 0298 907F      		andi r25,lo8(-16)
 234:./tmk_core/common/action_tapping.c ****                         debug("Tapping: Tap press("); debug_dec(keyp->tap.count); debug(")\n");
 958               		.loc 1 234 28 view .LVU243
 959 029a 903F      		cpi r25,lo8(-16)
 960 029c 01F4      		brne .+2
 961 029e 00C0      		rjmp .L71
 234:./tmk_core/common/action_tapping.c ****                         debug("Tapping: Tap press("); debug_dec(keyp->tap.count); debug(")\n");
 962               		.loc 1 234 51 is_stmt 1 discriminator 1 view .LVU244
 234:./tmk_core/common/action_tapping.c ****                         debug("Tapping: Tap press("); debug_dec(keyp->tap.count); debug(")\n");
 963               		.loc 1 234 67 is_stmt 0 discriminator 1 view .LVU245
 964 02a0 982F      		mov r25,r24
 965 02a2 907F      		andi r25,lo8(-16)
 966 02a4 905F      		subi r25,lo8(-(16))
 967 02a6 8F70      		andi r24,lo8(15)
 968 02a8 892B      		or r24,r25
 969 02aa 8583      		std Z+5,r24
 970 02ac 00C0      		rjmp .L71
 971               	.L65:
 228:./tmk_core/common/action_tapping.c ****             if (event.pressed) {
 972               		.loc 1 228 13 discriminator 2 view .LVU246
 973 02ae 0197      		sbiw r24,1
 974 02b0 00C0      		rjmp .L130
 975               	.L70:
 242:./tmk_core/common/action_tapping.c ****                         return true;
 976               		.loc 1 242 25 is_stmt 1 view .LVU247
 242:./tmk_core/common/action_tapping.c ****                         return true;
 977               		.loc 1 242 37 is_stmt 0 view .LVU248
 978 02b2 86E0      		ldi r24,lo8(6)
 979 02b4 F801      		movw r30,r16
 980 02b6 A0E0      		ldi r26,lo8(tapping_key)
 981 02b8 B0E0      		ldi r27,hi8(tapping_key)
 982               		0:
 983 02ba 0190      		ld r0,Z+
 984 02bc 0D92      		st X+,r0
 985 02be 8A95      		dec r24
 986 02c0 01F4      		brne 0b
 243:./tmk_core/common/action_tapping.c ****                     }
 987               		.loc 1 243 25 is_stmt 1 view .LVU249
 243:./tmk_core/common/action_tapping.c ****                     }
 988               		.loc 1 243 32 is_stmt 0 view .LVU250
 989 02c2 00C0      		rjmp .L59
 990               	.L69:
 245:./tmk_core/common/action_tapping.c ****                     // Sequential tap can be interfered with other tap key.
 991               		.loc 1 245 24 is_stmt 1 view .LVU251
 245:./tmk_core/common/action_tapping.c ****                     // Sequential tap can be interfered with other tap key.
 992               		.loc 1 245 28 is_stmt 0 view .LVU252
 993 02c4 8F81      		ldd r24,Y+7
 994 02c6 9885      		ldd r25,Y+8
 995 02c8 0E94 0000 		call is_tap_key
 996               	.LVL72:
 245:./tmk_core/common/action_tapping.c ****                     // Sequential tap can be interfered with other tap key.
 997               		.loc 1 245 27 view .LVU253
 998 02cc 8111      		cpse r24,__zero_reg__
 999 02ce 00C0      		rjmp .L62
 255:./tmk_core/common/action_tapping.c ****                     process_record(keyp);
 1000               		.loc 1 255 21 is_stmt 1 view .LVU254
 255:./tmk_core/common/action_tapping.c ****                     process_record(keyp);
 1001               		.loc 1 255 49 is_stmt 0 view .LVU255
 1002 02d0 8091 0000 		lds r24,tapping_key+5
 1003 02d4 8160      		ori r24,lo8(1<<0)
 1004 02d6 8093 0000 		sts tapping_key+5,r24
 1005               	.L132:
 256:./tmk_core/common/action_tapping.c ****                     return true;
 1006               		.loc 1 256 21 is_stmt 1 view .LVU256
 1007 02da C801      		movw r24,r16
 1008 02dc 0E94 0000 		call process_record
 1009               	.LVL73:
 257:./tmk_core/common/action_tapping.c ****                 }
 1010               		.loc 1 257 21 view .LVU257
 257:./tmk_core/common/action_tapping.c ****                 }
 1011               		.loc 1 257 28 is_stmt 0 view .LVU258
 1012 02e0 00C0      		rjmp .L59
 1013               	.LVL74:
 1014               	.L67:
 1015               	.LBB92:
 267:./tmk_core/common/action_tapping.c ****             debug_event(event); debug("\n");
 1016               		.loc 1 267 70 is_stmt 1 view .LVU259
 268:./tmk_core/common/action_tapping.c ****             tapping_key = (keyrecord_t){};
 1017               		.loc 1 268 13 view .LVU260
 1018 02e2 4F81      		ldd r20,Y+7
 1019 02e4 5885      		ldd r21,Y+8
 1020 02e6 6985      		ldd r22,Y+9
 1021 02e8 7A85      		ldd r23,Y+10
 1022 02ea 8B85      		ldd r24,Y+11
 1023 02ec 0E94 0000 		call debug_event
 1024               	.LVL75:
 268:./tmk_core/common/action_tapping.c ****             tapping_key = (keyrecord_t){};
 1025               		.loc 1 268 13 is_stmt 0 view .LVU261
 1026 02f0 00C0      		rjmp .L126
 1027               	.LVL76:
 1028               	.L32:
 268:./tmk_core/common/action_tapping.c ****             tapping_key = (keyrecord_t){};
 1029               		.loc 1 268 13 view .LVU262
 1030               	.LBE92:
 276:./tmk_core/common/action_tapping.c ****             debug("Tapping: Start(Press tap key).\n");
 1031               		.loc 1 276 9 is_stmt 1 view .LVU263
 276:./tmk_core/common/action_tapping.c ****             debug("Tapping: Start(Press tap key).\n");
 1032               		.loc 1 276 12 is_stmt 0 view .LVU264
 1033 02f2 FF20      		tst r15
 1034 02f4 01F0      		breq .L132
 276:./tmk_core/common/action_tapping.c ****             debug("Tapping: Start(Press tap key).\n");
 1035               		.loc 1 276 30 discriminator 1 view .LVU265
 1036 02f6 8F81      		ldd r24,Y+7
 1037 02f8 9885      		ldd r25,Y+8
 1038 02fa 0E94 0000 		call is_tap_key
 1039               	.LVL77:
 276:./tmk_core/common/action_tapping.c ****             debug("Tapping: Start(Press tap key).\n");
 1040               		.loc 1 276 27 discriminator 1 view .LVU266
 1041 02fe 8823      		tst r24
 1042 0300 01F0      		breq .L132
 1043 0302 00C0      		rjmp .L62
 1044               		.cfi_endproc
 1045               	.LFE5:
 1047               		.section	.text.action_tapping_process,"ax",@progbits
 1048               	.global	action_tapping_process
 1050               	action_tapping_process:
 1051               	.LFB4:
  40:./tmk_core/common/action_tapping.c ****     if (process_tapping(&record)) {
 1052               		.loc 1 40 1 is_stmt 1 view -0
 1053               		.cfi_startproc
 1054 0000 1F93      		push r17
 1055               	.LCFI15:
 1056               		.cfi_def_cfa_offset 3
 1057               		.cfi_offset 17, -2
 1058 0002 CF93      		push r28
 1059               	.LCFI16:
 1060               		.cfi_def_cfa_offset 4
 1061               		.cfi_offset 28, -3
 1062 0004 DF93      		push r29
 1063               	.LCFI17:
 1064               		.cfi_def_cfa_offset 5
 1065               		.cfi_offset 29, -4
 1066 0006 CDB7      		in r28,__SP_L__
 1067 0008 DEB7      		in r29,__SP_H__
 1068               	.LCFI18:
 1069               		.cfi_def_cfa_register 28
 1070 000a 2C97      		sbiw r28,12
 1071               	.LCFI19:
 1072               		.cfi_def_cfa_offset 17
 1073 000c 0FB6      		in __tmp_reg__,__SREG__
 1074 000e F894      		cli
 1075 0010 DEBF      		out __SP_H__,r29
 1076 0012 0FBE      		out __SREG__,__tmp_reg__
 1077 0014 CDBF      		out __SP_L__,r28
 1078               	/* prologue: function */
 1079               	/* frame size = 12 */
 1080               	/* stack size = 15 */
 1081               	.L__stack_usage = 15
 1082 0016 4F83      		std Y+7,r20
 1083 0018 5887      		std Y+8,r21
 1084 001a 6987      		std Y+9,r22
 1085 001c 7A87      		std Y+10,r23
 1086 001e 8B87      		std Y+11,r24
 1087 0020 9C87      		std Y+12,r25
  41:./tmk_core/common/action_tapping.c ****         if (!IS_NOEVENT(record.event)) {
 1088               		.loc 1 41 5 view .LVU268
  41:./tmk_core/common/action_tapping.c ****         if (!IS_NOEVENT(record.event)) {
 1089               		.loc 1 41 9 is_stmt 0 view .LVU269
 1090 0022 CE01      		movw r24,r28
 1091 0024 0796      		adiw r24,7
 1092 0026 0E94 0000 		call process_tapping
 1093               	.LVL78:
  41:./tmk_core/common/action_tapping.c ****         if (!IS_NOEVENT(record.event)) {
 1094               		.loc 1 41 8 view .LVU270
 1095 002a 8823      		tst r24
 1096 002c 01F0      		breq .L139
  42:./tmk_core/common/action_tapping.c ****             debug("processed: "); debug_record(record); debug("\n");
 1097               		.loc 1 42 9 is_stmt 1 view .LVU271
 1098               	.LVL79:
 1099               	.LBB102:
 1100               	.LBI102:
  49:./tmk_core/common/keyboard.h **** static inline bool IS_PRESSED(keyevent_t event) { return (!IS_NOEVENT(event) && event.pressed); }
 1101               		.loc 2 49 20 view .LVU272
 1102               	.LBB103:
  49:./tmk_core/common/keyboard.h **** static inline bool IS_PRESSED(keyevent_t event) { return (!IS_NOEVENT(event) && event.pressed); }
 1103               		.loc 2 49 51 view .LVU273
  49:./tmk_core/common/keyboard.h **** static inline bool IS_PRESSED(keyevent_t event) { return (!IS_NOEVENT(event) && event.pressed); }
 1104               		.loc 2 49 74 is_stmt 0 view .LVU274
 1105 002e 8A85      		ldd r24,Y+10
 1106 0030 9B85      		ldd r25,Y+11
 1107 0032 892B      		or r24,r25
 1108 0034 01F0      		breq .L140
 1109 0036 5885      		ldd r21,Y+8
 1110 0038 4F81      		ldd r20,Y+7
 1111 003a 852F      		mov r24,r21
 1112 003c 8423      		and r24,r20
 1113 003e 8F3F      		cpi r24,lo8(-1)
 1114 0040 01F0      		breq .L140
 1115               	.LVL80:
  49:./tmk_core/common/keyboard.h **** static inline bool IS_PRESSED(keyevent_t event) { return (!IS_NOEVENT(event) && event.pressed); }
 1116               		.loc 2 49 74 view .LVU275
 1117               	.LBE103:
 1118               	.LBE102:
  43:./tmk_core/common/action_tapping.c ****         }
 1119               		.loc 1 43 33 is_stmt 1 view .LVU276
  43:./tmk_core/common/action_tapping.c ****         }
 1120               		.loc 1 43 35 view .LVU277
 1121 0042 6985      		ldd r22,Y+9
 1122 0044 7A85      		ldd r23,Y+10
 1123 0046 8B85      		ldd r24,Y+11
 1124 0048 9C85      		ldd r25,Y+12
 1125 004a 0E94 0000 		call debug_record
 1126               	.LVL81:
 1127               	.L140:
  60:./tmk_core/common/action_tapping.c ****             debug("processed: waiting_buffer["); debug_dec(waiting_buffer_tail); debug("] = ");
 1128               		.loc 1 60 13 is_stmt 0 discriminator 1 view .LVU278
 1129 004e 16E0      		ldi r17,lo8(6)
 1130               	.L141:
  59:./tmk_core/common/action_tapping.c ****         if (process_tapping(&waiting_buffer[waiting_buffer_tail])) {
 1131               		.loc 1 59 32 is_stmt 1 discriminator 1 view .LVU279
 1132 0050 8091 0000 		lds r24,waiting_buffer_tail
 1133 0054 9091 0000 		lds r25,waiting_buffer_head
 1134 0058 8913      		cpse r24,r25
 1135 005a 00C0      		rjmp .L146
 1136               	.L138:
 1137               	/* epilogue start */
  70:./tmk_core/common/action_tapping.c **** 
 1138               		.loc 1 70 1 is_stmt 0 view .LVU280
 1139 005c 2C96      		adiw r28,12
 1140 005e 0FB6      		in __tmp_reg__,__SREG__
 1141 0060 F894      		cli
 1142 0062 DEBF      		out __SP_H__,r29
 1143 0064 0FBE      		out __SREG__,__tmp_reg__
 1144 0066 CDBF      		out __SP_L__,r28
 1145 0068 DF91      		pop r29
 1146 006a CF91      		pop r28
 1147 006c 1F91      		pop r17
 1148 006e 0895      		ret
 1149               	.L139:
  46:./tmk_core/common/action_tapping.c ****             // clear all in case of overflow.
 1150               		.loc 1 46 9 is_stmt 1 view .LVU281
 1151 0070 86E0      		ldi r24,lo8(6)
 1152 0072 FE01      		movw r30,r28
 1153 0074 3796      		adiw r30,7
 1154 0076 DE01      		movw r26,r28
 1155 0078 1196      		adiw r26,1
 1156               		0:
 1157 007a 0190      		ld r0,Z+
 1158 007c 0D92      		st X+,r0
 1159 007e 8A95      		dec r24
 1160 0080 01F4      		brne 0b
 1161 0082 8F81      		ldd r24,Y+7
 1162               	.LVL82:
  46:./tmk_core/common/action_tapping.c ****             // clear all in case of overflow.
 1163               		.loc 1 46 9 is_stmt 0 view .LVU282
 1164 0084 9885      		ldd r25,Y+8
 1165               	.LVL83:
 1166               	.LBB104:
 1167               	.LBI104:
 293:./tmk_core/common/action_tapping.c **** {
 1168               		.loc 1 293 6 is_stmt 1 view .LVU283
 1169               	.LBB105:
 295:./tmk_core/common/action_tapping.c ****         return true;
 1170               		.loc 1 295 5 view .LVU284
 1171               	.LBB106:
 1172               	.LBI106:
  49:./tmk_core/common/keyboard.h **** static inline bool IS_PRESSED(keyevent_t event) { return (!IS_NOEVENT(event) && event.pressed); }
 1173               		.loc 2 49 20 view .LVU285
 1174               	.LBB107:
  49:./tmk_core/common/keyboard.h **** static inline bool IS_PRESSED(keyevent_t event) { return (!IS_NOEVENT(event) && event.pressed); }
 1175               		.loc 2 49 51 view .LVU286
 1176               	.LBE107:
 1177               	.LBE106:
 299:./tmk_core/common/action_tapping.c ****         debug("waiting_buffer_enq: Over flow.\n");
 1178               		.loc 1 299 30 is_stmt 0 view .LVU287
 1179 0086 2091 0000 		lds r18,waiting_buffer_head
 299:./tmk_core/common/action_tapping.c ****         debug("waiting_buffer_enq: Over flow.\n");
 1180               		.loc 1 299 57 view .LVU288
 1181 008a 4091 0000 		lds r20,waiting_buffer_tail
 1182               	.LBB109:
 1183               	.LBB108:
  49:./tmk_core/common/keyboard.h **** static inline bool IS_PRESSED(keyevent_t event) { return (!IS_NOEVENT(event) && event.pressed); }
 1184               		.loc 2 49 74 view .LVU289
 1185 008e 6A85      		ldd r22,Y+10
 1186 0090 7B85      		ldd r23,Y+11
 1187 0092 672B      		or r22,r23
 1188 0094 01F0      		breq .L140
 1189 0096 8923      		and r24,r25
 1190               	.LVL84:
  49:./tmk_core/common/keyboard.h **** static inline bool IS_PRESSED(keyevent_t event) { return (!IS_NOEVENT(event) && event.pressed); }
 1191               		.loc 2 49 74 view .LVU290
 1192 0098 8F3F      		cpi r24,lo8(-1)
 1193 009a 01F0      		breq .L140
 1194               	.LVL85:
  49:./tmk_core/common/keyboard.h **** static inline bool IS_PRESSED(keyevent_t event) { return (!IS_NOEVENT(event) && event.pressed); }
 1195               		.loc 2 49 74 view .LVU291
 1196               	.LBE108:
 1197               	.LBE109:
 299:./tmk_core/common/action_tapping.c ****         debug("waiting_buffer_enq: Over flow.\n");
 1198               		.loc 1 299 5 is_stmt 1 view .LVU292
 299:./tmk_core/common/action_tapping.c ****         debug("waiting_buffer_enq: Over flow.\n");
 1199               		.loc 1 299 30 is_stmt 0 view .LVU293
 1200 009c 30E0      		ldi r19,0
 1201 009e C901      		movw r24,r18
 1202 00a0 0196      		adiw r24,1
 299:./tmk_core/common/action_tapping.c ****         debug("waiting_buffer_enq: Over flow.\n");
 1203               		.loc 1 299 35 view .LVU294
 1204 00a2 8770      		andi r24,7
 1205 00a4 9927      		clr r25
 299:./tmk_core/common/action_tapping.c ****         debug("waiting_buffer_enq: Over flow.\n");
 1206               		.loc 1 299 57 view .LVU295
 1207 00a6 50E0      		ldi r21,0
 299:./tmk_core/common/action_tapping.c ****         debug("waiting_buffer_enq: Over flow.\n");
 1208               		.loc 1 299 8 view .LVU296
 1209 00a8 8417      		cp r24,r20
 1210 00aa 9507      		cpc r25,r21
 1211 00ac 01F4      		brne .L144
 1212               	.LVL86:
 299:./tmk_core/common/action_tapping.c ****         debug("waiting_buffer_enq: Over flow.\n");
 1213               		.loc 1 299 8 view .LVU297
 1214               	.LBE105:
 1215               	.LBE104:
 1216               	.LBB111:
  48:./tmk_core/common/action_tapping.c ****             clear_keyboard();
 1217               		.loc 1 48 50 is_stmt 1 view .LVU298
  49:./tmk_core/common/action_tapping.c ****             waiting_buffer_clear();
 1218               		.loc 1 49 13 view .LVU299
 1219 00ae 0E94 0000 		call clear_keyboard
 1220               	.LVL87:
  50:./tmk_core/common/action_tapping.c ****             tapping_key = (keyrecord_t){};
 1221               		.loc 1 50 13 view .LVU300
 1222               	.LBB112:
 1223               	.LBI112:
 311:./tmk_core/common/action_tapping.c **** {
 1224               		.loc 1 311 6 view .LVU301
 1225               	.LBB113:
 313:./tmk_core/common/action_tapping.c ****     waiting_buffer_tail = 0;
 1226               		.loc 1 313 5 view .LVU302
 313:./tmk_core/common/action_tapping.c ****     waiting_buffer_tail = 0;
 1227               		.loc 1 313 25 is_stmt 0 view .LVU303
 1228 00b2 1092 0000 		sts waiting_buffer_head,__zero_reg__
 314:./tmk_core/common/action_tapping.c **** }
 1229               		.loc 1 314 5 is_stmt 1 view .LVU304
 314:./tmk_core/common/action_tapping.c **** }
 1230               		.loc 1 314 25 is_stmt 0 view .LVU305
 1231 00b6 1092 0000 		sts waiting_buffer_tail,__zero_reg__
 1232               	.LBE113:
 1233               	.LBE112:
  51:./tmk_core/common/action_tapping.c ****         }
 1234               		.loc 1 51 13 is_stmt 1 view .LVU306
  51:./tmk_core/common/action_tapping.c ****         }
 1235               		.loc 1 51 25 is_stmt 0 view .LVU307
 1236 00ba 86E0      		ldi r24,lo8(6)
 1237 00bc E0E0      		ldi r30,lo8(tapping_key)
 1238 00be F0E0      		ldi r31,hi8(tapping_key)
 1239 00c0 DF01      		movw r26,r30
 1240               		0:
 1241 00c2 1D92      		st X+,__zero_reg__
 1242 00c4 8A95      		dec r24
 1243 00c6 01F4      		brne 0b
 1244 00c8 00C0      		rjmp .L140
 1245               	.LVL88:
 1246               	.L144:
  51:./tmk_core/common/action_tapping.c ****         }
 1247               		.loc 1 51 25 view .LVU308
 1248               	.LBE111:
 1249               	.LBB114:
 1250               	.LBB110:
 304:./tmk_core/common/action_tapping.c ****     waiting_buffer_head = (waiting_buffer_head + 1) % WAITING_BUFFER_SIZE;
 1251               		.loc 1 304 5 is_stmt 1 view .LVU309
 304:./tmk_core/common/action_tapping.c ****     waiting_buffer_head = (waiting_buffer_head + 1) % WAITING_BUFFER_SIZE;
 1252               		.loc 1 304 41 is_stmt 0 view .LVU310
 1253 00ca 96E0      		ldi r25,lo8(6)
 1254               	.LVL89:
 304:./tmk_core/common/action_tapping.c ****     waiting_buffer_head = (waiting_buffer_head + 1) % WAITING_BUFFER_SIZE;
 1255               		.loc 1 304 41 view .LVU311
 1256 00cc 929F      		mul r25,r18
 1257 00ce D001      		movw r26,r0
 1258 00d0 939F      		mul r25,r19
 1259 00d2 B00D      		add r27,r0
 1260 00d4 1124      		clr __zero_reg__
 1261 00d6 A050      		subi r26,lo8(-(waiting_buffer))
 1262 00d8 B040      		sbci r27,hi8(-(waiting_buffer))
 1263 00da FE01      		movw r30,r28
 1264 00dc 3196      		adiw r30,1
 1265               		0:
 1266 00de 0190      		ld r0,Z+
 1267 00e0 0D92      		st X+,r0
 1268 00e2 9A95      		dec r25
 1269 00e4 01F4      		brne 0b
 305:./tmk_core/common/action_tapping.c **** 
 1270               		.loc 1 305 5 is_stmt 1 view .LVU312
 305:./tmk_core/common/action_tapping.c **** 
 1271               		.loc 1 305 25 is_stmt 0 view .LVU313
 1272 00e6 8093 0000 		sts waiting_buffer_head,r24
 307:./tmk_core/common/action_tapping.c ****     return true;
 1273               		.loc 1 307 34 is_stmt 1 view .LVU314
 307:./tmk_core/common/action_tapping.c ****     return true;
 1274               		.loc 1 307 36 view .LVU315
 1275 00ea 0E94 0000 		call debug_waiting_buffer
 1276               	.LVL90:
 308:./tmk_core/common/action_tapping.c **** }
 1277               		.loc 1 308 5 view .LVU316
 308:./tmk_core/common/action_tapping.c **** }
 1278               		.loc 1 308 5 is_stmt 0 view .LVU317
 1279 00ee 00C0      		rjmp .L140
 1280               	.L146:
 1281               	.LBE110:
 1282               	.LBE114:
  60:./tmk_core/common/action_tapping.c ****             debug("processed: waiting_buffer["); debug_dec(waiting_buffer_tail); debug("] = ");
 1283               		.loc 1 60 9 is_stmt 1 view .LVU318
  60:./tmk_core/common/action_tapping.c ****             debug("processed: waiting_buffer["); debug_dec(waiting_buffer_tail); debug("] = ");
 1284               		.loc 1 60 13 is_stmt 0 view .LVU319
 1285 00f0 189F      		mul r17,r24
 1286 00f2 C001      		movw r24,r0
 1287 00f4 1124      		clr __zero_reg__
 1288 00f6 8050      		subi r24,lo8(-(waiting_buffer))
 1289 00f8 9040      		sbci r25,hi8(-(waiting_buffer))
 1290 00fa 0E94 0000 		call process_tapping
 1291               	.LVL91:
  60:./tmk_core/common/action_tapping.c ****             debug("processed: waiting_buffer["); debug_dec(waiting_buffer_tail); debug("] = ");
 1292               		.loc 1 60 12 view .LVU320
 1293 00fe 8823      		tst r24
 1294 0100 01F4      		brne .+2
 1295 0102 00C0      		rjmp .L138
  61:./tmk_core/common/action_tapping.c ****             debug_record(waiting_buffer[waiting_buffer_tail]); debug("\n\n");
 1296               		.loc 1 61 48 is_stmt 1 view .LVU321
  61:./tmk_core/common/action_tapping.c ****             debug_record(waiting_buffer[waiting_buffer_tail]); debug("\n\n");
 1297               		.loc 1 61 80 view .LVU322
  61:./tmk_core/common/action_tapping.c ****             debug_record(waiting_buffer[waiting_buffer_tail]); debug("\n\n");
 1298               		.loc 1 61 95 view .LVU323
  62:./tmk_core/common/action_tapping.c ****         } else {
 1299               		.loc 1 62 13 view .LVU324
 1300 0104 E091 0000 		lds r30,waiting_buffer_tail
 1301 0108 1E9F      		mul r17,r30
 1302 010a F001      		movw r30,r0
 1303 010c 1124      		clr __zero_reg__
 1304 010e E050      		subi r30,lo8(-(waiting_buffer))
 1305 0110 F040      		sbci r31,hi8(-(waiting_buffer))
 1306 0112 4081      		ld r20,Z
 1307 0114 5181      		ldd r21,Z+1
 1308 0116 6281      		ldd r22,Z+2
 1309 0118 7381      		ldd r23,Z+3
 1310 011a 8481      		ldd r24,Z+4
 1311 011c 9581      		ldd r25,Z+5
 1312 011e 0E94 0000 		call debug_record
 1313               	.LVL92:
  62:./tmk_core/common/action_tapping.c ****         } else {
 1314               		.loc 1 62 77 view .LVU325
  59:./tmk_core/common/action_tapping.c ****         if (process_tapping(&waiting_buffer[waiting_buffer_tail])) {
 1315               		.loc 1 59 76 view .LVU326
  59:./tmk_core/common/action_tapping.c ****         if (process_tapping(&waiting_buffer[waiting_buffer_tail])) {
 1316               		.loc 1 59 99 is_stmt 0 view .LVU327
 1317 0122 8091 0000 		lds r24,waiting_buffer_tail
 1318 0126 90E0      		ldi r25,0
 1319 0128 0196      		adiw r24,1
  59:./tmk_core/common/action_tapping.c ****         if (process_tapping(&waiting_buffer[waiting_buffer_tail])) {
 1320               		.loc 1 59 104 view .LVU328
 1321 012a 8770      		andi r24,7
 1322 012c 9927      		clr r25
  59:./tmk_core/common/action_tapping.c ****         if (process_tapping(&waiting_buffer[waiting_buffer_tail])) {
 1323               		.loc 1 59 76 view .LVU329
 1324 012e 8093 0000 		sts waiting_buffer_tail,r24
 1325 0132 00C0      		rjmp .L141
 1326               		.cfi_endproc
 1327               	.LFE4:
 1329               		.section	.bss.waiting_buffer_tail,"aw",@nobits
 1332               	waiting_buffer_tail:
 1333 0000 00        		.zero	1
 1334               		.section	.bss.waiting_buffer_head,"aw",@nobits
 1337               	waiting_buffer_head:
 1338 0000 00        		.zero	1
 1339               		.section	.bss.waiting_buffer,"aw",@nobits
 1342               	waiting_buffer:
 1343 0000 0000 0000 		.zero	48
 1343      0000 0000 
 1343      0000 0000 
 1343      0000 0000 
 1343      0000 0000 
 1344               		.section	.bss.tapping_key,"aw",@nobits
 1347               	tapping_key:
 1348 0000 0000 0000 		.zero	6
 1348      0000 
 1349               		.text
 1350               	.Letext0:
 1351               		.file 3 "/usr/avr/include/stdint.h"
 1352               		.file 4 "./tmk_core/common/keycode.h"
 1353               		.file 5 "./tmk_core/common/action_code.h"
 1354               		.file 6 "./tmk_core/common/action.h"
 1355               		.file 7 "./tmk_core/common/action_layer.h"