   1               		.file	"bootmagic.c"
   2               	__SP_H__ = 0x3e
   3               	__SP_L__ = 0x3d
   4               	__SREG__ = 0x3f
   5               	__tmp_reg__ = 0
   6               	__zero_reg__ = 1
   7               		.text
   8               	.Ltext0:
   9               		.cfi_sections	.debug_frame
  10               		.file 1 "./tmk_core/common/bootmagic.c"
  11               		.section	.text.scan_keycode,"ax",@progbits
  13               	scan_keycode:
  14               	.LVL0:
  15               	.LFB108:
   1:./tmk_core/common/bootmagic.c **** #include <stdint.h>
   2:./tmk_core/common/bootmagic.c **** #include <stdbool.h>
   3:./tmk_core/common/bootmagic.c **** #include "wait.h"
   4:./tmk_core/common/bootmagic.c **** #include "matrix.h"
   5:./tmk_core/common/bootmagic.c **** #include "bootloader.h"
   6:./tmk_core/common/bootmagic.c **** #include "debug.h"
   7:./tmk_core/common/bootmagic.c **** #include "keymap.h"
   8:./tmk_core/common/bootmagic.c **** #include "host.h"
   9:./tmk_core/common/bootmagic.c **** #include "action_layer.h"
  10:./tmk_core/common/bootmagic.c **** #include "eeconfig.h"
  11:./tmk_core/common/bootmagic.c **** #include "bootmagic.h"
  12:./tmk_core/common/bootmagic.c **** 
  13:./tmk_core/common/bootmagic.c **** keymap_config_t keymap_config;
  14:./tmk_core/common/bootmagic.c **** 
  15:./tmk_core/common/bootmagic.c **** void bootmagic(void)
  16:./tmk_core/common/bootmagic.c **** {
  17:./tmk_core/common/bootmagic.c ****     /* check signature */
  18:./tmk_core/common/bootmagic.c ****     if (!eeconfig_is_enabled()) {
  19:./tmk_core/common/bootmagic.c ****         eeconfig_init();
  20:./tmk_core/common/bootmagic.c ****     }
  21:./tmk_core/common/bootmagic.c **** 
  22:./tmk_core/common/bootmagic.c ****     /* do scans in case of bounce */
  23:./tmk_core/common/bootmagic.c ****     print("bootmagic scan: ... ");
  24:./tmk_core/common/bootmagic.c ****     uint8_t scan = 100;
  25:./tmk_core/common/bootmagic.c ****     while (scan--) { matrix_scan(); wait_ms(10); }
  26:./tmk_core/common/bootmagic.c ****     print("done.\n");
  27:./tmk_core/common/bootmagic.c **** 
  28:./tmk_core/common/bootmagic.c ****     /* bootmagic skip */
  29:./tmk_core/common/bootmagic.c ****     if (bootmagic_scan_keycode(BOOTMAGIC_KEY_SKIP)) {
  30:./tmk_core/common/bootmagic.c ****         return;
  31:./tmk_core/common/bootmagic.c ****     }
  32:./tmk_core/common/bootmagic.c **** 
  33:./tmk_core/common/bootmagic.c ****     /* eeconfig clear */
  34:./tmk_core/common/bootmagic.c ****     if (bootmagic_scan_keycode(BOOTMAGIC_KEY_EEPROM_CLEAR)) {
  35:./tmk_core/common/bootmagic.c ****         eeconfig_init();
  36:./tmk_core/common/bootmagic.c ****     }
  37:./tmk_core/common/bootmagic.c **** 
  38:./tmk_core/common/bootmagic.c ****     /* bootloader */
  39:./tmk_core/common/bootmagic.c ****     if (bootmagic_scan_keycode(BOOTMAGIC_KEY_BOOTLOADER)) {
  40:./tmk_core/common/bootmagic.c ****         bootloader_jump();
  41:./tmk_core/common/bootmagic.c ****     }
  42:./tmk_core/common/bootmagic.c **** 
  43:./tmk_core/common/bootmagic.c ****     /* debug enable */
  44:./tmk_core/common/bootmagic.c ****     debug_config.raw = eeconfig_read_debug();
  45:./tmk_core/common/bootmagic.c ****     if (bootmagic_scan_keycode(BOOTMAGIC_KEY_DEBUG_ENABLE)) {
  46:./tmk_core/common/bootmagic.c ****         if (bootmagic_scan_keycode(BOOTMAGIC_KEY_DEBUG_MATRIX)) {
  47:./tmk_core/common/bootmagic.c ****             debug_config.matrix = !debug_config.matrix;
  48:./tmk_core/common/bootmagic.c ****         } else if (bootmagic_scan_keycode(BOOTMAGIC_KEY_DEBUG_KEYBOARD)) {
  49:./tmk_core/common/bootmagic.c ****             debug_config.keyboard = !debug_config.keyboard;
  50:./tmk_core/common/bootmagic.c ****         } else if (bootmagic_scan_keycode(BOOTMAGIC_KEY_DEBUG_MOUSE)) {
  51:./tmk_core/common/bootmagic.c ****             debug_config.mouse = !debug_config.mouse;
  52:./tmk_core/common/bootmagic.c ****         } else {
  53:./tmk_core/common/bootmagic.c ****             debug_config.enable = !debug_config.enable;
  54:./tmk_core/common/bootmagic.c ****         }
  55:./tmk_core/common/bootmagic.c ****     }
  56:./tmk_core/common/bootmagic.c ****     eeconfig_update_debug(debug_config.raw);
  57:./tmk_core/common/bootmagic.c **** 
  58:./tmk_core/common/bootmagic.c ****     /* keymap config */
  59:./tmk_core/common/bootmagic.c ****     keymap_config.raw = eeconfig_read_keymap();
  60:./tmk_core/common/bootmagic.c ****     if (bootmagic_scan_keycode(BOOTMAGIC_KEY_SWAP_CONTROL_CAPSLOCK)) {
  61:./tmk_core/common/bootmagic.c ****         keymap_config.swap_control_capslock = !keymap_config.swap_control_capslock;
  62:./tmk_core/common/bootmagic.c ****     }
  63:./tmk_core/common/bootmagic.c ****     if (bootmagic_scan_keycode(BOOTMAGIC_KEY_CAPSLOCK_TO_CONTROL)) {
  64:./tmk_core/common/bootmagic.c ****         keymap_config.capslock_to_control = !keymap_config.capslock_to_control;
  65:./tmk_core/common/bootmagic.c ****     }
  66:./tmk_core/common/bootmagic.c ****     if (bootmagic_scan_keycode(BOOTMAGIC_KEY_SWAP_LALT_LGUI)) {
  67:./tmk_core/common/bootmagic.c ****         keymap_config.swap_lalt_lgui = !keymap_config.swap_lalt_lgui;
  68:./tmk_core/common/bootmagic.c ****     }
  69:./tmk_core/common/bootmagic.c ****     if (bootmagic_scan_keycode(BOOTMAGIC_KEY_SWAP_RALT_RGUI)) {
  70:./tmk_core/common/bootmagic.c ****         keymap_config.swap_ralt_rgui = !keymap_config.swap_ralt_rgui;
  71:./tmk_core/common/bootmagic.c ****     }
  72:./tmk_core/common/bootmagic.c ****     if (bootmagic_scan_keycode(BOOTMAGIC_KEY_NO_GUI)) {
  73:./tmk_core/common/bootmagic.c ****         keymap_config.no_gui = !keymap_config.no_gui;
  74:./tmk_core/common/bootmagic.c ****     }
  75:./tmk_core/common/bootmagic.c ****     if (bootmagic_scan_keycode(BOOTMAGIC_KEY_SWAP_GRAVE_ESC)) {
  76:./tmk_core/common/bootmagic.c ****         keymap_config.swap_grave_esc = !keymap_config.swap_grave_esc;
  77:./tmk_core/common/bootmagic.c ****     }
  78:./tmk_core/common/bootmagic.c ****     if (bootmagic_scan_keycode(BOOTMAGIC_KEY_SWAP_BACKSLASH_BACKSPACE)) {
  79:./tmk_core/common/bootmagic.c ****         keymap_config.swap_backslash_backspace = !keymap_config.swap_backslash_backspace;
  80:./tmk_core/common/bootmagic.c ****     }
  81:./tmk_core/common/bootmagic.c ****     if (bootmagic_scan_keycode(BOOTMAGIC_HOST_NKRO)) {
  82:./tmk_core/common/bootmagic.c ****         keymap_config.nkro = !keymap_config.nkro;
  83:./tmk_core/common/bootmagic.c ****     }
  84:./tmk_core/common/bootmagic.c ****     eeconfig_update_keymap(keymap_config.raw);
  85:./tmk_core/common/bootmagic.c **** 
  86:./tmk_core/common/bootmagic.c ****     /* default layer */
  87:./tmk_core/common/bootmagic.c ****     uint8_t default_layer = 0;
  88:./tmk_core/common/bootmagic.c ****     if (bootmagic_scan_keycode(BOOTMAGIC_KEY_DEFAULT_LAYER_0)) { default_layer |= (1<<0); }
  89:./tmk_core/common/bootmagic.c ****     if (bootmagic_scan_keycode(BOOTMAGIC_KEY_DEFAULT_LAYER_1)) { default_layer |= (1<<1); }
  90:./tmk_core/common/bootmagic.c ****     if (bootmagic_scan_keycode(BOOTMAGIC_KEY_DEFAULT_LAYER_2)) { default_layer |= (1<<2); }
  91:./tmk_core/common/bootmagic.c ****     if (bootmagic_scan_keycode(BOOTMAGIC_KEY_DEFAULT_LAYER_3)) { default_layer |= (1<<3); }
  92:./tmk_core/common/bootmagic.c ****     if (bootmagic_scan_keycode(BOOTMAGIC_KEY_DEFAULT_LAYER_4)) { default_layer |= (1<<4); }
  93:./tmk_core/common/bootmagic.c ****     if (bootmagic_scan_keycode(BOOTMAGIC_KEY_DEFAULT_LAYER_5)) { default_layer |= (1<<5); }
  94:./tmk_core/common/bootmagic.c ****     if (bootmagic_scan_keycode(BOOTMAGIC_KEY_DEFAULT_LAYER_6)) { default_layer |= (1<<6); }
  95:./tmk_core/common/bootmagic.c ****     if (bootmagic_scan_keycode(BOOTMAGIC_KEY_DEFAULT_LAYER_7)) { default_layer |= (1<<7); }
  96:./tmk_core/common/bootmagic.c ****     if (default_layer) {
  97:./tmk_core/common/bootmagic.c ****         eeconfig_update_default_layer(default_layer);
  98:./tmk_core/common/bootmagic.c ****         default_layer_set((uint32_t)default_layer);
  99:./tmk_core/common/bootmagic.c ****     } else {
 100:./tmk_core/common/bootmagic.c ****         default_layer = eeconfig_read_default_layer();
 101:./tmk_core/common/bootmagic.c ****         default_layer_set((uint32_t)default_layer);
 102:./tmk_core/common/bootmagic.c ****     }
 103:./tmk_core/common/bootmagic.c **** }
 104:./tmk_core/common/bootmagic.c **** 
 105:./tmk_core/common/bootmagic.c **** static bool scan_keycode(uint8_t keycode)
 106:./tmk_core/common/bootmagic.c **** {
  16               		.loc 1 106 1 view -0
  17               		.cfi_startproc
  18               		.loc 1 106 1 is_stmt 0 view .LVU1
  19 0000 CF92      		push r12
  20               	.LCFI0:
  21               		.cfi_def_cfa_offset 3
  22               		.cfi_offset 12, -2
  23 0002 DF92      		push r13
  24               	.LCFI1:
  25               		.cfi_def_cfa_offset 4
  26               		.cfi_offset 13, -3
  27 0004 EF92      		push r14
  28               	.LCFI2:
  29               		.cfi_def_cfa_offset 5
  30               		.cfi_offset 14, -4
  31 0006 FF92      		push r15
  32               	.LCFI3:
  33               		.cfi_def_cfa_offset 6
  34               		.cfi_offset 15, -5
  35 0008 0F93      		push r16
  36               	.LCFI4:
  37               		.cfi_def_cfa_offset 7
  38               		.cfi_offset 16, -6
  39 000a 1F93      		push r17
  40               	.LCFI5:
  41               		.cfi_def_cfa_offset 8
  42               		.cfi_offset 17, -7
  43 000c CF93      		push r28
  44               	.LCFI6:
  45               		.cfi_def_cfa_offset 9
  46               		.cfi_offset 28, -8
  47               	/* prologue: function */
  48               	/* frame size = 0 */
  49               	/* stack size = 7 */
  50               	.L__stack_usage = 7
 107:./tmk_core/common/bootmagic.c ****     for (uint8_t r = 0; r < MATRIX_ROWS; r++) {
  51               		.loc 1 107 5 is_stmt 1 view .LVU2
  52               	.LBB8:
  53               		.loc 1 107 10 view .LVU3
  54               	.LVL1:
  55               		.loc 1 107 27 view .LVU4
  56               		.loc 1 107 18 is_stmt 0 view .LVU5
  57 000e C0E0      		ldi r28,0
  58               	.LBB9:
  59               	.LBB10:
  60               	.LBB11:
 108:./tmk_core/common/bootmagic.c ****         matrix_row_t matrix_row = matrix_get_row(r);
 109:./tmk_core/common/bootmagic.c ****         for (uint8_t c = 0; c < MATRIX_COLS; c++) {
 110:./tmk_core/common/bootmagic.c ****             if (matrix_row & ((matrix_row_t)1<<c)) {
 111:./tmk_core/common/bootmagic.c ****                 if (keycode == keymap_key_to_keycode(0, (keypos_t){ .row = r, .col = c })) {
  61               		.loc 1 111 29 view .LVU6
  62 0010 E82E      		mov r14,r24
  63 0012 F12C      		mov r15,__zero_reg__
  64               	.LVL2:
  65               	.L6:
  66               		.loc 1 111 29 view .LVU7
  67               	.LBE11:
  68               	.LBE10:
 108:./tmk_core/common/bootmagic.c ****         matrix_row_t matrix_row = matrix_get_row(r);
  69               		.loc 1 108 9 is_stmt 1 view .LVU8
 108:./tmk_core/common/bootmagic.c ****         matrix_row_t matrix_row = matrix_get_row(r);
  70               		.loc 1 108 35 is_stmt 0 view .LVU9
  71 0014 8C2F      		mov r24,r28
  72 0016 0E94 0000 		call matrix_get_row
  73               	.LVL3:
 109:./tmk_core/common/bootmagic.c ****             if (matrix_row & ((matrix_row_t)1<<c)) {
  74               		.loc 1 109 9 is_stmt 1 view .LVU10
  75               	.LBB13:
 109:./tmk_core/common/bootmagic.c ****             if (matrix_row & ((matrix_row_t)1<<c)) {
  76               		.loc 1 109 14 view .LVU11
 109:./tmk_core/common/bootmagic.c ****             if (matrix_row & ((matrix_row_t)1<<c)) {
  77               		.loc 1 109 31 view .LVU12
  78               	.LBE13:
 108:./tmk_core/common/bootmagic.c ****         matrix_row_t matrix_row = matrix_get_row(r);
  79               		.loc 1 108 35 is_stmt 0 view .LVU13
  80 001a 00E0      		ldi r16,0
  81 001c 10E0      		ldi r17,0
  82               	.LBB14:
 110:./tmk_core/common/bootmagic.c ****                 if (keycode == keymap_key_to_keycode(0, (keypos_t){ .row = r, .col = c })) {
  83               		.loc 1 110 17 view .LVU14
  84 001e C82E      		mov r12,r24
  85 0020 D12C      		mov r13,__zero_reg__
  86               	.LVL4:
  87               	.L5:
 110:./tmk_core/common/bootmagic.c ****                 if (keycode == keymap_key_to_keycode(0, (keypos_t){ .row = r, .col = c })) {
  88               		.loc 1 110 13 is_stmt 1 view .LVU15
 110:./tmk_core/common/bootmagic.c ****                 if (keycode == keymap_key_to_keycode(0, (keypos_t){ .row = r, .col = c })) {
  89               		.loc 1 110 17 is_stmt 0 view .LVU16
  90 0022 C601      		movw r24,r12
  91 0024 002E      		mov r0,r16
  92 0026 00C0      		rjmp 2f
  93               		1:
  94 0028 9595      		asr r25
  95 002a 8795      		ror r24
  96               		2:
  97 002c 0A94      		dec r0
  98 002e 02F4      		brpl 1b
 110:./tmk_core/common/bootmagic.c ****                 if (keycode == keymap_key_to_keycode(0, (keypos_t){ .row = r, .col = c })) {
  99               		.loc 1 110 16 view .LVU17
 100 0030 80FF      		sbrs r24,0
 101 0032 00C0      		rjmp .L2
 102               		.loc 1 111 17 is_stmt 1 view .LVU18
 103               	.LBB12:
 104               		.loc 1 111 32 is_stmt 0 view .LVU19
 105 0034 602F      		mov r22,r16
 106 0036 7C2F      		mov r23,r28
 107 0038 80E0      		ldi r24,0
 108 003a 0E94 0000 		call keymap_key_to_keycode
 109               	.LVL5:
 110               		.loc 1 111 20 view .LVU20
 111 003e E816      		cp r14,r24
 112 0040 F906      		cpc r15,r25
 113 0042 01F4      		brne .L2
 112:./tmk_core/common/bootmagic.c ****                     return true;
 114               		.loc 1 112 21 is_stmt 1 view .LVU21
 115               		.loc 1 112 28 is_stmt 0 view .LVU22
 116 0044 81E0      		ldi r24,lo8(1)
 117               	.LVL6:
 118               	.L1:
 119               	/* epilogue start */
 120               		.loc 1 112 28 view .LVU23
 121               	.LBE12:
 122               	.LBE14:
 123               	.LBE9:
 124               	.LBE8:
 113:./tmk_core/common/bootmagic.c ****                 }
 114:./tmk_core/common/bootmagic.c ****             }
 115:./tmk_core/common/bootmagic.c ****         }
 116:./tmk_core/common/bootmagic.c ****     }
 117:./tmk_core/common/bootmagic.c ****     return false;
 118:./tmk_core/common/bootmagic.c **** }
 125               		.loc 1 118 1 view .LVU24
 126 0046 CF91      		pop r28
 127               	.LVL7:
 128               		.loc 1 118 1 view .LVU25
 129 0048 1F91      		pop r17
 130 004a 0F91      		pop r16
 131 004c FF90      		pop r15
 132 004e EF90      		pop r14
 133               	.LVL8:
 134               		.loc 1 118 1 view .LVU26
 135 0050 DF90      		pop r13
 136 0052 CF90      		pop r12
 137               	.LVL9:
 138               		.loc 1 118 1 view .LVU27
 139 0054 0895      		ret
 140               	.LVL10:
 141               	.L2:
 142               	.LBB17:
 143               	.LBB16:
 144               	.LBB15:
 109:./tmk_core/common/bootmagic.c ****             if (matrix_row & ((matrix_row_t)1<<c)) {
 145               		.loc 1 109 47 is_stmt 1 discriminator 2 view .LVU28
 109:./tmk_core/common/bootmagic.c ****             if (matrix_row & ((matrix_row_t)1<<c)) {
 146               		.loc 1 109 31 discriminator 2 view .LVU29
 147 0056 0F5F      		subi r16,-1
 148 0058 1F4F      		sbci r17,-1
 149               	.LVL11:
 109:./tmk_core/common/bootmagic.c ****             if (matrix_row & ((matrix_row_t)1<<c)) {
 150               		.loc 1 109 31 is_stmt 0 discriminator 2 view .LVU30
 151 005a 0830      		cpi r16,8
 152 005c 1105      		cpc r17,__zero_reg__
 153 005e 01F4      		brne .L5
 154               	.LBE15:
 155               	.LBE16:
 107:./tmk_core/common/bootmagic.c ****         matrix_row_t matrix_row = matrix_get_row(r);
 156               		.loc 1 107 43 is_stmt 1 discriminator 2 view .LVU31
 157 0060 CF5F      		subi r28,lo8(-(1))
 158               	.LVL12:
 107:./tmk_core/common/bootmagic.c ****         matrix_row_t matrix_row = matrix_get_row(r);
 159               		.loc 1 107 27 discriminator 2 view .LVU32
 160 0062 CD30      		cpi r28,lo8(13)
 161 0064 01F4      		brne .L6
 162               	.LBE17:
 117:./tmk_core/common/bootmagic.c **** }
 163               		.loc 1 117 12 is_stmt 0 view .LVU33
 164 0066 80E0      		ldi r24,0
 165 0068 00C0      		rjmp .L1
 166               		.cfi_endproc
 167               	.LFE108:
 169               		.section	.text.bootmagic_scan_keycode,"ax",@progbits
 170               	.global	bootmagic_scan_keycode
 172               	bootmagic_scan_keycode:
 173               	.LVL13:
 174               	.LFB109:
 119:./tmk_core/common/bootmagic.c **** 
 120:./tmk_core/common/bootmagic.c **** bool bootmagic_scan_keycode(uint8_t keycode)
 121:./tmk_core/common/bootmagic.c **** {
 175               		.loc 1 121 1 is_stmt 1 view -0
 176               		.cfi_startproc
 177               		.loc 1 121 1 is_stmt 0 view .LVU35
 178 0000 CF93      		push r28
 179               	.LCFI7:
 180               		.cfi_def_cfa_offset 3
 181               		.cfi_offset 28, -2
 182               	/* prologue: function */
 183               	/* frame size = 0 */
 184               	/* stack size = 1 */
 185               	.L__stack_usage = 1
 186 0002 C82F      		mov r28,r24
 122:./tmk_core/common/bootmagic.c ****     if (!scan_keycode(BOOTMAGIC_KEY_SALT)) return false;
 187               		.loc 1 122 5 is_stmt 1 view .LVU36
 188               		.loc 1 122 10 is_stmt 0 view .LVU37
 189 0004 8CE2      		ldi r24,lo8(44)
 190               	.LVL14:
 191               		.loc 1 122 10 view .LVU38
 192 0006 0E94 0000 		call scan_keycode
 193               	.LVL15:
 194               		.loc 1 122 8 view .LVU39
 195 000a 8823      		tst r24
 196 000c 01F0      		breq .L12
 123:./tmk_core/common/bootmagic.c **** 
 124:./tmk_core/common/bootmagic.c ****     return scan_keycode(keycode);
 197               		.loc 1 124 5 is_stmt 1 view .LVU40
 198               		.loc 1 124 12 is_stmt 0 view .LVU41
 199 000e 8C2F      		mov r24,r28
 200               	/* epilogue start */
 125:./tmk_core/common/bootmagic.c **** }...
 201               		.loc 1 125 1 view .LVU42
 202 0010 CF91      		pop r28
 203               	.LVL16:
 124:./tmk_core/common/bootmagic.c ****     return scan_keycode(keycode);
 204               		.loc 1 124 12 view .LVU43
 205 0012 0C94 0000 		jmp scan_keycode
 206               	.LVL17:
 207               	.L12:
 208               		.loc 1 125 1 view .LVU44
 209 0016 80E0      		ldi r24,0
 210               	/* epilogue start */
 211 0018 CF91      		pop r28
 212               	.LVL18:
 213               		.loc 1 125 1 view .LVU45
 214 001a 0895      		ret
 215               		.cfi_endproc
 216               	.LFE109:
 218               		.section	.text.bootmagic,"ax",@progbits
 219               	.global	bootmagic
 221               	bootmagic:
 222               	.LFB107:
  16:./tmk_core/common/bootmagic.c **** {
 223               		.loc 1 16 1 is_stmt 1 view -0
 224               		.cfi_startproc
 225 0000 CF93      		push r28
 226               	.LCFI8:
 227               		.cfi_def_cfa_offset 3
 228               		.cfi_offset 28, -2
 229 0002 DF93      		push r29
 230               	.LCFI9:
 231               		.cfi_def_cfa_offset 4
 232               		.cfi_offset 29, -3
 233 0004 00D0      		rcall .
 234 0006 00D0      		rcall .
 235               	.LCFI10:
 236               		.cfi_def_cfa_offset 8
 237 0008 CDB7      		in r28,__SP_L__
 238 000a DEB7      		in r29,__SP_H__
 239               	.LCFI11:
 240               		.cfi_def_cfa_register 28
 241               	/* prologue: function */
 242               	/* frame size = 4 */
 243               	/* stack size = 6 */
 244               	.L__stack_usage = 6
  18:./tmk_core/common/bootmagic.c ****     if (!eeconfig_is_enabled()) {
 245               		.loc 1 18 5 view .LVU47
  18:./tmk_core/common/bootmagic.c ****     if (!eeconfig_is_enabled()) {
 246               		.loc 1 18 10 is_stmt 0 view .LVU48
 247 000c 0E94 0000 		call eeconfig_is_enabled
 248               	.LVL19:
  18:./tmk_core/common/bootmagic.c ****     if (!eeconfig_is_enabled()) {
 249               		.loc 1 18 8 view .LVU49
 250 0010 8111      		cpse r24,__zero_reg__
 251 0012 00C0      		rjmp .L15
  19:./tmk_core/common/bootmagic.c ****         eeconfig_init();
 252               		.loc 1 19 9 is_stmt 1 view .LVU50
 253 0014 0E94 0000 		call eeconfig_init
 254               	.LVL20:
  25:./tmk_core/common/bootmagic.c ****     while (scan--) { matrix_scan(); wait_ms(10); }
 255               		.loc 1 25 12 view .LVU51
 256               	.L15:
  16:./tmk_core/common/bootmagic.c **** {
 257               		.loc 1 16 1 is_stmt 0 view .LVU52
 258 0018 24E6      		ldi r18,lo8(100)
 259 001a 2983      		std Y+1,r18
 260               	.L16:
 261               	.LVL21:
  25:./tmk_core/common/bootmagic.c ****     while (scan--) { matrix_scan(); wait_ms(10); }
 262               		.loc 1 25 22 is_stmt 1 discriminator 2 view .LVU53
 263 001c 0E94 0000 		call matrix_scan
 264               	.LVL22:
  25:./tmk_core/common/bootmagic.c ****     while (scan--) { matrix_scan(); wait_ms(10); }
 265               		.loc 1 25 37 discriminator 2 view .LVU54
 266               	.LBB18:
 267               	.LBI18:
 268               		.file 2 "/usr/avr/include/util/delay.h"
   1:/usr/avr/include/util/delay.h **** /* Copyright (c) 2002, Marek Michalkiewicz
   2:/usr/avr/include/util/delay.h ****    Copyright (c) 2004,2005,2007 Joerg Wunsch
   3:/usr/avr/include/util/delay.h ****    Copyright (c) 2007  Florin-Viorel Petrov
   4:/usr/avr/include/util/delay.h ****    All rights reserved.
   5:/usr/avr/include/util/delay.h **** 
   6:/usr/avr/include/util/delay.h ****    Redistribution and use in source and binary forms, with or without
   7:/usr/avr/include/util/delay.h ****    modification, are permitted provided that the following conditions are met:
   8:/usr/avr/include/util/delay.h **** 
   9:/usr/avr/include/util/delay.h ****    * Redistributions of source code must retain the above copyright
  10:/usr/avr/include/util/delay.h ****      notice, this list of conditions and the following disclaimer.
  11:/usr/avr/include/util/delay.h **** 
  12:/usr/avr/include/util/delay.h ****    * Redistributions in binary form must reproduce the above copyright
  13:/usr/avr/include/util/delay.h ****      notice, this list of conditions and the following disclaimer in
  14:/usr/avr/include/util/delay.h ****      the documentation and/or other materials provided with the
  15:/usr/avr/include/util/delay.h ****      distribution.
  16:/usr/avr/include/util/delay.h **** 
  17:/usr/avr/include/util/delay.h ****    * Neither the name of the copyright holders nor the names of
  18:/usr/avr/include/util/delay.h ****      contributors may be used to endorse or promote products derived
  19:/usr/avr/include/util/delay.h ****      from this software without specific prior written permission.
  20:/usr/avr/include/util/delay.h **** 
  21:/usr/avr/include/util/delay.h ****   THIS SOFTWARE IS PROVIDED BY THE COPYRIGHT HOLDERS AND CONTRIBUTORS "AS IS"
  22:/usr/avr/include/util/delay.h ****   AND ANY EXPRESS OR IMPLIED WARRANTIES, INCLUDING, BUT NOT LIMITED TO, THE
  23:/usr/avr/include/util/delay.h ****   IMPLIED WARRANTIES OF MERCHANTABILITY AND FITNESS FOR A PARTICULAR PURPOSE
  24:/usr/avr/include/util/delay.h ****   ARE DISCLAIMED. IN NO EVENT SHALL THE COPYRIGHT OWNER OR CONTRIBUTORS BE
  25:/usr/avr/include/util/delay.h ****   LIABLE FOR ANY DIRECT, INDIRECT, INCIDENTAL, SPECIAL, EXEMPLARY, OR
  26:/usr/avr/include/util/delay.h ****   CONSEQUENTIAL DAMAGES (INCLUDING, BUT NOT LIMITED TO, PROCUREMENT OF
  27:/usr/avr/include/util/delay.h ****   SUBSTITUTE GOODS OR SERVICES; LOSS OF USE, DATA, OR PROFITS; OR BUSINESS
  28:/usr/avr/include/util/delay.h ****   INTERRUPTION) HOWEVER CAUSED AND ON ANY THEORY OF LIABILITY, WHETHER IN
  29:/usr/avr/include/util/delay.h ****   CONTRACT, STRICT LIABILITY, OR TORT (INCLUDING NEGLIGENCE OR OTHERWISE)
  30:/usr/avr/include/util/delay.h ****   ARISING IN ANY WAY OUT OF THE USE OF THIS SOFTWARE, EVEN IF ADVISED OF THE
  31:/usr/avr/include/util/delay.h ****   POSSIBILITY OF SUCH DAMAGE. */
  32:/usr/avr/include/util/delay.h **** 
  33:/usr/avr/include/util/delay.h **** /* $Id: delay.h.in 2551 2020-10-10 20:33:35Z joerg_wunsch $ */
  34:/usr/avr/include/util/delay.h **** 
  35:/usr/avr/include/util/delay.h **** #ifndef _UTIL_DELAY_H_
  36:/usr/avr/include/util/delay.h **** #define _UTIL_DELAY_H_ 1
  37:/usr/avr/include/util/delay.h **** 
  38:/usr/avr/include/util/delay.h **** #ifndef __DOXYGEN__
  39:/usr/avr/include/util/delay.h **** #  ifndef __HAS_DELAY_CYCLES
  40:/usr/avr/include/util/delay.h **** #    define __HAS_DELAY_CYCLES 1
  41:/usr/avr/include/util/delay.h **** #  endif
  42:/usr/avr/include/util/delay.h **** #endif  /* __DOXYGEN__ */
  43:/usr/avr/include/util/delay.h **** 
  44:/usr/avr/include/util/delay.h **** #include <inttypes.h>
  45:/usr/avr/include/util/delay.h **** #include <util/delay_basic.h>
  46:/usr/avr/include/util/delay.h **** #include <math.h>
  47:/usr/avr/include/util/delay.h **** 
  48:/usr/avr/include/util/delay.h **** /** \file */
  49:/usr/avr/include/util/delay.h **** /** \defgroup util_delay <util/delay.h>: Convenience functions for busy-wait delay loops
  50:/usr/avr/include/util/delay.h ****     \code
  51:/usr/avr/include/util/delay.h ****     #define F_CPU 1000000UL  // 1 MHz
  52:/usr/avr/include/util/delay.h ****     //#define F_CPU 14.7456E6
  53:/usr/avr/include/util/delay.h ****     #include <util/delay.h>
  54:/usr/avr/include/util/delay.h ****     \endcode
  55:/usr/avr/include/util/delay.h **** 
  56:/usr/avr/include/util/delay.h ****     \note As an alternative method, it is possible to pass the
  57:/usr/avr/include/util/delay.h ****     F_CPU macro down to the compiler from the Makefile.
  58:/usr/avr/include/util/delay.h ****     Obviously, in that case, no \c \#define statement should be
  59:/usr/avr/include/util/delay.h ****     used.
  60:/usr/avr/include/util/delay.h **** 
  61:/usr/avr/include/util/delay.h ****     The functions in this header file are wrappers around the basic
  62:/usr/avr/include/util/delay.h ****     busy-wait functions from <util/delay_basic.h>.  They are meant as
  63:/usr/avr/include/util/delay.h ****     convenience functions where actual time values can be specified
  64:/usr/avr/include/util/delay.h ****     rather than a number of cycles to wait for.  The idea behind is
  65:/usr/avr/include/util/delay.h ****     that compile-time constant expressions will be eliminated by
  66:/usr/avr/include/util/delay.h ****     compiler optimization so floating-point expressions can be used
  67:/usr/avr/include/util/delay.h ****     to calculate the number of delay cycles needed based on the CPU
  68:/usr/avr/include/util/delay.h ****     frequency passed by the macro F_CPU.
  69:/usr/avr/include/util/delay.h **** 
  70:/usr/avr/include/util/delay.h ****     \note In order for these functions to work as intended, compiler
  71:/usr/avr/include/util/delay.h ****     optimizations <em>must</em> be enabled, and the delay time
  72:/usr/avr/include/util/delay.h ****     <em>must</em> be an expression that is a known constant at
  73:/usr/avr/include/util/delay.h ****     compile-time.  If these requirements are not met, the resulting
  74:/usr/avr/include/util/delay.h ****     delay will be much longer (and basically unpredictable), and
  75:/usr/avr/include/util/delay.h ****     applications that otherwise do not use floating-point calculations
  76:/usr/avr/include/util/delay.h ****     will experience severe code bloat by the floating-point library
  77:/usr/avr/include/util/delay.h ****     routines linked into the application.
  78:/usr/avr/include/util/delay.h **** 
  79:/usr/avr/include/util/delay.h ****     The functions available allow the specification of microsecond, and
  80:/usr/avr/include/util/delay.h ****     millisecond delays directly, using the application-supplied macro
  81:/usr/avr/include/util/delay.h ****     F_CPU as the CPU clock frequency (in Hertz).
  82:/usr/avr/include/util/delay.h **** 
  83:/usr/avr/include/util/delay.h **** */
  84:/usr/avr/include/util/delay.h **** 
  85:/usr/avr/include/util/delay.h **** #if !defined(__DOXYGEN__)
  86:/usr/avr/include/util/delay.h **** static __inline__ void _delay_us(double __us) __attribute__((__always_inline__));
  87:/usr/avr/include/util/delay.h **** static __inline__ void _delay_ms(double __ms) __attribute__((__always_inline__));
  88:/usr/avr/include/util/delay.h **** #endif
  89:/usr/avr/include/util/delay.h **** 
  90:/usr/avr/include/util/delay.h **** #ifndef F_CPU
  91:/usr/avr/include/util/delay.h **** /* prevent compiler error by supplying a default */
  92:/usr/avr/include/util/delay.h **** # warning "F_CPU not defined for <util/delay.h>"
  93:/usr/avr/include/util/delay.h **** /** \ingroup util_delay
  94:/usr/avr/include/util/delay.h ****     \def F_CPU
  95:/usr/avr/include/util/delay.h ****     \brief CPU frequency in Hz
  96:/usr/avr/include/util/delay.h **** 
  97:/usr/avr/include/util/delay.h ****     The macro F_CPU specifies the CPU frequency to be considered by
  98:/usr/avr/include/util/delay.h ****     the delay macros.  This macro is normally supplied by the
  99:/usr/avr/include/util/delay.h ****     environment (e.g. from within a project header, or the project's
 100:/usr/avr/include/util/delay.h ****     Makefile).  The value 1 MHz here is only provided as a "vanilla"
 101:/usr/avr/include/util/delay.h ****     fallback if no such user-provided definition could be found.
 102:/usr/avr/include/util/delay.h **** 
 103:/usr/avr/include/util/delay.h ****     In terms of the delay functions, the CPU frequency can be given as
 104:/usr/avr/include/util/delay.h ****     a floating-point constant (e.g. 3.6864E6 for 3.6864 MHz).
 105:/usr/avr/include/util/delay.h ****     However, the macros in <util/setbaud.h> require it to be an
 106:/usr/avr/include/util/delay.h ****     integer value.
 107:/usr/avr/include/util/delay.h ****  */
 108:/usr/avr/include/util/delay.h **** # define F_CPU 1000000UL
 109:/usr/avr/include/util/delay.h **** #endif
 110:/usr/avr/include/util/delay.h **** 
 111:/usr/avr/include/util/delay.h **** #ifndef __OPTIMIZE__
 112:/usr/avr/include/util/delay.h **** # warning "Compiler optimizations disabled; functions from <util/delay.h> won't work as designed"
 113:/usr/avr/include/util/delay.h **** #endif
 114:/usr/avr/include/util/delay.h **** 
 115:/usr/avr/include/util/delay.h **** #if __HAS_DELAY_CYCLES && defined(__OPTIMIZE__) && \
 116:/usr/avr/include/util/delay.h ****   !defined(__DELAY_BACKWARD_COMPATIBLE__) &&	   \
 117:/usr/avr/include/util/delay.h ****   __STDC_HOSTED__
 118:/usr/avr/include/util/delay.h **** #  include <math.h>
 119:/usr/avr/include/util/delay.h **** #endif
 120:/usr/avr/include/util/delay.h **** 
 121:/usr/avr/include/util/delay.h **** /**
 122:/usr/avr/include/util/delay.h ****    \ingroup util_delay
 123:/usr/avr/include/util/delay.h **** 
 124:/usr/avr/include/util/delay.h ****    Perform a delay of \c __ms milliseconds, using _delay_loop_2().
 125:/usr/avr/include/util/delay.h **** 
 126:/usr/avr/include/util/delay.h ****    The macro F_CPU is supposed to be defined to a
 127:/usr/avr/include/util/delay.h ****    constant defining the CPU clock frequency (in Hertz).
 128:/usr/avr/include/util/delay.h **** 
 129:/usr/avr/include/util/delay.h ****    The maximal possible delay is 262.14 ms / F_CPU in MHz.
 130:/usr/avr/include/util/delay.h **** 
 131:/usr/avr/include/util/delay.h ****    When the user request delay which exceed the maximum possible one,
 132:/usr/avr/include/util/delay.h ****    _delay_ms() provides a decreased resolution functionality. In this
 133:/usr/avr/include/util/delay.h ****    mode _delay_ms() will work with a resolution of 1/10 ms, providing
 134:/usr/avr/include/util/delay.h ****    delays up to 6.5535 seconds (independent from CPU frequency).  The
 135:/usr/avr/include/util/delay.h ****    user will not be informed about decreased resolution.
 136:/usr/avr/include/util/delay.h **** 
 137:/usr/avr/include/util/delay.h ****    If the avr-gcc toolchain has __builtin_avr_delay_cycles()
 138:/usr/avr/include/util/delay.h ****    support, maximal possible delay is 4294967.295 ms/ F_CPU in MHz. For
 139:/usr/avr/include/util/delay.h ****    values greater than the maximal possible delay, overflows results in
 140:/usr/avr/include/util/delay.h ****    no delay i.e., 0ms.
 141:/usr/avr/include/util/delay.h **** 
 142:/usr/avr/include/util/delay.h ****    Conversion of \c __ms into clock cycles may not always result in
 143:/usr/avr/include/util/delay.h ****    integer.  By default, the clock cycles rounded up to next
 144:/usr/avr/include/util/delay.h ****    integer. This ensures that the user gets at least \c __ms
 145:/usr/avr/include/util/delay.h ****    microseconds of delay.
 146:/usr/avr/include/util/delay.h **** 
 147:/usr/avr/include/util/delay.h ****    Alternatively, by defining the macro \c __DELAY_ROUND_DOWN__, or
 148:/usr/avr/include/util/delay.h ****    \c __DELAY_ROUND_CLOSEST__, before including this header file, the
 149:/usr/avr/include/util/delay.h ****    algorithm can be made to round down, or round to closest integer,
 150:/usr/avr/include/util/delay.h ****    respectively.
 151:/usr/avr/include/util/delay.h **** 
 152:/usr/avr/include/util/delay.h ****    \note
 153:/usr/avr/include/util/delay.h **** 
 154:/usr/avr/include/util/delay.h ****    The implementation of _delay_ms() based on
 155:/usr/avr/include/util/delay.h ****    __builtin_avr_delay_cycles() is not backward compatible with older
 156:/usr/avr/include/util/delay.h ****    implementations.  In order to get functionality backward compatible
 157:/usr/avr/include/util/delay.h ****    with previous versions, the macro \c "__DELAY_BACKWARD_COMPATIBLE__"
 158:/usr/avr/include/util/delay.h ****    must be defined before including this header file. Also, the
 159:/usr/avr/include/util/delay.h ****    backward compatible algorithm will be chosen if the code is
 160:/usr/avr/include/util/delay.h ****    compiled in a <em>freestanding environment</em> (GCC option
 161:/usr/avr/include/util/delay.h ****    \c -ffreestanding), as the math functions required for rounding are
 162:/usr/avr/include/util/delay.h ****    not available to the compiler then.
 163:/usr/avr/include/util/delay.h **** 
 164:/usr/avr/include/util/delay.h ****  */
 165:/usr/avr/include/util/delay.h **** void
 166:/usr/avr/include/util/delay.h **** _delay_ms(double __ms)
 269               		.loc 2 166 1 discriminator 2 view .LVU55
 270               	.LBB19:
 167:/usr/avr/include/util/delay.h **** {
 168:/usr/avr/include/util/delay.h **** 	double __tmp ;
 271               		.loc 2 168 2 discriminator 2 view .LVU56
 169:/usr/avr/include/util/delay.h **** #if __HAS_DELAY_CYCLES && defined(__OPTIMIZE__) && \
 170:/usr/avr/include/util/delay.h ****   !defined(__DELAY_BACKWARD_COMPATIBLE__) &&	   \
 171:/usr/avr/include/util/delay.h ****   __STDC_HOSTED__
 172:/usr/avr/include/util/delay.h **** 	uint32_t __ticks_dc;
 272               		.loc 2 172 2 discriminator 2 view .LVU57
 173:/usr/avr/include/util/delay.h **** 	extern void __builtin_avr_delay_cycles(unsigned long);
 273               		.loc 2 173 2 discriminator 2 view .LVU58
 174:/usr/avr/include/util/delay.h **** 	__tmp = ((F_CPU) / 1e3) * __ms;
 274               		.loc 2 174 2 discriminator 2 view .LVU59
 175:/usr/avr/include/util/delay.h **** 
 176:/usr/avr/include/util/delay.h **** 	#if defined(__DELAY_ROUND_DOWN__)
 177:/usr/avr/include/util/delay.h **** 		__ticks_dc = (uint32_t)fabs(__tmp);
 178:/usr/avr/include/util/delay.h **** 
 179:/usr/avr/include/util/delay.h **** 	#elif defined(__DELAY_ROUND_CLOSEST__)
 180:/usr/avr/include/util/delay.h **** 		__ticks_dc = (uint32_t)(fabs(__tmp)+0.5);
 181:/usr/avr/include/util/delay.h **** 
 182:/usr/avr/include/util/delay.h **** 	#else
 183:/usr/avr/include/util/delay.h **** 		//round up by default
 184:/usr/avr/include/util/delay.h **** 		__ticks_dc = (uint32_t)(ceil(fabs(__tmp)));
 275               		.loc 2 184 3 discriminator 2 view .LVU60
 185:/usr/avr/include/util/delay.h **** 	#endif
 186:/usr/avr/include/util/delay.h **** 
 187:/usr/avr/include/util/delay.h **** 	__builtin_avr_delay_cycles(__ticks_dc);
 276               		.loc 2 187 2 discriminator 2 view .LVU61
 277 0020 8FE3      		ldi r24,lo8(-25537)
 278 0022 9CE9      		ldi r25,hi8(-25537)
 279 0024 0197      	1:	sbiw r24,1
 280 0026 01F4      		brne 1b
 281 0028 00C0      		rjmp .
 282 002a 0000      		nop
 283               	.LVL23:
 284               		.loc 2 187 2 is_stmt 0 discriminator 2 view .LVU62
 285               	.LBE19:
 286               	.LBE18:
  25:./tmk_core/common/bootmagic.c ****     while (scan--) { matrix_scan(); wait_ms(10); }
 287               		.loc 1 25 12 is_stmt 1 discriminator 2 view .LVU63
  25:./tmk_core/common/bootmagic.c ****     while (scan--) { matrix_scan(); wait_ms(10); }
 288               		.loc 1 25 12 is_stmt 0 discriminator 2 view .LVU64
 289 002c 9981      		ldd r25,Y+1
 290 002e 9150      		subi r25,lo8(-(-1))
 291 0030 9983      		std Y+1,r25
 292               	.LVL24:
  25:./tmk_core/common/bootmagic.c ****     while (scan--) { matrix_scan(); wait_ms(10); }
 293               		.loc 1 25 12 discriminator 2 view .LVU65
 294 0032 9111      		cpse r25,__zero_reg__
 295 0034 00C0      		rjmp .L16
  26:./tmk_core/common/bootmagic.c ****     print("done.\n");
 296               		.loc 1 26 21 is_stmt 1 view .LVU66
  29:./tmk_core/common/bootmagic.c ****     if (bootmagic_scan_keycode(BOOTMAGIC_KEY_SKIP)) {
 297               		.loc 1 29 5 view .LVU67
  29:./tmk_core/common/bootmagic.c ****     if (bootmagic_scan_keycode(BOOTMAGIC_KEY_SKIP)) {
 298               		.loc 1 29 9 is_stmt 0 view .LVU68
 299 0036 89E2      		ldi r24,lo8(41)
 300 0038 0E94 0000 		call bootmagic_scan_keycode
 301               	.LVL25:
  29:./tmk_core/common/bootmagic.c ****     if (bootmagic_scan_keycode(BOOTMAGIC_KEY_SKIP)) {
 302               		.loc 1 29 8 view .LVU69
 303 003c 8111      		cpse r24,__zero_reg__
 304 003e 00C0      		rjmp .L14
  34:./tmk_core/common/bootmagic.c ****     if (bootmagic_scan_keycode(BOOTMAGIC_KEY_EEPROM_CLEAR)) {
 305               		.loc 1 34 5 is_stmt 1 view .LVU70
  34:./tmk_core/common/bootmagic.c ****     if (bootmagic_scan_keycode(BOOTMAGIC_KEY_EEPROM_CLEAR)) {
 306               		.loc 1 34 9 is_stmt 0 view .LVU71
 307 0040 8AE2      		ldi r24,lo8(42)
 308 0042 0E94 0000 		call bootmagic_scan_keycode
 309               	.LVL26:
  34:./tmk_core/common/bootmagic.c ****     if (bootmagic_scan_keycode(BOOTMAGIC_KEY_EEPROM_CLEAR)) {
 310               		.loc 1 34 8 view .LVU72
 311 0046 8111      		cpse r24,__zero_reg__
  35:./tmk_core/common/bootmagic.c ****         eeconfig_init();
 312               		.loc 1 35 9 is_stmt 1 view .LVU73
 313 0048 0E94 0000 		call eeconfig_init
 314               	.LVL27:
 315               	.L18:
  39:./tmk_core/common/bootmagic.c ****     if (bootmagic_scan_keycode(BOOTMAGIC_KEY_BOOTLOADER)) {
 316               		.loc 1 39 5 view .LVU74
  39:./tmk_core/common/bootmagic.c ****     if (bootmagic_scan_keycode(BOOTMAGIC_KEY_BOOTLOADER)) {
 317               		.loc 1 39 9 is_stmt 0 view .LVU75
 318 004c 85E0      		ldi r24,lo8(5)
 319 004e 0E94 0000 		call bootmagic_scan_keycode
 320               	.LVL28:
  39:./tmk_core/common/bootmagic.c ****     if (bootmagic_scan_keycode(BOOTMAGIC_KEY_BOOTLOADER)) {
 321               		.loc 1 39 8 view .LVU76
 322 0052 8111      		cpse r24,__zero_reg__
  40:./tmk_core/common/bootmagic.c ****         bootloader_jump();
 323               		.loc 1 40 9 is_stmt 1 view .LVU77
 324 0054 0E94 0000 		call bootloader_jump
 325               	.LVL29:
 326               	.L19:
  44:./tmk_core/common/bootmagic.c ****     debug_config.raw = eeconfig_read_debug();
 327               		.loc 1 44 5 view .LVU78
  44:./tmk_core/common/bootmagic.c ****     debug_config.raw = eeconfig_read_debug();
 328               		.loc 1 44 24 is_stmt 0 view .LVU79
 329 0058 0E94 0000 		call eeconfig_read_debug
 330               	.LVL30:
  44:./tmk_core/common/bootmagic.c ****     debug_config.raw = eeconfig_read_debug();
 331               		.loc 1 44 22 view .LVU80
 332 005c 8093 0000 		sts debug_config,r24
  45:./tmk_core/common/bootmagic.c ****     if (bootmagic_scan_keycode(BOOTMAGIC_KEY_DEBUG_ENABLE)) {
 333               		.loc 1 45 5 is_stmt 1 view .LVU81
  45:./tmk_core/common/bootmagic.c ****     if (bootmagic_scan_keycode(BOOTMAGIC_KEY_DEBUG_ENABLE)) {
 334               		.loc 1 45 9 is_stmt 0 view .LVU82
 335 0060 87E0      		ldi r24,lo8(7)
 336 0062 0E94 0000 		call bootmagic_scan_keycode
 337               	.LVL31:
  45:./tmk_core/common/bootmagic.c ****     if (bootmagic_scan_keycode(BOOTMAGIC_KEY_DEBUG_ENABLE)) {
 338               		.loc 1 45 8 view .LVU83
 339 0066 8823      		tst r24
 340 0068 01F0      		breq .L20
  46:./tmk_core/common/bootmagic.c ****         if (bootmagic_scan_keycode(BOOTMAGIC_KEY_DEBUG_MATRIX)) {
 341               		.loc 1 46 9 is_stmt 1 view .LVU84
  46:./tmk_core/common/bootmagic.c ****         if (bootmagic_scan_keycode(BOOTMAGIC_KEY_DEBUG_MATRIX)) {
 342               		.loc 1 46 13 is_stmt 0 view .LVU85
 343 006a 8BE1      		ldi r24,lo8(27)
 344 006c 0E94 0000 		call bootmagic_scan_keycode
 345               	.LVL32:
  46:./tmk_core/common/bootmagic.c ****         if (bootmagic_scan_keycode(BOOTMAGIC_KEY_DEBUG_MATRIX)) {
 346               		.loc 1 46 12 view .LVU86
 347 0070 8823      		tst r24
 348 0072 01F4      		brne .+2
 349 0074 00C0      		rjmp .L21
  47:./tmk_core/common/bootmagic.c ****             debug_config.matrix = !debug_config.matrix;
 350               		.loc 1 47 13 is_stmt 1 view .LVU87
  47:./tmk_core/common/bootmagic.c ****             debug_config.matrix = !debug_config.matrix;
 351               		.loc 1 47 48 is_stmt 0 view .LVU88
 352 0076 9091 0000 		lds r25,debug_config
  47:./tmk_core/common/bootmagic.c ****             debug_config.matrix = !debug_config.matrix;
 353               		.loc 1 47 33 view .LVU89
 354 007a 892F      		mov r24,r25
 355 007c 8D7F      		andi r24,~(1<<1)
 356 007e 91FF      		sbrs r25,1
 357 0080 8260      		ori r24,1<<1
 358               	.L91:
  53:./tmk_core/common/bootmagic.c ****             debug_config.enable = !debug_config.enable;
 359               		.loc 1 53 33 view .LVU90
 360 0082 8093 0000 		sts debug_config,r24
 361               	.LVL33:
 362               	.L20:
  56:./tmk_core/common/bootmagic.c ****     eeconfig_update_debug(debug_config.raw);
 363               		.loc 1 56 5 is_stmt 1 view .LVU91
 364 0086 8091 0000 		lds r24,debug_config
 365 008a 0E94 0000 		call eeconfig_update_debug
 366               	.LVL34:
  59:./tmk_core/common/bootmagic.c ****     keymap_config.raw = eeconfig_read_keymap();
 367               		.loc 1 59 5 view .LVU92
  59:./tmk_core/common/bootmagic.c ****     keymap_config.raw = eeconfig_read_keymap();
 368               		.loc 1 59 25 is_stmt 0 view .LVU93
 369 008e 0E94 0000 		call eeconfig_read_keymap
 370               	.LVL35:
 371 0092 90E0      		ldi r25,0
 372 0094 9093 0000 		sts keymap_config+1,r25
 373 0098 8093 0000 		sts keymap_config,r24
  60:./tmk_core/common/bootmagic.c ****     if (bootmagic_scan_keycode(BOOTMAGIC_KEY_SWAP_CONTROL_CAPSLOCK)) {
 374               		.loc 1 60 5 is_stmt 1 view .LVU94
  60:./tmk_core/common/bootmagic.c ****     if (bootmagic_scan_keycode(BOOTMAGIC_KEY_SWAP_CONTROL_CAPSLOCK)) {
 375               		.loc 1 60 9 is_stmt 0 view .LVU95
 376 009c 80EE      		ldi r24,lo8(-32)
 377 009e 0E94 0000 		call bootmagic_scan_keycode
 378               	.LVL36:
  60:./tmk_core/common/bootmagic.c ****     if (bootmagic_scan_keycode(BOOTMAGIC_KEY_SWAP_CONTROL_CAPSLOCK)) {
 379               		.loc 1 60 8 view .LVU96
 380 00a2 8823      		tst r24
 381 00a4 01F0      		breq .L24
  61:./tmk_core/common/bootmagic.c ****         keymap_config.swap_control_capslock = !keymap_config.swap_control_capslock;
 382               		.loc 1 61 9 is_stmt 1 view .LVU97
  61:./tmk_core/common/bootmagic.c ****         keymap_config.swap_control_capslock = !keymap_config.swap_control_capslock;
 383               		.loc 1 61 61 is_stmt 0 view .LVU98
 384 00a6 9091 0000 		lds r25,keymap_config
  61:./tmk_core/common/bootmagic.c ****         keymap_config.swap_control_capslock = !keymap_config.swap_control_capslock;
 385               		.loc 1 61 45 view .LVU99
 386 00aa 892F      		mov r24,r25
 387 00ac 8E7F      		andi r24,~(1<<0)
 388 00ae 90FF      		sbrs r25,0
 389 00b0 8160      		ori r24,1<<0
 390 00b2 8093 0000 		sts keymap_config,r24
 391               	.L24:
  63:./tmk_core/common/bootmagic.c ****     if (bootmagic_scan_keycode(BOOTMAGIC_KEY_CAPSLOCK_TO_CONTROL)) {
 392               		.loc 1 63 5 is_stmt 1 view .LVU100
  63:./tmk_core/common/bootmagic.c ****     if (bootmagic_scan_keycode(BOOTMAGIC_KEY_CAPSLOCK_TO_CONTROL)) {
 393               		.loc 1 63 9 is_stmt 0 view .LVU101
 394 00b6 89E3      		ldi r24,lo8(57)
 395 00b8 0E94 0000 		call bootmagic_scan_keycode
 396               	.LVL37:
  63:./tmk_core/common/bootmagic.c ****     if (bootmagic_scan_keycode(BOOTMAGIC_KEY_CAPSLOCK_TO_CONTROL)) {
 397               		.loc 1 63 8 view .LVU102
 398 00bc 8823      		tst r24
 399 00be 01F0      		breq .L25
  64:./tmk_core/common/bootmagic.c ****         keymap_config.capslock_to_control = !keymap_config.capslock_to_control;
 400               		.loc 1 64 9 is_stmt 1 view .LVU103
  64:./tmk_core/common/bootmagic.c ****         keymap_config.capslock_to_control = !keymap_config.capslock_to_control;
 401               		.loc 1 64 59 is_stmt 0 view .LVU104
 402 00c0 9091 0000 		lds r25,keymap_config
  64:./tmk_core/common/bootmagic.c ****         keymap_config.capslock_to_control = !keymap_config.capslock_to_control;
 403               		.loc 1 64 43 view .LVU105
 404 00c4 892F      		mov r24,r25
 405 00c6 8D7F      		andi r24,~(1<<1)
 406 00c8 91FF      		sbrs r25,1
 407 00ca 8260      		ori r24,1<<1
 408 00cc 8093 0000 		sts keymap_config,r24
 409               	.L25:
  66:./tmk_core/common/bootmagic.c ****     if (bootmagic_scan_keycode(BOOTMAGIC_KEY_SWAP_LALT_LGUI)) {
 410               		.loc 1 66 5 is_stmt 1 view .LVU106
  66:./tmk_core/common/bootmagic.c ****     if (bootmagic_scan_keycode(BOOTMAGIC_KEY_SWAP_LALT_LGUI)) {
 411               		.loc 1 66 9 is_stmt 0 view .LVU107
 412 00d0 82EE      		ldi r24,lo8(-30)
 413 00d2 0E94 0000 		call bootmagic_scan_keycode
 414               	.LVL38:
  66:./tmk_core/common/bootmagic.c ****     if (bootmagic_scan_keycode(BOOTMAGIC_KEY_SWAP_LALT_LGUI)) {
 415               		.loc 1 66 8 view .LVU108
 416 00d6 8823      		tst r24
 417 00d8 01F0      		breq .L26
  67:./tmk_core/common/bootmagic.c ****         keymap_config.swap_lalt_lgui = !keymap_config.swap_lalt_lgui;
 418               		.loc 1 67 9 is_stmt 1 view .LVU109
  67:./tmk_core/common/bootmagic.c ****         keymap_config.swap_lalt_lgui = !keymap_config.swap_lalt_lgui;
 419               		.loc 1 67 54 is_stmt 0 view .LVU110
 420 00da 9091 0000 		lds r25,keymap_config
  67:./tmk_core/common/bootmagic.c ****         keymap_config.swap_lalt_lgui = !keymap_config.swap_lalt_lgui;
 421               		.loc 1 67 38 view .LVU111
 422 00de 892F      		mov r24,r25
 423 00e0 8B7F      		andi r24,~(1<<2)
 424 00e2 92FF      		sbrs r25,2
 425 00e4 8460      		ori r24,1<<2
 426 00e6 8093 0000 		sts keymap_config,r24
 427               	.L26:
  69:./tmk_core/common/bootmagic.c ****     if (bootmagic_scan_keycode(BOOTMAGIC_KEY_SWAP_RALT_RGUI)) {
 428               		.loc 1 69 5 is_stmt 1 view .LVU112
  69:./tmk_core/common/bootmagic.c ****     if (bootmagic_scan_keycode(BOOTMAGIC_KEY_SWAP_RALT_RGUI)) {
 429               		.loc 1 69 9 is_stmt 0 view .LVU113
 430 00ea 86EE      		ldi r24,lo8(-26)
 431 00ec 0E94 0000 		call bootmagic_scan_keycode
 432               	.LVL39:
  69:./tmk_core/common/bootmagic.c ****     if (bootmagic_scan_keycode(BOOTMAGIC_KEY_SWAP_RALT_RGUI)) {
 433               		.loc 1 69 8 view .LVU114
 434 00f0 8823      		tst r24
 435 00f2 01F0      		breq .L27
  70:./tmk_core/common/bootmagic.c ****         keymap_config.swap_ralt_rgui = !keymap_config.swap_ralt_rgui;
 436               		.loc 1 70 9 is_stmt 1 view .LVU115
  70:./tmk_core/common/bootmagic.c ****         keymap_config.swap_ralt_rgui = !keymap_config.swap_ralt_rgui;
 437               		.loc 1 70 54 is_stmt 0 view .LVU116
 438 00f4 9091 0000 		lds r25,keymap_config
  70:./tmk_core/common/bootmagic.c ****         keymap_config.swap_ralt_rgui = !keymap_config.swap_ralt_rgui;
 439               		.loc 1 70 38 view .LVU117
 440 00f8 892F      		mov r24,r25
 441 00fa 877F      		andi r24,~(1<<3)
 442 00fc 93FF      		sbrs r25,3
 443 00fe 8860      		ori r24,1<<3
 444 0100 8093 0000 		sts keymap_config,r24
 445               	.L27:
  72:./tmk_core/common/bootmagic.c ****     if (bootmagic_scan_keycode(BOOTMAGIC_KEY_NO_GUI)) {
 446               		.loc 1 72 5 is_stmt 1 view .LVU118
  72:./tmk_core/common/bootmagic.c ****     if (bootmagic_scan_keycode(BOOTMAGIC_KEY_NO_GUI)) {
 447               		.loc 1 72 9 is_stmt 0 view .LVU119
 448 0104 83EE      		ldi r24,lo8(-29)
 449 0106 0E94 0000 		call bootmagic_scan_keycode
 450               	.LVL40:
  72:./tmk_core/common/bootmagic.c ****     if (bootmagic_scan_keycode(BOOTMAGIC_KEY_NO_GUI)) {
 451               		.loc 1 72 8 view .LVU120
 452 010a 8823      		tst r24
 453 010c 01F0      		breq .L28
  73:./tmk_core/common/bootmagic.c ****         keymap_config.no_gui = !keymap_config.no_gui;
 454               		.loc 1 73 9 is_stmt 1 view .LVU121
  73:./tmk_core/common/bootmagic.c ****         keymap_config.no_gui = !keymap_config.no_gui;
 455               		.loc 1 73 46 is_stmt 0 view .LVU122
 456 010e 9091 0000 		lds r25,keymap_config
  73:./tmk_core/common/bootmagic.c ****         keymap_config.no_gui = !keymap_config.no_gui;
 457               		.loc 1 73 30 view .LVU123
 458 0112 892F      		mov r24,r25
 459 0114 8F7E      		andi r24,~(1<<4)
 460 0116 94FF      		sbrs r25,4
 461 0118 8061      		ori r24,1<<4
 462 011a 8093 0000 		sts keymap_config,r24
 463               	.L28:
  75:./tmk_core/common/bootmagic.c ****     if (bootmagic_scan_keycode(BOOTMAGIC_KEY_SWAP_GRAVE_ESC)) {
 464               		.loc 1 75 5 is_stmt 1 view .LVU124
  75:./tmk_core/common/bootmagic.c ****     if (bootmagic_scan_keycode(BOOTMAGIC_KEY_SWAP_GRAVE_ESC)) {
 465               		.loc 1 75 9 is_stmt 0 view .LVU125
 466 011e 85E3      		ldi r24,lo8(53)
 467 0120 0E94 0000 		call bootmagic_scan_keycode
 468               	.LVL41:
  75:./tmk_core/common/bootmagic.c ****     if (bootmagic_scan_keycode(BOOTMAGIC_KEY_SWAP_GRAVE_ESC)) {
 469               		.loc 1 75 8 view .LVU126
 470 0124 8823      		tst r24
 471 0126 01F0      		breq .L29
  76:./tmk_core/common/bootmagic.c ****         keymap_config.swap_grave_esc = !keymap_config.swap_grave_esc;
 472               		.loc 1 76 9 is_stmt 1 view .LVU127
  76:./tmk_core/common/bootmagic.c ****         keymap_config.swap_grave_esc = !keymap_config.swap_grave_esc;
 473               		.loc 1 76 54 is_stmt 0 view .LVU128
 474 0128 9091 0000 		lds r25,keymap_config
  76:./tmk_core/common/bootmagic.c ****         keymap_config.swap_grave_esc = !keymap_config.swap_grave_esc;
 475               		.loc 1 76 38 view .LVU129
 476 012c 892F      		mov r24,r25
 477 012e 8F7D      		andi r24,~(1<<5)
 478 0130 95FF      		sbrs r25,5
 479 0132 8062      		ori r24,1<<5
 480 0134 8093 0000 		sts keymap_config,r24
 481               	.L29:
  78:./tmk_core/common/bootmagic.c ****     if (bootmagic_scan_keycode(BOOTMAGIC_KEY_SWAP_BACKSLASH_BACKSPACE)) {
 482               		.loc 1 78 5 is_stmt 1 view .LVU130
  78:./tmk_core/common/bootmagic.c ****     if (bootmagic_scan_keycode(BOOTMAGIC_KEY_SWAP_BACKSLASH_BACKSPACE)) {
 483               		.loc 1 78 9 is_stmt 0 view .LVU131
 484 0138 81E3      		ldi r24,lo8(49)
 485 013a 0E94 0000 		call bootmagic_scan_keycode
 486               	.LVL42:
  78:./tmk_core/common/bootmagic.c ****     if (bootmagic_scan_keycode(BOOTMAGIC_KEY_SWAP_BACKSLASH_BACKSPACE)) {
 487               		.loc 1 78 8 view .LVU132
 488 013e 8823      		tst r24
 489 0140 01F0      		breq .L30
  79:./tmk_core/common/bootmagic.c ****         keymap_config.swap_backslash_backspace = !keymap_config.swap_backslash_backspace;
 490               		.loc 1 79 9 is_stmt 1 view .LVU133
  79:./tmk_core/common/bootmagic.c ****         keymap_config.swap_backslash_backspace = !keymap_config.swap_backslash_backspace;
 491               		.loc 1 79 64 is_stmt 0 view .LVU134
 492 0142 9091 0000 		lds r25,keymap_config
  79:./tmk_core/common/bootmagic.c ****         keymap_config.swap_backslash_backspace = !keymap_config.swap_backslash_backspace;
 493               		.loc 1 79 48 view .LVU135
 494 0146 892F      		mov r24,r25
 495 0148 8F7B      		andi r24,~(1<<6)
 496 014a 96FF      		sbrs r25,6
 497 014c 8064      		ori r24,1<<6
 498 014e 8093 0000 		sts keymap_config,r24
 499               	.L30:
  81:./tmk_core/common/bootmagic.c ****     if (bootmagic_scan_keycode(BOOTMAGIC_HOST_NKRO)) {
 500               		.loc 1 81 5 is_stmt 1 view .LVU136
  81:./tmk_core/common/bootmagic.c ****     if (bootmagic_scan_keycode(BOOTMAGIC_HOST_NKRO)) {
 501               		.loc 1 81 9 is_stmt 0 view .LVU137
 502 0152 81E1      		ldi r24,lo8(17)
 503 0154 0E94 0000 		call bootmagic_scan_keycode
 504               	.LVL43:
  81:./tmk_core/common/bootmagic.c ****     if (bootmagic_scan_keycode(BOOTMAGIC_HOST_NKRO)) {
 505               		.loc 1 81 8 view .LVU138
 506 0158 8823      		tst r24
 507 015a 01F0      		breq .L31
  82:./tmk_core/common/bootmagic.c ****         keymap_config.nkro = !keymap_config.nkro;
 508               		.loc 1 82 9 is_stmt 1 view .LVU139
  82:./tmk_core/common/bootmagic.c ****         keymap_config.nkro = !keymap_config.nkro;
 509               		.loc 1 82 44 is_stmt 0 view .LVU140
 510 015c 9091 0000 		lds r25,keymap_config
  82:./tmk_core/common/bootmagic.c ****         keymap_config.nkro = !keymap_config.nkro;
 511               		.loc 1 82 28 view .LVU141
 512 0160 892F      		mov r24,r25
 513 0162 97FB      		bst r25,7
 514 0164 87F9      		bld r24,7
 515 0166 8058      		subi r24,0x80
 516 0168 8093 0000 		sts keymap_config,r24
 517               	.L31:
  84:./tmk_core/common/bootmagic.c ****     eeconfig_update_keymap(keymap_config.raw);
 518               		.loc 1 84 5 is_stmt 1 view .LVU142
 519 016c 8091 0000 		lds r24,keymap_config
 520 0170 0E94 0000 		call eeconfig_update_keymap
 521               	.LVL44:
  87:./tmk_core/common/bootmagic.c ****     uint8_t default_layer = 0;
 522               		.loc 1 87 5 view .LVU143
  88:./tmk_core/common/bootmagic.c ****     if (bootmagic_scan_keycode(BOOTMAGIC_KEY_DEFAULT_LAYER_0)) { default_layer |= (1<<0); }
 523               		.loc 1 88 5 view .LVU144
  88:./tmk_core/common/bootmagic.c ****     if (bootmagic_scan_keycode(BOOTMAGIC_KEY_DEFAULT_LAYER_0)) { default_layer |= (1<<0); }
 524               		.loc 1 88 9 is_stmt 0 view .LVU145
 525 0174 87E2      		ldi r24,lo8(39)
 526 0176 0E94 0000 		call bootmagic_scan_keycode
 527               	.LVL45:
 528 017a 8983      		std Y+1,r24
 529               	.LVL46:
  89:./tmk_core/common/bootmagic.c ****     if (bootmagic_scan_keycode(BOOTMAGIC_KEY_DEFAULT_LAYER_1)) { default_layer |= (1<<1); }
 530               		.loc 1 89 5 is_stmt 1 view .LVU146
  89:./tmk_core/common/bootmagic.c ****     if (bootmagic_scan_keycode(BOOTMAGIC_KEY_DEFAULT_LAYER_1)) { default_layer |= (1<<1); }
 531               		.loc 1 89 9 is_stmt 0 view .LVU147
 532 017c 8EE1      		ldi r24,lo8(30)
 533               	.LVL47:
  89:./tmk_core/common/bootmagic.c ****     if (bootmagic_scan_keycode(BOOTMAGIC_KEY_DEFAULT_LAYER_1)) { default_layer |= (1<<1); }
 534               		.loc 1 89 9 view .LVU148
 535 017e 0E94 0000 		call bootmagic_scan_keycode
 536               	.LVL48:
  89:./tmk_core/common/bootmagic.c ****     if (bootmagic_scan_keycode(BOOTMAGIC_KEY_DEFAULT_LAYER_1)) { default_layer |= (1<<1); }
 537               		.loc 1 89 8 view .LVU149
 538 0182 8823      		tst r24
 539 0184 01F0      		breq .L32
  89:./tmk_core/common/bootmagic.c ****     if (bootmagic_scan_keycode(BOOTMAGIC_KEY_DEFAULT_LAYER_1)) { default_layer |= (1<<1); }
 540               		.loc 1 89 66 is_stmt 1 discriminator 1 view .LVU150
  89:./tmk_core/common/bootmagic.c ****     if (bootmagic_scan_keycode(BOOTMAGIC_KEY_DEFAULT_LAYER_1)) { default_layer |= (1<<1); }
 541               		.loc 1 89 80 is_stmt 0 discriminator 1 view .LVU151
 542 0186 A981      		ldd r26,Y+1
 543 0188 A260      		ori r26,lo8(2)
 544 018a A983      		std Y+1,r26
 545               	.LVL49:
 546               	.L32:
  90:./tmk_core/common/bootmagic.c ****     if (bootmagic_scan_keycode(BOOTMAGIC_KEY_DEFAULT_LAYER_2)) { default_layer |= (1<<2); }
 547               		.loc 1 90 5 is_stmt 1 view .LVU152
  90:./tmk_core/common/bootmagic.c ****     if (bootmagic_scan_keycode(BOOTMAGIC_KEY_DEFAULT_LAYER_2)) { default_layer |= (1<<2); }
 548               		.loc 1 90 9 is_stmt 0 view .LVU153
 549 018c 8FE1      		ldi r24,lo8(31)
 550 018e 0E94 0000 		call bootmagic_scan_keycode
 551               	.LVL50:
  90:./tmk_core/common/bootmagic.c ****     if (bootmagic_scan_keycode(BOOTMAGIC_KEY_DEFAULT_LAYER_2)) { default_layer |= (1<<2); }
 552               		.loc 1 90 8 view .LVU154
 553 0192 8823      		tst r24
 554 0194 01F0      		breq .L33
  90:./tmk_core/common/bootmagic.c ****     if (bootmagic_scan_keycode(BOOTMAGIC_KEY_DEFAULT_LAYER_2)) { default_layer |= (1<<2); }
 555               		.loc 1 90 66 is_stmt 1 discriminator 1 view .LVU155
  90:./tmk_core/common/bootmagic.c ****     if (bootmagic_scan_keycode(BOOTMAGIC_KEY_DEFAULT_LAYER_2)) { default_layer |= (1<<2); }
 556               		.loc 1 90 80 is_stmt 0 discriminator 1 view .LVU156
 557 0196 B981      		ldd r27,Y+1
 558 0198 B460      		ori r27,lo8(4)
 559 019a B983      		std Y+1,r27
 560               	.LVL51:
 561               	.L33:
  91:./tmk_core/common/bootmagic.c ****     if (bootmagic_scan_keycode(BOOTMAGIC_KEY_DEFAULT_LAYER_3)) { default_layer |= (1<<3); }
 562               		.loc 1 91 5 is_stmt 1 view .LVU157
  91:./tmk_core/common/bootmagic.c ****     if (bootmagic_scan_keycode(BOOTMAGIC_KEY_DEFAULT_LAYER_3)) { default_layer |= (1<<3); }
 563               		.loc 1 91 9 is_stmt 0 view .LVU158
 564 019c 80E2      		ldi r24,lo8(32)
 565 019e 0E94 0000 		call bootmagic_scan_keycode
 566               	.LVL52:
  91:./tmk_core/common/bootmagic.c ****     if (bootmagic_scan_keycode(BOOTMAGIC_KEY_DEFAULT_LAYER_3)) { default_layer |= (1<<3); }
 567               		.loc 1 91 8 view .LVU159
 568 01a2 8823      		tst r24
 569 01a4 01F0      		breq .L34
  91:./tmk_core/common/bootmagic.c ****     if (bootmagic_scan_keycode(BOOTMAGIC_KEY_DEFAULT_LAYER_3)) { default_layer |= (1<<3); }
 570               		.loc 1 91 66 is_stmt 1 discriminator 1 view .LVU160
  91:./tmk_core/common/bootmagic.c ****     if (bootmagic_scan_keycode(BOOTMAGIC_KEY_DEFAULT_LAYER_3)) { default_layer |= (1<<3); }
 571               		.loc 1 91 80 is_stmt 0 discriminator 1 view .LVU161
 572 01a6 2981      		ldd r18,Y+1
 573 01a8 2860      		ori r18,lo8(8)
 574 01aa 2983      		std Y+1,r18
 575               	.LVL53:
 576               	.L34:
  92:./tmk_core/common/bootmagic.c ****     if (bootmagic_scan_keycode(BOOTMAGIC_KEY_DEFAULT_LAYER_4)) { default_layer |= (1<<4); }
 577               		.loc 1 92 5 is_stmt 1 view .LVU162
  92:./tmk_core/common/bootmagic.c ****     if (bootmagic_scan_keycode(BOOTMAGIC_KEY_DEFAULT_LAYER_4)) { default_layer |= (1<<4); }
 578               		.loc 1 92 9 is_stmt 0 view .LVU163
 579 01ac 81E2      		ldi r24,lo8(33)
 580 01ae 0E94 0000 		call bootmagic_scan_keycode
 581               	.LVL54:
  92:./tmk_core/common/bootmagic.c ****     if (bootmagic_scan_keycode(BOOTMAGIC_KEY_DEFAULT_LAYER_4)) { default_layer |= (1<<4); }
 582               		.loc 1 92 8 view .LVU164
 583 01b2 8823      		tst r24
 584 01b4 01F0      		breq .L35
  92:./tmk_core/common/bootmagic.c ****     if (bootmagic_scan_keycode(BOOTMAGIC_KEY_DEFAULT_LAYER_4)) { default_layer |= (1<<4); }
 585               		.loc 1 92 66 is_stmt 1 discriminator 1 view .LVU165
  92:./tmk_core/common/bootmagic.c ****     if (bootmagic_scan_keycode(BOOTMAGIC_KEY_DEFAULT_LAYER_4)) { default_layer |= (1<<4); }
 586               		.loc 1 92 80 is_stmt 0 discriminator 1 view .LVU166
 587 01b6 3981      		ldd r19,Y+1
 588 01b8 3061      		ori r19,lo8(16)
 589 01ba 3983      		std Y+1,r19
 590               	.LVL55:
 591               	.L35:
  93:./tmk_core/common/bootmagic.c ****     if (bootmagic_scan_keycode(BOOTMAGIC_KEY_DEFAULT_LAYER_5)) { default_layer |= (1<<5); }
 592               		.loc 1 93 5 is_stmt 1 view .LVU167
  93:./tmk_core/common/bootmagic.c ****     if (bootmagic_scan_keycode(BOOTMAGIC_KEY_DEFAULT_LAYER_5)) { default_layer |= (1<<5); }
 593               		.loc 1 93 9 is_stmt 0 view .LVU168
 594 01bc 82E2      		ldi r24,lo8(34)
 595 01be 0E94 0000 		call bootmagic_scan_keycode
 596               	.LVL56:
  93:./tmk_core/common/bootmagic.c ****     if (bootmagic_scan_keycode(BOOTMAGIC_KEY_DEFAULT_LAYER_5)) { default_layer |= (1<<5); }
 597               		.loc 1 93 8 view .LVU169
 598 01c2 8823      		tst r24
 599 01c4 01F0      		breq .L36
  93:./tmk_core/common/bootmagic.c ****     if (bootmagic_scan_keycode(BOOTMAGIC_KEY_DEFAULT_LAYER_5)) { default_layer |= (1<<5); }
 600               		.loc 1 93 66 is_stmt 1 discriminator 1 view .LVU170
  93:./tmk_core/common/bootmagic.c ****     if (bootmagic_scan_keycode(BOOTMAGIC_KEY_DEFAULT_LAYER_5)) { default_layer |= (1<<5); }
 601               		.loc 1 93 80 is_stmt 0 discriminator 1 view .LVU171
 602 01c6 4981      		ldd r20,Y+1
 603 01c8 4062      		ori r20,lo8(32)
 604 01ca 4983      		std Y+1,r20
 605               	.LVL57:
 606               	.L36:
  94:./tmk_core/common/bootmagic.c ****     if (bootmagic_scan_keycode(BOOTMAGIC_KEY_DEFAULT_LAYER_6)) { default_layer |= (1<<6); }
 607               		.loc 1 94 5 is_stmt 1 view .LVU172
  94:./tmk_core/common/bootmagic.c ****     if (bootmagic_scan_keycode(BOOTMAGIC_KEY_DEFAULT_LAYER_6)) { default_layer |= (1<<6); }
 608               		.loc 1 94 9 is_stmt 0 view .LVU173
 609 01cc 83E2      		ldi r24,lo8(35)
 610 01ce 0E94 0000 		call bootmagic_scan_keycode
 611               	.LVL58:
  94:./tmk_core/common/bootmagic.c ****     if (bootmagic_scan_keycode(BOOTMAGIC_KEY_DEFAULT_LAYER_6)) { default_layer |= (1<<6); }
 612               		.loc 1 94 8 view .LVU174
 613 01d2 8823      		tst r24
 614 01d4 01F0      		breq .L37
  94:./tmk_core/common/bootmagic.c ****     if (bootmagic_scan_keycode(BOOTMAGIC_KEY_DEFAULT_LAYER_6)) { default_layer |= (1<<6); }
 615               		.loc 1 94 66 is_stmt 1 discriminator 1 view .LVU175
  94:./tmk_core/common/bootmagic.c ****     if (bootmagic_scan_keycode(BOOTMAGIC_KEY_DEFAULT_LAYER_6)) { default_layer |= (1<<6); }
 616               		.loc 1 94 80 is_stmt 0 discriminator 1 view .LVU176
 617 01d6 5981      		ldd r21,Y+1
 618 01d8 5064      		ori r21,lo8(64)
 619 01da 5983      		std Y+1,r21
 620               	.LVL59:
  95:./tmk_core/common/bootmagic.c ****     if (bootmagic_scan_keycode(BOOTMAGIC_KEY_DEFAULT_LAYER_7)) { default_layer |= (1<<7); }
 621               		.loc 1 95 5 is_stmt 1 discriminator 1 view .LVU177
  95:./tmk_core/common/bootmagic.c ****     if (bootmagic_scan_keycode(BOOTMAGIC_KEY_DEFAULT_LAYER_7)) { default_layer |= (1<<7); }
 622               		.loc 1 95 9 is_stmt 0 discriminator 1 view .LVU178
 623 01dc 84E2      		ldi r24,lo8(36)
 624 01de 0E94 0000 		call bootmagic_scan_keycode
 625               	.LVL60:
  95:./tmk_core/common/bootmagic.c ****     if (bootmagic_scan_keycode(BOOTMAGIC_KEY_DEFAULT_LAYER_7)) { default_layer |= (1<<7); }
 626               		.loc 1 95 8 discriminator 1 view .LVU179
 627 01e2 8111      		cpse r24,__zero_reg__
 628 01e4 00C0      		rjmp .L38
 629               	.LVL61:
 630               	.L39:
  97:./tmk_core/common/bootmagic.c ****         eeconfig_update_default_layer(default_layer);
 631               		.loc 1 97 9 is_stmt 1 view .LVU180
 632 01e6 8981      		ldd r24,Y+1
 633 01e8 0E94 0000 		call eeconfig_update_default_layer
 634               	.LVL62:
  98:./tmk_core/common/bootmagic.c ****         default_layer_set((uint32_t)default_layer);
 635               		.loc 1 98 9 view .LVU181
 636 01ec 3981      		ldd r19,Y+1
 637 01ee 232F      		mov r18,r19
 638               	.L92:
 101:./tmk_core/common/bootmagic.c ****         default_layer_set((uint32_t)default_layer);
 639               		.loc 1 101 9 is_stmt 0 view .LVU182
 640 01f0 30E0      		ldi r19,0
 641 01f2 40E0      		ldi r20,0
 642 01f4 50E0      		ldi r21,0
 643 01f6 2983      		std Y+1,r18
 644 01f8 3A83      		std Y+2,r19
 645 01fa 4B83      		std Y+3,r20
 646 01fc 5C83      		std Y+4,r21
 647 01fe CA01      		movw r24,r20
 648 0200 B901      		movw r22,r18
 649               	/* epilogue start */
 103:./tmk_core/common/bootmagic.c **** }
 650               		.loc 1 103 1 view .LVU183
 651 0202 0F90      		pop __tmp_reg__
 652 0204 0F90      		pop __tmp_reg__
 653 0206 0F90      		pop __tmp_reg__
 654 0208 0F90      		pop __tmp_reg__
 655 020a DF91      		pop r29
 656 020c CF91      		pop r28
 101:./tmk_core/common/bootmagic.c ****         default_layer_set((uint32_t)default_layer);
 657               		.loc 1 101 9 view .LVU184
 658 020e 0C94 0000 		jmp default_layer_set
 659               	.LVL63:
 660               	.L21:
  48:./tmk_core/common/bootmagic.c ****         } else if (bootmagic_scan_keycode(BOOTMAGIC_KEY_DEBUG_KEYBOARD)) {
 661               		.loc 1 48 16 is_stmt 1 view .LVU185
  48:./tmk_core/common/bootmagic.c ****         } else if (bootmagic_scan_keycode(BOOTMAGIC_KEY_DEBUG_KEYBOARD)) {
 662               		.loc 1 48 20 is_stmt 0 view .LVU186
 663 0212 8EE0      		ldi r24,lo8(14)
 664 0214 0E94 0000 		call bootmagic_scan_keycode
 665               	.LVL64:
  48:./tmk_core/common/bootmagic.c ****         } else if (bootmagic_scan_keycode(BOOTMAGIC_KEY_DEBUG_KEYBOARD)) {
 666               		.loc 1 48 19 view .LVU187
 667 0218 8823      		tst r24
 668 021a 01F0      		breq .L22
  49:./tmk_core/common/bootmagic.c ****             debug_config.keyboard = !debug_config.keyboard;
 669               		.loc 1 49 13 is_stmt 1 view .LVU188
  49:./tmk_core/common/bootmagic.c ****             debug_config.keyboard = !debug_config.keyboard;
 670               		.loc 1 49 50 is_stmt 0 view .LVU189
 671 021c 9091 0000 		lds r25,debug_config
  49:./tmk_core/common/bootmagic.c ****             debug_config.keyboard = !debug_config.keyboard;
 672               		.loc 1 49 35 view .LVU190
 673 0220 892F      		mov r24,r25
 674 0222 8B7F      		andi r24,~(1<<2)
 675 0224 92FF      		sbrs r25,2
 676 0226 8460      		ori r24,1<<2
 677 0228 00C0      		rjmp .L91
 678               	.L22:
  50:./tmk_core/common/bootmagic.c ****         } else if (bootmagic_scan_keycode(BOOTMAGIC_KEY_DEBUG_MOUSE)) {
 679               		.loc 1 50 16 is_stmt 1 view .LVU191
  50:./tmk_core/common/bootmagic.c ****         } else if (bootmagic_scan_keycode(BOOTMAGIC_KEY_DEBUG_MOUSE)) {
 680               		.loc 1 50 20 is_stmt 0 view .LVU192
 681 022a 80E1      		ldi r24,lo8(16)
 682 022c 0E94 0000 		call bootmagic_scan_keycode
 683               	.LVL65:
 684 0230 9091 0000 		lds r25,debug_config
  50:./tmk_core/common/bootmagic.c ****         } else if (bootmagic_scan_keycode(BOOTMAGIC_KEY_DEBUG_MOUSE)) {
 685               		.loc 1 50 19 view .LVU193
 686 0234 8823      		tst r24
 687 0236 01F0      		breq .L23
  51:./tmk_core/common/bootmagic.c ****             debug_config.mouse = !debug_config.mouse;
 688               		.loc 1 51 13 is_stmt 1 view .LVU194
  51:./tmk_core/common/bootmagic.c ****             debug_config.mouse = !debug_config.mouse;
 689               		.loc 1 51 32 is_stmt 0 view .LVU195
 690 0238 892F      		mov r24,r25
 691 023a 877F      		andi r24,~(1<<3)
 692 023c 93FF      		sbrs r25,3
 693 023e 8860      		ori r24,1<<3
 694 0240 00C0      		rjmp .L91
 695               	.L23:
  53:./tmk_core/common/bootmagic.c ****             debug_config.enable = !debug_config.enable;
 696               		.loc 1 53 13 is_stmt 1 view .LVU196
  53:./tmk_core/common/bootmagic.c ****             debug_config.enable = !debug_config.enable;
 697               		.loc 1 53 33 is_stmt 0 view .LVU197
 698 0242 892F      		mov r24,r25
 699 0244 8E7F      		andi r24,~(1<<0)
 700 0246 90FF      		sbrs r25,0
 701 0248 8160      		ori r24,1<<0
 702 024a 00C0      		rjmp .L91
 703               	.LVL66:
 704               	.L37:
  95:./tmk_core/common/bootmagic.c ****     if (bootmagic_scan_keycode(BOOTMAGIC_KEY_DEFAULT_LAYER_7)) { default_layer |= (1<<7); }
 705               		.loc 1 95 5 is_stmt 1 view .LVU198
  95:./tmk_core/common/bootmagic.c ****     if (bootmagic_scan_keycode(BOOTMAGIC_KEY_DEFAULT_LAYER_7)) { default_layer |= (1<<7); }
 706               		.loc 1 95 9 is_stmt 0 view .LVU199
 707 024c 84E2      		ldi r24,lo8(36)
 708 024e 0E94 0000 		call bootmagic_scan_keycode
 709               	.LVL67:
  95:./tmk_core/common/bootmagic.c ****     if (bootmagic_scan_keycode(BOOTMAGIC_KEY_DEFAULT_LAYER_7)) { default_layer |= (1<<7); }
 710               		.loc 1 95 8 view .LVU200
 711 0252 8823      		tst r24
 712 0254 01F0      		breq .L40
 713               	.LVL68:
 714               	.L38:
  95:./tmk_core/common/bootmagic.c ****     if (bootmagic_scan_keycode(BOOTMAGIC_KEY_DEFAULT_LAYER_7)) { default_layer |= (1<<7); }
 715               		.loc 1 95 66 is_stmt 1 discriminator 1 view .LVU201
  95:./tmk_core/common/bootmagic.c ****     if (bootmagic_scan_keycode(BOOTMAGIC_KEY_DEFAULT_LAYER_7)) { default_layer |= (1<<7); }
 716               		.loc 1 95 80 is_stmt 0 discriminator 1 view .LVU202
 717 0256 8981      		ldd r24,Y+1
 718 0258 8068      		ori r24,lo8(-128)
 719 025a 8983      		std Y+1,r24
 720               	.LVL69:
  96:./tmk_core/common/bootmagic.c ****     if (default_layer) {
 721               		.loc 1 96 5 is_stmt 1 discriminator 1 view .LVU203
 722 025c 00C0      		rjmp .L39
 723               	.LVL70:
 724               	.L40:
  96:./tmk_core/common/bootmagic.c ****     if (default_layer) {
 725               		.loc 1 96 5 view .LVU204
  96:./tmk_core/common/bootmagic.c ****     if (default_layer) {
 726               		.loc 1 96 8 is_stmt 0 view .LVU205
 727 025e 9981      		ldd r25,Y+1
 728 0260 9111      		cpse r25,__zero_reg__
 729 0262 00C0      		rjmp .L39
 100:./tmk_core/common/bootmagic.c ****         default_layer = eeconfig_read_default_layer();
 730               		.loc 1 100 9 is_stmt 1 view .LVU206
 100:./tmk_core/common/bootmagic.c ****         default_layer = eeconfig_read_default_layer();
 731               		.loc 1 100 25 is_stmt 0 view .LVU207
 732 0264 0E94 0000 		call eeconfig_read_default_layer
 733               	.LVL71:
 101:./tmk_core/common/bootmagic.c ****         default_layer_set((uint32_t)default_layer);
 734               		.loc 1 101 9 is_stmt 1 view .LVU208
 735 0268 282F      		mov r18,r24
 736 026a 00C0      		rjmp .L92
 737               	.LVL72:
 738               	.L14:
 739               	/* epilogue start */
 103:./tmk_core/common/bootmagic.c **** }
 740               		.loc 1 103 1 is_stmt 0 view .LVU209
 741 026c 0F90      		pop __tmp_reg__
 742 026e 0F90      		pop __tmp_reg__
 743 0270 0F90      		pop __tmp_reg__
 744 0272 0F90      		pop __tmp_reg__
 745 0274 DF91      		pop r29
 746 0276 CF91      		pop r28
 747 0278 0895      		ret
 748               		.cfi_endproc
 749               	.LFE107:
 751               	.global	keymap_config
 752               		.section	.bss.keymap_config,"aw",@nobits
 755               	keymap_config:
 756 0000 0000      		.zero	2
 757               		.text
 758               	.Letext0:
 759               		.file 3 "/usr/avr/include/stdint.h"
 760               		.file 4 "./tmk_core/common/matrix.h"
 761               		.file 5 "./tmk_core/common/debug.h"
 762               		.file 6 "./tmk_core/common/keyboard.h"
 763               		.file 7 "./quantum/keycode_config.h"
 764               		.file 8 "./quantum/keymap.h"
 765               		.file 9 "./tmk_core/common/action_layer.h"
 766               		.file 10 "./tmk_core/common/eeconfig.h"
 767               		.file 11 "./tmk_core/common/bootloader.h"
 768               		.file 12 "/usr/avr/include/math.h"
 769               		.file 13 "./tmk_core/common/keycode.h"