   1               		.file	"EndpointStream_AVR8.c"
   2               	__SP_H__ = 0x3e
   3               	__SP_L__ = 0x3d
   4               	__SREG__ = 0x3f
   5               	__tmp_reg__ = 0
   6               	__zero_reg__ = 1
   7               		.text
   8               	.Ltext0:
   9               		.cfi_sections	.debug_frame
  10               		.section	.text.Endpoint_Discard_Stream,"ax",@progbits
  11               	.global	Endpoint_Discard_Stream
  13               	Endpoint_Discard_Stream:
  14               	.LVL0:
  15               	.LFB85:
  16               		.file 1 "../../tmk_core/protocol/lufa/lufa-abcminiuser/LUFA/Drivers/USB/Core/AVR8/EndpointStream_A
   1:../../tmk_core/protocol/lufa/lufa-abcminiuser/LUFA/Drivers/USB/Core/AVR8/EndpointStream_AVR8.c **** /*
   2:../../tmk_core/protocol/lufa/lufa-abcminiuser/LUFA/Drivers/USB/Core/AVR8/EndpointStream_AVR8.c ****              LUFA Library
   3:../../tmk_core/protocol/lufa/lufa-abcminiuser/LUFA/Drivers/USB/Core/AVR8/EndpointStream_AVR8.c ****      Copyright (C) Dean Camera, 2019.
   4:../../tmk_core/protocol/lufa/lufa-abcminiuser/LUFA/Drivers/USB/Core/AVR8/EndpointStream_AVR8.c **** 
   5:../../tmk_core/protocol/lufa/lufa-abcminiuser/LUFA/Drivers/USB/Core/AVR8/EndpointStream_AVR8.c ****   dean [at] fourwalledcubicle [dot] com
   6:../../tmk_core/protocol/lufa/lufa-abcminiuser/LUFA/Drivers/USB/Core/AVR8/EndpointStream_AVR8.c ****            www.lufa-lib.org
   7:../../tmk_core/protocol/lufa/lufa-abcminiuser/LUFA/Drivers/USB/Core/AVR8/EndpointStream_AVR8.c **** */
   8:../../tmk_core/protocol/lufa/lufa-abcminiuser/LUFA/Drivers/USB/Core/AVR8/EndpointStream_AVR8.c **** 
   9:../../tmk_core/protocol/lufa/lufa-abcminiuser/LUFA/Drivers/USB/Core/AVR8/EndpointStream_AVR8.c **** /*
  10:../../tmk_core/protocol/lufa/lufa-abcminiuser/LUFA/Drivers/USB/Core/AVR8/EndpointStream_AVR8.c ****   Copyright 2019  Dean Camera (dean [at] fourwalledcubicle [dot] com)
  11:../../tmk_core/protocol/lufa/lufa-abcminiuser/LUFA/Drivers/USB/Core/AVR8/EndpointStream_AVR8.c **** 
  12:../../tmk_core/protocol/lufa/lufa-abcminiuser/LUFA/Drivers/USB/Core/AVR8/EndpointStream_AVR8.c ****   Permission to use, copy, modify, distribute, and sell this
  13:../../tmk_core/protocol/lufa/lufa-abcminiuser/LUFA/Drivers/USB/Core/AVR8/EndpointStream_AVR8.c ****   software and its documentation for any purpose is hereby granted
  14:../../tmk_core/protocol/lufa/lufa-abcminiuser/LUFA/Drivers/USB/Core/AVR8/EndpointStream_AVR8.c ****   without fee, provided that the above copyright notice appear in
  15:../../tmk_core/protocol/lufa/lufa-abcminiuser/LUFA/Drivers/USB/Core/AVR8/EndpointStream_AVR8.c ****   all copies and that both that the copyright notice and this
  16:../../tmk_core/protocol/lufa/lufa-abcminiuser/LUFA/Drivers/USB/Core/AVR8/EndpointStream_AVR8.c ****   permission notice and warranty disclaimer appear in supporting
  17:../../tmk_core/protocol/lufa/lufa-abcminiuser/LUFA/Drivers/USB/Core/AVR8/EndpointStream_AVR8.c ****   documentation, and that the name of the author not be used in
  18:../../tmk_core/protocol/lufa/lufa-abcminiuser/LUFA/Drivers/USB/Core/AVR8/EndpointStream_AVR8.c ****   advertising or publicity pertaining to distribution of the
  19:../../tmk_core/protocol/lufa/lufa-abcminiuser/LUFA/Drivers/USB/Core/AVR8/EndpointStream_AVR8.c ****   software without specific, written prior permission.
  20:../../tmk_core/protocol/lufa/lufa-abcminiuser/LUFA/Drivers/USB/Core/AVR8/EndpointStream_AVR8.c **** 
  21:../../tmk_core/protocol/lufa/lufa-abcminiuser/LUFA/Drivers/USB/Core/AVR8/EndpointStream_AVR8.c ****   The author disclaims all warranties with regard to this
  22:../../tmk_core/protocol/lufa/lufa-abcminiuser/LUFA/Drivers/USB/Core/AVR8/EndpointStream_AVR8.c ****   software, including all implied warranties of merchantability
  23:../../tmk_core/protocol/lufa/lufa-abcminiuser/LUFA/Drivers/USB/Core/AVR8/EndpointStream_AVR8.c ****   and fitness.  In no event shall the author be liable for any
  24:../../tmk_core/protocol/lufa/lufa-abcminiuser/LUFA/Drivers/USB/Core/AVR8/EndpointStream_AVR8.c ****   special, indirect or consequential damages or any damages
  25:../../tmk_core/protocol/lufa/lufa-abcminiuser/LUFA/Drivers/USB/Core/AVR8/EndpointStream_AVR8.c ****   whatsoever resulting from loss of use, data or profits, whether
  26:../../tmk_core/protocol/lufa/lufa-abcminiuser/LUFA/Drivers/USB/Core/AVR8/EndpointStream_AVR8.c ****   in an action of contract, negligence or other tortious action,
  27:../../tmk_core/protocol/lufa/lufa-abcminiuser/LUFA/Drivers/USB/Core/AVR8/EndpointStream_AVR8.c ****   arising out of or in connection with the use or performance of
  28:../../tmk_core/protocol/lufa/lufa-abcminiuser/LUFA/Drivers/USB/Core/AVR8/EndpointStream_AVR8.c ****   this software.
  29:../../tmk_core/protocol/lufa/lufa-abcminiuser/LUFA/Drivers/USB/Core/AVR8/EndpointStream_AVR8.c **** */
  30:../../tmk_core/protocol/lufa/lufa-abcminiuser/LUFA/Drivers/USB/Core/AVR8/EndpointStream_AVR8.c **** 
  31:../../tmk_core/protocol/lufa/lufa-abcminiuser/LUFA/Drivers/USB/Core/AVR8/EndpointStream_AVR8.c **** #include "../../../../Common/Common.h"
  32:../../tmk_core/protocol/lufa/lufa-abcminiuser/LUFA/Drivers/USB/Core/AVR8/EndpointStream_AVR8.c **** #if (ARCH == ARCH_AVR8)
  33:../../tmk_core/protocol/lufa/lufa-abcminiuser/LUFA/Drivers/USB/Core/AVR8/EndpointStream_AVR8.c **** 
  34:../../tmk_core/protocol/lufa/lufa-abcminiuser/LUFA/Drivers/USB/Core/AVR8/EndpointStream_AVR8.c **** #define  __INCLUDE_FROM_USB_DRIVER
  35:../../tmk_core/protocol/lufa/lufa-abcminiuser/LUFA/Drivers/USB/Core/AVR8/EndpointStream_AVR8.c **** #include "../USBMode.h"
  36:../../tmk_core/protocol/lufa/lufa-abcminiuser/LUFA/Drivers/USB/Core/AVR8/EndpointStream_AVR8.c **** 
  37:../../tmk_core/protocol/lufa/lufa-abcminiuser/LUFA/Drivers/USB/Core/AVR8/EndpointStream_AVR8.c **** #if defined(USB_CAN_BE_DEVICE)
  38:../../tmk_core/protocol/lufa/lufa-abcminiuser/LUFA/Drivers/USB/Core/AVR8/EndpointStream_AVR8.c **** 
  39:../../tmk_core/protocol/lufa/lufa-abcminiuser/LUFA/Drivers/USB/Core/AVR8/EndpointStream_AVR8.c **** #include "EndpointStream_AVR8.h"
  40:../../tmk_core/protocol/lufa/lufa-abcminiuser/LUFA/Drivers/USB/Core/AVR8/EndpointStream_AVR8.c **** 
  41:../../tmk_core/protocol/lufa/lufa-abcminiuser/LUFA/Drivers/USB/Core/AVR8/EndpointStream_AVR8.c **** #if !defined(CONTROL_ONLY_DEVICE)
  42:../../tmk_core/protocol/lufa/lufa-abcminiuser/LUFA/Drivers/USB/Core/AVR8/EndpointStream_AVR8.c **** uint8_t Endpoint_Discard_Stream(uint16_t Length,
  43:../../tmk_core/protocol/lufa/lufa-abcminiuser/LUFA/Drivers/USB/Core/AVR8/EndpointStream_AVR8.c ****                                 uint16_t* const BytesProcessed)
  44:../../tmk_core/protocol/lufa/lufa-abcminiuser/LUFA/Drivers/USB/Core/AVR8/EndpointStream_AVR8.c **** {
  17               		.loc 1 44 1 view -0
  18               		.cfi_startproc
  19               		.loc 1 44 1 is_stmt 0 view .LVU1
  20 0000 CF92      		push r12
  21               	.LCFI0:
  22               		.cfi_def_cfa_offset 3
  23               		.cfi_offset 12, -2
  24 0002 DF92      		push r13
  25               	.LCFI1:
  26               		.cfi_def_cfa_offset 4
  27               		.cfi_offset 13, -3
  28 0004 EF92      		push r14
  29               	.LCFI2:
  30               		.cfi_def_cfa_offset 5
  31               		.cfi_offset 14, -4
  32 0006 FF92      		push r15
  33               	.LCFI3:
  34               		.cfi_def_cfa_offset 6
  35               		.cfi_offset 15, -5
  36 0008 1F93      		push r17
  37               	.LCFI4:
  38               		.cfi_def_cfa_offset 7
  39               		.cfi_offset 17, -6
  40 000a CF93      		push r28
  41               	.LCFI5:
  42               		.cfi_def_cfa_offset 8
  43               		.cfi_offset 28, -7
  44 000c DF93      		push r29
  45               	.LCFI6:
  46               		.cfi_def_cfa_offset 9
  47               		.cfi_offset 29, -8
  48               	/* prologue: function */
  49               	/* frame size = 0 */
  50               	/* stack size = 7 */
  51               	.L__stack_usage = 7
  52 000e 6C01      		movw r12,r24
  53 0010 7B01      		movw r14,r22
  45:../../tmk_core/protocol/lufa/lufa-abcminiuser/LUFA/Drivers/USB/Core/AVR8/EndpointStream_AVR8.c **** 	uint8_t  ErrorCode;
  54               		.loc 1 45 2 is_stmt 1 view .LVU2
  46:../../tmk_core/protocol/lufa/lufa-abcminiuser/LUFA/Drivers/USB/Core/AVR8/EndpointStream_AVR8.c **** 	uint16_t BytesInTransfer = BytesProcessed ? *BytesProcessed : 0;
  55               		.loc 1 46 2 view .LVU3
  56               		.loc 1 46 62 is_stmt 0 view .LVU4
  57 0012 D0E0      		ldi r29,0
  58 0014 C0E0      		ldi r28,0
  59 0016 6115      		cp r22,__zero_reg__
  60 0018 7105      		cpc r23,__zero_reg__
  61 001a 01F0      		breq .L2
  62               		.loc 1 46 62 discriminator 1 view .LVU5
  63 001c FB01      		movw r30,r22
  64 001e C081      		ld r28,Z
  65 0020 D181      		ldd r29,Z+1
  66               	.LVL1:
  67               	.L2:
  47:../../tmk_core/protocol/lufa/lufa-abcminiuser/LUFA/Drivers/USB/Core/AVR8/EndpointStream_AVR8.c **** 
  48:../../tmk_core/protocol/lufa/lufa-abcminiuser/LUFA/Drivers/USB/Core/AVR8/EndpointStream_AVR8.c **** 	if ((ErrorCode = Endpoint_WaitUntilReady()))
  68               		.loc 1 48 2 is_stmt 1 discriminator 4 view .LVU6
  69               		.loc 1 48 19 is_stmt 0 discriminator 4 view .LVU7
  70 0022 0E94 0000 		call Endpoint_WaitUntilReady
  71               	.LVL2:
  72               		.loc 1 48 19 discriminator 4 view .LVU8
  73 0026 182F      		mov r17,r24
  74               	.LVL3:
  75               		.loc 1 48 5 discriminator 4 view .LVU9
  76 0028 8823      		tst r24
  77 002a 01F0      		breq .L4
  78               	.LVL4:
  79               	.L1:
  49:../../tmk_core/protocol/lufa/lufa-abcminiuser/LUFA/Drivers/USB/Core/AVR8/EndpointStream_AVR8.c **** 	  return ErrorCode;
  50:../../tmk_core/protocol/lufa/lufa-abcminiuser/LUFA/Drivers/USB/Core/AVR8/EndpointStream_AVR8.c **** 
  51:../../tmk_core/protocol/lufa/lufa-abcminiuser/LUFA/Drivers/USB/Core/AVR8/EndpointStream_AVR8.c **** 	while (BytesInTransfer < Length)
  52:../../tmk_core/protocol/lufa/lufa-abcminiuser/LUFA/Drivers/USB/Core/AVR8/EndpointStream_AVR8.c **** 	{
  53:../../tmk_core/protocol/lufa/lufa-abcminiuser/LUFA/Drivers/USB/Core/AVR8/EndpointStream_AVR8.c **** 		if (!(Endpoint_IsReadWriteAllowed()))
  54:../../tmk_core/protocol/lufa/lufa-abcminiuser/LUFA/Drivers/USB/Core/AVR8/EndpointStream_AVR8.c **** 		{
  55:../../tmk_core/protocol/lufa/lufa-abcminiuser/LUFA/Drivers/USB/Core/AVR8/EndpointStream_AVR8.c **** 			Endpoint_ClearOUT();
  56:../../tmk_core/protocol/lufa/lufa-abcminiuser/LUFA/Drivers/USB/Core/AVR8/EndpointStream_AVR8.c **** 
  57:../../tmk_core/protocol/lufa/lufa-abcminiuser/LUFA/Drivers/USB/Core/AVR8/EndpointStream_AVR8.c **** 			if (BytesProcessed != NULL)
  58:../../tmk_core/protocol/lufa/lufa-abcminiuser/LUFA/Drivers/USB/Core/AVR8/EndpointStream_AVR8.c **** 			{
  59:../../tmk_core/protocol/lufa/lufa-abcminiuser/LUFA/Drivers/USB/Core/AVR8/EndpointStream_AVR8.c **** 				*BytesProcessed = BytesInTransfer;
  60:../../tmk_core/protocol/lufa/lufa-abcminiuser/LUFA/Drivers/USB/Core/AVR8/EndpointStream_AVR8.c **** 				return ENDPOINT_RWSTREAM_IncompleteTransfer;
  61:../../tmk_core/protocol/lufa/lufa-abcminiuser/LUFA/Drivers/USB/Core/AVR8/EndpointStream_AVR8.c **** 			}
  62:../../tmk_core/protocol/lufa/lufa-abcminiuser/LUFA/Drivers/USB/Core/AVR8/EndpointStream_AVR8.c **** 
  63:../../tmk_core/protocol/lufa/lufa-abcminiuser/LUFA/Drivers/USB/Core/AVR8/EndpointStream_AVR8.c **** 			if ((ErrorCode = Endpoint_WaitUntilReady()))
  64:../../tmk_core/protocol/lufa/lufa-abcminiuser/LUFA/Drivers/USB/Core/AVR8/EndpointStream_AVR8.c **** 			  return ErrorCode;
  65:../../tmk_core/protocol/lufa/lufa-abcminiuser/LUFA/Drivers/USB/Core/AVR8/EndpointStream_AVR8.c **** 		}
  66:../../tmk_core/protocol/lufa/lufa-abcminiuser/LUFA/Drivers/USB/Core/AVR8/EndpointStream_AVR8.c **** 		else
  67:../../tmk_core/protocol/lufa/lufa-abcminiuser/LUFA/Drivers/USB/Core/AVR8/EndpointStream_AVR8.c **** 		{
  68:../../tmk_core/protocol/lufa/lufa-abcminiuser/LUFA/Drivers/USB/Core/AVR8/EndpointStream_AVR8.c **** 			Endpoint_Discard_8();
  69:../../tmk_core/protocol/lufa/lufa-abcminiuser/LUFA/Drivers/USB/Core/AVR8/EndpointStream_AVR8.c **** 			BytesInTransfer++;
  70:../../tmk_core/protocol/lufa/lufa-abcminiuser/LUFA/Drivers/USB/Core/AVR8/EndpointStream_AVR8.c **** 		}
  71:../../tmk_core/protocol/lufa/lufa-abcminiuser/LUFA/Drivers/USB/Core/AVR8/EndpointStream_AVR8.c **** 	}
  72:../../tmk_core/protocol/lufa/lufa-abcminiuser/LUFA/Drivers/USB/Core/AVR8/EndpointStream_AVR8.c **** 
  73:../../tmk_core/protocol/lufa/lufa-abcminiuser/LUFA/Drivers/USB/Core/AVR8/EndpointStream_AVR8.c **** 	return ENDPOINT_RWSTREAM_NoError;
  74:../../tmk_core/protocol/lufa/lufa-abcminiuser/LUFA/Drivers/USB/Core/AVR8/EndpointStream_AVR8.c **** }
  80               		.loc 1 74 1 view .LVU10
  81 002c 812F      		mov r24,r17
  82               	/* epilogue start */
  83 002e DF91      		pop r29
  84 0030 CF91      		pop r28
  85               	.LVL5:
  86               		.loc 1 74 1 view .LVU11
  87 0032 1F91      		pop r17
  88 0034 FF90      		pop r15
  89 0036 EF90      		pop r14
  90               	.LVL6:
  91               		.loc 1 74 1 view .LVU12
  92 0038 DF90      		pop r13
  93 003a CF90      		pop r12
  94               	.LVL7:
  95               		.loc 1 74 1 view .LVU13
  96 003c 0895      		ret
  97               	.LVL8:
  98               	.L6:
  63:../../tmk_core/protocol/lufa/lufa-abcminiuser/LUFA/Drivers/USB/Core/AVR8/EndpointStream_AVR8.c **** 			  return ErrorCode;
  99               		.loc 1 63 4 is_stmt 1 view .LVU14
  63:../../tmk_core/protocol/lufa/lufa-abcminiuser/LUFA/Drivers/USB/Core/AVR8/EndpointStream_AVR8.c **** 			  return ErrorCode;
 100               		.loc 1 63 21 is_stmt 0 view .LVU15
 101 003e 0E94 0000 		call Endpoint_WaitUntilReady
 102               	.LVL9:
  63:../../tmk_core/protocol/lufa/lufa-abcminiuser/LUFA/Drivers/USB/Core/AVR8/EndpointStream_AVR8.c **** 			  return ErrorCode;
 103               		.loc 1 63 7 view .LVU16
 104 0042 8823      		tst r24
 105 0044 01F0      		breq .L4
  63:../../tmk_core/protocol/lufa/lufa-abcminiuser/LUFA/Drivers/USB/Core/AVR8/EndpointStream_AVR8.c **** 			  return ErrorCode;
 106               		.loc 1 63 21 view .LVU17
 107 0046 182F      		mov r17,r24
 108 0048 00C0      		rjmp .L1
 109               	.LVL10:
 110               	.L5:
  68:../../tmk_core/protocol/lufa/lufa-abcminiuser/LUFA/Drivers/USB/Core/AVR8/EndpointStream_AVR8.c **** 			BytesInTransfer++;
 111               		.loc 1 68 4 is_stmt 1 view .LVU18
 112               	.LBB268:
 113               	.LBI268:
 114               		.file 2 "../../tmk_core/protocol/lufa/lufa-abcminiuser/LUFA/Drivers/USB/Core/AVR8/../AVR8/../AVR8/
   1:../../tmk_core/protocol/lufa/lufa-abcminiuser/LUFA/Drivers/USB/Core/AVR8/../AVR8/../AVR8/Endpoint_AVR8.h **** /*
   2:../../tmk_core/protocol/lufa/lufa-abcminiuser/LUFA/Drivers/USB/Core/AVR8/../AVR8/../AVR8/Endpoint_AVR8.h ****              LUFA Library
   3:../../tmk_core/protocol/lufa/lufa-abcminiuser/LUFA/Drivers/USB/Core/AVR8/../AVR8/../AVR8/Endpoint_AVR8.h ****      Copyright (C) Dean Camera, 2019.
   4:../../tmk_core/protocol/lufa/lufa-abcminiuser/LUFA/Drivers/USB/Core/AVR8/../AVR8/../AVR8/Endpoint_AVR8.h **** 
   5:../../tmk_core/protocol/lufa/lufa-abcminiuser/LUFA/Drivers/USB/Core/AVR8/../AVR8/../AVR8/Endpoint_AVR8.h ****   dean [at] fourwalledcubicle [dot] com
   6:../../tmk_core/protocol/lufa/lufa-abcminiuser/LUFA/Drivers/USB/Core/AVR8/../AVR8/../AVR8/Endpoint_AVR8.h ****            www.lufa-lib.org
   7:../../tmk_core/protocol/lufa/lufa-abcminiuser/LUFA/Drivers/USB/Core/AVR8/../AVR8/../AVR8/Endpoint_AVR8.h **** */
   8:../../tmk_core/protocol/lufa/lufa-abcminiuser/LUFA/Drivers/USB/Core/AVR8/../AVR8/../AVR8/Endpoint_AVR8.h **** 
   9:../../tmk_core/protocol/lufa/lufa-abcminiuser/LUFA/Drivers/USB/Core/AVR8/../AVR8/../AVR8/Endpoint_AVR8.h **** /*
  10:../../tmk_core/protocol/lufa/lufa-abcminiuser/LUFA/Drivers/USB/Core/AVR8/../AVR8/../AVR8/Endpoint_AVR8.h ****   Copyright 2019  Dean Camera (dean [at] fourwalledcubicle [dot] com)
  11:../../tmk_core/protocol/lufa/lufa-abcminiuser/LUFA/Drivers/USB/Core/AVR8/../AVR8/../AVR8/Endpoint_AVR8.h **** 
  12:../../tmk_core/protocol/lufa/lufa-abcminiuser/LUFA/Drivers/USB/Core/AVR8/../AVR8/../AVR8/Endpoint_AVR8.h ****   Permission to use, copy, modify, distribute, and sell this
  13:../../tmk_core/protocol/lufa/lufa-abcminiuser/LUFA/Drivers/USB/Core/AVR8/../AVR8/../AVR8/Endpoint_AVR8.h ****   software and its documentation for any purpose is hereby granted
  14:../../tmk_core/protocol/lufa/lufa-abcminiuser/LUFA/Drivers/USB/Core/AVR8/../AVR8/../AVR8/Endpoint_AVR8.h ****   without fee, provided that the above copyright notice appear in
  15:../../tmk_core/protocol/lufa/lufa-abcminiuser/LUFA/Drivers/USB/Core/AVR8/../AVR8/../AVR8/Endpoint_AVR8.h ****   all copies and that both that the copyright notice and this
  16:../../tmk_core/protocol/lufa/lufa-abcminiuser/LUFA/Drivers/USB/Core/AVR8/../AVR8/../AVR8/Endpoint_AVR8.h ****   permission notice and warranty disclaimer appear in supporting
  17:../../tmk_core/protocol/lufa/lufa-abcminiuser/LUFA/Drivers/USB/Core/AVR8/../AVR8/../AVR8/Endpoint_AVR8.h ****   documentation, and that the name of the author not be used in
  18:../../tmk_core/protocol/lufa/lufa-abcminiuser/LUFA/Drivers/USB/Core/AVR8/../AVR8/../AVR8/Endpoint_AVR8.h ****   advertising or publicity pertaining to distribution of the
  19:../../tmk_core/protocol/lufa/lufa-abcminiuser/LUFA/Drivers/USB/Core/AVR8/../AVR8/../AVR8/Endpoint_AVR8.h ****   software without specific, written prior permission.
  20:../../tmk_core/protocol/lufa/lufa-abcminiuser/LUFA/Drivers/USB/Core/AVR8/../AVR8/../AVR8/Endpoint_AVR8.h **** 
  21:../../tmk_core/protocol/lufa/lufa-abcminiuser/LUFA/Drivers/USB/Core/AVR8/../AVR8/../AVR8/Endpoint_AVR8.h ****   The author disclaims all warranties with regard to this
  22:../../tmk_core/protocol/lufa/lufa-abcminiuser/LUFA/Drivers/USB/Core/AVR8/../AVR8/../AVR8/Endpoint_AVR8.h ****   software, including all implied warranties of merchantability
  23:../../tmk_core/protocol/lufa/lufa-abcminiuser/LUFA/Drivers/USB/Core/AVR8/../AVR8/../AVR8/Endpoint_AVR8.h ****   and fitness.  In no event shall the author be liable for any
  24:../../tmk_core/protocol/lufa/lufa-abcminiuser/LUFA/Drivers/USB/Core/AVR8/../AVR8/../AVR8/Endpoint_AVR8.h ****   special, indirect or consequential damages or any damages
  25:../../tmk_core/protocol/lufa/lufa-abcminiuser/LUFA/Drivers/USB/Core/AVR8/../AVR8/../AVR8/Endpoint_AVR8.h ****   whatsoever resulting from loss of use, data or profits, whether
  26:../../tmk_core/protocol/lufa/lufa-abcminiuser/LUFA/Drivers/USB/Core/AVR8/../AVR8/../AVR8/Endpoint_AVR8.h ****   in an action of contract, negligence or other tortious action,
  27:../../tmk_core/protocol/lufa/lufa-abcminiuser/LUFA/Drivers/USB/Core/AVR8/../AVR8/../AVR8/Endpoint_AVR8.h ****   arising out of or in connection with the use or performance of
  28:../../tmk_core/protocol/lufa/lufa-abcminiuser/LUFA/Drivers/USB/Core/AVR8/../AVR8/../AVR8/Endpoint_AVR8.h ****   this software.
  29:../../tmk_core/protocol/lufa/lufa-abcminiuser/LUFA/Drivers/USB/Core/AVR8/../AVR8/../AVR8/Endpoint_AVR8.h **** */
  30:../../tmk_core/protocol/lufa/lufa-abcminiuser/LUFA/Drivers/USB/Core/AVR8/../AVR8/../AVR8/Endpoint_AVR8.h **** 
  31:../../tmk_core/protocol/lufa/lufa-abcminiuser/LUFA/Drivers/USB/Core/AVR8/../AVR8/../AVR8/Endpoint_AVR8.h **** /** \file
  32:../../tmk_core/protocol/lufa/lufa-abcminiuser/LUFA/Drivers/USB/Core/AVR8/../AVR8/../AVR8/Endpoint_AVR8.h ****  *  \brief USB Endpoint definitions for the AVR8 microcontrollers.
  33:../../tmk_core/protocol/lufa/lufa-abcminiuser/LUFA/Drivers/USB/Core/AVR8/../AVR8/../AVR8/Endpoint_AVR8.h ****  *  \copydetails Group_EndpointManagement_AVR8
  34:../../tmk_core/protocol/lufa/lufa-abcminiuser/LUFA/Drivers/USB/Core/AVR8/../AVR8/../AVR8/Endpoint_AVR8.h ****  *
  35:../../tmk_core/protocol/lufa/lufa-abcminiuser/LUFA/Drivers/USB/Core/AVR8/../AVR8/../AVR8/Endpoint_AVR8.h ****  *  \note This file should not be included directly. It is automatically included as needed by the 
  36:../../tmk_core/protocol/lufa/lufa-abcminiuser/LUFA/Drivers/USB/Core/AVR8/../AVR8/../AVR8/Endpoint_AVR8.h ****  *        dispatch header located in LUFA/Drivers/USB/USB.h.
  37:../../tmk_core/protocol/lufa/lufa-abcminiuser/LUFA/Drivers/USB/Core/AVR8/../AVR8/../AVR8/Endpoint_AVR8.h ****  */
  38:../../tmk_core/protocol/lufa/lufa-abcminiuser/LUFA/Drivers/USB/Core/AVR8/../AVR8/../AVR8/Endpoint_AVR8.h **** 
  39:../../tmk_core/protocol/lufa/lufa-abcminiuser/LUFA/Drivers/USB/Core/AVR8/../AVR8/../AVR8/Endpoint_AVR8.h **** /** \ingroup Group_EndpointRW
  40:../../tmk_core/protocol/lufa/lufa-abcminiuser/LUFA/Drivers/USB/Core/AVR8/../AVR8/../AVR8/Endpoint_AVR8.h ****  *  \defgroup Group_EndpointRW_AVR8 Endpoint Data Reading and Writing (AVR8)
  41:../../tmk_core/protocol/lufa/lufa-abcminiuser/LUFA/Drivers/USB/Core/AVR8/../AVR8/../AVR8/Endpoint_AVR8.h ****  *  \brief Endpoint data read/write definitions for the Atmel AVR8 architecture.
  42:../../tmk_core/protocol/lufa/lufa-abcminiuser/LUFA/Drivers/USB/Core/AVR8/../AVR8/../AVR8/Endpoint_AVR8.h ****  *
  43:../../tmk_core/protocol/lufa/lufa-abcminiuser/LUFA/Drivers/USB/Core/AVR8/../AVR8/../AVR8/Endpoint_AVR8.h ****  *  Functions, macros, variables, enums and types related to data reading and writing from and to e
  44:../../tmk_core/protocol/lufa/lufa-abcminiuser/LUFA/Drivers/USB/Core/AVR8/../AVR8/../AVR8/Endpoint_AVR8.h ****  */
  45:../../tmk_core/protocol/lufa/lufa-abcminiuser/LUFA/Drivers/USB/Core/AVR8/../AVR8/../AVR8/Endpoint_AVR8.h **** 
  46:../../tmk_core/protocol/lufa/lufa-abcminiuser/LUFA/Drivers/USB/Core/AVR8/../AVR8/../AVR8/Endpoint_AVR8.h **** /** \ingroup Group_EndpointPrimitiveRW
  47:../../tmk_core/protocol/lufa/lufa-abcminiuser/LUFA/Drivers/USB/Core/AVR8/../AVR8/../AVR8/Endpoint_AVR8.h ****  *  \defgroup Group_EndpointPrimitiveRW_AVR8 Read/Write of Primitive Data Types (AVR8)
  48:../../tmk_core/protocol/lufa/lufa-abcminiuser/LUFA/Drivers/USB/Core/AVR8/../AVR8/../AVR8/Endpoint_AVR8.h ****  *  \brief Endpoint primitive read/write definitions for the Atmel AVR8 architecture.
  49:../../tmk_core/protocol/lufa/lufa-abcminiuser/LUFA/Drivers/USB/Core/AVR8/../AVR8/../AVR8/Endpoint_AVR8.h ****  *
  50:../../tmk_core/protocol/lufa/lufa-abcminiuser/LUFA/Drivers/USB/Core/AVR8/../AVR8/../AVR8/Endpoint_AVR8.h ****  *  Functions, macros, variables, enums and types related to data reading and writing of primitive 
  51:../../tmk_core/protocol/lufa/lufa-abcminiuser/LUFA/Drivers/USB/Core/AVR8/../AVR8/../AVR8/Endpoint_AVR8.h ****  *  from and to endpoints.
  52:../../tmk_core/protocol/lufa/lufa-abcminiuser/LUFA/Drivers/USB/Core/AVR8/../AVR8/../AVR8/Endpoint_AVR8.h ****  */
  53:../../tmk_core/protocol/lufa/lufa-abcminiuser/LUFA/Drivers/USB/Core/AVR8/../AVR8/../AVR8/Endpoint_AVR8.h **** 
  54:../../tmk_core/protocol/lufa/lufa-abcminiuser/LUFA/Drivers/USB/Core/AVR8/../AVR8/../AVR8/Endpoint_AVR8.h **** /** \ingroup Group_EndpointPacketManagement
  55:../../tmk_core/protocol/lufa/lufa-abcminiuser/LUFA/Drivers/USB/Core/AVR8/../AVR8/../AVR8/Endpoint_AVR8.h ****  *  \defgroup Group_EndpointPacketManagement_AVR8 Endpoint Packet Management (AVR8)
  56:../../tmk_core/protocol/lufa/lufa-abcminiuser/LUFA/Drivers/USB/Core/AVR8/../AVR8/../AVR8/Endpoint_AVR8.h ****  *  \brief Endpoint packet management definitions for the Atmel AVR8 architecture.
  57:../../tmk_core/protocol/lufa/lufa-abcminiuser/LUFA/Drivers/USB/Core/AVR8/../AVR8/../AVR8/Endpoint_AVR8.h ****  *
  58:../../tmk_core/protocol/lufa/lufa-abcminiuser/LUFA/Drivers/USB/Core/AVR8/../AVR8/../AVR8/Endpoint_AVR8.h ****  *  Functions, macros, variables, enums and types related to packet management of endpoints.
  59:../../tmk_core/protocol/lufa/lufa-abcminiuser/LUFA/Drivers/USB/Core/AVR8/../AVR8/../AVR8/Endpoint_AVR8.h ****  */
  60:../../tmk_core/protocol/lufa/lufa-abcminiuser/LUFA/Drivers/USB/Core/AVR8/../AVR8/../AVR8/Endpoint_AVR8.h **** 
  61:../../tmk_core/protocol/lufa/lufa-abcminiuser/LUFA/Drivers/USB/Core/AVR8/../AVR8/../AVR8/Endpoint_AVR8.h **** /** \ingroup Group_EndpointManagement
  62:../../tmk_core/protocol/lufa/lufa-abcminiuser/LUFA/Drivers/USB/Core/AVR8/../AVR8/../AVR8/Endpoint_AVR8.h ****  *  \defgroup Group_EndpointManagement_AVR8 Endpoint Management (AVR8)
  63:../../tmk_core/protocol/lufa/lufa-abcminiuser/LUFA/Drivers/USB/Core/AVR8/../AVR8/../AVR8/Endpoint_AVR8.h ****  *  \brief Endpoint management definitions for the Atmel AVR8 architecture.
  64:../../tmk_core/protocol/lufa/lufa-abcminiuser/LUFA/Drivers/USB/Core/AVR8/../AVR8/../AVR8/Endpoint_AVR8.h ****  *
  65:../../tmk_core/protocol/lufa/lufa-abcminiuser/LUFA/Drivers/USB/Core/AVR8/../AVR8/../AVR8/Endpoint_AVR8.h ****  *  Functions, macros and enums related to endpoint management when in USB Device mode. This
  66:../../tmk_core/protocol/lufa/lufa-abcminiuser/LUFA/Drivers/USB/Core/AVR8/../AVR8/../AVR8/Endpoint_AVR8.h ****  *  module contains the endpoint management macros, as well as endpoint interrupt and data
  67:../../tmk_core/protocol/lufa/lufa-abcminiuser/LUFA/Drivers/USB/Core/AVR8/../AVR8/../AVR8/Endpoint_AVR8.h ****  *  send/receive functions for various data types.
  68:../../tmk_core/protocol/lufa/lufa-abcminiuser/LUFA/Drivers/USB/Core/AVR8/../AVR8/../AVR8/Endpoint_AVR8.h ****  *
  69:../../tmk_core/protocol/lufa/lufa-abcminiuser/LUFA/Drivers/USB/Core/AVR8/../AVR8/../AVR8/Endpoint_AVR8.h ****  *  @{
  70:../../tmk_core/protocol/lufa/lufa-abcminiuser/LUFA/Drivers/USB/Core/AVR8/../AVR8/../AVR8/Endpoint_AVR8.h ****  */
  71:../../tmk_core/protocol/lufa/lufa-abcminiuser/LUFA/Drivers/USB/Core/AVR8/../AVR8/../AVR8/Endpoint_AVR8.h **** 
  72:../../tmk_core/protocol/lufa/lufa-abcminiuser/LUFA/Drivers/USB/Core/AVR8/../AVR8/../AVR8/Endpoint_AVR8.h **** #ifndef __ENDPOINT_AVR8_H__
  73:../../tmk_core/protocol/lufa/lufa-abcminiuser/LUFA/Drivers/USB/Core/AVR8/../AVR8/../AVR8/Endpoint_AVR8.h **** #define __ENDPOINT_AVR8_H__
  74:../../tmk_core/protocol/lufa/lufa-abcminiuser/LUFA/Drivers/USB/Core/AVR8/../AVR8/../AVR8/Endpoint_AVR8.h **** 
  75:../../tmk_core/protocol/lufa/lufa-abcminiuser/LUFA/Drivers/USB/Core/AVR8/../AVR8/../AVR8/Endpoint_AVR8.h **** 	/* Includes: */
  76:../../tmk_core/protocol/lufa/lufa-abcminiuser/LUFA/Drivers/USB/Core/AVR8/../AVR8/../AVR8/Endpoint_AVR8.h **** 		#include "../../../../Common/Common.h"
  77:../../tmk_core/protocol/lufa/lufa-abcminiuser/LUFA/Drivers/USB/Core/AVR8/../AVR8/../AVR8/Endpoint_AVR8.h **** 		#include "../USBTask.h"
  78:../../tmk_core/protocol/lufa/lufa-abcminiuser/LUFA/Drivers/USB/Core/AVR8/../AVR8/../AVR8/Endpoint_AVR8.h **** 		#include "../USBInterrupt.h"
  79:../../tmk_core/protocol/lufa/lufa-abcminiuser/LUFA/Drivers/USB/Core/AVR8/../AVR8/../AVR8/Endpoint_AVR8.h **** 
  80:../../tmk_core/protocol/lufa/lufa-abcminiuser/LUFA/Drivers/USB/Core/AVR8/../AVR8/../AVR8/Endpoint_AVR8.h **** 	/* Enable C linkage for C++ Compilers: */
  81:../../tmk_core/protocol/lufa/lufa-abcminiuser/LUFA/Drivers/USB/Core/AVR8/../AVR8/../AVR8/Endpoint_AVR8.h **** 		#if defined(__cplusplus)
  82:../../tmk_core/protocol/lufa/lufa-abcminiuser/LUFA/Drivers/USB/Core/AVR8/../AVR8/../AVR8/Endpoint_AVR8.h **** 			extern "C" {
  83:../../tmk_core/protocol/lufa/lufa-abcminiuser/LUFA/Drivers/USB/Core/AVR8/../AVR8/../AVR8/Endpoint_AVR8.h **** 		#endif
  84:../../tmk_core/protocol/lufa/lufa-abcminiuser/LUFA/Drivers/USB/Core/AVR8/../AVR8/../AVR8/Endpoint_AVR8.h **** 
  85:../../tmk_core/protocol/lufa/lufa-abcminiuser/LUFA/Drivers/USB/Core/AVR8/../AVR8/../AVR8/Endpoint_AVR8.h **** 	/* Preprocessor Checks: */
  86:../../tmk_core/protocol/lufa/lufa-abcminiuser/LUFA/Drivers/USB/Core/AVR8/../AVR8/../AVR8/Endpoint_AVR8.h **** 		#if !defined(__INCLUDE_FROM_USB_DRIVER)
  87:../../tmk_core/protocol/lufa/lufa-abcminiuser/LUFA/Drivers/USB/Core/AVR8/../AVR8/../AVR8/Endpoint_AVR8.h **** 			#error Do not include this file directly. Include LUFA/Drivers/USB/USB.h instead.
  88:../../tmk_core/protocol/lufa/lufa-abcminiuser/LUFA/Drivers/USB/Core/AVR8/../AVR8/../AVR8/Endpoint_AVR8.h **** 		#endif
  89:../../tmk_core/protocol/lufa/lufa-abcminiuser/LUFA/Drivers/USB/Core/AVR8/../AVR8/../AVR8/Endpoint_AVR8.h **** 
  90:../../tmk_core/protocol/lufa/lufa-abcminiuser/LUFA/Drivers/USB/Core/AVR8/../AVR8/../AVR8/Endpoint_AVR8.h **** 	/* Private Interface - For use in library only: */
  91:../../tmk_core/protocol/lufa/lufa-abcminiuser/LUFA/Drivers/USB/Core/AVR8/../AVR8/../AVR8/Endpoint_AVR8.h **** 	#if !defined(__DOXYGEN__)
  92:../../tmk_core/protocol/lufa/lufa-abcminiuser/LUFA/Drivers/USB/Core/AVR8/../AVR8/../AVR8/Endpoint_AVR8.h **** 		/* Inline Functions: */
  93:../../tmk_core/protocol/lufa/lufa-abcminiuser/LUFA/Drivers/USB/Core/AVR8/../AVR8/../AVR8/Endpoint_AVR8.h **** 			static inline uint8_t Endpoint_BytesToEPSizeMask(const uint16_t Bytes) ATTR_WARN_UNUSED_RESULT A
  94:../../tmk_core/protocol/lufa/lufa-abcminiuser/LUFA/Drivers/USB/Core/AVR8/../AVR8/../AVR8/Endpoint_AVR8.h **** 			                                                                       ATTR_ALWAYS_INLINE;
  95:../../tmk_core/protocol/lufa/lufa-abcminiuser/LUFA/Drivers/USB/Core/AVR8/../AVR8/../AVR8/Endpoint_AVR8.h **** 			static inline uint8_t Endpoint_BytesToEPSizeMask(const uint16_t Bytes)
  96:../../tmk_core/protocol/lufa/lufa-abcminiuser/LUFA/Drivers/USB/Core/AVR8/../AVR8/../AVR8/Endpoint_AVR8.h **** 			{
  97:../../tmk_core/protocol/lufa/lufa-abcminiuser/LUFA/Drivers/USB/Core/AVR8/../AVR8/../AVR8/Endpoint_AVR8.h **** 				uint8_t  MaskVal    = 0;
  98:../../tmk_core/protocol/lufa/lufa-abcminiuser/LUFA/Drivers/USB/Core/AVR8/../AVR8/../AVR8/Endpoint_AVR8.h **** 				uint16_t CheckBytes = 8;
  99:../../tmk_core/protocol/lufa/lufa-abcminiuser/LUFA/Drivers/USB/Core/AVR8/../AVR8/../AVR8/Endpoint_AVR8.h **** 
 100:../../tmk_core/protocol/lufa/lufa-abcminiuser/LUFA/Drivers/USB/Core/AVR8/../AVR8/../AVR8/Endpoint_AVR8.h **** 				while (CheckBytes < Bytes)
 101:../../tmk_core/protocol/lufa/lufa-abcminiuser/LUFA/Drivers/USB/Core/AVR8/../AVR8/../AVR8/Endpoint_AVR8.h **** 				{
 102:../../tmk_core/protocol/lufa/lufa-abcminiuser/LUFA/Drivers/USB/Core/AVR8/../AVR8/../AVR8/Endpoint_AVR8.h **** 					MaskVal++;
 103:../../tmk_core/protocol/lufa/lufa-abcminiuser/LUFA/Drivers/USB/Core/AVR8/../AVR8/../AVR8/Endpoint_AVR8.h **** 					CheckBytes <<= 1;
 104:../../tmk_core/protocol/lufa/lufa-abcminiuser/LUFA/Drivers/USB/Core/AVR8/../AVR8/../AVR8/Endpoint_AVR8.h **** 				}
 105:../../tmk_core/protocol/lufa/lufa-abcminiuser/LUFA/Drivers/USB/Core/AVR8/../AVR8/../AVR8/Endpoint_AVR8.h **** 
 106:../../tmk_core/protocol/lufa/lufa-abcminiuser/LUFA/Drivers/USB/Core/AVR8/../AVR8/../AVR8/Endpoint_AVR8.h **** 				return (MaskVal << EPSIZE0);
 107:../../tmk_core/protocol/lufa/lufa-abcminiuser/LUFA/Drivers/USB/Core/AVR8/../AVR8/../AVR8/Endpoint_AVR8.h **** 			}
 108:../../tmk_core/protocol/lufa/lufa-abcminiuser/LUFA/Drivers/USB/Core/AVR8/../AVR8/../AVR8/Endpoint_AVR8.h **** 
 109:../../tmk_core/protocol/lufa/lufa-abcminiuser/LUFA/Drivers/USB/Core/AVR8/../AVR8/../AVR8/Endpoint_AVR8.h **** 		/* Function Prototypes: */
 110:../../tmk_core/protocol/lufa/lufa-abcminiuser/LUFA/Drivers/USB/Core/AVR8/../AVR8/../AVR8/Endpoint_AVR8.h **** 			void Endpoint_ClearEndpoints(void);
 111:../../tmk_core/protocol/lufa/lufa-abcminiuser/LUFA/Drivers/USB/Core/AVR8/../AVR8/../AVR8/Endpoint_AVR8.h **** 			bool Endpoint_ConfigureEndpoint_Prv(const uint8_t Number,
 112:../../tmk_core/protocol/lufa/lufa-abcminiuser/LUFA/Drivers/USB/Core/AVR8/../AVR8/../AVR8/Endpoint_AVR8.h **** 			                                    const uint8_t UECFG0XData,
 113:../../tmk_core/protocol/lufa/lufa-abcminiuser/LUFA/Drivers/USB/Core/AVR8/../AVR8/../AVR8/Endpoint_AVR8.h **** 			                                    const uint8_t UECFG1XData);
 114:../../tmk_core/protocol/lufa/lufa-abcminiuser/LUFA/Drivers/USB/Core/AVR8/../AVR8/../AVR8/Endpoint_AVR8.h **** 
 115:../../tmk_core/protocol/lufa/lufa-abcminiuser/LUFA/Drivers/USB/Core/AVR8/../AVR8/../AVR8/Endpoint_AVR8.h **** 	#endif
 116:../../tmk_core/protocol/lufa/lufa-abcminiuser/LUFA/Drivers/USB/Core/AVR8/../AVR8/../AVR8/Endpoint_AVR8.h **** 
 117:../../tmk_core/protocol/lufa/lufa-abcminiuser/LUFA/Drivers/USB/Core/AVR8/../AVR8/../AVR8/Endpoint_AVR8.h **** 	/* Public Interface - May be used in end-application: */
 118:../../tmk_core/protocol/lufa/lufa-abcminiuser/LUFA/Drivers/USB/Core/AVR8/../AVR8/../AVR8/Endpoint_AVR8.h **** 		/* Macros: */
 119:../../tmk_core/protocol/lufa/lufa-abcminiuser/LUFA/Drivers/USB/Core/AVR8/../AVR8/../AVR8/Endpoint_AVR8.h **** 			#if (!defined(FIXED_CONTROL_ENDPOINT_SIZE) || defined(__DOXYGEN__))
 120:../../tmk_core/protocol/lufa/lufa-abcminiuser/LUFA/Drivers/USB/Core/AVR8/../AVR8/../AVR8/Endpoint_AVR8.h **** 				/** Default size of the default control endpoint's bank, until altered by the control endpoint 
 121:../../tmk_core/protocol/lufa/lufa-abcminiuser/LUFA/Drivers/USB/Core/AVR8/../AVR8/../AVR8/Endpoint_AVR8.h **** 				 *  value in the device descriptor. Not available if the \c FIXED_CONTROL_ENDPOINT_SIZE token i
 122:../../tmk_core/protocol/lufa/lufa-abcminiuser/LUFA/Drivers/USB/Core/AVR8/../AVR8/../AVR8/Endpoint_AVR8.h **** 				 */
 123:../../tmk_core/protocol/lufa/lufa-abcminiuser/LUFA/Drivers/USB/Core/AVR8/../AVR8/../AVR8/Endpoint_AVR8.h **** 				#define ENDPOINT_CONTROLEP_DEFAULT_SIZE     8
 124:../../tmk_core/protocol/lufa/lufa-abcminiuser/LUFA/Drivers/USB/Core/AVR8/../AVR8/../AVR8/Endpoint_AVR8.h **** 			#endif
 125:../../tmk_core/protocol/lufa/lufa-abcminiuser/LUFA/Drivers/USB/Core/AVR8/../AVR8/../AVR8/Endpoint_AVR8.h **** 
 126:../../tmk_core/protocol/lufa/lufa-abcminiuser/LUFA/Drivers/USB/Core/AVR8/../AVR8/../AVR8/Endpoint_AVR8.h **** 			#if !defined(CONTROL_ONLY_DEVICE) || defined(__DOXYGEN__)
 127:../../tmk_core/protocol/lufa/lufa-abcminiuser/LUFA/Drivers/USB/Core/AVR8/../AVR8/../AVR8/Endpoint_AVR8.h **** 				#if defined(USB_SERIES_4_AVR) || defined(USB_SERIES_6_AVR) || defined(USB_SERIES_7_AVR) || defi
 128:../../tmk_core/protocol/lufa/lufa-abcminiuser/LUFA/Drivers/USB/Core/AVR8/../AVR8/../AVR8/Endpoint_AVR8.h **** 					/** Total number of endpoints (including the default control endpoint at address 0) which may
 129:../../tmk_core/protocol/lufa/lufa-abcminiuser/LUFA/Drivers/USB/Core/AVR8/../AVR8/../AVR8/Endpoint_AVR8.h **** 					 *  be used in the device. Different USB AVR models support different amounts of endpoints,
 130:../../tmk_core/protocol/lufa/lufa-abcminiuser/LUFA/Drivers/USB/Core/AVR8/../AVR8/../AVR8/Endpoint_AVR8.h **** 					 *  this value reflects the maximum number of endpoints for the currently selected AVR model.
 131:../../tmk_core/protocol/lufa/lufa-abcminiuser/LUFA/Drivers/USB/Core/AVR8/../AVR8/../AVR8/Endpoint_AVR8.h **** 					 */
 132:../../tmk_core/protocol/lufa/lufa-abcminiuser/LUFA/Drivers/USB/Core/AVR8/../AVR8/../AVR8/Endpoint_AVR8.h **** 					#define ENDPOINT_TOTAL_ENDPOINTS        7
 133:../../tmk_core/protocol/lufa/lufa-abcminiuser/LUFA/Drivers/USB/Core/AVR8/../AVR8/../AVR8/Endpoint_AVR8.h **** 				#else
 134:../../tmk_core/protocol/lufa/lufa-abcminiuser/LUFA/Drivers/USB/Core/AVR8/../AVR8/../AVR8/Endpoint_AVR8.h **** 					#define ENDPOINT_TOTAL_ENDPOINTS        5
 135:../../tmk_core/protocol/lufa/lufa-abcminiuser/LUFA/Drivers/USB/Core/AVR8/../AVR8/../AVR8/Endpoint_AVR8.h **** 				#endif
 136:../../tmk_core/protocol/lufa/lufa-abcminiuser/LUFA/Drivers/USB/Core/AVR8/../AVR8/../AVR8/Endpoint_AVR8.h **** 			#else
 137:../../tmk_core/protocol/lufa/lufa-abcminiuser/LUFA/Drivers/USB/Core/AVR8/../AVR8/../AVR8/Endpoint_AVR8.h **** 				#define ENDPOINT_TOTAL_ENDPOINTS            1
 138:../../tmk_core/protocol/lufa/lufa-abcminiuser/LUFA/Drivers/USB/Core/AVR8/../AVR8/../AVR8/Endpoint_AVR8.h **** 			#endif
 139:../../tmk_core/protocol/lufa/lufa-abcminiuser/LUFA/Drivers/USB/Core/AVR8/../AVR8/../AVR8/Endpoint_AVR8.h **** 
 140:../../tmk_core/protocol/lufa/lufa-abcminiuser/LUFA/Drivers/USB/Core/AVR8/../AVR8/../AVR8/Endpoint_AVR8.h **** 		/* Enums: */
 141:../../tmk_core/protocol/lufa/lufa-abcminiuser/LUFA/Drivers/USB/Core/AVR8/../AVR8/../AVR8/Endpoint_AVR8.h **** 			/** Enum for the possible error return codes of the \ref Endpoint_WaitUntilReady() function.
 142:../../tmk_core/protocol/lufa/lufa-abcminiuser/LUFA/Drivers/USB/Core/AVR8/../AVR8/../AVR8/Endpoint_AVR8.h **** 			 *
 143:../../tmk_core/protocol/lufa/lufa-abcminiuser/LUFA/Drivers/USB/Core/AVR8/../AVR8/../AVR8/Endpoint_AVR8.h **** 			 *  \ingroup Group_EndpointRW_AVR8
 144:../../tmk_core/protocol/lufa/lufa-abcminiuser/LUFA/Drivers/USB/Core/AVR8/../AVR8/../AVR8/Endpoint_AVR8.h **** 			 */
 145:../../tmk_core/protocol/lufa/lufa-abcminiuser/LUFA/Drivers/USB/Core/AVR8/../AVR8/../AVR8/Endpoint_AVR8.h **** 			enum Endpoint_WaitUntilReady_ErrorCodes_t
 146:../../tmk_core/protocol/lufa/lufa-abcminiuser/LUFA/Drivers/USB/Core/AVR8/../AVR8/../AVR8/Endpoint_AVR8.h **** 			{
 147:../../tmk_core/protocol/lufa/lufa-abcminiuser/LUFA/Drivers/USB/Core/AVR8/../AVR8/../AVR8/Endpoint_AVR8.h **** 				ENDPOINT_READYWAIT_NoError                 = 0, /**< Endpoint is ready for next packet, no erro
 148:../../tmk_core/protocol/lufa/lufa-abcminiuser/LUFA/Drivers/USB/Core/AVR8/../AVR8/../AVR8/Endpoint_AVR8.h **** 				ENDPOINT_READYWAIT_EndpointStalled         = 1, /**< The endpoint was stalled during the stream
 149:../../tmk_core/protocol/lufa/lufa-abcminiuser/LUFA/Drivers/USB/Core/AVR8/../AVR8/../AVR8/Endpoint_AVR8.h **** 				                                                 *   transfer by the host or device.
 150:../../tmk_core/protocol/lufa/lufa-abcminiuser/LUFA/Drivers/USB/Core/AVR8/../AVR8/../AVR8/Endpoint_AVR8.h **** 				                                                 */
 151:../../tmk_core/protocol/lufa/lufa-abcminiuser/LUFA/Drivers/USB/Core/AVR8/../AVR8/../AVR8/Endpoint_AVR8.h **** 				ENDPOINT_READYWAIT_DeviceDisconnected      = 2,	/**< Device was disconnected from the host whil
 152:../../tmk_core/protocol/lufa/lufa-abcminiuser/LUFA/Drivers/USB/Core/AVR8/../AVR8/../AVR8/Endpoint_AVR8.h **** 				                                                 *   waiting for the endpoint to become ready.
 153:../../tmk_core/protocol/lufa/lufa-abcminiuser/LUFA/Drivers/USB/Core/AVR8/../AVR8/../AVR8/Endpoint_AVR8.h **** 				                                                 */
 154:../../tmk_core/protocol/lufa/lufa-abcminiuser/LUFA/Drivers/USB/Core/AVR8/../AVR8/../AVR8/Endpoint_AVR8.h **** 				ENDPOINT_READYWAIT_BusSuspended            = 3, /**< The USB bus has been suspended by the host
 155:../../tmk_core/protocol/lufa/lufa-abcminiuser/LUFA/Drivers/USB/Core/AVR8/../AVR8/../AVR8/Endpoint_AVR8.h **** 				                                                 *   no USB endpoint traffic can occur until th
 156:../../tmk_core/protocol/lufa/lufa-abcminiuser/LUFA/Drivers/USB/Core/AVR8/../AVR8/../AVR8/Endpoint_AVR8.h **** 				                                                 *   has resumed.
 157:../../tmk_core/protocol/lufa/lufa-abcminiuser/LUFA/Drivers/USB/Core/AVR8/../AVR8/../AVR8/Endpoint_AVR8.h **** 				                                                 */
 158:../../tmk_core/protocol/lufa/lufa-abcminiuser/LUFA/Drivers/USB/Core/AVR8/../AVR8/../AVR8/Endpoint_AVR8.h **** 				ENDPOINT_READYWAIT_Timeout                 = 4, /**< The host failed to accept or send the next
 159:../../tmk_core/protocol/lufa/lufa-abcminiuser/LUFA/Drivers/USB/Core/AVR8/../AVR8/../AVR8/Endpoint_AVR8.h **** 				                                                 *   within the software timeout period set by 
 160:../../tmk_core/protocol/lufa/lufa-abcminiuser/LUFA/Drivers/USB/Core/AVR8/../AVR8/../AVR8/Endpoint_AVR8.h **** 				                                                 *   \ref USB_STREAM_TIMEOUT_MS macro.
 161:../../tmk_core/protocol/lufa/lufa-abcminiuser/LUFA/Drivers/USB/Core/AVR8/../AVR8/../AVR8/Endpoint_AVR8.h **** 				                                                 */
 162:../../tmk_core/protocol/lufa/lufa-abcminiuser/LUFA/Drivers/USB/Core/AVR8/../AVR8/../AVR8/Endpoint_AVR8.h **** 			};
 163:../../tmk_core/protocol/lufa/lufa-abcminiuser/LUFA/Drivers/USB/Core/AVR8/../AVR8/../AVR8/Endpoint_AVR8.h **** 
 164:../../tmk_core/protocol/lufa/lufa-abcminiuser/LUFA/Drivers/USB/Core/AVR8/../AVR8/../AVR8/Endpoint_AVR8.h **** 		/* Inline Functions: */
 165:../../tmk_core/protocol/lufa/lufa-abcminiuser/LUFA/Drivers/USB/Core/AVR8/../AVR8/../AVR8/Endpoint_AVR8.h **** 			/** Configures the specified endpoint address with the given endpoint type, bank size and number
 166:../../tmk_core/protocol/lufa/lufa-abcminiuser/LUFA/Drivers/USB/Core/AVR8/../AVR8/../AVR8/Endpoint_AVR8.h **** 			 *  banks. Once configured, the endpoint may be read from or written to, depending on its direct
 167:../../tmk_core/protocol/lufa/lufa-abcminiuser/LUFA/Drivers/USB/Core/AVR8/../AVR8/../AVR8/Endpoint_AVR8.h **** 			 *
 168:../../tmk_core/protocol/lufa/lufa-abcminiuser/LUFA/Drivers/USB/Core/AVR8/../AVR8/../AVR8/Endpoint_AVR8.h **** 			 *  \param[in] Address    Endpoint address to configure.
 169:../../tmk_core/protocol/lufa/lufa-abcminiuser/LUFA/Drivers/USB/Core/AVR8/../AVR8/../AVR8/Endpoint_AVR8.h **** 			 *
 170:../../tmk_core/protocol/lufa/lufa-abcminiuser/LUFA/Drivers/USB/Core/AVR8/../AVR8/../AVR8/Endpoint_AVR8.h **** 			 *  \param[in] Type       Type of endpoint to configure, a \c EP_TYPE_* mask. Not all endpoint t
 171:../../tmk_core/protocol/lufa/lufa-abcminiuser/LUFA/Drivers/USB/Core/AVR8/../AVR8/../AVR8/Endpoint_AVR8.h **** 			 *                        are available on Low Speed USB devices - refer to the USB 2.0 specific
 172:../../tmk_core/protocol/lufa/lufa-abcminiuser/LUFA/Drivers/USB/Core/AVR8/../AVR8/../AVR8/Endpoint_AVR8.h **** 			 *
 173:../../tmk_core/protocol/lufa/lufa-abcminiuser/LUFA/Drivers/USB/Core/AVR8/../AVR8/../AVR8/Endpoint_AVR8.h **** 			 *  \param[in] Size       Size of the endpoint's bank, where packets are stored before they are 
 174:../../tmk_core/protocol/lufa/lufa-abcminiuser/LUFA/Drivers/USB/Core/AVR8/../AVR8/../AVR8/Endpoint_AVR8.h **** 			 *                        to the USB host, or after they have been received from the USB host (d
 175:../../tmk_core/protocol/lufa/lufa-abcminiuser/LUFA/Drivers/USB/Core/AVR8/../AVR8/../AVR8/Endpoint_AVR8.h **** 			 *                        the endpoint's data direction). The bank size must indicate the maximu
 176:../../tmk_core/protocol/lufa/lufa-abcminiuser/LUFA/Drivers/USB/Core/AVR8/../AVR8/../AVR8/Endpoint_AVR8.h **** 			 *                        that the endpoint can handle.
 177:../../tmk_core/protocol/lufa/lufa-abcminiuser/LUFA/Drivers/USB/Core/AVR8/../AVR8/../AVR8/Endpoint_AVR8.h **** 			 *
 178:../../tmk_core/protocol/lufa/lufa-abcminiuser/LUFA/Drivers/USB/Core/AVR8/../AVR8/../AVR8/Endpoint_AVR8.h **** 			 *  \param[in] Banks      Number of banks to use for the endpoint being configured.
 179:../../tmk_core/protocol/lufa/lufa-abcminiuser/LUFA/Drivers/USB/Core/AVR8/../AVR8/../AVR8/Endpoint_AVR8.h **** 			 *
 180:../../tmk_core/protocol/lufa/lufa-abcminiuser/LUFA/Drivers/USB/Core/AVR8/../AVR8/../AVR8/Endpoint_AVR8.h **** 			 *  \attention When the \c ORDERED_EP_CONFIG compile time option is used, Endpoints <b>must</b> 
 181:../../tmk_core/protocol/lufa/lufa-abcminiuser/LUFA/Drivers/USB/Core/AVR8/../AVR8/../AVR8/Endpoint_AVR8.h **** 			 *             ascending order, or bank corruption will occur.
 182:../../tmk_core/protocol/lufa/lufa-abcminiuser/LUFA/Drivers/USB/Core/AVR8/../AVR8/../AVR8/Endpoint_AVR8.h **** 			 *
 183:../../tmk_core/protocol/lufa/lufa-abcminiuser/LUFA/Drivers/USB/Core/AVR8/../AVR8/../AVR8/Endpoint_AVR8.h **** 			 *  \note Different endpoints may have different maximum packet sizes based on the endpoint's in
 184:../../tmk_core/protocol/lufa/lufa-abcminiuser/LUFA/Drivers/USB/Core/AVR8/../AVR8/../AVR8/Endpoint_AVR8.h **** 			 *        refer to the chosen microcontroller model's datasheet to determine the maximum bank si
 185:../../tmk_core/protocol/lufa/lufa-abcminiuser/LUFA/Drivers/USB/Core/AVR8/../AVR8/../AVR8/Endpoint_AVR8.h **** 			 *        \n\n
 186:../../tmk_core/protocol/lufa/lufa-abcminiuser/LUFA/Drivers/USB/Core/AVR8/../AVR8/../AVR8/Endpoint_AVR8.h **** 			 *
 187:../../tmk_core/protocol/lufa/lufa-abcminiuser/LUFA/Drivers/USB/Core/AVR8/../AVR8/../AVR8/Endpoint_AVR8.h **** 			 *  \note The default control endpoint should not be manually configured by the user application
 188:../../tmk_core/protocol/lufa/lufa-abcminiuser/LUFA/Drivers/USB/Core/AVR8/../AVR8/../AVR8/Endpoint_AVR8.h **** 			 *        it is automatically configured by the library internally.
 189:../../tmk_core/protocol/lufa/lufa-abcminiuser/LUFA/Drivers/USB/Core/AVR8/../AVR8/../AVR8/Endpoint_AVR8.h **** 			 *        \n\n
 190:../../tmk_core/protocol/lufa/lufa-abcminiuser/LUFA/Drivers/USB/Core/AVR8/../AVR8/../AVR8/Endpoint_AVR8.h **** 			 *
 191:../../tmk_core/protocol/lufa/lufa-abcminiuser/LUFA/Drivers/USB/Core/AVR8/../AVR8/../AVR8/Endpoint_AVR8.h **** 			 *  \note This routine will automatically select the specified endpoint upon success. Upon failu
 192:../../tmk_core/protocol/lufa/lufa-abcminiuser/LUFA/Drivers/USB/Core/AVR8/../AVR8/../AVR8/Endpoint_AVR8.h **** 			 *        which failed to reconfigure correctly will be selected.
 193:../../tmk_core/protocol/lufa/lufa-abcminiuser/LUFA/Drivers/USB/Core/AVR8/../AVR8/../AVR8/Endpoint_AVR8.h **** 			 *
 194:../../tmk_core/protocol/lufa/lufa-abcminiuser/LUFA/Drivers/USB/Core/AVR8/../AVR8/../AVR8/Endpoint_AVR8.h **** 			 *  \return Boolean \c true if the configuration succeeded, \c false otherwise.
 195:../../tmk_core/protocol/lufa/lufa-abcminiuser/LUFA/Drivers/USB/Core/AVR8/../AVR8/../AVR8/Endpoint_AVR8.h **** 			 */
 196:../../tmk_core/protocol/lufa/lufa-abcminiuser/LUFA/Drivers/USB/Core/AVR8/../AVR8/../AVR8/Endpoint_AVR8.h **** 			static inline bool Endpoint_ConfigureEndpoint(const uint8_t Address,
 197:../../tmk_core/protocol/lufa/lufa-abcminiuser/LUFA/Drivers/USB/Core/AVR8/../AVR8/../AVR8/Endpoint_AVR8.h **** 			                                              const uint8_t Type,
 198:../../tmk_core/protocol/lufa/lufa-abcminiuser/LUFA/Drivers/USB/Core/AVR8/../AVR8/../AVR8/Endpoint_AVR8.h **** 			                                              const uint16_t Size,
 199:../../tmk_core/protocol/lufa/lufa-abcminiuser/LUFA/Drivers/USB/Core/AVR8/../AVR8/../AVR8/Endpoint_AVR8.h **** 			                                              const uint8_t Banks) ATTR_ALWAYS_INLINE;
 200:../../tmk_core/protocol/lufa/lufa-abcminiuser/LUFA/Drivers/USB/Core/AVR8/../AVR8/../AVR8/Endpoint_AVR8.h **** 			static inline bool Endpoint_ConfigureEndpoint(const uint8_t Address,
 201:../../tmk_core/protocol/lufa/lufa-abcminiuser/LUFA/Drivers/USB/Core/AVR8/../AVR8/../AVR8/Endpoint_AVR8.h **** 			                                              const uint8_t Type,
 202:../../tmk_core/protocol/lufa/lufa-abcminiuser/LUFA/Drivers/USB/Core/AVR8/../AVR8/../AVR8/Endpoint_AVR8.h **** 			                                              const uint16_t Size,
 203:../../tmk_core/protocol/lufa/lufa-abcminiuser/LUFA/Drivers/USB/Core/AVR8/../AVR8/../AVR8/Endpoint_AVR8.h **** 			                                              const uint8_t Banks)
 204:../../tmk_core/protocol/lufa/lufa-abcminiuser/LUFA/Drivers/USB/Core/AVR8/../AVR8/../AVR8/Endpoint_AVR8.h **** 			{
 205:../../tmk_core/protocol/lufa/lufa-abcminiuser/LUFA/Drivers/USB/Core/AVR8/../AVR8/../AVR8/Endpoint_AVR8.h **** 				uint8_t Number = (Address & ENDPOINT_EPNUM_MASK);
 206:../../tmk_core/protocol/lufa/lufa-abcminiuser/LUFA/Drivers/USB/Core/AVR8/../AVR8/../AVR8/Endpoint_AVR8.h **** 
 207:../../tmk_core/protocol/lufa/lufa-abcminiuser/LUFA/Drivers/USB/Core/AVR8/../AVR8/../AVR8/Endpoint_AVR8.h **** 				if (Number >= ENDPOINT_TOTAL_ENDPOINTS)
 208:../../tmk_core/protocol/lufa/lufa-abcminiuser/LUFA/Drivers/USB/Core/AVR8/../AVR8/../AVR8/Endpoint_AVR8.h **** 				  return false;
 209:../../tmk_core/protocol/lufa/lufa-abcminiuser/LUFA/Drivers/USB/Core/AVR8/../AVR8/../AVR8/Endpoint_AVR8.h **** 
 210:../../tmk_core/protocol/lufa/lufa-abcminiuser/LUFA/Drivers/USB/Core/AVR8/../AVR8/../AVR8/Endpoint_AVR8.h **** 				return Endpoint_ConfigureEndpoint_Prv(Number,
 211:../../tmk_core/protocol/lufa/lufa-abcminiuser/LUFA/Drivers/USB/Core/AVR8/../AVR8/../AVR8/Endpoint_AVR8.h **** 				                                      ((Type << EPTYPE0) | ((Address & ENDPOINT_DIR_IN) ? (1 <<
 212:../../tmk_core/protocol/lufa/lufa-abcminiuser/LUFA/Drivers/USB/Core/AVR8/../AVR8/../AVR8/Endpoint_AVR8.h **** 				                                      ((1 << ALLOC) | ((Banks > 1) ? (1 << EPBK0) : 0) | Endpoi
 213:../../tmk_core/protocol/lufa/lufa-abcminiuser/LUFA/Drivers/USB/Core/AVR8/../AVR8/../AVR8/Endpoint_AVR8.h **** 			}
 214:../../tmk_core/protocol/lufa/lufa-abcminiuser/LUFA/Drivers/USB/Core/AVR8/../AVR8/../AVR8/Endpoint_AVR8.h **** 
 215:../../tmk_core/protocol/lufa/lufa-abcminiuser/LUFA/Drivers/USB/Core/AVR8/../AVR8/../AVR8/Endpoint_AVR8.h **** 			/** Indicates the number of bytes currently stored in the current endpoint's selected bank.
 216:../../tmk_core/protocol/lufa/lufa-abcminiuser/LUFA/Drivers/USB/Core/AVR8/../AVR8/../AVR8/Endpoint_AVR8.h **** 			 *
 217:../../tmk_core/protocol/lufa/lufa-abcminiuser/LUFA/Drivers/USB/Core/AVR8/../AVR8/../AVR8/Endpoint_AVR8.h **** 			 *  \ingroup Group_EndpointRW_AVR8
 218:../../tmk_core/protocol/lufa/lufa-abcminiuser/LUFA/Drivers/USB/Core/AVR8/../AVR8/../AVR8/Endpoint_AVR8.h **** 			 *
 219:../../tmk_core/protocol/lufa/lufa-abcminiuser/LUFA/Drivers/USB/Core/AVR8/../AVR8/../AVR8/Endpoint_AVR8.h **** 			 *  \return Total number of bytes in the currently selected Endpoint's FIFO buffer.
 220:../../tmk_core/protocol/lufa/lufa-abcminiuser/LUFA/Drivers/USB/Core/AVR8/../AVR8/../AVR8/Endpoint_AVR8.h **** 			 */
 221:../../tmk_core/protocol/lufa/lufa-abcminiuser/LUFA/Drivers/USB/Core/AVR8/../AVR8/../AVR8/Endpoint_AVR8.h **** 			static inline uint16_t Endpoint_BytesInEndpoint(void) ATTR_WARN_UNUSED_RESULT ATTR_ALWAYS_INLINE
 222:../../tmk_core/protocol/lufa/lufa-abcminiuser/LUFA/Drivers/USB/Core/AVR8/../AVR8/../AVR8/Endpoint_AVR8.h **** 			static inline uint16_t Endpoint_BytesInEndpoint(void)
 223:../../tmk_core/protocol/lufa/lufa-abcminiuser/LUFA/Drivers/USB/Core/AVR8/../AVR8/../AVR8/Endpoint_AVR8.h **** 			{
 224:../../tmk_core/protocol/lufa/lufa-abcminiuser/LUFA/Drivers/USB/Core/AVR8/../AVR8/../AVR8/Endpoint_AVR8.h **** 				#if (defined(USB_SERIES_6_AVR) || defined(USB_SERIES_7_AVR))
 225:../../tmk_core/protocol/lufa/lufa-abcminiuser/LUFA/Drivers/USB/Core/AVR8/../AVR8/../AVR8/Endpoint_AVR8.h **** 					return UEBCX;
 226:../../tmk_core/protocol/lufa/lufa-abcminiuser/LUFA/Drivers/USB/Core/AVR8/../AVR8/../AVR8/Endpoint_AVR8.h **** 				#elif defined(USB_SERIES_4_AVR)
 227:../../tmk_core/protocol/lufa/lufa-abcminiuser/LUFA/Drivers/USB/Core/AVR8/../AVR8/../AVR8/Endpoint_AVR8.h **** 					return (((uint16_t)UEBCHX << 8) | UEBCLX);
 228:../../tmk_core/protocol/lufa/lufa-abcminiuser/LUFA/Drivers/USB/Core/AVR8/../AVR8/../AVR8/Endpoint_AVR8.h **** 				#elif defined(USB_SERIES_2_AVR)
 229:../../tmk_core/protocol/lufa/lufa-abcminiuser/LUFA/Drivers/USB/Core/AVR8/../AVR8/../AVR8/Endpoint_AVR8.h **** 					return UEBCLX;
 230:../../tmk_core/protocol/lufa/lufa-abcminiuser/LUFA/Drivers/USB/Core/AVR8/../AVR8/../AVR8/Endpoint_AVR8.h **** 				#endif
 231:../../tmk_core/protocol/lufa/lufa-abcminiuser/LUFA/Drivers/USB/Core/AVR8/../AVR8/../AVR8/Endpoint_AVR8.h **** 			}
 232:../../tmk_core/protocol/lufa/lufa-abcminiuser/LUFA/Drivers/USB/Core/AVR8/../AVR8/../AVR8/Endpoint_AVR8.h **** 
 233:../../tmk_core/protocol/lufa/lufa-abcminiuser/LUFA/Drivers/USB/Core/AVR8/../AVR8/../AVR8/Endpoint_AVR8.h **** 			/** Determines the currently selected endpoint's direction.
 234:../../tmk_core/protocol/lufa/lufa-abcminiuser/LUFA/Drivers/USB/Core/AVR8/../AVR8/../AVR8/Endpoint_AVR8.h **** 			 *
 235:../../tmk_core/protocol/lufa/lufa-abcminiuser/LUFA/Drivers/USB/Core/AVR8/../AVR8/../AVR8/Endpoint_AVR8.h **** 			 *  \return The currently selected endpoint's direction, as a \c ENDPOINT_DIR_* mask.
 236:../../tmk_core/protocol/lufa/lufa-abcminiuser/LUFA/Drivers/USB/Core/AVR8/../AVR8/../AVR8/Endpoint_AVR8.h **** 			 */
 237:../../tmk_core/protocol/lufa/lufa-abcminiuser/LUFA/Drivers/USB/Core/AVR8/../AVR8/../AVR8/Endpoint_AVR8.h **** 			static inline uint8_t Endpoint_GetEndpointDirection(void) ATTR_WARN_UNUSED_RESULT ATTR_ALWAYS_IN
 238:../../tmk_core/protocol/lufa/lufa-abcminiuser/LUFA/Drivers/USB/Core/AVR8/../AVR8/../AVR8/Endpoint_AVR8.h **** 			static inline uint8_t Endpoint_GetEndpointDirection(void)
 239:../../tmk_core/protocol/lufa/lufa-abcminiuser/LUFA/Drivers/USB/Core/AVR8/../AVR8/../AVR8/Endpoint_AVR8.h **** 			{
 240:../../tmk_core/protocol/lufa/lufa-abcminiuser/LUFA/Drivers/USB/Core/AVR8/../AVR8/../AVR8/Endpoint_AVR8.h **** 				return (UECFG0X & (1 << EPDIR)) ? ENDPOINT_DIR_IN : ENDPOINT_DIR_OUT;
 241:../../tmk_core/protocol/lufa/lufa-abcminiuser/LUFA/Drivers/USB/Core/AVR8/../AVR8/../AVR8/Endpoint_AVR8.h **** 			}
 242:../../tmk_core/protocol/lufa/lufa-abcminiuser/LUFA/Drivers/USB/Core/AVR8/../AVR8/../AVR8/Endpoint_AVR8.h **** 
 243:../../tmk_core/protocol/lufa/lufa-abcminiuser/LUFA/Drivers/USB/Core/AVR8/../AVR8/../AVR8/Endpoint_AVR8.h **** 			/** Get the endpoint address of the currently selected endpoint. This is typically used to save
 244:../../tmk_core/protocol/lufa/lufa-abcminiuser/LUFA/Drivers/USB/Core/AVR8/../AVR8/../AVR8/Endpoint_AVR8.h **** 			 *  the currently selected endpoint so that it can be restored after another endpoint has been
 245:../../tmk_core/protocol/lufa/lufa-abcminiuser/LUFA/Drivers/USB/Core/AVR8/../AVR8/../AVR8/Endpoint_AVR8.h **** 			 *  manipulated.
 246:../../tmk_core/protocol/lufa/lufa-abcminiuser/LUFA/Drivers/USB/Core/AVR8/../AVR8/../AVR8/Endpoint_AVR8.h **** 			 *
 247:../../tmk_core/protocol/lufa/lufa-abcminiuser/LUFA/Drivers/USB/Core/AVR8/../AVR8/../AVR8/Endpoint_AVR8.h **** 			 *  \return Index of the currently selected endpoint.
 248:../../tmk_core/protocol/lufa/lufa-abcminiuser/LUFA/Drivers/USB/Core/AVR8/../AVR8/../AVR8/Endpoint_AVR8.h **** 			 */
 249:../../tmk_core/protocol/lufa/lufa-abcminiuser/LUFA/Drivers/USB/Core/AVR8/../AVR8/../AVR8/Endpoint_AVR8.h **** 			static inline uint8_t Endpoint_GetCurrentEndpoint(void) ATTR_WARN_UNUSED_RESULT ATTR_ALWAYS_INLI
 250:../../tmk_core/protocol/lufa/lufa-abcminiuser/LUFA/Drivers/USB/Core/AVR8/../AVR8/../AVR8/Endpoint_AVR8.h **** 			static inline uint8_t Endpoint_GetCurrentEndpoint(void)
 251:../../tmk_core/protocol/lufa/lufa-abcminiuser/LUFA/Drivers/USB/Core/AVR8/../AVR8/../AVR8/Endpoint_AVR8.h **** 			{
 252:../../tmk_core/protocol/lufa/lufa-abcminiuser/LUFA/Drivers/USB/Core/AVR8/../AVR8/../AVR8/Endpoint_AVR8.h **** 				#if !defined(CONTROL_ONLY_DEVICE)
 253:../../tmk_core/protocol/lufa/lufa-abcminiuser/LUFA/Drivers/USB/Core/AVR8/../AVR8/../AVR8/Endpoint_AVR8.h **** 					return ((UENUM & ENDPOINT_EPNUM_MASK) | Endpoint_GetEndpointDirection());
 254:../../tmk_core/protocol/lufa/lufa-abcminiuser/LUFA/Drivers/USB/Core/AVR8/../AVR8/../AVR8/Endpoint_AVR8.h **** 				#else
 255:../../tmk_core/protocol/lufa/lufa-abcminiuser/LUFA/Drivers/USB/Core/AVR8/../AVR8/../AVR8/Endpoint_AVR8.h **** 					return ENDPOINT_CONTROLEP;
 256:../../tmk_core/protocol/lufa/lufa-abcminiuser/LUFA/Drivers/USB/Core/AVR8/../AVR8/../AVR8/Endpoint_AVR8.h **** 				#endif
 257:../../tmk_core/protocol/lufa/lufa-abcminiuser/LUFA/Drivers/USB/Core/AVR8/../AVR8/../AVR8/Endpoint_AVR8.h **** 			}
 258:../../tmk_core/protocol/lufa/lufa-abcminiuser/LUFA/Drivers/USB/Core/AVR8/../AVR8/../AVR8/Endpoint_AVR8.h **** 
 259:../../tmk_core/protocol/lufa/lufa-abcminiuser/LUFA/Drivers/USB/Core/AVR8/../AVR8/../AVR8/Endpoint_AVR8.h **** 			/** Selects the given endpoint address.
 260:../../tmk_core/protocol/lufa/lufa-abcminiuser/LUFA/Drivers/USB/Core/AVR8/../AVR8/../AVR8/Endpoint_AVR8.h **** 			 *
 261:../../tmk_core/protocol/lufa/lufa-abcminiuser/LUFA/Drivers/USB/Core/AVR8/../AVR8/../AVR8/Endpoint_AVR8.h **** 			 *  Any endpoint operations which do not require the endpoint address to be indicated will opera
 262:../../tmk_core/protocol/lufa/lufa-abcminiuser/LUFA/Drivers/USB/Core/AVR8/../AVR8/../AVR8/Endpoint_AVR8.h **** 			 *  the currently selected endpoint.
 263:../../tmk_core/protocol/lufa/lufa-abcminiuser/LUFA/Drivers/USB/Core/AVR8/../AVR8/../AVR8/Endpoint_AVR8.h **** 			 *
 264:../../tmk_core/protocol/lufa/lufa-abcminiuser/LUFA/Drivers/USB/Core/AVR8/../AVR8/../AVR8/Endpoint_AVR8.h **** 			 *  \param[in] Address Endpoint address to select.
 265:../../tmk_core/protocol/lufa/lufa-abcminiuser/LUFA/Drivers/USB/Core/AVR8/../AVR8/../AVR8/Endpoint_AVR8.h **** 			 */
 266:../../tmk_core/protocol/lufa/lufa-abcminiuser/LUFA/Drivers/USB/Core/AVR8/../AVR8/../AVR8/Endpoint_AVR8.h **** 			static inline void Endpoint_SelectEndpoint(const uint8_t Address) ATTR_ALWAYS_INLINE;
 267:../../tmk_core/protocol/lufa/lufa-abcminiuser/LUFA/Drivers/USB/Core/AVR8/../AVR8/../AVR8/Endpoint_AVR8.h **** 			static inline void Endpoint_SelectEndpoint(const uint8_t Address)
 268:../../tmk_core/protocol/lufa/lufa-abcminiuser/LUFA/Drivers/USB/Core/AVR8/../AVR8/../AVR8/Endpoint_AVR8.h **** 			{
 269:../../tmk_core/protocol/lufa/lufa-abcminiuser/LUFA/Drivers/USB/Core/AVR8/../AVR8/../AVR8/Endpoint_AVR8.h **** 				#if !defined(CONTROL_ONLY_DEVICE)
 270:../../tmk_core/protocol/lufa/lufa-abcminiuser/LUFA/Drivers/USB/Core/AVR8/../AVR8/../AVR8/Endpoint_AVR8.h **** 					UENUM = (Address & ENDPOINT_EPNUM_MASK);
 271:../../tmk_core/protocol/lufa/lufa-abcminiuser/LUFA/Drivers/USB/Core/AVR8/../AVR8/../AVR8/Endpoint_AVR8.h **** 				#endif
 272:../../tmk_core/protocol/lufa/lufa-abcminiuser/LUFA/Drivers/USB/Core/AVR8/../AVR8/../AVR8/Endpoint_AVR8.h **** 			}
 273:../../tmk_core/protocol/lufa/lufa-abcminiuser/LUFA/Drivers/USB/Core/AVR8/../AVR8/../AVR8/Endpoint_AVR8.h **** 
 274:../../tmk_core/protocol/lufa/lufa-abcminiuser/LUFA/Drivers/USB/Core/AVR8/../AVR8/../AVR8/Endpoint_AVR8.h **** 			/** Resets the endpoint bank FIFO. This clears all the endpoint banks and resets the USB control
 275:../../tmk_core/protocol/lufa/lufa-abcminiuser/LUFA/Drivers/USB/Core/AVR8/../AVR8/../AVR8/Endpoint_AVR8.h **** 			 *  data In and Out pointers to the bank's contents.
 276:../../tmk_core/protocol/lufa/lufa-abcminiuser/LUFA/Drivers/USB/Core/AVR8/../AVR8/../AVR8/Endpoint_AVR8.h **** 			 *
 277:../../tmk_core/protocol/lufa/lufa-abcminiuser/LUFA/Drivers/USB/Core/AVR8/../AVR8/../AVR8/Endpoint_AVR8.h **** 			 *  \param[in] Address  Endpoint address whose FIFO buffers are to be reset.
 278:../../tmk_core/protocol/lufa/lufa-abcminiuser/LUFA/Drivers/USB/Core/AVR8/../AVR8/../AVR8/Endpoint_AVR8.h **** 			 */
 279:../../tmk_core/protocol/lufa/lufa-abcminiuser/LUFA/Drivers/USB/Core/AVR8/../AVR8/../AVR8/Endpoint_AVR8.h **** 			static inline void Endpoint_ResetEndpoint(const uint8_t Address) ATTR_ALWAYS_INLINE;
 280:../../tmk_core/protocol/lufa/lufa-abcminiuser/LUFA/Drivers/USB/Core/AVR8/../AVR8/../AVR8/Endpoint_AVR8.h **** 			static inline void Endpoint_ResetEndpoint(const uint8_t Address)
 281:../../tmk_core/protocol/lufa/lufa-abcminiuser/LUFA/Drivers/USB/Core/AVR8/../AVR8/../AVR8/Endpoint_AVR8.h **** 			{
 282:../../tmk_core/protocol/lufa/lufa-abcminiuser/LUFA/Drivers/USB/Core/AVR8/../AVR8/../AVR8/Endpoint_AVR8.h **** 				UERST = (1 << (Address & ENDPOINT_EPNUM_MASK));
 283:../../tmk_core/protocol/lufa/lufa-abcminiuser/LUFA/Drivers/USB/Core/AVR8/../AVR8/../AVR8/Endpoint_AVR8.h **** 				UERST = 0;
 284:../../tmk_core/protocol/lufa/lufa-abcminiuser/LUFA/Drivers/USB/Core/AVR8/../AVR8/../AVR8/Endpoint_AVR8.h **** 			}
 285:../../tmk_core/protocol/lufa/lufa-abcminiuser/LUFA/Drivers/USB/Core/AVR8/../AVR8/../AVR8/Endpoint_AVR8.h **** 
 286:../../tmk_core/protocol/lufa/lufa-abcminiuser/LUFA/Drivers/USB/Core/AVR8/../AVR8/../AVR8/Endpoint_AVR8.h **** 			/** Enables the currently selected endpoint so that data can be sent and received through it to
 287:../../tmk_core/protocol/lufa/lufa-abcminiuser/LUFA/Drivers/USB/Core/AVR8/../AVR8/../AVR8/Endpoint_AVR8.h **** 			 *  and from a host.
 288:../../tmk_core/protocol/lufa/lufa-abcminiuser/LUFA/Drivers/USB/Core/AVR8/../AVR8/../AVR8/Endpoint_AVR8.h **** 			 *
 289:../../tmk_core/protocol/lufa/lufa-abcminiuser/LUFA/Drivers/USB/Core/AVR8/../AVR8/../AVR8/Endpoint_AVR8.h **** 			 *  \note Endpoints must first be configured properly via \ref Endpoint_ConfigureEndpoint().
 290:../../tmk_core/protocol/lufa/lufa-abcminiuser/LUFA/Drivers/USB/Core/AVR8/../AVR8/../AVR8/Endpoint_AVR8.h **** 			 */
 291:../../tmk_core/protocol/lufa/lufa-abcminiuser/LUFA/Drivers/USB/Core/AVR8/../AVR8/../AVR8/Endpoint_AVR8.h **** 			static inline void Endpoint_EnableEndpoint(void) ATTR_ALWAYS_INLINE;
 292:../../tmk_core/protocol/lufa/lufa-abcminiuser/LUFA/Drivers/USB/Core/AVR8/../AVR8/../AVR8/Endpoint_AVR8.h **** 			static inline void Endpoint_EnableEndpoint(void)
 293:../../tmk_core/protocol/lufa/lufa-abcminiuser/LUFA/Drivers/USB/Core/AVR8/../AVR8/../AVR8/Endpoint_AVR8.h **** 			{
 294:../../tmk_core/protocol/lufa/lufa-abcminiuser/LUFA/Drivers/USB/Core/AVR8/../AVR8/../AVR8/Endpoint_AVR8.h **** 				UECONX |= (1 << EPEN);
 295:../../tmk_core/protocol/lufa/lufa-abcminiuser/LUFA/Drivers/USB/Core/AVR8/../AVR8/../AVR8/Endpoint_AVR8.h **** 			}
 296:../../tmk_core/protocol/lufa/lufa-abcminiuser/LUFA/Drivers/USB/Core/AVR8/../AVR8/../AVR8/Endpoint_AVR8.h **** 
 297:../../tmk_core/protocol/lufa/lufa-abcminiuser/LUFA/Drivers/USB/Core/AVR8/../AVR8/../AVR8/Endpoint_AVR8.h **** 			/** Disables the currently selected endpoint so that data cannot be sent and received through it
 298:../../tmk_core/protocol/lufa/lufa-abcminiuser/LUFA/Drivers/USB/Core/AVR8/../AVR8/../AVR8/Endpoint_AVR8.h **** 			 *  to and from a host.
 299:../../tmk_core/protocol/lufa/lufa-abcminiuser/LUFA/Drivers/USB/Core/AVR8/../AVR8/../AVR8/Endpoint_AVR8.h **** 			 */
 300:../../tmk_core/protocol/lufa/lufa-abcminiuser/LUFA/Drivers/USB/Core/AVR8/../AVR8/../AVR8/Endpoint_AVR8.h **** 			static inline void Endpoint_DisableEndpoint(void) ATTR_ALWAYS_INLINE;
 301:../../tmk_core/protocol/lufa/lufa-abcminiuser/LUFA/Drivers/USB/Core/AVR8/../AVR8/../AVR8/Endpoint_AVR8.h **** 			static inline void Endpoint_DisableEndpoint(void)
 302:../../tmk_core/protocol/lufa/lufa-abcminiuser/LUFA/Drivers/USB/Core/AVR8/../AVR8/../AVR8/Endpoint_AVR8.h **** 			{
 303:../../tmk_core/protocol/lufa/lufa-abcminiuser/LUFA/Drivers/USB/Core/AVR8/../AVR8/../AVR8/Endpoint_AVR8.h **** 				UECONX &= ~(1 << EPEN);
 304:../../tmk_core/protocol/lufa/lufa-abcminiuser/LUFA/Drivers/USB/Core/AVR8/../AVR8/../AVR8/Endpoint_AVR8.h **** 			}
 305:../../tmk_core/protocol/lufa/lufa-abcminiuser/LUFA/Drivers/USB/Core/AVR8/../AVR8/../AVR8/Endpoint_AVR8.h **** 
 306:../../tmk_core/protocol/lufa/lufa-abcminiuser/LUFA/Drivers/USB/Core/AVR8/../AVR8/../AVR8/Endpoint_AVR8.h **** 			/** Determines if the currently selected endpoint is enabled, but not necessarily configured.
 307:../../tmk_core/protocol/lufa/lufa-abcminiuser/LUFA/Drivers/USB/Core/AVR8/../AVR8/../AVR8/Endpoint_AVR8.h **** 			 *
 308:../../tmk_core/protocol/lufa/lufa-abcminiuser/LUFA/Drivers/USB/Core/AVR8/../AVR8/../AVR8/Endpoint_AVR8.h **** 			 * \return Boolean \c true if the currently selected endpoint is enabled, \c false otherwise.
 309:../../tmk_core/protocol/lufa/lufa-abcminiuser/LUFA/Drivers/USB/Core/AVR8/../AVR8/../AVR8/Endpoint_AVR8.h **** 			 */
 310:../../tmk_core/protocol/lufa/lufa-abcminiuser/LUFA/Drivers/USB/Core/AVR8/../AVR8/../AVR8/Endpoint_AVR8.h **** 			static inline bool Endpoint_IsEnabled(void) ATTR_WARN_UNUSED_RESULT ATTR_ALWAYS_INLINE;
 311:../../tmk_core/protocol/lufa/lufa-abcminiuser/LUFA/Drivers/USB/Core/AVR8/../AVR8/../AVR8/Endpoint_AVR8.h **** 			static inline bool Endpoint_IsEnabled(void)
 312:../../tmk_core/protocol/lufa/lufa-abcminiuser/LUFA/Drivers/USB/Core/AVR8/../AVR8/../AVR8/Endpoint_AVR8.h **** 			{
 313:../../tmk_core/protocol/lufa/lufa-abcminiuser/LUFA/Drivers/USB/Core/AVR8/../AVR8/../AVR8/Endpoint_AVR8.h **** 				return ((UECONX & (1 << EPEN)) ? true : false);
 314:../../tmk_core/protocol/lufa/lufa-abcminiuser/LUFA/Drivers/USB/Core/AVR8/../AVR8/../AVR8/Endpoint_AVR8.h **** 			}
 315:../../tmk_core/protocol/lufa/lufa-abcminiuser/LUFA/Drivers/USB/Core/AVR8/../AVR8/../AVR8/Endpoint_AVR8.h **** 
 316:../../tmk_core/protocol/lufa/lufa-abcminiuser/LUFA/Drivers/USB/Core/AVR8/../AVR8/../AVR8/Endpoint_AVR8.h **** 			/** Retrieves the number of busy banks in the currently selected endpoint, which have been queue
 317:../../tmk_core/protocol/lufa/lufa-abcminiuser/LUFA/Drivers/USB/Core/AVR8/../AVR8/../AVR8/Endpoint_AVR8.h **** 			 *  transmission via the \ref Endpoint_ClearIN() command, or are awaiting acknowledgment via the
 318:../../tmk_core/protocol/lufa/lufa-abcminiuser/LUFA/Drivers/USB/Core/AVR8/../AVR8/../AVR8/Endpoint_AVR8.h **** 			 *  \ref Endpoint_ClearOUT() command.
 319:../../tmk_core/protocol/lufa/lufa-abcminiuser/LUFA/Drivers/USB/Core/AVR8/../AVR8/../AVR8/Endpoint_AVR8.h **** 			 *
 320:../../tmk_core/protocol/lufa/lufa-abcminiuser/LUFA/Drivers/USB/Core/AVR8/../AVR8/../AVR8/Endpoint_AVR8.h **** 			 *  \ingroup Group_EndpointPacketManagement_AVR8
 321:../../tmk_core/protocol/lufa/lufa-abcminiuser/LUFA/Drivers/USB/Core/AVR8/../AVR8/../AVR8/Endpoint_AVR8.h **** 			 *
 322:../../tmk_core/protocol/lufa/lufa-abcminiuser/LUFA/Drivers/USB/Core/AVR8/../AVR8/../AVR8/Endpoint_AVR8.h **** 			 *  \return Total number of busy banks in the selected endpoint.
 323:../../tmk_core/protocol/lufa/lufa-abcminiuser/LUFA/Drivers/USB/Core/AVR8/../AVR8/../AVR8/Endpoint_AVR8.h **** 			 */
 324:../../tmk_core/protocol/lufa/lufa-abcminiuser/LUFA/Drivers/USB/Core/AVR8/../AVR8/../AVR8/Endpoint_AVR8.h **** 			static inline uint8_t Endpoint_GetBusyBanks(void) ATTR_ALWAYS_INLINE ATTR_WARN_UNUSED_RESULT;
 325:../../tmk_core/protocol/lufa/lufa-abcminiuser/LUFA/Drivers/USB/Core/AVR8/../AVR8/../AVR8/Endpoint_AVR8.h **** 			static inline uint8_t Endpoint_GetBusyBanks(void)
 326:../../tmk_core/protocol/lufa/lufa-abcminiuser/LUFA/Drivers/USB/Core/AVR8/../AVR8/../AVR8/Endpoint_AVR8.h **** 			{
 327:../../tmk_core/protocol/lufa/lufa-abcminiuser/LUFA/Drivers/USB/Core/AVR8/../AVR8/../AVR8/Endpoint_AVR8.h **** 				return (UESTA0X & (0x03 << NBUSYBK0));
 328:../../tmk_core/protocol/lufa/lufa-abcminiuser/LUFA/Drivers/USB/Core/AVR8/../AVR8/../AVR8/Endpoint_AVR8.h **** 			}
 329:../../tmk_core/protocol/lufa/lufa-abcminiuser/LUFA/Drivers/USB/Core/AVR8/../AVR8/../AVR8/Endpoint_AVR8.h **** 
 330:../../tmk_core/protocol/lufa/lufa-abcminiuser/LUFA/Drivers/USB/Core/AVR8/../AVR8/../AVR8/Endpoint_AVR8.h **** 			/** Aborts all pending IN transactions on the currently selected endpoint, once the bank
 331:../../tmk_core/protocol/lufa/lufa-abcminiuser/LUFA/Drivers/USB/Core/AVR8/../AVR8/../AVR8/Endpoint_AVR8.h **** 			 *  has been queued for transmission to the host via \ref Endpoint_ClearIN(). This function
 332:../../tmk_core/protocol/lufa/lufa-abcminiuser/LUFA/Drivers/USB/Core/AVR8/../AVR8/../AVR8/Endpoint_AVR8.h **** 			 *  will terminate all queued transactions, resetting the endpoint banks ready for a new
 333:../../tmk_core/protocol/lufa/lufa-abcminiuser/LUFA/Drivers/USB/Core/AVR8/../AVR8/../AVR8/Endpoint_AVR8.h **** 			 *  packet.
 334:../../tmk_core/protocol/lufa/lufa-abcminiuser/LUFA/Drivers/USB/Core/AVR8/../AVR8/../AVR8/Endpoint_AVR8.h **** 			 *
 335:../../tmk_core/protocol/lufa/lufa-abcminiuser/LUFA/Drivers/USB/Core/AVR8/../AVR8/../AVR8/Endpoint_AVR8.h **** 			 *  \ingroup Group_EndpointPacketManagement_AVR8
 336:../../tmk_core/protocol/lufa/lufa-abcminiuser/LUFA/Drivers/USB/Core/AVR8/../AVR8/../AVR8/Endpoint_AVR8.h **** 			 */
 337:../../tmk_core/protocol/lufa/lufa-abcminiuser/LUFA/Drivers/USB/Core/AVR8/../AVR8/../AVR8/Endpoint_AVR8.h **** 			static inline void Endpoint_AbortPendingIN(void)
 338:../../tmk_core/protocol/lufa/lufa-abcminiuser/LUFA/Drivers/USB/Core/AVR8/../AVR8/../AVR8/Endpoint_AVR8.h **** 			{
 339:../../tmk_core/protocol/lufa/lufa-abcminiuser/LUFA/Drivers/USB/Core/AVR8/../AVR8/../AVR8/Endpoint_AVR8.h **** 				while (Endpoint_GetBusyBanks() != 0)
 340:../../tmk_core/protocol/lufa/lufa-abcminiuser/LUFA/Drivers/USB/Core/AVR8/../AVR8/../AVR8/Endpoint_AVR8.h **** 				{
 341:../../tmk_core/protocol/lufa/lufa-abcminiuser/LUFA/Drivers/USB/Core/AVR8/../AVR8/../AVR8/Endpoint_AVR8.h **** 					UEINTX |= (1 << RXOUTI);
 342:../../tmk_core/protocol/lufa/lufa-abcminiuser/LUFA/Drivers/USB/Core/AVR8/../AVR8/../AVR8/Endpoint_AVR8.h **** 					while (UEINTX & (1 << RXOUTI));
 343:../../tmk_core/protocol/lufa/lufa-abcminiuser/LUFA/Drivers/USB/Core/AVR8/../AVR8/../AVR8/Endpoint_AVR8.h **** 				}
 344:../../tmk_core/protocol/lufa/lufa-abcminiuser/LUFA/Drivers/USB/Core/AVR8/../AVR8/../AVR8/Endpoint_AVR8.h **** 			}
 345:../../tmk_core/protocol/lufa/lufa-abcminiuser/LUFA/Drivers/USB/Core/AVR8/../AVR8/../AVR8/Endpoint_AVR8.h **** 
 346:../../tmk_core/protocol/lufa/lufa-abcminiuser/LUFA/Drivers/USB/Core/AVR8/../AVR8/../AVR8/Endpoint_AVR8.h **** 			/** Determines if the currently selected endpoint may be read from (if data is waiting in the en
 347:../../tmk_core/protocol/lufa/lufa-abcminiuser/LUFA/Drivers/USB/Core/AVR8/../AVR8/../AVR8/Endpoint_AVR8.h **** 			 *  bank and the endpoint is an OUT direction, or if the bank is not yet full if the endpoint is
 348:../../tmk_core/protocol/lufa/lufa-abcminiuser/LUFA/Drivers/USB/Core/AVR8/../AVR8/../AVR8/Endpoint_AVR8.h **** 			 *  direction). This function will return false if an error has occurred in the endpoint, if the
 349:../../tmk_core/protocol/lufa/lufa-abcminiuser/LUFA/Drivers/USB/Core/AVR8/../AVR8/../AVR8/Endpoint_AVR8.h **** 			 *  is an OUT direction and no packet (or an empty packet) has been received, or if the endpoint
 350:../../tmk_core/protocol/lufa/lufa-abcminiuser/LUFA/Drivers/USB/Core/AVR8/../AVR8/../AVR8/Endpoint_AVR8.h **** 			 *  direction and the endpoint bank is full.
 351:../../tmk_core/protocol/lufa/lufa-abcminiuser/LUFA/Drivers/USB/Core/AVR8/../AVR8/../AVR8/Endpoint_AVR8.h **** 			 *
 352:../../tmk_core/protocol/lufa/lufa-abcminiuser/LUFA/Drivers/USB/Core/AVR8/../AVR8/../AVR8/Endpoint_AVR8.h **** 			 *  \ingroup Group_EndpointPacketManagement_AVR8
 353:../../tmk_core/protocol/lufa/lufa-abcminiuser/LUFA/Drivers/USB/Core/AVR8/../AVR8/../AVR8/Endpoint_AVR8.h **** 			 *
 354:../../tmk_core/protocol/lufa/lufa-abcminiuser/LUFA/Drivers/USB/Core/AVR8/../AVR8/../AVR8/Endpoint_AVR8.h **** 			 *  \return Boolean \c true if the currently selected endpoint may be read from or written to, d
 355:../../tmk_core/protocol/lufa/lufa-abcminiuser/LUFA/Drivers/USB/Core/AVR8/../AVR8/../AVR8/Endpoint_AVR8.h **** 			 *          on its direction.
 356:../../tmk_core/protocol/lufa/lufa-abcminiuser/LUFA/Drivers/USB/Core/AVR8/../AVR8/../AVR8/Endpoint_AVR8.h **** 			 */
 357:../../tmk_core/protocol/lufa/lufa-abcminiuser/LUFA/Drivers/USB/Core/AVR8/../AVR8/../AVR8/Endpoint_AVR8.h **** 			static inline bool Endpoint_IsReadWriteAllowed(void) ATTR_WARN_UNUSED_RESULT ATTR_ALWAYS_INLINE;
 358:../../tmk_core/protocol/lufa/lufa-abcminiuser/LUFA/Drivers/USB/Core/AVR8/../AVR8/../AVR8/Endpoint_AVR8.h **** 			static inline bool Endpoint_IsReadWriteAllowed(void)
 359:../../tmk_core/protocol/lufa/lufa-abcminiuser/LUFA/Drivers/USB/Core/AVR8/../AVR8/../AVR8/Endpoint_AVR8.h **** 			{
 360:../../tmk_core/protocol/lufa/lufa-abcminiuser/LUFA/Drivers/USB/Core/AVR8/../AVR8/../AVR8/Endpoint_AVR8.h **** 				return ((UEINTX & (1 << RWAL)) ? true : false);
 361:../../tmk_core/protocol/lufa/lufa-abcminiuser/LUFA/Drivers/USB/Core/AVR8/../AVR8/../AVR8/Endpoint_AVR8.h **** 			}
 362:../../tmk_core/protocol/lufa/lufa-abcminiuser/LUFA/Drivers/USB/Core/AVR8/../AVR8/../AVR8/Endpoint_AVR8.h **** 
 363:../../tmk_core/protocol/lufa/lufa-abcminiuser/LUFA/Drivers/USB/Core/AVR8/../AVR8/../AVR8/Endpoint_AVR8.h **** 			/** Determines if the currently selected endpoint is configured.
 364:../../tmk_core/protocol/lufa/lufa-abcminiuser/LUFA/Drivers/USB/Core/AVR8/../AVR8/../AVR8/Endpoint_AVR8.h **** 			 *
 365:../../tmk_core/protocol/lufa/lufa-abcminiuser/LUFA/Drivers/USB/Core/AVR8/../AVR8/../AVR8/Endpoint_AVR8.h **** 			 *  \return Boolean \c true if the currently selected endpoint has been configured, \c false oth
 366:../../tmk_core/protocol/lufa/lufa-abcminiuser/LUFA/Drivers/USB/Core/AVR8/../AVR8/../AVR8/Endpoint_AVR8.h **** 			 */
 367:../../tmk_core/protocol/lufa/lufa-abcminiuser/LUFA/Drivers/USB/Core/AVR8/../AVR8/../AVR8/Endpoint_AVR8.h **** 			static inline bool Endpoint_IsConfigured(void) ATTR_WARN_UNUSED_RESULT ATTR_ALWAYS_INLINE;
 368:../../tmk_core/protocol/lufa/lufa-abcminiuser/LUFA/Drivers/USB/Core/AVR8/../AVR8/../AVR8/Endpoint_AVR8.h **** 			static inline bool Endpoint_IsConfigured(void)
 369:../../tmk_core/protocol/lufa/lufa-abcminiuser/LUFA/Drivers/USB/Core/AVR8/../AVR8/../AVR8/Endpoint_AVR8.h **** 			{
 370:../../tmk_core/protocol/lufa/lufa-abcminiuser/LUFA/Drivers/USB/Core/AVR8/../AVR8/../AVR8/Endpoint_AVR8.h **** 				return ((UESTA0X & (1 << CFGOK)) ? true : false);
 371:../../tmk_core/protocol/lufa/lufa-abcminiuser/LUFA/Drivers/USB/Core/AVR8/../AVR8/../AVR8/Endpoint_AVR8.h **** 			}
 372:../../tmk_core/protocol/lufa/lufa-abcminiuser/LUFA/Drivers/USB/Core/AVR8/../AVR8/../AVR8/Endpoint_AVR8.h **** 
 373:../../tmk_core/protocol/lufa/lufa-abcminiuser/LUFA/Drivers/USB/Core/AVR8/../AVR8/../AVR8/Endpoint_AVR8.h **** 			/** Returns a mask indicating which INTERRUPT type endpoints have interrupted - i.e. their
 374:../../tmk_core/protocol/lufa/lufa-abcminiuser/LUFA/Drivers/USB/Core/AVR8/../AVR8/../AVR8/Endpoint_AVR8.h **** 			 *  interrupt duration has elapsed. Which endpoints have interrupted can be determined by
 375:../../tmk_core/protocol/lufa/lufa-abcminiuser/LUFA/Drivers/USB/Core/AVR8/../AVR8/../AVR8/Endpoint_AVR8.h **** 			 *  masking the return value against <tt>(1 << <i>{Endpoint Number}</i>)</tt>.
 376:../../tmk_core/protocol/lufa/lufa-abcminiuser/LUFA/Drivers/USB/Core/AVR8/../AVR8/../AVR8/Endpoint_AVR8.h **** 			 *
 377:../../tmk_core/protocol/lufa/lufa-abcminiuser/LUFA/Drivers/USB/Core/AVR8/../AVR8/../AVR8/Endpoint_AVR8.h **** 			 *  \return Mask whose bits indicate which endpoints have interrupted.
 378:../../tmk_core/protocol/lufa/lufa-abcminiuser/LUFA/Drivers/USB/Core/AVR8/../AVR8/../AVR8/Endpoint_AVR8.h **** 			 */
 379:../../tmk_core/protocol/lufa/lufa-abcminiuser/LUFA/Drivers/USB/Core/AVR8/../AVR8/../AVR8/Endpoint_AVR8.h **** 			static inline uint8_t Endpoint_GetEndpointInterrupts(void) ATTR_WARN_UNUSED_RESULT ATTR_ALWAYS_I
 380:../../tmk_core/protocol/lufa/lufa-abcminiuser/LUFA/Drivers/USB/Core/AVR8/../AVR8/../AVR8/Endpoint_AVR8.h **** 			static inline uint8_t Endpoint_GetEndpointInterrupts(void)
 381:../../tmk_core/protocol/lufa/lufa-abcminiuser/LUFA/Drivers/USB/Core/AVR8/../AVR8/../AVR8/Endpoint_AVR8.h **** 			{
 382:../../tmk_core/protocol/lufa/lufa-abcminiuser/LUFA/Drivers/USB/Core/AVR8/../AVR8/../AVR8/Endpoint_AVR8.h **** 				return UEINT;
 383:../../tmk_core/protocol/lufa/lufa-abcminiuser/LUFA/Drivers/USB/Core/AVR8/../AVR8/../AVR8/Endpoint_AVR8.h **** 			}
 384:../../tmk_core/protocol/lufa/lufa-abcminiuser/LUFA/Drivers/USB/Core/AVR8/../AVR8/../AVR8/Endpoint_AVR8.h **** 
 385:../../tmk_core/protocol/lufa/lufa-abcminiuser/LUFA/Drivers/USB/Core/AVR8/../AVR8/../AVR8/Endpoint_AVR8.h **** 			/** Determines if the specified endpoint number has interrupted (valid only for INTERRUPT type
 386:../../tmk_core/protocol/lufa/lufa-abcminiuser/LUFA/Drivers/USB/Core/AVR8/../AVR8/../AVR8/Endpoint_AVR8.h **** 			 *  endpoints).
 387:../../tmk_core/protocol/lufa/lufa-abcminiuser/LUFA/Drivers/USB/Core/AVR8/../AVR8/../AVR8/Endpoint_AVR8.h **** 			 *
 388:../../tmk_core/protocol/lufa/lufa-abcminiuser/LUFA/Drivers/USB/Core/AVR8/../AVR8/../AVR8/Endpoint_AVR8.h **** 			 *  \param[in] Address  Address of the endpoint whose interrupt flag should be tested.
 389:../../tmk_core/protocol/lufa/lufa-abcminiuser/LUFA/Drivers/USB/Core/AVR8/../AVR8/../AVR8/Endpoint_AVR8.h **** 			 *
 390:../../tmk_core/protocol/lufa/lufa-abcminiuser/LUFA/Drivers/USB/Core/AVR8/../AVR8/../AVR8/Endpoint_AVR8.h **** 			 *  \return Boolean \c true if the specified endpoint has interrupted, \c false otherwise.
 391:../../tmk_core/protocol/lufa/lufa-abcminiuser/LUFA/Drivers/USB/Core/AVR8/../AVR8/../AVR8/Endpoint_AVR8.h **** 			 */
 392:../../tmk_core/protocol/lufa/lufa-abcminiuser/LUFA/Drivers/USB/Core/AVR8/../AVR8/../AVR8/Endpoint_AVR8.h **** 			static inline bool Endpoint_HasEndpointInterrupted(const uint8_t Address) ATTR_WARN_UNUSED_RESUL
 393:../../tmk_core/protocol/lufa/lufa-abcminiuser/LUFA/Drivers/USB/Core/AVR8/../AVR8/../AVR8/Endpoint_AVR8.h **** 			static inline bool Endpoint_HasEndpointInterrupted(const uint8_t Address)
 394:../../tmk_core/protocol/lufa/lufa-abcminiuser/LUFA/Drivers/USB/Core/AVR8/../AVR8/../AVR8/Endpoint_AVR8.h **** 			{
 395:../../tmk_core/protocol/lufa/lufa-abcminiuser/LUFA/Drivers/USB/Core/AVR8/../AVR8/../AVR8/Endpoint_AVR8.h **** 				return ((Endpoint_GetEndpointInterrupts() & (1 << (Address & ENDPOINT_EPNUM_MASK))) ? true : fa
 396:../../tmk_core/protocol/lufa/lufa-abcminiuser/LUFA/Drivers/USB/Core/AVR8/../AVR8/../AVR8/Endpoint_AVR8.h **** 			}
 397:../../tmk_core/protocol/lufa/lufa-abcminiuser/LUFA/Drivers/USB/Core/AVR8/../AVR8/../AVR8/Endpoint_AVR8.h **** 
 398:../../tmk_core/protocol/lufa/lufa-abcminiuser/LUFA/Drivers/USB/Core/AVR8/../AVR8/../AVR8/Endpoint_AVR8.h **** 			/** Determines if the selected IN endpoint is ready for a new packet to be sent to the host.
 399:../../tmk_core/protocol/lufa/lufa-abcminiuser/LUFA/Drivers/USB/Core/AVR8/../AVR8/../AVR8/Endpoint_AVR8.h **** 			 *
 400:../../tmk_core/protocol/lufa/lufa-abcminiuser/LUFA/Drivers/USB/Core/AVR8/../AVR8/../AVR8/Endpoint_AVR8.h **** 			 *  \ingroup Group_EndpointPacketManagement_AVR8
 401:../../tmk_core/protocol/lufa/lufa-abcminiuser/LUFA/Drivers/USB/Core/AVR8/../AVR8/../AVR8/Endpoint_AVR8.h **** 			 *
 402:../../tmk_core/protocol/lufa/lufa-abcminiuser/LUFA/Drivers/USB/Core/AVR8/../AVR8/../AVR8/Endpoint_AVR8.h **** 			 *  \return Boolean \c true if the current endpoint is ready for an IN packet, \c false otherwis
 403:../../tmk_core/protocol/lufa/lufa-abcminiuser/LUFA/Drivers/USB/Core/AVR8/../AVR8/../AVR8/Endpoint_AVR8.h **** 			 */
 404:../../tmk_core/protocol/lufa/lufa-abcminiuser/LUFA/Drivers/USB/Core/AVR8/../AVR8/../AVR8/Endpoint_AVR8.h **** 			static inline bool Endpoint_IsINReady(void) ATTR_WARN_UNUSED_RESULT ATTR_ALWAYS_INLINE;
 405:../../tmk_core/protocol/lufa/lufa-abcminiuser/LUFA/Drivers/USB/Core/AVR8/../AVR8/../AVR8/Endpoint_AVR8.h **** 			static inline bool Endpoint_IsINReady(void)
 406:../../tmk_core/protocol/lufa/lufa-abcminiuser/LUFA/Drivers/USB/Core/AVR8/../AVR8/../AVR8/Endpoint_AVR8.h **** 			{
 407:../../tmk_core/protocol/lufa/lufa-abcminiuser/LUFA/Drivers/USB/Core/AVR8/../AVR8/../AVR8/Endpoint_AVR8.h **** 				return ((UEINTX & (1 << TXINI)) ? true : false);
 408:../../tmk_core/protocol/lufa/lufa-abcminiuser/LUFA/Drivers/USB/Core/AVR8/../AVR8/../AVR8/Endpoint_AVR8.h **** 			}
 409:../../tmk_core/protocol/lufa/lufa-abcminiuser/LUFA/Drivers/USB/Core/AVR8/../AVR8/../AVR8/Endpoint_AVR8.h **** 
 410:../../tmk_core/protocol/lufa/lufa-abcminiuser/LUFA/Drivers/USB/Core/AVR8/../AVR8/../AVR8/Endpoint_AVR8.h **** 			/** Determines if the selected OUT endpoint has received new packet from the host.
 411:../../tmk_core/protocol/lufa/lufa-abcminiuser/LUFA/Drivers/USB/Core/AVR8/../AVR8/../AVR8/Endpoint_AVR8.h **** 			 *
 412:../../tmk_core/protocol/lufa/lufa-abcminiuser/LUFA/Drivers/USB/Core/AVR8/../AVR8/../AVR8/Endpoint_AVR8.h **** 			 *  \ingroup Group_EndpointPacketManagement_AVR8
 413:../../tmk_core/protocol/lufa/lufa-abcminiuser/LUFA/Drivers/USB/Core/AVR8/../AVR8/../AVR8/Endpoint_AVR8.h **** 			 *
 414:../../tmk_core/protocol/lufa/lufa-abcminiuser/LUFA/Drivers/USB/Core/AVR8/../AVR8/../AVR8/Endpoint_AVR8.h **** 			 *  \return Boolean \c true if current endpoint is has received an OUT packet, \c false otherwis
 415:../../tmk_core/protocol/lufa/lufa-abcminiuser/LUFA/Drivers/USB/Core/AVR8/../AVR8/../AVR8/Endpoint_AVR8.h **** 			 */
 416:../../tmk_core/protocol/lufa/lufa-abcminiuser/LUFA/Drivers/USB/Core/AVR8/../AVR8/../AVR8/Endpoint_AVR8.h **** 			static inline bool Endpoint_IsOUTReceived(void) ATTR_WARN_UNUSED_RESULT ATTR_ALWAYS_INLINE;
 417:../../tmk_core/protocol/lufa/lufa-abcminiuser/LUFA/Drivers/USB/Core/AVR8/../AVR8/../AVR8/Endpoint_AVR8.h **** 			static inline bool Endpoint_IsOUTReceived(void)
 418:../../tmk_core/protocol/lufa/lufa-abcminiuser/LUFA/Drivers/USB/Core/AVR8/../AVR8/../AVR8/Endpoint_AVR8.h **** 			{
 419:../../tmk_core/protocol/lufa/lufa-abcminiuser/LUFA/Drivers/USB/Core/AVR8/../AVR8/../AVR8/Endpoint_AVR8.h **** 				return ((UEINTX & (1 << RXOUTI)) ? true : false);
 420:../../tmk_core/protocol/lufa/lufa-abcminiuser/LUFA/Drivers/USB/Core/AVR8/../AVR8/../AVR8/Endpoint_AVR8.h **** 			}
 421:../../tmk_core/protocol/lufa/lufa-abcminiuser/LUFA/Drivers/USB/Core/AVR8/../AVR8/../AVR8/Endpoint_AVR8.h **** 
 422:../../tmk_core/protocol/lufa/lufa-abcminiuser/LUFA/Drivers/USB/Core/AVR8/../AVR8/../AVR8/Endpoint_AVR8.h **** 			/** Determines if the current CONTROL type endpoint has received a SETUP packet.
 423:../../tmk_core/protocol/lufa/lufa-abcminiuser/LUFA/Drivers/USB/Core/AVR8/../AVR8/../AVR8/Endpoint_AVR8.h **** 			 *
 424:../../tmk_core/protocol/lufa/lufa-abcminiuser/LUFA/Drivers/USB/Core/AVR8/../AVR8/../AVR8/Endpoint_AVR8.h **** 			 *  \ingroup Group_EndpointPacketManagement_AVR8
 425:../../tmk_core/protocol/lufa/lufa-abcminiuser/LUFA/Drivers/USB/Core/AVR8/../AVR8/../AVR8/Endpoint_AVR8.h **** 			 *
 426:../../tmk_core/protocol/lufa/lufa-abcminiuser/LUFA/Drivers/USB/Core/AVR8/../AVR8/../AVR8/Endpoint_AVR8.h **** 			 *  \return Boolean \c true if the selected endpoint has received a SETUP packet, \c false other
 427:../../tmk_core/protocol/lufa/lufa-abcminiuser/LUFA/Drivers/USB/Core/AVR8/../AVR8/../AVR8/Endpoint_AVR8.h **** 			 */
 428:../../tmk_core/protocol/lufa/lufa-abcminiuser/LUFA/Drivers/USB/Core/AVR8/../AVR8/../AVR8/Endpoint_AVR8.h **** 			static inline bool Endpoint_IsSETUPReceived(void) ATTR_WARN_UNUSED_RESULT ATTR_ALWAYS_INLINE;
 429:../../tmk_core/protocol/lufa/lufa-abcminiuser/LUFA/Drivers/USB/Core/AVR8/../AVR8/../AVR8/Endpoint_AVR8.h **** 			static inline bool Endpoint_IsSETUPReceived(void)
 430:../../tmk_core/protocol/lufa/lufa-abcminiuser/LUFA/Drivers/USB/Core/AVR8/../AVR8/../AVR8/Endpoint_AVR8.h **** 			{
 431:../../tmk_core/protocol/lufa/lufa-abcminiuser/LUFA/Drivers/USB/Core/AVR8/../AVR8/../AVR8/Endpoint_AVR8.h **** 				return ((UEINTX & (1 << RXSTPI)) ? true : false);
 432:../../tmk_core/protocol/lufa/lufa-abcminiuser/LUFA/Drivers/USB/Core/AVR8/../AVR8/../AVR8/Endpoint_AVR8.h **** 			}
 433:../../tmk_core/protocol/lufa/lufa-abcminiuser/LUFA/Drivers/USB/Core/AVR8/../AVR8/../AVR8/Endpoint_AVR8.h **** 
 434:../../tmk_core/protocol/lufa/lufa-abcminiuser/LUFA/Drivers/USB/Core/AVR8/../AVR8/../AVR8/Endpoint_AVR8.h **** 			/** Clears a received SETUP packet on the currently selected CONTROL type endpoint, freeing up t
 435:../../tmk_core/protocol/lufa/lufa-abcminiuser/LUFA/Drivers/USB/Core/AVR8/../AVR8/../AVR8/Endpoint_AVR8.h **** 			 *  endpoint for the next packet.
 436:../../tmk_core/protocol/lufa/lufa-abcminiuser/LUFA/Drivers/USB/Core/AVR8/../AVR8/../AVR8/Endpoint_AVR8.h **** 			 *
 437:../../tmk_core/protocol/lufa/lufa-abcminiuser/LUFA/Drivers/USB/Core/AVR8/../AVR8/../AVR8/Endpoint_AVR8.h **** 			 *  \ingroup Group_EndpointPacketManagement_AVR8
 438:../../tmk_core/protocol/lufa/lufa-abcminiuser/LUFA/Drivers/USB/Core/AVR8/../AVR8/../AVR8/Endpoint_AVR8.h **** 			 *
 439:../../tmk_core/protocol/lufa/lufa-abcminiuser/LUFA/Drivers/USB/Core/AVR8/../AVR8/../AVR8/Endpoint_AVR8.h **** 			 *  \note This is not applicable for non CONTROL type endpoints.
 440:../../tmk_core/protocol/lufa/lufa-abcminiuser/LUFA/Drivers/USB/Core/AVR8/../AVR8/../AVR8/Endpoint_AVR8.h **** 			 */
 441:../../tmk_core/protocol/lufa/lufa-abcminiuser/LUFA/Drivers/USB/Core/AVR8/../AVR8/../AVR8/Endpoint_AVR8.h **** 			static inline void Endpoint_ClearSETUP(void) ATTR_ALWAYS_INLINE;
 442:../../tmk_core/protocol/lufa/lufa-abcminiuser/LUFA/Drivers/USB/Core/AVR8/../AVR8/../AVR8/Endpoint_AVR8.h **** 			static inline void Endpoint_ClearSETUP(void)
 443:../../tmk_core/protocol/lufa/lufa-abcminiuser/LUFA/Drivers/USB/Core/AVR8/../AVR8/../AVR8/Endpoint_AVR8.h **** 			{
 444:../../tmk_core/protocol/lufa/lufa-abcminiuser/LUFA/Drivers/USB/Core/AVR8/../AVR8/../AVR8/Endpoint_AVR8.h **** 				UEINTX &= ~(1 << RXSTPI);
 445:../../tmk_core/protocol/lufa/lufa-abcminiuser/LUFA/Drivers/USB/Core/AVR8/../AVR8/../AVR8/Endpoint_AVR8.h **** 			}
 446:../../tmk_core/protocol/lufa/lufa-abcminiuser/LUFA/Drivers/USB/Core/AVR8/../AVR8/../AVR8/Endpoint_AVR8.h **** 
 447:../../tmk_core/protocol/lufa/lufa-abcminiuser/LUFA/Drivers/USB/Core/AVR8/../AVR8/../AVR8/Endpoint_AVR8.h **** 			/** Sends an IN packet to the host on the currently selected endpoint, freeing up the endpoint f
 448:../../tmk_core/protocol/lufa/lufa-abcminiuser/LUFA/Drivers/USB/Core/AVR8/../AVR8/../AVR8/Endpoint_AVR8.h **** 			 *  next packet and switching to the alternative endpoint bank if double banked.
 449:../../tmk_core/protocol/lufa/lufa-abcminiuser/LUFA/Drivers/USB/Core/AVR8/../AVR8/../AVR8/Endpoint_AVR8.h **** 			 *
 450:../../tmk_core/protocol/lufa/lufa-abcminiuser/LUFA/Drivers/USB/Core/AVR8/../AVR8/../AVR8/Endpoint_AVR8.h **** 			 *  \ingroup Group_EndpointPacketManagement_AVR8
 451:../../tmk_core/protocol/lufa/lufa-abcminiuser/LUFA/Drivers/USB/Core/AVR8/../AVR8/../AVR8/Endpoint_AVR8.h **** 			 */
 452:../../tmk_core/protocol/lufa/lufa-abcminiuser/LUFA/Drivers/USB/Core/AVR8/../AVR8/../AVR8/Endpoint_AVR8.h **** 			static inline void Endpoint_ClearIN(void) ATTR_ALWAYS_INLINE;
 453:../../tmk_core/protocol/lufa/lufa-abcminiuser/LUFA/Drivers/USB/Core/AVR8/../AVR8/../AVR8/Endpoint_AVR8.h **** 			static inline void Endpoint_ClearIN(void)
 454:../../tmk_core/protocol/lufa/lufa-abcminiuser/LUFA/Drivers/USB/Core/AVR8/../AVR8/../AVR8/Endpoint_AVR8.h **** 			{
 455:../../tmk_core/protocol/lufa/lufa-abcminiuser/LUFA/Drivers/USB/Core/AVR8/../AVR8/../AVR8/Endpoint_AVR8.h **** 				#if !defined(CONTROL_ONLY_DEVICE)
 456:../../tmk_core/protocol/lufa/lufa-abcminiuser/LUFA/Drivers/USB/Core/AVR8/../AVR8/../AVR8/Endpoint_AVR8.h **** 					UEINTX &= ~((1 << TXINI) | (1 << FIFOCON));
 457:../../tmk_core/protocol/lufa/lufa-abcminiuser/LUFA/Drivers/USB/Core/AVR8/../AVR8/../AVR8/Endpoint_AVR8.h **** 				#else
 458:../../tmk_core/protocol/lufa/lufa-abcminiuser/LUFA/Drivers/USB/Core/AVR8/../AVR8/../AVR8/Endpoint_AVR8.h **** 					UEINTX &= ~(1 << TXINI);
 459:../../tmk_core/protocol/lufa/lufa-abcminiuser/LUFA/Drivers/USB/Core/AVR8/../AVR8/../AVR8/Endpoint_AVR8.h **** 				#endif
 460:../../tmk_core/protocol/lufa/lufa-abcminiuser/LUFA/Drivers/USB/Core/AVR8/../AVR8/../AVR8/Endpoint_AVR8.h **** 			}
 461:../../tmk_core/protocol/lufa/lufa-abcminiuser/LUFA/Drivers/USB/Core/AVR8/../AVR8/../AVR8/Endpoint_AVR8.h **** 
 462:../../tmk_core/protocol/lufa/lufa-abcminiuser/LUFA/Drivers/USB/Core/AVR8/../AVR8/../AVR8/Endpoint_AVR8.h **** 			/** Acknowledges an OUT packet to the host on the currently selected endpoint, freeing up the en
 463:../../tmk_core/protocol/lufa/lufa-abcminiuser/LUFA/Drivers/USB/Core/AVR8/../AVR8/../AVR8/Endpoint_AVR8.h **** 			 *  for the next packet and switching to the alternative endpoint bank if double banked.
 464:../../tmk_core/protocol/lufa/lufa-abcminiuser/LUFA/Drivers/USB/Core/AVR8/../AVR8/../AVR8/Endpoint_AVR8.h **** 			 *
 465:../../tmk_core/protocol/lufa/lufa-abcminiuser/LUFA/Drivers/USB/Core/AVR8/../AVR8/../AVR8/Endpoint_AVR8.h **** 			 *  \ingroup Group_EndpointPacketManagement_AVR8
 466:../../tmk_core/protocol/lufa/lufa-abcminiuser/LUFA/Drivers/USB/Core/AVR8/../AVR8/../AVR8/Endpoint_AVR8.h **** 			 */
 467:../../tmk_core/protocol/lufa/lufa-abcminiuser/LUFA/Drivers/USB/Core/AVR8/../AVR8/../AVR8/Endpoint_AVR8.h **** 			static inline void Endpoint_ClearOUT(void) ATTR_ALWAYS_INLINE;
 468:../../tmk_core/protocol/lufa/lufa-abcminiuser/LUFA/Drivers/USB/Core/AVR8/../AVR8/../AVR8/Endpoint_AVR8.h **** 			static inline void Endpoint_ClearOUT(void)
 469:../../tmk_core/protocol/lufa/lufa-abcminiuser/LUFA/Drivers/USB/Core/AVR8/../AVR8/../AVR8/Endpoint_AVR8.h **** 			{
 470:../../tmk_core/protocol/lufa/lufa-abcminiuser/LUFA/Drivers/USB/Core/AVR8/../AVR8/../AVR8/Endpoint_AVR8.h **** 				#if !defined(CONTROL_ONLY_DEVICE)
 471:../../tmk_core/protocol/lufa/lufa-abcminiuser/LUFA/Drivers/USB/Core/AVR8/../AVR8/../AVR8/Endpoint_AVR8.h **** 					UEINTX &= ~((1 << RXOUTI) | (1 << FIFOCON));
 472:../../tmk_core/protocol/lufa/lufa-abcminiuser/LUFA/Drivers/USB/Core/AVR8/../AVR8/../AVR8/Endpoint_AVR8.h **** 				#else
 473:../../tmk_core/protocol/lufa/lufa-abcminiuser/LUFA/Drivers/USB/Core/AVR8/../AVR8/../AVR8/Endpoint_AVR8.h **** 					UEINTX &= ~(1 << RXOUTI);
 474:../../tmk_core/protocol/lufa/lufa-abcminiuser/LUFA/Drivers/USB/Core/AVR8/../AVR8/../AVR8/Endpoint_AVR8.h **** 				#endif
 475:../../tmk_core/protocol/lufa/lufa-abcminiuser/LUFA/Drivers/USB/Core/AVR8/../AVR8/../AVR8/Endpoint_AVR8.h **** 			}
 476:../../tmk_core/protocol/lufa/lufa-abcminiuser/LUFA/Drivers/USB/Core/AVR8/../AVR8/../AVR8/Endpoint_AVR8.h **** 
 477:../../tmk_core/protocol/lufa/lufa-abcminiuser/LUFA/Drivers/USB/Core/AVR8/../AVR8/../AVR8/Endpoint_AVR8.h **** 			/** Stalls the current endpoint, indicating to the host that a logical problem occurred with the
 478:../../tmk_core/protocol/lufa/lufa-abcminiuser/LUFA/Drivers/USB/Core/AVR8/../AVR8/../AVR8/Endpoint_AVR8.h **** 			 *  indicated endpoint and that the current transfer sequence should be aborted. This provides a
 479:../../tmk_core/protocol/lufa/lufa-abcminiuser/LUFA/Drivers/USB/Core/AVR8/../AVR8/../AVR8/Endpoint_AVR8.h **** 			 *  way for devices to indicate invalid commands to the host so that the current transfer can be
 480:../../tmk_core/protocol/lufa/lufa-abcminiuser/LUFA/Drivers/USB/Core/AVR8/../AVR8/../AVR8/Endpoint_AVR8.h **** 			 *  aborted and the host can begin its own recovery sequence.
 481:../../tmk_core/protocol/lufa/lufa-abcminiuser/LUFA/Drivers/USB/Core/AVR8/../AVR8/../AVR8/Endpoint_AVR8.h **** 			 *
 482:../../tmk_core/protocol/lufa/lufa-abcminiuser/LUFA/Drivers/USB/Core/AVR8/../AVR8/../AVR8/Endpoint_AVR8.h **** 			 *  The currently selected endpoint remains stalled until either the \ref Endpoint_ClearStall() 
 483:../../tmk_core/protocol/lufa/lufa-abcminiuser/LUFA/Drivers/USB/Core/AVR8/../AVR8/../AVR8/Endpoint_AVR8.h **** 			 *  is called, or the host issues a CLEAR FEATURE request to the device for the currently select
 484:../../tmk_core/protocol/lufa/lufa-abcminiuser/LUFA/Drivers/USB/Core/AVR8/../AVR8/../AVR8/Endpoint_AVR8.h **** 			 *  endpoint.
 485:../../tmk_core/protocol/lufa/lufa-abcminiuser/LUFA/Drivers/USB/Core/AVR8/../AVR8/../AVR8/Endpoint_AVR8.h **** 			 *
 486:../../tmk_core/protocol/lufa/lufa-abcminiuser/LUFA/Drivers/USB/Core/AVR8/../AVR8/../AVR8/Endpoint_AVR8.h **** 			 *  \ingroup Group_EndpointPacketManagement_AVR8
 487:../../tmk_core/protocol/lufa/lufa-abcminiuser/LUFA/Drivers/USB/Core/AVR8/../AVR8/../AVR8/Endpoint_AVR8.h **** 			 */
 488:../../tmk_core/protocol/lufa/lufa-abcminiuser/LUFA/Drivers/USB/Core/AVR8/../AVR8/../AVR8/Endpoint_AVR8.h **** 			static inline void Endpoint_StallTransaction(void) ATTR_ALWAYS_INLINE;
 489:../../tmk_core/protocol/lufa/lufa-abcminiuser/LUFA/Drivers/USB/Core/AVR8/../AVR8/../AVR8/Endpoint_AVR8.h **** 			static inline void Endpoint_StallTransaction(void)
 490:../../tmk_core/protocol/lufa/lufa-abcminiuser/LUFA/Drivers/USB/Core/AVR8/../AVR8/../AVR8/Endpoint_AVR8.h **** 			{
 491:../../tmk_core/protocol/lufa/lufa-abcminiuser/LUFA/Drivers/USB/Core/AVR8/../AVR8/../AVR8/Endpoint_AVR8.h **** 				UECONX |= (1 << STALLRQ);
 492:../../tmk_core/protocol/lufa/lufa-abcminiuser/LUFA/Drivers/USB/Core/AVR8/../AVR8/../AVR8/Endpoint_AVR8.h **** 			}
 493:../../tmk_core/protocol/lufa/lufa-abcminiuser/LUFA/Drivers/USB/Core/AVR8/../AVR8/../AVR8/Endpoint_AVR8.h **** 
 494:../../tmk_core/protocol/lufa/lufa-abcminiuser/LUFA/Drivers/USB/Core/AVR8/../AVR8/../AVR8/Endpoint_AVR8.h **** 			/** Clears the STALL condition on the currently selected endpoint.
 495:../../tmk_core/protocol/lufa/lufa-abcminiuser/LUFA/Drivers/USB/Core/AVR8/../AVR8/../AVR8/Endpoint_AVR8.h **** 			 *
 496:../../tmk_core/protocol/lufa/lufa-abcminiuser/LUFA/Drivers/USB/Core/AVR8/../AVR8/../AVR8/Endpoint_AVR8.h **** 			 *  \ingroup Group_EndpointPacketManagement_AVR8
 497:../../tmk_core/protocol/lufa/lufa-abcminiuser/LUFA/Drivers/USB/Core/AVR8/../AVR8/../AVR8/Endpoint_AVR8.h **** 			 */
 498:../../tmk_core/protocol/lufa/lufa-abcminiuser/LUFA/Drivers/USB/Core/AVR8/../AVR8/../AVR8/Endpoint_AVR8.h **** 			static inline void Endpoint_ClearStall(void) ATTR_ALWAYS_INLINE;
 499:../../tmk_core/protocol/lufa/lufa-abcminiuser/LUFA/Drivers/USB/Core/AVR8/../AVR8/../AVR8/Endpoint_AVR8.h **** 			static inline void Endpoint_ClearStall(void)
 500:../../tmk_core/protocol/lufa/lufa-abcminiuser/LUFA/Drivers/USB/Core/AVR8/../AVR8/../AVR8/Endpoint_AVR8.h **** 			{
 501:../../tmk_core/protocol/lufa/lufa-abcminiuser/LUFA/Drivers/USB/Core/AVR8/../AVR8/../AVR8/Endpoint_AVR8.h **** 				UECONX |= (1 << STALLRQC);
 502:../../tmk_core/protocol/lufa/lufa-abcminiuser/LUFA/Drivers/USB/Core/AVR8/../AVR8/../AVR8/Endpoint_AVR8.h **** 			}
 503:../../tmk_core/protocol/lufa/lufa-abcminiuser/LUFA/Drivers/USB/Core/AVR8/../AVR8/../AVR8/Endpoint_AVR8.h **** 
 504:../../tmk_core/protocol/lufa/lufa-abcminiuser/LUFA/Drivers/USB/Core/AVR8/../AVR8/../AVR8/Endpoint_AVR8.h **** 			/** Determines if the currently selected endpoint is stalled, \c false otherwise.
 505:../../tmk_core/protocol/lufa/lufa-abcminiuser/LUFA/Drivers/USB/Core/AVR8/../AVR8/../AVR8/Endpoint_AVR8.h **** 			 *
 506:../../tmk_core/protocol/lufa/lufa-abcminiuser/LUFA/Drivers/USB/Core/AVR8/../AVR8/../AVR8/Endpoint_AVR8.h **** 			 *  \ingroup Group_EndpointPacketManagement_AVR8
 507:../../tmk_core/protocol/lufa/lufa-abcminiuser/LUFA/Drivers/USB/Core/AVR8/../AVR8/../AVR8/Endpoint_AVR8.h **** 			 *
 508:../../tmk_core/protocol/lufa/lufa-abcminiuser/LUFA/Drivers/USB/Core/AVR8/../AVR8/../AVR8/Endpoint_AVR8.h **** 			 *  \return Boolean \c true if the currently selected endpoint is stalled, \c false otherwise.
 509:../../tmk_core/protocol/lufa/lufa-abcminiuser/LUFA/Drivers/USB/Core/AVR8/../AVR8/../AVR8/Endpoint_AVR8.h **** 			 */
 510:../../tmk_core/protocol/lufa/lufa-abcminiuser/LUFA/Drivers/USB/Core/AVR8/../AVR8/../AVR8/Endpoint_AVR8.h **** 			static inline bool Endpoint_IsStalled(void) ATTR_WARN_UNUSED_RESULT ATTR_ALWAYS_INLINE;
 511:../../tmk_core/protocol/lufa/lufa-abcminiuser/LUFA/Drivers/USB/Core/AVR8/../AVR8/../AVR8/Endpoint_AVR8.h **** 			static inline bool Endpoint_IsStalled(void)
 512:../../tmk_core/protocol/lufa/lufa-abcminiuser/LUFA/Drivers/USB/Core/AVR8/../AVR8/../AVR8/Endpoint_AVR8.h **** 			{
 513:../../tmk_core/protocol/lufa/lufa-abcminiuser/LUFA/Drivers/USB/Core/AVR8/../AVR8/../AVR8/Endpoint_AVR8.h **** 				return ((UECONX & (1 << STALLRQ)) ? true : false);
 514:../../tmk_core/protocol/lufa/lufa-abcminiuser/LUFA/Drivers/USB/Core/AVR8/../AVR8/../AVR8/Endpoint_AVR8.h **** 			}
 515:../../tmk_core/protocol/lufa/lufa-abcminiuser/LUFA/Drivers/USB/Core/AVR8/../AVR8/../AVR8/Endpoint_AVR8.h **** 
 516:../../tmk_core/protocol/lufa/lufa-abcminiuser/LUFA/Drivers/USB/Core/AVR8/../AVR8/../AVR8/Endpoint_AVR8.h **** 			/** Resets the data toggle of the currently selected endpoint. */
 517:../../tmk_core/protocol/lufa/lufa-abcminiuser/LUFA/Drivers/USB/Core/AVR8/../AVR8/../AVR8/Endpoint_AVR8.h **** 			static inline void Endpoint_ResetDataToggle(void) ATTR_ALWAYS_INLINE;
 518:../../tmk_core/protocol/lufa/lufa-abcminiuser/LUFA/Drivers/USB/Core/AVR8/../AVR8/../AVR8/Endpoint_AVR8.h **** 			static inline void Endpoint_ResetDataToggle(void)
 519:../../tmk_core/protocol/lufa/lufa-abcminiuser/LUFA/Drivers/USB/Core/AVR8/../AVR8/../AVR8/Endpoint_AVR8.h **** 			{
 520:../../tmk_core/protocol/lufa/lufa-abcminiuser/LUFA/Drivers/USB/Core/AVR8/../AVR8/../AVR8/Endpoint_AVR8.h **** 				UECONX |= (1 << RSTDT);
 521:../../tmk_core/protocol/lufa/lufa-abcminiuser/LUFA/Drivers/USB/Core/AVR8/../AVR8/../AVR8/Endpoint_AVR8.h **** 			}
 522:../../tmk_core/protocol/lufa/lufa-abcminiuser/LUFA/Drivers/USB/Core/AVR8/../AVR8/../AVR8/Endpoint_AVR8.h **** 
 523:../../tmk_core/protocol/lufa/lufa-abcminiuser/LUFA/Drivers/USB/Core/AVR8/../AVR8/../AVR8/Endpoint_AVR8.h **** 			/** Sets the direction of the currently selected endpoint.
 524:../../tmk_core/protocol/lufa/lufa-abcminiuser/LUFA/Drivers/USB/Core/AVR8/../AVR8/../AVR8/Endpoint_AVR8.h **** 			 *
 525:../../tmk_core/protocol/lufa/lufa-abcminiuser/LUFA/Drivers/USB/Core/AVR8/../AVR8/../AVR8/Endpoint_AVR8.h **** 			 *  \param[in] DirectionMask  New endpoint direction, as a \c ENDPOINT_DIR_* mask.
 526:../../tmk_core/protocol/lufa/lufa-abcminiuser/LUFA/Drivers/USB/Core/AVR8/../AVR8/../AVR8/Endpoint_AVR8.h **** 			 */
 527:../../tmk_core/protocol/lufa/lufa-abcminiuser/LUFA/Drivers/USB/Core/AVR8/../AVR8/../AVR8/Endpoint_AVR8.h **** 			static inline void Endpoint_SetEndpointDirection(const uint8_t DirectionMask) ATTR_ALWAYS_INLINE
 528:../../tmk_core/protocol/lufa/lufa-abcminiuser/LUFA/Drivers/USB/Core/AVR8/../AVR8/../AVR8/Endpoint_AVR8.h **** 			static inline void Endpoint_SetEndpointDirection(const uint8_t DirectionMask)
 529:../../tmk_core/protocol/lufa/lufa-abcminiuser/LUFA/Drivers/USB/Core/AVR8/../AVR8/../AVR8/Endpoint_AVR8.h **** 			{
 530:../../tmk_core/protocol/lufa/lufa-abcminiuser/LUFA/Drivers/USB/Core/AVR8/../AVR8/../AVR8/Endpoint_AVR8.h **** 				UECFG0X = ((UECFG0X & ~(1 << EPDIR)) | (DirectionMask ? (1 << EPDIR) : 0));
 531:../../tmk_core/protocol/lufa/lufa-abcminiuser/LUFA/Drivers/USB/Core/AVR8/../AVR8/../AVR8/Endpoint_AVR8.h **** 			}
 532:../../tmk_core/protocol/lufa/lufa-abcminiuser/LUFA/Drivers/USB/Core/AVR8/../AVR8/../AVR8/Endpoint_AVR8.h **** 
 533:../../tmk_core/protocol/lufa/lufa-abcminiuser/LUFA/Drivers/USB/Core/AVR8/../AVR8/../AVR8/Endpoint_AVR8.h **** 			/** Reads one byte from the currently selected endpoint's bank, for OUT direction endpoints.
 534:../../tmk_core/protocol/lufa/lufa-abcminiuser/LUFA/Drivers/USB/Core/AVR8/../AVR8/../AVR8/Endpoint_AVR8.h **** 			 *
 535:../../tmk_core/protocol/lufa/lufa-abcminiuser/LUFA/Drivers/USB/Core/AVR8/../AVR8/../AVR8/Endpoint_AVR8.h **** 			 *  \ingroup Group_EndpointPrimitiveRW_AVR8
 536:../../tmk_core/protocol/lufa/lufa-abcminiuser/LUFA/Drivers/USB/Core/AVR8/../AVR8/../AVR8/Endpoint_AVR8.h **** 			 *
 537:../../tmk_core/protocol/lufa/lufa-abcminiuser/LUFA/Drivers/USB/Core/AVR8/../AVR8/../AVR8/Endpoint_AVR8.h **** 			 *  \return Next byte in the currently selected endpoint's FIFO buffer.
 538:../../tmk_core/protocol/lufa/lufa-abcminiuser/LUFA/Drivers/USB/Core/AVR8/../AVR8/../AVR8/Endpoint_AVR8.h **** 			 */
 539:../../tmk_core/protocol/lufa/lufa-abcminiuser/LUFA/Drivers/USB/Core/AVR8/../AVR8/../AVR8/Endpoint_AVR8.h **** 			static inline uint8_t Endpoint_Read_8(void) ATTR_WARN_UNUSED_RESULT ATTR_ALWAYS_INLINE;
 540:../../tmk_core/protocol/lufa/lufa-abcminiuser/LUFA/Drivers/USB/Core/AVR8/../AVR8/../AVR8/Endpoint_AVR8.h **** 			static inline uint8_t Endpoint_Read_8(void)
 541:../../tmk_core/protocol/lufa/lufa-abcminiuser/LUFA/Drivers/USB/Core/AVR8/../AVR8/../AVR8/Endpoint_AVR8.h **** 			{
 542:../../tmk_core/protocol/lufa/lufa-abcminiuser/LUFA/Drivers/USB/Core/AVR8/../AVR8/../AVR8/Endpoint_AVR8.h **** 				return UEDATX;
 543:../../tmk_core/protocol/lufa/lufa-abcminiuser/LUFA/Drivers/USB/Core/AVR8/../AVR8/../AVR8/Endpoint_AVR8.h **** 			}
 544:../../tmk_core/protocol/lufa/lufa-abcminiuser/LUFA/Drivers/USB/Core/AVR8/../AVR8/../AVR8/Endpoint_AVR8.h **** 
 545:../../tmk_core/protocol/lufa/lufa-abcminiuser/LUFA/Drivers/USB/Core/AVR8/../AVR8/../AVR8/Endpoint_AVR8.h **** 			/** Writes one byte to the currently selected endpoint's bank, for IN direction endpoints.
 546:../../tmk_core/protocol/lufa/lufa-abcminiuser/LUFA/Drivers/USB/Core/AVR8/../AVR8/../AVR8/Endpoint_AVR8.h **** 			 *
 547:../../tmk_core/protocol/lufa/lufa-abcminiuser/LUFA/Drivers/USB/Core/AVR8/../AVR8/../AVR8/Endpoint_AVR8.h **** 			 *  \ingroup Group_EndpointPrimitiveRW_AVR8
 548:../../tmk_core/protocol/lufa/lufa-abcminiuser/LUFA/Drivers/USB/Core/AVR8/../AVR8/../AVR8/Endpoint_AVR8.h **** 			 *
 549:../../tmk_core/protocol/lufa/lufa-abcminiuser/LUFA/Drivers/USB/Core/AVR8/../AVR8/../AVR8/Endpoint_AVR8.h **** 			 *  \param[in] Data  Data to write into the the currently selected endpoint's FIFO buffer.
 550:../../tmk_core/protocol/lufa/lufa-abcminiuser/LUFA/Drivers/USB/Core/AVR8/../AVR8/../AVR8/Endpoint_AVR8.h **** 			 */
 551:../../tmk_core/protocol/lufa/lufa-abcminiuser/LUFA/Drivers/USB/Core/AVR8/../AVR8/../AVR8/Endpoint_AVR8.h **** 			static inline void Endpoint_Write_8(const uint8_t Data) ATTR_ALWAYS_INLINE;
 552:../../tmk_core/protocol/lufa/lufa-abcminiuser/LUFA/Drivers/USB/Core/AVR8/../AVR8/../AVR8/Endpoint_AVR8.h **** 			static inline void Endpoint_Write_8(const uint8_t Data)
 553:../../tmk_core/protocol/lufa/lufa-abcminiuser/LUFA/Drivers/USB/Core/AVR8/../AVR8/../AVR8/Endpoint_AVR8.h **** 			{
 554:../../tmk_core/protocol/lufa/lufa-abcminiuser/LUFA/Drivers/USB/Core/AVR8/../AVR8/../AVR8/Endpoint_AVR8.h **** 				UEDATX = Data;
 555:../../tmk_core/protocol/lufa/lufa-abcminiuser/LUFA/Drivers/USB/Core/AVR8/../AVR8/../AVR8/Endpoint_AVR8.h **** 			}
 556:../../tmk_core/protocol/lufa/lufa-abcminiuser/LUFA/Drivers/USB/Core/AVR8/../AVR8/../AVR8/Endpoint_AVR8.h **** 
 557:../../tmk_core/protocol/lufa/lufa-abcminiuser/LUFA/Drivers/USB/Core/AVR8/../AVR8/../AVR8/Endpoint_AVR8.h **** 			/** Discards one byte from the currently selected endpoint's bank, for OUT direction endpoints.
 558:../../tmk_core/protocol/lufa/lufa-abcminiuser/LUFA/Drivers/USB/Core/AVR8/../AVR8/../AVR8/Endpoint_AVR8.h **** 			 *
 559:../../tmk_core/protocol/lufa/lufa-abcminiuser/LUFA/Drivers/USB/Core/AVR8/../AVR8/../AVR8/Endpoint_AVR8.h **** 			 *  \ingroup Group_EndpointPrimitiveRW_AVR8
 560:../../tmk_core/protocol/lufa/lufa-abcminiuser/LUFA/Drivers/USB/Core/AVR8/../AVR8/../AVR8/Endpoint_AVR8.h **** 			 */
 561:../../tmk_core/protocol/lufa/lufa-abcminiuser/LUFA/Drivers/USB/Core/AVR8/../AVR8/../AVR8/Endpoint_AVR8.h **** 			static inline void Endpoint_Discard_8(void) ATTR_ALWAYS_INLINE;
 562:../../tmk_core/protocol/lufa/lufa-abcminiuser/LUFA/Drivers/USB/Core/AVR8/../AVR8/../AVR8/Endpoint_AVR8.h **** 			static inline void Endpoint_Discard_8(void)
 115               		.loc 2 562 23 view .LVU19
 116               	.LBB269:
 563:../../tmk_core/protocol/lufa/lufa-abcminiuser/LUFA/Drivers/USB/Core/AVR8/../AVR8/../AVR8/Endpoint_AVR8.h **** 			{
 564:../../tmk_core/protocol/lufa/lufa-abcminiuser/LUFA/Drivers/USB/Core/AVR8/../AVR8/../AVR8/Endpoint_AVR8.h **** 				uint8_t Dummy;
 117               		.loc 2 564 5 view .LVU20
 565:../../tmk_core/protocol/lufa/lufa-abcminiuser/LUFA/Drivers/USB/Core/AVR8/../AVR8/../AVR8/Endpoint_AVR8.h **** 
 566:../../tmk_core/protocol/lufa/lufa-abcminiuser/LUFA/Drivers/USB/Core/AVR8/../AVR8/../AVR8/Endpoint_AVR8.h **** 				Dummy = UEDATX;
 118               		.loc 2 566 5 view .LVU21
 119               		.loc 2 566 11 is_stmt 0 view .LVU22
 120 004a 8091 F100 		lds r24,241
 567:../../tmk_core/protocol/lufa/lufa-abcminiuser/LUFA/Drivers/USB/Core/AVR8/../AVR8/../AVR8/Endpoint_AVR8.h **** 
 568:../../tmk_core/protocol/lufa/lufa-abcminiuser/LUFA/Drivers/USB/Core/AVR8/../AVR8/../AVR8/Endpoint_AVR8.h **** 				(void)Dummy;
 121               		.loc 2 568 5 is_stmt 1 view .LVU23
 122               	.LBE269:
 123               	.LBE268:
  69:../../tmk_core/protocol/lufa/lufa-abcminiuser/LUFA/Drivers/USB/Core/AVR8/EndpointStream_AVR8.c **** 		}
 124               		.loc 1 69 4 view .LVU24
  69:../../tmk_core/protocol/lufa/lufa-abcminiuser/LUFA/Drivers/USB/Core/AVR8/EndpointStream_AVR8.c **** 		}
 125               		.loc 1 69 19 is_stmt 0 view .LVU25
 126 004e 2196      		adiw r28,1
 127               	.LVL11:
 128               	.L4:
  51:../../tmk_core/protocol/lufa/lufa-abcminiuser/LUFA/Drivers/USB/Core/AVR8/EndpointStream_AVR8.c **** 	{
 129               		.loc 1 51 8 view .LVU26
 130 0050 CC15      		cp r28,r12
 131 0052 DD05      		cpc r29,r13
 132 0054 00F4      		brsh .L1
  53:../../tmk_core/protocol/lufa/lufa-abcminiuser/LUFA/Drivers/USB/Core/AVR8/EndpointStream_AVR8.c **** 		{
 133               		.loc 1 53 3 is_stmt 1 view .LVU27
 134               	.LBB270:
 135               	.LBI270:
 358:../../tmk_core/protocol/lufa/lufa-abcminiuser/LUFA/Drivers/USB/Core/AVR8/../AVR8/../AVR8/Endpoint_AVR8.h **** 			{
 136               		.loc 2 358 23 view .LVU28
 137               	.LBB271:
 360:../../tmk_core/protocol/lufa/lufa-abcminiuser/LUFA/Drivers/USB/Core/AVR8/../AVR8/../AVR8/Endpoint_AVR8.h **** 			}
 138               		.loc 2 360 5 view .LVU29
 360:../../tmk_core/protocol/lufa/lufa-abcminiuser/LUFA/Drivers/USB/Core/AVR8/../AVR8/../AVR8/Endpoint_AVR8.h **** 			}
 139               		.loc 2 360 14 is_stmt 0 view .LVU30
 140 0056 8091 E800 		lds r24,232
 141               	.LBE271:
 142               	.LBE270:
  53:../../tmk_core/protocol/lufa/lufa-abcminiuser/LUFA/Drivers/USB/Core/AVR8/EndpointStream_AVR8.c **** 		{
 143               		.loc 1 53 6 view .LVU31
 144 005a 85FD      		sbrc r24,5
 145 005c 00C0      		rjmp .L5
  55:../../tmk_core/protocol/lufa/lufa-abcminiuser/LUFA/Drivers/USB/Core/AVR8/EndpointStream_AVR8.c **** 
 146               		.loc 1 55 4 is_stmt 1 view .LVU32
 147               	.LBB272:
 148               	.LBI272:
 468:../../tmk_core/protocol/lufa/lufa-abcminiuser/LUFA/Drivers/USB/Core/AVR8/../AVR8/../AVR8/Endpoint_AVR8.h **** 			{
 149               		.loc 2 468 23 view .LVU33
 150               	.LBB273:
 471:../../tmk_core/protocol/lufa/lufa-abcminiuser/LUFA/Drivers/USB/Core/AVR8/../AVR8/../AVR8/Endpoint_AVR8.h **** 				#else
 151               		.loc 2 471 6 view .LVU34
 471:../../tmk_core/protocol/lufa/lufa-abcminiuser/LUFA/Drivers/USB/Core/AVR8/../AVR8/../AVR8/Endpoint_AVR8.h **** 				#else
 152               		.loc 2 471 13 is_stmt 0 view .LVU35
 153 005e 8091 E800 		lds r24,232
 154 0062 8B77      		andi r24,lo8(123)
 155 0064 8093 E800 		sts 232,r24
 156               	.LBE273:
 157               	.LBE272:
  57:../../tmk_core/protocol/lufa/lufa-abcminiuser/LUFA/Drivers/USB/Core/AVR8/EndpointStream_AVR8.c **** 			{
 158               		.loc 1 57 4 is_stmt 1 view .LVU36
  57:../../tmk_core/protocol/lufa/lufa-abcminiuser/LUFA/Drivers/USB/Core/AVR8/EndpointStream_AVR8.c **** 			{
 159               		.loc 1 57 7 is_stmt 0 view .LVU37
 160 0068 E114      		cp r14,__zero_reg__
 161 006a F104      		cpc r15,__zero_reg__
 162 006c 01F0      		breq .L6
  59:../../tmk_core/protocol/lufa/lufa-abcminiuser/LUFA/Drivers/USB/Core/AVR8/EndpointStream_AVR8.c **** 				return ENDPOINT_RWSTREAM_IncompleteTransfer;
 163               		.loc 1 59 5 is_stmt 1 view .LVU38
  59:../../tmk_core/protocol/lufa/lufa-abcminiuser/LUFA/Drivers/USB/Core/AVR8/EndpointStream_AVR8.c **** 				return ENDPOINT_RWSTREAM_IncompleteTransfer;
 164               		.loc 1 59 21 is_stmt 0 view .LVU39
 165 006e F701      		movw r30,r14
 166 0070 D183      		std Z+1,r29
 167 0072 C083      		st Z,r28
  60:../../tmk_core/protocol/lufa/lufa-abcminiuser/LUFA/Drivers/USB/Core/AVR8/EndpointStream_AVR8.c **** 			}
 168               		.loc 1 60 5 is_stmt 1 view .LVU40
  60:../../tmk_core/protocol/lufa/lufa-abcminiuser/LUFA/Drivers/USB/Core/AVR8/EndpointStream_AVR8.c **** 			}
 169               		.loc 1 60 12 is_stmt 0 view .LVU41
 170 0074 15E0      		ldi r17,lo8(5)
 171 0076 00C0      		rjmp .L1
 172               		.cfi_endproc
 173               	.LFE85:
 175               		.section	.text.Endpoint_Null_Stream,"ax",@progbits
 176               	.global	Endpoint_Null_Stream
 178               	Endpoint_Null_Stream:
 179               	.LVL12:
 180               	.LFB86:
  75:../../tmk_core/protocol/lufa/lufa-abcminiuser/LUFA/Drivers/USB/Core/AVR8/EndpointStream_AVR8.c **** 
  76:../../tmk_core/protocol/lufa/lufa-abcminiuser/LUFA/Drivers/USB/Core/AVR8/EndpointStream_AVR8.c **** uint8_t Endpoint_Null_Stream(uint16_t Length,
  77:../../tmk_core/protocol/lufa/lufa-abcminiuser/LUFA/Drivers/USB/Core/AVR8/EndpointStream_AVR8.c ****                              uint16_t* const BytesProcessed)
  78:../../tmk_core/protocol/lufa/lufa-abcminiuser/LUFA/Drivers/USB/Core/AVR8/EndpointStream_AVR8.c **** {
 181               		.loc 1 78 1 is_stmt 1 view -0
 182               		.cfi_startproc
 183               		.loc 1 78 1 is_stmt 0 view .LVU43
 184 0000 CF92      		push r12
 185               	.LCFI7:
 186               		.cfi_def_cfa_offset 3
 187               		.cfi_offset 12, -2
 188 0002 DF92      		push r13
 189               	.LCFI8:
 190               		.cfi_def_cfa_offset 4
 191               		.cfi_offset 13, -3
 192 0004 EF92      		push r14
 193               	.LCFI9:
 194               		.cfi_def_cfa_offset 5
 195               		.cfi_offset 14, -4
 196 0006 FF92      		push r15
 197               	.LCFI10:
 198               		.cfi_def_cfa_offset 6
 199               		.cfi_offset 15, -5
 200 0008 1F93      		push r17
 201               	.LCFI11:
 202               		.cfi_def_cfa_offset 7
 203               		.cfi_offset 17, -6
 204 000a CF93      		push r28
 205               	.LCFI12:
 206               		.cfi_def_cfa_offset 8
 207               		.cfi_offset 28, -7
 208 000c DF93      		push r29
 209               	.LCFI13:
 210               		.cfi_def_cfa_offset 9
 211               		.cfi_offset 29, -8
 212               	/* prologue: function */
 213               	/* frame size = 0 */
 214               	/* stack size = 7 */
 215               	.L__stack_usage = 7
 216 000e 6C01      		movw r12,r24
 217 0010 7B01      		movw r14,r22
  79:../../tmk_core/protocol/lufa/lufa-abcminiuser/LUFA/Drivers/USB/Core/AVR8/EndpointStream_AVR8.c **** 	uint8_t  ErrorCode;
 218               		.loc 1 79 2 is_stmt 1 view .LVU44
  80:../../tmk_core/protocol/lufa/lufa-abcminiuser/LUFA/Drivers/USB/Core/AVR8/EndpointStream_AVR8.c **** 	uint16_t BytesInTransfer = BytesProcessed ? *BytesProcessed : 0;
 219               		.loc 1 80 2 view .LVU45
 220               		.loc 1 80 62 is_stmt 0 view .LVU46
 221 0012 D0E0      		ldi r29,0
 222 0014 C0E0      		ldi r28,0
 223 0016 6115      		cp r22,__zero_reg__
 224 0018 7105      		cpc r23,__zero_reg__
 225 001a 01F0      		breq .L12
 226               		.loc 1 80 62 discriminator 1 view .LVU47
 227 001c FB01      		movw r30,r22
 228 001e C081      		ld r28,Z
 229 0020 D181      		ldd r29,Z+1
 230               	.LVL13:
 231               	.L12:
  81:../../tmk_core/protocol/lufa/lufa-abcminiuser/LUFA/Drivers/USB/Core/AVR8/EndpointStream_AVR8.c **** 
  82:../../tmk_core/protocol/lufa/lufa-abcminiuser/LUFA/Drivers/USB/Core/AVR8/EndpointStream_AVR8.c **** 	if ((ErrorCode = Endpoint_WaitUntilReady()))
 232               		.loc 1 82 2 is_stmt 1 discriminator 4 view .LVU48
 233               		.loc 1 82 19 is_stmt 0 discriminator 4 view .LVU49
 234 0022 0E94 0000 		call Endpoint_WaitUntilReady
 235               	.LVL14:
 236               		.loc 1 82 19 discriminator 4 view .LVU50
 237 0026 182F      		mov r17,r24
 238               	.LVL15:
 239               		.loc 1 82 5 discriminator 4 view .LVU51
 240 0028 8823      		tst r24
 241 002a 01F0      		breq .L14
 242               	.LVL16:
 243               	.L11:
  83:../../tmk_core/protocol/lufa/lufa-abcminiuser/LUFA/Drivers/USB/Core/AVR8/EndpointStream_AVR8.c **** 	  return ErrorCode;
  84:../../tmk_core/protocol/lufa/lufa-abcminiuser/LUFA/Drivers/USB/Core/AVR8/EndpointStream_AVR8.c **** 
  85:../../tmk_core/protocol/lufa/lufa-abcminiuser/LUFA/Drivers/USB/Core/AVR8/EndpointStream_AVR8.c **** 	while (BytesInTransfer < Length)
  86:../../tmk_core/protocol/lufa/lufa-abcminiuser/LUFA/Drivers/USB/Core/AVR8/EndpointStream_AVR8.c **** 	{
  87:../../tmk_core/protocol/lufa/lufa-abcminiuser/LUFA/Drivers/USB/Core/AVR8/EndpointStream_AVR8.c **** 		if (!(Endpoint_IsReadWriteAllowed()))
  88:../../tmk_core/protocol/lufa/lufa-abcminiuser/LUFA/Drivers/USB/Core/AVR8/EndpointStream_AVR8.c **** 		{
  89:../../tmk_core/protocol/lufa/lufa-abcminiuser/LUFA/Drivers/USB/Core/AVR8/EndpointStream_AVR8.c **** 			Endpoint_ClearIN();
  90:../../tmk_core/protocol/lufa/lufa-abcminiuser/LUFA/Drivers/USB/Core/AVR8/EndpointStream_AVR8.c **** 
  91:../../tmk_core/protocol/lufa/lufa-abcminiuser/LUFA/Drivers/USB/Core/AVR8/EndpointStream_AVR8.c **** 			if (BytesProcessed != NULL)
  92:../../tmk_core/protocol/lufa/lufa-abcminiuser/LUFA/Drivers/USB/Core/AVR8/EndpointStream_AVR8.c **** 			{
  93:../../tmk_core/protocol/lufa/lufa-abcminiuser/LUFA/Drivers/USB/Core/AVR8/EndpointStream_AVR8.c **** 				*BytesProcessed = BytesInTransfer;
  94:../../tmk_core/protocol/lufa/lufa-abcminiuser/LUFA/Drivers/USB/Core/AVR8/EndpointStream_AVR8.c **** 				return ENDPOINT_RWSTREAM_IncompleteTransfer;
  95:../../tmk_core/protocol/lufa/lufa-abcminiuser/LUFA/Drivers/USB/Core/AVR8/EndpointStream_AVR8.c **** 			}
  96:../../tmk_core/protocol/lufa/lufa-abcminiuser/LUFA/Drivers/USB/Core/AVR8/EndpointStream_AVR8.c **** 
  97:../../tmk_core/protocol/lufa/lufa-abcminiuser/LUFA/Drivers/USB/Core/AVR8/EndpointStream_AVR8.c **** 			if ((ErrorCode = Endpoint_WaitUntilReady()))
  98:../../tmk_core/protocol/lufa/lufa-abcminiuser/LUFA/Drivers/USB/Core/AVR8/EndpointStream_AVR8.c **** 			  return ErrorCode;
  99:../../tmk_core/protocol/lufa/lufa-abcminiuser/LUFA/Drivers/USB/Core/AVR8/EndpointStream_AVR8.c **** 		}
 100:../../tmk_core/protocol/lufa/lufa-abcminiuser/LUFA/Drivers/USB/Core/AVR8/EndpointStream_AVR8.c **** 		else
 101:../../tmk_core/protocol/lufa/lufa-abcminiuser/LUFA/Drivers/USB/Core/AVR8/EndpointStream_AVR8.c **** 		{
 102:../../tmk_core/protocol/lufa/lufa-abcminiuser/LUFA/Drivers/USB/Core/AVR8/EndpointStream_AVR8.c **** 			Endpoint_Write_8(0);
 103:../../tmk_core/protocol/lufa/lufa-abcminiuser/LUFA/Drivers/USB/Core/AVR8/EndpointStream_AVR8.c **** 			BytesInTransfer++;
 104:../../tmk_core/protocol/lufa/lufa-abcminiuser/LUFA/Drivers/USB/Core/AVR8/EndpointStream_AVR8.c **** 		}
 105:../../tmk_core/protocol/lufa/lufa-abcminiuser/LUFA/Drivers/USB/Core/AVR8/EndpointStream_AVR8.c **** 	}
 106:../../tmk_core/protocol/lufa/lufa-abcminiuser/LUFA/Drivers/USB/Core/AVR8/EndpointStream_AVR8.c **** 
 107:../../tmk_core/protocol/lufa/lufa-abcminiuser/LUFA/Drivers/USB/Core/AVR8/EndpointStream_AVR8.c **** 	return ENDPOINT_RWSTREAM_NoError;
 108:../../tmk_core/protocol/lufa/lufa-abcminiuser/LUFA/Drivers/USB/Core/AVR8/EndpointStream_AVR8.c **** }
 244               		.loc 1 108 1 view .LVU52
 245 002c 812F      		mov r24,r17
 246               	/* epilogue start */
 247 002e DF91      		pop r29
 248 0030 CF91      		pop r28
 249               	.LVL17:
 250               		.loc 1 108 1 view .LVU53
 251 0032 1F91      		pop r17
 252 0034 FF90      		pop r15
 253 0036 EF90      		pop r14
 254               	.LVL18:
 255               		.loc 1 108 1 view .LVU54
 256 0038 DF90      		pop r13
 257 003a CF90      		pop r12
 258               	.LVL19:
 259               		.loc 1 108 1 view .LVU55
 260 003c 0895      		ret
 261               	.LVL20:
 262               	.L16:
  97:../../tmk_core/protocol/lufa/lufa-abcminiuser/LUFA/Drivers/USB/Core/AVR8/EndpointStream_AVR8.c **** 			  return ErrorCode;
 263               		.loc 1 97 4 is_stmt 1 view .LVU56
  97:../../tmk_core/protocol/lufa/lufa-abcminiuser/LUFA/Drivers/USB/Core/AVR8/EndpointStream_AVR8.c **** 			  return ErrorCode;
 264               		.loc 1 97 21 is_stmt 0 view .LVU57
 265 003e 0E94 0000 		call Endpoint_WaitUntilReady
 266               	.LVL21:
  97:../../tmk_core/protocol/lufa/lufa-abcminiuser/LUFA/Drivers/USB/Core/AVR8/EndpointStream_AVR8.c **** 			  return ErrorCode;
 267               		.loc 1 97 7 view .LVU58
 268 0042 8823      		tst r24
 269 0044 01F0      		breq .L14
  97:../../tmk_core/protocol/lufa/lufa-abcminiuser/LUFA/Drivers/USB/Core/AVR8/EndpointStream_AVR8.c **** 			  return ErrorCode;
 270               		.loc 1 97 21 view .LVU59
 271 0046 182F      		mov r17,r24
 272 0048 00C0      		rjmp .L11
 273               	.LVL22:
 274               	.L15:
 102:../../tmk_core/protocol/lufa/lufa-abcminiuser/LUFA/Drivers/USB/Core/AVR8/EndpointStream_AVR8.c **** 			BytesInTransfer++;
 275               		.loc 1 102 4 is_stmt 1 view .LVU60
 276               	.LBB274:
 277               	.LBI274:
 552:../../tmk_core/protocol/lufa/lufa-abcminiuser/LUFA/Drivers/USB/Core/AVR8/../AVR8/../AVR8/Endpoint_AVR8.h **** 			{
 278               		.loc 2 552 23 view .LVU61
 279               	.LBB275:
 554:../../tmk_core/protocol/lufa/lufa-abcminiuser/LUFA/Drivers/USB/Core/AVR8/../AVR8/../AVR8/Endpoint_AVR8.h **** 			}
 280               		.loc 2 554 5 view .LVU62
 554:../../tmk_core/protocol/lufa/lufa-abcminiuser/LUFA/Drivers/USB/Core/AVR8/../AVR8/../AVR8/Endpoint_AVR8.h **** 			}
 281               		.loc 2 554 12 is_stmt 0 view .LVU63
 282 004a 1092 F100 		sts 241,__zero_reg__
 283               	.LVL23:
 554:../../tmk_core/protocol/lufa/lufa-abcminiuser/LUFA/Drivers/USB/Core/AVR8/../AVR8/../AVR8/Endpoint_AVR8.h **** 			}
 284               		.loc 2 554 12 view .LVU64
 285               	.LBE275:
 286               	.LBE274:
 103:../../tmk_core/protocol/lufa/lufa-abcminiuser/LUFA/Drivers/USB/Core/AVR8/EndpointStream_AVR8.c **** 		}
 287               		.loc 1 103 4 is_stmt 1 view .LVU65
 103:../../tmk_core/protocol/lufa/lufa-abcminiuser/LUFA/Drivers/USB/Core/AVR8/EndpointStream_AVR8.c **** 		}
 288               		.loc 1 103 19 is_stmt 0 view .LVU66
 289 004e 2196      		adiw r28,1
 290               	.LVL24:
 291               	.L14:
  85:../../tmk_core/protocol/lufa/lufa-abcminiuser/LUFA/Drivers/USB/Core/AVR8/EndpointStream_AVR8.c **** 	{
 292               		.loc 1 85 8 view .LVU67
 293 0050 CC15      		cp r28,r12
 294 0052 DD05      		cpc r29,r13
 295 0054 00F4      		brsh .L11
  87:../../tmk_core/protocol/lufa/lufa-abcminiuser/LUFA/Drivers/USB/Core/AVR8/EndpointStream_AVR8.c **** 		{
 296               		.loc 1 87 3 is_stmt 1 view .LVU68
 297               	.LBB276:
 298               	.LBI276:
 358:../../tmk_core/protocol/lufa/lufa-abcminiuser/LUFA/Drivers/USB/Core/AVR8/../AVR8/../AVR8/Endpoint_AVR8.h **** 			{
 299               		.loc 2 358 23 view .LVU69
 300               	.LBB277:
 360:../../tmk_core/protocol/lufa/lufa-abcminiuser/LUFA/Drivers/USB/Core/AVR8/../AVR8/../AVR8/Endpoint_AVR8.h **** 			}
 301               		.loc 2 360 5 view .LVU70
 360:../../tmk_core/protocol/lufa/lufa-abcminiuser/LUFA/Drivers/USB/Core/AVR8/../AVR8/../AVR8/Endpoint_AVR8.h **** 			}
 302               		.loc 2 360 14 is_stmt 0 view .LVU71
 303 0056 8091 E800 		lds r24,232
 304               	.LBE277:
 305               	.LBE276:
  87:../../tmk_core/protocol/lufa/lufa-abcminiuser/LUFA/Drivers/USB/Core/AVR8/EndpointStream_AVR8.c **** 		{
 306               		.loc 1 87 6 view .LVU72
 307 005a 85FD      		sbrc r24,5
 308 005c 00C0      		rjmp .L15
  89:../../tmk_core/protocol/lufa/lufa-abcminiuser/LUFA/Drivers/USB/Core/AVR8/EndpointStream_AVR8.c **** 
 309               		.loc 1 89 4 is_stmt 1 view .LVU73
 310               	.LBB278:
 311               	.LBI278:
 453:../../tmk_core/protocol/lufa/lufa-abcminiuser/LUFA/Drivers/USB/Core/AVR8/../AVR8/../AVR8/Endpoint_AVR8.h **** 			{
 312               		.loc 2 453 23 view .LVU74
 313               	.LBB279:
 456:../../tmk_core/protocol/lufa/lufa-abcminiuser/LUFA/Drivers/USB/Core/AVR8/../AVR8/../AVR8/Endpoint_AVR8.h **** 				#else
 314               		.loc 2 456 6 view .LVU75
 456:../../tmk_core/protocol/lufa/lufa-abcminiuser/LUFA/Drivers/USB/Core/AVR8/../AVR8/../AVR8/Endpoint_AVR8.h **** 				#else
 315               		.loc 2 456 13 is_stmt 0 view .LVU76
 316 005e 8091 E800 		lds r24,232
 317 0062 8E77      		andi r24,lo8(126)
 318 0064 8093 E800 		sts 232,r24
 319               	.LBE279:
 320               	.LBE278:
  91:../../tmk_core/protocol/lufa/lufa-abcminiuser/LUFA/Drivers/USB/Core/AVR8/EndpointStream_AVR8.c **** 			{
 321               		.loc 1 91 4 is_stmt 1 view .LVU77
  91:../../tmk_core/protocol/lufa/lufa-abcminiuser/LUFA/Drivers/USB/Core/AVR8/EndpointStream_AVR8.c **** 			{
 322               		.loc 1 91 7 is_stmt 0 view .LVU78
 323 0068 E114      		cp r14,__zero_reg__
 324 006a F104      		cpc r15,__zero_reg__
 325 006c 01F0      		breq .L16
  93:../../tmk_core/protocol/lufa/lufa-abcminiuser/LUFA/Drivers/USB/Core/AVR8/EndpointStream_AVR8.c **** 				return ENDPOINT_RWSTREAM_IncompleteTransfer;
 326               		.loc 1 93 5 is_stmt 1 view .LVU79
  93:../../tmk_core/protocol/lufa/lufa-abcminiuser/LUFA/Drivers/USB/Core/AVR8/EndpointStream_AVR8.c **** 				return ENDPOINT_RWSTREAM_IncompleteTransfer;
 327               		.loc 1 93 21 is_stmt 0 view .LVU80
 328 006e F701      		movw r30,r14
 329 0070 D183      		std Z+1,r29
 330 0072 C083      		st Z,r28
  94:../../tmk_core/protocol/lufa/lufa-abcminiuser/LUFA/Drivers/USB/Core/AVR8/EndpointStream_AVR8.c **** 			}
 331               		.loc 1 94 5 is_stmt 1 view .LVU81
  94:../../tmk_core/protocol/lufa/lufa-abcminiuser/LUFA/Drivers/USB/Core/AVR8/EndpointStream_AVR8.c **** 			}
 332               		.loc 1 94 12 is_stmt 0 view .LVU82
 333 0074 15E0      		ldi r17,lo8(5)
 334 0076 00C0      		rjmp .L11
 335               		.cfi_endproc
 336               	.LFE86:
 338               		.section	.text.Endpoint_Write_Stream_LE,"ax",@progbits
 339               	.global	Endpoint_Write_Stream_LE
 341               	Endpoint_Write_Stream_LE:
 342               	.LVL25:
 343               	.LFB87:
 344               		.file 3 "../../tmk_core/protocol/lufa/lufa-abcminiuser/LUFA/Drivers/USB/Core/AVR8/Template/Templat
   1:../../tmk_core/protocol/lufa/lufa-abcminiuser/LUFA/Drivers/USB/Core/AVR8/Template/Template_Endpoint_RW.c **** /*
   2:../../tmk_core/protocol/lufa/lufa-abcminiuser/LUFA/Drivers/USB/Core/AVR8/Template/Template_Endpoint_RW.c ****              LUFA Library
   3:../../tmk_core/protocol/lufa/lufa-abcminiuser/LUFA/Drivers/USB/Core/AVR8/Template/Template_Endpoint_RW.c ****      Copyright (C) Dean Camera, 2019.
   4:../../tmk_core/protocol/lufa/lufa-abcminiuser/LUFA/Drivers/USB/Core/AVR8/Template/Template_Endpoint_RW.c **** 
   5:../../tmk_core/protocol/lufa/lufa-abcminiuser/LUFA/Drivers/USB/Core/AVR8/Template/Template_Endpoint_RW.c ****   dean [at] fourwalledcubicle [dot] com
   6:../../tmk_core/protocol/lufa/lufa-abcminiuser/LUFA/Drivers/USB/Core/AVR8/Template/Template_Endpoint_RW.c ****            www.lufa-lib.org
   7:../../tmk_core/protocol/lufa/lufa-abcminiuser/LUFA/Drivers/USB/Core/AVR8/Template/Template_Endpoint_RW.c **** */
   8:../../tmk_core/protocol/lufa/lufa-abcminiuser/LUFA/Drivers/USB/Core/AVR8/Template/Template_Endpoint_RW.c **** 
   9:../../tmk_core/protocol/lufa/lufa-abcminiuser/LUFA/Drivers/USB/Core/AVR8/Template/Template_Endpoint_RW.c **** /*
  10:../../tmk_core/protocol/lufa/lufa-abcminiuser/LUFA/Drivers/USB/Core/AVR8/Template/Template_Endpoint_RW.c ****   Copyright 2019  Dean Camera (dean [at] fourwalledcubicle [dot] com)
  11:../../tmk_core/protocol/lufa/lufa-abcminiuser/LUFA/Drivers/USB/Core/AVR8/Template/Template_Endpoint_RW.c **** 
  12:../../tmk_core/protocol/lufa/lufa-abcminiuser/LUFA/Drivers/USB/Core/AVR8/Template/Template_Endpoint_RW.c ****   Permission to use, copy, modify, distribute, and sell this
  13:../../tmk_core/protocol/lufa/lufa-abcminiuser/LUFA/Drivers/USB/Core/AVR8/Template/Template_Endpoint_RW.c ****   software and its documentation for any purpose is hereby granted
  14:../../tmk_core/protocol/lufa/lufa-abcminiuser/LUFA/Drivers/USB/Core/AVR8/Template/Template_Endpoint_RW.c ****   without fee, provided that the above copyright notice appear in
  15:../../tmk_core/protocol/lufa/lufa-abcminiuser/LUFA/Drivers/USB/Core/AVR8/Template/Template_Endpoint_RW.c ****   all copies and that both that the copyright notice and this
  16:../../tmk_core/protocol/lufa/lufa-abcminiuser/LUFA/Drivers/USB/Core/AVR8/Template/Template_Endpoint_RW.c ****   permission notice and warranty disclaimer appear in supporting
  17:../../tmk_core/protocol/lufa/lufa-abcminiuser/LUFA/Drivers/USB/Core/AVR8/Template/Template_Endpoint_RW.c ****   documentation, and that the name of the author not be used in
  18:../../tmk_core/protocol/lufa/lufa-abcminiuser/LUFA/Drivers/USB/Core/AVR8/Template/Template_Endpoint_RW.c ****   advertising or publicity pertaining to distribution of the
  19:../../tmk_core/protocol/lufa/lufa-abcminiuser/LUFA/Drivers/USB/Core/AVR8/Template/Template_Endpoint_RW.c ****   software without specific, written prior permission.
  20:../../tmk_core/protocol/lufa/lufa-abcminiuser/LUFA/Drivers/USB/Core/AVR8/Template/Template_Endpoint_RW.c **** 
  21:../../tmk_core/protocol/lufa/lufa-abcminiuser/LUFA/Drivers/USB/Core/AVR8/Template/Template_Endpoint_RW.c ****   The author disclaims all warranties with regard to this
  22:../../tmk_core/protocol/lufa/lufa-abcminiuser/LUFA/Drivers/USB/Core/AVR8/Template/Template_Endpoint_RW.c ****   software, including all implied warranties of merchantability
  23:../../tmk_core/protocol/lufa/lufa-abcminiuser/LUFA/Drivers/USB/Core/AVR8/Template/Template_Endpoint_RW.c ****   and fitness.  In no event shall the author be liable for any
  24:../../tmk_core/protocol/lufa/lufa-abcminiuser/LUFA/Drivers/USB/Core/AVR8/Template/Template_Endpoint_RW.c ****   special, indirect or consequential damages or any damages
  25:../../tmk_core/protocol/lufa/lufa-abcminiuser/LUFA/Drivers/USB/Core/AVR8/Template/Template_Endpoint_RW.c ****   whatsoever resulting from loss of use, data or profits, whether
  26:../../tmk_core/protocol/lufa/lufa-abcminiuser/LUFA/Drivers/USB/Core/AVR8/Template/Template_Endpoint_RW.c ****   in an action of contract, negligence or other tortious action,
  27:../../tmk_core/protocol/lufa/lufa-abcminiuser/LUFA/Drivers/USB/Core/AVR8/Template/Template_Endpoint_RW.c ****   arising out of or in connection with the use or performance of
  28:../../tmk_core/protocol/lufa/lufa-abcminiuser/LUFA/Drivers/USB/Core/AVR8/Template/Template_Endpoint_RW.c ****   this software.
  29:../../tmk_core/protocol/lufa/lufa-abcminiuser/LUFA/Drivers/USB/Core/AVR8/Template/Template_Endpoint_RW.c **** */
  30:../../tmk_core/protocol/lufa/lufa-abcminiuser/LUFA/Drivers/USB/Core/AVR8/Template/Template_Endpoint_RW.c **** 
  31:../../tmk_core/protocol/lufa/lufa-abcminiuser/LUFA/Drivers/USB/Core/AVR8/Template/Template_Endpoint_RW.c **** #if defined(TEMPLATE_FUNC_NAME)
  32:../../tmk_core/protocol/lufa/lufa-abcminiuser/LUFA/Drivers/USB/Core/AVR8/Template/Template_Endpoint_RW.c **** 
  33:../../tmk_core/protocol/lufa/lufa-abcminiuser/LUFA/Drivers/USB/Core/AVR8/Template/Template_Endpoint_RW.c **** uint8_t TEMPLATE_FUNC_NAME (TEMPLATE_BUFFER_TYPE const Buffer,
  34:../../tmk_core/protocol/lufa/lufa-abcminiuser/LUFA/Drivers/USB/Core/AVR8/Template/Template_Endpoint_RW.c ****                             uint16_t Length,
  35:../../tmk_core/protocol/lufa/lufa-abcminiuser/LUFA/Drivers/USB/Core/AVR8/Template/Template_Endpoint_RW.c ****                             uint16_t* const BytesProcessed)
  36:../../tmk_core/protocol/lufa/lufa-abcminiuser/LUFA/Drivers/USB/Core/AVR8/Template/Template_Endpoint_RW.c **** {
 345               		.loc 3 36 1 is_stmt 1 view -0
 346               		.cfi_startproc
 347               		.loc 3 36 1 is_stmt 0 view .LVU84
 348 0000 AF92      		push r10
 349               	.LCFI14:
 350               		.cfi_def_cfa_offset 3
 351               		.cfi_offset 10, -2
 352 0002 BF92      		push r11
 353               	.LCFI15:
 354               		.cfi_def_cfa_offset 4
 355               		.cfi_offset 11, -3
 356 0004 CF92      		push r12
 357               	.LCFI16:
 358               		.cfi_def_cfa_offset 5
 359               		.cfi_offset 12, -4
 360 0006 DF92      		push r13
 361               	.LCFI17:
 362               		.cfi_def_cfa_offset 6
 363               		.cfi_offset 13, -5
 364 0008 FF92      		push r15
 365               	.LCFI18:
 366               		.cfi_def_cfa_offset 7
 367               		.cfi_offset 15, -6
 368 000a 0F93      		push r16
 369               	.LCFI19:
 370               		.cfi_def_cfa_offset 8
 371               		.cfi_offset 16, -7
 372 000c 1F93      		push r17
 373               	.LCFI20:
 374               		.cfi_def_cfa_offset 9
 375               		.cfi_offset 17, -8
 376 000e CF93      		push r28
 377               	.LCFI21:
 378               		.cfi_def_cfa_offset 10
 379               		.cfi_offset 28, -9
 380 0010 DF93      		push r29
 381               	.LCFI22:
 382               		.cfi_def_cfa_offset 11
 383               		.cfi_offset 29, -10
 384               	/* prologue: function */
 385               	/* frame size = 0 */
 386               	/* stack size = 9 */
 387               	.L__stack_usage = 9
 388 0012 6C01      		movw r12,r24
 389 0014 EB01      		movw r28,r22
 390 0016 8A01      		movw r16,r20
  37:../../tmk_core/protocol/lufa/lufa-abcminiuser/LUFA/Drivers/USB/Core/AVR8/Template/Template_Endpoint_RW.c **** 	uint8_t* DataStream      = ((uint8_t*)Buffer + TEMPLATE_BUFFER_OFFSET(Length));
 391               		.loc 3 37 2 is_stmt 1 view .LVU85
 392               	.LVL26:
  38:../../tmk_core/protocol/lufa/lufa-abcminiuser/LUFA/Drivers/USB/Core/AVR8/Template/Template_Endpoint_RW.c **** 	uint16_t BytesInTransfer = 0;
 393               		.loc 3 38 2 view .LVU86
  39:../../tmk_core/protocol/lufa/lufa-abcminiuser/LUFA/Drivers/USB/Core/AVR8/Template/Template_Endpoint_RW.c **** 	uint8_t  ErrorCode;
 394               		.loc 3 39 2 view .LVU87
  40:../../tmk_core/protocol/lufa/lufa-abcminiuser/LUFA/Drivers/USB/Core/AVR8/Template/Template_Endpoint_RW.c **** 
  41:../../tmk_core/protocol/lufa/lufa-abcminiuser/LUFA/Drivers/USB/Core/AVR8/Template/Template_Endpoint_RW.c **** 	if ((ErrorCode = Endpoint_WaitUntilReady()))
 395               		.loc 3 41 2 view .LVU88
 396               		.loc 3 41 19 is_stmt 0 view .LVU89
 397 0018 0E94 0000 		call Endpoint_WaitUntilReady
 398               	.LVL27:
 399               		.loc 3 41 19 view .LVU90
 400 001c F82E      		mov r15,r24
 401               	.LVL28:
 402               		.loc 3 41 5 view .LVU91
 403 001e 8111      		cpse r24,__zero_reg__
 404 0020 00C0      		rjmp .L21
  42:../../tmk_core/protocol/lufa/lufa-abcminiuser/LUFA/Drivers/USB/Core/AVR8/Template/Template_Endpoint_RW.c **** 	  return ErrorCode;
  43:../../tmk_core/protocol/lufa/lufa-abcminiuser/LUFA/Drivers/USB/Core/AVR8/Template/Template_Endpoint_RW.c **** 
  44:../../tmk_core/protocol/lufa/lufa-abcminiuser/LUFA/Drivers/USB/Core/AVR8/Template/Template_Endpoint_RW.c **** 	if (BytesProcessed != NULL)
 405               		.loc 3 44 2 is_stmt 1 view .LVU92
 406               		.loc 3 44 5 is_stmt 0 view .LVU93
 407 0022 0115      		cp r16,__zero_reg__
 408 0024 1105      		cpc r17,__zero_reg__
 409 0026 01F0      		breq .L23
  45:../../tmk_core/protocol/lufa/lufa-abcminiuser/LUFA/Drivers/USB/Core/AVR8/Template/Template_Endpoint_RW.c **** 	{
  46:../../tmk_core/protocol/lufa/lufa-abcminiuser/LUFA/Drivers/USB/Core/AVR8/Template/Template_Endpoint_RW.c **** 		Length -= *BytesProcessed;
 410               		.loc 3 46 3 is_stmt 1 view .LVU94
 411               		.loc 3 46 13 is_stmt 0 view .LVU95
 412 0028 F801      		movw r30,r16
 413 002a 8081      		ld r24,Z
 414 002c 9181      		ldd r25,Z+1
 415               		.loc 3 46 10 view .LVU96
 416 002e C81B      		sub r28,r24
 417 0030 D90B      		sbc r29,r25
 418               	.LVL29:
  47:../../tmk_core/protocol/lufa/lufa-abcminiuser/LUFA/Drivers/USB/Core/AVR8/Template/Template_Endpoint_RW.c **** 		TEMPLATE_BUFFER_MOVE(DataStream, *BytesProcessed);
 419               		.loc 3 47 3 is_stmt 1 view .LVU97
 420 0032 C80E      		add r12,r24
 421 0034 D91E      		adc r13,r25
 422               	.LVL30:
 423               	.L23:
  36:../../tmk_core/protocol/lufa/lufa-abcminiuser/LUFA/Drivers/USB/Core/AVR8/Template/Template_Endpoint_RW.c **** 	uint8_t* DataStream      = ((uint8_t*)Buffer + TEMPLATE_BUFFER_OFFSET(Length));
 424               		.loc 3 36 1 is_stmt 0 view .LVU98
 425 0036 B12C      		mov r11,__zero_reg__
 426 0038 A12C      		mov r10,__zero_reg__
 427               	.LVL31:
 428               	.L24:
  48:../../tmk_core/protocol/lufa/lufa-abcminiuser/LUFA/Drivers/USB/Core/AVR8/Template/Template_Endpoint_RW.c **** 	}
  49:../../tmk_core/protocol/lufa/lufa-abcminiuser/LUFA/Drivers/USB/Core/AVR8/Template/Template_Endpoint_RW.c **** 
  50:../../tmk_core/protocol/lufa/lufa-abcminiuser/LUFA/Drivers/USB/Core/AVR8/Template/Template_Endpoint_RW.c **** 	while (Length)
 429               		.loc 3 50 8 view .LVU99
 430 003a 2097      		sbiw r28,0
 431 003c 01F0      		breq .L21
  51:../../tmk_core/protocol/lufa/lufa-abcminiuser/LUFA/Drivers/USB/Core/AVR8/Template/Template_Endpoint_RW.c **** 	{
  52:../../tmk_core/protocol/lufa/lufa-abcminiuser/LUFA/Drivers/USB/Core/AVR8/Template/Template_Endpoint_RW.c **** 		if (!(Endpoint_IsReadWriteAllowed()))
 432               		.loc 3 52 3 is_stmt 1 view .LVU100
 433               	.LBB280:
 434               	.LBI280:
 358:../../tmk_core/protocol/lufa/lufa-abcminiuser/LUFA/Drivers/USB/Core/AVR8/../AVR8/../AVR8/Endpoint_AVR8.h **** 			{
 435               		.loc 2 358 23 view .LVU101
 436               	.LBB281:
 360:../../tmk_core/protocol/lufa/lufa-abcminiuser/LUFA/Drivers/USB/Core/AVR8/../AVR8/../AVR8/Endpoint_AVR8.h **** 			}
 437               		.loc 2 360 5 view .LVU102
 360:../../tmk_core/protocol/lufa/lufa-abcminiuser/LUFA/Drivers/USB/Core/AVR8/../AVR8/../AVR8/Endpoint_AVR8.h **** 			}
 438               		.loc 2 360 14 is_stmt 0 view .LVU103
 439 003e 8091 E800 		lds r24,232
 440               	.LBE281:
 441               	.LBE280:
 442               		.loc 3 52 6 view .LVU104
 443 0042 85FD      		sbrc r24,5
 444 0044 00C0      		rjmp .L25
  53:../../tmk_core/protocol/lufa/lufa-abcminiuser/LUFA/Drivers/USB/Core/AVR8/Template/Template_Endpoint_RW.c **** 		{
  54:../../tmk_core/protocol/lufa/lufa-abcminiuser/LUFA/Drivers/USB/Core/AVR8/Template/Template_Endpoint_RW.c **** 			TEMPLATE_CLEAR_ENDPOINT();
 445               		.loc 3 54 4 is_stmt 1 view .LVU105
 446               	.LBB282:
 447               	.LBI282:
 453:../../tmk_core/protocol/lufa/lufa-abcminiuser/LUFA/Drivers/USB/Core/AVR8/../AVR8/../AVR8/Endpoint_AVR8.h **** 			{
 448               		.loc 2 453 23 view .LVU106
 449               	.LBB283:
 456:../../tmk_core/protocol/lufa/lufa-abcminiuser/LUFA/Drivers/USB/Core/AVR8/../AVR8/../AVR8/Endpoint_AVR8.h **** 				#else
 450               		.loc 2 456 6 view .LVU107
 456:../../tmk_core/protocol/lufa/lufa-abcminiuser/LUFA/Drivers/USB/Core/AVR8/../AVR8/../AVR8/Endpoint_AVR8.h **** 				#else
 451               		.loc 2 456 13 is_stmt 0 view .LVU108
 452 0046 8091 E800 		lds r24,232
 453 004a 8E77      		andi r24,lo8(126)
 454 004c 8093 E800 		sts 232,r24
 455               	.LBE283:
 456               	.LBE282:
  55:../../tmk_core/protocol/lufa/lufa-abcminiuser/LUFA/Drivers/USB/Core/AVR8/Template/Template_Endpoint_RW.c **** 
  56:../../tmk_core/protocol/lufa/lufa-abcminiuser/LUFA/Drivers/USB/Core/AVR8/Template/Template_Endpoint_RW.c **** 			#if !defined(INTERRUPT_CONTROL_ENDPOINT)
  57:../../tmk_core/protocol/lufa/lufa-abcminiuser/LUFA/Drivers/USB/Core/AVR8/Template/Template_Endpoint_RW.c **** 			USB_USBTask();
  58:../../tmk_core/protocol/lufa/lufa-abcminiuser/LUFA/Drivers/USB/Core/AVR8/Template/Template_Endpoint_RW.c **** 			#endif
  59:../../tmk_core/protocol/lufa/lufa-abcminiuser/LUFA/Drivers/USB/Core/AVR8/Template/Template_Endpoint_RW.c **** 
  60:../../tmk_core/protocol/lufa/lufa-abcminiuser/LUFA/Drivers/USB/Core/AVR8/Template/Template_Endpoint_RW.c **** 			if (BytesProcessed != NULL)
 457               		.loc 3 60 4 is_stmt 1 view .LVU109
 458               		.loc 3 60 7 is_stmt 0 view .LVU110
 459 0050 0115      		cp r16,__zero_reg__
 460 0052 1105      		cpc r17,__zero_reg__
 461 0054 01F0      		breq .L26
  61:../../tmk_core/protocol/lufa/lufa-abcminiuser/LUFA/Drivers/USB/Core/AVR8/Template/Template_Endpoint_RW.c **** 			{
  62:../../tmk_core/protocol/lufa/lufa-abcminiuser/LUFA/Drivers/USB/Core/AVR8/Template/Template_Endpoint_RW.c **** 				*BytesProcessed += BytesInTransfer;
 462               		.loc 3 62 5 is_stmt 1 view .LVU111
 463               		.loc 3 62 21 is_stmt 0 view .LVU112
 464 0056 F801      		movw r30,r16
 465 0058 8081      		ld r24,Z
 466 005a 9181      		ldd r25,Z+1
 467 005c A80E      		add r10,r24
 468 005e B91E      		adc r11,r25
 469               	.LVL32:
 470               		.loc 3 62 21 view .LVU113
 471 0060 B182      		std Z+1,r11
 472 0062 A082      		st Z,r10
  63:../../tmk_core/protocol/lufa/lufa-abcminiuser/LUFA/Drivers/USB/Core/AVR8/Template/Template_Endpoint_RW.c **** 				return ENDPOINT_RWSTREAM_IncompleteTransfer;
 473               		.loc 3 63 5 is_stmt 1 view .LVU114
 474               		.loc 3 63 12 is_stmt 0 view .LVU115
 475 0064 85E0      		ldi r24,lo8(5)
 476 0066 F82E      		mov r15,r24
 477               	.L21:
  64:../../tmk_core/protocol/lufa/lufa-abcminiuser/LUFA/Drivers/USB/Core/AVR8/Template/Template_Endpoint_RW.c **** 			}
  65:../../tmk_core/protocol/lufa/lufa-abcminiuser/LUFA/Drivers/USB/Core/AVR8/Template/Template_Endpoint_RW.c **** 
  66:../../tmk_core/protocol/lufa/lufa-abcminiuser/LUFA/Drivers/USB/Core/AVR8/Template/Template_Endpoint_RW.c **** 			if ((ErrorCode = Endpoint_WaitUntilReady()))
  67:../../tmk_core/protocol/lufa/lufa-abcminiuser/LUFA/Drivers/USB/Core/AVR8/Template/Template_Endpoint_RW.c **** 			  return ErrorCode;
  68:../../tmk_core/protocol/lufa/lufa-abcminiuser/LUFA/Drivers/USB/Core/AVR8/Template/Template_Endpoint_RW.c **** 		}
  69:../../tmk_core/protocol/lufa/lufa-abcminiuser/LUFA/Drivers/USB/Core/AVR8/Template/Template_Endpoint_RW.c **** 		else
  70:../../tmk_core/protocol/lufa/lufa-abcminiuser/LUFA/Drivers/USB/Core/AVR8/Template/Template_Endpoint_RW.c **** 		{
  71:../../tmk_core/protocol/lufa/lufa-abcminiuser/LUFA/Drivers/USB/Core/AVR8/Template/Template_Endpoint_RW.c **** 			TEMPLATE_TRANSFER_BYTE(DataStream);
  72:../../tmk_core/protocol/lufa/lufa-abcminiuser/LUFA/Drivers/USB/Core/AVR8/Template/Template_Endpoint_RW.c **** 			TEMPLATE_BUFFER_MOVE(DataStream, 1);
  73:../../tmk_core/protocol/lufa/lufa-abcminiuser/LUFA/Drivers/USB/Core/AVR8/Template/Template_Endpoint_RW.c **** 			Length--;
  74:../../tmk_core/protocol/lufa/lufa-abcminiuser/LUFA/Drivers/USB/Core/AVR8/Template/Template_Endpoint_RW.c **** 			BytesInTransfer++;
  75:../../tmk_core/protocol/lufa/lufa-abcminiuser/LUFA/Drivers/USB/Core/AVR8/Template/Template_Endpoint_RW.c **** 		}
  76:../../tmk_core/protocol/lufa/lufa-abcminiuser/LUFA/Drivers/USB/Core/AVR8/Template/Template_Endpoint_RW.c **** 	}
  77:../../tmk_core/protocol/lufa/lufa-abcminiuser/LUFA/Drivers/USB/Core/AVR8/Template/Template_Endpoint_RW.c **** 
  78:../../tmk_core/protocol/lufa/lufa-abcminiuser/LUFA/Drivers/USB/Core/AVR8/Template/Template_Endpoint_RW.c **** 	return ENDPOINT_RWSTREAM_NoError;
  79:../../tmk_core/protocol/lufa/lufa-abcminiuser/LUFA/Drivers/USB/Core/AVR8/Template/Template_Endpoint_RW.c **** }
 478               		.loc 3 79 1 view .LVU116
 479 0068 8F2D      		mov r24,r15
 480               	/* epilogue start */
 481 006a DF91      		pop r29
 482 006c CF91      		pop r28
 483               	.LVL33:
 484               		.loc 3 79 1 view .LVU117
 485 006e 1F91      		pop r17
 486 0070 0F91      		pop r16
 487               	.LVL34:
 488               		.loc 3 79 1 view .LVU118
 489 0072 FF90      		pop r15
 490 0074 DF90      		pop r13
 491 0076 CF90      		pop r12
 492               	.LVL35:
 493               		.loc 3 79 1 view .LVU119
 494 0078 BF90      		pop r11
 495 007a AF90      		pop r10
 496 007c 0895      		ret
 497               	.LVL36:
 498               	.L26:
  66:../../tmk_core/protocol/lufa/lufa-abcminiuser/LUFA/Drivers/USB/Core/AVR8/Template/Template_Endpoint_RW.c **** 			  return ErrorCode;
 499               		.loc 3 66 4 is_stmt 1 view .LVU120
  66:../../tmk_core/protocol/lufa/lufa-abcminiuser/LUFA/Drivers/USB/Core/AVR8/Template/Template_Endpoint_RW.c **** 			  return ErrorCode;
 500               		.loc 3 66 21 is_stmt 0 view .LVU121
 501 007e 0E94 0000 		call Endpoint_WaitUntilReady
 502               	.LVL37:
  66:../../tmk_core/protocol/lufa/lufa-abcminiuser/LUFA/Drivers/USB/Core/AVR8/Template/Template_Endpoint_RW.c **** 			  return ErrorCode;
 503               		.loc 3 66 7 view .LVU122
 504 0082 8823      		tst r24
 505 0084 01F0      		breq .L24
  66:../../tmk_core/protocol/lufa/lufa-abcminiuser/LUFA/Drivers/USB/Core/AVR8/Template/Template_Endpoint_RW.c **** 			  return ErrorCode;
 506               		.loc 3 66 21 view .LVU123
 507 0086 F82E      		mov r15,r24
 508 0088 00C0      		rjmp .L21
 509               	.LVL38:
 510               	.L25:
  71:../../tmk_core/protocol/lufa/lufa-abcminiuser/LUFA/Drivers/USB/Core/AVR8/Template/Template_Endpoint_RW.c **** 			TEMPLATE_BUFFER_MOVE(DataStream, 1);
 511               		.loc 3 71 4 is_stmt 1 view .LVU124
 512 008a F601      		movw r30,r12
 513 008c 8191      		ld r24,Z+
 514 008e 6F01      		movw r12,r30
 515               	.LVL39:
 516               	.LBB284:
 517               	.LBI284:
 552:../../tmk_core/protocol/lufa/lufa-abcminiuser/LUFA/Drivers/USB/Core/AVR8/../AVR8/../AVR8/Endpoint_AVR8.h **** 			{
 518               		.loc 2 552 23 view .LVU125
 519               	.LBB285:
 554:../../tmk_core/protocol/lufa/lufa-abcminiuser/LUFA/Drivers/USB/Core/AVR8/../AVR8/../AVR8/Endpoint_AVR8.h **** 			}
 520               		.loc 2 554 5 view .LVU126
 554:../../tmk_core/protocol/lufa/lufa-abcminiuser/LUFA/Drivers/USB/Core/AVR8/../AVR8/../AVR8/Endpoint_AVR8.h **** 			}
 521               		.loc 2 554 12 is_stmt 0 view .LVU127
 522 0090 8093 F100 		sts 241,r24
 523               	.LVL40:
 554:../../tmk_core/protocol/lufa/lufa-abcminiuser/LUFA/Drivers/USB/Core/AVR8/../AVR8/../AVR8/Endpoint_AVR8.h **** 			}
 524               		.loc 2 554 12 view .LVU128
 525               	.LBE285:
 526               	.LBE284:
  72:../../tmk_core/protocol/lufa/lufa-abcminiuser/LUFA/Drivers/USB/Core/AVR8/Template/Template_Endpoint_RW.c **** 			Length--;
 527               		.loc 3 72 4 is_stmt 1 view .LVU129
  73:../../tmk_core/protocol/lufa/lufa-abcminiuser/LUFA/Drivers/USB/Core/AVR8/Template/Template_Endpoint_RW.c **** 			BytesInTransfer++;
 528               		.loc 3 73 4 view .LVU130
  73:../../tmk_core/protocol/lufa/lufa-abcminiuser/LUFA/Drivers/USB/Core/AVR8/Template/Template_Endpoint_RW.c **** 			BytesInTransfer++;
 529               		.loc 3 73 10 is_stmt 0 view .LVU131
 530 0094 2197      		sbiw r28,1
 531               	.LVL41:
  74:../../tmk_core/protocol/lufa/lufa-abcminiuser/LUFA/Drivers/USB/Core/AVR8/Template/Template_Endpoint_RW.c **** 		}
 532               		.loc 3 74 4 is_stmt 1 view .LVU132
  74:../../tmk_core/protocol/lufa/lufa-abcminiuser/LUFA/Drivers/USB/Core/AVR8/Template/Template_Endpoint_RW.c **** 		}
 533               		.loc 3 74 19 is_stmt 0 view .LVU133
 534 0096 FFEF      		ldi r31,-1
 535 0098 AF1A      		sub r10,r31
 536 009a BF0A      		sbc r11,r31
 537               	.LVL42:
  74:../../tmk_core/protocol/lufa/lufa-abcminiuser/LUFA/Drivers/USB/Core/AVR8/Template/Template_Endpoint_RW.c **** 		}
 538               		.loc 3 74 19 view .LVU134
 539 009c 00C0      		rjmp .L24
 540               		.cfi_endproc
 541               	.LFE87:
 543               		.section	.text.Endpoint_Write_Stream_BE,"ax",@progbits
 544               	.global	Endpoint_Write_Stream_BE
 546               	Endpoint_Write_Stream_BE:
 547               	.LVL43:
 548               	.LFB88:
  36:../../tmk_core/protocol/lufa/lufa-abcminiuser/LUFA/Drivers/USB/Core/AVR8/Template/Template_Endpoint_RW.c **** 	uint8_t* DataStream      = ((uint8_t*)Buffer + TEMPLATE_BUFFER_OFFSET(Length));
 549               		.loc 3 36 1 is_stmt 1 view -0
 550               		.cfi_startproc
  36:../../tmk_core/protocol/lufa/lufa-abcminiuser/LUFA/Drivers/USB/Core/AVR8/Template/Template_Endpoint_RW.c **** 	uint8_t* DataStream      = ((uint8_t*)Buffer + TEMPLATE_BUFFER_OFFSET(Length));
 551               		.loc 3 36 1 is_stmt 0 view .LVU136
 552 0000 AF92      		push r10
 553               	.LCFI23:
 554               		.cfi_def_cfa_offset 3
 555               		.cfi_offset 10, -2
 556 0002 BF92      		push r11
 557               	.LCFI24:
 558               		.cfi_def_cfa_offset 4
 559               		.cfi_offset 11, -3
 560 0004 DF92      		push r13
 561               	.LCFI25:
 562               		.cfi_def_cfa_offset 5
 563               		.cfi_offset 13, -4
 564 0006 EF92      		push r14
 565               	.LCFI26:
 566               		.cfi_def_cfa_offset 6
 567               		.cfi_offset 14, -5
 568 0008 FF92      		push r15
 569               	.LCFI27:
 570               		.cfi_def_cfa_offset 7
 571               		.cfi_offset 15, -6
 572 000a 0F93      		push r16
 573               	.LCFI28:
 574               		.cfi_def_cfa_offset 8
 575               		.cfi_offset 16, -7
 576 000c 1F93      		push r17
 577               	.LCFI29:
 578               		.cfi_def_cfa_offset 9
 579               		.cfi_offset 17, -8
 580 000e CF93      		push r28
 581               	.LCFI30:
 582               		.cfi_def_cfa_offset 10
 583               		.cfi_offset 28, -9
 584 0010 DF93      		push r29
 585               	.LCFI31:
 586               		.cfi_def_cfa_offset 11
 587               		.cfi_offset 29, -10
 588               	/* prologue: function */
 589               	/* frame size = 0 */
 590               	/* stack size = 9 */
 591               	.L__stack_usage = 9
 592 0012 EC01      		movw r28,r24
 593 0014 8B01      		movw r16,r22
 594 0016 7A01      		movw r14,r20
  37:../../tmk_core/protocol/lufa/lufa-abcminiuser/LUFA/Drivers/USB/Core/AVR8/Template/Template_Endpoint_RW.c **** 	uint16_t BytesInTransfer = 0;
 595               		.loc 3 37 2 is_stmt 1 view .LVU137
 596               	.LVL44:
  38:../../tmk_core/protocol/lufa/lufa-abcminiuser/LUFA/Drivers/USB/Core/AVR8/Template/Template_Endpoint_RW.c **** 	uint8_t  ErrorCode;
 597               		.loc 3 38 2 view .LVU138
  39:../../tmk_core/protocol/lufa/lufa-abcminiuser/LUFA/Drivers/USB/Core/AVR8/Template/Template_Endpoint_RW.c **** 
 598               		.loc 3 39 2 view .LVU139
  41:../../tmk_core/protocol/lufa/lufa-abcminiuser/LUFA/Drivers/USB/Core/AVR8/Template/Template_Endpoint_RW.c **** 	  return ErrorCode;
 599               		.loc 3 41 2 view .LVU140
  41:../../tmk_core/protocol/lufa/lufa-abcminiuser/LUFA/Drivers/USB/Core/AVR8/Template/Template_Endpoint_RW.c **** 	  return ErrorCode;
 600               		.loc 3 41 19 is_stmt 0 view .LVU141
 601 0018 0E94 0000 		call Endpoint_WaitUntilReady
 602               	.LVL45:
  41:../../tmk_core/protocol/lufa/lufa-abcminiuser/LUFA/Drivers/USB/Core/AVR8/Template/Template_Endpoint_RW.c **** 	  return ErrorCode;
 603               		.loc 3 41 19 view .LVU142
 604 001c D82E      		mov r13,r24
 605               	.LVL46:
  41:../../tmk_core/protocol/lufa/lufa-abcminiuser/LUFA/Drivers/USB/Core/AVR8/Template/Template_Endpoint_RW.c **** 	  return ErrorCode;
 606               		.loc 3 41 5 view .LVU143
 607 001e 8111      		cpse r24,__zero_reg__
 608 0020 00C0      		rjmp .L33
  37:../../tmk_core/protocol/lufa/lufa-abcminiuser/LUFA/Drivers/USB/Core/AVR8/Template/Template_Endpoint_RW.c **** 	uint16_t BytesInTransfer = 0;
 609               		.loc 3 37 47 view .LVU144
 610 0022 C801      		movw r24,r16
 611 0024 0197      		sbiw r24,1
 612               	.LVL47:
  37:../../tmk_core/protocol/lufa/lufa-abcminiuser/LUFA/Drivers/USB/Core/AVR8/Template/Template_Endpoint_RW.c **** 	uint16_t BytesInTransfer = 0;
 613               		.loc 3 37 11 view .LVU145
 614 0026 C80F      		add r28,r24
 615 0028 D91F      		adc r29,r25
 616               	.LVL48:
  44:../../tmk_core/protocol/lufa/lufa-abcminiuser/LUFA/Drivers/USB/Core/AVR8/Template/Template_Endpoint_RW.c **** 	{
 617               		.loc 3 44 2 is_stmt 1 view .LVU146
  44:../../tmk_core/protocol/lufa/lufa-abcminiuser/LUFA/Drivers/USB/Core/AVR8/Template/Template_Endpoint_RW.c **** 	{
 618               		.loc 3 44 5 is_stmt 0 view .LVU147
 619 002a E114      		cp r14,__zero_reg__
 620 002c F104      		cpc r15,__zero_reg__
 621 002e 01F0      		breq .L35
  46:../../tmk_core/protocol/lufa/lufa-abcminiuser/LUFA/Drivers/USB/Core/AVR8/Template/Template_Endpoint_RW.c **** 		TEMPLATE_BUFFER_MOVE(DataStream, *BytesProcessed);
 622               		.loc 3 46 3 is_stmt 1 view .LVU148
  46:../../tmk_core/protocol/lufa/lufa-abcminiuser/LUFA/Drivers/USB/Core/AVR8/Template/Template_Endpoint_RW.c **** 		TEMPLATE_BUFFER_MOVE(DataStream, *BytesProcessed);
 623               		.loc 3 46 13 is_stmt 0 view .LVU149
 624 0030 F701      		movw r30,r14
 625 0032 8081      		ld r24,Z
 626 0034 9181      		ldd r25,Z+1
 627               	.LVL49:
  46:../../tmk_core/protocol/lufa/lufa-abcminiuser/LUFA/Drivers/USB/Core/AVR8/Template/Template_Endpoint_RW.c **** 		TEMPLATE_BUFFER_MOVE(DataStream, *BytesProcessed);
 628               		.loc 3 46 10 view .LVU150
 629 0036 081B      		sub r16,r24
 630 0038 190B      		sbc r17,r25
 631               	.LVL50:
  47:../../tmk_core/protocol/lufa/lufa-abcminiuser/LUFA/Drivers/USB/Core/AVR8/Template/Template_Endpoint_RW.c **** 	}
 632               		.loc 3 47 3 is_stmt 1 view .LVU151
 633 003a C81B      		sub r28,r24
 634 003c D90B      		sbc r29,r25
 635               	.LVL51:
 636               	.L35:
  36:../../tmk_core/protocol/lufa/lufa-abcminiuser/LUFA/Drivers/USB/Core/AVR8/Template/Template_Endpoint_RW.c **** 	uint8_t* DataStream      = ((uint8_t*)Buffer + TEMPLATE_BUFFER_OFFSET(Length));
 637               		.loc 3 36 1 is_stmt 0 view .LVU152
 638 003e B12C      		mov r11,__zero_reg__
 639 0040 A12C      		mov r10,__zero_reg__
 640               	.LVL52:
 641               	.L36:
  50:../../tmk_core/protocol/lufa/lufa-abcminiuser/LUFA/Drivers/USB/Core/AVR8/Template/Template_Endpoint_RW.c **** 	{
 642               		.loc 3 50 8 view .LVU153
 643 0042 0115      		cp r16,__zero_reg__
 644 0044 1105      		cpc r17,__zero_reg__
 645 0046 01F0      		breq .L33
  52:../../tmk_core/protocol/lufa/lufa-abcminiuser/LUFA/Drivers/USB/Core/AVR8/Template/Template_Endpoint_RW.c **** 		{
 646               		.loc 3 52 3 is_stmt 1 view .LVU154
 647               	.LBB286:
 648               	.LBI286:
 358:../../tmk_core/protocol/lufa/lufa-abcminiuser/LUFA/Drivers/USB/Core/AVR8/../AVR8/../AVR8/Endpoint_AVR8.h **** 			{
 649               		.loc 2 358 23 view .LVU155
 650               	.LBB287:
 360:../../tmk_core/protocol/lufa/lufa-abcminiuser/LUFA/Drivers/USB/Core/AVR8/../AVR8/../AVR8/Endpoint_AVR8.h **** 			}
 651               		.loc 2 360 5 view .LVU156
 360:../../tmk_core/protocol/lufa/lufa-abcminiuser/LUFA/Drivers/USB/Core/AVR8/../AVR8/../AVR8/Endpoint_AVR8.h **** 			}
 652               		.loc 2 360 14 is_stmt 0 view .LVU157
 653 0048 8091 E800 		lds r24,232
 654               	.LBE287:
 655               	.LBE286:
  52:../../tmk_core/protocol/lufa/lufa-abcminiuser/LUFA/Drivers/USB/Core/AVR8/Template/Template_Endpoint_RW.c **** 		{
 656               		.loc 3 52 6 view .LVU158
 657 004c 85FD      		sbrc r24,5
 658 004e 00C0      		rjmp .L37
  54:../../tmk_core/protocol/lufa/lufa-abcminiuser/LUFA/Drivers/USB/Core/AVR8/Template/Template_Endpoint_RW.c **** 
 659               		.loc 3 54 4 is_stmt 1 view .LVU159
 660               	.LBB288:
 661               	.LBI288:
 453:../../tmk_core/protocol/lufa/lufa-abcminiuser/LUFA/Drivers/USB/Core/AVR8/../AVR8/../AVR8/Endpoint_AVR8.h **** 			{
 662               		.loc 2 453 23 view .LVU160
 663               	.LBB289:
 456:../../tmk_core/protocol/lufa/lufa-abcminiuser/LUFA/Drivers/USB/Core/AVR8/../AVR8/../AVR8/Endpoint_AVR8.h **** 				#else
 664               		.loc 2 456 6 view .LVU161
 456:../../tmk_core/protocol/lufa/lufa-abcminiuser/LUFA/Drivers/USB/Core/AVR8/../AVR8/../AVR8/Endpoint_AVR8.h **** 				#else
 665               		.loc 2 456 13 is_stmt 0 view .LVU162
 666 0050 8091 E800 		lds r24,232
 667 0054 8E77      		andi r24,lo8(126)
 668 0056 8093 E800 		sts 232,r24
 669               	.LBE289:
 670               	.LBE288:
  60:../../tmk_core/protocol/lufa/lufa-abcminiuser/LUFA/Drivers/USB/Core/AVR8/Template/Template_Endpoint_RW.c **** 			{
 671               		.loc 3 60 4 is_stmt 1 view .LVU163
  60:../../tmk_core/protocol/lufa/lufa-abcminiuser/LUFA/Drivers/USB/Core/AVR8/Template/Template_Endpoint_RW.c **** 			{
 672               		.loc 3 60 7 is_stmt 0 view .LVU164
 673 005a E114      		cp r14,__zero_reg__
 674 005c F104      		cpc r15,__zero_reg__
 675 005e 01F0      		breq .L38
  62:../../tmk_core/protocol/lufa/lufa-abcminiuser/LUFA/Drivers/USB/Core/AVR8/Template/Template_Endpoint_RW.c **** 				return ENDPOINT_RWSTREAM_IncompleteTransfer;
 676               		.loc 3 62 5 is_stmt 1 view .LVU165
  62:../../tmk_core/protocol/lufa/lufa-abcminiuser/LUFA/Drivers/USB/Core/AVR8/Template/Template_Endpoint_RW.c **** 				return ENDPOINT_RWSTREAM_IncompleteTransfer;
 677               		.loc 3 62 21 is_stmt 0 view .LVU166
 678 0060 F701      		movw r30,r14
 679 0062 8081      		ld r24,Z
 680 0064 9181      		ldd r25,Z+1
 681 0066 A80E      		add r10,r24
 682 0068 B91E      		adc r11,r25
 683               	.LVL53:
  62:../../tmk_core/protocol/lufa/lufa-abcminiuser/LUFA/Drivers/USB/Core/AVR8/Template/Template_Endpoint_RW.c **** 				return ENDPOINT_RWSTREAM_IncompleteTransfer;
 684               		.loc 3 62 21 view .LVU167
 685 006a B182      		std Z+1,r11
 686 006c A082      		st Z,r10
  63:../../tmk_core/protocol/lufa/lufa-abcminiuser/LUFA/Drivers/USB/Core/AVR8/Template/Template_Endpoint_RW.c **** 			}
 687               		.loc 3 63 5 is_stmt 1 view .LVU168
  63:../../tmk_core/protocol/lufa/lufa-abcminiuser/LUFA/Drivers/USB/Core/AVR8/Template/Template_Endpoint_RW.c **** 			}
 688               		.loc 3 63 12 is_stmt 0 view .LVU169
 689 006e 85E0      		ldi r24,lo8(5)
 690 0070 D82E      		mov r13,r24
 691               	.LVL54:
 692               	.L33:
 693               		.loc 3 79 1 view .LVU170
 694 0072 8D2D      		mov r24,r13
 695               	/* epilogue start */
 696 0074 DF91      		pop r29
 697 0076 CF91      		pop r28
 698 0078 1F91      		pop r17
 699 007a 0F91      		pop r16
 700               	.LVL55:
 701               		.loc 3 79 1 view .LVU171
 702 007c FF90      		pop r15
 703 007e EF90      		pop r14
 704               	.LVL56:
 705               		.loc 3 79 1 view .LVU172
 706 0080 DF90      		pop r13
 707 0082 BF90      		pop r11
 708 0084 AF90      		pop r10
 709 0086 0895      		ret
 710               	.LVL57:
 711               	.L38:
  66:../../tmk_core/protocol/lufa/lufa-abcminiuser/LUFA/Drivers/USB/Core/AVR8/Template/Template_Endpoint_RW.c **** 			  return ErrorCode;
 712               		.loc 3 66 4 is_stmt 1 view .LVU173
  66:../../tmk_core/protocol/lufa/lufa-abcminiuser/LUFA/Drivers/USB/Core/AVR8/Template/Template_Endpoint_RW.c **** 			  return ErrorCode;
 713               		.loc 3 66 21 is_stmt 0 view .LVU174
 714 0088 0E94 0000 		call Endpoint_WaitUntilReady
 715               	.LVL58:
  66:../../tmk_core/protocol/lufa/lufa-abcminiuser/LUFA/Drivers/USB/Core/AVR8/Template/Template_Endpoint_RW.c **** 			  return ErrorCode;
 716               		.loc 3 66 7 view .LVU175
 717 008c 8823      		tst r24
 718 008e 01F0      		breq .L36
  66:../../tmk_core/protocol/lufa/lufa-abcminiuser/LUFA/Drivers/USB/Core/AVR8/Template/Template_Endpoint_RW.c **** 			  return ErrorCode;
 719               		.loc 3 66 21 view .LVU176
 720 0090 D82E      		mov r13,r24
 721 0092 00C0      		rjmp .L33
 722               	.LVL59:
 723               	.L37:
  71:../../tmk_core/protocol/lufa/lufa-abcminiuser/LUFA/Drivers/USB/Core/AVR8/Template/Template_Endpoint_RW.c **** 			TEMPLATE_BUFFER_MOVE(DataStream, 1);
 724               		.loc 3 71 4 is_stmt 1 view .LVU177
 725 0094 8881      		ld r24,Y
 726               	.LVL60:
 727               	.LBB290:
 728               	.LBI290:
 552:../../tmk_core/protocol/lufa/lufa-abcminiuser/LUFA/Drivers/USB/Core/AVR8/../AVR8/../AVR8/Endpoint_AVR8.h **** 			{
 729               		.loc 2 552 23 view .LVU178
 730               	.LBB291:
 554:../../tmk_core/protocol/lufa/lufa-abcminiuser/LUFA/Drivers/USB/Core/AVR8/../AVR8/../AVR8/Endpoint_AVR8.h **** 			}
 731               		.loc 2 554 5 view .LVU179
 554:../../tmk_core/protocol/lufa/lufa-abcminiuser/LUFA/Drivers/USB/Core/AVR8/../AVR8/../AVR8/Endpoint_AVR8.h **** 			}
 732               		.loc 2 554 12 is_stmt 0 view .LVU180
 733 0096 8093 F100 		sts 241,r24
 734               	.LVL61:
 554:../../tmk_core/protocol/lufa/lufa-abcminiuser/LUFA/Drivers/USB/Core/AVR8/../AVR8/../AVR8/Endpoint_AVR8.h **** 			}
 735               		.loc 2 554 12 view .LVU181
 736               	.LBE291:
 737               	.LBE290:
  72:../../tmk_core/protocol/lufa/lufa-abcminiuser/LUFA/Drivers/USB/Core/AVR8/Template/Template_Endpoint_RW.c **** 			Length--;
 738               		.loc 3 72 4 is_stmt 1 view .LVU182
 739 009a 2197      		sbiw r28,1
 740               	.LVL62:
  73:../../tmk_core/protocol/lufa/lufa-abcminiuser/LUFA/Drivers/USB/Core/AVR8/Template/Template_Endpoint_RW.c **** 			BytesInTransfer++;
 741               		.loc 3 73 4 view .LVU183
  73:../../tmk_core/protocol/lufa/lufa-abcminiuser/LUFA/Drivers/USB/Core/AVR8/Template/Template_Endpoint_RW.c **** 			BytesInTransfer++;
 742               		.loc 3 73 10 is_stmt 0 view .LVU184
 743 009c 0150      		subi r16,1
 744 009e 1109      		sbc r17,__zero_reg__
 745               	.LVL63:
  74:../../tmk_core/protocol/lufa/lufa-abcminiuser/LUFA/Drivers/USB/Core/AVR8/Template/Template_Endpoint_RW.c **** 		}
 746               		.loc 3 74 4 is_stmt 1 view .LVU185
  74:../../tmk_core/protocol/lufa/lufa-abcminiuser/LUFA/Drivers/USB/Core/AVR8/Template/Template_Endpoint_RW.c **** 		}
 747               		.loc 3 74 19 is_stmt 0 view .LVU186
 748 00a0 FFEF      		ldi r31,-1
 749 00a2 AF1A      		sub r10,r31
 750 00a4 BF0A      		sbc r11,r31
 751               	.LVL64:
  74:../../tmk_core/protocol/lufa/lufa-abcminiuser/LUFA/Drivers/USB/Core/AVR8/Template/Template_Endpoint_RW.c **** 		}
 752               		.loc 3 74 19 view .LVU187
 753 00a6 00C0      		rjmp .L36
 754               		.cfi_endproc
 755               	.LFE88:
 757               		.section	.text.Endpoint_Read_Stream_LE,"ax",@progbits
 758               	.global	Endpoint_Read_Stream_LE
 760               	Endpoint_Read_Stream_LE:
 761               	.LVL65:
 762               	.LFB89:
  36:../../tmk_core/protocol/lufa/lufa-abcminiuser/LUFA/Drivers/USB/Core/AVR8/Template/Template_Endpoint_RW.c **** 	uint8_t* DataStream      = ((uint8_t*)Buffer + TEMPLATE_BUFFER_OFFSET(Length));
 763               		.loc 3 36 1 is_stmt 1 view -0
 764               		.cfi_startproc
  36:../../tmk_core/protocol/lufa/lufa-abcminiuser/LUFA/Drivers/USB/Core/AVR8/Template/Template_Endpoint_RW.c **** 	uint8_t* DataStream      = ((uint8_t*)Buffer + TEMPLATE_BUFFER_OFFSET(Length));
 765               		.loc 3 36 1 is_stmt 0 view .LVU189
 766 0000 AF92      		push r10
 767               	.LCFI32:
 768               		.cfi_def_cfa_offset 3
 769               		.cfi_offset 10, -2
 770 0002 BF92      		push r11
 771               	.LCFI33:
 772               		.cfi_def_cfa_offset 4
 773               		.cfi_offset 11, -3
 774 0004 CF92      		push r12
 775               	.LCFI34:
 776               		.cfi_def_cfa_offset 5
 777               		.cfi_offset 12, -4
 778 0006 DF92      		push r13
 779               	.LCFI35:
 780               		.cfi_def_cfa_offset 6
 781               		.cfi_offset 13, -5
 782 0008 FF92      		push r15
 783               	.LCFI36:
 784               		.cfi_def_cfa_offset 7
 785               		.cfi_offset 15, -6
 786 000a 0F93      		push r16
 787               	.LCFI37:
 788               		.cfi_def_cfa_offset 8
 789               		.cfi_offset 16, -7
 790 000c 1F93      		push r17
 791               	.LCFI38:
 792               		.cfi_def_cfa_offset 9
 793               		.cfi_offset 17, -8
 794 000e CF93      		push r28
 795               	.LCFI39:
 796               		.cfi_def_cfa_offset 10
 797               		.cfi_offset 28, -9
 798 0010 DF93      		push r29
 799               	.LCFI40:
 800               		.cfi_def_cfa_offset 11
 801               		.cfi_offset 29, -10
 802               	/* prologue: function */
 803               	/* frame size = 0 */
 804               	/* stack size = 9 */
 805               	.L__stack_usage = 9
 806 0012 6C01      		movw r12,r24
 807 0014 EB01      		movw r28,r22
 808 0016 8A01      		movw r16,r20
  37:../../tmk_core/protocol/lufa/lufa-abcminiuser/LUFA/Drivers/USB/Core/AVR8/Template/Template_Endpoint_RW.c **** 	uint16_t BytesInTransfer = 0;
 809               		.loc 3 37 2 is_stmt 1 view .LVU190
 810               	.LVL66:
  38:../../tmk_core/protocol/lufa/lufa-abcminiuser/LUFA/Drivers/USB/Core/AVR8/Template/Template_Endpoint_RW.c **** 	uint8_t  ErrorCode;
 811               		.loc 3 38 2 view .LVU191
  39:../../tmk_core/protocol/lufa/lufa-abcminiuser/LUFA/Drivers/USB/Core/AVR8/Template/Template_Endpoint_RW.c **** 
 812               		.loc 3 39 2 view .LVU192
  41:../../tmk_core/protocol/lufa/lufa-abcminiuser/LUFA/Drivers/USB/Core/AVR8/Template/Template_Endpoint_RW.c **** 	  return ErrorCode;
 813               		.loc 3 41 2 view .LVU193
  41:../../tmk_core/protocol/lufa/lufa-abcminiuser/LUFA/Drivers/USB/Core/AVR8/Template/Template_Endpoint_RW.c **** 	  return ErrorCode;
 814               		.loc 3 41 19 is_stmt 0 view .LVU194
 815 0018 0E94 0000 		call Endpoint_WaitUntilReady
 816               	.LVL67:
  41:../../tmk_core/protocol/lufa/lufa-abcminiuser/LUFA/Drivers/USB/Core/AVR8/Template/Template_Endpoint_RW.c **** 	  return ErrorCode;
 817               		.loc 3 41 19 view .LVU195
 818 001c F82E      		mov r15,r24
 819               	.LVL68:
  41:../../tmk_core/protocol/lufa/lufa-abcminiuser/LUFA/Drivers/USB/Core/AVR8/Template/Template_Endpoint_RW.c **** 	  return ErrorCode;
 820               		.loc 3 41 5 view .LVU196
 821 001e 8111      		cpse r24,__zero_reg__
 822 0020 00C0      		rjmp .L45
  44:../../tmk_core/protocol/lufa/lufa-abcminiuser/LUFA/Drivers/USB/Core/AVR8/Template/Template_Endpoint_RW.c **** 	{
 823               		.loc 3 44 2 is_stmt 1 view .LVU197
  44:../../tmk_core/protocol/lufa/lufa-abcminiuser/LUFA/Drivers/USB/Core/AVR8/Template/Template_Endpoint_RW.c **** 	{
 824               		.loc 3 44 5 is_stmt 0 view .LVU198
 825 0022 0115      		cp r16,__zero_reg__
 826 0024 1105      		cpc r17,__zero_reg__
 827 0026 01F0      		breq .L47
  46:../../tmk_core/protocol/lufa/lufa-abcminiuser/LUFA/Drivers/USB/Core/AVR8/Template/Template_Endpoint_RW.c **** 		TEMPLATE_BUFFER_MOVE(DataStream, *BytesProcessed);
 828               		.loc 3 46 3 is_stmt 1 view .LVU199
  46:../../tmk_core/protocol/lufa/lufa-abcminiuser/LUFA/Drivers/USB/Core/AVR8/Template/Template_Endpoint_RW.c **** 		TEMPLATE_BUFFER_MOVE(DataStream, *BytesProcessed);
 829               		.loc 3 46 13 is_stmt 0 view .LVU200
 830 0028 F801      		movw r30,r16
 831 002a 8081      		ld r24,Z
 832 002c 9181      		ldd r25,Z+1
  46:../../tmk_core/protocol/lufa/lufa-abcminiuser/LUFA/Drivers/USB/Core/AVR8/Template/Template_Endpoint_RW.c **** 		TEMPLATE_BUFFER_MOVE(DataStream, *BytesProcessed);
 833               		.loc 3 46 10 view .LVU201
 834 002e C81B      		sub r28,r24
 835 0030 D90B      		sbc r29,r25
 836               	.LVL69:
  47:../../tmk_core/protocol/lufa/lufa-abcminiuser/LUFA/Drivers/USB/Core/AVR8/Template/Template_Endpoint_RW.c **** 	}
 837               		.loc 3 47 3 is_stmt 1 view .LVU202
 838 0032 C80E      		add r12,r24
 839 0034 D91E      		adc r13,r25
 840               	.LVL70:
 841               	.L47:
  36:../../tmk_core/protocol/lufa/lufa-abcminiuser/LUFA/Drivers/USB/Core/AVR8/Template/Template_Endpoint_RW.c **** 	uint8_t* DataStream      = ((uint8_t*)Buffer + TEMPLATE_BUFFER_OFFSET(Length));
 842               		.loc 3 36 1 is_stmt 0 view .LVU203
 843 0036 B12C      		mov r11,__zero_reg__
 844 0038 A12C      		mov r10,__zero_reg__
 845               	.LVL71:
 846               	.L48:
  50:../../tmk_core/protocol/lufa/lufa-abcminiuser/LUFA/Drivers/USB/Core/AVR8/Template/Template_Endpoint_RW.c **** 	{
 847               		.loc 3 50 8 view .LVU204
 848 003a 2097      		sbiw r28,0
 849 003c 01F0      		breq .L45
  52:../../tmk_core/protocol/lufa/lufa-abcminiuser/LUFA/Drivers/USB/Core/AVR8/Template/Template_Endpoint_RW.c **** 		{
 850               		.loc 3 52 3 is_stmt 1 view .LVU205
 851               	.LBB292:
 852               	.LBI292:
 358:../../tmk_core/protocol/lufa/lufa-abcminiuser/LUFA/Drivers/USB/Core/AVR8/../AVR8/../AVR8/Endpoint_AVR8.h **** 			{
 853               		.loc 2 358 23 view .LVU206
 854               	.LBB293:
 360:../../tmk_core/protocol/lufa/lufa-abcminiuser/LUFA/Drivers/USB/Core/AVR8/../AVR8/../AVR8/Endpoint_AVR8.h **** 			}
 855               		.loc 2 360 5 view .LVU207
 360:../../tmk_core/protocol/lufa/lufa-abcminiuser/LUFA/Drivers/USB/Core/AVR8/../AVR8/../AVR8/Endpoint_AVR8.h **** 			}
 856               		.loc 2 360 14 is_stmt 0 view .LVU208
 857 003e 8091 E800 		lds r24,232
 858               	.LBE293:
 859               	.LBE292:
  52:../../tmk_core/protocol/lufa/lufa-abcminiuser/LUFA/Drivers/USB/Core/AVR8/Template/Template_Endpoint_RW.c **** 		{
 860               		.loc 3 52 6 view .LVU209
 861 0042 85FD      		sbrc r24,5
 862 0044 00C0      		rjmp .L49
  54:../../tmk_core/protocol/lufa/lufa-abcminiuser/LUFA/Drivers/USB/Core/AVR8/Template/Template_Endpoint_RW.c **** 
 863               		.loc 3 54 4 is_stmt 1 view .LVU210
 864               	.LBB294:
 865               	.LBI294:
 468:../../tmk_core/protocol/lufa/lufa-abcminiuser/LUFA/Drivers/USB/Core/AVR8/../AVR8/../AVR8/Endpoint_AVR8.h **** 			{
 866               		.loc 2 468 23 view .LVU211
 867               	.LBB295:
 471:../../tmk_core/protocol/lufa/lufa-abcminiuser/LUFA/Drivers/USB/Core/AVR8/../AVR8/../AVR8/Endpoint_AVR8.h **** 				#else
 868               		.loc 2 471 6 view .LVU212
 471:../../tmk_core/protocol/lufa/lufa-abcminiuser/LUFA/Drivers/USB/Core/AVR8/../AVR8/../AVR8/Endpoint_AVR8.h **** 				#else
 869               		.loc 2 471 13 is_stmt 0 view .LVU213
 870 0046 8091 E800 		lds r24,232
 871 004a 8B77      		andi r24,lo8(123)
 872 004c 8093 E800 		sts 232,r24
 873               	.LBE295:
 874               	.LBE294:
  60:../../tmk_core/protocol/lufa/lufa-abcminiuser/LUFA/Drivers/USB/Core/AVR8/Template/Template_Endpoint_RW.c **** 			{
 875               		.loc 3 60 4 is_stmt 1 view .LVU214
  60:../../tmk_core/protocol/lufa/lufa-abcminiuser/LUFA/Drivers/USB/Core/AVR8/Template/Template_Endpoint_RW.c **** 			{
 876               		.loc 3 60 7 is_stmt 0 view .LVU215
 877 0050 0115      		cp r16,__zero_reg__
 878 0052 1105      		cpc r17,__zero_reg__
 879 0054 01F0      		breq .L50
  62:../../tmk_core/protocol/lufa/lufa-abcminiuser/LUFA/Drivers/USB/Core/AVR8/Template/Template_Endpoint_RW.c **** 				return ENDPOINT_RWSTREAM_IncompleteTransfer;
 880               		.loc 3 62 5 is_stmt 1 view .LVU216
  62:../../tmk_core/protocol/lufa/lufa-abcminiuser/LUFA/Drivers/USB/Core/AVR8/Template/Template_Endpoint_RW.c **** 				return ENDPOINT_RWSTREAM_IncompleteTransfer;
 881               		.loc 3 62 21 is_stmt 0 view .LVU217
 882 0056 F801      		movw r30,r16
 883 0058 8081      		ld r24,Z
 884 005a 9181      		ldd r25,Z+1
 885 005c A80E      		add r10,r24
 886 005e B91E      		adc r11,r25
 887               	.LVL72:
  62:../../tmk_core/protocol/lufa/lufa-abcminiuser/LUFA/Drivers/USB/Core/AVR8/Template/Template_Endpoint_RW.c **** 				return ENDPOINT_RWSTREAM_IncompleteTransfer;
 888               		.loc 3 62 21 view .LVU218
 889 0060 B182      		std Z+1,r11
 890 0062 A082      		st Z,r10
  63:../../tmk_core/protocol/lufa/lufa-abcminiuser/LUFA/Drivers/USB/Core/AVR8/Template/Template_Endpoint_RW.c **** 			}
 891               		.loc 3 63 5 is_stmt 1 view .LVU219
  63:../../tmk_core/protocol/lufa/lufa-abcminiuser/LUFA/Drivers/USB/Core/AVR8/Template/Template_Endpoint_RW.c **** 			}
 892               		.loc 3 63 12 is_stmt 0 view .LVU220
 893 0064 85E0      		ldi r24,lo8(5)
 894 0066 F82E      		mov r15,r24
 895               	.L45:
 896               		.loc 3 79 1 view .LVU221
 897 0068 8F2D      		mov r24,r15
 898               	/* epilogue start */
 899 006a DF91      		pop r29
 900 006c CF91      		pop r28
 901               	.LVL73:
 902               		.loc 3 79 1 view .LVU222
 903 006e 1F91      		pop r17
 904 0070 0F91      		pop r16
 905               	.LVL74:
 906               		.loc 3 79 1 view .LVU223
 907 0072 FF90      		pop r15
 908 0074 DF90      		pop r13
 909 0076 CF90      		pop r12
 910               	.LVL75:
 911               		.loc 3 79 1 view .LVU224
 912 0078 BF90      		pop r11
 913 007a AF90      		pop r10
 914 007c 0895      		ret
 915               	.LVL76:
 916               	.L50:
  66:../../tmk_core/protocol/lufa/lufa-abcminiuser/LUFA/Drivers/USB/Core/AVR8/Template/Template_Endpoint_RW.c **** 			  return ErrorCode;
 917               		.loc 3 66 4 is_stmt 1 view .LVU225
  66:../../tmk_core/protocol/lufa/lufa-abcminiuser/LUFA/Drivers/USB/Core/AVR8/Template/Template_Endpoint_RW.c **** 			  return ErrorCode;
 918               		.loc 3 66 21 is_stmt 0 view .LVU226
 919 007e 0E94 0000 		call Endpoint_WaitUntilReady
 920               	.LVL77:
  66:../../tmk_core/protocol/lufa/lufa-abcminiuser/LUFA/Drivers/USB/Core/AVR8/Template/Template_Endpoint_RW.c **** 			  return ErrorCode;
 921               		.loc 3 66 7 view .LVU227
 922 0082 8823      		tst r24
 923 0084 01F0      		breq .L48
  66:../../tmk_core/protocol/lufa/lufa-abcminiuser/LUFA/Drivers/USB/Core/AVR8/Template/Template_Endpoint_RW.c **** 			  return ErrorCode;
 924               		.loc 3 66 21 view .LVU228
 925 0086 F82E      		mov r15,r24
 926 0088 00C0      		rjmp .L45
 927               	.LVL78:
 928               	.L49:
  71:../../tmk_core/protocol/lufa/lufa-abcminiuser/LUFA/Drivers/USB/Core/AVR8/Template/Template_Endpoint_RW.c **** 			TEMPLATE_BUFFER_MOVE(DataStream, 1);
 929               		.loc 3 71 4 is_stmt 1 view .LVU229
 930               	.LBB296:
 931               	.LBI296:
 540:../../tmk_core/protocol/lufa/lufa-abcminiuser/LUFA/Drivers/USB/Core/AVR8/../AVR8/../AVR8/Endpoint_AVR8.h **** 			{
 932               		.loc 2 540 26 view .LVU230
 933               	.LBB297:
 542:../../tmk_core/protocol/lufa/lufa-abcminiuser/LUFA/Drivers/USB/Core/AVR8/../AVR8/../AVR8/Endpoint_AVR8.h **** 			}
 934               		.loc 2 542 5 view .LVU231
 542:../../tmk_core/protocol/lufa/lufa-abcminiuser/LUFA/Drivers/USB/Core/AVR8/../AVR8/../AVR8/Endpoint_AVR8.h **** 			}
 935               		.loc 2 542 12 is_stmt 0 view .LVU232
 936 008a 8091 F100 		lds r24,241
 937               	.LBE297:
 938               	.LBE296:
  71:../../tmk_core/protocol/lufa/lufa-abcminiuser/LUFA/Drivers/USB/Core/AVR8/Template/Template_Endpoint_RW.c **** 			TEMPLATE_BUFFER_MOVE(DataStream, 1);
 939               		.loc 3 71 4 view .LVU233
 940 008e F601      		movw r30,r12
 941 0090 8193      		st Z+,r24
 942 0092 6F01      		movw r12,r30
 943               	.LVL79:
  72:../../tmk_core/protocol/lufa/lufa-abcminiuser/LUFA/Drivers/USB/Core/AVR8/Template/Template_Endpoint_RW.c **** 			Length--;
 944               		.loc 3 72 4 is_stmt 1 view .LVU234
  73:../../tmk_core/protocol/lufa/lufa-abcminiuser/LUFA/Drivers/USB/Core/AVR8/Template/Template_Endpoint_RW.c **** 			BytesInTransfer++;
 945               		.loc 3 73 4 view .LVU235
  73:../../tmk_core/protocol/lufa/lufa-abcminiuser/LUFA/Drivers/USB/Core/AVR8/Template/Template_Endpoint_RW.c **** 			BytesInTransfer++;
 946               		.loc 3 73 10 is_stmt 0 view .LVU236
 947 0094 2197      		sbiw r28,1
 948               	.LVL80:
  74:../../tmk_core/protocol/lufa/lufa-abcminiuser/LUFA/Drivers/USB/Core/AVR8/Template/Template_Endpoint_RW.c **** 		}
 949               		.loc 3 74 4 is_stmt 1 view .LVU237
  74:../../tmk_core/protocol/lufa/lufa-abcminiuser/LUFA/Drivers/USB/Core/AVR8/Template/Template_Endpoint_RW.c **** 		}
 950               		.loc 3 74 19 is_stmt 0 view .LVU238
 951 0096 FFEF      		ldi r31,-1
 952 0098 AF1A      		sub r10,r31
 953 009a BF0A      		sbc r11,r31
 954               	.LVL81:
  74:../../tmk_core/protocol/lufa/lufa-abcminiuser/LUFA/Drivers/USB/Core/AVR8/Template/Template_Endpoint_RW.c **** 		}
 955               		.loc 3 74 19 view .LVU239
 956 009c 00C0      		rjmp .L48
 957               		.cfi_endproc
 958               	.LFE89:
 960               		.section	.text.Endpoint_Read_Stream_BE,"ax",@progbits
 961               	.global	Endpoint_Read_Stream_BE
 963               	Endpoint_Read_Stream_BE:
 964               	.LVL82:
 965               	.LFB90:
  36:../../tmk_core/protocol/lufa/lufa-abcminiuser/LUFA/Drivers/USB/Core/AVR8/Template/Template_Endpoint_RW.c **** 	uint8_t* DataStream      = ((uint8_t*)Buffer + TEMPLATE_BUFFER_OFFSET(Length));
 966               		.loc 3 36 1 is_stmt 1 view -0
 967               		.cfi_startproc
  36:../../tmk_core/protocol/lufa/lufa-abcminiuser/LUFA/Drivers/USB/Core/AVR8/Template/Template_Endpoint_RW.c **** 	uint8_t* DataStream      = ((uint8_t*)Buffer + TEMPLATE_BUFFER_OFFSET(Length));
 968               		.loc 3 36 1 is_stmt 0 view .LVU241
 969 0000 AF92      		push r10
 970               	.LCFI41:
 971               		.cfi_def_cfa_offset 3
 972               		.cfi_offset 10, -2
 973 0002 BF92      		push r11
 974               	.LCFI42:
 975               		.cfi_def_cfa_offset 4
 976               		.cfi_offset 11, -3
 977 0004 DF92      		push r13
 978               	.LCFI43:
 979               		.cfi_def_cfa_offset 5
 980               		.cfi_offset 13, -4
 981 0006 EF92      		push r14
 982               	.LCFI44:
 983               		.cfi_def_cfa_offset 6
 984               		.cfi_offset 14, -5
 985 0008 FF92      		push r15
 986               	.LCFI45:
 987               		.cfi_def_cfa_offset 7
 988               		.cfi_offset 15, -6
 989 000a 0F93      		push r16
 990               	.LCFI46:
 991               		.cfi_def_cfa_offset 8
 992               		.cfi_offset 16, -7
 993 000c 1F93      		push r17
 994               	.LCFI47:
 995               		.cfi_def_cfa_offset 9
 996               		.cfi_offset 17, -8
 997 000e CF93      		push r28
 998               	.LCFI48:
 999               		.cfi_def_cfa_offset 10
 1000               		.cfi_offset 28, -9
 1001 0010 DF93      		push r29
 1002               	.LCFI49:
 1003               		.cfi_def_cfa_offset 11
 1004               		.cfi_offset 29, -10
 1005               	/* prologue: function */
 1006               	/* frame size = 0 */
 1007               	/* stack size = 9 */
 1008               	.L__stack_usage = 9
 1009 0012 EC01      		movw r28,r24
 1010 0014 8B01      		movw r16,r22
 1011 0016 7A01      		movw r14,r20
  37:../../tmk_core/protocol/lufa/lufa-abcminiuser/LUFA/Drivers/USB/Core/AVR8/Template/Template_Endpoint_RW.c **** 	uint16_t BytesInTransfer = 0;
 1012               		.loc 3 37 2 is_stmt 1 view .LVU242
 1013               	.LVL83:
  38:../../tmk_core/protocol/lufa/lufa-abcminiuser/LUFA/Drivers/USB/Core/AVR8/Template/Template_Endpoint_RW.c **** 	uint8_t  ErrorCode;
 1014               		.loc 3 38 2 view .LVU243
  39:../../tmk_core/protocol/lufa/lufa-abcminiuser/LUFA/Drivers/USB/Core/AVR8/Template/Template_Endpoint_RW.c **** 
 1015               		.loc 3 39 2 view .LVU244
  41:../../tmk_core/protocol/lufa/lufa-abcminiuser/LUFA/Drivers/USB/Core/AVR8/Template/Template_Endpoint_RW.c **** 	  return ErrorCode;
 1016               		.loc 3 41 2 view .LVU245
  41:../../tmk_core/protocol/lufa/lufa-abcminiuser/LUFA/Drivers/USB/Core/AVR8/Template/Template_Endpoint_RW.c **** 	  return ErrorCode;
 1017               		.loc 3 41 19 is_stmt 0 view .LVU246
 1018 0018 0E94 0000 		call Endpoint_WaitUntilReady
 1019               	.LVL84:
  41:../../tmk_core/protocol/lufa/lufa-abcminiuser/LUFA/Drivers/USB/Core/AVR8/Template/Template_Endpoint_RW.c **** 	  return ErrorCode;
 1020               		.loc 3 41 19 view .LVU247
 1021 001c D82E      		mov r13,r24
 1022               	.LVL85:
  41:../../tmk_core/protocol/lufa/lufa-abcminiuser/LUFA/Drivers/USB/Core/AVR8/Template/Template_Endpoint_RW.c **** 	  return ErrorCode;
 1023               		.loc 3 41 5 view .LVU248
 1024 001e 8111      		cpse r24,__zero_reg__
 1025 0020 00C0      		rjmp .L57
  37:../../tmk_core/protocol/lufa/lufa-abcminiuser/LUFA/Drivers/USB/Core/AVR8/Template/Template_Endpoint_RW.c **** 	uint16_t BytesInTransfer = 0;
 1026               		.loc 3 37 47 view .LVU249
 1027 0022 C801      		movw r24,r16
 1028 0024 0197      		sbiw r24,1
 1029               	.LVL86:
  37:../../tmk_core/protocol/lufa/lufa-abcminiuser/LUFA/Drivers/USB/Core/AVR8/Template/Template_Endpoint_RW.c **** 	uint16_t BytesInTransfer = 0;
 1030               		.loc 3 37 11 view .LVU250
 1031 0026 C80F      		add r28,r24
 1032 0028 D91F      		adc r29,r25
 1033               	.LVL87:
  44:../../tmk_core/protocol/lufa/lufa-abcminiuser/LUFA/Drivers/USB/Core/AVR8/Template/Template_Endpoint_RW.c **** 	{
 1034               		.loc 3 44 2 is_stmt 1 view .LVU251
  44:../../tmk_core/protocol/lufa/lufa-abcminiuser/LUFA/Drivers/USB/Core/AVR8/Template/Template_Endpoint_RW.c **** 	{
 1035               		.loc 3 44 5 is_stmt 0 view .LVU252
 1036 002a E114      		cp r14,__zero_reg__
 1037 002c F104      		cpc r15,__zero_reg__
 1038 002e 01F0      		breq .L59
  46:../../tmk_core/protocol/lufa/lufa-abcminiuser/LUFA/Drivers/USB/Core/AVR8/Template/Template_Endpoint_RW.c **** 		TEMPLATE_BUFFER_MOVE(DataStream, *BytesProcessed);
 1039               		.loc 3 46 3 is_stmt 1 view .LVU253
  46:../../tmk_core/protocol/lufa/lufa-abcminiuser/LUFA/Drivers/USB/Core/AVR8/Template/Template_Endpoint_RW.c **** 		TEMPLATE_BUFFER_MOVE(DataStream, *BytesProcessed);
 1040               		.loc 3 46 13 is_stmt 0 view .LVU254
 1041 0030 F701      		movw r30,r14
 1042 0032 8081      		ld r24,Z
 1043 0034 9181      		ldd r25,Z+1
 1044               	.LVL88:
  46:../../tmk_core/protocol/lufa/lufa-abcminiuser/LUFA/Drivers/USB/Core/AVR8/Template/Template_Endpoint_RW.c **** 		TEMPLATE_BUFFER_MOVE(DataStream, *BytesProcessed);
 1045               		.loc 3 46 10 view .LVU255
 1046 0036 081B      		sub r16,r24
 1047 0038 190B      		sbc r17,r25
 1048               	.LVL89:
  47:../../tmk_core/protocol/lufa/lufa-abcminiuser/LUFA/Drivers/USB/Core/AVR8/Template/Template_Endpoint_RW.c **** 	}
 1049               		.loc 3 47 3 is_stmt 1 view .LVU256
 1050 003a C81B      		sub r28,r24
 1051 003c D90B      		sbc r29,r25
 1052               	.LVL90:
 1053               	.L59:
  36:../../tmk_core/protocol/lufa/lufa-abcminiuser/LUFA/Drivers/USB/Core/AVR8/Template/Template_Endpoint_RW.c **** 	uint8_t* DataStream      = ((uint8_t*)Buffer + TEMPLATE_BUFFER_OFFSET(Length));
 1054               		.loc 3 36 1 is_stmt 0 view .LVU257
 1055 003e B12C      		mov r11,__zero_reg__
 1056 0040 A12C      		mov r10,__zero_reg__
 1057               	.LVL91:
 1058               	.L60:
  50:../../tmk_core/protocol/lufa/lufa-abcminiuser/LUFA/Drivers/USB/Core/AVR8/Template/Template_Endpoint_RW.c **** 	{
 1059               		.loc 3 50 8 view .LVU258
 1060 0042 0115      		cp r16,__zero_reg__
 1061 0044 1105      		cpc r17,__zero_reg__
 1062 0046 01F0      		breq .L57
  52:../../tmk_core/protocol/lufa/lufa-abcminiuser/LUFA/Drivers/USB/Core/AVR8/Template/Template_Endpoint_RW.c **** 		{
 1063               		.loc 3 52 3 is_stmt 1 view .LVU259
 1064               	.LBB298:
 1065               	.LBI298:
 358:../../tmk_core/protocol/lufa/lufa-abcminiuser/LUFA/Drivers/USB/Core/AVR8/../AVR8/../AVR8/Endpoint_AVR8.h **** 			{
 1066               		.loc 2 358 23 view .LVU260
 1067               	.LBB299:
 360:../../tmk_core/protocol/lufa/lufa-abcminiuser/LUFA/Drivers/USB/Core/AVR8/../AVR8/../AVR8/Endpoint_AVR8.h **** 			}
 1068               		.loc 2 360 5 view .LVU261
 360:../../tmk_core/protocol/lufa/lufa-abcminiuser/LUFA/Drivers/USB/Core/AVR8/../AVR8/../AVR8/Endpoint_AVR8.h **** 			}
 1069               		.loc 2 360 14 is_stmt 0 view .LVU262
 1070 0048 8091 E800 		lds r24,232
 1071               	.LBE299:
 1072               	.LBE298:
  52:../../tmk_core/protocol/lufa/lufa-abcminiuser/LUFA/Drivers/USB/Core/AVR8/Template/Template_Endpoint_RW.c **** 		{
 1073               		.loc 3 52 6 view .LVU263
 1074 004c 85FD      		sbrc r24,5
 1075 004e 00C0      		rjmp .L61
  54:../../tmk_core/protocol/lufa/lufa-abcminiuser/LUFA/Drivers/USB/Core/AVR8/Template/Template_Endpoint_RW.c **** 
 1076               		.loc 3 54 4 is_stmt 1 view .LVU264
 1077               	.LBB300:
 1078               	.LBI300:
 468:../../tmk_core/protocol/lufa/lufa-abcminiuser/LUFA/Drivers/USB/Core/AVR8/../AVR8/../AVR8/Endpoint_AVR8.h **** 			{
 1079               		.loc 2 468 23 view .LVU265
 1080               	.LBB301:
 471:../../tmk_core/protocol/lufa/lufa-abcminiuser/LUFA/Drivers/USB/Core/AVR8/../AVR8/../AVR8/Endpoint_AVR8.h **** 				#else
 1081               		.loc 2 471 6 view .LVU266
 471:../../tmk_core/protocol/lufa/lufa-abcminiuser/LUFA/Drivers/USB/Core/AVR8/../AVR8/../AVR8/Endpoint_AVR8.h **** 				#else
 1082               		.loc 2 471 13 is_stmt 0 view .LVU267
 1083 0050 8091 E800 		lds r24,232
 1084 0054 8B77      		andi r24,lo8(123)
 1085 0056 8093 E800 		sts 232,r24
 1086               	.LBE301:
 1087               	.LBE300:
  60:../../tmk_core/protocol/lufa/lufa-abcminiuser/LUFA/Drivers/USB/Core/AVR8/Template/Template_Endpoint_RW.c **** 			{
 1088               		.loc 3 60 4 is_stmt 1 view .LVU268
  60:../../tmk_core/protocol/lufa/lufa-abcminiuser/LUFA/Drivers/USB/Core/AVR8/Template/Template_Endpoint_RW.c **** 			{
 1089               		.loc 3 60 7 is_stmt 0 view .LVU269
 1090 005a E114      		cp r14,__zero_reg__
 1091 005c F104      		cpc r15,__zero_reg__
 1092 005e 01F0      		breq .L62
  62:../../tmk_core/protocol/lufa/lufa-abcminiuser/LUFA/Drivers/USB/Core/AVR8/Template/Template_Endpoint_RW.c **** 				return ENDPOINT_RWSTREAM_IncompleteTransfer;
 1093               		.loc 3 62 5 is_stmt 1 view .LVU270
  62:../../tmk_core/protocol/lufa/lufa-abcminiuser/LUFA/Drivers/USB/Core/AVR8/Template/Template_Endpoint_RW.c **** 				return ENDPOINT_RWSTREAM_IncompleteTransfer;
 1094               		.loc 3 62 21 is_stmt 0 view .LVU271
 1095 0060 F701      		movw r30,r14
 1096 0062 8081      		ld r24,Z
 1097 0064 9181      		ldd r25,Z+1
 1098 0066 A80E      		add r10,r24
 1099 0068 B91E      		adc r11,r25
 1100               	.LVL92:
  62:../../tmk_core/protocol/lufa/lufa-abcminiuser/LUFA/Drivers/USB/Core/AVR8/Template/Template_Endpoint_RW.c **** 				return ENDPOINT_RWSTREAM_IncompleteTransfer;
 1101               		.loc 3 62 21 view .LVU272
 1102 006a B182      		std Z+1,r11
 1103 006c A082      		st Z,r10
  63:../../tmk_core/protocol/lufa/lufa-abcminiuser/LUFA/Drivers/USB/Core/AVR8/Template/Template_Endpoint_RW.c **** 			}
 1104               		.loc 3 63 5 is_stmt 1 view .LVU273
  63:../../tmk_core/protocol/lufa/lufa-abcminiuser/LUFA/Drivers/USB/Core/AVR8/Template/Template_Endpoint_RW.c **** 			}
 1105               		.loc 3 63 12 is_stmt 0 view .LVU274
 1106 006e 85E0      		ldi r24,lo8(5)
 1107 0070 D82E      		mov r13,r24
 1108               	.LVL93:
 1109               	.L57:
 1110               		.loc 3 79 1 view .LVU275
 1111 0072 8D2D      		mov r24,r13
 1112               	/* epilogue start */
 1113 0074 DF91      		pop r29
 1114 0076 CF91      		pop r28
 1115 0078 1F91      		pop r17
 1116 007a 0F91      		pop r16
 1117               	.LVL94:
 1118               		.loc 3 79 1 view .LVU276
 1119 007c FF90      		pop r15
 1120 007e EF90      		pop r14
 1121               	.LVL95:
 1122               		.loc 3 79 1 view .LVU277
 1123 0080 DF90      		pop r13
 1124 0082 BF90      		pop r11
 1125 0084 AF90      		pop r10
 1126 0086 0895      		ret
 1127               	.LVL96:
 1128               	.L62:
  66:../../tmk_core/protocol/lufa/lufa-abcminiuser/LUFA/Drivers/USB/Core/AVR8/Template/Template_Endpoint_RW.c **** 			  return ErrorCode;
 1129               		.loc 3 66 4 is_stmt 1 view .LVU278
  66:../../tmk_core/protocol/lufa/lufa-abcminiuser/LUFA/Drivers/USB/Core/AVR8/Template/Template_Endpoint_RW.c **** 			  return ErrorCode;
 1130               		.loc 3 66 21 is_stmt 0 view .LVU279
 1131 0088 0E94 0000 		call Endpoint_WaitUntilReady
 1132               	.LVL97:
  66:../../tmk_core/protocol/lufa/lufa-abcminiuser/LUFA/Drivers/USB/Core/AVR8/Template/Template_Endpoint_RW.c **** 			  return ErrorCode;
 1133               		.loc 3 66 7 view .LVU280
 1134 008c 8823      		tst r24
 1135 008e 01F0      		breq .L60
  66:../../tmk_core/protocol/lufa/lufa-abcminiuser/LUFA/Drivers/USB/Core/AVR8/Template/Template_Endpoint_RW.c **** 			  return ErrorCode;
 1136               		.loc 3 66 21 view .LVU281
 1137 0090 D82E      		mov r13,r24
 1138 0092 00C0      		rjmp .L57
 1139               	.LVL98:
 1140               	.L61:
  71:../../tmk_core/protocol/lufa/lufa-abcminiuser/LUFA/Drivers/USB/Core/AVR8/Template/Template_Endpoint_RW.c **** 			TEMPLATE_BUFFER_MOVE(DataStream, 1);
 1141               		.loc 3 71 4 is_stmt 1 view .LVU282
 1142               	.LBB302:
 1143               	.LBI302:
 540:../../tmk_core/protocol/lufa/lufa-abcminiuser/LUFA/Drivers/USB/Core/AVR8/../AVR8/../AVR8/Endpoint_AVR8.h **** 			{
 1144               		.loc 2 540 26 view .LVU283
 1145               	.LBB303:
 542:../../tmk_core/protocol/lufa/lufa-abcminiuser/LUFA/Drivers/USB/Core/AVR8/../AVR8/../AVR8/Endpoint_AVR8.h **** 			}
 1146               		.loc 2 542 5 view .LVU284
 542:../../tmk_core/protocol/lufa/lufa-abcminiuser/LUFA/Drivers/USB/Core/AVR8/../AVR8/../AVR8/Endpoint_AVR8.h **** 			}
 1147               		.loc 2 542 12 is_stmt 0 view .LVU285
 1148 0094 8091 F100 		lds r24,241
 1149               	.LBE303:
 1150               	.LBE302:
  71:../../tmk_core/protocol/lufa/lufa-abcminiuser/LUFA/Drivers/USB/Core/AVR8/Template/Template_Endpoint_RW.c **** 			TEMPLATE_BUFFER_MOVE(DataStream, 1);
 1151               		.loc 3 71 4 view .LVU286
 1152 0098 8883      		st Y,r24
  72:../../tmk_core/protocol/lufa/lufa-abcminiuser/LUFA/Drivers/USB/Core/AVR8/Template/Template_Endpoint_RW.c **** 			Length--;
 1153               		.loc 3 72 4 is_stmt 1 view .LVU287
 1154 009a 2197      		sbiw r28,1
 1155               	.LVL99:
  73:../../tmk_core/protocol/lufa/lufa-abcminiuser/LUFA/Drivers/USB/Core/AVR8/Template/Template_Endpoint_RW.c **** 			BytesInTransfer++;
 1156               		.loc 3 73 4 view .LVU288
  73:../../tmk_core/protocol/lufa/lufa-abcminiuser/LUFA/Drivers/USB/Core/AVR8/Template/Template_Endpoint_RW.c **** 			BytesInTransfer++;
 1157               		.loc 3 73 10 is_stmt 0 view .LVU289
 1158 009c 0150      		subi r16,1
 1159 009e 1109      		sbc r17,__zero_reg__
 1160               	.LVL100:
  74:../../tmk_core/protocol/lufa/lufa-abcminiuser/LUFA/Drivers/USB/Core/AVR8/Template/Template_Endpoint_RW.c **** 		}
 1161               		.loc 3 74 4 is_stmt 1 view .LVU290
  74:../../tmk_core/protocol/lufa/lufa-abcminiuser/LUFA/Drivers/USB/Core/AVR8/Template/Template_Endpoint_RW.c **** 		}
 1162               		.loc 3 74 19 is_stmt 0 view .LVU291
 1163 00a0 FFEF      		ldi r31,-1
 1164 00a2 AF1A      		sub r10,r31
 1165 00a4 BF0A      		sbc r11,r31
 1166               	.LVL101:
  74:../../tmk_core/protocol/lufa/lufa-abcminiuser/LUFA/Drivers/USB/Core/AVR8/Template/Template_Endpoint_RW.c **** 		}
 1167               		.loc 3 74 19 view .LVU292
 1168 00a6 00C0      		rjmp .L60
 1169               		.cfi_endproc
 1170               	.LFE90:
 1172               		.section	.text.Endpoint_Write_PStream_LE,"ax",@progbits
 1173               	.global	Endpoint_Write_PStream_LE
 1175               	Endpoint_Write_PStream_LE:
 1176               	.LVL102:
 1177               	.LFB91:
  36:../../tmk_core/protocol/lufa/lufa-abcminiuser/LUFA/Drivers/USB/Core/AVR8/Template/Template_Endpoint_RW.c **** 	uint8_t* DataStream      = ((uint8_t*)Buffer + TEMPLATE_BUFFER_OFFSET(Length));
 1178               		.loc 3 36 1 is_stmt 1 view -0
 1179               		.cfi_startproc
  36:../../tmk_core/protocol/lufa/lufa-abcminiuser/LUFA/Drivers/USB/Core/AVR8/Template/Template_Endpoint_RW.c **** 	uint8_t* DataStream      = ((uint8_t*)Buffer + TEMPLATE_BUFFER_OFFSET(Length));
 1180               		.loc 3 36 1 is_stmt 0 view .LVU294
 1181 0000 AF92      		push r10
 1182               	.LCFI50:
 1183               		.cfi_def_cfa_offset 3
 1184               		.cfi_offset 10, -2
 1185 0002 BF92      		push r11
 1186               	.LCFI51:
 1187               		.cfi_def_cfa_offset 4
 1188               		.cfi_offset 11, -3
 1189 0004 DF92      		push r13
 1190               	.LCFI52:
 1191               		.cfi_def_cfa_offset 5
 1192               		.cfi_offset 13, -4
 1193 0006 EF92      		push r14
 1194               	.LCFI53:
 1195               		.cfi_def_cfa_offset 6
 1196               		.cfi_offset 14, -5
 1197 0008 FF92      		push r15
 1198               	.LCFI54:
 1199               		.cfi_def_cfa_offset 7
 1200               		.cfi_offset 15, -6
 1201 000a 0F93      		push r16
 1202               	.LCFI55:
 1203               		.cfi_def_cfa_offset 8
 1204               		.cfi_offset 16, -7
 1205 000c 1F93      		push r17
 1206               	.LCFI56:
 1207               		.cfi_def_cfa_offset 9
 1208               		.cfi_offset 17, -8
 1209 000e CF93      		push r28
 1210               	.LCFI57:
 1211               		.cfi_def_cfa_offset 10
 1212               		.cfi_offset 28, -9
 1213 0010 DF93      		push r29
 1214               	.LCFI58:
 1215               		.cfi_def_cfa_offset 11
 1216               		.cfi_offset 29, -10
 1217               	/* prologue: function */
 1218               	/* frame size = 0 */
 1219               	/* stack size = 9 */
 1220               	.L__stack_usage = 9
 1221 0012 8C01      		movw r16,r24
 1222 0014 EB01      		movw r28,r22
 1223 0016 7A01      		movw r14,r20
  37:../../tmk_core/protocol/lufa/lufa-abcminiuser/LUFA/Drivers/USB/Core/AVR8/Template/Template_Endpoint_RW.c **** 	uint16_t BytesInTransfer = 0;
 1224               		.loc 3 37 2 is_stmt 1 view .LVU295
 1225               	.LVL103:
  38:../../tmk_core/protocol/lufa/lufa-abcminiuser/LUFA/Drivers/USB/Core/AVR8/Template/Template_Endpoint_RW.c **** 	uint8_t  ErrorCode;
 1226               		.loc 3 38 2 view .LVU296
  39:../../tmk_core/protocol/lufa/lufa-abcminiuser/LUFA/Drivers/USB/Core/AVR8/Template/Template_Endpoint_RW.c **** 
 1227               		.loc 3 39 2 view .LVU297
  41:../../tmk_core/protocol/lufa/lufa-abcminiuser/LUFA/Drivers/USB/Core/AVR8/Template/Template_Endpoint_RW.c **** 	  return ErrorCode;
 1228               		.loc 3 41 2 view .LVU298
  41:../../tmk_core/protocol/lufa/lufa-abcminiuser/LUFA/Drivers/USB/Core/AVR8/Template/Template_Endpoint_RW.c **** 	  return ErrorCode;
 1229               		.loc 3 41 19 is_stmt 0 view .LVU299
 1230 0018 0E94 0000 		call Endpoint_WaitUntilReady
 1231               	.LVL104:
  41:../../tmk_core/protocol/lufa/lufa-abcminiuser/LUFA/Drivers/USB/Core/AVR8/Template/Template_Endpoint_RW.c **** 	  return ErrorCode;
 1232               		.loc 3 41 19 view .LVU300
 1233 001c D82E      		mov r13,r24
 1234               	.LVL105:
  41:../../tmk_core/protocol/lufa/lufa-abcminiuser/LUFA/Drivers/USB/Core/AVR8/Template/Template_Endpoint_RW.c **** 	  return ErrorCode;
 1235               		.loc 3 41 5 view .LVU301
 1236 001e 8111      		cpse r24,__zero_reg__
 1237 0020 00C0      		rjmp .L69
  44:../../tmk_core/protocol/lufa/lufa-abcminiuser/LUFA/Drivers/USB/Core/AVR8/Template/Template_Endpoint_RW.c **** 	{
 1238               		.loc 3 44 2 is_stmt 1 view .LVU302
  44:../../tmk_core/protocol/lufa/lufa-abcminiuser/LUFA/Drivers/USB/Core/AVR8/Template/Template_Endpoint_RW.c **** 	{
 1239               		.loc 3 44 5 is_stmt 0 view .LVU303
 1240 0022 E114      		cp r14,__zero_reg__
 1241 0024 F104      		cpc r15,__zero_reg__
 1242 0026 01F0      		breq .L71
  46:../../tmk_core/protocol/lufa/lufa-abcminiuser/LUFA/Drivers/USB/Core/AVR8/Template/Template_Endpoint_RW.c **** 		TEMPLATE_BUFFER_MOVE(DataStream, *BytesProcessed);
 1243               		.loc 3 46 3 is_stmt 1 view .LVU304
  46:../../tmk_core/protocol/lufa/lufa-abcminiuser/LUFA/Drivers/USB/Core/AVR8/Template/Template_Endpoint_RW.c **** 		TEMPLATE_BUFFER_MOVE(DataStream, *BytesProcessed);
 1244               		.loc 3 46 13 is_stmt 0 view .LVU305
 1245 0028 F701      		movw r30,r14
 1246 002a 8081      		ld r24,Z
 1247 002c 9181      		ldd r25,Z+1
  46:../../tmk_core/protocol/lufa/lufa-abcminiuser/LUFA/Drivers/USB/Core/AVR8/Template/Template_Endpoint_RW.c **** 		TEMPLATE_BUFFER_MOVE(DataStream, *BytesProcessed);
 1248               		.loc 3 46 10 view .LVU306
 1249 002e C81B      		sub r28,r24
 1250 0030 D90B      		sbc r29,r25
 1251               	.LVL106:
  47:../../tmk_core/protocol/lufa/lufa-abcminiuser/LUFA/Drivers/USB/Core/AVR8/Template/Template_Endpoint_RW.c **** 	}
 1252               		.loc 3 47 3 is_stmt 1 view .LVU307
 1253 0032 080F      		add r16,r24
 1254 0034 191F      		adc r17,r25
 1255               	.LVL107:
 1256               	.L71:
  36:../../tmk_core/protocol/lufa/lufa-abcminiuser/LUFA/Drivers/USB/Core/AVR8/Template/Template_Endpoint_RW.c **** 	uint8_t* DataStream      = ((uint8_t*)Buffer + TEMPLATE_BUFFER_OFFSET(Length));
 1257               		.loc 3 36 1 is_stmt 0 view .LVU308
 1258 0036 B12C      		mov r11,__zero_reg__
 1259 0038 A12C      		mov r10,__zero_reg__
 1260               	.LVL108:
 1261               	.L72:
  50:../../tmk_core/protocol/lufa/lufa-abcminiuser/LUFA/Drivers/USB/Core/AVR8/Template/Template_Endpoint_RW.c **** 	{
 1262               		.loc 3 50 8 view .LVU309
 1263 003a 2097      		sbiw r28,0
 1264 003c 01F0      		breq .L69
  52:../../tmk_core/protocol/lufa/lufa-abcminiuser/LUFA/Drivers/USB/Core/AVR8/Template/Template_Endpoint_RW.c **** 		{
 1265               		.loc 3 52 3 is_stmt 1 view .LVU310
 1266               	.LBB304:
 1267               	.LBI304:
 358:../../tmk_core/protocol/lufa/lufa-abcminiuser/LUFA/Drivers/USB/Core/AVR8/../AVR8/../AVR8/Endpoint_AVR8.h **** 			{
 1268               		.loc 2 358 23 view .LVU311
 1269               	.LBB305:
 360:../../tmk_core/protocol/lufa/lufa-abcminiuser/LUFA/Drivers/USB/Core/AVR8/../AVR8/../AVR8/Endpoint_AVR8.h **** 			}
 1270               		.loc 2 360 5 view .LVU312
 360:../../tmk_core/protocol/lufa/lufa-abcminiuser/LUFA/Drivers/USB/Core/AVR8/../AVR8/../AVR8/Endpoint_AVR8.h **** 			}
 1271               		.loc 2 360 14 is_stmt 0 view .LVU313
 1272 003e 8091 E800 		lds r24,232
 1273               	.LBE305:
 1274               	.LBE304:
  52:../../tmk_core/protocol/lufa/lufa-abcminiuser/LUFA/Drivers/USB/Core/AVR8/Template/Template_Endpoint_RW.c **** 		{
 1275               		.loc 3 52 6 view .LVU314
 1276 0042 85FD      		sbrc r24,5
 1277 0044 00C0      		rjmp .L73
  54:../../tmk_core/protocol/lufa/lufa-abcminiuser/LUFA/Drivers/USB/Core/AVR8/Template/Template_Endpoint_RW.c **** 
 1278               		.loc 3 54 4 is_stmt 1 view .LVU315
 1279               	.LBB306:
 1280               	.LBI306:
 453:../../tmk_core/protocol/lufa/lufa-abcminiuser/LUFA/Drivers/USB/Core/AVR8/../AVR8/../AVR8/Endpoint_AVR8.h **** 			{
 1281               		.loc 2 453 23 view .LVU316
 1282               	.LBB307:
 456:../../tmk_core/protocol/lufa/lufa-abcminiuser/LUFA/Drivers/USB/Core/AVR8/../AVR8/../AVR8/Endpoint_AVR8.h **** 				#else
 1283               		.loc 2 456 6 view .LVU317
 456:../../tmk_core/protocol/lufa/lufa-abcminiuser/LUFA/Drivers/USB/Core/AVR8/../AVR8/../AVR8/Endpoint_AVR8.h **** 				#else
 1284               		.loc 2 456 13 is_stmt 0 view .LVU318
 1285 0046 8091 E800 		lds r24,232
 1286 004a 8E77      		andi r24,lo8(126)
 1287 004c 8093 E800 		sts 232,r24
 1288               	.LBE307:
 1289               	.LBE306:
  60:../../tmk_core/protocol/lufa/lufa-abcminiuser/LUFA/Drivers/USB/Core/AVR8/Template/Template_Endpoint_RW.c **** 			{
 1290               		.loc 3 60 4 is_stmt 1 view .LVU319
  60:../../tmk_core/protocol/lufa/lufa-abcminiuser/LUFA/Drivers/USB/Core/AVR8/Template/Template_Endpoint_RW.c **** 			{
 1291               		.loc 3 60 7 is_stmt 0 view .LVU320
 1292 0050 E114      		cp r14,__zero_reg__
 1293 0052 F104      		cpc r15,__zero_reg__
 1294 0054 01F0      		breq .L74
  62:../../tmk_core/protocol/lufa/lufa-abcminiuser/LUFA/Drivers/USB/Core/AVR8/Template/Template_Endpoint_RW.c **** 				return ENDPOINT_RWSTREAM_IncompleteTransfer;
 1295               		.loc 3 62 5 is_stmt 1 view .LVU321
  62:../../tmk_core/protocol/lufa/lufa-abcminiuser/LUFA/Drivers/USB/Core/AVR8/Template/Template_Endpoint_RW.c **** 				return ENDPOINT_RWSTREAM_IncompleteTransfer;
 1296               		.loc 3 62 21 is_stmt 0 view .LVU322
 1297 0056 F701      		movw r30,r14
 1298 0058 8081      		ld r24,Z
 1299 005a 9181      		ldd r25,Z+1
 1300 005c A80E      		add r10,r24
 1301 005e B91E      		adc r11,r25
 1302               	.LVL109:
  62:../../tmk_core/protocol/lufa/lufa-abcminiuser/LUFA/Drivers/USB/Core/AVR8/Template/Template_Endpoint_RW.c **** 				return ENDPOINT_RWSTREAM_IncompleteTransfer;
 1303               		.loc 3 62 21 view .LVU323
 1304 0060 B182      		std Z+1,r11
 1305 0062 A082      		st Z,r10
  63:../../tmk_core/protocol/lufa/lufa-abcminiuser/LUFA/Drivers/USB/Core/AVR8/Template/Template_Endpoint_RW.c **** 			}
 1306               		.loc 3 63 5 is_stmt 1 view .LVU324
  63:../../tmk_core/protocol/lufa/lufa-abcminiuser/LUFA/Drivers/USB/Core/AVR8/Template/Template_Endpoint_RW.c **** 			}
 1307               		.loc 3 63 12 is_stmt 0 view .LVU325
 1308 0064 85E0      		ldi r24,lo8(5)
 1309 0066 D82E      		mov r13,r24
 1310               	.L69:
 1311               		.loc 3 79 1 view .LVU326
 1312 0068 8D2D      		mov r24,r13
 1313               	/* epilogue start */
 1314 006a DF91      		pop r29
 1315 006c CF91      		pop r28
 1316               	.LVL110:
 1317               		.loc 3 79 1 view .LVU327
 1318 006e 1F91      		pop r17
 1319 0070 0F91      		pop r16
 1320               	.LVL111:
 1321               		.loc 3 79 1 view .LVU328
 1322 0072 FF90      		pop r15
 1323 0074 EF90      		pop r14
 1324               	.LVL112:
 1325               		.loc 3 79 1 view .LVU329
 1326 0076 DF90      		pop r13
 1327 0078 BF90      		pop r11
 1328 007a AF90      		pop r10
 1329 007c 0895      		ret
 1330               	.LVL113:
 1331               	.L74:
  66:../../tmk_core/protocol/lufa/lufa-abcminiuser/LUFA/Drivers/USB/Core/AVR8/Template/Template_Endpoint_RW.c **** 			  return ErrorCode;
 1332               		.loc 3 66 4 is_stmt 1 view .LVU330
  66:../../tmk_core/protocol/lufa/lufa-abcminiuser/LUFA/Drivers/USB/Core/AVR8/Template/Template_Endpoint_RW.c **** 			  return ErrorCode;
 1333               		.loc 3 66 21 is_stmt 0 view .LVU331
 1334 007e 0E94 0000 		call Endpoint_WaitUntilReady
 1335               	.LVL114:
  66:../../tmk_core/protocol/lufa/lufa-abcminiuser/LUFA/Drivers/USB/Core/AVR8/Template/Template_Endpoint_RW.c **** 			  return ErrorCode;
 1336               		.loc 3 66 7 view .LVU332
 1337 0082 8823      		tst r24
 1338 0084 01F0      		breq .L72
  66:../../tmk_core/protocol/lufa/lufa-abcminiuser/LUFA/Drivers/USB/Core/AVR8/Template/Template_Endpoint_RW.c **** 			  return ErrorCode;
 1339               		.loc 3 66 21 view .LVU333
 1340 0086 D82E      		mov r13,r24
 1341 0088 00C0      		rjmp .L69
 1342               	.LVL115:
 1343               	.L73:
  71:../../tmk_core/protocol/lufa/lufa-abcminiuser/LUFA/Drivers/USB/Core/AVR8/Template/Template_Endpoint_RW.c **** 			TEMPLATE_BUFFER_MOVE(DataStream, 1);
 1344               		.loc 3 71 4 is_stmt 1 view .LVU334
 1345               	.LBB308:
  71:../../tmk_core/protocol/lufa/lufa-abcminiuser/LUFA/Drivers/USB/Core/AVR8/Template/Template_Endpoint_RW.c **** 			TEMPLATE_BUFFER_MOVE(DataStream, 1);
 1346               		.loc 3 71 4 view .LVU335
  71:../../tmk_core/protocol/lufa/lufa-abcminiuser/LUFA/Drivers/USB/Core/AVR8/Template/Template_Endpoint_RW.c **** 			TEMPLATE_BUFFER_MOVE(DataStream, 1);
 1347               		.loc 3 71 4 view .LVU336
  71:../../tmk_core/protocol/lufa/lufa-abcminiuser/LUFA/Drivers/USB/Core/AVR8/Template/Template_Endpoint_RW.c **** 			TEMPLATE_BUFFER_MOVE(DataStream, 1);
 1348               		.loc 3 71 4 view .LVU337
 1349 008a F801      		movw r30,r16
 1350               	/* #APP */
 1351               	 ;  71 "../../tmk_core/protocol/lufa/lufa-abcminiuser/LUFA/Drivers/USB/Core/AVR8/Template/Template_
 1352 008c 8491      		lpm r24, Z
 1353               		
 1354               	 ;  0 "" 2
 1355               	.LVL116:
  71:../../tmk_core/protocol/lufa/lufa-abcminiuser/LUFA/Drivers/USB/Core/AVR8/Template/Template_Endpoint_RW.c **** 			TEMPLATE_BUFFER_MOVE(DataStream, 1);
 1356               		.loc 3 71 4 view .LVU338
  71:../../tmk_core/protocol/lufa/lufa-abcminiuser/LUFA/Drivers/USB/Core/AVR8/Template/Template_Endpoint_RW.c **** 			TEMPLATE_BUFFER_MOVE(DataStream, 1);
 1357               		.loc 3 71 4 is_stmt 0 view .LVU339
 1358               	/* #NOAPP */
 1359               	.LBE308:
 1360               	.LBB309:
 1361               	.LBI309:
 552:../../tmk_core/protocol/lufa/lufa-abcminiuser/LUFA/Drivers/USB/Core/AVR8/../AVR8/../AVR8/Endpoint_AVR8.h **** 			{
 1362               		.loc 2 552 23 is_stmt 1 view .LVU340
 1363               	.LBB310:
 554:../../tmk_core/protocol/lufa/lufa-abcminiuser/LUFA/Drivers/USB/Core/AVR8/../AVR8/../AVR8/Endpoint_AVR8.h **** 			}
 1364               		.loc 2 554 5 view .LVU341
 554:../../tmk_core/protocol/lufa/lufa-abcminiuser/LUFA/Drivers/USB/Core/AVR8/../AVR8/../AVR8/Endpoint_AVR8.h **** 			}
 1365               		.loc 2 554 12 is_stmt 0 view .LVU342
 1366 008e 8093 F100 		sts 241,r24
 1367               	.LVL117:
 554:../../tmk_core/protocol/lufa/lufa-abcminiuser/LUFA/Drivers/USB/Core/AVR8/../AVR8/../AVR8/Endpoint_AVR8.h **** 			}
 1368               		.loc 2 554 12 view .LVU343
 1369               	.LBE310:
 1370               	.LBE309:
  72:../../tmk_core/protocol/lufa/lufa-abcminiuser/LUFA/Drivers/USB/Core/AVR8/Template/Template_Endpoint_RW.c **** 			Length--;
 1371               		.loc 3 72 4 is_stmt 1 view .LVU344
 1372 0092 0F5F      		subi r16,-1
 1373 0094 1F4F      		sbci r17,-1
 1374               	.LVL118:
  73:../../tmk_core/protocol/lufa/lufa-abcminiuser/LUFA/Drivers/USB/Core/AVR8/Template/Template_Endpoint_RW.c **** 			BytesInTransfer++;
 1375               		.loc 3 73 4 view .LVU345
  73:../../tmk_core/protocol/lufa/lufa-abcminiuser/LUFA/Drivers/USB/Core/AVR8/Template/Template_Endpoint_RW.c **** 			BytesInTransfer++;
 1376               		.loc 3 73 10 is_stmt 0 view .LVU346
 1377 0096 2197      		sbiw r28,1
 1378               	.LVL119:
  74:../../tmk_core/protocol/lufa/lufa-abcminiuser/LUFA/Drivers/USB/Core/AVR8/Template/Template_Endpoint_RW.c **** 		}
 1379               		.loc 3 74 4 is_stmt 1 view .LVU347
  74:../../tmk_core/protocol/lufa/lufa-abcminiuser/LUFA/Drivers/USB/Core/AVR8/Template/Template_Endpoint_RW.c **** 		}
 1380               		.loc 3 74 19 is_stmt 0 view .LVU348
 1381 0098 FFEF      		ldi r31,-1
 1382 009a AF1A      		sub r10,r31
 1383 009c BF0A      		sbc r11,r31
 1384               	.LVL120:
  74:../../tmk_core/protocol/lufa/lufa-abcminiuser/LUFA/Drivers/USB/Core/AVR8/Template/Template_Endpoint_RW.c **** 		}
 1385               		.loc 3 74 19 view .LVU349
 1386 009e 00C0      		rjmp .L72
 1387               		.cfi_endproc
 1388               	.LFE91:
 1390               		.section	.text.Endpoint_Write_PStream_BE,"ax",@progbits
 1391               	.global	Endpoint_Write_PStream_BE
 1393               	Endpoint_Write_PStream_BE:
 1394               	.LVL121:
 1395               	.LFB92:
  36:../../tmk_core/protocol/lufa/lufa-abcminiuser/LUFA/Drivers/USB/Core/AVR8/Template/Template_Endpoint_RW.c **** 	uint8_t* DataStream      = ((uint8_t*)Buffer + TEMPLATE_BUFFER_OFFSET(Length));
 1396               		.loc 3 36 1 is_stmt 1 view -0
 1397               		.cfi_startproc
  36:../../tmk_core/protocol/lufa/lufa-abcminiuser/LUFA/Drivers/USB/Core/AVR8/Template/Template_Endpoint_RW.c **** 	uint8_t* DataStream      = ((uint8_t*)Buffer + TEMPLATE_BUFFER_OFFSET(Length));
 1398               		.loc 3 36 1 is_stmt 0 view .LVU351
 1399 0000 AF92      		push r10
 1400               	.LCFI59:
 1401               		.cfi_def_cfa_offset 3
 1402               		.cfi_offset 10, -2
 1403 0002 BF92      		push r11
 1404               	.LCFI60:
 1405               		.cfi_def_cfa_offset 4
 1406               		.cfi_offset 11, -3
 1407 0004 DF92      		push r13
 1408               	.LCFI61:
 1409               		.cfi_def_cfa_offset 5
 1410               		.cfi_offset 13, -4
 1411 0006 EF92      		push r14
 1412               	.LCFI62:
 1413               		.cfi_def_cfa_offset 6
 1414               		.cfi_offset 14, -5
 1415 0008 FF92      		push r15
 1416               	.LCFI63:
 1417               		.cfi_def_cfa_offset 7
 1418               		.cfi_offset 15, -6
 1419 000a 0F93      		push r16
 1420               	.LCFI64:
 1421               		.cfi_def_cfa_offset 8
 1422               		.cfi_offset 16, -7
 1423 000c 1F93      		push r17
 1424               	.LCFI65:
 1425               		.cfi_def_cfa_offset 9
 1426               		.cfi_offset 17, -8
 1427 000e CF93      		push r28
 1428               	.LCFI66:
 1429               		.cfi_def_cfa_offset 10
 1430               		.cfi_offset 28, -9
 1431 0010 DF93      		push r29
 1432               	.LCFI67:
 1433               		.cfi_def_cfa_offset 11
 1434               		.cfi_offset 29, -10
 1435               	/* prologue: function */
 1436               	/* frame size = 0 */
 1437               	/* stack size = 9 */
 1438               	.L__stack_usage = 9
 1439 0012 EC01      		movw r28,r24
 1440 0014 8B01      		movw r16,r22
 1441 0016 7A01      		movw r14,r20
  37:../../tmk_core/protocol/lufa/lufa-abcminiuser/LUFA/Drivers/USB/Core/AVR8/Template/Template_Endpoint_RW.c **** 	uint16_t BytesInTransfer = 0;
 1442               		.loc 3 37 2 is_stmt 1 view .LVU352
 1443               	.LVL122:
  38:../../tmk_core/protocol/lufa/lufa-abcminiuser/LUFA/Drivers/USB/Core/AVR8/Template/Template_Endpoint_RW.c **** 	uint8_t  ErrorCode;
 1444               		.loc 3 38 2 view .LVU353
  39:../../tmk_core/protocol/lufa/lufa-abcminiuser/LUFA/Drivers/USB/Core/AVR8/Template/Template_Endpoint_RW.c **** 
 1445               		.loc 3 39 2 view .LVU354
  41:../../tmk_core/protocol/lufa/lufa-abcminiuser/LUFA/Drivers/USB/Core/AVR8/Template/Template_Endpoint_RW.c **** 	  return ErrorCode;
 1446               		.loc 3 41 2 view .LVU355
  41:../../tmk_core/protocol/lufa/lufa-abcminiuser/LUFA/Drivers/USB/Core/AVR8/Template/Template_Endpoint_RW.c **** 	  return ErrorCode;
 1447               		.loc 3 41 19 is_stmt 0 view .LVU356
 1448 0018 0E94 0000 		call Endpoint_WaitUntilReady
 1449               	.LVL123:
  41:../../tmk_core/protocol/lufa/lufa-abcminiuser/LUFA/Drivers/USB/Core/AVR8/Template/Template_Endpoint_RW.c **** 	  return ErrorCode;
 1450               		.loc 3 41 19 view .LVU357
 1451 001c D82E      		mov r13,r24
 1452               	.LVL124:
  41:../../tmk_core/protocol/lufa/lufa-abcminiuser/LUFA/Drivers/USB/Core/AVR8/Template/Template_Endpoint_RW.c **** 	  return ErrorCode;
 1453               		.loc 3 41 5 view .LVU358
 1454 001e 8111      		cpse r24,__zero_reg__
 1455 0020 00C0      		rjmp .L81
  37:../../tmk_core/protocol/lufa/lufa-abcminiuser/LUFA/Drivers/USB/Core/AVR8/Template/Template_Endpoint_RW.c **** 	uint16_t BytesInTransfer = 0;
 1456               		.loc 3 37 47 view .LVU359
 1457 0022 C801      		movw r24,r16
 1458 0024 0197      		sbiw r24,1
 1459               	.LVL125:
  37:../../tmk_core/protocol/lufa/lufa-abcminiuser/LUFA/Drivers/USB/Core/AVR8/Template/Template_Endpoint_RW.c **** 	uint16_t BytesInTransfer = 0;
 1460               		.loc 3 37 11 view .LVU360
 1461 0026 C80F      		add r28,r24
 1462 0028 D91F      		adc r29,r25
 1463               	.LVL126:
  44:../../tmk_core/protocol/lufa/lufa-abcminiuser/LUFA/Drivers/USB/Core/AVR8/Template/Template_Endpoint_RW.c **** 	{
 1464               		.loc 3 44 2 is_stmt 1 view .LVU361
  44:../../tmk_core/protocol/lufa/lufa-abcminiuser/LUFA/Drivers/USB/Core/AVR8/Template/Template_Endpoint_RW.c **** 	{
 1465               		.loc 3 44 5 is_stmt 0 view .LVU362
 1466 002a E114      		cp r14,__zero_reg__
 1467 002c F104      		cpc r15,__zero_reg__
 1468 002e 01F0      		breq .L83
  46:../../tmk_core/protocol/lufa/lufa-abcminiuser/LUFA/Drivers/USB/Core/AVR8/Template/Template_Endpoint_RW.c **** 		TEMPLATE_BUFFER_MOVE(DataStream, *BytesProcessed);
 1469               		.loc 3 46 3 is_stmt 1 view .LVU363
  46:../../tmk_core/protocol/lufa/lufa-abcminiuser/LUFA/Drivers/USB/Core/AVR8/Template/Template_Endpoint_RW.c **** 		TEMPLATE_BUFFER_MOVE(DataStream, *BytesProcessed);
 1470               		.loc 3 46 13 is_stmt 0 view .LVU364
 1471 0030 F701      		movw r30,r14
 1472 0032 8081      		ld r24,Z
 1473 0034 9181      		ldd r25,Z+1
 1474               	.LVL127:
  46:../../tmk_core/protocol/lufa/lufa-abcminiuser/LUFA/Drivers/USB/Core/AVR8/Template/Template_Endpoint_RW.c **** 		TEMPLATE_BUFFER_MOVE(DataStream, *BytesProcessed);
 1475               		.loc 3 46 10 view .LVU365
 1476 0036 081B      		sub r16,r24
 1477 0038 190B      		sbc r17,r25
 1478               	.LVL128:
  47:../../tmk_core/protocol/lufa/lufa-abcminiuser/LUFA/Drivers/USB/Core/AVR8/Template/Template_Endpoint_RW.c **** 	}
 1479               		.loc 3 47 3 is_stmt 1 view .LVU366
 1480 003a C81B      		sub r28,r24
 1481 003c D90B      		sbc r29,r25
 1482               	.LVL129:
 1483               	.L83:
  36:../../tmk_core/protocol/lufa/lufa-abcminiuser/LUFA/Drivers/USB/Core/AVR8/Template/Template_Endpoint_RW.c **** 	uint8_t* DataStream      = ((uint8_t*)Buffer + TEMPLATE_BUFFER_OFFSET(Length));
 1484               		.loc 3 36 1 is_stmt 0 view .LVU367
 1485 003e B12C      		mov r11,__zero_reg__
 1486 0040 A12C      		mov r10,__zero_reg__
 1487               	.LVL130:
 1488               	.L84:
  50:../../tmk_core/protocol/lufa/lufa-abcminiuser/LUFA/Drivers/USB/Core/AVR8/Template/Template_Endpoint_RW.c **** 	{
 1489               		.loc 3 50 8 view .LVU368
 1490 0042 0115      		cp r16,__zero_reg__
 1491 0044 1105      		cpc r17,__zero_reg__
 1492 0046 01F0      		breq .L81
  52:../../tmk_core/protocol/lufa/lufa-abcminiuser/LUFA/Drivers/USB/Core/AVR8/Template/Template_Endpoint_RW.c **** 		{
 1493               		.loc 3 52 3 is_stmt 1 view .LVU369
 1494               	.LBB311:
 1495               	.LBI311:
 358:../../tmk_core/protocol/lufa/lufa-abcminiuser/LUFA/Drivers/USB/Core/AVR8/../AVR8/../AVR8/Endpoint_AVR8.h **** 			{
 1496               		.loc 2 358 23 view .LVU370
 1497               	.LBB312:
 360:../../tmk_core/protocol/lufa/lufa-abcminiuser/LUFA/Drivers/USB/Core/AVR8/../AVR8/../AVR8/Endpoint_AVR8.h **** 			}
 1498               		.loc 2 360 5 view .LVU371
 360:../../tmk_core/protocol/lufa/lufa-abcminiuser/LUFA/Drivers/USB/Core/AVR8/../AVR8/../AVR8/Endpoint_AVR8.h **** 			}
 1499               		.loc 2 360 14 is_stmt 0 view .LVU372
 1500 0048 8091 E800 		lds r24,232
 1501               	.LBE312:
 1502               	.LBE311:
  52:../../tmk_core/protocol/lufa/lufa-abcminiuser/LUFA/Drivers/USB/Core/AVR8/Template/Template_Endpoint_RW.c **** 		{
 1503               		.loc 3 52 6 view .LVU373
 1504 004c 85FD      		sbrc r24,5
 1505 004e 00C0      		rjmp .L85
  54:../../tmk_core/protocol/lufa/lufa-abcminiuser/LUFA/Drivers/USB/Core/AVR8/Template/Template_Endpoint_RW.c **** 
 1506               		.loc 3 54 4 is_stmt 1 view .LVU374
 1507               	.LBB313:
 1508               	.LBI313:
 453:../../tmk_core/protocol/lufa/lufa-abcminiuser/LUFA/Drivers/USB/Core/AVR8/../AVR8/../AVR8/Endpoint_AVR8.h **** 			{
 1509               		.loc 2 453 23 view .LVU375
 1510               	.LBB314:
 456:../../tmk_core/protocol/lufa/lufa-abcminiuser/LUFA/Drivers/USB/Core/AVR8/../AVR8/../AVR8/Endpoint_AVR8.h **** 				#else
 1511               		.loc 2 456 6 view .LVU376
 456:../../tmk_core/protocol/lufa/lufa-abcminiuser/LUFA/Drivers/USB/Core/AVR8/../AVR8/../AVR8/Endpoint_AVR8.h **** 				#else
 1512               		.loc 2 456 13 is_stmt 0 view .LVU377
 1513 0050 8091 E800 		lds r24,232
 1514 0054 8E77      		andi r24,lo8(126)
 1515 0056 8093 E800 		sts 232,r24
 1516               	.LBE314:
 1517               	.LBE313:
  60:../../tmk_core/protocol/lufa/lufa-abcminiuser/LUFA/Drivers/USB/Core/AVR8/Template/Template_Endpoint_RW.c **** 			{
 1518               		.loc 3 60 4 is_stmt 1 view .LVU378
  60:../../tmk_core/protocol/lufa/lufa-abcminiuser/LUFA/Drivers/USB/Core/AVR8/Template/Template_Endpoint_RW.c **** 			{
 1519               		.loc 3 60 7 is_stmt 0 view .LVU379
 1520 005a E114      		cp r14,__zero_reg__
 1521 005c F104      		cpc r15,__zero_reg__
 1522 005e 01F0      		breq .L86
  62:../../tmk_core/protocol/lufa/lufa-abcminiuser/LUFA/Drivers/USB/Core/AVR8/Template/Template_Endpoint_RW.c **** 				return ENDPOINT_RWSTREAM_IncompleteTransfer;
 1523               		.loc 3 62 5 is_stmt 1 view .LVU380
  62:../../tmk_core/protocol/lufa/lufa-abcminiuser/LUFA/Drivers/USB/Core/AVR8/Template/Template_Endpoint_RW.c **** 				return ENDPOINT_RWSTREAM_IncompleteTransfer;
 1524               		.loc 3 62 21 is_stmt 0 view .LVU381
 1525 0060 F701      		movw r30,r14
 1526 0062 8081      		ld r24,Z
 1527 0064 9181      		ldd r25,Z+1
 1528 0066 A80E      		add r10,r24
 1529 0068 B91E      		adc r11,r25
 1530               	.LVL131:
  62:../../tmk_core/protocol/lufa/lufa-abcminiuser/LUFA/Drivers/USB/Core/AVR8/Template/Template_Endpoint_RW.c **** 				return ENDPOINT_RWSTREAM_IncompleteTransfer;
 1531               		.loc 3 62 21 view .LVU382
 1532 006a B182      		std Z+1,r11
 1533 006c A082      		st Z,r10
  63:../../tmk_core/protocol/lufa/lufa-abcminiuser/LUFA/Drivers/USB/Core/AVR8/Template/Template_Endpoint_RW.c **** 			}
 1534               		.loc 3 63 5 is_stmt 1 view .LVU383
  63:../../tmk_core/protocol/lufa/lufa-abcminiuser/LUFA/Drivers/USB/Core/AVR8/Template/Template_Endpoint_RW.c **** 			}
 1535               		.loc 3 63 12 is_stmt 0 view .LVU384
 1536 006e 85E0      		ldi r24,lo8(5)
 1537 0070 D82E      		mov r13,r24
 1538               	.LVL132:
 1539               	.L81:
 1540               		.loc 3 79 1 view .LVU385
 1541 0072 8D2D      		mov r24,r13
 1542               	/* epilogue start */
 1543 0074 DF91      		pop r29
 1544 0076 CF91      		pop r28
 1545 0078 1F91      		pop r17
 1546 007a 0F91      		pop r16
 1547               	.LVL133:
 1548               		.loc 3 79 1 view .LVU386
 1549 007c FF90      		pop r15
 1550 007e EF90      		pop r14
 1551               	.LVL134:
 1552               		.loc 3 79 1 view .LVU387
 1553 0080 DF90      		pop r13
 1554 0082 BF90      		pop r11
 1555 0084 AF90      		pop r10
 1556 0086 0895      		ret
 1557               	.LVL135:
 1558               	.L86:
  66:../../tmk_core/protocol/lufa/lufa-abcminiuser/LUFA/Drivers/USB/Core/AVR8/Template/Template_Endpoint_RW.c **** 			  return ErrorCode;
 1559               		.loc 3 66 4 is_stmt 1 view .LVU388
  66:../../tmk_core/protocol/lufa/lufa-abcminiuser/LUFA/Drivers/USB/Core/AVR8/Template/Template_Endpoint_RW.c **** 			  return ErrorCode;
 1560               		.loc 3 66 21 is_stmt 0 view .LVU389
 1561 0088 0E94 0000 		call Endpoint_WaitUntilReady
 1562               	.LVL136:
  66:../../tmk_core/protocol/lufa/lufa-abcminiuser/LUFA/Drivers/USB/Core/AVR8/Template/Template_Endpoint_RW.c **** 			  return ErrorCode;
 1563               		.loc 3 66 7 view .LVU390
 1564 008c 8823      		tst r24
 1565 008e 01F0      		breq .L84
  66:../../tmk_core/protocol/lufa/lufa-abcminiuser/LUFA/Drivers/USB/Core/AVR8/Template/Template_Endpoint_RW.c **** 			  return ErrorCode;
 1566               		.loc 3 66 21 view .LVU391
 1567 0090 D82E      		mov r13,r24
 1568 0092 00C0      		rjmp .L81
 1569               	.LVL137:
 1570               	.L85:
  71:../../tmk_core/protocol/lufa/lufa-abcminiuser/LUFA/Drivers/USB/Core/AVR8/Template/Template_Endpoint_RW.c **** 			TEMPLATE_BUFFER_MOVE(DataStream, 1);
 1571               		.loc 3 71 4 is_stmt 1 view .LVU392
 1572               	.LBB315:
  71:../../tmk_core/protocol/lufa/lufa-abcminiuser/LUFA/Drivers/USB/Core/AVR8/Template/Template_Endpoint_RW.c **** 			TEMPLATE_BUFFER_MOVE(DataStream, 1);
 1573               		.loc 3 71 4 view .LVU393
  71:../../tmk_core/protocol/lufa/lufa-abcminiuser/LUFA/Drivers/USB/Core/AVR8/Template/Template_Endpoint_RW.c **** 			TEMPLATE_BUFFER_MOVE(DataStream, 1);
 1574               		.loc 3 71 4 view .LVU394
  71:../../tmk_core/protocol/lufa/lufa-abcminiuser/LUFA/Drivers/USB/Core/AVR8/Template/Template_Endpoint_RW.c **** 			TEMPLATE_BUFFER_MOVE(DataStream, 1);
 1575               		.loc 3 71 4 view .LVU395
 1576 0094 FE01      		movw r30,r28
 1577               	/* #APP */
 1578               	 ;  71 "../../tmk_core/protocol/lufa/lufa-abcminiuser/LUFA/Drivers/USB/Core/AVR8/Template/Template_
 1579 0096 8491      		lpm r24, Z
 1580               		
 1581               	 ;  0 "" 2
 1582               	.LVL138:
  71:../../tmk_core/protocol/lufa/lufa-abcminiuser/LUFA/Drivers/USB/Core/AVR8/Template/Template_Endpoint_RW.c **** 			TEMPLATE_BUFFER_MOVE(DataStream, 1);
 1583               		.loc 3 71 4 view .LVU396
  71:../../tmk_core/protocol/lufa/lufa-abcminiuser/LUFA/Drivers/USB/Core/AVR8/Template/Template_Endpoint_RW.c **** 			TEMPLATE_BUFFER_MOVE(DataStream, 1);
 1584               		.loc 3 71 4 is_stmt 0 view .LVU397
 1585               	/* #NOAPP */
 1586               	.LBE315:
 1587               	.LBB316:
 1588               	.LBI316:
 552:../../tmk_core/protocol/lufa/lufa-abcminiuser/LUFA/Drivers/USB/Core/AVR8/../AVR8/../AVR8/Endpoint_AVR8.h **** 			{
 1589               		.loc 2 552 23 is_stmt 1 view .LVU398
 1590               	.LBB317:
 554:../../tmk_core/protocol/lufa/lufa-abcminiuser/LUFA/Drivers/USB/Core/AVR8/../AVR8/../AVR8/Endpoint_AVR8.h **** 			}
 1591               		.loc 2 554 5 view .LVU399
 554:../../tmk_core/protocol/lufa/lufa-abcminiuser/LUFA/Drivers/USB/Core/AVR8/../AVR8/../AVR8/Endpoint_AVR8.h **** 			}
 1592               		.loc 2 554 12 is_stmt 0 view .LVU400
 1593 0098 8093 F100 		sts 241,r24
 1594               	.LVL139:
 554:../../tmk_core/protocol/lufa/lufa-abcminiuser/LUFA/Drivers/USB/Core/AVR8/../AVR8/../AVR8/Endpoint_AVR8.h **** 			}
 1595               		.loc 2 554 12 view .LVU401
 1596               	.LBE317:
 1597               	.LBE316:
  72:../../tmk_core/protocol/lufa/lufa-abcminiuser/LUFA/Drivers/USB/Core/AVR8/Template/Template_Endpoint_RW.c **** 			Length--;
 1598               		.loc 3 72 4 is_stmt 1 view .LVU402
 1599 009c 2197      		sbiw r28,1
 1600               	.LVL140:
  73:../../tmk_core/protocol/lufa/lufa-abcminiuser/LUFA/Drivers/USB/Core/AVR8/Template/Template_Endpoint_RW.c **** 			BytesInTransfer++;
 1601               		.loc 3 73 4 view .LVU403
  73:../../tmk_core/protocol/lufa/lufa-abcminiuser/LUFA/Drivers/USB/Core/AVR8/Template/Template_Endpoint_RW.c **** 			BytesInTransfer++;
 1602               		.loc 3 73 10 is_stmt 0 view .LVU404
 1603 009e 0150      		subi r16,1
 1604 00a0 1109      		sbc r17,__zero_reg__
 1605               	.LVL141:
  74:../../tmk_core/protocol/lufa/lufa-abcminiuser/LUFA/Drivers/USB/Core/AVR8/Template/Template_Endpoint_RW.c **** 		}
 1606               		.loc 3 74 4 is_stmt 1 view .LVU405
  74:../../tmk_core/protocol/lufa/lufa-abcminiuser/LUFA/Drivers/USB/Core/AVR8/Template/Template_Endpoint_RW.c **** 		}
 1607               		.loc 3 74 19 is_stmt 0 view .LVU406
 1608 00a2 FFEF      		ldi r31,-1
 1609 00a4 AF1A      		sub r10,r31
 1610 00a6 BF0A      		sbc r11,r31
 1611               	.LVL142:
  74:../../tmk_core/protocol/lufa/lufa-abcminiuser/LUFA/Drivers/USB/Core/AVR8/Template/Template_Endpoint_RW.c **** 		}
 1612               		.loc 3 74 19 view .LVU407
 1613 00a8 00C0      		rjmp .L84
 1614               		.cfi_endproc
 1615               	.LFE92:
 1617               		.section	.text.Endpoint_Write_EStream_LE,"ax",@progbits
 1618               	.global	Endpoint_Write_EStream_LE
 1620               	Endpoint_Write_EStream_LE:
 1621               	.LVL143:
 1622               	.LFB93:
  36:../../tmk_core/protocol/lufa/lufa-abcminiuser/LUFA/Drivers/USB/Core/AVR8/Template/Template_Endpoint_RW.c **** 	uint8_t* DataStream      = ((uint8_t*)Buffer + TEMPLATE_BUFFER_OFFSET(Length));
 1623               		.loc 3 36 1 is_stmt 1 view -0
 1624               		.cfi_startproc
  36:../../tmk_core/protocol/lufa/lufa-abcminiuser/LUFA/Drivers/USB/Core/AVR8/Template/Template_Endpoint_RW.c **** 	uint8_t* DataStream      = ((uint8_t*)Buffer + TEMPLATE_BUFFER_OFFSET(Length));
 1625               		.loc 3 36 1 is_stmt 0 view .LVU409
 1626 0000 AF92      		push r10
 1627               	.LCFI68:
 1628               		.cfi_def_cfa_offset 3
 1629               		.cfi_offset 10, -2
 1630 0002 BF92      		push r11
 1631               	.LCFI69:
 1632               		.cfi_def_cfa_offset 4
 1633               		.cfi_offset 11, -3
 1634 0004 DF92      		push r13
 1635               	.LCFI70:
 1636               		.cfi_def_cfa_offset 5
 1637               		.cfi_offset 13, -4
 1638 0006 EF92      		push r14
 1639               	.LCFI71:
 1640               		.cfi_def_cfa_offset 6
 1641               		.cfi_offset 14, -5
 1642 0008 FF92      		push r15
 1643               	.LCFI72:
 1644               		.cfi_def_cfa_offset 7
 1645               		.cfi_offset 15, -6
 1646 000a 0F93      		push r16
 1647               	.LCFI73:
 1648               		.cfi_def_cfa_offset 8
 1649               		.cfi_offset 16, -7
 1650 000c 1F93      		push r17
 1651               	.LCFI74:
 1652               		.cfi_def_cfa_offset 9
 1653               		.cfi_offset 17, -8
 1654 000e CF93      		push r28
 1655               	.LCFI75:
 1656               		.cfi_def_cfa_offset 10
 1657               		.cfi_offset 28, -9
 1658 0010 DF93      		push r29
 1659               	.LCFI76:
 1660               		.cfi_def_cfa_offset 11
 1661               		.cfi_offset 29, -10
 1662               	/* prologue: function */
 1663               	/* frame size = 0 */
 1664               	/* stack size = 9 */
 1665               	.L__stack_usage = 9
 1666 0012 8C01      		movw r16,r24
 1667 0014 EB01      		movw r28,r22
 1668 0016 7A01      		movw r14,r20
  37:../../tmk_core/protocol/lufa/lufa-abcminiuser/LUFA/Drivers/USB/Core/AVR8/Template/Template_Endpoint_RW.c **** 	uint16_t BytesInTransfer = 0;
 1669               		.loc 3 37 2 is_stmt 1 view .LVU410
 1670               	.LVL144:
  38:../../tmk_core/protocol/lufa/lufa-abcminiuser/LUFA/Drivers/USB/Core/AVR8/Template/Template_Endpoint_RW.c **** 	uint8_t  ErrorCode;
 1671               		.loc 3 38 2 view .LVU411
  39:../../tmk_core/protocol/lufa/lufa-abcminiuser/LUFA/Drivers/USB/Core/AVR8/Template/Template_Endpoint_RW.c **** 
 1672               		.loc 3 39 2 view .LVU412
  41:../../tmk_core/protocol/lufa/lufa-abcminiuser/LUFA/Drivers/USB/Core/AVR8/Template/Template_Endpoint_RW.c **** 	  return ErrorCode;
 1673               		.loc 3 41 2 view .LVU413
  41:../../tmk_core/protocol/lufa/lufa-abcminiuser/LUFA/Drivers/USB/Core/AVR8/Template/Template_Endpoint_RW.c **** 	  return ErrorCode;
 1674               		.loc 3 41 19 is_stmt 0 view .LVU414
 1675 0018 0E94 0000 		call Endpoint_WaitUntilReady
 1676               	.LVL145:
  41:../../tmk_core/protocol/lufa/lufa-abcminiuser/LUFA/Drivers/USB/Core/AVR8/Template/Template_Endpoint_RW.c **** 	  return ErrorCode;
 1677               		.loc 3 41 19 view .LVU415
 1678 001c D82E      		mov r13,r24
 1679               	.LVL146:
  41:../../tmk_core/protocol/lufa/lufa-abcminiuser/LUFA/Drivers/USB/Core/AVR8/Template/Template_Endpoint_RW.c **** 	  return ErrorCode;
 1680               		.loc 3 41 5 view .LVU416
 1681 001e 8111      		cpse r24,__zero_reg__
 1682 0020 00C0      		rjmp .L93
  44:../../tmk_core/protocol/lufa/lufa-abcminiuser/LUFA/Drivers/USB/Core/AVR8/Template/Template_Endpoint_RW.c **** 	{
 1683               		.loc 3 44 2 is_stmt 1 view .LVU417
  44:../../tmk_core/protocol/lufa/lufa-abcminiuser/LUFA/Drivers/USB/Core/AVR8/Template/Template_Endpoint_RW.c **** 	{
 1684               		.loc 3 44 5 is_stmt 0 view .LVU418
 1685 0022 E114      		cp r14,__zero_reg__
 1686 0024 F104      		cpc r15,__zero_reg__
 1687 0026 01F0      		breq .L95
  46:../../tmk_core/protocol/lufa/lufa-abcminiuser/LUFA/Drivers/USB/Core/AVR8/Template/Template_Endpoint_RW.c **** 		TEMPLATE_BUFFER_MOVE(DataStream, *BytesProcessed);
 1688               		.loc 3 46 3 is_stmt 1 view .LVU419
  46:../../tmk_core/protocol/lufa/lufa-abcminiuser/LUFA/Drivers/USB/Core/AVR8/Template/Template_Endpoint_RW.c **** 		TEMPLATE_BUFFER_MOVE(DataStream, *BytesProcessed);
 1689               		.loc 3 46 13 is_stmt 0 view .LVU420
 1690 0028 F701      		movw r30,r14
 1691 002a 8081      		ld r24,Z
 1692 002c 9181      		ldd r25,Z+1
  46:../../tmk_core/protocol/lufa/lufa-abcminiuser/LUFA/Drivers/USB/Core/AVR8/Template/Template_Endpoint_RW.c **** 		TEMPLATE_BUFFER_MOVE(DataStream, *BytesProcessed);
 1693               		.loc 3 46 10 view .LVU421
 1694 002e C81B      		sub r28,r24
 1695 0030 D90B      		sbc r29,r25
 1696               	.LVL147:
  47:../../tmk_core/protocol/lufa/lufa-abcminiuser/LUFA/Drivers/USB/Core/AVR8/Template/Template_Endpoint_RW.c **** 	}
 1697               		.loc 3 47 3 is_stmt 1 view .LVU422
 1698 0032 080F      		add r16,r24
 1699 0034 191F      		adc r17,r25
 1700               	.LVL148:
 1701               	.L95:
  36:../../tmk_core/protocol/lufa/lufa-abcminiuser/LUFA/Drivers/USB/Core/AVR8/Template/Template_Endpoint_RW.c **** 	uint8_t* DataStream      = ((uint8_t*)Buffer + TEMPLATE_BUFFER_OFFSET(Length));
 1702               		.loc 3 36 1 is_stmt 0 view .LVU423
 1703 0036 B12C      		mov r11,__zero_reg__
 1704 0038 A12C      		mov r10,__zero_reg__
 1705               	.LVL149:
 1706               	.L96:
  50:../../tmk_core/protocol/lufa/lufa-abcminiuser/LUFA/Drivers/USB/Core/AVR8/Template/Template_Endpoint_RW.c **** 	{
 1707               		.loc 3 50 8 view .LVU424
 1708 003a 2097      		sbiw r28,0
 1709 003c 01F0      		breq .L93
  52:../../tmk_core/protocol/lufa/lufa-abcminiuser/LUFA/Drivers/USB/Core/AVR8/Template/Template_Endpoint_RW.c **** 		{
 1710               		.loc 3 52 3 is_stmt 1 view .LVU425
 1711               	.LBB318:
 1712               	.LBI318:
 358:../../tmk_core/protocol/lufa/lufa-abcminiuser/LUFA/Drivers/USB/Core/AVR8/../AVR8/../AVR8/Endpoint_AVR8.h **** 			{
 1713               		.loc 2 358 23 view .LVU426
 1714               	.LBB319:
 360:../../tmk_core/protocol/lufa/lufa-abcminiuser/LUFA/Drivers/USB/Core/AVR8/../AVR8/../AVR8/Endpoint_AVR8.h **** 			}
 1715               		.loc 2 360 5 view .LVU427
 360:../../tmk_core/protocol/lufa/lufa-abcminiuser/LUFA/Drivers/USB/Core/AVR8/../AVR8/../AVR8/Endpoint_AVR8.h **** 			}
 1716               		.loc 2 360 14 is_stmt 0 view .LVU428
 1717 003e 8091 E800 		lds r24,232
 1718               	.LBE319:
 1719               	.LBE318:
  52:../../tmk_core/protocol/lufa/lufa-abcminiuser/LUFA/Drivers/USB/Core/AVR8/Template/Template_Endpoint_RW.c **** 		{
 1720               		.loc 3 52 6 view .LVU429
 1721 0042 85FD      		sbrc r24,5
 1722 0044 00C0      		rjmp .L97
  54:../../tmk_core/protocol/lufa/lufa-abcminiuser/LUFA/Drivers/USB/Core/AVR8/Template/Template_Endpoint_RW.c **** 
 1723               		.loc 3 54 4 is_stmt 1 view .LVU430
 1724               	.LBB320:
 1725               	.LBI320:
 453:../../tmk_core/protocol/lufa/lufa-abcminiuser/LUFA/Drivers/USB/Core/AVR8/../AVR8/../AVR8/Endpoint_AVR8.h **** 			{
 1726               		.loc 2 453 23 view .LVU431
 1727               	.LBB321:
 456:../../tmk_core/protocol/lufa/lufa-abcminiuser/LUFA/Drivers/USB/Core/AVR8/../AVR8/../AVR8/Endpoint_AVR8.h **** 				#else
 1728               		.loc 2 456 6 view .LVU432
 456:../../tmk_core/protocol/lufa/lufa-abcminiuser/LUFA/Drivers/USB/Core/AVR8/../AVR8/../AVR8/Endpoint_AVR8.h **** 				#else
 1729               		.loc 2 456 13 is_stmt 0 view .LVU433
 1730 0046 8091 E800 		lds r24,232
 1731 004a 8E77      		andi r24,lo8(126)
 1732 004c 8093 E800 		sts 232,r24
 1733               	.LBE321:
 1734               	.LBE320:
  60:../../tmk_core/protocol/lufa/lufa-abcminiuser/LUFA/Drivers/USB/Core/AVR8/Template/Template_Endpoint_RW.c **** 			{
 1735               		.loc 3 60 4 is_stmt 1 view .LVU434
  60:../../tmk_core/protocol/lufa/lufa-abcminiuser/LUFA/Drivers/USB/Core/AVR8/Template/Template_Endpoint_RW.c **** 			{
 1736               		.loc 3 60 7 is_stmt 0 view .LVU435
 1737 0050 E114      		cp r14,__zero_reg__
 1738 0052 F104      		cpc r15,__zero_reg__
 1739 0054 01F0      		breq .L98
  62:../../tmk_core/protocol/lufa/lufa-abcminiuser/LUFA/Drivers/USB/Core/AVR8/Template/Template_Endpoint_RW.c **** 				return ENDPOINT_RWSTREAM_IncompleteTransfer;
 1740               		.loc 3 62 5 is_stmt 1 view .LVU436
  62:../../tmk_core/protocol/lufa/lufa-abcminiuser/LUFA/Drivers/USB/Core/AVR8/Template/Template_Endpoint_RW.c **** 				return ENDPOINT_RWSTREAM_IncompleteTransfer;
 1741               		.loc 3 62 21 is_stmt 0 view .LVU437
 1742 0056 F701      		movw r30,r14
 1743 0058 8081      		ld r24,Z
 1744 005a 9181      		ldd r25,Z+1
 1745 005c A80E      		add r10,r24
 1746 005e B91E      		adc r11,r25
 1747               	.LVL150:
  62:../../tmk_core/protocol/lufa/lufa-abcminiuser/LUFA/Drivers/USB/Core/AVR8/Template/Template_Endpoint_RW.c **** 				return ENDPOINT_RWSTREAM_IncompleteTransfer;
 1748               		.loc 3 62 21 view .LVU438
 1749 0060 B182      		std Z+1,r11
 1750 0062 A082      		st Z,r10
  63:../../tmk_core/protocol/lufa/lufa-abcminiuser/LUFA/Drivers/USB/Core/AVR8/Template/Template_Endpoint_RW.c **** 			}
 1751               		.loc 3 63 5 is_stmt 1 view .LVU439
  63:../../tmk_core/protocol/lufa/lufa-abcminiuser/LUFA/Drivers/USB/Core/AVR8/Template/Template_Endpoint_RW.c **** 			}
 1752               		.loc 3 63 12 is_stmt 0 view .LVU440
 1753 0064 85E0      		ldi r24,lo8(5)
 1754 0066 D82E      		mov r13,r24
 1755               	.L93:
 1756               		.loc 3 79 1 view .LVU441
 1757 0068 8D2D      		mov r24,r13
 1758               	/* epilogue start */
 1759 006a DF91      		pop r29
 1760 006c CF91      		pop r28
 1761               	.LVL151:
 1762               		.loc 3 79 1 view .LVU442
 1763 006e 1F91      		pop r17
 1764 0070 0F91      		pop r16
 1765               	.LVL152:
 1766               		.loc 3 79 1 view .LVU443
 1767 0072 FF90      		pop r15
 1768 0074 EF90      		pop r14
 1769               	.LVL153:
 1770               		.loc 3 79 1 view .LVU444
 1771 0076 DF90      		pop r13
 1772 0078 BF90      		pop r11
 1773 007a AF90      		pop r10
 1774 007c 0895      		ret
 1775               	.LVL154:
 1776               	.L98:
  66:../../tmk_core/protocol/lufa/lufa-abcminiuser/LUFA/Drivers/USB/Core/AVR8/Template/Template_Endpoint_RW.c **** 			  return ErrorCode;
 1777               		.loc 3 66 4 is_stmt 1 view .LVU445
  66:../../tmk_core/protocol/lufa/lufa-abcminiuser/LUFA/Drivers/USB/Core/AVR8/Template/Template_Endpoint_RW.c **** 			  return ErrorCode;
 1778               		.loc 3 66 21 is_stmt 0 view .LVU446
 1779 007e 0E94 0000 		call Endpoint_WaitUntilReady
 1780               	.LVL155:
  66:../../tmk_core/protocol/lufa/lufa-abcminiuser/LUFA/Drivers/USB/Core/AVR8/Template/Template_Endpoint_RW.c **** 			  return ErrorCode;
 1781               		.loc 3 66 7 view .LVU447
 1782 0082 8823      		tst r24
 1783 0084 01F0      		breq .L96
  66:../../tmk_core/protocol/lufa/lufa-abcminiuser/LUFA/Drivers/USB/Core/AVR8/Template/Template_Endpoint_RW.c **** 			  return ErrorCode;
 1784               		.loc 3 66 21 view .LVU448
 1785 0086 D82E      		mov r13,r24
 1786 0088 00C0      		rjmp .L93
 1787               	.LVL156:
 1788               	.L97:
  71:../../tmk_core/protocol/lufa/lufa-abcminiuser/LUFA/Drivers/USB/Core/AVR8/Template/Template_Endpoint_RW.c **** 			TEMPLATE_BUFFER_MOVE(DataStream, 1);
 1789               		.loc 3 71 4 is_stmt 1 view .LVU449
 1790 008a C801      		movw r24,r16
 1791 008c 0E94 0000 		call eeprom_read_byte
 1792               	.LVL157:
 1793               	.LBB322:
 1794               	.LBI322:
 552:../../tmk_core/protocol/lufa/lufa-abcminiuser/LUFA/Drivers/USB/Core/AVR8/../AVR8/../AVR8/Endpoint_AVR8.h **** 			{
 1795               		.loc 2 552 23 view .LVU450
 1796               	.LBB323:
 554:../../tmk_core/protocol/lufa/lufa-abcminiuser/LUFA/Drivers/USB/Core/AVR8/../AVR8/../AVR8/Endpoint_AVR8.h **** 			}
 1797               		.loc 2 554 5 view .LVU451
 554:../../tmk_core/protocol/lufa/lufa-abcminiuser/LUFA/Drivers/USB/Core/AVR8/../AVR8/../AVR8/Endpoint_AVR8.h **** 			}
 1798               		.loc 2 554 12 is_stmt 0 view .LVU452
 1799 0090 8093 F100 		sts 241,r24
 1800               	.LVL158:
 554:../../tmk_core/protocol/lufa/lufa-abcminiuser/LUFA/Drivers/USB/Core/AVR8/../AVR8/../AVR8/Endpoint_AVR8.h **** 			}
 1801               		.loc 2 554 12 view .LVU453
 1802               	.LBE323:
 1803               	.LBE322:
  72:../../tmk_core/protocol/lufa/lufa-abcminiuser/LUFA/Drivers/USB/Core/AVR8/Template/Template_Endpoint_RW.c **** 			Length--;
 1804               		.loc 3 72 4 is_stmt 1 view .LVU454
 1805 0094 0F5F      		subi r16,-1
 1806 0096 1F4F      		sbci r17,-1
 1807               	.LVL159:
  73:../../tmk_core/protocol/lufa/lufa-abcminiuser/LUFA/Drivers/USB/Core/AVR8/Template/Template_Endpoint_RW.c **** 			BytesInTransfer++;
 1808               		.loc 3 73 4 view .LVU455
  73:../../tmk_core/protocol/lufa/lufa-abcminiuser/LUFA/Drivers/USB/Core/AVR8/Template/Template_Endpoint_RW.c **** 			BytesInTransfer++;
 1809               		.loc 3 73 10 is_stmt 0 view .LVU456
 1810 0098 2197      		sbiw r28,1
 1811               	.LVL160:
  74:../../tmk_core/protocol/lufa/lufa-abcminiuser/LUFA/Drivers/USB/Core/AVR8/Template/Template_Endpoint_RW.c **** 		}
 1812               		.loc 3 74 4 is_stmt 1 view .LVU457
  74:../../tmk_core/protocol/lufa/lufa-abcminiuser/LUFA/Drivers/USB/Core/AVR8/Template/Template_Endpoint_RW.c **** 		}
 1813               		.loc 3 74 19 is_stmt 0 view .LVU458
 1814 009a FFEF      		ldi r31,-1
 1815 009c AF1A      		sub r10,r31
 1816 009e BF0A      		sbc r11,r31
 1817               	.LVL161:
  74:../../tmk_core/protocol/lufa/lufa-abcminiuser/LUFA/Drivers/USB/Core/AVR8/Template/Template_Endpoint_RW.c **** 		}
 1818               		.loc 3 74 19 view .LVU459
 1819 00a0 00C0      		rjmp .L96
 1820               		.cfi_endproc
 1821               	.LFE93:
 1823               		.section	.text.Endpoint_Write_EStream_BE,"ax",@progbits
 1824               	.global	Endpoint_Write_EStream_BE
 1826               	Endpoint_Write_EStream_BE:
 1827               	.LVL162:
 1828               	.LFB94:
  36:../../tmk_core/protocol/lufa/lufa-abcminiuser/LUFA/Drivers/USB/Core/AVR8/Template/Template_Endpoint_RW.c **** 	uint8_t* DataStream      = ((uint8_t*)Buffer + TEMPLATE_BUFFER_OFFSET(Length));
 1829               		.loc 3 36 1 is_stmt 1 view -0
 1830               		.cfi_startproc
  36:../../tmk_core/protocol/lufa/lufa-abcminiuser/LUFA/Drivers/USB/Core/AVR8/Template/Template_Endpoint_RW.c **** 	uint8_t* DataStream      = ((uint8_t*)Buffer + TEMPLATE_BUFFER_OFFSET(Length));
 1831               		.loc 3 36 1 is_stmt 0 view .LVU461
 1832 0000 AF92      		push r10
 1833               	.LCFI77:
 1834               		.cfi_def_cfa_offset 3
 1835               		.cfi_offset 10, -2
 1836 0002 BF92      		push r11
 1837               	.LCFI78:
 1838               		.cfi_def_cfa_offset 4
 1839               		.cfi_offset 11, -3
 1840 0004 DF92      		push r13
 1841               	.LCFI79:
 1842               		.cfi_def_cfa_offset 5
 1843               		.cfi_offset 13, -4
 1844 0006 EF92      		push r14
 1845               	.LCFI80:
 1846               		.cfi_def_cfa_offset 6
 1847               		.cfi_offset 14, -5
 1848 0008 FF92      		push r15
 1849               	.LCFI81:
 1850               		.cfi_def_cfa_offset 7
 1851               		.cfi_offset 15, -6
 1852 000a 0F93      		push r16
 1853               	.LCFI82:
 1854               		.cfi_def_cfa_offset 8
 1855               		.cfi_offset 16, -7
 1856 000c 1F93      		push r17
 1857               	.LCFI83:
 1858               		.cfi_def_cfa_offset 9
 1859               		.cfi_offset 17, -8
 1860 000e CF93      		push r28
 1861               	.LCFI84:
 1862               		.cfi_def_cfa_offset 10
 1863               		.cfi_offset 28, -9
 1864 0010 DF93      		push r29
 1865               	.LCFI85:
 1866               		.cfi_def_cfa_offset 11
 1867               		.cfi_offset 29, -10
 1868               	/* prologue: function */
 1869               	/* frame size = 0 */
 1870               	/* stack size = 9 */
 1871               	.L__stack_usage = 9
 1872 0012 EC01      		movw r28,r24
 1873 0014 8B01      		movw r16,r22
 1874 0016 7A01      		movw r14,r20
  37:../../tmk_core/protocol/lufa/lufa-abcminiuser/LUFA/Drivers/USB/Core/AVR8/Template/Template_Endpoint_RW.c **** 	uint16_t BytesInTransfer = 0;
 1875               		.loc 3 37 2 is_stmt 1 view .LVU462
 1876               	.LVL163:
  38:../../tmk_core/protocol/lufa/lufa-abcminiuser/LUFA/Drivers/USB/Core/AVR8/Template/Template_Endpoint_RW.c **** 	uint8_t  ErrorCode;
 1877               		.loc 3 38 2 view .LVU463
  39:../../tmk_core/protocol/lufa/lufa-abcminiuser/LUFA/Drivers/USB/Core/AVR8/Template/Template_Endpoint_RW.c **** 
 1878               		.loc 3 39 2 view .LVU464
  41:../../tmk_core/protocol/lufa/lufa-abcminiuser/LUFA/Drivers/USB/Core/AVR8/Template/Template_Endpoint_RW.c **** 	  return ErrorCode;
 1879               		.loc 3 41 2 view .LVU465
  41:../../tmk_core/protocol/lufa/lufa-abcminiuser/LUFA/Drivers/USB/Core/AVR8/Template/Template_Endpoint_RW.c **** 	  return ErrorCode;
 1880               		.loc 3 41 19 is_stmt 0 view .LVU466
 1881 0018 0E94 0000 		call Endpoint_WaitUntilReady
 1882               	.LVL164:
  41:../../tmk_core/protocol/lufa/lufa-abcminiuser/LUFA/Drivers/USB/Core/AVR8/Template/Template_Endpoint_RW.c **** 	  return ErrorCode;
 1883               		.loc 3 41 19 view .LVU467
 1884 001c D82E      		mov r13,r24
 1885               	.LVL165:
  41:../../tmk_core/protocol/lufa/lufa-abcminiuser/LUFA/Drivers/USB/Core/AVR8/Template/Template_Endpoint_RW.c **** 	  return ErrorCode;
 1886               		.loc 3 41 5 view .LVU468
 1887 001e 8111      		cpse r24,__zero_reg__
 1888 0020 00C0      		rjmp .L105
  37:../../tmk_core/protocol/lufa/lufa-abcminiuser/LUFA/Drivers/USB/Core/AVR8/Template/Template_Endpoint_RW.c **** 	uint16_t BytesInTransfer = 0;
 1889               		.loc 3 37 47 view .LVU469
 1890 0022 C801      		movw r24,r16
 1891 0024 0197      		sbiw r24,1
 1892               	.LVL166:
  37:../../tmk_core/protocol/lufa/lufa-abcminiuser/LUFA/Drivers/USB/Core/AVR8/Template/Template_Endpoint_RW.c **** 	uint16_t BytesInTransfer = 0;
 1893               		.loc 3 37 11 view .LVU470
 1894 0026 C80F      		add r28,r24
 1895 0028 D91F      		adc r29,r25
 1896               	.LVL167:
  44:../../tmk_core/protocol/lufa/lufa-abcminiuser/LUFA/Drivers/USB/Core/AVR8/Template/Template_Endpoint_RW.c **** 	{
 1897               		.loc 3 44 2 is_stmt 1 view .LVU471
  44:../../tmk_core/protocol/lufa/lufa-abcminiuser/LUFA/Drivers/USB/Core/AVR8/Template/Template_Endpoint_RW.c **** 	{
 1898               		.loc 3 44 5 is_stmt 0 view .LVU472
 1899 002a E114      		cp r14,__zero_reg__
 1900 002c F104      		cpc r15,__zero_reg__
 1901 002e 01F0      		breq .L107
  46:../../tmk_core/protocol/lufa/lufa-abcminiuser/LUFA/Drivers/USB/Core/AVR8/Template/Template_Endpoint_RW.c **** 		TEMPLATE_BUFFER_MOVE(DataStream, *BytesProcessed);
 1902               		.loc 3 46 3 is_stmt 1 view .LVU473
  46:../../tmk_core/protocol/lufa/lufa-abcminiuser/LUFA/Drivers/USB/Core/AVR8/Template/Template_Endpoint_RW.c **** 		TEMPLATE_BUFFER_MOVE(DataStream, *BytesProcessed);
 1903               		.loc 3 46 13 is_stmt 0 view .LVU474
 1904 0030 F701      		movw r30,r14
 1905 0032 8081      		ld r24,Z
 1906 0034 9181      		ldd r25,Z+1
 1907               	.LVL168:
  46:../../tmk_core/protocol/lufa/lufa-abcminiuser/LUFA/Drivers/USB/Core/AVR8/Template/Template_Endpoint_RW.c **** 		TEMPLATE_BUFFER_MOVE(DataStream, *BytesProcessed);
 1908               		.loc 3 46 10 view .LVU475
 1909 0036 081B      		sub r16,r24
 1910 0038 190B      		sbc r17,r25
 1911               	.LVL169:
  47:../../tmk_core/protocol/lufa/lufa-abcminiuser/LUFA/Drivers/USB/Core/AVR8/Template/Template_Endpoint_RW.c **** 	}
 1912               		.loc 3 47 3 is_stmt 1 view .LVU476
 1913 003a C81B      		sub r28,r24
 1914 003c D90B      		sbc r29,r25
 1915               	.LVL170:
 1916               	.L107:
  36:../../tmk_core/protocol/lufa/lufa-abcminiuser/LUFA/Drivers/USB/Core/AVR8/Template/Template_Endpoint_RW.c **** 	uint8_t* DataStream      = ((uint8_t*)Buffer + TEMPLATE_BUFFER_OFFSET(Length));
 1917               		.loc 3 36 1 is_stmt 0 view .LVU477
 1918 003e B12C      		mov r11,__zero_reg__
 1919 0040 A12C      		mov r10,__zero_reg__
 1920               	.LVL171:
 1921               	.L108:
  50:../../tmk_core/protocol/lufa/lufa-abcminiuser/LUFA/Drivers/USB/Core/AVR8/Template/Template_Endpoint_RW.c **** 	{
 1922               		.loc 3 50 8 view .LVU478
 1923 0042 0115      		cp r16,__zero_reg__
 1924 0044 1105      		cpc r17,__zero_reg__
 1925 0046 01F0      		breq .L105
  52:../../tmk_core/protocol/lufa/lufa-abcminiuser/LUFA/Drivers/USB/Core/AVR8/Template/Template_Endpoint_RW.c **** 		{
 1926               		.loc 3 52 3 is_stmt 1 view .LVU479
 1927               	.LBB324:
 1928               	.LBI324:
 358:../../tmk_core/protocol/lufa/lufa-abcminiuser/LUFA/Drivers/USB/Core/AVR8/../AVR8/../AVR8/Endpoint_AVR8.h **** 			{
 1929               		.loc 2 358 23 view .LVU480
 1930               	.LBB325:
 360:../../tmk_core/protocol/lufa/lufa-abcminiuser/LUFA/Drivers/USB/Core/AVR8/../AVR8/../AVR8/Endpoint_AVR8.h **** 			}
 1931               		.loc 2 360 5 view .LVU481
 360:../../tmk_core/protocol/lufa/lufa-abcminiuser/LUFA/Drivers/USB/Core/AVR8/../AVR8/../AVR8/Endpoint_AVR8.h **** 			}
 1932               		.loc 2 360 14 is_stmt 0 view .LVU482
 1933 0048 8091 E800 		lds r24,232
 1934               	.LBE325:
 1935               	.LBE324:
  52:../../tmk_core/protocol/lufa/lufa-abcminiuser/LUFA/Drivers/USB/Core/AVR8/Template/Template_Endpoint_RW.c **** 		{
 1936               		.loc 3 52 6 view .LVU483
 1937 004c 85FD      		sbrc r24,5
 1938 004e 00C0      		rjmp .L109
  54:../../tmk_core/protocol/lufa/lufa-abcminiuser/LUFA/Drivers/USB/Core/AVR8/Template/Template_Endpoint_RW.c **** 
 1939               		.loc 3 54 4 is_stmt 1 view .LVU484
 1940               	.LBB326:
 1941               	.LBI326:
 453:../../tmk_core/protocol/lufa/lufa-abcminiuser/LUFA/Drivers/USB/Core/AVR8/../AVR8/../AVR8/Endpoint_AVR8.h **** 			{
 1942               		.loc 2 453 23 view .LVU485
 1943               	.LBB327:
 456:../../tmk_core/protocol/lufa/lufa-abcminiuser/LUFA/Drivers/USB/Core/AVR8/../AVR8/../AVR8/Endpoint_AVR8.h **** 				#else
 1944               		.loc 2 456 6 view .LVU486
 456:../../tmk_core/protocol/lufa/lufa-abcminiuser/LUFA/Drivers/USB/Core/AVR8/../AVR8/../AVR8/Endpoint_AVR8.h **** 				#else
 1945               		.loc 2 456 13 is_stmt 0 view .LVU487
 1946 0050 8091 E800 		lds r24,232
 1947 0054 8E77      		andi r24,lo8(126)
 1948 0056 8093 E800 		sts 232,r24
 1949               	.LBE327:
 1950               	.LBE326:
  60:../../tmk_core/protocol/lufa/lufa-abcminiuser/LUFA/Drivers/USB/Core/AVR8/Template/Template_Endpoint_RW.c **** 			{
 1951               		.loc 3 60 4 is_stmt 1 view .LVU488
  60:../../tmk_core/protocol/lufa/lufa-abcminiuser/LUFA/Drivers/USB/Core/AVR8/Template/Template_Endpoint_RW.c **** 			{
 1952               		.loc 3 60 7 is_stmt 0 view .LVU489
 1953 005a E114      		cp r14,__zero_reg__
 1954 005c F104      		cpc r15,__zero_reg__
 1955 005e 01F0      		breq .L110
  62:../../tmk_core/protocol/lufa/lufa-abcminiuser/LUFA/Drivers/USB/Core/AVR8/Template/Template_Endpoint_RW.c **** 				return ENDPOINT_RWSTREAM_IncompleteTransfer;
 1956               		.loc 3 62 5 is_stmt 1 view .LVU490
  62:../../tmk_core/protocol/lufa/lufa-abcminiuser/LUFA/Drivers/USB/Core/AVR8/Template/Template_Endpoint_RW.c **** 				return ENDPOINT_RWSTREAM_IncompleteTransfer;
 1957               		.loc 3 62 21 is_stmt 0 view .LVU491
 1958 0060 F701      		movw r30,r14
 1959 0062 8081      		ld r24,Z
 1960 0064 9181      		ldd r25,Z+1
 1961 0066 A80E      		add r10,r24
 1962 0068 B91E      		adc r11,r25
 1963               	.LVL172:
  62:../../tmk_core/protocol/lufa/lufa-abcminiuser/LUFA/Drivers/USB/Core/AVR8/Template/Template_Endpoint_RW.c **** 				return ENDPOINT_RWSTREAM_IncompleteTransfer;
 1964               		.loc 3 62 21 view .LVU492
 1965 006a B182      		std Z+1,r11
 1966 006c A082      		st Z,r10
  63:../../tmk_core/protocol/lufa/lufa-abcminiuser/LUFA/Drivers/USB/Core/AVR8/Template/Template_Endpoint_RW.c **** 			}
 1967               		.loc 3 63 5 is_stmt 1 view .LVU493
  63:../../tmk_core/protocol/lufa/lufa-abcminiuser/LUFA/Drivers/USB/Core/AVR8/Template/Template_Endpoint_RW.c **** 			}
 1968               		.loc 3 63 12 is_stmt 0 view .LVU494
 1969 006e 85E0      		ldi r24,lo8(5)
 1970 0070 D82E      		mov r13,r24
 1971               	.LVL173:
 1972               	.L105:
 1973               		.loc 3 79 1 view .LVU495
 1974 0072 8D2D      		mov r24,r13
 1975               	/* epilogue start */
 1976 0074 DF91      		pop r29
 1977 0076 CF91      		pop r28
 1978 0078 1F91      		pop r17
 1979 007a 0F91      		pop r16
 1980               	.LVL174:
 1981               		.loc 3 79 1 view .LVU496
 1982 007c FF90      		pop r15
 1983 007e EF90      		pop r14
 1984               	.LVL175:
 1985               		.loc 3 79 1 view .LVU497
 1986 0080 DF90      		pop r13
 1987 0082 BF90      		pop r11
 1988 0084 AF90      		pop r10
 1989 0086 0895      		ret
 1990               	.LVL176:
 1991               	.L110:
  66:../../tmk_core/protocol/lufa/lufa-abcminiuser/LUFA/Drivers/USB/Core/AVR8/Template/Template_Endpoint_RW.c **** 			  return ErrorCode;
 1992               		.loc 3 66 4 is_stmt 1 view .LVU498
  66:../../tmk_core/protocol/lufa/lufa-abcminiuser/LUFA/Drivers/USB/Core/AVR8/Template/Template_Endpoint_RW.c **** 			  return ErrorCode;
 1993               		.loc 3 66 21 is_stmt 0 view .LVU499
 1994 0088 0E94 0000 		call Endpoint_WaitUntilReady
 1995               	.LVL177:
  66:../../tmk_core/protocol/lufa/lufa-abcminiuser/LUFA/Drivers/USB/Core/AVR8/Template/Template_Endpoint_RW.c **** 			  return ErrorCode;
 1996               		.loc 3 66 7 view .LVU500
 1997 008c 8823      		tst r24
 1998 008e 01F0      		breq .L108
  66:../../tmk_core/protocol/lufa/lufa-abcminiuser/LUFA/Drivers/USB/Core/AVR8/Template/Template_Endpoint_RW.c **** 			  return ErrorCode;
 1999               		.loc 3 66 21 view .LVU501
 2000 0090 D82E      		mov r13,r24
 2001 0092 00C0      		rjmp .L105
 2002               	.LVL178:
 2003               	.L109:
  71:../../tmk_core/protocol/lufa/lufa-abcminiuser/LUFA/Drivers/USB/Core/AVR8/Template/Template_Endpoint_RW.c **** 			TEMPLATE_BUFFER_MOVE(DataStream, 1);
 2004               		.loc 3 71 4 is_stmt 1 view .LVU502
 2005 0094 CE01      		movw r24,r28
 2006 0096 0E94 0000 		call eeprom_read_byte
 2007               	.LVL179:
 2008               	.LBB328:
 2009               	.LBI328:
 552:../../tmk_core/protocol/lufa/lufa-abcminiuser/LUFA/Drivers/USB/Core/AVR8/../AVR8/../AVR8/Endpoint_AVR8.h **** 			{
 2010               		.loc 2 552 23 view .LVU503
 2011               	.LBB329:
 554:../../tmk_core/protocol/lufa/lufa-abcminiuser/LUFA/Drivers/USB/Core/AVR8/../AVR8/../AVR8/Endpoint_AVR8.h **** 			}
 2012               		.loc 2 554 5 view .LVU504
 554:../../tmk_core/protocol/lufa/lufa-abcminiuser/LUFA/Drivers/USB/Core/AVR8/../AVR8/../AVR8/Endpoint_AVR8.h **** 			}
 2013               		.loc 2 554 12 is_stmt 0 view .LVU505
 2014 009a 8093 F100 		sts 241,r24
 2015               	.LVL180:
 554:../../tmk_core/protocol/lufa/lufa-abcminiuser/LUFA/Drivers/USB/Core/AVR8/../AVR8/../AVR8/Endpoint_AVR8.h **** 			}
 2016               		.loc 2 554 12 view .LVU506
 2017               	.LBE329:
 2018               	.LBE328:
  72:../../tmk_core/protocol/lufa/lufa-abcminiuser/LUFA/Drivers/USB/Core/AVR8/Template/Template_Endpoint_RW.c **** 			Length--;
 2019               		.loc 3 72 4 is_stmt 1 view .LVU507
 2020 009e 2197      		sbiw r28,1
 2021               	.LVL181:
  73:../../tmk_core/protocol/lufa/lufa-abcminiuser/LUFA/Drivers/USB/Core/AVR8/Template/Template_Endpoint_RW.c **** 			BytesInTransfer++;
 2022               		.loc 3 73 4 view .LVU508
  73:../../tmk_core/protocol/lufa/lufa-abcminiuser/LUFA/Drivers/USB/Core/AVR8/Template/Template_Endpoint_RW.c **** 			BytesInTransfer++;
 2023               		.loc 3 73 10 is_stmt 0 view .LVU509
 2024 00a0 0150      		subi r16,1
 2025 00a2 1109      		sbc r17,__zero_reg__
 2026               	.LVL182:
  74:../../tmk_core/protocol/lufa/lufa-abcminiuser/LUFA/Drivers/USB/Core/AVR8/Template/Template_Endpoint_RW.c **** 		}
 2027               		.loc 3 74 4 is_stmt 1 view .LVU510
  74:../../tmk_core/protocol/lufa/lufa-abcminiuser/LUFA/Drivers/USB/Core/AVR8/Template/Template_Endpoint_RW.c **** 		}
 2028               		.loc 3 74 19 is_stmt 0 view .LVU511
 2029 00a4 FFEF      		ldi r31,-1
 2030 00a6 AF1A      		sub r10,r31
 2031 00a8 BF0A      		sbc r11,r31
 2032               	.LVL183:
  74:../../tmk_core/protocol/lufa/lufa-abcminiuser/LUFA/Drivers/USB/Core/AVR8/Template/Template_Endpoint_RW.c **** 		}
 2033               		.loc 3 74 19 view .LVU512
 2034 00aa 00C0      		rjmp .L108
 2035               		.cfi_endproc
 2036               	.LFE94:
 2038               		.section	.text.Endpoint_Read_EStream_LE,"ax",@progbits
 2039               	.global	Endpoint_Read_EStream_LE
 2041               	Endpoint_Read_EStream_LE:
 2042               	.LVL184:
 2043               	.LFB95:
  36:../../tmk_core/protocol/lufa/lufa-abcminiuser/LUFA/Drivers/USB/Core/AVR8/Template/Template_Endpoint_RW.c **** 	uint8_t* DataStream      = ((uint8_t*)Buffer + TEMPLATE_BUFFER_OFFSET(Length));
 2044               		.loc 3 36 1 is_stmt 1 view -0
 2045               		.cfi_startproc
  36:../../tmk_core/protocol/lufa/lufa-abcminiuser/LUFA/Drivers/USB/Core/AVR8/Template/Template_Endpoint_RW.c **** 	uint8_t* DataStream      = ((uint8_t*)Buffer + TEMPLATE_BUFFER_OFFSET(Length));
 2046               		.loc 3 36 1 is_stmt 0 view .LVU514
 2047 0000 AF92      		push r10
 2048               	.LCFI86:
 2049               		.cfi_def_cfa_offset 3
 2050               		.cfi_offset 10, -2
 2051 0002 BF92      		push r11
 2052               	.LCFI87:
 2053               		.cfi_def_cfa_offset 4
 2054               		.cfi_offset 11, -3
 2055 0004 DF92      		push r13
 2056               	.LCFI88:
 2057               		.cfi_def_cfa_offset 5
 2058               		.cfi_offset 13, -4
 2059 0006 EF92      		push r14
 2060               	.LCFI89:
 2061               		.cfi_def_cfa_offset 6
 2062               		.cfi_offset 14, -5
 2063 0008 FF92      		push r15
 2064               	.LCFI90:
 2065               		.cfi_def_cfa_offset 7
 2066               		.cfi_offset 15, -6
 2067 000a 0F93      		push r16
 2068               	.LCFI91:
 2069               		.cfi_def_cfa_offset 8
 2070               		.cfi_offset 16, -7
 2071 000c 1F93      		push r17
 2072               	.LCFI92:
 2073               		.cfi_def_cfa_offset 9
 2074               		.cfi_offset 17, -8
 2075 000e CF93      		push r28
 2076               	.LCFI93:
 2077               		.cfi_def_cfa_offset 10
 2078               		.cfi_offset 28, -9
 2079 0010 DF93      		push r29
 2080               	.LCFI94:
 2081               		.cfi_def_cfa_offset 11
 2082               		.cfi_offset 29, -10
 2083               	/* prologue: function */
 2084               	/* frame size = 0 */
 2085               	/* stack size = 9 */
 2086               	.L__stack_usage = 9
 2087 0012 8C01      		movw r16,r24
 2088 0014 EB01      		movw r28,r22
 2089 0016 7A01      		movw r14,r20
  37:../../tmk_core/protocol/lufa/lufa-abcminiuser/LUFA/Drivers/USB/Core/AVR8/Template/Template_Endpoint_RW.c **** 	uint16_t BytesInTransfer = 0;
 2090               		.loc 3 37 2 is_stmt 1 view .LVU515
 2091               	.LVL185:
  38:../../tmk_core/protocol/lufa/lufa-abcminiuser/LUFA/Drivers/USB/Core/AVR8/Template/Template_Endpoint_RW.c **** 	uint8_t  ErrorCode;
 2092               		.loc 3 38 2 view .LVU516
  39:../../tmk_core/protocol/lufa/lufa-abcminiuser/LUFA/Drivers/USB/Core/AVR8/Template/Template_Endpoint_RW.c **** 
 2093               		.loc 3 39 2 view .LVU517
  41:../../tmk_core/protocol/lufa/lufa-abcminiuser/LUFA/Drivers/USB/Core/AVR8/Template/Template_Endpoint_RW.c **** 	  return ErrorCode;
 2094               		.loc 3 41 2 view .LVU518
  41:../../tmk_core/protocol/lufa/lufa-abcminiuser/LUFA/Drivers/USB/Core/AVR8/Template/Template_Endpoint_RW.c **** 	  return ErrorCode;
 2095               		.loc 3 41 19 is_stmt 0 view .LVU519
 2096 0018 0E94 0000 		call Endpoint_WaitUntilReady
 2097               	.LVL186:
  41:../../tmk_core/protocol/lufa/lufa-abcminiuser/LUFA/Drivers/USB/Core/AVR8/Template/Template_Endpoint_RW.c **** 	  return ErrorCode;
 2098               		.loc 3 41 19 view .LVU520
 2099 001c D82E      		mov r13,r24
 2100               	.LVL187:
  41:../../tmk_core/protocol/lufa/lufa-abcminiuser/LUFA/Drivers/USB/Core/AVR8/Template/Template_Endpoint_RW.c **** 	  return ErrorCode;
 2101               		.loc 3 41 5 view .LVU521
 2102 001e 8111      		cpse r24,__zero_reg__
 2103 0020 00C0      		rjmp .L117
  44:../../tmk_core/protocol/lufa/lufa-abcminiuser/LUFA/Drivers/USB/Core/AVR8/Template/Template_Endpoint_RW.c **** 	{
 2104               		.loc 3 44 2 is_stmt 1 view .LVU522
  44:../../tmk_core/protocol/lufa/lufa-abcminiuser/LUFA/Drivers/USB/Core/AVR8/Template/Template_Endpoint_RW.c **** 	{
 2105               		.loc 3 44 5 is_stmt 0 view .LVU523
 2106 0022 E114      		cp r14,__zero_reg__
 2107 0024 F104      		cpc r15,__zero_reg__
 2108 0026 01F0      		breq .L119
  46:../../tmk_core/protocol/lufa/lufa-abcminiuser/LUFA/Drivers/USB/Core/AVR8/Template/Template_Endpoint_RW.c **** 		TEMPLATE_BUFFER_MOVE(DataStream, *BytesProcessed);
 2109               		.loc 3 46 3 is_stmt 1 view .LVU524
  46:../../tmk_core/protocol/lufa/lufa-abcminiuser/LUFA/Drivers/USB/Core/AVR8/Template/Template_Endpoint_RW.c **** 		TEMPLATE_BUFFER_MOVE(DataStream, *BytesProcessed);
 2110               		.loc 3 46 13 is_stmt 0 view .LVU525
 2111 0028 F701      		movw r30,r14
 2112 002a 8081      		ld r24,Z
 2113 002c 9181      		ldd r25,Z+1
  46:../../tmk_core/protocol/lufa/lufa-abcminiuser/LUFA/Drivers/USB/Core/AVR8/Template/Template_Endpoint_RW.c **** 		TEMPLATE_BUFFER_MOVE(DataStream, *BytesProcessed);
 2114               		.loc 3 46 10 view .LVU526
 2115 002e C81B      		sub r28,r24
 2116 0030 D90B      		sbc r29,r25
 2117               	.LVL188:
  47:../../tmk_core/protocol/lufa/lufa-abcminiuser/LUFA/Drivers/USB/Core/AVR8/Template/Template_Endpoint_RW.c **** 	}
 2118               		.loc 3 47 3 is_stmt 1 view .LVU527
 2119 0032 080F      		add r16,r24
 2120 0034 191F      		adc r17,r25
 2121               	.LVL189:
 2122               	.L119:
  36:../../tmk_core/protocol/lufa/lufa-abcminiuser/LUFA/Drivers/USB/Core/AVR8/Template/Template_Endpoint_RW.c **** 	uint8_t* DataStream      = ((uint8_t*)Buffer + TEMPLATE_BUFFER_OFFSET(Length));
 2123               		.loc 3 36 1 is_stmt 0 view .LVU528
 2124 0036 B12C      		mov r11,__zero_reg__
 2125 0038 A12C      		mov r10,__zero_reg__
 2126               	.LVL190:
 2127               	.L120:
  50:../../tmk_core/protocol/lufa/lufa-abcminiuser/LUFA/Drivers/USB/Core/AVR8/Template/Template_Endpoint_RW.c **** 	{
 2128               		.loc 3 50 8 view .LVU529
 2129 003a 2097      		sbiw r28,0
 2130 003c 01F0      		breq .L117
  52:../../tmk_core/protocol/lufa/lufa-abcminiuser/LUFA/Drivers/USB/Core/AVR8/Template/Template_Endpoint_RW.c **** 		{
 2131               		.loc 3 52 3 is_stmt 1 view .LVU530
 2132               	.LBB330:
 2133               	.LBI330:
 358:../../tmk_core/protocol/lufa/lufa-abcminiuser/LUFA/Drivers/USB/Core/AVR8/../AVR8/../AVR8/Endpoint_AVR8.h **** 			{
 2134               		.loc 2 358 23 view .LVU531
 2135               	.LBB331:
 360:../../tmk_core/protocol/lufa/lufa-abcminiuser/LUFA/Drivers/USB/Core/AVR8/../AVR8/../AVR8/Endpoint_AVR8.h **** 			}
 2136               		.loc 2 360 5 view .LVU532
 360:../../tmk_core/protocol/lufa/lufa-abcminiuser/LUFA/Drivers/USB/Core/AVR8/../AVR8/../AVR8/Endpoint_AVR8.h **** 			}
 2137               		.loc 2 360 14 is_stmt 0 view .LVU533
 2138 003e 8091 E800 		lds r24,232
 2139               	.LBE331:
 2140               	.LBE330:
  52:../../tmk_core/protocol/lufa/lufa-abcminiuser/LUFA/Drivers/USB/Core/AVR8/Template/Template_Endpoint_RW.c **** 		{
 2141               		.loc 3 52 6 view .LVU534
 2142 0042 85FD      		sbrc r24,5
 2143 0044 00C0      		rjmp .L121
  54:../../tmk_core/protocol/lufa/lufa-abcminiuser/LUFA/Drivers/USB/Core/AVR8/Template/Template_Endpoint_RW.c **** 
 2144               		.loc 3 54 4 is_stmt 1 view .LVU535
 2145               	.LBB332:
 2146               	.LBI332:
 468:../../tmk_core/protocol/lufa/lufa-abcminiuser/LUFA/Drivers/USB/Core/AVR8/../AVR8/../AVR8/Endpoint_AVR8.h **** 			{
 2147               		.loc 2 468 23 view .LVU536
 2148               	.LBB333:
 471:../../tmk_core/protocol/lufa/lufa-abcminiuser/LUFA/Drivers/USB/Core/AVR8/../AVR8/../AVR8/Endpoint_AVR8.h **** 				#else
 2149               		.loc 2 471 6 view .LVU537
 471:../../tmk_core/protocol/lufa/lufa-abcminiuser/LUFA/Drivers/USB/Core/AVR8/../AVR8/../AVR8/Endpoint_AVR8.h **** 				#else
 2150               		.loc 2 471 13 is_stmt 0 view .LVU538
 2151 0046 8091 E800 		lds r24,232
 2152 004a 8B77      		andi r24,lo8(123)
 2153 004c 8093 E800 		sts 232,r24
 2154               	.LBE333:
 2155               	.LBE332:
  60:../../tmk_core/protocol/lufa/lufa-abcminiuser/LUFA/Drivers/USB/Core/AVR8/Template/Template_Endpoint_RW.c **** 			{
 2156               		.loc 3 60 4 is_stmt 1 view .LVU539
  60:../../tmk_core/protocol/lufa/lufa-abcminiuser/LUFA/Drivers/USB/Core/AVR8/Template/Template_Endpoint_RW.c **** 			{
 2157               		.loc 3 60 7 is_stmt 0 view .LVU540
 2158 0050 E114      		cp r14,__zero_reg__
 2159 0052 F104      		cpc r15,__zero_reg__
 2160 0054 01F0      		breq .L122
  62:../../tmk_core/protocol/lufa/lufa-abcminiuser/LUFA/Drivers/USB/Core/AVR8/Template/Template_Endpoint_RW.c **** 				return ENDPOINT_RWSTREAM_IncompleteTransfer;
 2161               		.loc 3 62 5 is_stmt 1 view .LVU541
  62:../../tmk_core/protocol/lufa/lufa-abcminiuser/LUFA/Drivers/USB/Core/AVR8/Template/Template_Endpoint_RW.c **** 				return ENDPOINT_RWSTREAM_IncompleteTransfer;
 2162               		.loc 3 62 21 is_stmt 0 view .LVU542
 2163 0056 F701      		movw r30,r14
 2164 0058 8081      		ld r24,Z
 2165 005a 9181      		ldd r25,Z+1
 2166 005c A80E      		add r10,r24
 2167 005e B91E      		adc r11,r25
 2168               	.LVL191:
  62:../../tmk_core/protocol/lufa/lufa-abcminiuser/LUFA/Drivers/USB/Core/AVR8/Template/Template_Endpoint_RW.c **** 				return ENDPOINT_RWSTREAM_IncompleteTransfer;
 2169               		.loc 3 62 21 view .LVU543
 2170 0060 B182      		std Z+1,r11
 2171 0062 A082      		st Z,r10
  63:../../tmk_core/protocol/lufa/lufa-abcminiuser/LUFA/Drivers/USB/Core/AVR8/Template/Template_Endpoint_RW.c **** 			}
 2172               		.loc 3 63 5 is_stmt 1 view .LVU544
  63:../../tmk_core/protocol/lufa/lufa-abcminiuser/LUFA/Drivers/USB/Core/AVR8/Template/Template_Endpoint_RW.c **** 			}
 2173               		.loc 3 63 12 is_stmt 0 view .LVU545
 2174 0064 85E0      		ldi r24,lo8(5)
 2175 0066 D82E      		mov r13,r24
 2176               	.L117:
 2177               		.loc 3 79 1 view .LVU546
 2178 0068 8D2D      		mov r24,r13
 2179               	/* epilogue start */
 2180 006a DF91      		pop r29
 2181 006c CF91      		pop r28
 2182               	.LVL192:
 2183               		.loc 3 79 1 view .LVU547
 2184 006e 1F91      		pop r17
 2185 0070 0F91      		pop r16
 2186               	.LVL193:
 2187               		.loc 3 79 1 view .LVU548
 2188 0072 FF90      		pop r15
 2189 0074 EF90      		pop r14
 2190               	.LVL194:
 2191               		.loc 3 79 1 view .LVU549
 2192 0076 DF90      		pop r13
 2193 0078 BF90      		pop r11
 2194 007a AF90      		pop r10
 2195 007c 0895      		ret
 2196               	.LVL195:
 2197               	.L122:
  66:../../tmk_core/protocol/lufa/lufa-abcminiuser/LUFA/Drivers/USB/Core/AVR8/Template/Template_Endpoint_RW.c **** 			  return ErrorCode;
 2198               		.loc 3 66 4 is_stmt 1 view .LVU550
  66:../../tmk_core/protocol/lufa/lufa-abcminiuser/LUFA/Drivers/USB/Core/AVR8/Template/Template_Endpoint_RW.c **** 			  return ErrorCode;
 2199               		.loc 3 66 21 is_stmt 0 view .LVU551
 2200 007e 0E94 0000 		call Endpoint_WaitUntilReady
 2201               	.LVL196:
  66:../../tmk_core/protocol/lufa/lufa-abcminiuser/LUFA/Drivers/USB/Core/AVR8/Template/Template_Endpoint_RW.c **** 			  return ErrorCode;
 2202               		.loc 3 66 7 view .LVU552
 2203 0082 8823      		tst r24
 2204 0084 01F0      		breq .L120
  66:../../tmk_core/protocol/lufa/lufa-abcminiuser/LUFA/Drivers/USB/Core/AVR8/Template/Template_Endpoint_RW.c **** 			  return ErrorCode;
 2205               		.loc 3 66 21 view .LVU553
 2206 0086 D82E      		mov r13,r24
 2207 0088 00C0      		rjmp .L117
 2208               	.LVL197:
 2209               	.L121:
  71:../../tmk_core/protocol/lufa/lufa-abcminiuser/LUFA/Drivers/USB/Core/AVR8/Template/Template_Endpoint_RW.c **** 			TEMPLATE_BUFFER_MOVE(DataStream, 1);
 2210               		.loc 3 71 4 is_stmt 1 view .LVU554
 2211               	.LBB334:
 2212               	.LBI334:
 540:../../tmk_core/protocol/lufa/lufa-abcminiuser/LUFA/Drivers/USB/Core/AVR8/../AVR8/../AVR8/Endpoint_AVR8.h **** 			{
 2213               		.loc 2 540 26 view .LVU555
 2214               	.LBB335:
 542:../../tmk_core/protocol/lufa/lufa-abcminiuser/LUFA/Drivers/USB/Core/AVR8/../AVR8/../AVR8/Endpoint_AVR8.h **** 			}
 2215               		.loc 2 542 5 view .LVU556
 542:../../tmk_core/protocol/lufa/lufa-abcminiuser/LUFA/Drivers/USB/Core/AVR8/../AVR8/../AVR8/Endpoint_AVR8.h **** 			}
 2216               		.loc 2 542 12 is_stmt 0 view .LVU557
 2217 008a 6091 F100 		lds r22,241
 2218               	.LBE335:
 2219               	.LBE334:
  71:../../tmk_core/protocol/lufa/lufa-abcminiuser/LUFA/Drivers/USB/Core/AVR8/Template/Template_Endpoint_RW.c **** 			TEMPLATE_BUFFER_MOVE(DataStream, 1);
 2220               		.loc 3 71 4 view .LVU558
 2221 008e C801      		movw r24,r16
 2222 0090 0E94 0000 		call eeprom_update_byte
 2223               	.LVL198:
  72:../../tmk_core/protocol/lufa/lufa-abcminiuser/LUFA/Drivers/USB/Core/AVR8/Template/Template_Endpoint_RW.c **** 			Length--;
 2224               		.loc 3 72 4 is_stmt 1 view .LVU559
 2225 0094 0F5F      		subi r16,-1
 2226 0096 1F4F      		sbci r17,-1
 2227               	.LVL199:
  73:../../tmk_core/protocol/lufa/lufa-abcminiuser/LUFA/Drivers/USB/Core/AVR8/Template/Template_Endpoint_RW.c **** 			BytesInTransfer++;
 2228               		.loc 3 73 4 view .LVU560
  73:../../tmk_core/protocol/lufa/lufa-abcminiuser/LUFA/Drivers/USB/Core/AVR8/Template/Template_Endpoint_RW.c **** 			BytesInTransfer++;
 2229               		.loc 3 73 10 is_stmt 0 view .LVU561
 2230 0098 2197      		sbiw r28,1
 2231               	.LVL200:
  74:../../tmk_core/protocol/lufa/lufa-abcminiuser/LUFA/Drivers/USB/Core/AVR8/Template/Template_Endpoint_RW.c **** 		}
 2232               		.loc 3 74 4 is_stmt 1 view .LVU562
  74:../../tmk_core/protocol/lufa/lufa-abcminiuser/LUFA/Drivers/USB/Core/AVR8/Template/Template_Endpoint_RW.c **** 		}
 2233               		.loc 3 74 19 is_stmt 0 view .LVU563
 2234 009a FFEF      		ldi r31,-1
 2235 009c AF1A      		sub r10,r31
 2236 009e BF0A      		sbc r11,r31
 2237               	.LVL201:
  74:../../tmk_core/protocol/lufa/lufa-abcminiuser/LUFA/Drivers/USB/Core/AVR8/Template/Template_Endpoint_RW.c **** 		}
 2238               		.loc 3 74 19 view .LVU564
 2239 00a0 00C0      		rjmp .L120
 2240               		.cfi_endproc
 2241               	.LFE95:
 2243               		.section	.text.Endpoint_Read_EStream_BE,"ax",@progbits
 2244               	.global	Endpoint_Read_EStream_BE
 2246               	Endpoint_Read_EStream_BE:
 2247               	.LVL202:
 2248               	.LFB96:
  36:../../tmk_core/protocol/lufa/lufa-abcminiuser/LUFA/Drivers/USB/Core/AVR8/Template/Template_Endpoint_RW.c **** 	uint8_t* DataStream      = ((uint8_t*)Buffer + TEMPLATE_BUFFER_OFFSET(Length));
 2249               		.loc 3 36 1 is_stmt 1 view -0
 2250               		.cfi_startproc
  36:../../tmk_core/protocol/lufa/lufa-abcminiuser/LUFA/Drivers/USB/Core/AVR8/Template/Template_Endpoint_RW.c **** 	uint8_t* DataStream      = ((uint8_t*)Buffer + TEMPLATE_BUFFER_OFFSET(Length));
 2251               		.loc 3 36 1 is_stmt 0 view .LVU566
 2252 0000 AF92      		push r10
 2253               	.LCFI95:
 2254               		.cfi_def_cfa_offset 3
 2255               		.cfi_offset 10, -2
 2256 0002 BF92      		push r11
 2257               	.LCFI96:
 2258               		.cfi_def_cfa_offset 4
 2259               		.cfi_offset 11, -3
 2260 0004 DF92      		push r13
 2261               	.LCFI97:
 2262               		.cfi_def_cfa_offset 5
 2263               		.cfi_offset 13, -4
 2264 0006 EF92      		push r14
 2265               	.LCFI98:
 2266               		.cfi_def_cfa_offset 6
 2267               		.cfi_offset 14, -5
 2268 0008 FF92      		push r15
 2269               	.LCFI99:
 2270               		.cfi_def_cfa_offset 7
 2271               		.cfi_offset 15, -6
 2272 000a 0F93      		push r16
 2273               	.LCFI100:
 2274               		.cfi_def_cfa_offset 8
 2275               		.cfi_offset 16, -7
 2276 000c 1F93      		push r17
 2277               	.LCFI101:
 2278               		.cfi_def_cfa_offset 9
 2279               		.cfi_offset 17, -8
 2280 000e CF93      		push r28
 2281               	.LCFI102:
 2282               		.cfi_def_cfa_offset 10
 2283               		.cfi_offset 28, -9
 2284 0010 DF93      		push r29
 2285               	.LCFI103:
 2286               		.cfi_def_cfa_offset 11
 2287               		.cfi_offset 29, -10
 2288               	/* prologue: function */
 2289               	/* frame size = 0 */
 2290               	/* stack size = 9 */
 2291               	.L__stack_usage = 9
 2292 0012 EC01      		movw r28,r24
 2293 0014 8B01      		movw r16,r22
 2294 0016 7A01      		movw r14,r20
  37:../../tmk_core/protocol/lufa/lufa-abcminiuser/LUFA/Drivers/USB/Core/AVR8/Template/Template_Endpoint_RW.c **** 	uint16_t BytesInTransfer = 0;
 2295               		.loc 3 37 2 is_stmt 1 view .LVU567
 2296               	.LVL203:
  38:../../tmk_core/protocol/lufa/lufa-abcminiuser/LUFA/Drivers/USB/Core/AVR8/Template/Template_Endpoint_RW.c **** 	uint8_t  ErrorCode;
 2297               		.loc 3 38 2 view .LVU568
  39:../../tmk_core/protocol/lufa/lufa-abcminiuser/LUFA/Drivers/USB/Core/AVR8/Template/Template_Endpoint_RW.c **** 
 2298               		.loc 3 39 2 view .LVU569
  41:../../tmk_core/protocol/lufa/lufa-abcminiuser/LUFA/Drivers/USB/Core/AVR8/Template/Template_Endpoint_RW.c **** 	  return ErrorCode;
 2299               		.loc 3 41 2 view .LVU570
  41:../../tmk_core/protocol/lufa/lufa-abcminiuser/LUFA/Drivers/USB/Core/AVR8/Template/Template_Endpoint_RW.c **** 	  return ErrorCode;
 2300               		.loc 3 41 19 is_stmt 0 view .LVU571
 2301 0018 0E94 0000 		call Endpoint_WaitUntilReady
 2302               	.LVL204:
  41:../../tmk_core/protocol/lufa/lufa-abcminiuser/LUFA/Drivers/USB/Core/AVR8/Template/Template_Endpoint_RW.c **** 	  return ErrorCode;
 2303               		.loc 3 41 19 view .LVU572
 2304 001c D82E      		mov r13,r24
 2305               	.LVL205:
  41:../../tmk_core/protocol/lufa/lufa-abcminiuser/LUFA/Drivers/USB/Core/AVR8/Template/Template_Endpoint_RW.c **** 	  return ErrorCode;
 2306               		.loc 3 41 5 view .LVU573
 2307 001e 8111      		cpse r24,__zero_reg__
 2308 0020 00C0      		rjmp .L129
  37:../../tmk_core/protocol/lufa/lufa-abcminiuser/LUFA/Drivers/USB/Core/AVR8/Template/Template_Endpoint_RW.c **** 	uint16_t BytesInTransfer = 0;
 2309               		.loc 3 37 47 view .LVU574
 2310 0022 C801      		movw r24,r16
 2311 0024 0197      		sbiw r24,1
 2312               	.LVL206:
  37:../../tmk_core/protocol/lufa/lufa-abcminiuser/LUFA/Drivers/USB/Core/AVR8/Template/Template_Endpoint_RW.c **** 	uint16_t BytesInTransfer = 0;
 2313               		.loc 3 37 11 view .LVU575
 2314 0026 C80F      		add r28,r24
 2315 0028 D91F      		adc r29,r25
 2316               	.LVL207:
  44:../../tmk_core/protocol/lufa/lufa-abcminiuser/LUFA/Drivers/USB/Core/AVR8/Template/Template_Endpoint_RW.c **** 	{
 2317               		.loc 3 44 2 is_stmt 1 view .LVU576
  44:../../tmk_core/protocol/lufa/lufa-abcminiuser/LUFA/Drivers/USB/Core/AVR8/Template/Template_Endpoint_RW.c **** 	{
 2318               		.loc 3 44 5 is_stmt 0 view .LVU577
 2319 002a E114      		cp r14,__zero_reg__
 2320 002c F104      		cpc r15,__zero_reg__
 2321 002e 01F0      		breq .L131
  46:../../tmk_core/protocol/lufa/lufa-abcminiuser/LUFA/Drivers/USB/Core/AVR8/Template/Template_Endpoint_RW.c **** 		TEMPLATE_BUFFER_MOVE(DataStream, *BytesProcessed);
 2322               		.loc 3 46 3 is_stmt 1 view .LVU578
  46:../../tmk_core/protocol/lufa/lufa-abcminiuser/LUFA/Drivers/USB/Core/AVR8/Template/Template_Endpoint_RW.c **** 		TEMPLATE_BUFFER_MOVE(DataStream, *BytesProcessed);
 2323               		.loc 3 46 13 is_stmt 0 view .LVU579
 2324 0030 F701      		movw r30,r14
 2325 0032 8081      		ld r24,Z
 2326 0034 9181      		ldd r25,Z+1
 2327               	.LVL208:
  46:../../tmk_core/protocol/lufa/lufa-abcminiuser/LUFA/Drivers/USB/Core/AVR8/Template/Template_Endpoint_RW.c **** 		TEMPLATE_BUFFER_MOVE(DataStream, *BytesProcessed);
 2328               		.loc 3 46 10 view .LVU580
 2329 0036 081B      		sub r16,r24
 2330 0038 190B      		sbc r17,r25
 2331               	.LVL209:
  47:../../tmk_core/protocol/lufa/lufa-abcminiuser/LUFA/Drivers/USB/Core/AVR8/Template/Template_Endpoint_RW.c **** 	}
 2332               		.loc 3 47 3 is_stmt 1 view .LVU581
 2333 003a C81B      		sub r28,r24
 2334 003c D90B      		sbc r29,r25
 2335               	.LVL210:
 2336               	.L131:
  36:../../tmk_core/protocol/lufa/lufa-abcminiuser/LUFA/Drivers/USB/Core/AVR8/Template/Template_Endpoint_RW.c **** 	uint8_t* DataStream      = ((uint8_t*)Buffer + TEMPLATE_BUFFER_OFFSET(Length));
 2337               		.loc 3 36 1 is_stmt 0 view .LVU582
 2338 003e B12C      		mov r11,__zero_reg__
 2339 0040 A12C      		mov r10,__zero_reg__
 2340               	.LVL211:
 2341               	.L132:
  50:../../tmk_core/protocol/lufa/lufa-abcminiuser/LUFA/Drivers/USB/Core/AVR8/Template/Template_Endpoint_RW.c **** 	{
 2342               		.loc 3 50 8 view .LVU583
 2343 0042 0115      		cp r16,__zero_reg__
 2344 0044 1105      		cpc r17,__zero_reg__
 2345 0046 01F0      		breq .L129
  52:../../tmk_core/protocol/lufa/lufa-abcminiuser/LUFA/Drivers/USB/Core/AVR8/Template/Template_Endpoint_RW.c **** 		{
 2346               		.loc 3 52 3 is_stmt 1 view .LVU584
 2347               	.LBB336:
 2348               	.LBI336:
 358:../../tmk_core/protocol/lufa/lufa-abcminiuser/LUFA/Drivers/USB/Core/AVR8/../AVR8/../AVR8/Endpoint_AVR8.h **** 			{
 2349               		.loc 2 358 23 view .LVU585
 2350               	.LBB337:
 360:../../tmk_core/protocol/lufa/lufa-abcminiuser/LUFA/Drivers/USB/Core/AVR8/../AVR8/../AVR8/Endpoint_AVR8.h **** 			}
 2351               		.loc 2 360 5 view .LVU586
 360:../../tmk_core/protocol/lufa/lufa-abcminiuser/LUFA/Drivers/USB/Core/AVR8/../AVR8/../AVR8/Endpoint_AVR8.h **** 			}
 2352               		.loc 2 360 14 is_stmt 0 view .LVU587
 2353 0048 8091 E800 		lds r24,232
 2354               	.LBE337:
 2355               	.LBE336:
  52:../../tmk_core/protocol/lufa/lufa-abcminiuser/LUFA/Drivers/USB/Core/AVR8/Template/Template_Endpoint_RW.c **** 		{
 2356               		.loc 3 52 6 view .LVU588
 2357 004c 85FD      		sbrc r24,5
 2358 004e 00C0      		rjmp .L133
  54:../../tmk_core/protocol/lufa/lufa-abcminiuser/LUFA/Drivers/USB/Core/AVR8/Template/Template_Endpoint_RW.c **** 
 2359               		.loc 3 54 4 is_stmt 1 view .LVU589
 2360               	.LBB338:
 2361               	.LBI338:
 468:../../tmk_core/protocol/lufa/lufa-abcminiuser/LUFA/Drivers/USB/Core/AVR8/../AVR8/../AVR8/Endpoint_AVR8.h **** 			{
 2362               		.loc 2 468 23 view .LVU590
 2363               	.LBB339:
 471:../../tmk_core/protocol/lufa/lufa-abcminiuser/LUFA/Drivers/USB/Core/AVR8/../AVR8/../AVR8/Endpoint_AVR8.h **** 				#else
 2364               		.loc 2 471 6 view .LVU591
 471:../../tmk_core/protocol/lufa/lufa-abcminiuser/LUFA/Drivers/USB/Core/AVR8/../AVR8/../AVR8/Endpoint_AVR8.h **** 				#else
 2365               		.loc 2 471 13 is_stmt 0 view .LVU592
 2366 0050 8091 E800 		lds r24,232
 2367 0054 8B77      		andi r24,lo8(123)
 2368 0056 8093 E800 		sts 232,r24
 2369               	.LBE339:
 2370               	.LBE338:
  60:../../tmk_core/protocol/lufa/lufa-abcminiuser/LUFA/Drivers/USB/Core/AVR8/Template/Template_Endpoint_RW.c **** 			{
 2371               		.loc 3 60 4 is_stmt 1 view .LVU593
  60:../../tmk_core/protocol/lufa/lufa-abcminiuser/LUFA/Drivers/USB/Core/AVR8/Template/Template_Endpoint_RW.c **** 			{
 2372               		.loc 3 60 7 is_stmt 0 view .LVU594
 2373 005a E114      		cp r14,__zero_reg__
 2374 005c F104      		cpc r15,__zero_reg__
 2375 005e 01F0      		breq .L134
  62:../../tmk_core/protocol/lufa/lufa-abcminiuser/LUFA/Drivers/USB/Core/AVR8/Template/Template_Endpoint_RW.c **** 				return ENDPOINT_RWSTREAM_IncompleteTransfer;
 2376               		.loc 3 62 5 is_stmt 1 view .LVU595
  62:../../tmk_core/protocol/lufa/lufa-abcminiuser/LUFA/Drivers/USB/Core/AVR8/Template/Template_Endpoint_RW.c **** 				return ENDPOINT_RWSTREAM_IncompleteTransfer;
 2377               		.loc 3 62 21 is_stmt 0 view .LVU596
 2378 0060 F701      		movw r30,r14
 2379 0062 8081      		ld r24,Z
 2380 0064 9181      		ldd r25,Z+1
 2381 0066 A80E      		add r10,r24
 2382 0068 B91E      		adc r11,r25
 2383               	.LVL212:
  62:../../tmk_core/protocol/lufa/lufa-abcminiuser/LUFA/Drivers/USB/Core/AVR8/Template/Template_Endpoint_RW.c **** 				return ENDPOINT_RWSTREAM_IncompleteTransfer;
 2384               		.loc 3 62 21 view .LVU597
 2385 006a B182      		std Z+1,r11
 2386 006c A082      		st Z,r10
  63:../../tmk_core/protocol/lufa/lufa-abcminiuser/LUFA/Drivers/USB/Core/AVR8/Template/Template_Endpoint_RW.c **** 			}
 2387               		.loc 3 63 5 is_stmt 1 view .LVU598
  63:../../tmk_core/protocol/lufa/lufa-abcminiuser/LUFA/Drivers/USB/Core/AVR8/Template/Template_Endpoint_RW.c **** 			}
 2388               		.loc 3 63 12 is_stmt 0 view .LVU599
 2389 006e 85E0      		ldi r24,lo8(5)
 2390 0070 D82E      		mov r13,r24
 2391               	.LVL213:
 2392               	.L129:
 2393               		.loc 3 79 1 view .LVU600
 2394 0072 8D2D      		mov r24,r13
 2395               	/* epilogue start */
 2396 0074 DF91      		pop r29
 2397 0076 CF91      		pop r28
 2398 0078 1F91      		pop r17
 2399 007a 0F91      		pop r16
 2400               	.LVL214:
 2401               		.loc 3 79 1 view .LVU601
 2402 007c FF90      		pop r15
 2403 007e EF90      		pop r14
 2404               	.LVL215:
 2405               		.loc 3 79 1 view .LVU602
 2406 0080 DF90      		pop r13
 2407 0082 BF90      		pop r11
 2408 0084 AF90      		pop r10
 2409 0086 0895      		ret
 2410               	.LVL216:
 2411               	.L134:
  66:../../tmk_core/protocol/lufa/lufa-abcminiuser/LUFA/Drivers/USB/Core/AVR8/Template/Template_Endpoint_RW.c **** 			  return ErrorCode;
 2412               		.loc 3 66 4 is_stmt 1 view .LVU603
  66:../../tmk_core/protocol/lufa/lufa-abcminiuser/LUFA/Drivers/USB/Core/AVR8/Template/Template_Endpoint_RW.c **** 			  return ErrorCode;
 2413               		.loc 3 66 21 is_stmt 0 view .LVU604
 2414 0088 0E94 0000 		call Endpoint_WaitUntilReady
 2415               	.LVL217:
  66:../../tmk_core/protocol/lufa/lufa-abcminiuser/LUFA/Drivers/USB/Core/AVR8/Template/Template_Endpoint_RW.c **** 			  return ErrorCode;
 2416               		.loc 3 66 7 view .LVU605
 2417 008c 8823      		tst r24
 2418 008e 01F0      		breq .L132
  66:../../tmk_core/protocol/lufa/lufa-abcminiuser/LUFA/Drivers/USB/Core/AVR8/Template/Template_Endpoint_RW.c **** 			  return ErrorCode;
 2419               		.loc 3 66 21 view .LVU606
 2420 0090 D82E      		mov r13,r24
 2421 0092 00C0      		rjmp .L129
 2422               	.LVL218:
 2423               	.L133:
  71:../../tmk_core/protocol/lufa/lufa-abcminiuser/LUFA/Drivers/USB/Core/AVR8/Template/Template_Endpoint_RW.c **** 			TEMPLATE_BUFFER_MOVE(DataStream, 1);
 2424               		.loc 3 71 4 is_stmt 1 view .LVU607
 2425               	.LBB340:
 2426               	.LBI340:
 540:../../tmk_core/protocol/lufa/lufa-abcminiuser/LUFA/Drivers/USB/Core/AVR8/../AVR8/../AVR8/Endpoint_AVR8.h **** 			{
 2427               		.loc 2 540 26 view .LVU608
 2428               	.LBB341:
 542:../../tmk_core/protocol/lufa/lufa-abcminiuser/LUFA/Drivers/USB/Core/AVR8/../AVR8/../AVR8/Endpoint_AVR8.h **** 			}
 2429               		.loc 2 542 5 view .LVU609
 542:../../tmk_core/protocol/lufa/lufa-abcminiuser/LUFA/Drivers/USB/Core/AVR8/../AVR8/../AVR8/Endpoint_AVR8.h **** 			}
 2430               		.loc 2 542 12 is_stmt 0 view .LVU610
 2431 0094 6091 F100 		lds r22,241
 2432               	.LBE341:
 2433               	.LBE340:
  71:../../tmk_core/protocol/lufa/lufa-abcminiuser/LUFA/Drivers/USB/Core/AVR8/Template/Template_Endpoint_RW.c **** 			TEMPLATE_BUFFER_MOVE(DataStream, 1);
 2434               		.loc 3 71 4 view .LVU611
 2435 0098 CE01      		movw r24,r28
 2436 009a 0E94 0000 		call eeprom_update_byte
 2437               	.LVL219:
  72:../../tmk_core/protocol/lufa/lufa-abcminiuser/LUFA/Drivers/USB/Core/AVR8/Template/Template_Endpoint_RW.c **** 			Length--;
 2438               		.loc 3 72 4 is_stmt 1 view .LVU612
 2439 009e 2197      		sbiw r28,1
 2440               	.LVL220:
  73:../../tmk_core/protocol/lufa/lufa-abcminiuser/LUFA/Drivers/USB/Core/AVR8/Template/Template_Endpoint_RW.c **** 			BytesInTransfer++;
 2441               		.loc 3 73 4 view .LVU613
  73:../../tmk_core/protocol/lufa/lufa-abcminiuser/LUFA/Drivers/USB/Core/AVR8/Template/Template_Endpoint_RW.c **** 			BytesInTransfer++;
 2442               		.loc 3 73 10 is_stmt 0 view .LVU614
 2443 00a0 0150      		subi r16,1
 2444 00a2 1109      		sbc r17,__zero_reg__
 2445               	.LVL221:
  74:../../tmk_core/protocol/lufa/lufa-abcminiuser/LUFA/Drivers/USB/Core/AVR8/Template/Template_Endpoint_RW.c **** 		}
 2446               		.loc 3 74 4 is_stmt 1 view .LVU615
  74:../../tmk_core/protocol/lufa/lufa-abcminiuser/LUFA/Drivers/USB/Core/AVR8/Template/Template_Endpoint_RW.c **** 		}
 2447               		.loc 3 74 19 is_stmt 0 view .LVU616
 2448 00a4 FFEF      		ldi r31,-1
 2449 00a6 AF1A      		sub r10,r31
 2450 00a8 BF0A      		sbc r11,r31
 2451               	.LVL222:
  74:../../tmk_core/protocol/lufa/lufa-abcminiuser/LUFA/Drivers/USB/Core/AVR8/Template/Template_Endpoint_RW.c **** 		}
 2452               		.loc 3 74 19 view .LVU617
 2453 00aa 00C0      		rjmp .L132
 2454               		.cfi_endproc
 2455               	.LFE96:
 2457               		.section	.text.Endpoint_Write_Control_Stream_LE,"ax",@progbits
 2458               	.global	Endpoint_Write_Control_Stream_LE
 2460               	Endpoint_Write_Control_Stream_LE:
 2461               	.LVL223:
 2462               	.LFB97:
 2463               		.file 4 "../../tmk_core/protocol/lufa/lufa-abcminiuser/LUFA/Drivers/USB/Core/AVR8/Template/Templat
   1:../../tmk_core/protocol/lufa/lufa-abcminiuser/LUFA/Drivers/USB/Core/AVR8/Template/Template_Endpoint_Control_W.c **** /*
   2:../../tmk_core/protocol/lufa/lufa-abcminiuser/LUFA/Drivers/USB/Core/AVR8/Template/Template_Endpoint_Control_W.c ****              LUFA Library
   3:../../tmk_core/protocol/lufa/lufa-abcminiuser/LUFA/Drivers/USB/Core/AVR8/Template/Template_Endpoint_Control_W.c ****      Copyright (C) Dean Camera, 2019.
   4:../../tmk_core/protocol/lufa/lufa-abcminiuser/LUFA/Drivers/USB/Core/AVR8/Template/Template_Endpoint_Control_W.c **** 
   5:../../tmk_core/protocol/lufa/lufa-abcminiuser/LUFA/Drivers/USB/Core/AVR8/Template/Template_Endpoint_Control_W.c ****   dean [at] fourwalledcubicle [dot] com
   6:../../tmk_core/protocol/lufa/lufa-abcminiuser/LUFA/Drivers/USB/Core/AVR8/Template/Template_Endpoint_Control_W.c ****            www.lufa-lib.org
   7:../../tmk_core/protocol/lufa/lufa-abcminiuser/LUFA/Drivers/USB/Core/AVR8/Template/Template_Endpoint_Control_W.c **** */
   8:../../tmk_core/protocol/lufa/lufa-abcminiuser/LUFA/Drivers/USB/Core/AVR8/Template/Template_Endpoint_Control_W.c **** 
   9:../../tmk_core/protocol/lufa/lufa-abcminiuser/LUFA/Drivers/USB/Core/AVR8/Template/Template_Endpoint_Control_W.c **** /*
  10:../../tmk_core/protocol/lufa/lufa-abcminiuser/LUFA/Drivers/USB/Core/AVR8/Template/Template_Endpoint_Control_W.c ****   Copyright 2019  Dean Camera (dean [at] fourwalledcubicle [dot] com)
  11:../../tmk_core/protocol/lufa/lufa-abcminiuser/LUFA/Drivers/USB/Core/AVR8/Template/Template_Endpoint_Control_W.c **** 
  12:../../tmk_core/protocol/lufa/lufa-abcminiuser/LUFA/Drivers/USB/Core/AVR8/Template/Template_Endpoint_Control_W.c ****   Permission to use, copy, modify, distribute, and sell this
  13:../../tmk_core/protocol/lufa/lufa-abcminiuser/LUFA/Drivers/USB/Core/AVR8/Template/Template_Endpoint_Control_W.c ****   software and its documentation for any purpose is hereby granted
  14:../../tmk_core/protocol/lufa/lufa-abcminiuser/LUFA/Drivers/USB/Core/AVR8/Template/Template_Endpoint_Control_W.c ****   without fee, provided that the above copyright notice appear in
  15:../../tmk_core/protocol/lufa/lufa-abcminiuser/LUFA/Drivers/USB/Core/AVR8/Template/Template_Endpoint_Control_W.c ****   all copies and that both that the copyright notice and this
  16:../../tmk_core/protocol/lufa/lufa-abcminiuser/LUFA/Drivers/USB/Core/AVR8/Template/Template_Endpoint_Control_W.c ****   permission notice and warranty disclaimer appear in supporting
  17:../../tmk_core/protocol/lufa/lufa-abcminiuser/LUFA/Drivers/USB/Core/AVR8/Template/Template_Endpoint_Control_W.c ****   documentation, and that the name of the author not be used in
  18:../../tmk_core/protocol/lufa/lufa-abcminiuser/LUFA/Drivers/USB/Core/AVR8/Template/Template_Endpoint_Control_W.c ****   advertising or publicity pertaining to distribution of the
  19:../../tmk_core/protocol/lufa/lufa-abcminiuser/LUFA/Drivers/USB/Core/AVR8/Template/Template_Endpoint_Control_W.c ****   software without specific, written prior permission.
  20:../../tmk_core/protocol/lufa/lufa-abcminiuser/LUFA/Drivers/USB/Core/AVR8/Template/Template_Endpoint_Control_W.c **** 
  21:../../tmk_core/protocol/lufa/lufa-abcminiuser/LUFA/Drivers/USB/Core/AVR8/Template/Template_Endpoint_Control_W.c ****   The author disclaims all warranties with regard to this
  22:../../tmk_core/protocol/lufa/lufa-abcminiuser/LUFA/Drivers/USB/Core/AVR8/Template/Template_Endpoint_Control_W.c ****   software, including all implied warranties of merchantability
  23:../../tmk_core/protocol/lufa/lufa-abcminiuser/LUFA/Drivers/USB/Core/AVR8/Template/Template_Endpoint_Control_W.c ****   and fitness.  In no event shall the author be liable for any
  24:../../tmk_core/protocol/lufa/lufa-abcminiuser/LUFA/Drivers/USB/Core/AVR8/Template/Template_Endpoint_Control_W.c ****   special, indirect or consequential damages or any damages
  25:../../tmk_core/protocol/lufa/lufa-abcminiuser/LUFA/Drivers/USB/Core/AVR8/Template/Template_Endpoint_Control_W.c ****   whatsoever resulting from loss of use, data or profits, whether
  26:../../tmk_core/protocol/lufa/lufa-abcminiuser/LUFA/Drivers/USB/Core/AVR8/Template/Template_Endpoint_Control_W.c ****   in an action of contract, negligence or other tortious action,
  27:../../tmk_core/protocol/lufa/lufa-abcminiuser/LUFA/Drivers/USB/Core/AVR8/Template/Template_Endpoint_Control_W.c ****   arising out of or in connection with the use or performance of
  28:../../tmk_core/protocol/lufa/lufa-abcminiuser/LUFA/Drivers/USB/Core/AVR8/Template/Template_Endpoint_Control_W.c ****   this software.
  29:../../tmk_core/protocol/lufa/lufa-abcminiuser/LUFA/Drivers/USB/Core/AVR8/Template/Template_Endpoint_Control_W.c **** */
  30:../../tmk_core/protocol/lufa/lufa-abcminiuser/LUFA/Drivers/USB/Core/AVR8/Template/Template_Endpoint_Control_W.c **** 
  31:../../tmk_core/protocol/lufa/lufa-abcminiuser/LUFA/Drivers/USB/Core/AVR8/Template/Template_Endpoint_Control_W.c **** #if defined(TEMPLATE_FUNC_NAME)
  32:../../tmk_core/protocol/lufa/lufa-abcminiuser/LUFA/Drivers/USB/Core/AVR8/Template/Template_Endpoint_Control_W.c **** 
  33:../../tmk_core/protocol/lufa/lufa-abcminiuser/LUFA/Drivers/USB/Core/AVR8/Template/Template_Endpoint_Control_W.c **** uint8_t TEMPLATE_FUNC_NAME (const void* const Buffer,
  34:../../tmk_core/protocol/lufa/lufa-abcminiuser/LUFA/Drivers/USB/Core/AVR8/Template/Template_Endpoint_Control_W.c ****                             uint16_t Length)
  35:../../tmk_core/protocol/lufa/lufa-abcminiuser/LUFA/Drivers/USB/Core/AVR8/Template/Template_Endpoint_Control_W.c **** {
 2464               		.loc 4 35 1 is_stmt 1 view -0
 2465               		.cfi_startproc
 2466               	/* prologue: function */
 2467               	/* frame size = 0 */
 2468               	/* stack size = 0 */
 2469               	.L__stack_usage = 0
 2470               		.loc 4 35 1 is_stmt 0 view .LVU619
 2471 0000 FC01      		movw r30,r24
  36:../../tmk_core/protocol/lufa/lufa-abcminiuser/LUFA/Drivers/USB/Core/AVR8/Template/Template_Endpoint_Control_W.c **** 	uint8_t* DataStream     = ((uint8_t*)Buffer + TEMPLATE_BUFFER_OFFSET(Length));
 2472               		.loc 4 36 2 is_stmt 1 view .LVU620
 2473               	.LVL224:
  37:../../tmk_core/protocol/lufa/lufa-abcminiuser/LUFA/Drivers/USB/Core/AVR8/Template/Template_Endpoint_Control_W.c **** 	bool     LastPacketFull = false;
 2474               		.loc 4 37 2 view .LVU621
  38:../../tmk_core/protocol/lufa/lufa-abcminiuser/LUFA/Drivers/USB/Core/AVR8/Template/Template_Endpoint_Control_W.c **** 
  39:../../tmk_core/protocol/lufa/lufa-abcminiuser/LUFA/Drivers/USB/Core/AVR8/Template/Template_Endpoint_Control_W.c **** 	if (Length > USB_ControlRequest.wLength)
 2475               		.loc 4 39 2 view .LVU622
 2476               		.loc 4 39 33 is_stmt 0 view .LVU623
 2477 0002 8091 0000 		lds r24,USB_ControlRequest+6
 2478 0006 9091 0000 		lds r25,USB_ControlRequest+6+1
 2479               	.LVL225:
 2480               		.loc 4 39 5 view .LVU624
 2481 000a 8617      		cp r24,r22
 2482 000c 9707      		cpc r25,r23
 2483 000e 00F0      		brlo .L153
  40:../../tmk_core/protocol/lufa/lufa-abcminiuser/LUFA/Drivers/USB/Core/AVR8/Template/Template_Endpoint_Control_W.c **** 	  Length = USB_ControlRequest.wLength;
  41:../../tmk_core/protocol/lufa/lufa-abcminiuser/LUFA/Drivers/USB/Core/AVR8/Template/Template_Endpoint_Control_W.c **** 	else if (!(Length))
 2484               		.loc 4 41 7 is_stmt 1 view .LVU625
 2485               		.loc 4 41 10 is_stmt 0 view .LVU626
 2486 0010 6115      		cp r22,__zero_reg__
 2487 0012 7105      		cpc r23,__zero_reg__
 2488 0014 01F4      		brne .L142
  42:../../tmk_core/protocol/lufa/lufa-abcminiuser/LUFA/Drivers/USB/Core/AVR8/Template/Template_Endpoint_Control_W.c **** 	  Endpoint_ClearIN();
 2489               		.loc 4 42 4 is_stmt 1 view .LVU627
 2490               	.LBB342:
 2491               	.LBI342:
 453:../../tmk_core/protocol/lufa/lufa-abcminiuser/LUFA/Drivers/USB/Core/AVR8/../AVR8/../AVR8/Endpoint_AVR8.h **** 			{
 2492               		.loc 2 453 23 view .LVU628
 2493               	.LBB343:
 456:../../tmk_core/protocol/lufa/lufa-abcminiuser/LUFA/Drivers/USB/Core/AVR8/../AVR8/../AVR8/Endpoint_AVR8.h **** 				#else
 2494               		.loc 2 456 6 view .LVU629
 456:../../tmk_core/protocol/lufa/lufa-abcminiuser/LUFA/Drivers/USB/Core/AVR8/../AVR8/../AVR8/Endpoint_AVR8.h **** 				#else
 2495               		.loc 2 456 13 is_stmt 0 view .LVU630
 2496 0016 9091 E800 		lds r25,232
 2497 001a 9E77      		andi r25,lo8(126)
 2498 001c 9093 E800 		sts 232,r25
 2499               	.LVL226:
 2500               	.L142:
 456:../../tmk_core/protocol/lufa/lufa-abcminiuser/LUFA/Drivers/USB/Core/AVR8/../AVR8/../AVR8/Endpoint_AVR8.h **** 				#else
 2501               		.loc 2 456 13 view .LVU631
 2502               	.LBE343:
 2503               	.LBE342:
 2504 0020 90E0      		ldi r25,0
 2505               	.LVL227:
 2506               	.L146:
  43:../../tmk_core/protocol/lufa/lufa-abcminiuser/LUFA/Drivers/USB/Core/AVR8/Template/Template_Endpoint_Control_W.c **** 
  44:../../tmk_core/protocol/lufa/lufa-abcminiuser/LUFA/Drivers/USB/Core/AVR8/Template/Template_Endpoint_Control_W.c **** 	while (Length || LastPacketFull)
 2507               		.loc 4 44 8 view .LVU632
 2508 0022 6115      		cp r22,__zero_reg__
 2509 0024 7105      		cpc r23,__zero_reg__
 2510 0026 01F4      		brne .L151
 2511               		.loc 4 44 16 discriminator 1 view .LVU633
 2512 0028 9111      		cpse r25,__zero_reg__
 2513 002a 00C0      		rjmp .L151
 2514               	.L165:
 2515               	.LBB344:
 2516               	.LBI344:
 417:../../tmk_core/protocol/lufa/lufa-abcminiuser/LUFA/Drivers/USB/Core/AVR8/../AVR8/../AVR8/Endpoint_AVR8.h **** 			{
 2517               		.loc 2 417 23 is_stmt 1 view .LVU634
 2518               	.LBB345:
 419:../../tmk_core/protocol/lufa/lufa-abcminiuser/LUFA/Drivers/USB/Core/AVR8/../AVR8/../AVR8/Endpoint_AVR8.h **** 			}
 2519               		.loc 2 419 5 view .LVU635
 419:../../tmk_core/protocol/lufa/lufa-abcminiuser/LUFA/Drivers/USB/Core/AVR8/../AVR8/../AVR8/Endpoint_AVR8.h **** 			}
 2520               		.loc 2 419 14 is_stmt 0 view .LVU636
 2521 002c 8091 E800 		lds r24,232
 2522               	.LBE345:
 2523               	.LBE344:
  45:../../tmk_core/protocol/lufa/lufa-abcminiuser/LUFA/Drivers/USB/Core/AVR8/Template/Template_Endpoint_Control_W.c **** 	{
  46:../../tmk_core/protocol/lufa/lufa-abcminiuser/LUFA/Drivers/USB/Core/AVR8/Template/Template_Endpoint_Control_W.c **** 		uint8_t USB_DeviceState_LCL = USB_DeviceState;
  47:../../tmk_core/protocol/lufa/lufa-abcminiuser/LUFA/Drivers/USB/Core/AVR8/Template/Template_Endpoint_Control_W.c **** 
  48:../../tmk_core/protocol/lufa/lufa-abcminiuser/LUFA/Drivers/USB/Core/AVR8/Template/Template_Endpoint_Control_W.c **** 		if (USB_DeviceState_LCL == DEVICE_STATE_Unattached)
  49:../../tmk_core/protocol/lufa/lufa-abcminiuser/LUFA/Drivers/USB/Core/AVR8/Template/Template_Endpoint_Control_W.c **** 		  return ENDPOINT_RWCSTREAM_DeviceDisconnected;
  50:../../tmk_core/protocol/lufa/lufa-abcminiuser/LUFA/Drivers/USB/Core/AVR8/Template/Template_Endpoint_Control_W.c **** 		else if (USB_DeviceState_LCL == DEVICE_STATE_Suspended)
  51:../../tmk_core/protocol/lufa/lufa-abcminiuser/LUFA/Drivers/USB/Core/AVR8/Template/Template_Endpoint_Control_W.c **** 		  return ENDPOINT_RWCSTREAM_BusSuspended;
  52:../../tmk_core/protocol/lufa/lufa-abcminiuser/LUFA/Drivers/USB/Core/AVR8/Template/Template_Endpoint_Control_W.c **** 		else if (Endpoint_IsSETUPReceived())
  53:../../tmk_core/protocol/lufa/lufa-abcminiuser/LUFA/Drivers/USB/Core/AVR8/Template/Template_Endpoint_Control_W.c **** 		  return ENDPOINT_RWCSTREAM_HostAborted;
  54:../../tmk_core/protocol/lufa/lufa-abcminiuser/LUFA/Drivers/USB/Core/AVR8/Template/Template_Endpoint_Control_W.c **** 		else if (Endpoint_IsOUTReceived())
  55:../../tmk_core/protocol/lufa/lufa-abcminiuser/LUFA/Drivers/USB/Core/AVR8/Template/Template_Endpoint_Control_W.c **** 		  break;
  56:../../tmk_core/protocol/lufa/lufa-abcminiuser/LUFA/Drivers/USB/Core/AVR8/Template/Template_Endpoint_Control_W.c **** 
  57:../../tmk_core/protocol/lufa/lufa-abcminiuser/LUFA/Drivers/USB/Core/AVR8/Template/Template_Endpoint_Control_W.c **** 		if (Endpoint_IsINReady())
  58:../../tmk_core/protocol/lufa/lufa-abcminiuser/LUFA/Drivers/USB/Core/AVR8/Template/Template_Endpoint_Control_W.c **** 		{
  59:../../tmk_core/protocol/lufa/lufa-abcminiuser/LUFA/Drivers/USB/Core/AVR8/Template/Template_Endpoint_Control_W.c **** 			uint16_t BytesInEndpoint = Endpoint_BytesInEndpoint();
  60:../../tmk_core/protocol/lufa/lufa-abcminiuser/LUFA/Drivers/USB/Core/AVR8/Template/Template_Endpoint_Control_W.c **** 
  61:../../tmk_core/protocol/lufa/lufa-abcminiuser/LUFA/Drivers/USB/Core/AVR8/Template/Template_Endpoint_Control_W.c **** 			while (Length && (BytesInEndpoint < USB_Device_ControlEndpointSize))
  62:../../tmk_core/protocol/lufa/lufa-abcminiuser/LUFA/Drivers/USB/Core/AVR8/Template/Template_Endpoint_Control_W.c **** 			{
  63:../../tmk_core/protocol/lufa/lufa-abcminiuser/LUFA/Drivers/USB/Core/AVR8/Template/Template_Endpoint_Control_W.c **** 				TEMPLATE_TRANSFER_BYTE(DataStream);
  64:../../tmk_core/protocol/lufa/lufa-abcminiuser/LUFA/Drivers/USB/Core/AVR8/Template/Template_Endpoint_Control_W.c **** 				TEMPLATE_BUFFER_MOVE(DataStream, 1);
  65:../../tmk_core/protocol/lufa/lufa-abcminiuser/LUFA/Drivers/USB/Core/AVR8/Template/Template_Endpoint_Control_W.c **** 				Length--;
  66:../../tmk_core/protocol/lufa/lufa-abcminiuser/LUFA/Drivers/USB/Core/AVR8/Template/Template_Endpoint_Control_W.c **** 				BytesInEndpoint++;
  67:../../tmk_core/protocol/lufa/lufa-abcminiuser/LUFA/Drivers/USB/Core/AVR8/Template/Template_Endpoint_Control_W.c **** 			}
  68:../../tmk_core/protocol/lufa/lufa-abcminiuser/LUFA/Drivers/USB/Core/AVR8/Template/Template_Endpoint_Control_W.c **** 
  69:../../tmk_core/protocol/lufa/lufa-abcminiuser/LUFA/Drivers/USB/Core/AVR8/Template/Template_Endpoint_Control_W.c **** 			LastPacketFull = (BytesInEndpoint == USB_Device_ControlEndpointSize);
  70:../../tmk_core/protocol/lufa/lufa-abcminiuser/LUFA/Drivers/USB/Core/AVR8/Template/Template_Endpoint_Control_W.c **** 			Endpoint_ClearIN();
  71:../../tmk_core/protocol/lufa/lufa-abcminiuser/LUFA/Drivers/USB/Core/AVR8/Template/Template_Endpoint_Control_W.c **** 		}
  72:../../tmk_core/protocol/lufa/lufa-abcminiuser/LUFA/Drivers/USB/Core/AVR8/Template/Template_Endpoint_Control_W.c **** 	}
  73:../../tmk_core/protocol/lufa/lufa-abcminiuser/LUFA/Drivers/USB/Core/AVR8/Template/Template_Endpoint_Control_W.c **** 
  74:../../tmk_core/protocol/lufa/lufa-abcminiuser/LUFA/Drivers/USB/Core/AVR8/Template/Template_Endpoint_Control_W.c **** 	while (!(Endpoint_IsOUTReceived()))
 2524               		.loc 4 74 8 view .LVU637
 2525 0030 82FF      		sbrs r24,2
 2526 0032 00C0      		rjmp .L152
  75:../../tmk_core/protocol/lufa/lufa-abcminiuser/LUFA/Drivers/USB/Core/AVR8/Template/Template_Endpoint_Control_W.c **** 	{
  76:../../tmk_core/protocol/lufa/lufa-abcminiuser/LUFA/Drivers/USB/Core/AVR8/Template/Template_Endpoint_Control_W.c **** 		uint8_t USB_DeviceState_LCL = USB_DeviceState;
  77:../../tmk_core/protocol/lufa/lufa-abcminiuser/LUFA/Drivers/USB/Core/AVR8/Template/Template_Endpoint_Control_W.c **** 
  78:../../tmk_core/protocol/lufa/lufa-abcminiuser/LUFA/Drivers/USB/Core/AVR8/Template/Template_Endpoint_Control_W.c **** 		if (USB_DeviceState_LCL == DEVICE_STATE_Unattached)
  79:../../tmk_core/protocol/lufa/lufa-abcminiuser/LUFA/Drivers/USB/Core/AVR8/Template/Template_Endpoint_Control_W.c **** 		  return ENDPOINT_RWCSTREAM_DeviceDisconnected;
  80:../../tmk_core/protocol/lufa/lufa-abcminiuser/LUFA/Drivers/USB/Core/AVR8/Template/Template_Endpoint_Control_W.c **** 		else if (USB_DeviceState_LCL == DEVICE_STATE_Suspended)
  81:../../tmk_core/protocol/lufa/lufa-abcminiuser/LUFA/Drivers/USB/Core/AVR8/Template/Template_Endpoint_Control_W.c **** 		  return ENDPOINT_RWCSTREAM_BusSuspended;
  82:../../tmk_core/protocol/lufa/lufa-abcminiuser/LUFA/Drivers/USB/Core/AVR8/Template/Template_Endpoint_Control_W.c **** 		else if (Endpoint_IsSETUPReceived())
  83:../../tmk_core/protocol/lufa/lufa-abcminiuser/LUFA/Drivers/USB/Core/AVR8/Template/Template_Endpoint_Control_W.c **** 		  return ENDPOINT_RWCSTREAM_HostAborted;
  84:../../tmk_core/protocol/lufa/lufa-abcminiuser/LUFA/Drivers/USB/Core/AVR8/Template/Template_Endpoint_Control_W.c **** 	}
  85:../../tmk_core/protocol/lufa/lufa-abcminiuser/LUFA/Drivers/USB/Core/AVR8/Template/Template_Endpoint_Control_W.c **** 
  86:../../tmk_core/protocol/lufa/lufa-abcminiuser/LUFA/Drivers/USB/Core/AVR8/Template/Template_Endpoint_Control_W.c **** 	return ENDPOINT_RWCSTREAM_NoError;
 2527               		.loc 4 86 9 view .LVU638
 2528 0034 80E0      		ldi r24,0
 2529 0036 0895      		ret
 2530               	.LVL228:
 2531               	.L153:
 2532               		.loc 4 86 9 view .LVU639
 2533 0038 BC01      		movw r22,r24
 2534               	.LVL229:
 2535               		.loc 4 86 9 view .LVU640
 2536 003a 00C0      		rjmp .L142
 2537               	.LVL230:
 2538               	.L151:
 2539               	.LBB346:
  46:../../tmk_core/protocol/lufa/lufa-abcminiuser/LUFA/Drivers/USB/Core/AVR8/Template/Template_Endpoint_Control_W.c **** 
 2540               		.loc 4 46 3 is_stmt 1 view .LVU641
  46:../../tmk_core/protocol/lufa/lufa-abcminiuser/LUFA/Drivers/USB/Core/AVR8/Template/Template_Endpoint_Control_W.c **** 
 2541               		.loc 4 46 11 is_stmt 0 view .LVU642
 2542 003c 8091 0000 		lds r24,USB_DeviceState
 2543               	.LVL231:
  48:../../tmk_core/protocol/lufa/lufa-abcminiuser/LUFA/Drivers/USB/Core/AVR8/Template/Template_Endpoint_Control_W.c **** 		  return ENDPOINT_RWCSTREAM_DeviceDisconnected;
 2544               		.loc 4 48 3 is_stmt 1 view .LVU643
  48:../../tmk_core/protocol/lufa/lufa-abcminiuser/LUFA/Drivers/USB/Core/AVR8/Template/Template_Endpoint_Control_W.c **** 		  return ENDPOINT_RWCSTREAM_DeviceDisconnected;
 2545               		.loc 4 48 6 is_stmt 0 view .LVU644
 2546 0040 8823      		tst r24
 2547 0042 01F0      		breq .L157
  50:../../tmk_core/protocol/lufa/lufa-abcminiuser/LUFA/Drivers/USB/Core/AVR8/Template/Template_Endpoint_Control_W.c **** 		  return ENDPOINT_RWCSTREAM_BusSuspended;
 2548               		.loc 4 50 8 is_stmt 1 view .LVU645
  50:../../tmk_core/protocol/lufa/lufa-abcminiuser/LUFA/Drivers/USB/Core/AVR8/Template/Template_Endpoint_Control_W.c **** 		  return ENDPOINT_RWCSTREAM_BusSuspended;
 2549               		.loc 4 50 11 is_stmt 0 view .LVU646
 2550 0044 8530      		cpi r24,lo8(5)
 2551 0046 01F0      		breq .L158
  52:../../tmk_core/protocol/lufa/lufa-abcminiuser/LUFA/Drivers/USB/Core/AVR8/Template/Template_Endpoint_Control_W.c **** 		  return ENDPOINT_RWCSTREAM_HostAborted;
 2552               		.loc 4 52 8 is_stmt 1 view .LVU647
 2553               	.LBB347:
 2554               	.LBI347:
 429:../../tmk_core/protocol/lufa/lufa-abcminiuser/LUFA/Drivers/USB/Core/AVR8/../AVR8/../AVR8/Endpoint_AVR8.h **** 			{
 2555               		.loc 2 429 23 view .LVU648
 2556               	.LBB348:
 431:../../tmk_core/protocol/lufa/lufa-abcminiuser/LUFA/Drivers/USB/Core/AVR8/../AVR8/../AVR8/Endpoint_AVR8.h **** 			}
 2557               		.loc 2 431 5 view .LVU649
 431:../../tmk_core/protocol/lufa/lufa-abcminiuser/LUFA/Drivers/USB/Core/AVR8/../AVR8/../AVR8/Endpoint_AVR8.h **** 			}
 2558               		.loc 2 431 14 is_stmt 0 view .LVU650
 2559 0048 8091 E800 		lds r24,232
 2560               	.LVL232:
 431:../../tmk_core/protocol/lufa/lufa-abcminiuser/LUFA/Drivers/USB/Core/AVR8/../AVR8/../AVR8/Endpoint_AVR8.h **** 			}
 2561               		.loc 2 431 14 view .LVU651
 2562               	.LBE348:
 2563               	.LBE347:
  52:../../tmk_core/protocol/lufa/lufa-abcminiuser/LUFA/Drivers/USB/Core/AVR8/Template/Template_Endpoint_Control_W.c **** 		  return ENDPOINT_RWCSTREAM_HostAborted;
 2564               		.loc 4 52 11 view .LVU652
 2565 004c 83FD      		sbrc r24,3
 2566 004e 00C0      		rjmp .L159
  54:../../tmk_core/protocol/lufa/lufa-abcminiuser/LUFA/Drivers/USB/Core/AVR8/Template/Template_Endpoint_Control_W.c **** 		  break;
 2567               		.loc 4 54 8 is_stmt 1 view .LVU653
 2568               	.LBB349:
 2569               	.LBI349:
 417:../../tmk_core/protocol/lufa/lufa-abcminiuser/LUFA/Drivers/USB/Core/AVR8/../AVR8/../AVR8/Endpoint_AVR8.h **** 			{
 2570               		.loc 2 417 23 view .LVU654
 2571               	.LBB350:
 419:../../tmk_core/protocol/lufa/lufa-abcminiuser/LUFA/Drivers/USB/Core/AVR8/../AVR8/../AVR8/Endpoint_AVR8.h **** 			}
 2572               		.loc 2 419 5 view .LVU655
 419:../../tmk_core/protocol/lufa/lufa-abcminiuser/LUFA/Drivers/USB/Core/AVR8/../AVR8/../AVR8/Endpoint_AVR8.h **** 			}
 2573               		.loc 2 419 14 is_stmt 0 view .LVU656
 2574 0050 8091 E800 		lds r24,232
 2575               	.LBE350:
 2576               	.LBE349:
  54:../../tmk_core/protocol/lufa/lufa-abcminiuser/LUFA/Drivers/USB/Core/AVR8/Template/Template_Endpoint_Control_W.c **** 		  break;
 2577               		.loc 4 54 11 view .LVU657
 2578 0054 82FD      		sbrc r24,2
 2579 0056 00C0      		rjmp .L165
  57:../../tmk_core/protocol/lufa/lufa-abcminiuser/LUFA/Drivers/USB/Core/AVR8/Template/Template_Endpoint_Control_W.c **** 		{
 2580               		.loc 4 57 3 is_stmt 1 view .LVU658
 2581               	.LBB351:
 2582               	.LBI351:
 405:../../tmk_core/protocol/lufa/lufa-abcminiuser/LUFA/Drivers/USB/Core/AVR8/../AVR8/../AVR8/Endpoint_AVR8.h **** 			{
 2583               		.loc 2 405 23 view .LVU659
 2584               	.LBB352:
 407:../../tmk_core/protocol/lufa/lufa-abcminiuser/LUFA/Drivers/USB/Core/AVR8/../AVR8/../AVR8/Endpoint_AVR8.h **** 			}
 2585               		.loc 2 407 5 view .LVU660
 407:../../tmk_core/protocol/lufa/lufa-abcminiuser/LUFA/Drivers/USB/Core/AVR8/../AVR8/../AVR8/Endpoint_AVR8.h **** 			}
 2586               		.loc 2 407 14 is_stmt 0 view .LVU661
 2587 0058 8091 E800 		lds r24,232
 2588               	.LBE352:
 2589               	.LBE351:
  57:../../tmk_core/protocol/lufa/lufa-abcminiuser/LUFA/Drivers/USB/Core/AVR8/Template/Template_Endpoint_Control_W.c **** 		{
 2590               		.loc 4 57 6 view .LVU662
 2591 005c 80FF      		sbrs r24,0
 2592 005e 00C0      		rjmp .L146
 2593               	.LBB353:
  59:../../tmk_core/protocol/lufa/lufa-abcminiuser/LUFA/Drivers/USB/Core/AVR8/Template/Template_Endpoint_Control_W.c **** 
 2594               		.loc 4 59 4 is_stmt 1 view .LVU663
 2595               	.LBB354:
 2596               	.LBI354:
 222:../../tmk_core/protocol/lufa/lufa-abcminiuser/LUFA/Drivers/USB/Core/AVR8/../AVR8/../AVR8/Endpoint_AVR8.h **** 			{
 2597               		.loc 2 222 27 view .LVU664
 2598               	.LBB355:
 227:../../tmk_core/protocol/lufa/lufa-abcminiuser/LUFA/Drivers/USB/Core/AVR8/../AVR8/../AVR8/Endpoint_AVR8.h **** 				#elif defined(USB_SERIES_2_AVR)
 2599               		.loc 2 227 6 view .LVU665
 227:../../tmk_core/protocol/lufa/lufa-abcminiuser/LUFA/Drivers/USB/Core/AVR8/../AVR8/../AVR8/Endpoint_AVR8.h **** 				#elif defined(USB_SERIES_2_AVR)
 2600               		.loc 2 227 25 is_stmt 0 view .LVU666
 2601 0060 8091 F300 		lds r24,243
 227:../../tmk_core/protocol/lufa/lufa-abcminiuser/LUFA/Drivers/USB/Core/AVR8/../AVR8/../AVR8/Endpoint_AVR8.h **** 				#elif defined(USB_SERIES_2_AVR)
 2602               		.loc 2 227 40 view .LVU667
 2603 0064 2091 F200 		lds r18,242
 227:../../tmk_core/protocol/lufa/lufa-abcminiuser/LUFA/Drivers/USB/Core/AVR8/../AVR8/../AVR8/Endpoint_AVR8.h **** 				#elif defined(USB_SERIES_2_AVR)
 2604               		.loc 2 227 38 view .LVU668
 2605 0068 382F      		mov r19,r24
 2606               	.LVL233:
 227:../../tmk_core/protocol/lufa/lufa-abcminiuser/LUFA/Drivers/USB/Core/AVR8/../AVR8/../AVR8/Endpoint_AVR8.h **** 				#elif defined(USB_SERIES_2_AVR)
 2607               		.loc 2 227 38 view .LVU669
 2608               	.LBE355:
 2609               	.LBE354:
  61:../../tmk_core/protocol/lufa/lufa-abcminiuser/LUFA/Drivers/USB/Core/AVR8/Template/Template_Endpoint_Control_W.c **** 			{
 2610               		.loc 4 61 4 is_stmt 1 view .LVU670
 2611               	.L147:
  61:../../tmk_core/protocol/lufa/lufa-abcminiuser/LUFA/Drivers/USB/Core/AVR8/Template/Template_Endpoint_Control_W.c **** 			{
 2612               		.loc 4 61 10 is_stmt 0 view .LVU671
 2613 006a 6115      		cp r22,__zero_reg__
 2614 006c 7105      		cpc r23,__zero_reg__
 2615 006e 01F0      		breq .L148
  61:../../tmk_core/protocol/lufa/lufa-abcminiuser/LUFA/Drivers/USB/Core/AVR8/Template/Template_Endpoint_Control_W.c **** 			{
 2616               		.loc 4 61 18 discriminator 1 view .LVU672
 2617 0070 2830      		cpi r18,8
 2618 0072 3105      		cpc r19,__zero_reg__
 2619 0074 00F0      		brlo .L149
 2620               	.L148:
  69:../../tmk_core/protocol/lufa/lufa-abcminiuser/LUFA/Drivers/USB/Core/AVR8/Template/Template_Endpoint_Control_W.c **** 			Endpoint_ClearIN();
 2621               		.loc 4 69 4 is_stmt 1 view .LVU673
  69:../../tmk_core/protocol/lufa/lufa-abcminiuser/LUFA/Drivers/USB/Core/AVR8/Template/Template_Endpoint_Control_W.c **** 			Endpoint_ClearIN();
 2622               		.loc 4 69 19 is_stmt 0 view .LVU674
 2623 0076 91E0      		ldi r25,lo8(1)
 2624               	.LVL234:
  69:../../tmk_core/protocol/lufa/lufa-abcminiuser/LUFA/Drivers/USB/Core/AVR8/Template/Template_Endpoint_Control_W.c **** 			Endpoint_ClearIN();
 2625               		.loc 4 69 19 view .LVU675
 2626 0078 2830      		cpi r18,8
 2627 007a 3105      		cpc r19,__zero_reg__
 2628 007c 01F0      		breq .L150
 2629 007e 90E0      		ldi r25,0
 2630               	.L150:
 2631               	.LVL235:
  70:../../tmk_core/protocol/lufa/lufa-abcminiuser/LUFA/Drivers/USB/Core/AVR8/Template/Template_Endpoint_Control_W.c **** 		}
 2632               		.loc 4 70 4 is_stmt 1 view .LVU676
 2633               	.LBB356:
 2634               	.LBI356:
 453:../../tmk_core/protocol/lufa/lufa-abcminiuser/LUFA/Drivers/USB/Core/AVR8/../AVR8/../AVR8/Endpoint_AVR8.h **** 			{
 2635               		.loc 2 453 23 view .LVU677
 2636               	.LBB357:
 456:../../tmk_core/protocol/lufa/lufa-abcminiuser/LUFA/Drivers/USB/Core/AVR8/../AVR8/../AVR8/Endpoint_AVR8.h **** 				#else
 2637               		.loc 2 456 6 view .LVU678
 456:../../tmk_core/protocol/lufa/lufa-abcminiuser/LUFA/Drivers/USB/Core/AVR8/../AVR8/../AVR8/Endpoint_AVR8.h **** 				#else
 2638               		.loc 2 456 13 is_stmt 0 view .LVU679
 2639 0080 2091 E800 		lds r18,232
 2640               	.LVL236:
 456:../../tmk_core/protocol/lufa/lufa-abcminiuser/LUFA/Drivers/USB/Core/AVR8/../AVR8/../AVR8/Endpoint_AVR8.h **** 				#else
 2641               		.loc 2 456 13 view .LVU680
 2642 0084 2E77      		andi r18,lo8(126)
 2643 0086 2093 E800 		sts 232,r18
 2644 008a 00C0      		rjmp .L146
 2645               	.LVL237:
 2646               	.L149:
 456:../../tmk_core/protocol/lufa/lufa-abcminiuser/LUFA/Drivers/USB/Core/AVR8/../AVR8/../AVR8/Endpoint_AVR8.h **** 				#else
 2647               		.loc 2 456 13 view .LVU681
 2648               	.LBE357:
 2649               	.LBE356:
  63:../../tmk_core/protocol/lufa/lufa-abcminiuser/LUFA/Drivers/USB/Core/AVR8/Template/Template_Endpoint_Control_W.c **** 				TEMPLATE_BUFFER_MOVE(DataStream, 1);
 2650               		.loc 4 63 5 is_stmt 1 view .LVU682
 2651 008c 8191      		ld r24,Z+
 2652               	.LVL238:
 2653               	.LBB358:
 2654               	.LBI358:
 552:../../tmk_core/protocol/lufa/lufa-abcminiuser/LUFA/Drivers/USB/Core/AVR8/../AVR8/../AVR8/Endpoint_AVR8.h **** 			{
 2655               		.loc 2 552 23 view .LVU683
 2656               	.LBB359:
 554:../../tmk_core/protocol/lufa/lufa-abcminiuser/LUFA/Drivers/USB/Core/AVR8/../AVR8/../AVR8/Endpoint_AVR8.h **** 			}
 2657               		.loc 2 554 5 view .LVU684
 554:../../tmk_core/protocol/lufa/lufa-abcminiuser/LUFA/Drivers/USB/Core/AVR8/../AVR8/../AVR8/Endpoint_AVR8.h **** 			}
 2658               		.loc 2 554 12 is_stmt 0 view .LVU685
 2659 008e 8093 F100 		sts 241,r24
 2660               	.LVL239:
 554:../../tmk_core/protocol/lufa/lufa-abcminiuser/LUFA/Drivers/USB/Core/AVR8/../AVR8/../AVR8/Endpoint_AVR8.h **** 			}
 2661               		.loc 2 554 12 view .LVU686
 2662               	.LBE359:
 2663               	.LBE358:
  64:../../tmk_core/protocol/lufa/lufa-abcminiuser/LUFA/Drivers/USB/Core/AVR8/Template/Template_Endpoint_Control_W.c **** 				Length--;
 2664               		.loc 4 64 5 is_stmt 1 view .LVU687
  65:../../tmk_core/protocol/lufa/lufa-abcminiuser/LUFA/Drivers/USB/Core/AVR8/Template/Template_Endpoint_Control_W.c **** 				BytesInEndpoint++;
 2665               		.loc 4 65 5 view .LVU688
  65:../../tmk_core/protocol/lufa/lufa-abcminiuser/LUFA/Drivers/USB/Core/AVR8/Template/Template_Endpoint_Control_W.c **** 				BytesInEndpoint++;
 2666               		.loc 4 65 11 is_stmt 0 view .LVU689
 2667 0092 6150      		subi r22,1
 2668 0094 7109      		sbc r23,__zero_reg__
 2669               	.LVL240:
  66:../../tmk_core/protocol/lufa/lufa-abcminiuser/LUFA/Drivers/USB/Core/AVR8/Template/Template_Endpoint_Control_W.c **** 			}
 2670               		.loc 4 66 5 is_stmt 1 view .LVU690
  66:../../tmk_core/protocol/lufa/lufa-abcminiuser/LUFA/Drivers/USB/Core/AVR8/Template/Template_Endpoint_Control_W.c **** 			}
 2671               		.loc 4 66 20 is_stmt 0 view .LVU691
 2672 0096 2F5F      		subi r18,-1
 2673 0098 3F4F      		sbci r19,-1
 2674               	.LVL241:
  66:../../tmk_core/protocol/lufa/lufa-abcminiuser/LUFA/Drivers/USB/Core/AVR8/Template/Template_Endpoint_Control_W.c **** 			}
 2675               		.loc 4 66 20 view .LVU692
 2676 009a 00C0      		rjmp .L147
 2677               	.LVL242:
 2678               	.L152:
  66:../../tmk_core/protocol/lufa/lufa-abcminiuser/LUFA/Drivers/USB/Core/AVR8/Template/Template_Endpoint_Control_W.c **** 			}
 2679               		.loc 4 66 20 view .LVU693
 2680               	.LBE353:
 2681               	.LBE346:
 2682               	.LBB360:
  76:../../tmk_core/protocol/lufa/lufa-abcminiuser/LUFA/Drivers/USB/Core/AVR8/Template/Template_Endpoint_Control_W.c **** 
 2683               		.loc 4 76 3 is_stmt 1 view .LVU694
  76:../../tmk_core/protocol/lufa/lufa-abcminiuser/LUFA/Drivers/USB/Core/AVR8/Template/Template_Endpoint_Control_W.c **** 
 2684               		.loc 4 76 11 is_stmt 0 view .LVU695
 2685 009c 8091 0000 		lds r24,USB_DeviceState
 2686               	.LVL243:
  78:../../tmk_core/protocol/lufa/lufa-abcminiuser/LUFA/Drivers/USB/Core/AVR8/Template/Template_Endpoint_Control_W.c **** 		  return ENDPOINT_RWCSTREAM_DeviceDisconnected;
 2687               		.loc 4 78 3 is_stmt 1 view .LVU696
  78:../../tmk_core/protocol/lufa/lufa-abcminiuser/LUFA/Drivers/USB/Core/AVR8/Template/Template_Endpoint_Control_W.c **** 		  return ENDPOINT_RWCSTREAM_DeviceDisconnected;
 2688               		.loc 4 78 6 is_stmt 0 view .LVU697
 2689 00a0 8823      		tst r24
 2690 00a2 01F0      		breq .L157
  80:../../tmk_core/protocol/lufa/lufa-abcminiuser/LUFA/Drivers/USB/Core/AVR8/Template/Template_Endpoint_Control_W.c **** 		  return ENDPOINT_RWCSTREAM_BusSuspended;
 2691               		.loc 4 80 8 is_stmt 1 view .LVU698
  80:../../tmk_core/protocol/lufa/lufa-abcminiuser/LUFA/Drivers/USB/Core/AVR8/Template/Template_Endpoint_Control_W.c **** 		  return ENDPOINT_RWCSTREAM_BusSuspended;
 2692               		.loc 4 80 11 is_stmt 0 view .LVU699
 2693 00a4 8530      		cpi r24,lo8(5)
 2694 00a6 01F0      		breq .L158
  82:../../tmk_core/protocol/lufa/lufa-abcminiuser/LUFA/Drivers/USB/Core/AVR8/Template/Template_Endpoint_Control_W.c **** 		  return ENDPOINT_RWCSTREAM_HostAborted;
 2695               		.loc 4 82 8 is_stmt 1 view .LVU700
 2696               	.LBB361:
 2697               	.LBI361:
 429:../../tmk_core/protocol/lufa/lufa-abcminiuser/LUFA/Drivers/USB/Core/AVR8/../AVR8/../AVR8/Endpoint_AVR8.h **** 			{
 2698               		.loc 2 429 23 view .LVU701
 2699               	.LBB362:
 431:../../tmk_core/protocol/lufa/lufa-abcminiuser/LUFA/Drivers/USB/Core/AVR8/../AVR8/../AVR8/Endpoint_AVR8.h **** 			}
 2700               		.loc 2 431 5 view .LVU702
 431:../../tmk_core/protocol/lufa/lufa-abcminiuser/LUFA/Drivers/USB/Core/AVR8/../AVR8/../AVR8/Endpoint_AVR8.h **** 			}
 2701               		.loc 2 431 14 is_stmt 0 view .LVU703
 2702 00a8 8091 E800 		lds r24,232
 2703               	.LVL244:
 431:../../tmk_core/protocol/lufa/lufa-abcminiuser/LUFA/Drivers/USB/Core/AVR8/../AVR8/../AVR8/Endpoint_AVR8.h **** 			}
 2704               		.loc 2 431 14 view .LVU704
 2705               	.LBE362:
 2706               	.LBE361:
  82:../../tmk_core/protocol/lufa/lufa-abcminiuser/LUFA/Drivers/USB/Core/AVR8/Template/Template_Endpoint_Control_W.c **** 		  return ENDPOINT_RWCSTREAM_HostAborted;
 2707               		.loc 4 82 11 view .LVU705
 2708 00ac 83FF      		sbrs r24,3
 2709 00ae 00C0      		rjmp .L165
 2710               	.L159:
  82:../../tmk_core/protocol/lufa/lufa-abcminiuser/LUFA/Drivers/USB/Core/AVR8/Template/Template_Endpoint_Control_W.c **** 		  return ENDPOINT_RWCSTREAM_HostAborted;
 2711               		.loc 4 82 11 view .LVU706
 2712               	.LBE360:
 2713               	.LBB363:
  53:../../tmk_core/protocol/lufa/lufa-abcminiuser/LUFA/Drivers/USB/Core/AVR8/Template/Template_Endpoint_Control_W.c **** 		else if (Endpoint_IsOUTReceived())
 2714               		.loc 4 53 12 view .LVU707
 2715 00b0 81E0      		ldi r24,lo8(1)
 2716               	/* epilogue start */
 2717               	.LBE363:
  87:../../tmk_core/protocol/lufa/lufa-abcminiuser/LUFA/Drivers/USB/Core/AVR8/Template/Template_Endpoint_Control_W.c **** }
 2718               		.loc 4 87 1 view .LVU708
 2719 00b2 0895      		ret
 2720               	.L157:
 2721               	.LBB364:
  49:../../tmk_core/protocol/lufa/lufa-abcminiuser/LUFA/Drivers/USB/Core/AVR8/Template/Template_Endpoint_Control_W.c **** 		else if (USB_DeviceState_LCL == DEVICE_STATE_Suspended)
 2722               		.loc 4 49 12 view .LVU709
 2723 00b4 82E0      		ldi r24,lo8(2)
 2724 00b6 0895      		ret
 2725               	.L158:
  51:../../tmk_core/protocol/lufa/lufa-abcminiuser/LUFA/Drivers/USB/Core/AVR8/Template/Template_Endpoint_Control_W.c **** 		else if (Endpoint_IsSETUPReceived())
 2726               		.loc 4 51 12 view .LVU710
 2727 00b8 83E0      		ldi r24,lo8(3)
 2728 00ba 0895      		ret
 2729               	.LBE364:
 2730               		.cfi_endproc
 2731               	.LFE97:
 2733               		.section	.text.Endpoint_Write_Control_Stream_BE,"ax",@progbits
 2734               	.global	Endpoint_Write_Control_Stream_BE
 2736               	Endpoint_Write_Control_Stream_BE:
 2737               	.LVL245:
 2738               	.LFB98:
  35:../../tmk_core/protocol/lufa/lufa-abcminiuser/LUFA/Drivers/USB/Core/AVR8/Template/Template_Endpoint_Control_W.c **** 	uint8_t* DataStream     = ((uint8_t*)Buffer + TEMPLATE_BUFFER_OFFSET(Length));
 2739               		.loc 4 35 1 is_stmt 1 view -0
 2740               		.cfi_startproc
 2741               	/* prologue: function */
 2742               	/* frame size = 0 */
 2743               	/* stack size = 0 */
 2744               	.L__stack_usage = 0
  36:../../tmk_core/protocol/lufa/lufa-abcminiuser/LUFA/Drivers/USB/Core/AVR8/Template/Template_Endpoint_Control_W.c **** 	bool     LastPacketFull = false;
 2745               		.loc 4 36 2 view .LVU712
  36:../../tmk_core/protocol/lufa/lufa-abcminiuser/LUFA/Drivers/USB/Core/AVR8/Template/Template_Endpoint_Control_W.c **** 	bool     LastPacketFull = false;
 2746               		.loc 4 36 46 is_stmt 0 view .LVU713
 2747 0000 9B01      		movw r18,r22
 2748 0002 2150      		subi r18,1
 2749 0004 3109      		sbc r19,__zero_reg__
  36:../../tmk_core/protocol/lufa/lufa-abcminiuser/LUFA/Drivers/USB/Core/AVR8/Template/Template_Endpoint_Control_W.c **** 	bool     LastPacketFull = false;
 2750               		.loc 4 36 11 view .LVU714
 2751 0006 820F      		add r24,r18
 2752 0008 931F      		adc r25,r19
 2753               	.LVL246:
  37:../../tmk_core/protocol/lufa/lufa-abcminiuser/LUFA/Drivers/USB/Core/AVR8/Template/Template_Endpoint_Control_W.c **** 
 2754               		.loc 4 37 2 is_stmt 1 view .LVU715
  39:../../tmk_core/protocol/lufa/lufa-abcminiuser/LUFA/Drivers/USB/Core/AVR8/Template/Template_Endpoint_Control_W.c **** 	  Length = USB_ControlRequest.wLength;
 2755               		.loc 4 39 2 view .LVU716
  39:../../tmk_core/protocol/lufa/lufa-abcminiuser/LUFA/Drivers/USB/Core/AVR8/Template/Template_Endpoint_Control_W.c **** 	  Length = USB_ControlRequest.wLength;
 2756               		.loc 4 39 33 is_stmt 0 view .LVU717
 2757 000a 2091 0000 		lds r18,USB_ControlRequest+6
 2758 000e 3091 0000 		lds r19,USB_ControlRequest+6+1
  39:../../tmk_core/protocol/lufa/lufa-abcminiuser/LUFA/Drivers/USB/Core/AVR8/Template/Template_Endpoint_Control_W.c **** 	  Length = USB_ControlRequest.wLength;
 2759               		.loc 4 39 5 view .LVU718
 2760 0012 2617      		cp r18,r22
 2761 0014 3707      		cpc r19,r23
 2762 0016 00F0      		brlo .L181
  41:../../tmk_core/protocol/lufa/lufa-abcminiuser/LUFA/Drivers/USB/Core/AVR8/Template/Template_Endpoint_Control_W.c **** 	  Endpoint_ClearIN();
 2763               		.loc 4 41 7 is_stmt 1 view .LVU719
  41:../../tmk_core/protocol/lufa/lufa-abcminiuser/LUFA/Drivers/USB/Core/AVR8/Template/Template_Endpoint_Control_W.c **** 	  Endpoint_ClearIN();
 2764               		.loc 4 41 10 is_stmt 0 view .LVU720
 2765 0018 6115      		cp r22,__zero_reg__
 2766 001a 7105      		cpc r23,__zero_reg__
 2767 001c 01F4      		brne .L170
  42:../../tmk_core/protocol/lufa/lufa-abcminiuser/LUFA/Drivers/USB/Core/AVR8/Template/Template_Endpoint_Control_W.c **** 
 2768               		.loc 4 42 4 is_stmt 1 view .LVU721
 2769               	.LBB365:
 2770               	.LBI365:
 453:../../tmk_core/protocol/lufa/lufa-abcminiuser/LUFA/Drivers/USB/Core/AVR8/../AVR8/../AVR8/Endpoint_AVR8.h **** 			{
 2771               		.loc 2 453 23 view .LVU722
 2772               	.LBB366:
 456:../../tmk_core/protocol/lufa/lufa-abcminiuser/LUFA/Drivers/USB/Core/AVR8/../AVR8/../AVR8/Endpoint_AVR8.h **** 				#else
 2773               		.loc 2 456 6 view .LVU723
 456:../../tmk_core/protocol/lufa/lufa-abcminiuser/LUFA/Drivers/USB/Core/AVR8/../AVR8/../AVR8/Endpoint_AVR8.h **** 				#else
 2774               		.loc 2 456 13 is_stmt 0 view .LVU724
 2775 001e 2091 E800 		lds r18,232
 2776 0022 2E77      		andi r18,lo8(126)
 2777 0024 2093 E800 		sts 232,r18
 2778               	.LVL247:
 2779               	.L170:
 456:../../tmk_core/protocol/lufa/lufa-abcminiuser/LUFA/Drivers/USB/Core/AVR8/../AVR8/../AVR8/Endpoint_AVR8.h **** 				#else
 2780               		.loc 2 456 13 view .LVU725
 2781               	.LBE366:
 2782               	.LBE365:
 2783 0028 40E0      		ldi r20,0
 2784               	.LVL248:
 2785               	.L174:
  44:../../tmk_core/protocol/lufa/lufa-abcminiuser/LUFA/Drivers/USB/Core/AVR8/Template/Template_Endpoint_Control_W.c **** 	{
 2786               		.loc 4 44 8 view .LVU726
 2787 002a 6115      		cp r22,__zero_reg__
 2788 002c 7105      		cpc r23,__zero_reg__
 2789 002e 01F4      		brne .L179
  44:../../tmk_core/protocol/lufa/lufa-abcminiuser/LUFA/Drivers/USB/Core/AVR8/Template/Template_Endpoint_Control_W.c **** 	{
 2790               		.loc 4 44 16 discriminator 1 view .LVU727
 2791 0030 4111      		cpse r20,__zero_reg__
 2792 0032 00C0      		rjmp .L179
 2793               	.LVL249:
 2794               	.L193:
 2795               	.LBB367:
 2796               	.LBI367:
 417:../../tmk_core/protocol/lufa/lufa-abcminiuser/LUFA/Drivers/USB/Core/AVR8/../AVR8/../AVR8/Endpoint_AVR8.h **** 			{
 2797               		.loc 2 417 23 is_stmt 1 view .LVU728
 2798               	.LBB368:
 419:../../tmk_core/protocol/lufa/lufa-abcminiuser/LUFA/Drivers/USB/Core/AVR8/../AVR8/../AVR8/Endpoint_AVR8.h **** 			}
 2799               		.loc 2 419 5 view .LVU729
 419:../../tmk_core/protocol/lufa/lufa-abcminiuser/LUFA/Drivers/USB/Core/AVR8/../AVR8/../AVR8/Endpoint_AVR8.h **** 			}
 2800               		.loc 2 419 14 is_stmt 0 view .LVU730
 2801 0034 8091 E800 		lds r24,232
 2802               	.LBE368:
 2803               	.LBE367:
  74:../../tmk_core/protocol/lufa/lufa-abcminiuser/LUFA/Drivers/USB/Core/AVR8/Template/Template_Endpoint_Control_W.c **** 	{
 2804               		.loc 4 74 8 view .LVU731
 2805 0038 82FF      		sbrs r24,2
 2806 003a 00C0      		rjmp .L180
  86:../../tmk_core/protocol/lufa/lufa-abcminiuser/LUFA/Drivers/USB/Core/AVR8/Template/Template_Endpoint_Control_W.c **** }
 2807               		.loc 4 86 9 view .LVU732
 2808 003c 80E0      		ldi r24,0
 2809 003e 0895      		ret
 2810               	.LVL250:
 2811               	.L181:
  86:../../tmk_core/protocol/lufa/lufa-abcminiuser/LUFA/Drivers/USB/Core/AVR8/Template/Template_Endpoint_Control_W.c **** }
 2812               		.loc 4 86 9 view .LVU733
 2813 0040 B901      		movw r22,r18
 2814               	.LVL251:
  86:../../tmk_core/protocol/lufa/lufa-abcminiuser/LUFA/Drivers/USB/Core/AVR8/Template/Template_Endpoint_Control_W.c **** }
 2815               		.loc 4 86 9 view .LVU734
 2816 0042 00C0      		rjmp .L170
 2817               	.LVL252:
 2818               	.L179:
 2819               	.LBB369:
  46:../../tmk_core/protocol/lufa/lufa-abcminiuser/LUFA/Drivers/USB/Core/AVR8/Template/Template_Endpoint_Control_W.c **** 
 2820               		.loc 4 46 3 is_stmt 1 view .LVU735
  46:../../tmk_core/protocol/lufa/lufa-abcminiuser/LUFA/Drivers/USB/Core/AVR8/Template/Template_Endpoint_Control_W.c **** 
 2821               		.loc 4 46 11 is_stmt 0 view .LVU736
 2822 0044 2091 0000 		lds r18,USB_DeviceState
 2823               	.LVL253:
  48:../../tmk_core/protocol/lufa/lufa-abcminiuser/LUFA/Drivers/USB/Core/AVR8/Template/Template_Endpoint_Control_W.c **** 		  return ENDPOINT_RWCSTREAM_DeviceDisconnected;
 2824               		.loc 4 48 3 is_stmt 1 view .LVU737
  48:../../tmk_core/protocol/lufa/lufa-abcminiuser/LUFA/Drivers/USB/Core/AVR8/Template/Template_Endpoint_Control_W.c **** 		  return ENDPOINT_RWCSTREAM_DeviceDisconnected;
 2825               		.loc 4 48 6 is_stmt 0 view .LVU738
 2826 0048 2223      		tst r18
 2827 004a 01F0      		breq .L185
  50:../../tmk_core/protocol/lufa/lufa-abcminiuser/LUFA/Drivers/USB/Core/AVR8/Template/Template_Endpoint_Control_W.c **** 		  return ENDPOINT_RWCSTREAM_BusSuspended;
 2828               		.loc 4 50 8 is_stmt 1 view .LVU739
  50:../../tmk_core/protocol/lufa/lufa-abcminiuser/LUFA/Drivers/USB/Core/AVR8/Template/Template_Endpoint_Control_W.c **** 		  return ENDPOINT_RWCSTREAM_BusSuspended;
 2829               		.loc 4 50 11 is_stmt 0 view .LVU740
 2830 004c 2530      		cpi r18,lo8(5)
 2831 004e 01F0      		breq .L186
  52:../../tmk_core/protocol/lufa/lufa-abcminiuser/LUFA/Drivers/USB/Core/AVR8/Template/Template_Endpoint_Control_W.c **** 		  return ENDPOINT_RWCSTREAM_HostAborted;
 2832               		.loc 4 52 8 is_stmt 1 view .LVU741
 2833               	.LBB370:
 2834               	.LBI370:
 429:../../tmk_core/protocol/lufa/lufa-abcminiuser/LUFA/Drivers/USB/Core/AVR8/../AVR8/../AVR8/Endpoint_AVR8.h **** 			{
 2835               		.loc 2 429 23 view .LVU742
 2836               	.LBB371:
 431:../../tmk_core/protocol/lufa/lufa-abcminiuser/LUFA/Drivers/USB/Core/AVR8/../AVR8/../AVR8/Endpoint_AVR8.h **** 			}
 2837               		.loc 2 431 5 view .LVU743
 431:../../tmk_core/protocol/lufa/lufa-abcminiuser/LUFA/Drivers/USB/Core/AVR8/../AVR8/../AVR8/Endpoint_AVR8.h **** 			}
 2838               		.loc 2 431 14 is_stmt 0 view .LVU744
 2839 0050 2091 E800 		lds r18,232
 2840               	.LVL254:
 431:../../tmk_core/protocol/lufa/lufa-abcminiuser/LUFA/Drivers/USB/Core/AVR8/../AVR8/../AVR8/Endpoint_AVR8.h **** 			}
 2841               		.loc 2 431 14 view .LVU745
 2842               	.LBE371:
 2843               	.LBE370:
  52:../../tmk_core/protocol/lufa/lufa-abcminiuser/LUFA/Drivers/USB/Core/AVR8/Template/Template_Endpoint_Control_W.c **** 		  return ENDPOINT_RWCSTREAM_HostAborted;
 2844               		.loc 4 52 11 view .LVU746
 2845 0054 23FD      		sbrc r18,3
 2846 0056 00C0      		rjmp .L187
  54:../../tmk_core/protocol/lufa/lufa-abcminiuser/LUFA/Drivers/USB/Core/AVR8/Template/Template_Endpoint_Control_W.c **** 		  break;
 2847               		.loc 4 54 8 is_stmt 1 view .LVU747
 2848               	.LBB372:
 2849               	.LBI372:
 417:../../tmk_core/protocol/lufa/lufa-abcminiuser/LUFA/Drivers/USB/Core/AVR8/../AVR8/../AVR8/Endpoint_AVR8.h **** 			{
 2850               		.loc 2 417 23 view .LVU748
 2851               	.LBB373:
 419:../../tmk_core/protocol/lufa/lufa-abcminiuser/LUFA/Drivers/USB/Core/AVR8/../AVR8/../AVR8/Endpoint_AVR8.h **** 			}
 2852               		.loc 2 419 5 view .LVU749
 419:../../tmk_core/protocol/lufa/lufa-abcminiuser/LUFA/Drivers/USB/Core/AVR8/../AVR8/../AVR8/Endpoint_AVR8.h **** 			}
 2853               		.loc 2 419 14 is_stmt 0 view .LVU750
 2854 0058 2091 E800 		lds r18,232
 2855               	.LBE373:
 2856               	.LBE372:
  54:../../tmk_core/protocol/lufa/lufa-abcminiuser/LUFA/Drivers/USB/Core/AVR8/Template/Template_Endpoint_Control_W.c **** 		  break;
 2857               		.loc 4 54 11 view .LVU751
 2858 005c 22FD      		sbrc r18,2
 2859 005e 00C0      		rjmp .L193
  57:../../tmk_core/protocol/lufa/lufa-abcminiuser/LUFA/Drivers/USB/Core/AVR8/Template/Template_Endpoint_Control_W.c **** 		{
 2860               		.loc 4 57 3 is_stmt 1 view .LVU752
 2861               	.LBB374:
 2862               	.LBI374:
 405:../../tmk_core/protocol/lufa/lufa-abcminiuser/LUFA/Drivers/USB/Core/AVR8/../AVR8/../AVR8/Endpoint_AVR8.h **** 			{
 2863               		.loc 2 405 23 view .LVU753
 2864               	.LBB375:
 407:../../tmk_core/protocol/lufa/lufa-abcminiuser/LUFA/Drivers/USB/Core/AVR8/../AVR8/../AVR8/Endpoint_AVR8.h **** 			}
 2865               		.loc 2 407 5 view .LVU754
 407:../../tmk_core/protocol/lufa/lufa-abcminiuser/LUFA/Drivers/USB/Core/AVR8/../AVR8/../AVR8/Endpoint_AVR8.h **** 			}
 2866               		.loc 2 407 14 is_stmt 0 view .LVU755
 2867 0060 2091 E800 		lds r18,232
 2868               	.LBE375:
 2869               	.LBE374:
  57:../../tmk_core/protocol/lufa/lufa-abcminiuser/LUFA/Drivers/USB/Core/AVR8/Template/Template_Endpoint_Control_W.c **** 		{
 2870               		.loc 4 57 6 view .LVU756
 2871 0064 20FF      		sbrs r18,0
 2872 0066 00C0      		rjmp .L174
 2873               	.LBB376:
  59:../../tmk_core/protocol/lufa/lufa-abcminiuser/LUFA/Drivers/USB/Core/AVR8/Template/Template_Endpoint_Control_W.c **** 
 2874               		.loc 4 59 4 is_stmt 1 view .LVU757
 2875               	.LBB377:
 2876               	.LBI377:
 222:../../tmk_core/protocol/lufa/lufa-abcminiuser/LUFA/Drivers/USB/Core/AVR8/../AVR8/../AVR8/Endpoint_AVR8.h **** 			{
 2877               		.loc 2 222 27 view .LVU758
 2878               	.LBB378:
 227:../../tmk_core/protocol/lufa/lufa-abcminiuser/LUFA/Drivers/USB/Core/AVR8/../AVR8/../AVR8/Endpoint_AVR8.h **** 				#elif defined(USB_SERIES_2_AVR)
 2879               		.loc 2 227 6 view .LVU759
 227:../../tmk_core/protocol/lufa/lufa-abcminiuser/LUFA/Drivers/USB/Core/AVR8/../AVR8/../AVR8/Endpoint_AVR8.h **** 				#elif defined(USB_SERIES_2_AVR)
 2880               		.loc 2 227 25 is_stmt 0 view .LVU760
 2881 0068 3091 F300 		lds r19,243
 227:../../tmk_core/protocol/lufa/lufa-abcminiuser/LUFA/Drivers/USB/Core/AVR8/../AVR8/../AVR8/Endpoint_AVR8.h **** 				#elif defined(USB_SERIES_2_AVR)
 2882               		.loc 2 227 40 view .LVU761
 2883 006c 2091 F200 		lds r18,242
 2884               	.LVL255:
 227:../../tmk_core/protocol/lufa/lufa-abcminiuser/LUFA/Drivers/USB/Core/AVR8/../AVR8/../AVR8/Endpoint_AVR8.h **** 				#elif defined(USB_SERIES_2_AVR)
 2885               		.loc 2 227 40 view .LVU762
 2886               	.LBE378:
 2887               	.LBE377:
  61:../../tmk_core/protocol/lufa/lufa-abcminiuser/LUFA/Drivers/USB/Core/AVR8/Template/Template_Endpoint_Control_W.c **** 			{
 2888               		.loc 4 61 4 is_stmt 1 view .LVU763
 2889               	.L175:
  61:../../tmk_core/protocol/lufa/lufa-abcminiuser/LUFA/Drivers/USB/Core/AVR8/Template/Template_Endpoint_Control_W.c **** 			{
 2890               		.loc 4 61 10 is_stmt 0 view .LVU764
 2891 0070 6115      		cp r22,__zero_reg__
 2892 0072 7105      		cpc r23,__zero_reg__
 2893 0074 01F0      		breq .L176
  61:../../tmk_core/protocol/lufa/lufa-abcminiuser/LUFA/Drivers/USB/Core/AVR8/Template/Template_Endpoint_Control_W.c **** 			{
 2894               		.loc 4 61 18 discriminator 1 view .LVU765
 2895 0076 2830      		cpi r18,8
 2896 0078 3105      		cpc r19,__zero_reg__
 2897 007a 00F0      		brlo .L177
 2898               	.L176:
  69:../../tmk_core/protocol/lufa/lufa-abcminiuser/LUFA/Drivers/USB/Core/AVR8/Template/Template_Endpoint_Control_W.c **** 			Endpoint_ClearIN();
 2899               		.loc 4 69 4 is_stmt 1 view .LVU766
  69:../../tmk_core/protocol/lufa/lufa-abcminiuser/LUFA/Drivers/USB/Core/AVR8/Template/Template_Endpoint_Control_W.c **** 			Endpoint_ClearIN();
 2900               		.loc 4 69 19 is_stmt 0 view .LVU767
 2901 007c 41E0      		ldi r20,lo8(1)
 2902 007e 2830      		cpi r18,8
 2903 0080 3105      		cpc r19,__zero_reg__
 2904 0082 01F0      		breq .L178
 2905 0084 40E0      		ldi r20,0
 2906               	.L178:
 2907               	.LVL256:
  70:../../tmk_core/protocol/lufa/lufa-abcminiuser/LUFA/Drivers/USB/Core/AVR8/Template/Template_Endpoint_Control_W.c **** 		}
 2908               		.loc 4 70 4 is_stmt 1 view .LVU768
 2909               	.LBB379:
 2910               	.LBI379:
 453:../../tmk_core/protocol/lufa/lufa-abcminiuser/LUFA/Drivers/USB/Core/AVR8/../AVR8/../AVR8/Endpoint_AVR8.h **** 			{
 2911               		.loc 2 453 23 view .LVU769
 2912               	.LBB380:
 456:../../tmk_core/protocol/lufa/lufa-abcminiuser/LUFA/Drivers/USB/Core/AVR8/../AVR8/../AVR8/Endpoint_AVR8.h **** 				#else
 2913               		.loc 2 456 6 view .LVU770
 456:../../tmk_core/protocol/lufa/lufa-abcminiuser/LUFA/Drivers/USB/Core/AVR8/../AVR8/../AVR8/Endpoint_AVR8.h **** 				#else
 2914               		.loc 2 456 13 is_stmt 0 view .LVU771
 2915 0086 2091 E800 		lds r18,232
 2916               	.LVL257:
 456:../../tmk_core/protocol/lufa/lufa-abcminiuser/LUFA/Drivers/USB/Core/AVR8/../AVR8/../AVR8/Endpoint_AVR8.h **** 				#else
 2917               		.loc 2 456 13 view .LVU772
 2918 008a 2E77      		andi r18,lo8(126)
 2919 008c 2093 E800 		sts 232,r18
 2920 0090 00C0      		rjmp .L174
 2921               	.LVL258:
 2922               	.L177:
 456:../../tmk_core/protocol/lufa/lufa-abcminiuser/LUFA/Drivers/USB/Core/AVR8/../AVR8/../AVR8/Endpoint_AVR8.h **** 				#else
 2923               		.loc 2 456 13 view .LVU773
 2924               	.LBE380:
 2925               	.LBE379:
  63:../../tmk_core/protocol/lufa/lufa-abcminiuser/LUFA/Drivers/USB/Core/AVR8/Template/Template_Endpoint_Control_W.c **** 				TEMPLATE_BUFFER_MOVE(DataStream, 1);
 2926               		.loc 4 63 5 is_stmt 1 view .LVU774
 2927 0092 FC01      		movw r30,r24
 2928 0094 4081      		ld r20,Z
 2929               	.LVL259:
 2930               	.LBB381:
 2931               	.LBI381:
 552:../../tmk_core/protocol/lufa/lufa-abcminiuser/LUFA/Drivers/USB/Core/AVR8/../AVR8/../AVR8/Endpoint_AVR8.h **** 			{
 2932               		.loc 2 552 23 view .LVU775
 2933               	.LBB382:
 554:../../tmk_core/protocol/lufa/lufa-abcminiuser/LUFA/Drivers/USB/Core/AVR8/../AVR8/../AVR8/Endpoint_AVR8.h **** 			}
 2934               		.loc 2 554 5 view .LVU776
 554:../../tmk_core/protocol/lufa/lufa-abcminiuser/LUFA/Drivers/USB/Core/AVR8/../AVR8/../AVR8/Endpoint_AVR8.h **** 			}
 2935               		.loc 2 554 12 is_stmt 0 view .LVU777
 2936 0096 4093 F100 		sts 241,r20
 2937               	.LVL260:
 554:../../tmk_core/protocol/lufa/lufa-abcminiuser/LUFA/Drivers/USB/Core/AVR8/../AVR8/../AVR8/Endpoint_AVR8.h **** 			}
 2938               		.loc 2 554 12 view .LVU778
 2939               	.LBE382:
 2940               	.LBE381:
  64:../../tmk_core/protocol/lufa/lufa-abcminiuser/LUFA/Drivers/USB/Core/AVR8/Template/Template_Endpoint_Control_W.c **** 				Length--;
 2941               		.loc 4 64 5 is_stmt 1 view .LVU779
 2942 009a 0197      		sbiw r24,1
 2943               	.LVL261:
  65:../../tmk_core/protocol/lufa/lufa-abcminiuser/LUFA/Drivers/USB/Core/AVR8/Template/Template_Endpoint_Control_W.c **** 				BytesInEndpoint++;
 2944               		.loc 4 65 5 view .LVU780
  65:../../tmk_core/protocol/lufa/lufa-abcminiuser/LUFA/Drivers/USB/Core/AVR8/Template/Template_Endpoint_Control_W.c **** 				BytesInEndpoint++;
 2945               		.loc 4 65 11 is_stmt 0 view .LVU781
 2946 009c 6150      		subi r22,1
 2947 009e 7109      		sbc r23,__zero_reg__
 2948               	.LVL262:
  66:../../tmk_core/protocol/lufa/lufa-abcminiuser/LUFA/Drivers/USB/Core/AVR8/Template/Template_Endpoint_Control_W.c **** 			}
 2949               		.loc 4 66 5 is_stmt 1 view .LVU782
  66:../../tmk_core/protocol/lufa/lufa-abcminiuser/LUFA/Drivers/USB/Core/AVR8/Template/Template_Endpoint_Control_W.c **** 			}
 2950               		.loc 4 66 20 is_stmt 0 view .LVU783
 2951 00a0 2F5F      		subi r18,-1
 2952 00a2 3F4F      		sbci r19,-1
 2953               	.LVL263:
  66:../../tmk_core/protocol/lufa/lufa-abcminiuser/LUFA/Drivers/USB/Core/AVR8/Template/Template_Endpoint_Control_W.c **** 			}
 2954               		.loc 4 66 20 view .LVU784
 2955 00a4 00C0      		rjmp .L175
 2956               	.LVL264:
 2957               	.L180:
  66:../../tmk_core/protocol/lufa/lufa-abcminiuser/LUFA/Drivers/USB/Core/AVR8/Template/Template_Endpoint_Control_W.c **** 			}
 2958               		.loc 4 66 20 view .LVU785
 2959               	.LBE376:
 2960               	.LBE369:
 2961               	.LBB383:
  76:../../tmk_core/protocol/lufa/lufa-abcminiuser/LUFA/Drivers/USB/Core/AVR8/Template/Template_Endpoint_Control_W.c **** 
 2962               		.loc 4 76 3 is_stmt 1 view .LVU786
  76:../../tmk_core/protocol/lufa/lufa-abcminiuser/LUFA/Drivers/USB/Core/AVR8/Template/Template_Endpoint_Control_W.c **** 
 2963               		.loc 4 76 11 is_stmt 0 view .LVU787
 2964 00a6 8091 0000 		lds r24,USB_DeviceState
 2965               	.LVL265:
  78:../../tmk_core/protocol/lufa/lufa-abcminiuser/LUFA/Drivers/USB/Core/AVR8/Template/Template_Endpoint_Control_W.c **** 		  return ENDPOINT_RWCSTREAM_DeviceDisconnected;
 2966               		.loc 4 78 3 is_stmt 1 view .LVU788
  78:../../tmk_core/protocol/lufa/lufa-abcminiuser/LUFA/Drivers/USB/Core/AVR8/Template/Template_Endpoint_Control_W.c **** 		  return ENDPOINT_RWCSTREAM_DeviceDisconnected;
 2967               		.loc 4 78 6 is_stmt 0 view .LVU789
 2968 00aa 8823      		tst r24
 2969 00ac 01F0      		breq .L185
  80:../../tmk_core/protocol/lufa/lufa-abcminiuser/LUFA/Drivers/USB/Core/AVR8/Template/Template_Endpoint_Control_W.c **** 		  return ENDPOINT_RWCSTREAM_BusSuspended;
 2970               		.loc 4 80 8 is_stmt 1 view .LVU790
  80:../../tmk_core/protocol/lufa/lufa-abcminiuser/LUFA/Drivers/USB/Core/AVR8/Template/Template_Endpoint_Control_W.c **** 		  return ENDPOINT_RWCSTREAM_BusSuspended;
 2971               		.loc 4 80 11 is_stmt 0 view .LVU791
 2972 00ae 8530      		cpi r24,lo8(5)
 2973 00b0 01F0      		breq .L186
  82:../../tmk_core/protocol/lufa/lufa-abcminiuser/LUFA/Drivers/USB/Core/AVR8/Template/Template_Endpoint_Control_W.c **** 		  return ENDPOINT_RWCSTREAM_HostAborted;
 2974               		.loc 4 82 8 is_stmt 1 view .LVU792
 2975               	.LBB384:
 2976               	.LBI384:
 429:../../tmk_core/protocol/lufa/lufa-abcminiuser/LUFA/Drivers/USB/Core/AVR8/../AVR8/../AVR8/Endpoint_AVR8.h **** 			{
 2977               		.loc 2 429 23 view .LVU793
 2978               	.LBB385:
 431:../../tmk_core/protocol/lufa/lufa-abcminiuser/LUFA/Drivers/USB/Core/AVR8/../AVR8/../AVR8/Endpoint_AVR8.h **** 			}
 2979               		.loc 2 431 5 view .LVU794
 431:../../tmk_core/protocol/lufa/lufa-abcminiuser/LUFA/Drivers/USB/Core/AVR8/../AVR8/../AVR8/Endpoint_AVR8.h **** 			}
 2980               		.loc 2 431 14 is_stmt 0 view .LVU795
 2981 00b2 8091 E800 		lds r24,232
 2982               	.LVL266:
 431:../../tmk_core/protocol/lufa/lufa-abcminiuser/LUFA/Drivers/USB/Core/AVR8/../AVR8/../AVR8/Endpoint_AVR8.h **** 			}
 2983               		.loc 2 431 14 view .LVU796
 2984               	.LBE385:
 2985               	.LBE384:
  82:../../tmk_core/protocol/lufa/lufa-abcminiuser/LUFA/Drivers/USB/Core/AVR8/Template/Template_Endpoint_Control_W.c **** 		  return ENDPOINT_RWCSTREAM_HostAborted;
 2986               		.loc 4 82 11 view .LVU797
 2987 00b6 83FF      		sbrs r24,3
 2988 00b8 00C0      		rjmp .L193
 2989               	.L187:
  82:../../tmk_core/protocol/lufa/lufa-abcminiuser/LUFA/Drivers/USB/Core/AVR8/Template/Template_Endpoint_Control_W.c **** 		  return ENDPOINT_RWCSTREAM_HostAborted;
 2990               		.loc 4 82 11 view .LVU798
 2991               	.LBE383:
 2992               	.LBB386:
  53:../../tmk_core/protocol/lufa/lufa-abcminiuser/LUFA/Drivers/USB/Core/AVR8/Template/Template_Endpoint_Control_W.c **** 		else if (Endpoint_IsOUTReceived())
 2993               		.loc 4 53 12 view .LVU799
 2994 00ba 81E0      		ldi r24,lo8(1)
 2995               	/* epilogue start */
 2996               	.LBE386:
 2997               		.loc 4 87 1 view .LVU800
 2998 00bc 0895      		ret
 2999               	.L185:
 3000               	.LBB387:
  49:../../tmk_core/protocol/lufa/lufa-abcminiuser/LUFA/Drivers/USB/Core/AVR8/Template/Template_Endpoint_Control_W.c **** 		else if (USB_DeviceState_LCL == DEVICE_STATE_Suspended)
 3001               		.loc 4 49 12 view .LVU801
 3002 00be 82E0      		ldi r24,lo8(2)
 3003 00c0 0895      		ret
 3004               	.L186:
  51:../../tmk_core/protocol/lufa/lufa-abcminiuser/LUFA/Drivers/USB/Core/AVR8/Template/Template_Endpoint_Control_W.c **** 		else if (Endpoint_IsSETUPReceived())
 3005               		.loc 4 51 12 view .LVU802
 3006 00c2 83E0      		ldi r24,lo8(3)
 3007 00c4 0895      		ret
 3008               	.LBE387:
 3009               		.cfi_endproc
 3010               	.LFE98:
 3012               		.section	.text.Endpoint_Read_Control_Stream_LE,"ax",@progbits
 3013               	.global	Endpoint_Read_Control_Stream_LE
 3015               	Endpoint_Read_Control_Stream_LE:
 3016               	.LVL267:
 3017               	.LFB99:
 3018               		.file 5 "../../tmk_core/protocol/lufa/lufa-abcminiuser/LUFA/Drivers/USB/Core/AVR8/Template/Templat
   1:../../tmk_core/protocol/lufa/lufa-abcminiuser/LUFA/Drivers/USB/Core/AVR8/Template/Template_Endpoint_Control_R.c **** /*
   2:../../tmk_core/protocol/lufa/lufa-abcminiuser/LUFA/Drivers/USB/Core/AVR8/Template/Template_Endpoint_Control_R.c ****              LUFA Library
   3:../../tmk_core/protocol/lufa/lufa-abcminiuser/LUFA/Drivers/USB/Core/AVR8/Template/Template_Endpoint_Control_R.c ****      Copyright (C) Dean Camera, 2019.
   4:../../tmk_core/protocol/lufa/lufa-abcminiuser/LUFA/Drivers/USB/Core/AVR8/Template/Template_Endpoint_Control_R.c **** 
   5:../../tmk_core/protocol/lufa/lufa-abcminiuser/LUFA/Drivers/USB/Core/AVR8/Template/Template_Endpoint_Control_R.c ****   dean [at] fourwalledcubicle [dot] com
   6:../../tmk_core/protocol/lufa/lufa-abcminiuser/LUFA/Drivers/USB/Core/AVR8/Template/Template_Endpoint_Control_R.c ****            www.lufa-lib.org
   7:../../tmk_core/protocol/lufa/lufa-abcminiuser/LUFA/Drivers/USB/Core/AVR8/Template/Template_Endpoint_Control_R.c **** */
   8:../../tmk_core/protocol/lufa/lufa-abcminiuser/LUFA/Drivers/USB/Core/AVR8/Template/Template_Endpoint_Control_R.c **** 
   9:../../tmk_core/protocol/lufa/lufa-abcminiuser/LUFA/Drivers/USB/Core/AVR8/Template/Template_Endpoint_Control_R.c **** /*
  10:../../tmk_core/protocol/lufa/lufa-abcminiuser/LUFA/Drivers/USB/Core/AVR8/Template/Template_Endpoint_Control_R.c ****   Copyright 2019  Dean Camera (dean [at] fourwalledcubicle [dot] com)
  11:../../tmk_core/protocol/lufa/lufa-abcminiuser/LUFA/Drivers/USB/Core/AVR8/Template/Template_Endpoint_Control_R.c **** 
  12:../../tmk_core/protocol/lufa/lufa-abcminiuser/LUFA/Drivers/USB/Core/AVR8/Template/Template_Endpoint_Control_R.c ****   Permission to use, copy, modify, distribute, and sell this
  13:../../tmk_core/protocol/lufa/lufa-abcminiuser/LUFA/Drivers/USB/Core/AVR8/Template/Template_Endpoint_Control_R.c ****   software and its documentation for any purpose is hereby granted
  14:../../tmk_core/protocol/lufa/lufa-abcminiuser/LUFA/Drivers/USB/Core/AVR8/Template/Template_Endpoint_Control_R.c ****   without fee, provided that the above copyright notice appear in
  15:../../tmk_core/protocol/lufa/lufa-abcminiuser/LUFA/Drivers/USB/Core/AVR8/Template/Template_Endpoint_Control_R.c ****   all copies and that both that the copyright notice and this
  16:../../tmk_core/protocol/lufa/lufa-abcminiuser/LUFA/Drivers/USB/Core/AVR8/Template/Template_Endpoint_Control_R.c ****   permission notice and warranty disclaimer appear in supporting
  17:../../tmk_core/protocol/lufa/lufa-abcminiuser/LUFA/Drivers/USB/Core/AVR8/Template/Template_Endpoint_Control_R.c ****   documentation, and that the name of the author not be used in
  18:../../tmk_core/protocol/lufa/lufa-abcminiuser/LUFA/Drivers/USB/Core/AVR8/Template/Template_Endpoint_Control_R.c ****   advertising or publicity pertaining to distribution of the
  19:../../tmk_core/protocol/lufa/lufa-abcminiuser/LUFA/Drivers/USB/Core/AVR8/Template/Template_Endpoint_Control_R.c ****   software without specific, written prior permission.
  20:../../tmk_core/protocol/lufa/lufa-abcminiuser/LUFA/Drivers/USB/Core/AVR8/Template/Template_Endpoint_Control_R.c **** 
  21:../../tmk_core/protocol/lufa/lufa-abcminiuser/LUFA/Drivers/USB/Core/AVR8/Template/Template_Endpoint_Control_R.c ****   The author disclaims all warranties with regard to this
  22:../../tmk_core/protocol/lufa/lufa-abcminiuser/LUFA/Drivers/USB/Core/AVR8/Template/Template_Endpoint_Control_R.c ****   software, including all implied warranties of merchantability
  23:../../tmk_core/protocol/lufa/lufa-abcminiuser/LUFA/Drivers/USB/Core/AVR8/Template/Template_Endpoint_Control_R.c ****   and fitness.  In no event shall the author be liable for any
  24:../../tmk_core/protocol/lufa/lufa-abcminiuser/LUFA/Drivers/USB/Core/AVR8/Template/Template_Endpoint_Control_R.c ****   special, indirect or consequential damages or any damages
  25:../../tmk_core/protocol/lufa/lufa-abcminiuser/LUFA/Drivers/USB/Core/AVR8/Template/Template_Endpoint_Control_R.c ****   whatsoever resulting from loss of use, data or profits, whether
  26:../../tmk_core/protocol/lufa/lufa-abcminiuser/LUFA/Drivers/USB/Core/AVR8/Template/Template_Endpoint_Control_R.c ****   in an action of contract, negligence or other tortious action,
  27:../../tmk_core/protocol/lufa/lufa-abcminiuser/LUFA/Drivers/USB/Core/AVR8/Template/Template_Endpoint_Control_R.c ****   arising out of or in connection with the use or performance of
  28:../../tmk_core/protocol/lufa/lufa-abcminiuser/LUFA/Drivers/USB/Core/AVR8/Template/Template_Endpoint_Control_R.c ****   this software.
  29:../../tmk_core/protocol/lufa/lufa-abcminiuser/LUFA/Drivers/USB/Core/AVR8/Template/Template_Endpoint_Control_R.c **** */
  30:../../tmk_core/protocol/lufa/lufa-abcminiuser/LUFA/Drivers/USB/Core/AVR8/Template/Template_Endpoint_Control_R.c **** 
  31:../../tmk_core/protocol/lufa/lufa-abcminiuser/LUFA/Drivers/USB/Core/AVR8/Template/Template_Endpoint_Control_R.c **** #if defined(TEMPLATE_FUNC_NAME)
  32:../../tmk_core/protocol/lufa/lufa-abcminiuser/LUFA/Drivers/USB/Core/AVR8/Template/Template_Endpoint_Control_R.c **** 
  33:../../tmk_core/protocol/lufa/lufa-abcminiuser/LUFA/Drivers/USB/Core/AVR8/Template/Template_Endpoint_Control_R.c **** uint8_t TEMPLATE_FUNC_NAME (void* const Buffer,
  34:../../tmk_core/protocol/lufa/lufa-abcminiuser/LUFA/Drivers/USB/Core/AVR8/Template/Template_Endpoint_Control_R.c ****                             uint16_t Length)
  35:../../tmk_core/protocol/lufa/lufa-abcminiuser/LUFA/Drivers/USB/Core/AVR8/Template/Template_Endpoint_Control_R.c **** {
 3019               		.loc 5 35 1 is_stmt 1 view -0
 3020               		.cfi_startproc
 3021               	/* prologue: function */
 3022               	/* frame size = 0 */
 3023               	/* stack size = 0 */
 3024               	.L__stack_usage = 0
 3025               		.loc 5 35 1 is_stmt 0 view .LVU804
 3026 0000 FC01      		movw r30,r24
  36:../../tmk_core/protocol/lufa/lufa-abcminiuser/LUFA/Drivers/USB/Core/AVR8/Template/Template_Endpoint_Control_R.c **** 	uint8_t* DataStream = ((uint8_t*)Buffer + TEMPLATE_BUFFER_OFFSET(Length));
 3027               		.loc 5 36 2 is_stmt 1 view .LVU805
 3028               	.LVL268:
  37:../../tmk_core/protocol/lufa/lufa-abcminiuser/LUFA/Drivers/USB/Core/AVR8/Template/Template_Endpoint_Control_R.c **** 
  38:../../tmk_core/protocol/lufa/lufa-abcminiuser/LUFA/Drivers/USB/Core/AVR8/Template/Template_Endpoint_Control_R.c **** 	if (!(Length))
 3029               		.loc 5 38 2 view .LVU806
 3030               		.loc 5 38 5 is_stmt 0 view .LVU807
 3031 0002 6115      		cp r22,__zero_reg__
 3032 0004 7105      		cpc r23,__zero_reg__
 3033 0006 01F4      		brne .L202
 3034               	.LVL269:
 3035               	.L203:
 3036               	.LBB388:
  39:../../tmk_core/protocol/lufa/lufa-abcminiuser/LUFA/Drivers/USB/Core/AVR8/Template/Template_Endpoint_Control_R.c **** 	  Endpoint_ClearOUT();
  40:../../tmk_core/protocol/lufa/lufa-abcminiuser/LUFA/Drivers/USB/Core/AVR8/Template/Template_Endpoint_Control_R.c **** 
  41:../../tmk_core/protocol/lufa/lufa-abcminiuser/LUFA/Drivers/USB/Core/AVR8/Template/Template_Endpoint_Control_R.c **** 	while (Length)
  42:../../tmk_core/protocol/lufa/lufa-abcminiuser/LUFA/Drivers/USB/Core/AVR8/Template/Template_Endpoint_Control_R.c **** 	{
  43:../../tmk_core/protocol/lufa/lufa-abcminiuser/LUFA/Drivers/USB/Core/AVR8/Template/Template_Endpoint_Control_R.c **** 		uint8_t USB_DeviceState_LCL = USB_DeviceState;
  44:../../tmk_core/protocol/lufa/lufa-abcminiuser/LUFA/Drivers/USB/Core/AVR8/Template/Template_Endpoint_Control_R.c **** 
  45:../../tmk_core/protocol/lufa/lufa-abcminiuser/LUFA/Drivers/USB/Core/AVR8/Template/Template_Endpoint_Control_R.c **** 		if (USB_DeviceState_LCL == DEVICE_STATE_Unattached)
  46:../../tmk_core/protocol/lufa/lufa-abcminiuser/LUFA/Drivers/USB/Core/AVR8/Template/Template_Endpoint_Control_R.c **** 		  return ENDPOINT_RWCSTREAM_DeviceDisconnected;
  47:../../tmk_core/protocol/lufa/lufa-abcminiuser/LUFA/Drivers/USB/Core/AVR8/Template/Template_Endpoint_Control_R.c **** 		else if (USB_DeviceState_LCL == DEVICE_STATE_Suspended)
  48:../../tmk_core/protocol/lufa/lufa-abcminiuser/LUFA/Drivers/USB/Core/AVR8/Template/Template_Endpoint_Control_R.c **** 		  return ENDPOINT_RWCSTREAM_BusSuspended;
  49:../../tmk_core/protocol/lufa/lufa-abcminiuser/LUFA/Drivers/USB/Core/AVR8/Template/Template_Endpoint_Control_R.c **** 		else if (Endpoint_IsSETUPReceived())
  50:../../tmk_core/protocol/lufa/lufa-abcminiuser/LUFA/Drivers/USB/Core/AVR8/Template/Template_Endpoint_Control_R.c **** 		  return ENDPOINT_RWCSTREAM_HostAborted;
  51:../../tmk_core/protocol/lufa/lufa-abcminiuser/LUFA/Drivers/USB/Core/AVR8/Template/Template_Endpoint_Control_R.c **** 
  52:../../tmk_core/protocol/lufa/lufa-abcminiuser/LUFA/Drivers/USB/Core/AVR8/Template/Template_Endpoint_Control_R.c **** 		if (Endpoint_IsOUTReceived())
  53:../../tmk_core/protocol/lufa/lufa-abcminiuser/LUFA/Drivers/USB/Core/AVR8/Template/Template_Endpoint_Control_R.c **** 		{
  54:../../tmk_core/protocol/lufa/lufa-abcminiuser/LUFA/Drivers/USB/Core/AVR8/Template/Template_Endpoint_Control_R.c **** 			while (Length && Endpoint_BytesInEndpoint())
  55:../../tmk_core/protocol/lufa/lufa-abcminiuser/LUFA/Drivers/USB/Core/AVR8/Template/Template_Endpoint_Control_R.c **** 			{
  56:../../tmk_core/protocol/lufa/lufa-abcminiuser/LUFA/Drivers/USB/Core/AVR8/Template/Template_Endpoint_Control_R.c **** 				TEMPLATE_TRANSFER_BYTE(DataStream);
  57:../../tmk_core/protocol/lufa/lufa-abcminiuser/LUFA/Drivers/USB/Core/AVR8/Template/Template_Endpoint_Control_R.c **** 				TEMPLATE_BUFFER_MOVE(DataStream, 1);
  58:../../tmk_core/protocol/lufa/lufa-abcminiuser/LUFA/Drivers/USB/Core/AVR8/Template/Template_Endpoint_Control_R.c **** 				Length--;
  59:../../tmk_core/protocol/lufa/lufa-abcminiuser/LUFA/Drivers/USB/Core/AVR8/Template/Template_Endpoint_Control_R.c **** 			}
  60:../../tmk_core/protocol/lufa/lufa-abcminiuser/LUFA/Drivers/USB/Core/AVR8/Template/Template_Endpoint_Control_R.c **** 
  61:../../tmk_core/protocol/lufa/lufa-abcminiuser/LUFA/Drivers/USB/Core/AVR8/Template/Template_Endpoint_Control_R.c **** 			Endpoint_ClearOUT();
 3037               		.loc 5 61 4 is_stmt 1 view .LVU808
 3038               	.LBB389:
 3039               	.LBI389:
 468:../../tmk_core/protocol/lufa/lufa-abcminiuser/LUFA/Drivers/USB/Core/AVR8/../AVR8/../AVR8/Endpoint_AVR8.h **** 			{
 3040               		.loc 2 468 23 view .LVU809
 3041               	.LBB390:
 471:../../tmk_core/protocol/lufa/lufa-abcminiuser/LUFA/Drivers/USB/Core/AVR8/../AVR8/../AVR8/Endpoint_AVR8.h **** 				#else
 3042               		.loc 2 471 6 view .LVU810
 471:../../tmk_core/protocol/lufa/lufa-abcminiuser/LUFA/Drivers/USB/Core/AVR8/../AVR8/../AVR8/Endpoint_AVR8.h **** 				#else
 3043               		.loc 2 471 13 is_stmt 0 view .LVU811
 3044 0008 9091 E800 		lds r25,232
 3045 000c 9B77      		andi r25,lo8(123)
 3046 000e 9093 E800 		sts 232,r25
 3047               	.L202:
 471:../../tmk_core/protocol/lufa/lufa-abcminiuser/LUFA/Drivers/USB/Core/AVR8/../AVR8/../AVR8/Endpoint_AVR8.h **** 				#else
 3048               		.loc 2 471 13 view .LVU812
 3049               	.LBE390:
 3050               	.LBE389:
 3051               	.LBE388:
  41:../../tmk_core/protocol/lufa/lufa-abcminiuser/LUFA/Drivers/USB/Core/AVR8/Template/Template_Endpoint_Control_R.c **** 	{
 3052               		.loc 5 41 8 view .LVU813
 3053 0012 6115      		cp r22,__zero_reg__
 3054 0014 7105      		cpc r23,__zero_reg__
 3055 0016 01F4      		brne .L205
 3056               	.L206:
 3057               	.LBB399:
 3058               	.LBI399:
 405:../../tmk_core/protocol/lufa/lufa-abcminiuser/LUFA/Drivers/USB/Core/AVR8/../AVR8/../AVR8/Endpoint_AVR8.h **** 			{
 3059               		.loc 2 405 23 is_stmt 1 view .LVU814
 3060               	.LBB400:
 407:../../tmk_core/protocol/lufa/lufa-abcminiuser/LUFA/Drivers/USB/Core/AVR8/../AVR8/../AVR8/Endpoint_AVR8.h **** 			}
 3061               		.loc 2 407 5 view .LVU815
 407:../../tmk_core/protocol/lufa/lufa-abcminiuser/LUFA/Drivers/USB/Core/AVR8/../AVR8/../AVR8/Endpoint_AVR8.h **** 			}
 3062               		.loc 2 407 14 is_stmt 0 view .LVU816
 3063 0018 8091 E800 		lds r24,232
 3064               	.LBE400:
 3065               	.LBE399:
  62:../../tmk_core/protocol/lufa/lufa-abcminiuser/LUFA/Drivers/USB/Core/AVR8/Template/Template_Endpoint_Control_R.c **** 		}
  63:../../tmk_core/protocol/lufa/lufa-abcminiuser/LUFA/Drivers/USB/Core/AVR8/Template/Template_Endpoint_Control_R.c **** 	}
  64:../../tmk_core/protocol/lufa/lufa-abcminiuser/LUFA/Drivers/USB/Core/AVR8/Template/Template_Endpoint_Control_R.c **** 
  65:../../tmk_core/protocol/lufa/lufa-abcminiuser/LUFA/Drivers/USB/Core/AVR8/Template/Template_Endpoint_Control_R.c **** 	while (!(Endpoint_IsINReady()))
 3066               		.loc 5 65 8 view .LVU817
 3067 001c 80FF      		sbrs r24,0
 3068 001e 00C0      		rjmp .L207
  66:../../tmk_core/protocol/lufa/lufa-abcminiuser/LUFA/Drivers/USB/Core/AVR8/Template/Template_Endpoint_Control_R.c **** 	{
  67:../../tmk_core/protocol/lufa/lufa-abcminiuser/LUFA/Drivers/USB/Core/AVR8/Template/Template_Endpoint_Control_R.c **** 		uint8_t USB_DeviceState_LCL = USB_DeviceState;
  68:../../tmk_core/protocol/lufa/lufa-abcminiuser/LUFA/Drivers/USB/Core/AVR8/Template/Template_Endpoint_Control_R.c **** 
  69:../../tmk_core/protocol/lufa/lufa-abcminiuser/LUFA/Drivers/USB/Core/AVR8/Template/Template_Endpoint_Control_R.c **** 		if (USB_DeviceState_LCL == DEVICE_STATE_Unattached)
  70:../../tmk_core/protocol/lufa/lufa-abcminiuser/LUFA/Drivers/USB/Core/AVR8/Template/Template_Endpoint_Control_R.c **** 		  return ENDPOINT_RWCSTREAM_DeviceDisconnected;
  71:../../tmk_core/protocol/lufa/lufa-abcminiuser/LUFA/Drivers/USB/Core/AVR8/Template/Template_Endpoint_Control_R.c **** 		else if (USB_DeviceState_LCL == DEVICE_STATE_Suspended)
  72:../../tmk_core/protocol/lufa/lufa-abcminiuser/LUFA/Drivers/USB/Core/AVR8/Template/Template_Endpoint_Control_R.c **** 		  return ENDPOINT_RWCSTREAM_BusSuspended;
  73:../../tmk_core/protocol/lufa/lufa-abcminiuser/LUFA/Drivers/USB/Core/AVR8/Template/Template_Endpoint_Control_R.c **** 	}
  74:../../tmk_core/protocol/lufa/lufa-abcminiuser/LUFA/Drivers/USB/Core/AVR8/Template/Template_Endpoint_Control_R.c **** 
  75:../../tmk_core/protocol/lufa/lufa-abcminiuser/LUFA/Drivers/USB/Core/AVR8/Template/Template_Endpoint_Control_R.c **** 	return ENDPOINT_RWCSTREAM_NoError;
 3069               		.loc 5 75 9 view .LVU818
 3070 0020 80E0      		ldi r24,0
 3071 0022 0895      		ret
 3072               	.L205:
 3073               	.LBB401:
  43:../../tmk_core/protocol/lufa/lufa-abcminiuser/LUFA/Drivers/USB/Core/AVR8/Template/Template_Endpoint_Control_R.c **** 
 3074               		.loc 5 43 3 is_stmt 1 view .LVU819
  43:../../tmk_core/protocol/lufa/lufa-abcminiuser/LUFA/Drivers/USB/Core/AVR8/Template/Template_Endpoint_Control_R.c **** 
 3075               		.loc 5 43 11 is_stmt 0 view .LVU820
 3076 0024 8091 0000 		lds r24,USB_DeviceState
 3077               	.LVL270:
  45:../../tmk_core/protocol/lufa/lufa-abcminiuser/LUFA/Drivers/USB/Core/AVR8/Template/Template_Endpoint_Control_R.c **** 		  return ENDPOINT_RWCSTREAM_DeviceDisconnected;
 3078               		.loc 5 45 3 is_stmt 1 view .LVU821
  45:../../tmk_core/protocol/lufa/lufa-abcminiuser/LUFA/Drivers/USB/Core/AVR8/Template/Template_Endpoint_Control_R.c **** 		  return ENDPOINT_RWCSTREAM_DeviceDisconnected;
 3079               		.loc 5 45 6 is_stmt 0 view .LVU822
 3080 0028 8823      		tst r24
 3081 002a 01F0      		breq .L211
  47:../../tmk_core/protocol/lufa/lufa-abcminiuser/LUFA/Drivers/USB/Core/AVR8/Template/Template_Endpoint_Control_R.c **** 		  return ENDPOINT_RWCSTREAM_BusSuspended;
 3082               		.loc 5 47 8 is_stmt 1 view .LVU823
  47:../../tmk_core/protocol/lufa/lufa-abcminiuser/LUFA/Drivers/USB/Core/AVR8/Template/Template_Endpoint_Control_R.c **** 		  return ENDPOINT_RWCSTREAM_BusSuspended;
 3083               		.loc 5 47 11 is_stmt 0 view .LVU824
 3084 002c 8530      		cpi r24,lo8(5)
 3085 002e 01F0      		breq .L212
  49:../../tmk_core/protocol/lufa/lufa-abcminiuser/LUFA/Drivers/USB/Core/AVR8/Template/Template_Endpoint_Control_R.c **** 		  return ENDPOINT_RWCSTREAM_HostAborted;
 3086               		.loc 5 49 8 is_stmt 1 view .LVU825
 3087               	.LBB391:
 3088               	.LBI391:
 429:../../tmk_core/protocol/lufa/lufa-abcminiuser/LUFA/Drivers/USB/Core/AVR8/../AVR8/../AVR8/Endpoint_AVR8.h **** 			{
 3089               		.loc 2 429 23 view .LVU826
 3090               	.LBB392:
 431:../../tmk_core/protocol/lufa/lufa-abcminiuser/LUFA/Drivers/USB/Core/AVR8/../AVR8/../AVR8/Endpoint_AVR8.h **** 			}
 3091               		.loc 2 431 5 view .LVU827
 431:../../tmk_core/protocol/lufa/lufa-abcminiuser/LUFA/Drivers/USB/Core/AVR8/../AVR8/../AVR8/Endpoint_AVR8.h **** 			}
 3092               		.loc 2 431 14 is_stmt 0 view .LVU828
 3093 0030 8091 E800 		lds r24,232
 3094               	.LVL271:
 431:../../tmk_core/protocol/lufa/lufa-abcminiuser/LUFA/Drivers/USB/Core/AVR8/../AVR8/../AVR8/Endpoint_AVR8.h **** 			}
 3095               		.loc 2 431 14 view .LVU829
 3096               	.LBE392:
 3097               	.LBE391:
  49:../../tmk_core/protocol/lufa/lufa-abcminiuser/LUFA/Drivers/USB/Core/AVR8/Template/Template_Endpoint_Control_R.c **** 		  return ENDPOINT_RWCSTREAM_HostAborted;
 3098               		.loc 5 49 11 view .LVU830
 3099 0034 83FD      		sbrc r24,3
 3100 0036 00C0      		rjmp .L210
  52:../../tmk_core/protocol/lufa/lufa-abcminiuser/LUFA/Drivers/USB/Core/AVR8/Template/Template_Endpoint_Control_R.c **** 		{
 3101               		.loc 5 52 3 is_stmt 1 view .LVU831
 3102               	.LBB393:
 3103               	.LBI393:
 417:../../tmk_core/protocol/lufa/lufa-abcminiuser/LUFA/Drivers/USB/Core/AVR8/../AVR8/../AVR8/Endpoint_AVR8.h **** 			{
 3104               		.loc 2 417 23 view .LVU832
 3105               	.LBB394:
 419:../../tmk_core/protocol/lufa/lufa-abcminiuser/LUFA/Drivers/USB/Core/AVR8/../AVR8/../AVR8/Endpoint_AVR8.h **** 			}
 3106               		.loc 2 419 5 view .LVU833
 419:../../tmk_core/protocol/lufa/lufa-abcminiuser/LUFA/Drivers/USB/Core/AVR8/../AVR8/../AVR8/Endpoint_AVR8.h **** 			}
 3107               		.loc 2 419 14 is_stmt 0 view .LVU834
 3108 0038 8091 E800 		lds r24,232
 3109               	.LBE394:
 3110               	.LBE393:
  52:../../tmk_core/protocol/lufa/lufa-abcminiuser/LUFA/Drivers/USB/Core/AVR8/Template/Template_Endpoint_Control_R.c **** 		{
 3111               		.loc 5 52 6 view .LVU835
 3112 003c 82FF      		sbrs r24,2
 3113 003e 00C0      		rjmp .L202
 3114               	.L201:
 3115               	.LBB395:
 3116               	.LBI395:
 222:../../tmk_core/protocol/lufa/lufa-abcminiuser/LUFA/Drivers/USB/Core/AVR8/../AVR8/../AVR8/Endpoint_AVR8.h **** 			{
 3117               		.loc 2 222 27 is_stmt 1 view .LVU836
 3118               	.LBB396:
 227:../../tmk_core/protocol/lufa/lufa-abcminiuser/LUFA/Drivers/USB/Core/AVR8/../AVR8/../AVR8/Endpoint_AVR8.h **** 				#elif defined(USB_SERIES_2_AVR)
 3119               		.loc 2 227 6 view .LVU837
 227:../../tmk_core/protocol/lufa/lufa-abcminiuser/LUFA/Drivers/USB/Core/AVR8/../AVR8/../AVR8/Endpoint_AVR8.h **** 				#elif defined(USB_SERIES_2_AVR)
 3120               		.loc 2 227 25 is_stmt 0 view .LVU838
 3121 0040 8091 F300 		lds r24,243
 227:../../tmk_core/protocol/lufa/lufa-abcminiuser/LUFA/Drivers/USB/Core/AVR8/../AVR8/../AVR8/Endpoint_AVR8.h **** 				#elif defined(USB_SERIES_2_AVR)
 3122               		.loc 2 227 40 view .LVU839
 3123 0044 2091 F200 		lds r18,242
 227:../../tmk_core/protocol/lufa/lufa-abcminiuser/LUFA/Drivers/USB/Core/AVR8/../AVR8/../AVR8/Endpoint_AVR8.h **** 				#elif defined(USB_SERIES_2_AVR)
 3124               		.loc 2 227 38 view .LVU840
 3125 0048 382F      		mov r19,r24
 3126               	.LBE396:
 3127               	.LBE395:
  54:../../tmk_core/protocol/lufa/lufa-abcminiuser/LUFA/Drivers/USB/Core/AVR8/Template/Template_Endpoint_Control_R.c **** 			{
 3128               		.loc 5 54 18 view .LVU841
 3129 004a 232B      		or r18,r19
 3130 004c 01F0      		breq .L203
  56:../../tmk_core/protocol/lufa/lufa-abcminiuser/LUFA/Drivers/USB/Core/AVR8/Template/Template_Endpoint_Control_R.c **** 				TEMPLATE_BUFFER_MOVE(DataStream, 1);
 3131               		.loc 5 56 5 is_stmt 1 view .LVU842
 3132               	.LBB397:
 3133               	.LBI397:
 540:../../tmk_core/protocol/lufa/lufa-abcminiuser/LUFA/Drivers/USB/Core/AVR8/../AVR8/../AVR8/Endpoint_AVR8.h **** 			{
 3134               		.loc 2 540 26 view .LVU843
 3135               	.LBB398:
 542:../../tmk_core/protocol/lufa/lufa-abcminiuser/LUFA/Drivers/USB/Core/AVR8/../AVR8/../AVR8/Endpoint_AVR8.h **** 			}
 3136               		.loc 2 542 5 view .LVU844
 542:../../tmk_core/protocol/lufa/lufa-abcminiuser/LUFA/Drivers/USB/Core/AVR8/../AVR8/../AVR8/Endpoint_AVR8.h **** 			}
 3137               		.loc 2 542 12 is_stmt 0 view .LVU845
 3138 004e 8091 F100 		lds r24,241
 3139               	.LBE398:
 3140               	.LBE397:
  56:../../tmk_core/protocol/lufa/lufa-abcminiuser/LUFA/Drivers/USB/Core/AVR8/Template/Template_Endpoint_Control_R.c **** 				TEMPLATE_BUFFER_MOVE(DataStream, 1);
 3141               		.loc 5 56 5 view .LVU846
 3142 0052 8193      		st Z+,r24
 3143               	.LVL272:
  57:../../tmk_core/protocol/lufa/lufa-abcminiuser/LUFA/Drivers/USB/Core/AVR8/Template/Template_Endpoint_Control_R.c **** 				Length--;
 3144               		.loc 5 57 5 is_stmt 1 view .LVU847
  58:../../tmk_core/protocol/lufa/lufa-abcminiuser/LUFA/Drivers/USB/Core/AVR8/Template/Template_Endpoint_Control_R.c **** 			}
 3145               		.loc 5 58 5 view .LVU848
  58:../../tmk_core/protocol/lufa/lufa-abcminiuser/LUFA/Drivers/USB/Core/AVR8/Template/Template_Endpoint_Control_R.c **** 			}
 3146               		.loc 5 58 11 is_stmt 0 view .LVU849
 3147 0054 6150      		subi r22,1
 3148 0056 7109      		sbc r23,__zero_reg__
 3149               	.LVL273:
  54:../../tmk_core/protocol/lufa/lufa-abcminiuser/LUFA/Drivers/USB/Core/AVR8/Template/Template_Endpoint_Control_R.c **** 			{
 3150               		.loc 5 54 10 view .LVU850
 3151 0058 01F4      		brne .L201
 3152 005a 00C0      		rjmp .L203
 3153               	.L207:
  54:../../tmk_core/protocol/lufa/lufa-abcminiuser/LUFA/Drivers/USB/Core/AVR8/Template/Template_Endpoint_Control_R.c **** 			{
 3154               		.loc 5 54 10 view .LVU851
 3155               	.LBE401:
 3156               	.LBB402:
  67:../../tmk_core/protocol/lufa/lufa-abcminiuser/LUFA/Drivers/USB/Core/AVR8/Template/Template_Endpoint_Control_R.c **** 
 3157               		.loc 5 67 3 is_stmt 1 view .LVU852
  67:../../tmk_core/protocol/lufa/lufa-abcminiuser/LUFA/Drivers/USB/Core/AVR8/Template/Template_Endpoint_Control_R.c **** 
 3158               		.loc 5 67 11 is_stmt 0 view .LVU853
 3159 005c 8091 0000 		lds r24,USB_DeviceState
 3160               	.LVL274:
  69:../../tmk_core/protocol/lufa/lufa-abcminiuser/LUFA/Drivers/USB/Core/AVR8/Template/Template_Endpoint_Control_R.c **** 		  return ENDPOINT_RWCSTREAM_DeviceDisconnected;
 3161               		.loc 5 69 3 is_stmt 1 view .LVU854
  69:../../tmk_core/protocol/lufa/lufa-abcminiuser/LUFA/Drivers/USB/Core/AVR8/Template/Template_Endpoint_Control_R.c **** 		  return ENDPOINT_RWCSTREAM_DeviceDisconnected;
 3162               		.loc 5 69 6 is_stmt 0 view .LVU855
 3163 0060 8823      		tst r24
 3164 0062 01F0      		breq .L211
  71:../../tmk_core/protocol/lufa/lufa-abcminiuser/LUFA/Drivers/USB/Core/AVR8/Template/Template_Endpoint_Control_R.c **** 		  return ENDPOINT_RWCSTREAM_BusSuspended;
 3165               		.loc 5 71 8 is_stmt 1 view .LVU856
  71:../../tmk_core/protocol/lufa/lufa-abcminiuser/LUFA/Drivers/USB/Core/AVR8/Template/Template_Endpoint_Control_R.c **** 		  return ENDPOINT_RWCSTREAM_BusSuspended;
 3166               		.loc 5 71 11 is_stmt 0 view .LVU857
 3167 0064 8530      		cpi r24,lo8(5)
 3168 0066 01F4      		brne .L206
 3169               	.LVL275:
 3170               	.L212:
  71:../../tmk_core/protocol/lufa/lufa-abcminiuser/LUFA/Drivers/USB/Core/AVR8/Template/Template_Endpoint_Control_R.c **** 		  return ENDPOINT_RWCSTREAM_BusSuspended;
 3171               		.loc 5 71 11 view .LVU858
 3172               	.LBE402:
 3173               	.LBB403:
  48:../../tmk_core/protocol/lufa/lufa-abcminiuser/LUFA/Drivers/USB/Core/AVR8/Template/Template_Endpoint_Control_R.c **** 		else if (Endpoint_IsSETUPReceived())
 3174               		.loc 5 48 12 view .LVU859
 3175 0068 83E0      		ldi r24,lo8(3)
 3176               	/* epilogue start */
 3177               	.LBE403:
  76:../../tmk_core/protocol/lufa/lufa-abcminiuser/LUFA/Drivers/USB/Core/AVR8/Template/Template_Endpoint_Control_R.c **** }
 3178               		.loc 5 76 1 view .LVU860
 3179 006a 0895      		ret
 3180               	.L210:
 3181               	.LBB404:
  50:../../tmk_core/protocol/lufa/lufa-abcminiuser/LUFA/Drivers/USB/Core/AVR8/Template/Template_Endpoint_Control_R.c **** 
 3182               		.loc 5 50 12 view .LVU861
 3183 006c 81E0      		ldi r24,lo8(1)
 3184 006e 0895      		ret
 3185               	.L211:
  46:../../tmk_core/protocol/lufa/lufa-abcminiuser/LUFA/Drivers/USB/Core/AVR8/Template/Template_Endpoint_Control_R.c **** 		else if (USB_DeviceState_LCL == DEVICE_STATE_Suspended)
 3186               		.loc 5 46 12 view .LVU862
 3187 0070 82E0      		ldi r24,lo8(2)
 3188 0072 0895      		ret
 3189               	.LBE404:
 3190               		.cfi_endproc
 3191               	.LFE99:
 3193               		.section	.text.Endpoint_Read_Control_Stream_BE,"ax",@progbits
 3194               	.global	Endpoint_Read_Control_Stream_BE
 3196               	Endpoint_Read_Control_Stream_BE:
 3197               	.LVL276:
 3198               	.LFB100:
  35:../../tmk_core/protocol/lufa/lufa-abcminiuser/LUFA/Drivers/USB/Core/AVR8/Template/Template_Endpoint_Control_R.c **** 	uint8_t* DataStream = ((uint8_t*)Buffer + TEMPLATE_BUFFER_OFFSET(Length));
 3199               		.loc 5 35 1 is_stmt 1 view -0
 3200               		.cfi_startproc
 3201               	/* prologue: function */
 3202               	/* frame size = 0 */
 3203               	/* stack size = 0 */
 3204               	.L__stack_usage = 0
  36:../../tmk_core/protocol/lufa/lufa-abcminiuser/LUFA/Drivers/USB/Core/AVR8/Template/Template_Endpoint_Control_R.c **** 
 3205               		.loc 5 36 2 view .LVU864
  36:../../tmk_core/protocol/lufa/lufa-abcminiuser/LUFA/Drivers/USB/Core/AVR8/Template/Template_Endpoint_Control_R.c **** 
 3206               		.loc 5 36 42 is_stmt 0 view .LVU865
 3207 0000 9B01      		movw r18,r22
 3208 0002 2150      		subi r18,1
 3209 0004 3109      		sbc r19,__zero_reg__
  36:../../tmk_core/protocol/lufa/lufa-abcminiuser/LUFA/Drivers/USB/Core/AVR8/Template/Template_Endpoint_Control_R.c **** 
 3210               		.loc 5 36 11 view .LVU866
 3211 0006 820F      		add r24,r18
 3212 0008 931F      		adc r25,r19
 3213               	.LVL277:
  38:../../tmk_core/protocol/lufa/lufa-abcminiuser/LUFA/Drivers/USB/Core/AVR8/Template/Template_Endpoint_Control_R.c **** 	  Endpoint_ClearOUT();
 3214               		.loc 5 38 2 is_stmt 1 view .LVU867
  38:../../tmk_core/protocol/lufa/lufa-abcminiuser/LUFA/Drivers/USB/Core/AVR8/Template/Template_Endpoint_Control_R.c **** 	  Endpoint_ClearOUT();
 3215               		.loc 5 38 5 is_stmt 0 view .LVU868
 3216 000a 6115      		cp r22,__zero_reg__
 3217 000c 7105      		cpc r23,__zero_reg__
 3218 000e 01F4      		brne .L222
 3219               	.L223:
 3220               	.LBB405:
  61:../../tmk_core/protocol/lufa/lufa-abcminiuser/LUFA/Drivers/USB/Core/AVR8/Template/Template_Endpoint_Control_R.c **** 		}
 3221               		.loc 5 61 4 is_stmt 1 view .LVU869
 3222               	.LBB406:
 3223               	.LBI406:
 468:../../tmk_core/protocol/lufa/lufa-abcminiuser/LUFA/Drivers/USB/Core/AVR8/../AVR8/../AVR8/Endpoint_AVR8.h **** 			{
 3224               		.loc 2 468 23 view .LVU870
 3225               	.LBB407:
 471:../../tmk_core/protocol/lufa/lufa-abcminiuser/LUFA/Drivers/USB/Core/AVR8/../AVR8/../AVR8/Endpoint_AVR8.h **** 				#else
 3226               		.loc 2 471 6 view .LVU871
 471:../../tmk_core/protocol/lufa/lufa-abcminiuser/LUFA/Drivers/USB/Core/AVR8/../AVR8/../AVR8/Endpoint_AVR8.h **** 				#else
 3227               		.loc 2 471 13 is_stmt 0 view .LVU872
 3228 0010 2091 E800 		lds r18,232
 3229 0014 2B77      		andi r18,lo8(123)
 3230 0016 2093 E800 		sts 232,r18
 3231               	.L222:
 471:../../tmk_core/protocol/lufa/lufa-abcminiuser/LUFA/Drivers/USB/Core/AVR8/../AVR8/../AVR8/Endpoint_AVR8.h **** 				#else
 3232               		.loc 2 471 13 view .LVU873
 3233               	.LBE407:
 3234               	.LBE406:
 3235               	.LBE405:
  41:../../tmk_core/protocol/lufa/lufa-abcminiuser/LUFA/Drivers/USB/Core/AVR8/Template/Template_Endpoint_Control_R.c **** 	{
 3236               		.loc 5 41 8 view .LVU874
 3237 001a 6115      		cp r22,__zero_reg__
 3238 001c 7105      		cpc r23,__zero_reg__
 3239 001e 01F4      		brne .L225
 3240               	.LVL278:
 3241               	.L226:
 3242               	.LBB416:
 3243               	.LBI416:
 405:../../tmk_core/protocol/lufa/lufa-abcminiuser/LUFA/Drivers/USB/Core/AVR8/../AVR8/../AVR8/Endpoint_AVR8.h **** 			{
 3244               		.loc 2 405 23 is_stmt 1 view .LVU875
 3245               	.LBB417:
 407:../../tmk_core/protocol/lufa/lufa-abcminiuser/LUFA/Drivers/USB/Core/AVR8/../AVR8/../AVR8/Endpoint_AVR8.h **** 			}
 3246               		.loc 2 407 5 view .LVU876
 407:../../tmk_core/protocol/lufa/lufa-abcminiuser/LUFA/Drivers/USB/Core/AVR8/../AVR8/../AVR8/Endpoint_AVR8.h **** 			}
 3247               		.loc 2 407 14 is_stmt 0 view .LVU877
 3248 0020 8091 E800 		lds r24,232
 3249               	.LBE417:
 3250               	.LBE416:
  65:../../tmk_core/protocol/lufa/lufa-abcminiuser/LUFA/Drivers/USB/Core/AVR8/Template/Template_Endpoint_Control_R.c **** 	{
 3251               		.loc 5 65 8 view .LVU878
 3252 0024 80FF      		sbrs r24,0
 3253 0026 00C0      		rjmp .L227
  75:../../tmk_core/protocol/lufa/lufa-abcminiuser/LUFA/Drivers/USB/Core/AVR8/Template/Template_Endpoint_Control_R.c **** }
 3254               		.loc 5 75 9 view .LVU879
 3255 0028 80E0      		ldi r24,0
 3256 002a 0895      		ret
 3257               	.LVL279:
 3258               	.L225:
 3259               	.LBB418:
  43:../../tmk_core/protocol/lufa/lufa-abcminiuser/LUFA/Drivers/USB/Core/AVR8/Template/Template_Endpoint_Control_R.c **** 
 3260               		.loc 5 43 3 is_stmt 1 view .LVU880
  43:../../tmk_core/protocol/lufa/lufa-abcminiuser/LUFA/Drivers/USB/Core/AVR8/Template/Template_Endpoint_Control_R.c **** 
 3261               		.loc 5 43 11 is_stmt 0 view .LVU881
 3262 002c 2091 0000 		lds r18,USB_DeviceState
 3263               	.LVL280:
  45:../../tmk_core/protocol/lufa/lufa-abcminiuser/LUFA/Drivers/USB/Core/AVR8/Template/Template_Endpoint_Control_R.c **** 		  return ENDPOINT_RWCSTREAM_DeviceDisconnected;
 3264               		.loc 5 45 3 is_stmt 1 view .LVU882
  45:../../tmk_core/protocol/lufa/lufa-abcminiuser/LUFA/Drivers/USB/Core/AVR8/Template/Template_Endpoint_Control_R.c **** 		  return ENDPOINT_RWCSTREAM_DeviceDisconnected;
 3265               		.loc 5 45 6 is_stmt 0 view .LVU883
 3266 0030 2223      		tst r18
 3267 0032 01F0      		breq .L231
  47:../../tmk_core/protocol/lufa/lufa-abcminiuser/LUFA/Drivers/USB/Core/AVR8/Template/Template_Endpoint_Control_R.c **** 		  return ENDPOINT_RWCSTREAM_BusSuspended;
 3268               		.loc 5 47 8 is_stmt 1 view .LVU884
  47:../../tmk_core/protocol/lufa/lufa-abcminiuser/LUFA/Drivers/USB/Core/AVR8/Template/Template_Endpoint_Control_R.c **** 		  return ENDPOINT_RWCSTREAM_BusSuspended;
 3269               		.loc 5 47 11 is_stmt 0 view .LVU885
 3270 0034 2530      		cpi r18,lo8(5)
 3271 0036 01F0      		breq .L232
  49:../../tmk_core/protocol/lufa/lufa-abcminiuser/LUFA/Drivers/USB/Core/AVR8/Template/Template_Endpoint_Control_R.c **** 		  return ENDPOINT_RWCSTREAM_HostAborted;
 3272               		.loc 5 49 8 is_stmt 1 view .LVU886
 3273               	.LBB408:
 3274               	.LBI408:
 429:../../tmk_core/protocol/lufa/lufa-abcminiuser/LUFA/Drivers/USB/Core/AVR8/../AVR8/../AVR8/Endpoint_AVR8.h **** 			{
 3275               		.loc 2 429 23 view .LVU887
 3276               	.LBB409:
 431:../../tmk_core/protocol/lufa/lufa-abcminiuser/LUFA/Drivers/USB/Core/AVR8/../AVR8/../AVR8/Endpoint_AVR8.h **** 			}
 3277               		.loc 2 431 5 view .LVU888
 431:../../tmk_core/protocol/lufa/lufa-abcminiuser/LUFA/Drivers/USB/Core/AVR8/../AVR8/../AVR8/Endpoint_AVR8.h **** 			}
 3278               		.loc 2 431 14 is_stmt 0 view .LVU889
 3279 0038 2091 E800 		lds r18,232
 3280               	.LVL281:
 431:../../tmk_core/protocol/lufa/lufa-abcminiuser/LUFA/Drivers/USB/Core/AVR8/../AVR8/../AVR8/Endpoint_AVR8.h **** 			}
 3281               		.loc 2 431 14 view .LVU890
 3282               	.LBE409:
 3283               	.LBE408:
  49:../../tmk_core/protocol/lufa/lufa-abcminiuser/LUFA/Drivers/USB/Core/AVR8/Template/Template_Endpoint_Control_R.c **** 		  return ENDPOINT_RWCSTREAM_HostAborted;
 3284               		.loc 5 49 11 view .LVU891
 3285 003c 23FD      		sbrc r18,3
 3286 003e 00C0      		rjmp .L230
  52:../../tmk_core/protocol/lufa/lufa-abcminiuser/LUFA/Drivers/USB/Core/AVR8/Template/Template_Endpoint_Control_R.c **** 		{
 3287               		.loc 5 52 3 is_stmt 1 view .LVU892
 3288               	.LBB410:
 3289               	.LBI410:
 417:../../tmk_core/protocol/lufa/lufa-abcminiuser/LUFA/Drivers/USB/Core/AVR8/../AVR8/../AVR8/Endpoint_AVR8.h **** 			{
 3290               		.loc 2 417 23 view .LVU893
 3291               	.LBB411:
 419:../../tmk_core/protocol/lufa/lufa-abcminiuser/LUFA/Drivers/USB/Core/AVR8/../AVR8/../AVR8/Endpoint_AVR8.h **** 			}
 3292               		.loc 2 419 5 view .LVU894
 419:../../tmk_core/protocol/lufa/lufa-abcminiuser/LUFA/Drivers/USB/Core/AVR8/../AVR8/../AVR8/Endpoint_AVR8.h **** 			}
 3293               		.loc 2 419 14 is_stmt 0 view .LVU895
 3294 0040 2091 E800 		lds r18,232
 3295               	.LBE411:
 3296               	.LBE410:
  52:../../tmk_core/protocol/lufa/lufa-abcminiuser/LUFA/Drivers/USB/Core/AVR8/Template/Template_Endpoint_Control_R.c **** 		{
 3297               		.loc 5 52 6 view .LVU896
 3298 0044 22FF      		sbrs r18,2
 3299 0046 00C0      		rjmp .L222
 3300               	.L221:
 3301               	.LBB412:
 3302               	.LBI412:
 222:../../tmk_core/protocol/lufa/lufa-abcminiuser/LUFA/Drivers/USB/Core/AVR8/../AVR8/../AVR8/Endpoint_AVR8.h **** 			{
 3303               		.loc 2 222 27 is_stmt 1 view .LVU897
 3304               	.LBB413:
 227:../../tmk_core/protocol/lufa/lufa-abcminiuser/LUFA/Drivers/USB/Core/AVR8/../AVR8/../AVR8/Endpoint_AVR8.h **** 				#elif defined(USB_SERIES_2_AVR)
 3305               		.loc 2 227 6 view .LVU898
 227:../../tmk_core/protocol/lufa/lufa-abcminiuser/LUFA/Drivers/USB/Core/AVR8/../AVR8/../AVR8/Endpoint_AVR8.h **** 				#elif defined(USB_SERIES_2_AVR)
 3306               		.loc 2 227 25 is_stmt 0 view .LVU899
 3307 0048 3091 F300 		lds r19,243
 227:../../tmk_core/protocol/lufa/lufa-abcminiuser/LUFA/Drivers/USB/Core/AVR8/../AVR8/../AVR8/Endpoint_AVR8.h **** 				#elif defined(USB_SERIES_2_AVR)
 3308               		.loc 2 227 40 view .LVU900
 3309 004c 2091 F200 		lds r18,242
 3310               	.LBE413:
 3311               	.LBE412:
  54:../../tmk_core/protocol/lufa/lufa-abcminiuser/LUFA/Drivers/USB/Core/AVR8/Template/Template_Endpoint_Control_R.c **** 			{
 3312               		.loc 5 54 18 view .LVU901
 3313 0050 232B      		or r18,r19
 3314 0052 01F0      		breq .L223
  56:../../tmk_core/protocol/lufa/lufa-abcminiuser/LUFA/Drivers/USB/Core/AVR8/Template/Template_Endpoint_Control_R.c **** 				TEMPLATE_BUFFER_MOVE(DataStream, 1);
 3315               		.loc 5 56 5 is_stmt 1 view .LVU902
 3316               	.LBB414:
 3317               	.LBI414:
 540:../../tmk_core/protocol/lufa/lufa-abcminiuser/LUFA/Drivers/USB/Core/AVR8/../AVR8/../AVR8/Endpoint_AVR8.h **** 			{
 3318               		.loc 2 540 26 view .LVU903
 3319               	.LBB415:
 542:../../tmk_core/protocol/lufa/lufa-abcminiuser/LUFA/Drivers/USB/Core/AVR8/../AVR8/../AVR8/Endpoint_AVR8.h **** 			}
 3320               		.loc 2 542 5 view .LVU904
 542:../../tmk_core/protocol/lufa/lufa-abcminiuser/LUFA/Drivers/USB/Core/AVR8/../AVR8/../AVR8/Endpoint_AVR8.h **** 			}
 3321               		.loc 2 542 12 is_stmt 0 view .LVU905
 3322 0054 2091 F100 		lds r18,241
 3323               	.LBE415:
 3324               	.LBE414:
  56:../../tmk_core/protocol/lufa/lufa-abcminiuser/LUFA/Drivers/USB/Core/AVR8/Template/Template_Endpoint_Control_R.c **** 				TEMPLATE_BUFFER_MOVE(DataStream, 1);
 3325               		.loc 5 56 5 view .LVU906
 3326 0058 FC01      		movw r30,r24
 3327 005a 2083      		st Z,r18
  57:../../tmk_core/protocol/lufa/lufa-abcminiuser/LUFA/Drivers/USB/Core/AVR8/Template/Template_Endpoint_Control_R.c **** 				Length--;
 3328               		.loc 5 57 5 is_stmt 1 view .LVU907
 3329 005c 0197      		sbiw r24,1
 3330               	.LVL282:
  58:../../tmk_core/protocol/lufa/lufa-abcminiuser/LUFA/Drivers/USB/Core/AVR8/Template/Template_Endpoint_Control_R.c **** 			}
 3331               		.loc 5 58 5 view .LVU908
  58:../../tmk_core/protocol/lufa/lufa-abcminiuser/LUFA/Drivers/USB/Core/AVR8/Template/Template_Endpoint_Control_R.c **** 			}
 3332               		.loc 5 58 11 is_stmt 0 view .LVU909
 3333 005e 6150      		subi r22,1
 3334 0060 7109      		sbc r23,__zero_reg__
 3335               	.LVL283:
  54:../../tmk_core/protocol/lufa/lufa-abcminiuser/LUFA/Drivers/USB/Core/AVR8/Template/Template_Endpoint_Control_R.c **** 			{
 3336               		.loc 5 54 10 view .LVU910
 3337 0062 01F4      		brne .L221
 3338 0064 00C0      		rjmp .L223
 3339               	.LVL284:
 3340               	.L227:
  54:../../tmk_core/protocol/lufa/lufa-abcminiuser/LUFA/Drivers/USB/Core/AVR8/Template/Template_Endpoint_Control_R.c **** 			{
 3341               		.loc 5 54 10 view .LVU911
 3342               	.LBE418:
 3343               	.LBB419:
  67:../../tmk_core/protocol/lufa/lufa-abcminiuser/LUFA/Drivers/USB/Core/AVR8/Template/Template_Endpoint_Control_R.c **** 
 3344               		.loc 5 67 3 is_stmt 1 view .LVU912
  67:../../tmk_core/protocol/lufa/lufa-abcminiuser/LUFA/Drivers/USB/Core/AVR8/Template/Template_Endpoint_Control_R.c **** 
 3345               		.loc 5 67 11 is_stmt 0 view .LVU913
 3346 0066 8091 0000 		lds r24,USB_DeviceState
 3347               	.LVL285:
  69:../../tmk_core/protocol/lufa/lufa-abcminiuser/LUFA/Drivers/USB/Core/AVR8/Template/Template_Endpoint_Control_R.c **** 		  return ENDPOINT_RWCSTREAM_DeviceDisconnected;
 3348               		.loc 5 69 3 is_stmt 1 view .LVU914
  69:../../tmk_core/protocol/lufa/lufa-abcminiuser/LUFA/Drivers/USB/Core/AVR8/Template/Template_Endpoint_Control_R.c **** 		  return ENDPOINT_RWCSTREAM_DeviceDisconnected;
 3349               		.loc 5 69 6 is_stmt 0 view .LVU915
 3350 006a 8823      		tst r24
 3351 006c 01F0      		breq .L231
  71:../../tmk_core/protocol/lufa/lufa-abcminiuser/LUFA/Drivers/USB/Core/AVR8/Template/Template_Endpoint_Control_R.c **** 		  return ENDPOINT_RWCSTREAM_BusSuspended;
 3352               		.loc 5 71 8 is_stmt 1 view .LVU916
  71:../../tmk_core/protocol/lufa/lufa-abcminiuser/LUFA/Drivers/USB/Core/AVR8/Template/Template_Endpoint_Control_R.c **** 		  return ENDPOINT_RWCSTREAM_BusSuspended;
 3353               		.loc 5 71 11 is_stmt 0 view .LVU917
 3354 006e 8530      		cpi r24,lo8(5)
 3355 0070 01F4      		brne .L226
 3356               	.LVL286:
 3357               	.L232:
  71:../../tmk_core/protocol/lufa/lufa-abcminiuser/LUFA/Drivers/USB/Core/AVR8/Template/Template_Endpoint_Control_R.c **** 		  return ENDPOINT_RWCSTREAM_BusSuspended;
 3358               		.loc 5 71 11 view .LVU918
 3359               	.LBE419:
 3360               	.LBB420:
  48:../../tmk_core/protocol/lufa/lufa-abcminiuser/LUFA/Drivers/USB/Core/AVR8/Template/Template_Endpoint_Control_R.c **** 		else if (Endpoint_IsSETUPReceived())
 3361               		.loc 5 48 12 view .LVU919
 3362 0072 83E0      		ldi r24,lo8(3)
 3363               	/* epilogue start */
 3364               	.LBE420:
 3365               		.loc 5 76 1 view .LVU920
 3366 0074 0895      		ret
 3367               	.LVL287:
 3368               	.L230:
 3369               	.LBB421:
  50:../../tmk_core/protocol/lufa/lufa-abcminiuser/LUFA/Drivers/USB/Core/AVR8/Template/Template_Endpoint_Control_R.c **** 
 3370               		.loc 5 50 12 view .LVU921
 3371 0076 81E0      		ldi r24,lo8(1)
 3372               	.LVL288:
  50:../../tmk_core/protocol/lufa/lufa-abcminiuser/LUFA/Drivers/USB/Core/AVR8/Template/Template_Endpoint_Control_R.c **** 
 3373               		.loc 5 50 12 view .LVU922
 3374 0078 0895      		ret
 3375               	.L231:
  46:../../tmk_core/protocol/lufa/lufa-abcminiuser/LUFA/Drivers/USB/Core/AVR8/Template/Template_Endpoint_Control_R.c **** 		else if (USB_DeviceState_LCL == DEVICE_STATE_Suspended)
 3376               		.loc 5 46 12 view .LVU923
 3377 007a 82E0      		ldi r24,lo8(2)
 3378 007c 0895      		ret
 3379               	.LBE421:
 3380               		.cfi_endproc
 3381               	.LFE100:
 3383               		.section	.text.Endpoint_Write_Control_PStream_LE,"ax",@progbits
 3384               	.global	Endpoint_Write_Control_PStream_LE
 3386               	Endpoint_Write_Control_PStream_LE:
 3387               	.LVL289:
 3388               	.LFB101:
  35:../../tmk_core/protocol/lufa/lufa-abcminiuser/LUFA/Drivers/USB/Core/AVR8/Template/Template_Endpoint_Control_W.c **** 	uint8_t* DataStream     = ((uint8_t*)Buffer + TEMPLATE_BUFFER_OFFSET(Length));
 3389               		.loc 4 35 1 is_stmt 1 view -0
 3390               		.cfi_startproc
 3391               	/* prologue: function */
 3392               	/* frame size = 0 */
 3393               	/* stack size = 0 */
 3394               	.L__stack_usage = 0
  35:../../tmk_core/protocol/lufa/lufa-abcminiuser/LUFA/Drivers/USB/Core/AVR8/Template/Template_Endpoint_Control_W.c **** 	uint8_t* DataStream     = ((uint8_t*)Buffer + TEMPLATE_BUFFER_OFFSET(Length));
 3395               		.loc 4 35 1 is_stmt 0 view .LVU925
 3396 0000 FC01      		movw r30,r24
  36:../../tmk_core/protocol/lufa/lufa-abcminiuser/LUFA/Drivers/USB/Core/AVR8/Template/Template_Endpoint_Control_W.c **** 	bool     LastPacketFull = false;
 3397               		.loc 4 36 2 is_stmt 1 view .LVU926
 3398               	.LVL290:
  37:../../tmk_core/protocol/lufa/lufa-abcminiuser/LUFA/Drivers/USB/Core/AVR8/Template/Template_Endpoint_Control_W.c **** 
 3399               		.loc 4 37 2 view .LVU927
  39:../../tmk_core/protocol/lufa/lufa-abcminiuser/LUFA/Drivers/USB/Core/AVR8/Template/Template_Endpoint_Control_W.c **** 	  Length = USB_ControlRequest.wLength;
 3400               		.loc 4 39 2 view .LVU928
  39:../../tmk_core/protocol/lufa/lufa-abcminiuser/LUFA/Drivers/USB/Core/AVR8/Template/Template_Endpoint_Control_W.c **** 	  Length = USB_ControlRequest.wLength;
 3401               		.loc 4 39 33 is_stmt 0 view .LVU929
 3402 0002 8091 0000 		lds r24,USB_ControlRequest+6
 3403 0006 9091 0000 		lds r25,USB_ControlRequest+6+1
 3404               	.LVL291:
  39:../../tmk_core/protocol/lufa/lufa-abcminiuser/LUFA/Drivers/USB/Core/AVR8/Template/Template_Endpoint_Control_W.c **** 	  Length = USB_ControlRequest.wLength;
 3405               		.loc 4 39 5 view .LVU930
 3406 000a 8617      		cp r24,r22
 3407 000c 9707      		cpc r25,r23
 3408 000e 00F0      		brlo .L249
  41:../../tmk_core/protocol/lufa/lufa-abcminiuser/LUFA/Drivers/USB/Core/AVR8/Template/Template_Endpoint_Control_W.c **** 	  Endpoint_ClearIN();
 3409               		.loc 4 41 7 is_stmt 1 view .LVU931
  41:../../tmk_core/protocol/lufa/lufa-abcminiuser/LUFA/Drivers/USB/Core/AVR8/Template/Template_Endpoint_Control_W.c **** 	  Endpoint_ClearIN();
 3410               		.loc 4 41 10 is_stmt 0 view .LVU932
 3411 0010 6115      		cp r22,__zero_reg__
 3412 0012 7105      		cpc r23,__zero_reg__
 3413 0014 01F4      		brne .L238
  42:../../tmk_core/protocol/lufa/lufa-abcminiuser/LUFA/Drivers/USB/Core/AVR8/Template/Template_Endpoint_Control_W.c **** 
 3414               		.loc 4 42 4 is_stmt 1 view .LVU933
 3415               	.LBB422:
 3416               	.LBI422:
 453:../../tmk_core/protocol/lufa/lufa-abcminiuser/LUFA/Drivers/USB/Core/AVR8/../AVR8/../AVR8/Endpoint_AVR8.h **** 			{
 3417               		.loc 2 453 23 view .LVU934
 3418               	.LBB423:
 456:../../tmk_core/protocol/lufa/lufa-abcminiuser/LUFA/Drivers/USB/Core/AVR8/../AVR8/../AVR8/Endpoint_AVR8.h **** 				#else
 3419               		.loc 2 456 6 view .LVU935
 456:../../tmk_core/protocol/lufa/lufa-abcminiuser/LUFA/Drivers/USB/Core/AVR8/../AVR8/../AVR8/Endpoint_AVR8.h **** 				#else
 3420               		.loc 2 456 13 is_stmt 0 view .LVU936
 3421 0016 8091 E800 		lds r24,232
 3422 001a 8E77      		andi r24,lo8(126)
 3423 001c 8093 E800 		sts 232,r24
 3424               	.LVL292:
 3425               	.L238:
 456:../../tmk_core/protocol/lufa/lufa-abcminiuser/LUFA/Drivers/USB/Core/AVR8/../AVR8/../AVR8/Endpoint_AVR8.h **** 				#else
 3426               		.loc 2 456 13 view .LVU937
 3427               	.LBE423:
 3428               	.LBE422:
 3429 0020 90E0      		ldi r25,0
 3430               	.LVL293:
 3431               	.L242:
  44:../../tmk_core/protocol/lufa/lufa-abcminiuser/LUFA/Drivers/USB/Core/AVR8/Template/Template_Endpoint_Control_W.c **** 	{
 3432               		.loc 4 44 8 view .LVU938
 3433 0022 6115      		cp r22,__zero_reg__
 3434 0024 7105      		cpc r23,__zero_reg__
 3435 0026 01F4      		brne .L247
  44:../../tmk_core/protocol/lufa/lufa-abcminiuser/LUFA/Drivers/USB/Core/AVR8/Template/Template_Endpoint_Control_W.c **** 	{
 3436               		.loc 4 44 16 discriminator 1 view .LVU939
 3437 0028 9111      		cpse r25,__zero_reg__
 3438 002a 00C0      		rjmp .L247
 3439               	.L261:
 3440               	.LBB424:
 3441               	.LBI424:
 417:../../tmk_core/protocol/lufa/lufa-abcminiuser/LUFA/Drivers/USB/Core/AVR8/../AVR8/../AVR8/Endpoint_AVR8.h **** 			{
 3442               		.loc 2 417 23 is_stmt 1 view .LVU940
 3443               	.LBB425:
 419:../../tmk_core/protocol/lufa/lufa-abcminiuser/LUFA/Drivers/USB/Core/AVR8/../AVR8/../AVR8/Endpoint_AVR8.h **** 			}
 3444               		.loc 2 419 5 view .LVU941
 419:../../tmk_core/protocol/lufa/lufa-abcminiuser/LUFA/Drivers/USB/Core/AVR8/../AVR8/../AVR8/Endpoint_AVR8.h **** 			}
 3445               		.loc 2 419 14 is_stmt 0 view .LVU942
 3446 002c 8091 E800 		lds r24,232
 3447               	.LBE425:
 3448               	.LBE424:
  74:../../tmk_core/protocol/lufa/lufa-abcminiuser/LUFA/Drivers/USB/Core/AVR8/Template/Template_Endpoint_Control_W.c **** 	{
 3449               		.loc 4 74 8 view .LVU943
 3450 0030 82FF      		sbrs r24,2
 3451 0032 00C0      		rjmp .L248
  86:../../tmk_core/protocol/lufa/lufa-abcminiuser/LUFA/Drivers/USB/Core/AVR8/Template/Template_Endpoint_Control_W.c **** }
 3452               		.loc 4 86 9 view .LVU944
 3453 0034 80E0      		ldi r24,0
 3454 0036 0895      		ret
 3455               	.LVL294:
 3456               	.L249:
  86:../../tmk_core/protocol/lufa/lufa-abcminiuser/LUFA/Drivers/USB/Core/AVR8/Template/Template_Endpoint_Control_W.c **** }
 3457               		.loc 4 86 9 view .LVU945
 3458 0038 BC01      		movw r22,r24
 3459               	.LVL295:
  86:../../tmk_core/protocol/lufa/lufa-abcminiuser/LUFA/Drivers/USB/Core/AVR8/Template/Template_Endpoint_Control_W.c **** }
 3460               		.loc 4 86 9 view .LVU946
 3461 003a 00C0      		rjmp .L238
 3462               	.LVL296:
 3463               	.L247:
 3464               	.LBB426:
  46:../../tmk_core/protocol/lufa/lufa-abcminiuser/LUFA/Drivers/USB/Core/AVR8/Template/Template_Endpoint_Control_W.c **** 
 3465               		.loc 4 46 3 is_stmt 1 view .LVU947
  46:../../tmk_core/protocol/lufa/lufa-abcminiuser/LUFA/Drivers/USB/Core/AVR8/Template/Template_Endpoint_Control_W.c **** 
 3466               		.loc 4 46 11 is_stmt 0 view .LVU948
 3467 003c 8091 0000 		lds r24,USB_DeviceState
 3468               	.LVL297:
  48:../../tmk_core/protocol/lufa/lufa-abcminiuser/LUFA/Drivers/USB/Core/AVR8/Template/Template_Endpoint_Control_W.c **** 		  return ENDPOINT_RWCSTREAM_DeviceDisconnected;
 3469               		.loc 4 48 3 is_stmt 1 view .LVU949
  48:../../tmk_core/protocol/lufa/lufa-abcminiuser/LUFA/Drivers/USB/Core/AVR8/Template/Template_Endpoint_Control_W.c **** 		  return ENDPOINT_RWCSTREAM_DeviceDisconnected;
 3470               		.loc 4 48 6 is_stmt 0 view .LVU950
 3471 0040 8823      		tst r24
 3472 0042 01F0      		breq .L253
  50:../../tmk_core/protocol/lufa/lufa-abcminiuser/LUFA/Drivers/USB/Core/AVR8/Template/Template_Endpoint_Control_W.c **** 		  return ENDPOINT_RWCSTREAM_BusSuspended;
 3473               		.loc 4 50 8 is_stmt 1 view .LVU951
  50:../../tmk_core/protocol/lufa/lufa-abcminiuser/LUFA/Drivers/USB/Core/AVR8/Template/Template_Endpoint_Control_W.c **** 		  return ENDPOINT_RWCSTREAM_BusSuspended;
 3474               		.loc 4 50 11 is_stmt 0 view .LVU952
 3475 0044 8530      		cpi r24,lo8(5)
 3476 0046 01F0      		breq .L254
  52:../../tmk_core/protocol/lufa/lufa-abcminiuser/LUFA/Drivers/USB/Core/AVR8/Template/Template_Endpoint_Control_W.c **** 		  return ENDPOINT_RWCSTREAM_HostAborted;
 3477               		.loc 4 52 8 is_stmt 1 view .LVU953
 3478               	.LBB427:
 3479               	.LBI427:
 429:../../tmk_core/protocol/lufa/lufa-abcminiuser/LUFA/Drivers/USB/Core/AVR8/../AVR8/../AVR8/Endpoint_AVR8.h **** 			{
 3480               		.loc 2 429 23 view .LVU954
 3481               	.LBB428:
 431:../../tmk_core/protocol/lufa/lufa-abcminiuser/LUFA/Drivers/USB/Core/AVR8/../AVR8/../AVR8/Endpoint_AVR8.h **** 			}
 3482               		.loc 2 431 5 view .LVU955
 431:../../tmk_core/protocol/lufa/lufa-abcminiuser/LUFA/Drivers/USB/Core/AVR8/../AVR8/../AVR8/Endpoint_AVR8.h **** 			}
 3483               		.loc 2 431 14 is_stmt 0 view .LVU956
 3484 0048 8091 E800 		lds r24,232
 3485               	.LVL298:
 431:../../tmk_core/protocol/lufa/lufa-abcminiuser/LUFA/Drivers/USB/Core/AVR8/../AVR8/../AVR8/Endpoint_AVR8.h **** 			}
 3486               		.loc 2 431 14 view .LVU957
 3487               	.LBE428:
 3488               	.LBE427:
  52:../../tmk_core/protocol/lufa/lufa-abcminiuser/LUFA/Drivers/USB/Core/AVR8/Template/Template_Endpoint_Control_W.c **** 		  return ENDPOINT_RWCSTREAM_HostAborted;
 3489               		.loc 4 52 11 view .LVU958
 3490 004c 83FD      		sbrc r24,3
 3491 004e 00C0      		rjmp .L255
  54:../../tmk_core/protocol/lufa/lufa-abcminiuser/LUFA/Drivers/USB/Core/AVR8/Template/Template_Endpoint_Control_W.c **** 		  break;
 3492               		.loc 4 54 8 is_stmt 1 view .LVU959
 3493               	.LBB429:
 3494               	.LBI429:
 417:../../tmk_core/protocol/lufa/lufa-abcminiuser/LUFA/Drivers/USB/Core/AVR8/../AVR8/../AVR8/Endpoint_AVR8.h **** 			{
 3495               		.loc 2 417 23 view .LVU960
 3496               	.LBB430:
 419:../../tmk_core/protocol/lufa/lufa-abcminiuser/LUFA/Drivers/USB/Core/AVR8/../AVR8/../AVR8/Endpoint_AVR8.h **** 			}
 3497               		.loc 2 419 5 view .LVU961
 419:../../tmk_core/protocol/lufa/lufa-abcminiuser/LUFA/Drivers/USB/Core/AVR8/../AVR8/../AVR8/Endpoint_AVR8.h **** 			}
 3498               		.loc 2 419 14 is_stmt 0 view .LVU962
 3499 0050 8091 E800 		lds r24,232
 3500               	.LBE430:
 3501               	.LBE429:
  54:../../tmk_core/protocol/lufa/lufa-abcminiuser/LUFA/Drivers/USB/Core/AVR8/Template/Template_Endpoint_Control_W.c **** 		  break;
 3502               		.loc 4 54 11 view .LVU963
 3503 0054 82FD      		sbrc r24,2
 3504 0056 00C0      		rjmp .L261
  57:../../tmk_core/protocol/lufa/lufa-abcminiuser/LUFA/Drivers/USB/Core/AVR8/Template/Template_Endpoint_Control_W.c **** 		{
 3505               		.loc 4 57 3 is_stmt 1 view .LVU964
 3506               	.LBB431:
 3507               	.LBI431:
 405:../../tmk_core/protocol/lufa/lufa-abcminiuser/LUFA/Drivers/USB/Core/AVR8/../AVR8/../AVR8/Endpoint_AVR8.h **** 			{
 3508               		.loc 2 405 23 view .LVU965
 3509               	.LBB432:
 407:../../tmk_core/protocol/lufa/lufa-abcminiuser/LUFA/Drivers/USB/Core/AVR8/../AVR8/../AVR8/Endpoint_AVR8.h **** 			}
 3510               		.loc 2 407 5 view .LVU966
 407:../../tmk_core/protocol/lufa/lufa-abcminiuser/LUFA/Drivers/USB/Core/AVR8/../AVR8/../AVR8/Endpoint_AVR8.h **** 			}
 3511               		.loc 2 407 14 is_stmt 0 view .LVU967
 3512 0058 8091 E800 		lds r24,232
 3513               	.LBE432:
 3514               	.LBE431:
  57:../../tmk_core/protocol/lufa/lufa-abcminiuser/LUFA/Drivers/USB/Core/AVR8/Template/Template_Endpoint_Control_W.c **** 		{
 3515               		.loc 4 57 6 view .LVU968
 3516 005c 80FF      		sbrs r24,0
 3517 005e 00C0      		rjmp .L242
 3518               	.LBB433:
  59:../../tmk_core/protocol/lufa/lufa-abcminiuser/LUFA/Drivers/USB/Core/AVR8/Template/Template_Endpoint_Control_W.c **** 
 3519               		.loc 4 59 4 is_stmt 1 view .LVU969
 3520               	.LBB434:
 3521               	.LBI434:
 222:../../tmk_core/protocol/lufa/lufa-abcminiuser/LUFA/Drivers/USB/Core/AVR8/../AVR8/../AVR8/Endpoint_AVR8.h **** 			{
 3522               		.loc 2 222 27 view .LVU970
 3523               	.LBB435:
 227:../../tmk_core/protocol/lufa/lufa-abcminiuser/LUFA/Drivers/USB/Core/AVR8/../AVR8/../AVR8/Endpoint_AVR8.h **** 				#elif defined(USB_SERIES_2_AVR)
 3524               		.loc 2 227 6 view .LVU971
 227:../../tmk_core/protocol/lufa/lufa-abcminiuser/LUFA/Drivers/USB/Core/AVR8/../AVR8/../AVR8/Endpoint_AVR8.h **** 				#elif defined(USB_SERIES_2_AVR)
 3525               		.loc 2 227 25 is_stmt 0 view .LVU972
 3526 0060 8091 F300 		lds r24,243
 227:../../tmk_core/protocol/lufa/lufa-abcminiuser/LUFA/Drivers/USB/Core/AVR8/../AVR8/../AVR8/Endpoint_AVR8.h **** 				#elif defined(USB_SERIES_2_AVR)
 3527               		.loc 2 227 40 view .LVU973
 3528 0064 2091 F200 		lds r18,242
 227:../../tmk_core/protocol/lufa/lufa-abcminiuser/LUFA/Drivers/USB/Core/AVR8/../AVR8/../AVR8/Endpoint_AVR8.h **** 				#elif defined(USB_SERIES_2_AVR)
 3529               		.loc 2 227 38 view .LVU974
 3530 0068 382F      		mov r19,r24
 3531               	.LVL299:
 227:../../tmk_core/protocol/lufa/lufa-abcminiuser/LUFA/Drivers/USB/Core/AVR8/../AVR8/../AVR8/Endpoint_AVR8.h **** 				#elif defined(USB_SERIES_2_AVR)
 3532               		.loc 2 227 38 view .LVU975
 3533               	.LBE435:
 3534               	.LBE434:
  61:../../tmk_core/protocol/lufa/lufa-abcminiuser/LUFA/Drivers/USB/Core/AVR8/Template/Template_Endpoint_Control_W.c **** 			{
 3535               		.loc 4 61 4 is_stmt 1 view .LVU976
 3536               	.L243:
  61:../../tmk_core/protocol/lufa/lufa-abcminiuser/LUFA/Drivers/USB/Core/AVR8/Template/Template_Endpoint_Control_W.c **** 			{
 3537               		.loc 4 61 10 is_stmt 0 view .LVU977
 3538 006a 6115      		cp r22,__zero_reg__
 3539 006c 7105      		cpc r23,__zero_reg__
 3540 006e 01F0      		breq .L244
  61:../../tmk_core/protocol/lufa/lufa-abcminiuser/LUFA/Drivers/USB/Core/AVR8/Template/Template_Endpoint_Control_W.c **** 			{
 3541               		.loc 4 61 18 discriminator 1 view .LVU978
 3542 0070 2830      		cpi r18,8
 3543 0072 3105      		cpc r19,__zero_reg__
 3544 0074 00F0      		brlo .L245
 3545               	.L244:
  69:../../tmk_core/protocol/lufa/lufa-abcminiuser/LUFA/Drivers/USB/Core/AVR8/Template/Template_Endpoint_Control_W.c **** 			Endpoint_ClearIN();
 3546               		.loc 4 69 4 is_stmt 1 view .LVU979
  69:../../tmk_core/protocol/lufa/lufa-abcminiuser/LUFA/Drivers/USB/Core/AVR8/Template/Template_Endpoint_Control_W.c **** 			Endpoint_ClearIN();
 3547               		.loc 4 69 19 is_stmt 0 view .LVU980
 3548 0076 91E0      		ldi r25,lo8(1)
 3549               	.LVL300:
  69:../../tmk_core/protocol/lufa/lufa-abcminiuser/LUFA/Drivers/USB/Core/AVR8/Template/Template_Endpoint_Control_W.c **** 			Endpoint_ClearIN();
 3550               		.loc 4 69 19 view .LVU981
 3551 0078 2830      		cpi r18,8
 3552 007a 3105      		cpc r19,__zero_reg__
 3553 007c 01F0      		breq .L246
 3554 007e 90E0      		ldi r25,0
 3555               	.L246:
 3556               	.LVL301:
  70:../../tmk_core/protocol/lufa/lufa-abcminiuser/LUFA/Drivers/USB/Core/AVR8/Template/Template_Endpoint_Control_W.c **** 		}
 3557               		.loc 4 70 4 is_stmt 1 view .LVU982
 3558               	.LBB436:
 3559               	.LBI436:
 453:../../tmk_core/protocol/lufa/lufa-abcminiuser/LUFA/Drivers/USB/Core/AVR8/../AVR8/../AVR8/Endpoint_AVR8.h **** 			{
 3560               		.loc 2 453 23 view .LVU983
 3561               	.LBB437:
 456:../../tmk_core/protocol/lufa/lufa-abcminiuser/LUFA/Drivers/USB/Core/AVR8/../AVR8/../AVR8/Endpoint_AVR8.h **** 				#else
 3562               		.loc 2 456 6 view .LVU984
 456:../../tmk_core/protocol/lufa/lufa-abcminiuser/LUFA/Drivers/USB/Core/AVR8/../AVR8/../AVR8/Endpoint_AVR8.h **** 				#else
 3563               		.loc 2 456 13 is_stmt 0 view .LVU985
 3564 0080 8091 E800 		lds r24,232
 3565 0084 8E77      		andi r24,lo8(126)
 3566 0086 8093 E800 		sts 232,r24
 3567 008a 00C0      		rjmp .L242
 3568               	.L245:
 456:../../tmk_core/protocol/lufa/lufa-abcminiuser/LUFA/Drivers/USB/Core/AVR8/../AVR8/../AVR8/Endpoint_AVR8.h **** 				#else
 3569               		.loc 2 456 13 view .LVU986
 3570               	.LBE437:
 3571               	.LBE436:
  63:../../tmk_core/protocol/lufa/lufa-abcminiuser/LUFA/Drivers/USB/Core/AVR8/Template/Template_Endpoint_Control_W.c **** 				TEMPLATE_BUFFER_MOVE(DataStream, 1);
 3572               		.loc 4 63 5 is_stmt 1 view .LVU987
 3573               	.LBB438:
  63:../../tmk_core/protocol/lufa/lufa-abcminiuser/LUFA/Drivers/USB/Core/AVR8/Template/Template_Endpoint_Control_W.c **** 				TEMPLATE_BUFFER_MOVE(DataStream, 1);
 3574               		.loc 4 63 5 view .LVU988
 3575               	.LVL302:
  63:../../tmk_core/protocol/lufa/lufa-abcminiuser/LUFA/Drivers/USB/Core/AVR8/Template/Template_Endpoint_Control_W.c **** 				TEMPLATE_BUFFER_MOVE(DataStream, 1);
 3576               		.loc 4 63 5 view .LVU989
  63:../../tmk_core/protocol/lufa/lufa-abcminiuser/LUFA/Drivers/USB/Core/AVR8/Template/Template_Endpoint_Control_W.c **** 				TEMPLATE_BUFFER_MOVE(DataStream, 1);
 3577               		.loc 4 63 5 view .LVU990
 3578               	/* #APP */
 3579               	 ;  63 "../../tmk_core/protocol/lufa/lufa-abcminiuser/LUFA/Drivers/USB/Core/AVR8/Template/Template_
 3580 008c 8491      		lpm r24, Z
 3581               		
 3582               	 ;  0 "" 2
 3583               	.LVL303:
  63:../../tmk_core/protocol/lufa/lufa-abcminiuser/LUFA/Drivers/USB/Core/AVR8/Template/Template_Endpoint_Control_W.c **** 				TEMPLATE_BUFFER_MOVE(DataStream, 1);
 3584               		.loc 4 63 5 view .LVU991
  63:../../tmk_core/protocol/lufa/lufa-abcminiuser/LUFA/Drivers/USB/Core/AVR8/Template/Template_Endpoint_Control_W.c **** 				TEMPLATE_BUFFER_MOVE(DataStream, 1);
 3585               		.loc 4 63 5 is_stmt 0 view .LVU992
 3586               	/* #NOAPP */
 3587               	.LBE438:
 3588               	.LBB439:
 3589               	.LBI439:
 552:../../tmk_core/protocol/lufa/lufa-abcminiuser/LUFA/Drivers/USB/Core/AVR8/../AVR8/../AVR8/Endpoint_AVR8.h **** 			{
 3590               		.loc 2 552 23 is_stmt 1 view .LVU993
 3591               	.LBB440:
 554:../../tmk_core/protocol/lufa/lufa-abcminiuser/LUFA/Drivers/USB/Core/AVR8/../AVR8/../AVR8/Endpoint_AVR8.h **** 			}
 3592               		.loc 2 554 5 view .LVU994
 554:../../tmk_core/protocol/lufa/lufa-abcminiuser/LUFA/Drivers/USB/Core/AVR8/../AVR8/../AVR8/Endpoint_AVR8.h **** 			}
 3593               		.loc 2 554 12 is_stmt 0 view .LVU995
 3594 008e 8093 F100 		sts 241,r24
 3595               	.LVL304:
 554:../../tmk_core/protocol/lufa/lufa-abcminiuser/LUFA/Drivers/USB/Core/AVR8/../AVR8/../AVR8/Endpoint_AVR8.h **** 			}
 3596               		.loc 2 554 12 view .LVU996
 3597               	.LBE440:
 3598               	.LBE439:
  64:../../tmk_core/protocol/lufa/lufa-abcminiuser/LUFA/Drivers/USB/Core/AVR8/Template/Template_Endpoint_Control_W.c **** 				Length--;
 3599               		.loc 4 64 5 is_stmt 1 view .LVU997
 3600 0092 3196      		adiw r30,1
 3601               	.LVL305:
  65:../../tmk_core/protocol/lufa/lufa-abcminiuser/LUFA/Drivers/USB/Core/AVR8/Template/Template_Endpoint_Control_W.c **** 				BytesInEndpoint++;
 3602               		.loc 4 65 5 view .LVU998
  65:../../tmk_core/protocol/lufa/lufa-abcminiuser/LUFA/Drivers/USB/Core/AVR8/Template/Template_Endpoint_Control_W.c **** 				BytesInEndpoint++;
 3603               		.loc 4 65 11 is_stmt 0 view .LVU999
 3604 0094 6150      		subi r22,1
 3605 0096 7109      		sbc r23,__zero_reg__
 3606               	.LVL306:
  66:../../tmk_core/protocol/lufa/lufa-abcminiuser/LUFA/Drivers/USB/Core/AVR8/Template/Template_Endpoint_Control_W.c **** 			}
 3607               		.loc 4 66 5 is_stmt 1 view .LVU1000
  66:../../tmk_core/protocol/lufa/lufa-abcminiuser/LUFA/Drivers/USB/Core/AVR8/Template/Template_Endpoint_Control_W.c **** 			}
 3608               		.loc 4 66 20 is_stmt 0 view .LVU1001
 3609 0098 2F5F      		subi r18,-1
 3610 009a 3F4F      		sbci r19,-1
 3611               	.LVL307:
  66:../../tmk_core/protocol/lufa/lufa-abcminiuser/LUFA/Drivers/USB/Core/AVR8/Template/Template_Endpoint_Control_W.c **** 			}
 3612               		.loc 4 66 20 view .LVU1002
 3613 009c 00C0      		rjmp .L243
 3614               	.LVL308:
 3615               	.L248:
  66:../../tmk_core/protocol/lufa/lufa-abcminiuser/LUFA/Drivers/USB/Core/AVR8/Template/Template_Endpoint_Control_W.c **** 			}
 3616               		.loc 4 66 20 view .LVU1003
 3617               	.LBE433:
 3618               	.LBE426:
 3619               	.LBB441:
  76:../../tmk_core/protocol/lufa/lufa-abcminiuser/LUFA/Drivers/USB/Core/AVR8/Template/Template_Endpoint_Control_W.c **** 
 3620               		.loc 4 76 3 is_stmt 1 view .LVU1004
  76:../../tmk_core/protocol/lufa/lufa-abcminiuser/LUFA/Drivers/USB/Core/AVR8/Template/Template_Endpoint_Control_W.c **** 
 3621               		.loc 4 76 11 is_stmt 0 view .LVU1005
 3622 009e 8091 0000 		lds r24,USB_DeviceState
 3623               	.LVL309:
  78:../../tmk_core/protocol/lufa/lufa-abcminiuser/LUFA/Drivers/USB/Core/AVR8/Template/Template_Endpoint_Control_W.c **** 		  return ENDPOINT_RWCSTREAM_DeviceDisconnected;
 3624               		.loc 4 78 3 is_stmt 1 view .LVU1006
  78:../../tmk_core/protocol/lufa/lufa-abcminiuser/LUFA/Drivers/USB/Core/AVR8/Template/Template_Endpoint_Control_W.c **** 		  return ENDPOINT_RWCSTREAM_DeviceDisconnected;
 3625               		.loc 4 78 6 is_stmt 0 view .LVU1007
 3626 00a2 8823      		tst r24
 3627 00a4 01F0      		breq .L253
  80:../../tmk_core/protocol/lufa/lufa-abcminiuser/LUFA/Drivers/USB/Core/AVR8/Template/Template_Endpoint_Control_W.c **** 		  return ENDPOINT_RWCSTREAM_BusSuspended;
 3628               		.loc 4 80 8 is_stmt 1 view .LVU1008
  80:../../tmk_core/protocol/lufa/lufa-abcminiuser/LUFA/Drivers/USB/Core/AVR8/Template/Template_Endpoint_Control_W.c **** 		  return ENDPOINT_RWCSTREAM_BusSuspended;
 3629               		.loc 4 80 11 is_stmt 0 view .LVU1009
 3630 00a6 8530      		cpi r24,lo8(5)
 3631 00a8 01F0      		breq .L254
  82:../../tmk_core/protocol/lufa/lufa-abcminiuser/LUFA/Drivers/USB/Core/AVR8/Template/Template_Endpoint_Control_W.c **** 		  return ENDPOINT_RWCSTREAM_HostAborted;
 3632               		.loc 4 82 8 is_stmt 1 view .LVU1010
 3633               	.LBB442:
 3634               	.LBI442:
 429:../../tmk_core/protocol/lufa/lufa-abcminiuser/LUFA/Drivers/USB/Core/AVR8/../AVR8/../AVR8/Endpoint_AVR8.h **** 			{
 3635               		.loc 2 429 23 view .LVU1011
 3636               	.LBB443:
 431:../../tmk_core/protocol/lufa/lufa-abcminiuser/LUFA/Drivers/USB/Core/AVR8/../AVR8/../AVR8/Endpoint_AVR8.h **** 			}
 3637               		.loc 2 431 5 view .LVU1012
 431:../../tmk_core/protocol/lufa/lufa-abcminiuser/LUFA/Drivers/USB/Core/AVR8/../AVR8/../AVR8/Endpoint_AVR8.h **** 			}
 3638               		.loc 2 431 14 is_stmt 0 view .LVU1013
 3639 00aa 8091 E800 		lds r24,232
 3640               	.LVL310:
 431:../../tmk_core/protocol/lufa/lufa-abcminiuser/LUFA/Drivers/USB/Core/AVR8/../AVR8/../AVR8/Endpoint_AVR8.h **** 			}
 3641               		.loc 2 431 14 view .LVU1014
 3642               	.LBE443:
 3643               	.LBE442:
  82:../../tmk_core/protocol/lufa/lufa-abcminiuser/LUFA/Drivers/USB/Core/AVR8/Template/Template_Endpoint_Control_W.c **** 		  return ENDPOINT_RWCSTREAM_HostAborted;
 3644               		.loc 4 82 11 view .LVU1015
 3645 00ae 83FF      		sbrs r24,3
 3646 00b0 00C0      		rjmp .L261
 3647               	.L255:
  82:../../tmk_core/protocol/lufa/lufa-abcminiuser/LUFA/Drivers/USB/Core/AVR8/Template/Template_Endpoint_Control_W.c **** 		  return ENDPOINT_RWCSTREAM_HostAborted;
 3648               		.loc 4 82 11 view .LVU1016
 3649               	.LBE441:
 3650               	.LBB444:
  53:../../tmk_core/protocol/lufa/lufa-abcminiuser/LUFA/Drivers/USB/Core/AVR8/Template/Template_Endpoint_Control_W.c **** 		else if (Endpoint_IsOUTReceived())
 3651               		.loc 4 53 12 view .LVU1017
 3652 00b2 81E0      		ldi r24,lo8(1)
 3653               	/* epilogue start */
 3654               	.LBE444:
 3655               		.loc 4 87 1 view .LVU1018
 3656 00b4 0895      		ret
 3657               	.L253:
 3658               	.LBB445:
  49:../../tmk_core/protocol/lufa/lufa-abcminiuser/LUFA/Drivers/USB/Core/AVR8/Template/Template_Endpoint_Control_W.c **** 		else if (USB_DeviceState_LCL == DEVICE_STATE_Suspended)
 3659               		.loc 4 49 12 view .LVU1019
 3660 00b6 82E0      		ldi r24,lo8(2)
 3661 00b8 0895      		ret
 3662               	.L254:
  51:../../tmk_core/protocol/lufa/lufa-abcminiuser/LUFA/Drivers/USB/Core/AVR8/Template/Template_Endpoint_Control_W.c **** 		else if (Endpoint_IsSETUPReceived())
 3663               		.loc 4 51 12 view .LVU1020
 3664 00ba 83E0      		ldi r24,lo8(3)
 3665 00bc 0895      		ret
 3666               	.LBE445:
 3667               		.cfi_endproc
 3668               	.LFE101:
 3670               		.section	.text.Endpoint_Write_Control_PStream_BE,"ax",@progbits
 3671               	.global	Endpoint_Write_Control_PStream_BE
 3673               	Endpoint_Write_Control_PStream_BE:
 3674               	.LVL311:
 3675               	.LFB102:
  35:../../tmk_core/protocol/lufa/lufa-abcminiuser/LUFA/Drivers/USB/Core/AVR8/Template/Template_Endpoint_Control_W.c **** 	uint8_t* DataStream     = ((uint8_t*)Buffer + TEMPLATE_BUFFER_OFFSET(Length));
 3676               		.loc 4 35 1 is_stmt 1 view -0
 3677               		.cfi_startproc
 3678               	/* prologue: function */
 3679               	/* frame size = 0 */
 3680               	/* stack size = 0 */
 3681               	.L__stack_usage = 0
  36:../../tmk_core/protocol/lufa/lufa-abcminiuser/LUFA/Drivers/USB/Core/AVR8/Template/Template_Endpoint_Control_W.c **** 	bool     LastPacketFull = false;
 3682               		.loc 4 36 2 view .LVU1022
  36:../../tmk_core/protocol/lufa/lufa-abcminiuser/LUFA/Drivers/USB/Core/AVR8/Template/Template_Endpoint_Control_W.c **** 	bool     LastPacketFull = false;
 3683               		.loc 4 36 46 is_stmt 0 view .LVU1023
 3684 0000 FB01      		movw r30,r22
 3685 0002 3197      		sbiw r30,1
  36:../../tmk_core/protocol/lufa/lufa-abcminiuser/LUFA/Drivers/USB/Core/AVR8/Template/Template_Endpoint_Control_W.c **** 	bool     LastPacketFull = false;
 3686               		.loc 4 36 11 view .LVU1024
 3687 0004 E80F      		add r30,r24
 3688 0006 F91F      		adc r31,r25
 3689               	.LVL312:
  37:../../tmk_core/protocol/lufa/lufa-abcminiuser/LUFA/Drivers/USB/Core/AVR8/Template/Template_Endpoint_Control_W.c **** 
 3690               		.loc 4 37 2 is_stmt 1 view .LVU1025
  39:../../tmk_core/protocol/lufa/lufa-abcminiuser/LUFA/Drivers/USB/Core/AVR8/Template/Template_Endpoint_Control_W.c **** 	  Length = USB_ControlRequest.wLength;
 3691               		.loc 4 39 2 view .LVU1026
  39:../../tmk_core/protocol/lufa/lufa-abcminiuser/LUFA/Drivers/USB/Core/AVR8/Template/Template_Endpoint_Control_W.c **** 	  Length = USB_ControlRequest.wLength;
 3692               		.loc 4 39 33 is_stmt 0 view .LVU1027
 3693 0008 2091 0000 		lds r18,USB_ControlRequest+6
 3694 000c 3091 0000 		lds r19,USB_ControlRequest+6+1
  39:../../tmk_core/protocol/lufa/lufa-abcminiuser/LUFA/Drivers/USB/Core/AVR8/Template/Template_Endpoint_Control_W.c **** 	  Length = USB_ControlRequest.wLength;
 3695               		.loc 4 39 5 view .LVU1028
 3696 0010 2617      		cp r18,r22
 3697 0012 3707      		cpc r19,r23
 3698 0014 00F0      		brlo .L277
  41:../../tmk_core/protocol/lufa/lufa-abcminiuser/LUFA/Drivers/USB/Core/AVR8/Template/Template_Endpoint_Control_W.c **** 	  Endpoint_ClearIN();
 3699               		.loc 4 41 7 is_stmt 1 view .LVU1029
  41:../../tmk_core/protocol/lufa/lufa-abcminiuser/LUFA/Drivers/USB/Core/AVR8/Template/Template_Endpoint_Control_W.c **** 	  Endpoint_ClearIN();
 3700               		.loc 4 41 10 is_stmt 0 view .LVU1030
 3701 0016 6115      		cp r22,__zero_reg__
 3702 0018 7105      		cpc r23,__zero_reg__
 3703 001a 01F4      		brne .L266
  42:../../tmk_core/protocol/lufa/lufa-abcminiuser/LUFA/Drivers/USB/Core/AVR8/Template/Template_Endpoint_Control_W.c **** 
 3704               		.loc 4 42 4 is_stmt 1 view .LVU1031
 3705               	.LBB446:
 3706               	.LBI446:
 453:../../tmk_core/protocol/lufa/lufa-abcminiuser/LUFA/Drivers/USB/Core/AVR8/../AVR8/../AVR8/Endpoint_AVR8.h **** 			{
 3707               		.loc 2 453 23 view .LVU1032
 3708               	.LBB447:
 456:../../tmk_core/protocol/lufa/lufa-abcminiuser/LUFA/Drivers/USB/Core/AVR8/../AVR8/../AVR8/Endpoint_AVR8.h **** 				#else
 3709               		.loc 2 456 6 view .LVU1033
 456:../../tmk_core/protocol/lufa/lufa-abcminiuser/LUFA/Drivers/USB/Core/AVR8/../AVR8/../AVR8/Endpoint_AVR8.h **** 				#else
 3710               		.loc 2 456 13 is_stmt 0 view .LVU1034
 3711 001c 2091 E800 		lds r18,232
 3712 0020 2E77      		andi r18,lo8(126)
 3713 0022 2093 E800 		sts 232,r18
 3714               	.LVL313:
 3715               	.L266:
 456:../../tmk_core/protocol/lufa/lufa-abcminiuser/LUFA/Drivers/USB/Core/AVR8/../AVR8/../AVR8/Endpoint_AVR8.h **** 				#else
 3716               		.loc 2 456 13 view .LVU1035
 3717               	.LBE447:
 3718               	.LBE446:
 3719 0026 40E0      		ldi r20,0
 3720               	.LVL314:
 3721               	.L270:
  44:../../tmk_core/protocol/lufa/lufa-abcminiuser/LUFA/Drivers/USB/Core/AVR8/Template/Template_Endpoint_Control_W.c **** 	{
 3722               		.loc 4 44 8 view .LVU1036
 3723 0028 6115      		cp r22,__zero_reg__
 3724 002a 7105      		cpc r23,__zero_reg__
 3725 002c 01F4      		brne .L275
  44:../../tmk_core/protocol/lufa/lufa-abcminiuser/LUFA/Drivers/USB/Core/AVR8/Template/Template_Endpoint_Control_W.c **** 	{
 3726               		.loc 4 44 16 discriminator 1 view .LVU1037
 3727 002e 4111      		cpse r20,__zero_reg__
 3728 0030 00C0      		rjmp .L275
 3729               	.LVL315:
 3730               	.L289:
 3731               	.LBB448:
 3732               	.LBI448:
 417:../../tmk_core/protocol/lufa/lufa-abcminiuser/LUFA/Drivers/USB/Core/AVR8/../AVR8/../AVR8/Endpoint_AVR8.h **** 			{
 3733               		.loc 2 417 23 is_stmt 1 view .LVU1038
 3734               	.LBB449:
 419:../../tmk_core/protocol/lufa/lufa-abcminiuser/LUFA/Drivers/USB/Core/AVR8/../AVR8/../AVR8/Endpoint_AVR8.h **** 			}
 3735               		.loc 2 419 5 view .LVU1039
 419:../../tmk_core/protocol/lufa/lufa-abcminiuser/LUFA/Drivers/USB/Core/AVR8/../AVR8/../AVR8/Endpoint_AVR8.h **** 			}
 3736               		.loc 2 419 14 is_stmt 0 view .LVU1040
 3737 0032 8091 E800 		lds r24,232
 3738               	.LBE449:
 3739               	.LBE448:
  74:../../tmk_core/protocol/lufa/lufa-abcminiuser/LUFA/Drivers/USB/Core/AVR8/Template/Template_Endpoint_Control_W.c **** 	{
 3740               		.loc 4 74 8 view .LVU1041
 3741 0036 82FF      		sbrs r24,2
 3742 0038 00C0      		rjmp .L276
  86:../../tmk_core/protocol/lufa/lufa-abcminiuser/LUFA/Drivers/USB/Core/AVR8/Template/Template_Endpoint_Control_W.c **** }
 3743               		.loc 4 86 9 view .LVU1042
 3744 003a 80E0      		ldi r24,0
 3745 003c 0895      		ret
 3746               	.LVL316:
 3747               	.L277:
  86:../../tmk_core/protocol/lufa/lufa-abcminiuser/LUFA/Drivers/USB/Core/AVR8/Template/Template_Endpoint_Control_W.c **** }
 3748               		.loc 4 86 9 view .LVU1043
 3749 003e B901      		movw r22,r18
 3750               	.LVL317:
  86:../../tmk_core/protocol/lufa/lufa-abcminiuser/LUFA/Drivers/USB/Core/AVR8/Template/Template_Endpoint_Control_W.c **** }
 3751               		.loc 4 86 9 view .LVU1044
 3752 0040 00C0      		rjmp .L266
 3753               	.LVL318:
 3754               	.L275:
 3755               	.LBB450:
  46:../../tmk_core/protocol/lufa/lufa-abcminiuser/LUFA/Drivers/USB/Core/AVR8/Template/Template_Endpoint_Control_W.c **** 
 3756               		.loc 4 46 3 is_stmt 1 view .LVU1045
  46:../../tmk_core/protocol/lufa/lufa-abcminiuser/LUFA/Drivers/USB/Core/AVR8/Template/Template_Endpoint_Control_W.c **** 
 3757               		.loc 4 46 11 is_stmt 0 view .LVU1046
 3758 0042 2091 0000 		lds r18,USB_DeviceState
 3759               	.LVL319:
  48:../../tmk_core/protocol/lufa/lufa-abcminiuser/LUFA/Drivers/USB/Core/AVR8/Template/Template_Endpoint_Control_W.c **** 		  return ENDPOINT_RWCSTREAM_DeviceDisconnected;
 3760               		.loc 4 48 3 is_stmt 1 view .LVU1047
  48:../../tmk_core/protocol/lufa/lufa-abcminiuser/LUFA/Drivers/USB/Core/AVR8/Template/Template_Endpoint_Control_W.c **** 		  return ENDPOINT_RWCSTREAM_DeviceDisconnected;
 3761               		.loc 4 48 6 is_stmt 0 view .LVU1048
 3762 0046 2223      		tst r18
 3763 0048 01F0      		breq .L281
  50:../../tmk_core/protocol/lufa/lufa-abcminiuser/LUFA/Drivers/USB/Core/AVR8/Template/Template_Endpoint_Control_W.c **** 		  return ENDPOINT_RWCSTREAM_BusSuspended;
 3764               		.loc 4 50 8 is_stmt 1 view .LVU1049
  50:../../tmk_core/protocol/lufa/lufa-abcminiuser/LUFA/Drivers/USB/Core/AVR8/Template/Template_Endpoint_Control_W.c **** 		  return ENDPOINT_RWCSTREAM_BusSuspended;
 3765               		.loc 4 50 11 is_stmt 0 view .LVU1050
 3766 004a 2530      		cpi r18,lo8(5)
 3767 004c 01F0      		breq .L282
  52:../../tmk_core/protocol/lufa/lufa-abcminiuser/LUFA/Drivers/USB/Core/AVR8/Template/Template_Endpoint_Control_W.c **** 		  return ENDPOINT_RWCSTREAM_HostAborted;
 3768               		.loc 4 52 8 is_stmt 1 view .LVU1051
 3769               	.LBB451:
 3770               	.LBI451:
 429:../../tmk_core/protocol/lufa/lufa-abcminiuser/LUFA/Drivers/USB/Core/AVR8/../AVR8/../AVR8/Endpoint_AVR8.h **** 			{
 3771               		.loc 2 429 23 view .LVU1052
 3772               	.LBB452:
 431:../../tmk_core/protocol/lufa/lufa-abcminiuser/LUFA/Drivers/USB/Core/AVR8/../AVR8/../AVR8/Endpoint_AVR8.h **** 			}
 3773               		.loc 2 431 5 view .LVU1053
 431:../../tmk_core/protocol/lufa/lufa-abcminiuser/LUFA/Drivers/USB/Core/AVR8/../AVR8/../AVR8/Endpoint_AVR8.h **** 			}
 3774               		.loc 2 431 14 is_stmt 0 view .LVU1054
 3775 004e 2091 E800 		lds r18,232
 3776               	.LVL320:
 431:../../tmk_core/protocol/lufa/lufa-abcminiuser/LUFA/Drivers/USB/Core/AVR8/../AVR8/../AVR8/Endpoint_AVR8.h **** 			}
 3777               		.loc 2 431 14 view .LVU1055
 3778               	.LBE452:
 3779               	.LBE451:
  52:../../tmk_core/protocol/lufa/lufa-abcminiuser/LUFA/Drivers/USB/Core/AVR8/Template/Template_Endpoint_Control_W.c **** 		  return ENDPOINT_RWCSTREAM_HostAborted;
 3780               		.loc 4 52 11 view .LVU1056
 3781 0052 23FD      		sbrc r18,3
 3782 0054 00C0      		rjmp .L283
  54:../../tmk_core/protocol/lufa/lufa-abcminiuser/LUFA/Drivers/USB/Core/AVR8/Template/Template_Endpoint_Control_W.c **** 		  break;
 3783               		.loc 4 54 8 is_stmt 1 view .LVU1057
 3784               	.LBB453:
 3785               	.LBI453:
 417:../../tmk_core/protocol/lufa/lufa-abcminiuser/LUFA/Drivers/USB/Core/AVR8/../AVR8/../AVR8/Endpoint_AVR8.h **** 			{
 3786               		.loc 2 417 23 view .LVU1058
 3787               	.LBB454:
 419:../../tmk_core/protocol/lufa/lufa-abcminiuser/LUFA/Drivers/USB/Core/AVR8/../AVR8/../AVR8/Endpoint_AVR8.h **** 			}
 3788               		.loc 2 419 5 view .LVU1059
 419:../../tmk_core/protocol/lufa/lufa-abcminiuser/LUFA/Drivers/USB/Core/AVR8/../AVR8/../AVR8/Endpoint_AVR8.h **** 			}
 3789               		.loc 2 419 14 is_stmt 0 view .LVU1060
 3790 0056 2091 E800 		lds r18,232
 3791               	.LBE454:
 3792               	.LBE453:
  54:../../tmk_core/protocol/lufa/lufa-abcminiuser/LUFA/Drivers/USB/Core/AVR8/Template/Template_Endpoint_Control_W.c **** 		  break;
 3793               		.loc 4 54 11 view .LVU1061
 3794 005a 22FD      		sbrc r18,2
 3795 005c 00C0      		rjmp .L289
  57:../../tmk_core/protocol/lufa/lufa-abcminiuser/LUFA/Drivers/USB/Core/AVR8/Template/Template_Endpoint_Control_W.c **** 		{
 3796               		.loc 4 57 3 is_stmt 1 view .LVU1062
 3797               	.LBB455:
 3798               	.LBI455:
 405:../../tmk_core/protocol/lufa/lufa-abcminiuser/LUFA/Drivers/USB/Core/AVR8/../AVR8/../AVR8/Endpoint_AVR8.h **** 			{
 3799               		.loc 2 405 23 view .LVU1063
 3800               	.LBB456:
 407:../../tmk_core/protocol/lufa/lufa-abcminiuser/LUFA/Drivers/USB/Core/AVR8/../AVR8/../AVR8/Endpoint_AVR8.h **** 			}
 3801               		.loc 2 407 5 view .LVU1064
 407:../../tmk_core/protocol/lufa/lufa-abcminiuser/LUFA/Drivers/USB/Core/AVR8/../AVR8/../AVR8/Endpoint_AVR8.h **** 			}
 3802               		.loc 2 407 14 is_stmt 0 view .LVU1065
 3803 005e 2091 E800 		lds r18,232
 3804               	.LBE456:
 3805               	.LBE455:
  57:../../tmk_core/protocol/lufa/lufa-abcminiuser/LUFA/Drivers/USB/Core/AVR8/Template/Template_Endpoint_Control_W.c **** 		{
 3806               		.loc 4 57 6 view .LVU1066
 3807 0062 20FF      		sbrs r18,0
 3808 0064 00C0      		rjmp .L270
 3809               	.LBB457:
  59:../../tmk_core/protocol/lufa/lufa-abcminiuser/LUFA/Drivers/USB/Core/AVR8/Template/Template_Endpoint_Control_W.c **** 
 3810               		.loc 4 59 4 is_stmt 1 view .LVU1067
 3811               	.LBB458:
 3812               	.LBI458:
 222:../../tmk_core/protocol/lufa/lufa-abcminiuser/LUFA/Drivers/USB/Core/AVR8/../AVR8/../AVR8/Endpoint_AVR8.h **** 			{
 3813               		.loc 2 222 27 view .LVU1068
 3814               	.LBB459:
 227:../../tmk_core/protocol/lufa/lufa-abcminiuser/LUFA/Drivers/USB/Core/AVR8/../AVR8/../AVR8/Endpoint_AVR8.h **** 				#elif defined(USB_SERIES_2_AVR)
 3815               		.loc 2 227 6 view .LVU1069
 227:../../tmk_core/protocol/lufa/lufa-abcminiuser/LUFA/Drivers/USB/Core/AVR8/../AVR8/../AVR8/Endpoint_AVR8.h **** 				#elif defined(USB_SERIES_2_AVR)
 3816               		.loc 2 227 25 is_stmt 0 view .LVU1070
 3817 0066 3091 F300 		lds r19,243
 227:../../tmk_core/protocol/lufa/lufa-abcminiuser/LUFA/Drivers/USB/Core/AVR8/../AVR8/../AVR8/Endpoint_AVR8.h **** 				#elif defined(USB_SERIES_2_AVR)
 3818               		.loc 2 227 40 view .LVU1071
 3819 006a 2091 F200 		lds r18,242
 3820               	.LVL321:
 227:../../tmk_core/protocol/lufa/lufa-abcminiuser/LUFA/Drivers/USB/Core/AVR8/../AVR8/../AVR8/Endpoint_AVR8.h **** 				#elif defined(USB_SERIES_2_AVR)
 3821               		.loc 2 227 40 view .LVU1072
 3822               	.LBE459:
 3823               	.LBE458:
  61:../../tmk_core/protocol/lufa/lufa-abcminiuser/LUFA/Drivers/USB/Core/AVR8/Template/Template_Endpoint_Control_W.c **** 			{
 3824               		.loc 4 61 4 is_stmt 1 view .LVU1073
 3825               	.L271:
  61:../../tmk_core/protocol/lufa/lufa-abcminiuser/LUFA/Drivers/USB/Core/AVR8/Template/Template_Endpoint_Control_W.c **** 			{
 3826               		.loc 4 61 10 is_stmt 0 view .LVU1074
 3827 006e 6115      		cp r22,__zero_reg__
 3828 0070 7105      		cpc r23,__zero_reg__
 3829 0072 01F0      		breq .L272
  61:../../tmk_core/protocol/lufa/lufa-abcminiuser/LUFA/Drivers/USB/Core/AVR8/Template/Template_Endpoint_Control_W.c **** 			{
 3830               		.loc 4 61 18 discriminator 1 view .LVU1075
 3831 0074 2830      		cpi r18,8
 3832 0076 3105      		cpc r19,__zero_reg__
 3833 0078 00F0      		brlo .L273
 3834               	.L272:
  69:../../tmk_core/protocol/lufa/lufa-abcminiuser/LUFA/Drivers/USB/Core/AVR8/Template/Template_Endpoint_Control_W.c **** 			Endpoint_ClearIN();
 3835               		.loc 4 69 4 is_stmt 1 view .LVU1076
  69:../../tmk_core/protocol/lufa/lufa-abcminiuser/LUFA/Drivers/USB/Core/AVR8/Template/Template_Endpoint_Control_W.c **** 			Endpoint_ClearIN();
 3836               		.loc 4 69 19 is_stmt 0 view .LVU1077
 3837 007a 41E0      		ldi r20,lo8(1)
 3838 007c 2830      		cpi r18,8
 3839 007e 3105      		cpc r19,__zero_reg__
 3840 0080 01F0      		breq .L274
 3841 0082 40E0      		ldi r20,0
 3842               	.L274:
 3843               	.LVL322:
  70:../../tmk_core/protocol/lufa/lufa-abcminiuser/LUFA/Drivers/USB/Core/AVR8/Template/Template_Endpoint_Control_W.c **** 		}
 3844               		.loc 4 70 4 is_stmt 1 view .LVU1078
 3845               	.LBB460:
 3846               	.LBI460:
 453:../../tmk_core/protocol/lufa/lufa-abcminiuser/LUFA/Drivers/USB/Core/AVR8/../AVR8/../AVR8/Endpoint_AVR8.h **** 			{
 3847               		.loc 2 453 23 view .LVU1079
 3848               	.LBB461:
 456:../../tmk_core/protocol/lufa/lufa-abcminiuser/LUFA/Drivers/USB/Core/AVR8/../AVR8/../AVR8/Endpoint_AVR8.h **** 				#else
 3849               		.loc 2 456 6 view .LVU1080
 456:../../tmk_core/protocol/lufa/lufa-abcminiuser/LUFA/Drivers/USB/Core/AVR8/../AVR8/../AVR8/Endpoint_AVR8.h **** 				#else
 3850               		.loc 2 456 13 is_stmt 0 view .LVU1081
 3851 0084 2091 E800 		lds r18,232
 3852               	.LVL323:
 456:../../tmk_core/protocol/lufa/lufa-abcminiuser/LUFA/Drivers/USB/Core/AVR8/../AVR8/../AVR8/Endpoint_AVR8.h **** 				#else
 3853               		.loc 2 456 13 view .LVU1082
 3854 0088 2E77      		andi r18,lo8(126)
 3855 008a 2093 E800 		sts 232,r18
 3856 008e 00C0      		rjmp .L270
 3857               	.LVL324:
 3858               	.L273:
 456:../../tmk_core/protocol/lufa/lufa-abcminiuser/LUFA/Drivers/USB/Core/AVR8/../AVR8/../AVR8/Endpoint_AVR8.h **** 				#else
 3859               		.loc 2 456 13 view .LVU1083
 3860               	.LBE461:
 3861               	.LBE460:
  63:../../tmk_core/protocol/lufa/lufa-abcminiuser/LUFA/Drivers/USB/Core/AVR8/Template/Template_Endpoint_Control_W.c **** 				TEMPLATE_BUFFER_MOVE(DataStream, 1);
 3862               		.loc 4 63 5 is_stmt 1 view .LVU1084
 3863               	.LBB462:
  63:../../tmk_core/protocol/lufa/lufa-abcminiuser/LUFA/Drivers/USB/Core/AVR8/Template/Template_Endpoint_Control_W.c **** 				TEMPLATE_BUFFER_MOVE(DataStream, 1);
 3864               		.loc 4 63 5 view .LVU1085
  63:../../tmk_core/protocol/lufa/lufa-abcminiuser/LUFA/Drivers/USB/Core/AVR8/Template/Template_Endpoint_Control_W.c **** 				TEMPLATE_BUFFER_MOVE(DataStream, 1);
 3865               		.loc 4 63 5 view .LVU1086
  63:../../tmk_core/protocol/lufa/lufa-abcminiuser/LUFA/Drivers/USB/Core/AVR8/Template/Template_Endpoint_Control_W.c **** 				TEMPLATE_BUFFER_MOVE(DataStream, 1);
 3866               		.loc 4 63 5 view .LVU1087
 3867               	/* #APP */
 3868               	 ;  63 "../../tmk_core/protocol/lufa/lufa-abcminiuser/LUFA/Drivers/USB/Core/AVR8/Template/Template_
 3869 0090 4491      		lpm r20, Z
 3870               		
 3871               	 ;  0 "" 2
 3872               	.LVL325:
  63:../../tmk_core/protocol/lufa/lufa-abcminiuser/LUFA/Drivers/USB/Core/AVR8/Template/Template_Endpoint_Control_W.c **** 				TEMPLATE_BUFFER_MOVE(DataStream, 1);
 3873               		.loc 4 63 5 view .LVU1088
  63:../../tmk_core/protocol/lufa/lufa-abcminiuser/LUFA/Drivers/USB/Core/AVR8/Template/Template_Endpoint_Control_W.c **** 				TEMPLATE_BUFFER_MOVE(DataStream, 1);
 3874               		.loc 4 63 5 is_stmt 0 view .LVU1089
 3875               	/* #NOAPP */
 3876               	.LBE462:
 3877               	.LBB463:
 3878               	.LBI463:
 552:../../tmk_core/protocol/lufa/lufa-abcminiuser/LUFA/Drivers/USB/Core/AVR8/../AVR8/../AVR8/Endpoint_AVR8.h **** 			{
 3879               		.loc 2 552 23 is_stmt 1 view .LVU1090
 3880               	.LBB464:
 554:../../tmk_core/protocol/lufa/lufa-abcminiuser/LUFA/Drivers/USB/Core/AVR8/../AVR8/../AVR8/Endpoint_AVR8.h **** 			}
 3881               		.loc 2 554 5 view .LVU1091
 554:../../tmk_core/protocol/lufa/lufa-abcminiuser/LUFA/Drivers/USB/Core/AVR8/../AVR8/../AVR8/Endpoint_AVR8.h **** 			}
 3882               		.loc 2 554 12 is_stmt 0 view .LVU1092
 3883 0092 4093 F100 		sts 241,r20
 3884               	.LVL326:
 554:../../tmk_core/protocol/lufa/lufa-abcminiuser/LUFA/Drivers/USB/Core/AVR8/../AVR8/../AVR8/Endpoint_AVR8.h **** 			}
 3885               		.loc 2 554 12 view .LVU1093
 3886               	.LBE464:
 3887               	.LBE463:
  64:../../tmk_core/protocol/lufa/lufa-abcminiuser/LUFA/Drivers/USB/Core/AVR8/Template/Template_Endpoint_Control_W.c **** 				Length--;
 3888               		.loc 4 64 5 is_stmt 1 view .LVU1094
 3889 0096 3197      		sbiw r30,1
 3890               	.LVL327:
  65:../../tmk_core/protocol/lufa/lufa-abcminiuser/LUFA/Drivers/USB/Core/AVR8/Template/Template_Endpoint_Control_W.c **** 				BytesInEndpoint++;
 3891               		.loc 4 65 5 view .LVU1095
  65:../../tmk_core/protocol/lufa/lufa-abcminiuser/LUFA/Drivers/USB/Core/AVR8/Template/Template_Endpoint_Control_W.c **** 				BytesInEndpoint++;
 3892               		.loc 4 65 11 is_stmt 0 view .LVU1096
 3893 0098 6150      		subi r22,1
 3894 009a 7109      		sbc r23,__zero_reg__
 3895               	.LVL328:
  66:../../tmk_core/protocol/lufa/lufa-abcminiuser/LUFA/Drivers/USB/Core/AVR8/Template/Template_Endpoint_Control_W.c **** 			}
 3896               		.loc 4 66 5 is_stmt 1 view .LVU1097
  66:../../tmk_core/protocol/lufa/lufa-abcminiuser/LUFA/Drivers/USB/Core/AVR8/Template/Template_Endpoint_Control_W.c **** 			}
 3897               		.loc 4 66 20 is_stmt 0 view .LVU1098
 3898 009c 2F5F      		subi r18,-1
 3899 009e 3F4F      		sbci r19,-1
 3900               	.LVL329:
  66:../../tmk_core/protocol/lufa/lufa-abcminiuser/LUFA/Drivers/USB/Core/AVR8/Template/Template_Endpoint_Control_W.c **** 			}
 3901               		.loc 4 66 20 view .LVU1099
 3902 00a0 00C0      		rjmp .L271
 3903               	.LVL330:
 3904               	.L276:
  66:../../tmk_core/protocol/lufa/lufa-abcminiuser/LUFA/Drivers/USB/Core/AVR8/Template/Template_Endpoint_Control_W.c **** 			}
 3905               		.loc 4 66 20 view .LVU1100
 3906               	.LBE457:
 3907               	.LBE450:
 3908               	.LBB465:
  76:../../tmk_core/protocol/lufa/lufa-abcminiuser/LUFA/Drivers/USB/Core/AVR8/Template/Template_Endpoint_Control_W.c **** 
 3909               		.loc 4 76 3 is_stmt 1 view .LVU1101
  76:../../tmk_core/protocol/lufa/lufa-abcminiuser/LUFA/Drivers/USB/Core/AVR8/Template/Template_Endpoint_Control_W.c **** 
 3910               		.loc 4 76 11 is_stmt 0 view .LVU1102
 3911 00a2 8091 0000 		lds r24,USB_DeviceState
 3912               	.LVL331:
  78:../../tmk_core/protocol/lufa/lufa-abcminiuser/LUFA/Drivers/USB/Core/AVR8/Template/Template_Endpoint_Control_W.c **** 		  return ENDPOINT_RWCSTREAM_DeviceDisconnected;
 3913               		.loc 4 78 3 is_stmt 1 view .LVU1103
  78:../../tmk_core/protocol/lufa/lufa-abcminiuser/LUFA/Drivers/USB/Core/AVR8/Template/Template_Endpoint_Control_W.c **** 		  return ENDPOINT_RWCSTREAM_DeviceDisconnected;
 3914               		.loc 4 78 6 is_stmt 0 view .LVU1104
 3915 00a6 8823      		tst r24
 3916 00a8 01F0      		breq .L281
  80:../../tmk_core/protocol/lufa/lufa-abcminiuser/LUFA/Drivers/USB/Core/AVR8/Template/Template_Endpoint_Control_W.c **** 		  return ENDPOINT_RWCSTREAM_BusSuspended;
 3917               		.loc 4 80 8 is_stmt 1 view .LVU1105
  80:../../tmk_core/protocol/lufa/lufa-abcminiuser/LUFA/Drivers/USB/Core/AVR8/Template/Template_Endpoint_Control_W.c **** 		  return ENDPOINT_RWCSTREAM_BusSuspended;
 3918               		.loc 4 80 11 is_stmt 0 view .LVU1106
 3919 00aa 8530      		cpi r24,lo8(5)
 3920 00ac 01F0      		breq .L282
  82:../../tmk_core/protocol/lufa/lufa-abcminiuser/LUFA/Drivers/USB/Core/AVR8/Template/Template_Endpoint_Control_W.c **** 		  return ENDPOINT_RWCSTREAM_HostAborted;
 3921               		.loc 4 82 8 is_stmt 1 view .LVU1107
 3922               	.LBB466:
 3923               	.LBI466:
 429:../../tmk_core/protocol/lufa/lufa-abcminiuser/LUFA/Drivers/USB/Core/AVR8/../AVR8/../AVR8/Endpoint_AVR8.h **** 			{
 3924               		.loc 2 429 23 view .LVU1108
 3925               	.LBB467:
 431:../../tmk_core/protocol/lufa/lufa-abcminiuser/LUFA/Drivers/USB/Core/AVR8/../AVR8/../AVR8/Endpoint_AVR8.h **** 			}
 3926               		.loc 2 431 5 view .LVU1109
 431:../../tmk_core/protocol/lufa/lufa-abcminiuser/LUFA/Drivers/USB/Core/AVR8/../AVR8/../AVR8/Endpoint_AVR8.h **** 			}
 3927               		.loc 2 431 14 is_stmt 0 view .LVU1110
 3928 00ae 8091 E800 		lds r24,232
 3929               	.LVL332:
 431:../../tmk_core/protocol/lufa/lufa-abcminiuser/LUFA/Drivers/USB/Core/AVR8/../AVR8/../AVR8/Endpoint_AVR8.h **** 			}
 3930               		.loc 2 431 14 view .LVU1111
 3931               	.LBE467:
 3932               	.LBE466:
  82:../../tmk_core/protocol/lufa/lufa-abcminiuser/LUFA/Drivers/USB/Core/AVR8/Template/Template_Endpoint_Control_W.c **** 		  return ENDPOINT_RWCSTREAM_HostAborted;
 3933               		.loc 4 82 11 view .LVU1112
 3934 00b2 83FF      		sbrs r24,3
 3935 00b4 00C0      		rjmp .L289
 3936               	.L283:
  82:../../tmk_core/protocol/lufa/lufa-abcminiuser/LUFA/Drivers/USB/Core/AVR8/Template/Template_Endpoint_Control_W.c **** 		  return ENDPOINT_RWCSTREAM_HostAborted;
 3937               		.loc 4 82 11 view .LVU1113
 3938               	.LBE465:
 3939               	.LBB468:
  53:../../tmk_core/protocol/lufa/lufa-abcminiuser/LUFA/Drivers/USB/Core/AVR8/Template/Template_Endpoint_Control_W.c **** 		else if (Endpoint_IsOUTReceived())
 3940               		.loc 4 53 12 view .LVU1114
 3941 00b6 81E0      		ldi r24,lo8(1)
 3942               	/* epilogue start */
 3943               	.LBE468:
 3944               		.loc 4 87 1 view .LVU1115
 3945 00b8 0895      		ret
 3946               	.L281:
 3947               	.LBB469:
  49:../../tmk_core/protocol/lufa/lufa-abcminiuser/LUFA/Drivers/USB/Core/AVR8/Template/Template_Endpoint_Control_W.c **** 		else if (USB_DeviceState_LCL == DEVICE_STATE_Suspended)
 3948               		.loc 4 49 12 view .LVU1116
 3949 00ba 82E0      		ldi r24,lo8(2)
 3950 00bc 0895      		ret
 3951               	.L282:
  51:../../tmk_core/protocol/lufa/lufa-abcminiuser/LUFA/Drivers/USB/Core/AVR8/Template/Template_Endpoint_Control_W.c **** 		else if (Endpoint_IsSETUPReceived())
 3952               		.loc 4 51 12 view .LVU1117
 3953 00be 83E0      		ldi r24,lo8(3)
 3954 00c0 0895      		ret
 3955               	.LBE469:
 3956               		.cfi_endproc
 3957               	.LFE102:
 3959               		.section	.text.Endpoint_Write_Control_EStream_LE,"ax",@progbits
 3960               	.global	Endpoint_Write_Control_EStream_LE
 3962               	Endpoint_Write_Control_EStream_LE:
 3963               	.LVL333:
 3964               	.LFB103:
  35:../../tmk_core/protocol/lufa/lufa-abcminiuser/LUFA/Drivers/USB/Core/AVR8/Template/Template_Endpoint_Control_W.c **** 	uint8_t* DataStream     = ((uint8_t*)Buffer + TEMPLATE_BUFFER_OFFSET(Length));
 3965               		.loc 4 35 1 is_stmt 1 view -0
 3966               		.cfi_startproc
  35:../../tmk_core/protocol/lufa/lufa-abcminiuser/LUFA/Drivers/USB/Core/AVR8/Template/Template_Endpoint_Control_W.c **** 	uint8_t* DataStream     = ((uint8_t*)Buffer + TEMPLATE_BUFFER_OFFSET(Length));
 3967               		.loc 4 35 1 is_stmt 0 view .LVU1119
 3968 0000 EF92      		push r14
 3969               	.LCFI104:
 3970               		.cfi_def_cfa_offset 3
 3971               		.cfi_offset 14, -2
 3972 0002 FF92      		push r15
 3973               	.LCFI105:
 3974               		.cfi_def_cfa_offset 4
 3975               		.cfi_offset 15, -3
 3976 0004 0F93      		push r16
 3977               	.LCFI106:
 3978               		.cfi_def_cfa_offset 5
 3979               		.cfi_offset 16, -4
 3980 0006 1F93      		push r17
 3981               	.LCFI107:
 3982               		.cfi_def_cfa_offset 6
 3983               		.cfi_offset 17, -5
 3984 0008 CF93      		push r28
 3985               	.LCFI108:
 3986               		.cfi_def_cfa_offset 7
 3987               		.cfi_offset 28, -6
 3988 000a DF93      		push r29
 3989               	.LCFI109:
 3990               		.cfi_def_cfa_offset 8
 3991               		.cfi_offset 29, -7
 3992               	/* prologue: function */
 3993               	/* frame size = 0 */
 3994               	/* stack size = 6 */
 3995               	.L__stack_usage = 6
 3996 000c 7C01      		movw r14,r24
 3997 000e EB01      		movw r28,r22
  36:../../tmk_core/protocol/lufa/lufa-abcminiuser/LUFA/Drivers/USB/Core/AVR8/Template/Template_Endpoint_Control_W.c **** 	bool     LastPacketFull = false;
 3998               		.loc 4 36 2 is_stmt 1 view .LVU1120
 3999               	.LVL334:
  37:../../tmk_core/protocol/lufa/lufa-abcminiuser/LUFA/Drivers/USB/Core/AVR8/Template/Template_Endpoint_Control_W.c **** 
 4000               		.loc 4 37 2 view .LVU1121
  39:../../tmk_core/protocol/lufa/lufa-abcminiuser/LUFA/Drivers/USB/Core/AVR8/Template/Template_Endpoint_Control_W.c **** 	  Length = USB_ControlRequest.wLength;
 4001               		.loc 4 39 2 view .LVU1122
  39:../../tmk_core/protocol/lufa/lufa-abcminiuser/LUFA/Drivers/USB/Core/AVR8/Template/Template_Endpoint_Control_W.c **** 	  Length = USB_ControlRequest.wLength;
 4002               		.loc 4 39 33 is_stmt 0 view .LVU1123
 4003 0010 8091 0000 		lds r24,USB_ControlRequest+6
 4004 0014 9091 0000 		lds r25,USB_ControlRequest+6+1
 4005               	.LVL335:
  39:../../tmk_core/protocol/lufa/lufa-abcminiuser/LUFA/Drivers/USB/Core/AVR8/Template/Template_Endpoint_Control_W.c **** 	  Length = USB_ControlRequest.wLength;
 4006               		.loc 4 39 5 view .LVU1124
 4007 0018 8617      		cp r24,r22
 4008 001a 9707      		cpc r25,r23
 4009 001c 00F0      		brlo .L305
  41:../../tmk_core/protocol/lufa/lufa-abcminiuser/LUFA/Drivers/USB/Core/AVR8/Template/Template_Endpoint_Control_W.c **** 	  Endpoint_ClearIN();
 4010               		.loc 4 41 7 is_stmt 1 view .LVU1125
  41:../../tmk_core/protocol/lufa/lufa-abcminiuser/LUFA/Drivers/USB/Core/AVR8/Template/Template_Endpoint_Control_W.c **** 	  Endpoint_ClearIN();
 4011               		.loc 4 41 10 is_stmt 0 view .LVU1126
 4012 001e 2097      		sbiw r28,0
 4013 0020 01F4      		brne .L294
  42:../../tmk_core/protocol/lufa/lufa-abcminiuser/LUFA/Drivers/USB/Core/AVR8/Template/Template_Endpoint_Control_W.c **** 
 4014               		.loc 4 42 4 is_stmt 1 view .LVU1127
 4015               	.LBB470:
 4016               	.LBI470:
 453:../../tmk_core/protocol/lufa/lufa-abcminiuser/LUFA/Drivers/USB/Core/AVR8/../AVR8/../AVR8/Endpoint_AVR8.h **** 			{
 4017               		.loc 2 453 23 view .LVU1128
 4018               	.LBB471:
 456:../../tmk_core/protocol/lufa/lufa-abcminiuser/LUFA/Drivers/USB/Core/AVR8/../AVR8/../AVR8/Endpoint_AVR8.h **** 				#else
 4019               		.loc 2 456 6 view .LVU1129
 456:../../tmk_core/protocol/lufa/lufa-abcminiuser/LUFA/Drivers/USB/Core/AVR8/../AVR8/../AVR8/Endpoint_AVR8.h **** 				#else
 4020               		.loc 2 456 13 is_stmt 0 view .LVU1130
 4021 0022 8091 E800 		lds r24,232
 4022 0026 8E77      		andi r24,lo8(126)
 4023 0028 8093 E800 		sts 232,r24
 4024               	.L294:
 456:../../tmk_core/protocol/lufa/lufa-abcminiuser/LUFA/Drivers/USB/Core/AVR8/../AVR8/../AVR8/Endpoint_AVR8.h **** 				#else
 4025               		.loc 2 456 13 view .LVU1131
 4026               	.LBE471:
 4027               	.LBE470:
 4028 002c 80E0      		ldi r24,0
 4029               	.LVL336:
 4030               	.L298:
  44:../../tmk_core/protocol/lufa/lufa-abcminiuser/LUFA/Drivers/USB/Core/AVR8/Template/Template_Endpoint_Control_W.c **** 	{
 4031               		.loc 4 44 8 view .LVU1132
 4032 002e 2097      		sbiw r28,0
 4033 0030 01F4      		brne .L303
  44:../../tmk_core/protocol/lufa/lufa-abcminiuser/LUFA/Drivers/USB/Core/AVR8/Template/Template_Endpoint_Control_W.c **** 	{
 4034               		.loc 4 44 16 discriminator 1 view .LVU1133
 4035 0032 8111      		cpse r24,__zero_reg__
 4036 0034 00C0      		rjmp .L303
 4037               	.LVL337:
 4038               	.L317:
 4039               	.LBB472:
 4040               	.LBI472:
 417:../../tmk_core/protocol/lufa/lufa-abcminiuser/LUFA/Drivers/USB/Core/AVR8/../AVR8/../AVR8/Endpoint_AVR8.h **** 			{
 4041               		.loc 2 417 23 is_stmt 1 view .LVU1134
 4042               	.LBB473:
 419:../../tmk_core/protocol/lufa/lufa-abcminiuser/LUFA/Drivers/USB/Core/AVR8/../AVR8/../AVR8/Endpoint_AVR8.h **** 			}
 4043               		.loc 2 419 5 view .LVU1135
 419:../../tmk_core/protocol/lufa/lufa-abcminiuser/LUFA/Drivers/USB/Core/AVR8/../AVR8/../AVR8/Endpoint_AVR8.h **** 			}
 4044               		.loc 2 419 14 is_stmt 0 view .LVU1136
 4045 0036 8091 E800 		lds r24,232
 4046               	.LBE473:
 4047               	.LBE472:
  74:../../tmk_core/protocol/lufa/lufa-abcminiuser/LUFA/Drivers/USB/Core/AVR8/Template/Template_Endpoint_Control_W.c **** 	{
 4048               		.loc 4 74 8 view .LVU1137
 4049 003a 82FF      		sbrs r24,2
 4050 003c 00C0      		rjmp .L304
  86:../../tmk_core/protocol/lufa/lufa-abcminiuser/LUFA/Drivers/USB/Core/AVR8/Template/Template_Endpoint_Control_W.c **** }
 4051               		.loc 4 86 9 view .LVU1138
 4052 003e 80E0      		ldi r24,0
 4053               	.L293:
 4054               	/* epilogue start */
 4055               		.loc 4 87 1 view .LVU1139
 4056 0040 DF91      		pop r29
 4057 0042 CF91      		pop r28
 4058               	.LVL338:
 4059               		.loc 4 87 1 view .LVU1140
 4060 0044 1F91      		pop r17
 4061 0046 0F91      		pop r16
 4062 0048 FF90      		pop r15
 4063 004a EF90      		pop r14
 4064               	.LVL339:
 4065               		.loc 4 87 1 view .LVU1141
 4066 004c 0895      		ret
 4067               	.LVL340:
 4068               	.L305:
 4069               		.loc 4 87 1 view .LVU1142
 4070 004e EC01      		movw r28,r24
 4071 0050 00C0      		rjmp .L294
 4072               	.LVL341:
 4073               	.L303:
 4074               	.LBB474:
  46:../../tmk_core/protocol/lufa/lufa-abcminiuser/LUFA/Drivers/USB/Core/AVR8/Template/Template_Endpoint_Control_W.c **** 
 4075               		.loc 4 46 3 is_stmt 1 view .LVU1143
  46:../../tmk_core/protocol/lufa/lufa-abcminiuser/LUFA/Drivers/USB/Core/AVR8/Template/Template_Endpoint_Control_W.c **** 
 4076               		.loc 4 46 11 is_stmt 0 view .LVU1144
 4077 0052 9091 0000 		lds r25,USB_DeviceState
 4078               	.LVL342:
  48:../../tmk_core/protocol/lufa/lufa-abcminiuser/LUFA/Drivers/USB/Core/AVR8/Template/Template_Endpoint_Control_W.c **** 		  return ENDPOINT_RWCSTREAM_DeviceDisconnected;
 4079               		.loc 4 48 3 is_stmt 1 view .LVU1145
  48:../../tmk_core/protocol/lufa/lufa-abcminiuser/LUFA/Drivers/USB/Core/AVR8/Template/Template_Endpoint_Control_W.c **** 		  return ENDPOINT_RWCSTREAM_DeviceDisconnected;
 4080               		.loc 4 48 6 is_stmt 0 view .LVU1146
 4081 0056 9923      		tst r25
 4082 0058 01F0      		breq .L309
  50:../../tmk_core/protocol/lufa/lufa-abcminiuser/LUFA/Drivers/USB/Core/AVR8/Template/Template_Endpoint_Control_W.c **** 		  return ENDPOINT_RWCSTREAM_BusSuspended;
 4083               		.loc 4 50 8 is_stmt 1 view .LVU1147
  50:../../tmk_core/protocol/lufa/lufa-abcminiuser/LUFA/Drivers/USB/Core/AVR8/Template/Template_Endpoint_Control_W.c **** 		  return ENDPOINT_RWCSTREAM_BusSuspended;
 4084               		.loc 4 50 11 is_stmt 0 view .LVU1148
 4085 005a 9530      		cpi r25,lo8(5)
 4086 005c 01F0      		breq .L310
  52:../../tmk_core/protocol/lufa/lufa-abcminiuser/LUFA/Drivers/USB/Core/AVR8/Template/Template_Endpoint_Control_W.c **** 		  return ENDPOINT_RWCSTREAM_HostAborted;
 4087               		.loc 4 52 8 is_stmt 1 view .LVU1149
 4088               	.LBB475:
 4089               	.LBI475:
 429:../../tmk_core/protocol/lufa/lufa-abcminiuser/LUFA/Drivers/USB/Core/AVR8/../AVR8/../AVR8/Endpoint_AVR8.h **** 			{
 4090               		.loc 2 429 23 view .LVU1150
 4091               	.LBB476:
 431:../../tmk_core/protocol/lufa/lufa-abcminiuser/LUFA/Drivers/USB/Core/AVR8/../AVR8/../AVR8/Endpoint_AVR8.h **** 			}
 4092               		.loc 2 431 5 view .LVU1151
 431:../../tmk_core/protocol/lufa/lufa-abcminiuser/LUFA/Drivers/USB/Core/AVR8/../AVR8/../AVR8/Endpoint_AVR8.h **** 			}
 4093               		.loc 2 431 14 is_stmt 0 view .LVU1152
 4094 005e 9091 E800 		lds r25,232
 4095               	.LVL343:
 431:../../tmk_core/protocol/lufa/lufa-abcminiuser/LUFA/Drivers/USB/Core/AVR8/../AVR8/../AVR8/Endpoint_AVR8.h **** 			}
 4096               		.loc 2 431 14 view .LVU1153
 4097               	.LBE476:
 4098               	.LBE475:
  52:../../tmk_core/protocol/lufa/lufa-abcminiuser/LUFA/Drivers/USB/Core/AVR8/Template/Template_Endpoint_Control_W.c **** 		  return ENDPOINT_RWCSTREAM_HostAborted;
 4099               		.loc 4 52 11 view .LVU1154
 4100 0062 93FD      		sbrc r25,3
 4101 0064 00C0      		rjmp .L311
  54:../../tmk_core/protocol/lufa/lufa-abcminiuser/LUFA/Drivers/USB/Core/AVR8/Template/Template_Endpoint_Control_W.c **** 		  break;
 4102               		.loc 4 54 8 is_stmt 1 view .LVU1155
 4103               	.LBB477:
 4104               	.LBI477:
 417:../../tmk_core/protocol/lufa/lufa-abcminiuser/LUFA/Drivers/USB/Core/AVR8/../AVR8/../AVR8/Endpoint_AVR8.h **** 			{
 4105               		.loc 2 417 23 view .LVU1156
 4106               	.LBB478:
 419:../../tmk_core/protocol/lufa/lufa-abcminiuser/LUFA/Drivers/USB/Core/AVR8/../AVR8/../AVR8/Endpoint_AVR8.h **** 			}
 4107               		.loc 2 419 5 view .LVU1157
 419:../../tmk_core/protocol/lufa/lufa-abcminiuser/LUFA/Drivers/USB/Core/AVR8/../AVR8/../AVR8/Endpoint_AVR8.h **** 			}
 4108               		.loc 2 419 14 is_stmt 0 view .LVU1158
 4109 0066 9091 E800 		lds r25,232
 4110               	.LBE478:
 4111               	.LBE477:
  54:../../tmk_core/protocol/lufa/lufa-abcminiuser/LUFA/Drivers/USB/Core/AVR8/Template/Template_Endpoint_Control_W.c **** 		  break;
 4112               		.loc 4 54 11 view .LVU1159
 4113 006a 92FD      		sbrc r25,2
 4114 006c 00C0      		rjmp .L317
  57:../../tmk_core/protocol/lufa/lufa-abcminiuser/LUFA/Drivers/USB/Core/AVR8/Template/Template_Endpoint_Control_W.c **** 		{
 4115               		.loc 4 57 3 is_stmt 1 view .LVU1160
 4116               	.LBB479:
 4117               	.LBI479:
 405:../../tmk_core/protocol/lufa/lufa-abcminiuser/LUFA/Drivers/USB/Core/AVR8/../AVR8/../AVR8/Endpoint_AVR8.h **** 			{
 4118               		.loc 2 405 23 view .LVU1161
 4119               	.LBB480:
 407:../../tmk_core/protocol/lufa/lufa-abcminiuser/LUFA/Drivers/USB/Core/AVR8/../AVR8/../AVR8/Endpoint_AVR8.h **** 			}
 4120               		.loc 2 407 5 view .LVU1162
 407:../../tmk_core/protocol/lufa/lufa-abcminiuser/LUFA/Drivers/USB/Core/AVR8/../AVR8/../AVR8/Endpoint_AVR8.h **** 			}
 4121               		.loc 2 407 14 is_stmt 0 view .LVU1163
 4122 006e 9091 E800 		lds r25,232
 4123               	.LBE480:
 4124               	.LBE479:
  57:../../tmk_core/protocol/lufa/lufa-abcminiuser/LUFA/Drivers/USB/Core/AVR8/Template/Template_Endpoint_Control_W.c **** 		{
 4125               		.loc 4 57 6 view .LVU1164
 4126 0072 90FF      		sbrs r25,0
 4127 0074 00C0      		rjmp .L298
 4128               	.LBB481:
  59:../../tmk_core/protocol/lufa/lufa-abcminiuser/LUFA/Drivers/USB/Core/AVR8/Template/Template_Endpoint_Control_W.c **** 
 4129               		.loc 4 59 4 is_stmt 1 view .LVU1165
 4130               	.LBB482:
 4131               	.LBI482:
 222:../../tmk_core/protocol/lufa/lufa-abcminiuser/LUFA/Drivers/USB/Core/AVR8/../AVR8/../AVR8/Endpoint_AVR8.h **** 			{
 4132               		.loc 2 222 27 view .LVU1166
 4133               	.LBB483:
 227:../../tmk_core/protocol/lufa/lufa-abcminiuser/LUFA/Drivers/USB/Core/AVR8/../AVR8/../AVR8/Endpoint_AVR8.h **** 				#elif defined(USB_SERIES_2_AVR)
 4134               		.loc 2 227 6 view .LVU1167
 227:../../tmk_core/protocol/lufa/lufa-abcminiuser/LUFA/Drivers/USB/Core/AVR8/../AVR8/../AVR8/Endpoint_AVR8.h **** 				#elif defined(USB_SERIES_2_AVR)
 4135               		.loc 2 227 25 is_stmt 0 view .LVU1168
 4136 0076 8091 F300 		lds r24,243
 4137               	.LVL344:
 227:../../tmk_core/protocol/lufa/lufa-abcminiuser/LUFA/Drivers/USB/Core/AVR8/../AVR8/../AVR8/Endpoint_AVR8.h **** 				#elif defined(USB_SERIES_2_AVR)
 4138               		.loc 2 227 40 view .LVU1169
 4139 007a 0091 F200 		lds r16,242
 227:../../tmk_core/protocol/lufa/lufa-abcminiuser/LUFA/Drivers/USB/Core/AVR8/../AVR8/../AVR8/Endpoint_AVR8.h **** 				#elif defined(USB_SERIES_2_AVR)
 4140               		.loc 2 227 38 view .LVU1170
 4141 007e 182F      		mov r17,r24
 4142               	.LVL345:
 227:../../tmk_core/protocol/lufa/lufa-abcminiuser/LUFA/Drivers/USB/Core/AVR8/../AVR8/../AVR8/Endpoint_AVR8.h **** 				#elif defined(USB_SERIES_2_AVR)
 4143               		.loc 2 227 38 view .LVU1171
 4144               	.LBE483:
 4145               	.LBE482:
  61:../../tmk_core/protocol/lufa/lufa-abcminiuser/LUFA/Drivers/USB/Core/AVR8/Template/Template_Endpoint_Control_W.c **** 			{
 4146               		.loc 4 61 4 is_stmt 1 view .LVU1172
 4147               	.L299:
  61:../../tmk_core/protocol/lufa/lufa-abcminiuser/LUFA/Drivers/USB/Core/AVR8/Template/Template_Endpoint_Control_W.c **** 			{
 4148               		.loc 4 61 10 is_stmt 0 view .LVU1173
 4149 0080 2097      		sbiw r28,0
 4150 0082 01F0      		breq .L300
  61:../../tmk_core/protocol/lufa/lufa-abcminiuser/LUFA/Drivers/USB/Core/AVR8/Template/Template_Endpoint_Control_W.c **** 			{
 4151               		.loc 4 61 18 discriminator 1 view .LVU1174
 4152 0084 0830      		cpi r16,8
 4153 0086 1105      		cpc r17,__zero_reg__
 4154 0088 00F0      		brlo .L301
 4155               	.L300:
  69:../../tmk_core/protocol/lufa/lufa-abcminiuser/LUFA/Drivers/USB/Core/AVR8/Template/Template_Endpoint_Control_W.c **** 			Endpoint_ClearIN();
 4156               		.loc 4 69 4 is_stmt 1 view .LVU1175
  69:../../tmk_core/protocol/lufa/lufa-abcminiuser/LUFA/Drivers/USB/Core/AVR8/Template/Template_Endpoint_Control_W.c **** 			Endpoint_ClearIN();
 4157               		.loc 4 69 19 is_stmt 0 view .LVU1176
 4158 008a 81E0      		ldi r24,lo8(1)
 4159 008c 0830      		cpi r16,8
 4160 008e 1105      		cpc r17,__zero_reg__
 4161 0090 01F0      		breq .L302
 4162 0092 80E0      		ldi r24,0
 4163               	.L302:
 4164               	.LVL346:
  70:../../tmk_core/protocol/lufa/lufa-abcminiuser/LUFA/Drivers/USB/Core/AVR8/Template/Template_Endpoint_Control_W.c **** 		}
 4165               		.loc 4 70 4 is_stmt 1 view .LVU1177
 4166               	.LBB484:
 4167               	.LBI484:
 453:../../tmk_core/protocol/lufa/lufa-abcminiuser/LUFA/Drivers/USB/Core/AVR8/../AVR8/../AVR8/Endpoint_AVR8.h **** 			{
 4168               		.loc 2 453 23 view .LVU1178
 4169               	.LBB485:
 456:../../tmk_core/protocol/lufa/lufa-abcminiuser/LUFA/Drivers/USB/Core/AVR8/../AVR8/../AVR8/Endpoint_AVR8.h **** 				#else
 4170               		.loc 2 456 6 view .LVU1179
 456:../../tmk_core/protocol/lufa/lufa-abcminiuser/LUFA/Drivers/USB/Core/AVR8/../AVR8/../AVR8/Endpoint_AVR8.h **** 				#else
 4171               		.loc 2 456 13 is_stmt 0 view .LVU1180
 4172 0094 9091 E800 		lds r25,232
 4173 0098 9E77      		andi r25,lo8(126)
 4174 009a 9093 E800 		sts 232,r25
 4175 009e 00C0      		rjmp .L298
 4176               	.LVL347:
 4177               	.L301:
 456:../../tmk_core/protocol/lufa/lufa-abcminiuser/LUFA/Drivers/USB/Core/AVR8/../AVR8/../AVR8/Endpoint_AVR8.h **** 				#else
 4178               		.loc 2 456 13 view .LVU1181
 4179               	.LBE485:
 4180               	.LBE484:
  63:../../tmk_core/protocol/lufa/lufa-abcminiuser/LUFA/Drivers/USB/Core/AVR8/Template/Template_Endpoint_Control_W.c **** 				TEMPLATE_BUFFER_MOVE(DataStream, 1);
 4181               		.loc 4 63 5 is_stmt 1 view .LVU1182
 4182 00a0 C701      		movw r24,r14
 4183 00a2 0E94 0000 		call eeprom_read_byte
 4184               	.LVL348:
 4185               	.LBB486:
 4186               	.LBI486:
 552:../../tmk_core/protocol/lufa/lufa-abcminiuser/LUFA/Drivers/USB/Core/AVR8/../AVR8/../AVR8/Endpoint_AVR8.h **** 			{
 4187               		.loc 2 552 23 view .LVU1183
 4188               	.LBB487:
 554:../../tmk_core/protocol/lufa/lufa-abcminiuser/LUFA/Drivers/USB/Core/AVR8/../AVR8/../AVR8/Endpoint_AVR8.h **** 			}
 4189               		.loc 2 554 5 view .LVU1184
 554:../../tmk_core/protocol/lufa/lufa-abcminiuser/LUFA/Drivers/USB/Core/AVR8/../AVR8/../AVR8/Endpoint_AVR8.h **** 			}
 4190               		.loc 2 554 12 is_stmt 0 view .LVU1185
 4191 00a6 8093 F100 		sts 241,r24
 4192               	.LVL349:
 554:../../tmk_core/protocol/lufa/lufa-abcminiuser/LUFA/Drivers/USB/Core/AVR8/../AVR8/../AVR8/Endpoint_AVR8.h **** 			}
 4193               		.loc 2 554 12 view .LVU1186
 4194               	.LBE487:
 4195               	.LBE486:
  64:../../tmk_core/protocol/lufa/lufa-abcminiuser/LUFA/Drivers/USB/Core/AVR8/Template/Template_Endpoint_Control_W.c **** 				Length--;
 4196               		.loc 4 64 5 is_stmt 1 view .LVU1187
 4197 00aa 8FEF      		ldi r24,-1
 4198 00ac E81A      		sub r14,r24
 4199 00ae F80A      		sbc r15,r24
 4200               	.LVL350:
  65:../../tmk_core/protocol/lufa/lufa-abcminiuser/LUFA/Drivers/USB/Core/AVR8/Template/Template_Endpoint_Control_W.c **** 				BytesInEndpoint++;
 4201               		.loc 4 65 5 view .LVU1188
  65:../../tmk_core/protocol/lufa/lufa-abcminiuser/LUFA/Drivers/USB/Core/AVR8/Template/Template_Endpoint_Control_W.c **** 				BytesInEndpoint++;
 4202               		.loc 4 65 11 is_stmt 0 view .LVU1189
 4203 00b0 2197      		sbiw r28,1
 4204               	.LVL351:
  66:../../tmk_core/protocol/lufa/lufa-abcminiuser/LUFA/Drivers/USB/Core/AVR8/Template/Template_Endpoint_Control_W.c **** 			}
 4205               		.loc 4 66 5 is_stmt 1 view .LVU1190
  66:../../tmk_core/protocol/lufa/lufa-abcminiuser/LUFA/Drivers/USB/Core/AVR8/Template/Template_Endpoint_Control_W.c **** 			}
 4206               		.loc 4 66 20 is_stmt 0 view .LVU1191
 4207 00b2 0F5F      		subi r16,-1
 4208 00b4 1F4F      		sbci r17,-1
 4209               	.LVL352:
  66:../../tmk_core/protocol/lufa/lufa-abcminiuser/LUFA/Drivers/USB/Core/AVR8/Template/Template_Endpoint_Control_W.c **** 			}
 4210               		.loc 4 66 20 view .LVU1192
 4211 00b6 00C0      		rjmp .L299
 4212               	.LVL353:
 4213               	.L304:
  66:../../tmk_core/protocol/lufa/lufa-abcminiuser/LUFA/Drivers/USB/Core/AVR8/Template/Template_Endpoint_Control_W.c **** 			}
 4214               		.loc 4 66 20 view .LVU1193
 4215               	.LBE481:
 4216               	.LBE474:
 4217               	.LBB488:
  76:../../tmk_core/protocol/lufa/lufa-abcminiuser/LUFA/Drivers/USB/Core/AVR8/Template/Template_Endpoint_Control_W.c **** 
 4218               		.loc 4 76 3 is_stmt 1 view .LVU1194
  76:../../tmk_core/protocol/lufa/lufa-abcminiuser/LUFA/Drivers/USB/Core/AVR8/Template/Template_Endpoint_Control_W.c **** 
 4219               		.loc 4 76 11 is_stmt 0 view .LVU1195
 4220 00b8 8091 0000 		lds r24,USB_DeviceState
 4221               	.LVL354:
  78:../../tmk_core/protocol/lufa/lufa-abcminiuser/LUFA/Drivers/USB/Core/AVR8/Template/Template_Endpoint_Control_W.c **** 		  return ENDPOINT_RWCSTREAM_DeviceDisconnected;
 4222               		.loc 4 78 3 is_stmt 1 view .LVU1196
  78:../../tmk_core/protocol/lufa/lufa-abcminiuser/LUFA/Drivers/USB/Core/AVR8/Template/Template_Endpoint_Control_W.c **** 		  return ENDPOINT_RWCSTREAM_DeviceDisconnected;
 4223               		.loc 4 78 6 is_stmt 0 view .LVU1197
 4224 00bc 8823      		tst r24
 4225 00be 01F0      		breq .L309
  80:../../tmk_core/protocol/lufa/lufa-abcminiuser/LUFA/Drivers/USB/Core/AVR8/Template/Template_Endpoint_Control_W.c **** 		  return ENDPOINT_RWCSTREAM_BusSuspended;
 4226               		.loc 4 80 8 is_stmt 1 view .LVU1198
  80:../../tmk_core/protocol/lufa/lufa-abcminiuser/LUFA/Drivers/USB/Core/AVR8/Template/Template_Endpoint_Control_W.c **** 		  return ENDPOINT_RWCSTREAM_BusSuspended;
 4227               		.loc 4 80 11 is_stmt 0 view .LVU1199
 4228 00c0 8530      		cpi r24,lo8(5)
 4229 00c2 01F0      		breq .L310
  82:../../tmk_core/protocol/lufa/lufa-abcminiuser/LUFA/Drivers/USB/Core/AVR8/Template/Template_Endpoint_Control_W.c **** 		  return ENDPOINT_RWCSTREAM_HostAborted;
 4230               		.loc 4 82 8 is_stmt 1 view .LVU1200
 4231               	.LBB489:
 4232               	.LBI489:
 429:../../tmk_core/protocol/lufa/lufa-abcminiuser/LUFA/Drivers/USB/Core/AVR8/../AVR8/../AVR8/Endpoint_AVR8.h **** 			{
 4233               		.loc 2 429 23 view .LVU1201
 4234               	.LBB490:
 431:../../tmk_core/protocol/lufa/lufa-abcminiuser/LUFA/Drivers/USB/Core/AVR8/../AVR8/../AVR8/Endpoint_AVR8.h **** 			}
 4235               		.loc 2 431 5 view .LVU1202
 431:../../tmk_core/protocol/lufa/lufa-abcminiuser/LUFA/Drivers/USB/Core/AVR8/../AVR8/../AVR8/Endpoint_AVR8.h **** 			}
 4236               		.loc 2 431 14 is_stmt 0 view .LVU1203
 4237 00c4 8091 E800 		lds r24,232
 4238               	.LVL355:
 431:../../tmk_core/protocol/lufa/lufa-abcminiuser/LUFA/Drivers/USB/Core/AVR8/../AVR8/../AVR8/Endpoint_AVR8.h **** 			}
 4239               		.loc 2 431 14 view .LVU1204
 4240               	.LBE490:
 4241               	.LBE489:
  82:../../tmk_core/protocol/lufa/lufa-abcminiuser/LUFA/Drivers/USB/Core/AVR8/Template/Template_Endpoint_Control_W.c **** 		  return ENDPOINT_RWCSTREAM_HostAborted;
 4242               		.loc 4 82 11 view .LVU1205
 4243 00c8 83FF      		sbrs r24,3
 4244 00ca 00C0      		rjmp .L317
 4245               	.L311:
  82:../../tmk_core/protocol/lufa/lufa-abcminiuser/LUFA/Drivers/USB/Core/AVR8/Template/Template_Endpoint_Control_W.c **** 		  return ENDPOINT_RWCSTREAM_HostAborted;
 4246               		.loc 4 82 11 view .LVU1206
 4247               	.LBE488:
 4248               	.LBB491:
  53:../../tmk_core/protocol/lufa/lufa-abcminiuser/LUFA/Drivers/USB/Core/AVR8/Template/Template_Endpoint_Control_W.c **** 		else if (Endpoint_IsOUTReceived())
 4249               		.loc 4 53 12 view .LVU1207
 4250 00cc 81E0      		ldi r24,lo8(1)
 4251 00ce 00C0      		rjmp .L293
 4252               	.L309:
  49:../../tmk_core/protocol/lufa/lufa-abcminiuser/LUFA/Drivers/USB/Core/AVR8/Template/Template_Endpoint_Control_W.c **** 		else if (USB_DeviceState_LCL == DEVICE_STATE_Suspended)
 4253               		.loc 4 49 12 view .LVU1208
 4254 00d0 82E0      		ldi r24,lo8(2)
 4255 00d2 00C0      		rjmp .L293
 4256               	.L310:
  51:../../tmk_core/protocol/lufa/lufa-abcminiuser/LUFA/Drivers/USB/Core/AVR8/Template/Template_Endpoint_Control_W.c **** 		else if (Endpoint_IsSETUPReceived())
 4257               		.loc 4 51 12 view .LVU1209
 4258 00d4 83E0      		ldi r24,lo8(3)
 4259 00d6 00C0      		rjmp .L293
 4260               	.LBE491:
 4261               		.cfi_endproc
 4262               	.LFE103:
 4264               		.section	.text.Endpoint_Write_Control_EStream_BE,"ax",@progbits
 4265               	.global	Endpoint_Write_Control_EStream_BE
 4267               	Endpoint_Write_Control_EStream_BE:
 4268               	.LVL356:
 4269               	.LFB104:
  35:../../tmk_core/protocol/lufa/lufa-abcminiuser/LUFA/Drivers/USB/Core/AVR8/Template/Template_Endpoint_Control_W.c **** 	uint8_t* DataStream     = ((uint8_t*)Buffer + TEMPLATE_BUFFER_OFFSET(Length));
 4270               		.loc 4 35 1 is_stmt 1 view -0
 4271               		.cfi_startproc
  35:../../tmk_core/protocol/lufa/lufa-abcminiuser/LUFA/Drivers/USB/Core/AVR8/Template/Template_Endpoint_Control_W.c **** 	uint8_t* DataStream     = ((uint8_t*)Buffer + TEMPLATE_BUFFER_OFFSET(Length));
 4272               		.loc 4 35 1 is_stmt 0 view .LVU1211
 4273 0000 EF92      		push r14
 4274               	.LCFI110:
 4275               		.cfi_def_cfa_offset 3
 4276               		.cfi_offset 14, -2
 4277 0002 FF92      		push r15
 4278               	.LCFI111:
 4279               		.cfi_def_cfa_offset 4
 4280               		.cfi_offset 15, -3
 4281 0004 0F93      		push r16
 4282               	.LCFI112:
 4283               		.cfi_def_cfa_offset 5
 4284               		.cfi_offset 16, -4
 4285 0006 1F93      		push r17
 4286               	.LCFI113:
 4287               		.cfi_def_cfa_offset 6
 4288               		.cfi_offset 17, -5
 4289 0008 CF93      		push r28
 4290               	.LCFI114:
 4291               		.cfi_def_cfa_offset 7
 4292               		.cfi_offset 28, -6
 4293 000a DF93      		push r29
 4294               	.LCFI115:
 4295               		.cfi_def_cfa_offset 8
 4296               		.cfi_offset 29, -7
 4297               	/* prologue: function */
 4298               	/* frame size = 0 */
 4299               	/* stack size = 6 */
 4300               	.L__stack_usage = 6
 4301 000c EB01      		movw r28,r22
  36:../../tmk_core/protocol/lufa/lufa-abcminiuser/LUFA/Drivers/USB/Core/AVR8/Template/Template_Endpoint_Control_W.c **** 	bool     LastPacketFull = false;
 4302               		.loc 4 36 2 is_stmt 1 view .LVU1212
  36:../../tmk_core/protocol/lufa/lufa-abcminiuser/LUFA/Drivers/USB/Core/AVR8/Template/Template_Endpoint_Control_W.c **** 	bool     LastPacketFull = false;
 4303               		.loc 4 36 46 is_stmt 0 view .LVU1213
 4304 000e 7B01      		movw r14,r22
 4305 0010 21E0      		ldi r18,1
 4306 0012 E21A      		sub r14,r18
 4307 0014 F108      		sbc r15,__zero_reg__
  36:../../tmk_core/protocol/lufa/lufa-abcminiuser/LUFA/Drivers/USB/Core/AVR8/Template/Template_Endpoint_Control_W.c **** 	bool     LastPacketFull = false;
 4308               		.loc 4 36 11 view .LVU1214
 4309 0016 E80E      		add r14,r24
 4310 0018 F91E      		adc r15,r25
 4311               	.LVL357:
  37:../../tmk_core/protocol/lufa/lufa-abcminiuser/LUFA/Drivers/USB/Core/AVR8/Template/Template_Endpoint_Control_W.c **** 
 4312               		.loc 4 37 2 is_stmt 1 view .LVU1215
  39:../../tmk_core/protocol/lufa/lufa-abcminiuser/LUFA/Drivers/USB/Core/AVR8/Template/Template_Endpoint_Control_W.c **** 	  Length = USB_ControlRequest.wLength;
 4313               		.loc 4 39 2 view .LVU1216
  39:../../tmk_core/protocol/lufa/lufa-abcminiuser/LUFA/Drivers/USB/Core/AVR8/Template/Template_Endpoint_Control_W.c **** 	  Length = USB_ControlRequest.wLength;
 4314               		.loc 4 39 33 is_stmt 0 view .LVU1217
 4315 001a 8091 0000 		lds r24,USB_ControlRequest+6
 4316 001e 9091 0000 		lds r25,USB_ControlRequest+6+1
 4317               	.LVL358:
  39:../../tmk_core/protocol/lufa/lufa-abcminiuser/LUFA/Drivers/USB/Core/AVR8/Template/Template_Endpoint_Control_W.c **** 	  Length = USB_ControlRequest.wLength;
 4318               		.loc 4 39 5 view .LVU1218
 4319 0022 8617      		cp r24,r22
 4320 0024 9707      		cpc r25,r23
 4321 0026 00F0      		brlo .L333
  41:../../tmk_core/protocol/lufa/lufa-abcminiuser/LUFA/Drivers/USB/Core/AVR8/Template/Template_Endpoint_Control_W.c **** 	  Endpoint_ClearIN();
 4322               		.loc 4 41 7 is_stmt 1 view .LVU1219
  41:../../tmk_core/protocol/lufa/lufa-abcminiuser/LUFA/Drivers/USB/Core/AVR8/Template/Template_Endpoint_Control_W.c **** 	  Endpoint_ClearIN();
 4323               		.loc 4 41 10 is_stmt 0 view .LVU1220
 4324 0028 2097      		sbiw r28,0
 4325 002a 01F4      		brne .L322
  42:../../tmk_core/protocol/lufa/lufa-abcminiuser/LUFA/Drivers/USB/Core/AVR8/Template/Template_Endpoint_Control_W.c **** 
 4326               		.loc 4 42 4 is_stmt 1 view .LVU1221
 4327               	.LBB492:
 4328               	.LBI492:
 453:../../tmk_core/protocol/lufa/lufa-abcminiuser/LUFA/Drivers/USB/Core/AVR8/../AVR8/../AVR8/Endpoint_AVR8.h **** 			{
 4329               		.loc 2 453 23 view .LVU1222
 4330               	.LBB493:
 456:../../tmk_core/protocol/lufa/lufa-abcminiuser/LUFA/Drivers/USB/Core/AVR8/../AVR8/../AVR8/Endpoint_AVR8.h **** 				#else
 4331               		.loc 2 456 6 view .LVU1223
 456:../../tmk_core/protocol/lufa/lufa-abcminiuser/LUFA/Drivers/USB/Core/AVR8/../AVR8/../AVR8/Endpoint_AVR8.h **** 				#else
 4332               		.loc 2 456 13 is_stmt 0 view .LVU1224
 4333 002c 8091 E800 		lds r24,232
 4334 0030 8E77      		andi r24,lo8(126)
 4335 0032 8093 E800 		sts 232,r24
 4336               	.L322:
 456:../../tmk_core/protocol/lufa/lufa-abcminiuser/LUFA/Drivers/USB/Core/AVR8/../AVR8/../AVR8/Endpoint_AVR8.h **** 				#else
 4337               		.loc 2 456 13 view .LVU1225
 4338               	.LBE493:
 4339               	.LBE492:
 4340 0036 80E0      		ldi r24,0
 4341               	.LVL359:
 4342               	.L326:
  44:../../tmk_core/protocol/lufa/lufa-abcminiuser/LUFA/Drivers/USB/Core/AVR8/Template/Template_Endpoint_Control_W.c **** 	{
 4343               		.loc 4 44 8 view .LVU1226
 4344 0038 2097      		sbiw r28,0
 4345 003a 01F4      		brne .L331
  44:../../tmk_core/protocol/lufa/lufa-abcminiuser/LUFA/Drivers/USB/Core/AVR8/Template/Template_Endpoint_Control_W.c **** 	{
 4346               		.loc 4 44 16 discriminator 1 view .LVU1227
 4347 003c 8111      		cpse r24,__zero_reg__
 4348 003e 00C0      		rjmp .L331
 4349               	.LVL360:
 4350               	.L345:
 4351               	.LBB494:
 4352               	.LBI494:
 417:../../tmk_core/protocol/lufa/lufa-abcminiuser/LUFA/Drivers/USB/Core/AVR8/../AVR8/../AVR8/Endpoint_AVR8.h **** 			{
 4353               		.loc 2 417 23 is_stmt 1 view .LVU1228
 4354               	.LBB495:
 419:../../tmk_core/protocol/lufa/lufa-abcminiuser/LUFA/Drivers/USB/Core/AVR8/../AVR8/../AVR8/Endpoint_AVR8.h **** 			}
 4355               		.loc 2 419 5 view .LVU1229
 419:../../tmk_core/protocol/lufa/lufa-abcminiuser/LUFA/Drivers/USB/Core/AVR8/../AVR8/../AVR8/Endpoint_AVR8.h **** 			}
 4356               		.loc 2 419 14 is_stmt 0 view .LVU1230
 4357 0040 8091 E800 		lds r24,232
 4358               	.LBE495:
 4359               	.LBE494:
  74:../../tmk_core/protocol/lufa/lufa-abcminiuser/LUFA/Drivers/USB/Core/AVR8/Template/Template_Endpoint_Control_W.c **** 	{
 4360               		.loc 4 74 8 view .LVU1231
 4361 0044 82FF      		sbrs r24,2
 4362 0046 00C0      		rjmp .L332
  86:../../tmk_core/protocol/lufa/lufa-abcminiuser/LUFA/Drivers/USB/Core/AVR8/Template/Template_Endpoint_Control_W.c **** }
 4363               		.loc 4 86 9 view .LVU1232
 4364 0048 80E0      		ldi r24,0
 4365               	.L321:
 4366               	/* epilogue start */
 4367               		.loc 4 87 1 view .LVU1233
 4368 004a DF91      		pop r29
 4369 004c CF91      		pop r28
 4370               	.LVL361:
 4371               		.loc 4 87 1 view .LVU1234
 4372 004e 1F91      		pop r17
 4373 0050 0F91      		pop r16
 4374 0052 FF90      		pop r15
 4375 0054 EF90      		pop r14
 4376               	.LVL362:
 4377               		.loc 4 87 1 view .LVU1235
 4378 0056 0895      		ret
 4379               	.LVL363:
 4380               	.L333:
 4381               		.loc 4 87 1 view .LVU1236
 4382 0058 EC01      		movw r28,r24
 4383 005a 00C0      		rjmp .L322
 4384               	.LVL364:
 4385               	.L331:
 4386               	.LBB496:
  46:../../tmk_core/protocol/lufa/lufa-abcminiuser/LUFA/Drivers/USB/Core/AVR8/Template/Template_Endpoint_Control_W.c **** 
 4387               		.loc 4 46 3 is_stmt 1 view .LVU1237
  46:../../tmk_core/protocol/lufa/lufa-abcminiuser/LUFA/Drivers/USB/Core/AVR8/Template/Template_Endpoint_Control_W.c **** 
 4388               		.loc 4 46 11 is_stmt 0 view .LVU1238
 4389 005c 9091 0000 		lds r25,USB_DeviceState
 4390               	.LVL365:
  48:../../tmk_core/protocol/lufa/lufa-abcminiuser/LUFA/Drivers/USB/Core/AVR8/Template/Template_Endpoint_Control_W.c **** 		  return ENDPOINT_RWCSTREAM_DeviceDisconnected;
 4391               		.loc 4 48 3 is_stmt 1 view .LVU1239
  48:../../tmk_core/protocol/lufa/lufa-abcminiuser/LUFA/Drivers/USB/Core/AVR8/Template/Template_Endpoint_Control_W.c **** 		  return ENDPOINT_RWCSTREAM_DeviceDisconnected;
 4392               		.loc 4 48 6 is_stmt 0 view .LVU1240
 4393 0060 9923      		tst r25
 4394 0062 01F0      		breq .L337
  50:../../tmk_core/protocol/lufa/lufa-abcminiuser/LUFA/Drivers/USB/Core/AVR8/Template/Template_Endpoint_Control_W.c **** 		  return ENDPOINT_RWCSTREAM_BusSuspended;
 4395               		.loc 4 50 8 is_stmt 1 view .LVU1241
  50:../../tmk_core/protocol/lufa/lufa-abcminiuser/LUFA/Drivers/USB/Core/AVR8/Template/Template_Endpoint_Control_W.c **** 		  return ENDPOINT_RWCSTREAM_BusSuspended;
 4396               		.loc 4 50 11 is_stmt 0 view .LVU1242
 4397 0064 9530      		cpi r25,lo8(5)
 4398 0066 01F0      		breq .L338
  52:../../tmk_core/protocol/lufa/lufa-abcminiuser/LUFA/Drivers/USB/Core/AVR8/Template/Template_Endpoint_Control_W.c **** 		  return ENDPOINT_RWCSTREAM_HostAborted;
 4399               		.loc 4 52 8 is_stmt 1 view .LVU1243
 4400               	.LBB497:
 4401               	.LBI497:
 429:../../tmk_core/protocol/lufa/lufa-abcminiuser/LUFA/Drivers/USB/Core/AVR8/../AVR8/../AVR8/Endpoint_AVR8.h **** 			{
 4402               		.loc 2 429 23 view .LVU1244
 4403               	.LBB498:
 431:../../tmk_core/protocol/lufa/lufa-abcminiuser/LUFA/Drivers/USB/Core/AVR8/../AVR8/../AVR8/Endpoint_AVR8.h **** 			}
 4404               		.loc 2 431 5 view .LVU1245
 431:../../tmk_core/protocol/lufa/lufa-abcminiuser/LUFA/Drivers/USB/Core/AVR8/../AVR8/../AVR8/Endpoint_AVR8.h **** 			}
 4405               		.loc 2 431 14 is_stmt 0 view .LVU1246
 4406 0068 9091 E800 		lds r25,232
 4407               	.LVL366:
 431:../../tmk_core/protocol/lufa/lufa-abcminiuser/LUFA/Drivers/USB/Core/AVR8/../AVR8/../AVR8/Endpoint_AVR8.h **** 			}
 4408               		.loc 2 431 14 view .LVU1247
 4409               	.LBE498:
 4410               	.LBE497:
  52:../../tmk_core/protocol/lufa/lufa-abcminiuser/LUFA/Drivers/USB/Core/AVR8/Template/Template_Endpoint_Control_W.c **** 		  return ENDPOINT_RWCSTREAM_HostAborted;
 4411               		.loc 4 52 11 view .LVU1248
 4412 006c 93FD      		sbrc r25,3
 4413 006e 00C0      		rjmp .L339
  54:../../tmk_core/protocol/lufa/lufa-abcminiuser/LUFA/Drivers/USB/Core/AVR8/Template/Template_Endpoint_Control_W.c **** 		  break;
 4414               		.loc 4 54 8 is_stmt 1 view .LVU1249
 4415               	.LBB499:
 4416               	.LBI499:
 417:../../tmk_core/protocol/lufa/lufa-abcminiuser/LUFA/Drivers/USB/Core/AVR8/../AVR8/../AVR8/Endpoint_AVR8.h **** 			{
 4417               		.loc 2 417 23 view .LVU1250
 4418               	.LBB500:
 419:../../tmk_core/protocol/lufa/lufa-abcminiuser/LUFA/Drivers/USB/Core/AVR8/../AVR8/../AVR8/Endpoint_AVR8.h **** 			}
 4419               		.loc 2 419 5 view .LVU1251
 419:../../tmk_core/protocol/lufa/lufa-abcminiuser/LUFA/Drivers/USB/Core/AVR8/../AVR8/../AVR8/Endpoint_AVR8.h **** 			}
 4420               		.loc 2 419 14 is_stmt 0 view .LVU1252
 4421 0070 9091 E800 		lds r25,232
 4422               	.LBE500:
 4423               	.LBE499:
  54:../../tmk_core/protocol/lufa/lufa-abcminiuser/LUFA/Drivers/USB/Core/AVR8/Template/Template_Endpoint_Control_W.c **** 		  break;
 4424               		.loc 4 54 11 view .LVU1253
 4425 0074 92FD      		sbrc r25,2
 4426 0076 00C0      		rjmp .L345
  57:../../tmk_core/protocol/lufa/lufa-abcminiuser/LUFA/Drivers/USB/Core/AVR8/Template/Template_Endpoint_Control_W.c **** 		{
 4427               		.loc 4 57 3 is_stmt 1 view .LVU1254
 4428               	.LBB501:
 4429               	.LBI501:
 405:../../tmk_core/protocol/lufa/lufa-abcminiuser/LUFA/Drivers/USB/Core/AVR8/../AVR8/../AVR8/Endpoint_AVR8.h **** 			{
 4430               		.loc 2 405 23 view .LVU1255
 4431               	.LBB502:
 407:../../tmk_core/protocol/lufa/lufa-abcminiuser/LUFA/Drivers/USB/Core/AVR8/../AVR8/../AVR8/Endpoint_AVR8.h **** 			}
 4432               		.loc 2 407 5 view .LVU1256
 407:../../tmk_core/protocol/lufa/lufa-abcminiuser/LUFA/Drivers/USB/Core/AVR8/../AVR8/../AVR8/Endpoint_AVR8.h **** 			}
 4433               		.loc 2 407 14 is_stmt 0 view .LVU1257
 4434 0078 9091 E800 		lds r25,232
 4435               	.LBE502:
 4436               	.LBE501:
  57:../../tmk_core/protocol/lufa/lufa-abcminiuser/LUFA/Drivers/USB/Core/AVR8/Template/Template_Endpoint_Control_W.c **** 		{
 4437               		.loc 4 57 6 view .LVU1258
 4438 007c 90FF      		sbrs r25,0
 4439 007e 00C0      		rjmp .L326
 4440               	.LBB503:
  59:../../tmk_core/protocol/lufa/lufa-abcminiuser/LUFA/Drivers/USB/Core/AVR8/Template/Template_Endpoint_Control_W.c **** 
 4441               		.loc 4 59 4 is_stmt 1 view .LVU1259
 4442               	.LBB504:
 4443               	.LBI504:
 222:../../tmk_core/protocol/lufa/lufa-abcminiuser/LUFA/Drivers/USB/Core/AVR8/../AVR8/../AVR8/Endpoint_AVR8.h **** 			{
 4444               		.loc 2 222 27 view .LVU1260
 4445               	.LBB505:
 227:../../tmk_core/protocol/lufa/lufa-abcminiuser/LUFA/Drivers/USB/Core/AVR8/../AVR8/../AVR8/Endpoint_AVR8.h **** 				#elif defined(USB_SERIES_2_AVR)
 4446               		.loc 2 227 6 view .LVU1261
 227:../../tmk_core/protocol/lufa/lufa-abcminiuser/LUFA/Drivers/USB/Core/AVR8/../AVR8/../AVR8/Endpoint_AVR8.h **** 				#elif defined(USB_SERIES_2_AVR)
 4447               		.loc 2 227 25 is_stmt 0 view .LVU1262
 4448 0080 8091 F300 		lds r24,243
 4449               	.LVL367:
 227:../../tmk_core/protocol/lufa/lufa-abcminiuser/LUFA/Drivers/USB/Core/AVR8/../AVR8/../AVR8/Endpoint_AVR8.h **** 				#elif defined(USB_SERIES_2_AVR)
 4450               		.loc 2 227 40 view .LVU1263
 4451 0084 0091 F200 		lds r16,242
 227:../../tmk_core/protocol/lufa/lufa-abcminiuser/LUFA/Drivers/USB/Core/AVR8/../AVR8/../AVR8/Endpoint_AVR8.h **** 				#elif defined(USB_SERIES_2_AVR)
 4452               		.loc 2 227 38 view .LVU1264
 4453 0088 182F      		mov r17,r24
 4454               	.LVL368:
 227:../../tmk_core/protocol/lufa/lufa-abcminiuser/LUFA/Drivers/USB/Core/AVR8/../AVR8/../AVR8/Endpoint_AVR8.h **** 				#elif defined(USB_SERIES_2_AVR)
 4455               		.loc 2 227 38 view .LVU1265
 4456               	.LBE505:
 4457               	.LBE504:
  61:../../tmk_core/protocol/lufa/lufa-abcminiuser/LUFA/Drivers/USB/Core/AVR8/Template/Template_Endpoint_Control_W.c **** 			{
 4458               		.loc 4 61 4 is_stmt 1 view .LVU1266
 4459               	.L327:
  61:../../tmk_core/protocol/lufa/lufa-abcminiuser/LUFA/Drivers/USB/Core/AVR8/Template/Template_Endpoint_Control_W.c **** 			{
 4460               		.loc 4 61 10 is_stmt 0 view .LVU1267
 4461 008a 2097      		sbiw r28,0
 4462 008c 01F0      		breq .L328
  61:../../tmk_core/protocol/lufa/lufa-abcminiuser/LUFA/Drivers/USB/Core/AVR8/Template/Template_Endpoint_Control_W.c **** 			{
 4463               		.loc 4 61 18 discriminator 1 view .LVU1268
 4464 008e 0830      		cpi r16,8
 4465 0090 1105      		cpc r17,__zero_reg__
 4466 0092 00F0      		brlo .L329
 4467               	.L328:
  69:../../tmk_core/protocol/lufa/lufa-abcminiuser/LUFA/Drivers/USB/Core/AVR8/Template/Template_Endpoint_Control_W.c **** 			Endpoint_ClearIN();
 4468               		.loc 4 69 4 is_stmt 1 view .LVU1269
  69:../../tmk_core/protocol/lufa/lufa-abcminiuser/LUFA/Drivers/USB/Core/AVR8/Template/Template_Endpoint_Control_W.c **** 			Endpoint_ClearIN();
 4469               		.loc 4 69 19 is_stmt 0 view .LVU1270
 4470 0094 81E0      		ldi r24,lo8(1)
 4471 0096 0830      		cpi r16,8
 4472 0098 1105      		cpc r17,__zero_reg__
 4473 009a 01F0      		breq .L330
 4474 009c 80E0      		ldi r24,0
 4475               	.L330:
 4476               	.LVL369:
  70:../../tmk_core/protocol/lufa/lufa-abcminiuser/LUFA/Drivers/USB/Core/AVR8/Template/Template_Endpoint_Control_W.c **** 		}
 4477               		.loc 4 70 4 is_stmt 1 view .LVU1271
 4478               	.LBB506:
 4479               	.LBI506:
 453:../../tmk_core/protocol/lufa/lufa-abcminiuser/LUFA/Drivers/USB/Core/AVR8/../AVR8/../AVR8/Endpoint_AVR8.h **** 			{
 4480               		.loc 2 453 23 view .LVU1272
 4481               	.LBB507:
 456:../../tmk_core/protocol/lufa/lufa-abcminiuser/LUFA/Drivers/USB/Core/AVR8/../AVR8/../AVR8/Endpoint_AVR8.h **** 				#else
 4482               		.loc 2 456 6 view .LVU1273
 456:../../tmk_core/protocol/lufa/lufa-abcminiuser/LUFA/Drivers/USB/Core/AVR8/../AVR8/../AVR8/Endpoint_AVR8.h **** 				#else
 4483               		.loc 2 456 13 is_stmt 0 view .LVU1274
 4484 009e 9091 E800 		lds r25,232
 4485 00a2 9E77      		andi r25,lo8(126)
 4486 00a4 9093 E800 		sts 232,r25
 4487 00a8 00C0      		rjmp .L326
 4488               	.LVL370:
 4489               	.L329:
 456:../../tmk_core/protocol/lufa/lufa-abcminiuser/LUFA/Drivers/USB/Core/AVR8/../AVR8/../AVR8/Endpoint_AVR8.h **** 				#else
 4490               		.loc 2 456 13 view .LVU1275
 4491               	.LBE507:
 4492               	.LBE506:
  63:../../tmk_core/protocol/lufa/lufa-abcminiuser/LUFA/Drivers/USB/Core/AVR8/Template/Template_Endpoint_Control_W.c **** 				TEMPLATE_BUFFER_MOVE(DataStream, 1);
 4493               		.loc 4 63 5 is_stmt 1 view .LVU1276
 4494 00aa C701      		movw r24,r14
 4495 00ac 0E94 0000 		call eeprom_read_byte
 4496               	.LVL371:
 4497               	.LBB508:
 4498               	.LBI508:
 552:../../tmk_core/protocol/lufa/lufa-abcminiuser/LUFA/Drivers/USB/Core/AVR8/../AVR8/../AVR8/Endpoint_AVR8.h **** 			{
 4499               		.loc 2 552 23 view .LVU1277
 4500               	.LBB509:
 554:../../tmk_core/protocol/lufa/lufa-abcminiuser/LUFA/Drivers/USB/Core/AVR8/../AVR8/../AVR8/Endpoint_AVR8.h **** 			}
 4501               		.loc 2 554 5 view .LVU1278
 554:../../tmk_core/protocol/lufa/lufa-abcminiuser/LUFA/Drivers/USB/Core/AVR8/../AVR8/../AVR8/Endpoint_AVR8.h **** 			}
 4502               		.loc 2 554 12 is_stmt 0 view .LVU1279
 4503 00b0 8093 F100 		sts 241,r24
 4504               	.LVL372:
 554:../../tmk_core/protocol/lufa/lufa-abcminiuser/LUFA/Drivers/USB/Core/AVR8/../AVR8/../AVR8/Endpoint_AVR8.h **** 			}
 4505               		.loc 2 554 12 view .LVU1280
 4506               	.LBE509:
 4507               	.LBE508:
  64:../../tmk_core/protocol/lufa/lufa-abcminiuser/LUFA/Drivers/USB/Core/AVR8/Template/Template_Endpoint_Control_W.c **** 				Length--;
 4508               		.loc 4 64 5 is_stmt 1 view .LVU1281
 4509 00b4 81E0      		ldi r24,1
 4510 00b6 E81A      		sub r14,r24
 4511 00b8 F108      		sbc r15,__zero_reg__
 4512               	.LVL373:
  65:../../tmk_core/protocol/lufa/lufa-abcminiuser/LUFA/Drivers/USB/Core/AVR8/Template/Template_Endpoint_Control_W.c **** 				BytesInEndpoint++;
 4513               		.loc 4 65 5 view .LVU1282
  65:../../tmk_core/protocol/lufa/lufa-abcminiuser/LUFA/Drivers/USB/Core/AVR8/Template/Template_Endpoint_Control_W.c **** 				BytesInEndpoint++;
 4514               		.loc 4 65 11 is_stmt 0 view .LVU1283
 4515 00ba 2197      		sbiw r28,1
 4516               	.LVL374:
  66:../../tmk_core/protocol/lufa/lufa-abcminiuser/LUFA/Drivers/USB/Core/AVR8/Template/Template_Endpoint_Control_W.c **** 			}
 4517               		.loc 4 66 5 is_stmt 1 view .LVU1284
  66:../../tmk_core/protocol/lufa/lufa-abcminiuser/LUFA/Drivers/USB/Core/AVR8/Template/Template_Endpoint_Control_W.c **** 			}
 4518               		.loc 4 66 20 is_stmt 0 view .LVU1285
 4519 00bc 0F5F      		subi r16,-1
 4520 00be 1F4F      		sbci r17,-1
 4521               	.LVL375:
  66:../../tmk_core/protocol/lufa/lufa-abcminiuser/LUFA/Drivers/USB/Core/AVR8/Template/Template_Endpoint_Control_W.c **** 			}
 4522               		.loc 4 66 20 view .LVU1286
 4523 00c0 00C0      		rjmp .L327
 4524               	.LVL376:
 4525               	.L332:
  66:../../tmk_core/protocol/lufa/lufa-abcminiuser/LUFA/Drivers/USB/Core/AVR8/Template/Template_Endpoint_Control_W.c **** 			}
 4526               		.loc 4 66 20 view .LVU1287
 4527               	.LBE503:
 4528               	.LBE496:
 4529               	.LBB510:
  76:../../tmk_core/protocol/lufa/lufa-abcminiuser/LUFA/Drivers/USB/Core/AVR8/Template/Template_Endpoint_Control_W.c **** 
 4530               		.loc 4 76 3 is_stmt 1 view .LVU1288
  76:../../tmk_core/protocol/lufa/lufa-abcminiuser/LUFA/Drivers/USB/Core/AVR8/Template/Template_Endpoint_Control_W.c **** 
 4531               		.loc 4 76 11 is_stmt 0 view .LVU1289
 4532 00c2 8091 0000 		lds r24,USB_DeviceState
 4533               	.LVL377:
  78:../../tmk_core/protocol/lufa/lufa-abcminiuser/LUFA/Drivers/USB/Core/AVR8/Template/Template_Endpoint_Control_W.c **** 		  return ENDPOINT_RWCSTREAM_DeviceDisconnected;
 4534               		.loc 4 78 3 is_stmt 1 view .LVU1290
  78:../../tmk_core/protocol/lufa/lufa-abcminiuser/LUFA/Drivers/USB/Core/AVR8/Template/Template_Endpoint_Control_W.c **** 		  return ENDPOINT_RWCSTREAM_DeviceDisconnected;
 4535               		.loc 4 78 6 is_stmt 0 view .LVU1291
 4536 00c6 8823      		tst r24
 4537 00c8 01F0      		breq .L337
  80:../../tmk_core/protocol/lufa/lufa-abcminiuser/LUFA/Drivers/USB/Core/AVR8/Template/Template_Endpoint_Control_W.c **** 		  return ENDPOINT_RWCSTREAM_BusSuspended;
 4538               		.loc 4 80 8 is_stmt 1 view .LVU1292
  80:../../tmk_core/protocol/lufa/lufa-abcminiuser/LUFA/Drivers/USB/Core/AVR8/Template/Template_Endpoint_Control_W.c **** 		  return ENDPOINT_RWCSTREAM_BusSuspended;
 4539               		.loc 4 80 11 is_stmt 0 view .LVU1293
 4540 00ca 8530      		cpi r24,lo8(5)
 4541 00cc 01F0      		breq .L338
  82:../../tmk_core/protocol/lufa/lufa-abcminiuser/LUFA/Drivers/USB/Core/AVR8/Template/Template_Endpoint_Control_W.c **** 		  return ENDPOINT_RWCSTREAM_HostAborted;
 4542               		.loc 4 82 8 is_stmt 1 view .LVU1294
 4543               	.LBB511:
 4544               	.LBI511:
 429:../../tmk_core/protocol/lufa/lufa-abcminiuser/LUFA/Drivers/USB/Core/AVR8/../AVR8/../AVR8/Endpoint_AVR8.h **** 			{
 4545               		.loc 2 429 23 view .LVU1295
 4546               	.LBB512:
 431:../../tmk_core/protocol/lufa/lufa-abcminiuser/LUFA/Drivers/USB/Core/AVR8/../AVR8/../AVR8/Endpoint_AVR8.h **** 			}
 4547               		.loc 2 431 5 view .LVU1296
 431:../../tmk_core/protocol/lufa/lufa-abcminiuser/LUFA/Drivers/USB/Core/AVR8/../AVR8/../AVR8/Endpoint_AVR8.h **** 			}
 4548               		.loc 2 431 14 is_stmt 0 view .LVU1297
 4549 00ce 8091 E800 		lds r24,232
 4550               	.LVL378:
 431:../../tmk_core/protocol/lufa/lufa-abcminiuser/LUFA/Drivers/USB/Core/AVR8/../AVR8/../AVR8/Endpoint_AVR8.h **** 			}
 4551               		.loc 2 431 14 view .LVU1298
 4552               	.LBE512:
 4553               	.LBE511:
  82:../../tmk_core/protocol/lufa/lufa-abcminiuser/LUFA/Drivers/USB/Core/AVR8/Template/Template_Endpoint_Control_W.c **** 		  return ENDPOINT_RWCSTREAM_HostAborted;
 4554               		.loc 4 82 11 view .LVU1299
 4555 00d2 83FF      		sbrs r24,3
 4556 00d4 00C0      		rjmp .L345
 4557               	.L339:
  82:../../tmk_core/protocol/lufa/lufa-abcminiuser/LUFA/Drivers/USB/Core/AVR8/Template/Template_Endpoint_Control_W.c **** 		  return ENDPOINT_RWCSTREAM_HostAborted;
 4558               		.loc 4 82 11 view .LVU1300
 4559               	.LBE510:
 4560               	.LBB513:
  53:../../tmk_core/protocol/lufa/lufa-abcminiuser/LUFA/Drivers/USB/Core/AVR8/Template/Template_Endpoint_Control_W.c **** 		else if (Endpoint_IsOUTReceived())
 4561               		.loc 4 53 12 view .LVU1301
 4562 00d6 81E0      		ldi r24,lo8(1)
 4563 00d8 00C0      		rjmp .L321
 4564               	.L337:
  49:../../tmk_core/protocol/lufa/lufa-abcminiuser/LUFA/Drivers/USB/Core/AVR8/Template/Template_Endpoint_Control_W.c **** 		else if (USB_DeviceState_LCL == DEVICE_STATE_Suspended)
 4565               		.loc 4 49 12 view .LVU1302
 4566 00da 82E0      		ldi r24,lo8(2)
 4567 00dc 00C0      		rjmp .L321
 4568               	.L338:
  51:../../tmk_core/protocol/lufa/lufa-abcminiuser/LUFA/Drivers/USB/Core/AVR8/Template/Template_Endpoint_Control_W.c **** 		else if (Endpoint_IsSETUPReceived())
 4569               		.loc 4 51 12 view .LVU1303
 4570 00de 83E0      		ldi r24,lo8(3)
 4571 00e0 00C0      		rjmp .L321
 4572               	.LBE513:
 4573               		.cfi_endproc
 4574               	.LFE104:
 4576               		.section	.text.Endpoint_Read_Control_EStream_LE,"ax",@progbits
 4577               	.global	Endpoint_Read_Control_EStream_LE
 4579               	Endpoint_Read_Control_EStream_LE:
 4580               	.LVL379:
 4581               	.LFB105:
  35:../../tmk_core/protocol/lufa/lufa-abcminiuser/LUFA/Drivers/USB/Core/AVR8/Template/Template_Endpoint_Control_R.c **** 	uint8_t* DataStream = ((uint8_t*)Buffer + TEMPLATE_BUFFER_OFFSET(Length));
 4582               		.loc 5 35 1 is_stmt 1 view -0
 4583               		.cfi_startproc
  35:../../tmk_core/protocol/lufa/lufa-abcminiuser/LUFA/Drivers/USB/Core/AVR8/Template/Template_Endpoint_Control_R.c **** 	uint8_t* DataStream = ((uint8_t*)Buffer + TEMPLATE_BUFFER_OFFSET(Length));
 4584               		.loc 5 35 1 is_stmt 0 view .LVU1305
 4585 0000 0F93      		push r16
 4586               	.LCFI116:
 4587               		.cfi_def_cfa_offset 3
 4588               		.cfi_offset 16, -2
 4589 0002 1F93      		push r17
 4590               	.LCFI117:
 4591               		.cfi_def_cfa_offset 4
 4592               		.cfi_offset 17, -3
 4593 0004 CF93      		push r28
 4594               	.LCFI118:
 4595               		.cfi_def_cfa_offset 5
 4596               		.cfi_offset 28, -4
 4597 0006 DF93      		push r29
 4598               	.LCFI119:
 4599               		.cfi_def_cfa_offset 6
 4600               		.cfi_offset 29, -5
 4601               	/* prologue: function */
 4602               	/* frame size = 0 */
 4603               	/* stack size = 4 */
 4604               	.L__stack_usage = 4
 4605 0008 8C01      		movw r16,r24
 4606 000a EB01      		movw r28,r22
  36:../../tmk_core/protocol/lufa/lufa-abcminiuser/LUFA/Drivers/USB/Core/AVR8/Template/Template_Endpoint_Control_R.c **** 
 4607               		.loc 5 36 2 is_stmt 1 view .LVU1306
 4608               	.LVL380:
  38:../../tmk_core/protocol/lufa/lufa-abcminiuser/LUFA/Drivers/USB/Core/AVR8/Template/Template_Endpoint_Control_R.c **** 	  Endpoint_ClearOUT();
 4609               		.loc 5 38 2 view .LVU1307
  38:../../tmk_core/protocol/lufa/lufa-abcminiuser/LUFA/Drivers/USB/Core/AVR8/Template/Template_Endpoint_Control_R.c **** 	  Endpoint_ClearOUT();
 4610               		.loc 5 38 5 is_stmt 0 view .LVU1308
 4611 000c 2097      		sbiw r28,0
 4612 000e 01F4      		brne .L354
 4613               	.LVL381:
 4614               	.L355:
 4615               	.LBB514:
  61:../../tmk_core/protocol/lufa/lufa-abcminiuser/LUFA/Drivers/USB/Core/AVR8/Template/Template_Endpoint_Control_R.c **** 		}
 4616               		.loc 5 61 4 is_stmt 1 view .LVU1309
 4617               	.LBB515:
 4618               	.LBI515:
 468:../../tmk_core/protocol/lufa/lufa-abcminiuser/LUFA/Drivers/USB/Core/AVR8/../AVR8/../AVR8/Endpoint_AVR8.h **** 			{
 4619               		.loc 2 468 23 view .LVU1310
 4620               	.LBB516:
 471:../../tmk_core/protocol/lufa/lufa-abcminiuser/LUFA/Drivers/USB/Core/AVR8/../AVR8/../AVR8/Endpoint_AVR8.h **** 				#else
 4621               		.loc 2 471 6 view .LVU1311
 471:../../tmk_core/protocol/lufa/lufa-abcminiuser/LUFA/Drivers/USB/Core/AVR8/../AVR8/../AVR8/Endpoint_AVR8.h **** 				#else
 4622               		.loc 2 471 13 is_stmt 0 view .LVU1312
 4623 0010 8091 E800 		lds r24,232
 4624 0014 8B77      		andi r24,lo8(123)
 4625 0016 8093 E800 		sts 232,r24
 4626               	.L354:
 471:../../tmk_core/protocol/lufa/lufa-abcminiuser/LUFA/Drivers/USB/Core/AVR8/../AVR8/../AVR8/Endpoint_AVR8.h **** 				#else
 4627               		.loc 2 471 13 view .LVU1313
 4628               	.LBE516:
 4629               	.LBE515:
 4630               	.LBE514:
  41:../../tmk_core/protocol/lufa/lufa-abcminiuser/LUFA/Drivers/USB/Core/AVR8/Template/Template_Endpoint_Control_R.c **** 	{
 4631               		.loc 5 41 8 view .LVU1314
 4632 001a 2097      		sbiw r28,0
 4633 001c 01F4      		brne .L357
 4634               	.L358:
 4635               	.LBB525:
 4636               	.LBI525:
 405:../../tmk_core/protocol/lufa/lufa-abcminiuser/LUFA/Drivers/USB/Core/AVR8/../AVR8/../AVR8/Endpoint_AVR8.h **** 			{
 4637               		.loc 2 405 23 is_stmt 1 view .LVU1315
 4638               	.LBB526:
 407:../../tmk_core/protocol/lufa/lufa-abcminiuser/LUFA/Drivers/USB/Core/AVR8/../AVR8/../AVR8/Endpoint_AVR8.h **** 			}
 4639               		.loc 2 407 5 view .LVU1316
 407:../../tmk_core/protocol/lufa/lufa-abcminiuser/LUFA/Drivers/USB/Core/AVR8/../AVR8/../AVR8/Endpoint_AVR8.h **** 			}
 4640               		.loc 2 407 14 is_stmt 0 view .LVU1317
 4641 001e 8091 E800 		lds r24,232
 4642               	.LBE526:
 4643               	.LBE525:
  65:../../tmk_core/protocol/lufa/lufa-abcminiuser/LUFA/Drivers/USB/Core/AVR8/Template/Template_Endpoint_Control_R.c **** 	{
 4644               		.loc 5 65 8 view .LVU1318
 4645 0022 80FF      		sbrs r24,0
 4646 0024 00C0      		rjmp .L359
  75:../../tmk_core/protocol/lufa/lufa-abcminiuser/LUFA/Drivers/USB/Core/AVR8/Template/Template_Endpoint_Control_R.c **** }
 4647               		.loc 5 75 9 view .LVU1319
 4648 0026 80E0      		ldi r24,0
 4649               	.L349:
 4650               	/* epilogue start */
 4651               		.loc 5 76 1 view .LVU1320
 4652 0028 DF91      		pop r29
 4653 002a CF91      		pop r28
 4654               	.LVL382:
 4655               		.loc 5 76 1 view .LVU1321
 4656 002c 1F91      		pop r17
 4657 002e 0F91      		pop r16
 4658               	.LVL383:
 4659               		.loc 5 76 1 view .LVU1322
 4660 0030 0895      		ret
 4661               	.LVL384:
 4662               	.L357:
 4663               	.LBB527:
  43:../../tmk_core/protocol/lufa/lufa-abcminiuser/LUFA/Drivers/USB/Core/AVR8/Template/Template_Endpoint_Control_R.c **** 
 4664               		.loc 5 43 3 is_stmt 1 view .LVU1323
  43:../../tmk_core/protocol/lufa/lufa-abcminiuser/LUFA/Drivers/USB/Core/AVR8/Template/Template_Endpoint_Control_R.c **** 
 4665               		.loc 5 43 11 is_stmt 0 view .LVU1324
 4666 0032 8091 0000 		lds r24,USB_DeviceState
 4667               	.LVL385:
  45:../../tmk_core/protocol/lufa/lufa-abcminiuser/LUFA/Drivers/USB/Core/AVR8/Template/Template_Endpoint_Control_R.c **** 		  return ENDPOINT_RWCSTREAM_DeviceDisconnected;
 4668               		.loc 5 45 3 is_stmt 1 view .LVU1325
  45:../../tmk_core/protocol/lufa/lufa-abcminiuser/LUFA/Drivers/USB/Core/AVR8/Template/Template_Endpoint_Control_R.c **** 		  return ENDPOINT_RWCSTREAM_DeviceDisconnected;
 4669               		.loc 5 45 6 is_stmt 0 view .LVU1326
 4670 0036 8823      		tst r24
 4671 0038 01F0      		breq .L363
  47:../../tmk_core/protocol/lufa/lufa-abcminiuser/LUFA/Drivers/USB/Core/AVR8/Template/Template_Endpoint_Control_R.c **** 		  return ENDPOINT_RWCSTREAM_BusSuspended;
 4672               		.loc 5 47 8 is_stmt 1 view .LVU1327
  47:../../tmk_core/protocol/lufa/lufa-abcminiuser/LUFA/Drivers/USB/Core/AVR8/Template/Template_Endpoint_Control_R.c **** 		  return ENDPOINT_RWCSTREAM_BusSuspended;
 4673               		.loc 5 47 11 is_stmt 0 view .LVU1328
 4674 003a 8530      		cpi r24,lo8(5)
 4675 003c 01F0      		breq .L364
  49:../../tmk_core/protocol/lufa/lufa-abcminiuser/LUFA/Drivers/USB/Core/AVR8/Template/Template_Endpoint_Control_R.c **** 		  return ENDPOINT_RWCSTREAM_HostAborted;
 4676               		.loc 5 49 8 is_stmt 1 view .LVU1329
 4677               	.LBB517:
 4678               	.LBI517:
 429:../../tmk_core/protocol/lufa/lufa-abcminiuser/LUFA/Drivers/USB/Core/AVR8/../AVR8/../AVR8/Endpoint_AVR8.h **** 			{
 4679               		.loc 2 429 23 view .LVU1330
 4680               	.LBB518:
 431:../../tmk_core/protocol/lufa/lufa-abcminiuser/LUFA/Drivers/USB/Core/AVR8/../AVR8/../AVR8/Endpoint_AVR8.h **** 			}
 4681               		.loc 2 431 5 view .LVU1331
 431:../../tmk_core/protocol/lufa/lufa-abcminiuser/LUFA/Drivers/USB/Core/AVR8/../AVR8/../AVR8/Endpoint_AVR8.h **** 			}
 4682               		.loc 2 431 14 is_stmt 0 view .LVU1332
 4683 003e 8091 E800 		lds r24,232
 4684               	.LVL386:
 431:../../tmk_core/protocol/lufa/lufa-abcminiuser/LUFA/Drivers/USB/Core/AVR8/../AVR8/../AVR8/Endpoint_AVR8.h **** 			}
 4685               		.loc 2 431 14 view .LVU1333
 4686               	.LBE518:
 4687               	.LBE517:
  49:../../tmk_core/protocol/lufa/lufa-abcminiuser/LUFA/Drivers/USB/Core/AVR8/Template/Template_Endpoint_Control_R.c **** 		  return ENDPOINT_RWCSTREAM_HostAborted;
 4688               		.loc 5 49 11 view .LVU1334
 4689 0042 83FD      		sbrc r24,3
 4690 0044 00C0      		rjmp .L362
  52:../../tmk_core/protocol/lufa/lufa-abcminiuser/LUFA/Drivers/USB/Core/AVR8/Template/Template_Endpoint_Control_R.c **** 		{
 4691               		.loc 5 52 3 is_stmt 1 view .LVU1335
 4692               	.LBB519:
 4693               	.LBI519:
 417:../../tmk_core/protocol/lufa/lufa-abcminiuser/LUFA/Drivers/USB/Core/AVR8/../AVR8/../AVR8/Endpoint_AVR8.h **** 			{
 4694               		.loc 2 417 23 view .LVU1336
 4695               	.LBB520:
 419:../../tmk_core/protocol/lufa/lufa-abcminiuser/LUFA/Drivers/USB/Core/AVR8/../AVR8/../AVR8/Endpoint_AVR8.h **** 			}
 4696               		.loc 2 419 5 view .LVU1337
 419:../../tmk_core/protocol/lufa/lufa-abcminiuser/LUFA/Drivers/USB/Core/AVR8/../AVR8/../AVR8/Endpoint_AVR8.h **** 			}
 4697               		.loc 2 419 14 is_stmt 0 view .LVU1338
 4698 0046 8091 E800 		lds r24,232
 4699               	.LBE520:
 4700               	.LBE519:
  52:../../tmk_core/protocol/lufa/lufa-abcminiuser/LUFA/Drivers/USB/Core/AVR8/Template/Template_Endpoint_Control_R.c **** 		{
 4701               		.loc 5 52 6 view .LVU1339
 4702 004a 82FF      		sbrs r24,2
 4703 004c 00C0      		rjmp .L354
 4704               	.L353:
 4705               	.LBB521:
 4706               	.LBI521:
 222:../../tmk_core/protocol/lufa/lufa-abcminiuser/LUFA/Drivers/USB/Core/AVR8/../AVR8/../AVR8/Endpoint_AVR8.h **** 			{
 4707               		.loc 2 222 27 is_stmt 1 view .LVU1340
 4708               	.LBB522:
 227:../../tmk_core/protocol/lufa/lufa-abcminiuser/LUFA/Drivers/USB/Core/AVR8/../AVR8/../AVR8/Endpoint_AVR8.h **** 				#elif defined(USB_SERIES_2_AVR)
 4709               		.loc 2 227 6 view .LVU1341
 227:../../tmk_core/protocol/lufa/lufa-abcminiuser/LUFA/Drivers/USB/Core/AVR8/../AVR8/../AVR8/Endpoint_AVR8.h **** 				#elif defined(USB_SERIES_2_AVR)
 4710               		.loc 2 227 25 is_stmt 0 view .LVU1342
 4711 004e 9091 F300 		lds r25,243
 227:../../tmk_core/protocol/lufa/lufa-abcminiuser/LUFA/Drivers/USB/Core/AVR8/../AVR8/../AVR8/Endpoint_AVR8.h **** 				#elif defined(USB_SERIES_2_AVR)
 4712               		.loc 2 227 40 view .LVU1343
 4713 0052 8091 F200 		lds r24,242
 4714               	.LBE522:
 4715               	.LBE521:
  54:../../tmk_core/protocol/lufa/lufa-abcminiuser/LUFA/Drivers/USB/Core/AVR8/Template/Template_Endpoint_Control_R.c **** 			{
 4716               		.loc 5 54 18 view .LVU1344
 4717 0056 892B      		or r24,r25
 4718 0058 01F0      		breq .L355
  56:../../tmk_core/protocol/lufa/lufa-abcminiuser/LUFA/Drivers/USB/Core/AVR8/Template/Template_Endpoint_Control_R.c **** 				TEMPLATE_BUFFER_MOVE(DataStream, 1);
 4719               		.loc 5 56 5 is_stmt 1 view .LVU1345
 4720               	.LBB523:
 4721               	.LBI523:
 540:../../tmk_core/protocol/lufa/lufa-abcminiuser/LUFA/Drivers/USB/Core/AVR8/../AVR8/../AVR8/Endpoint_AVR8.h **** 			{
 4722               		.loc 2 540 26 view .LVU1346
 4723               	.LBB524:
 542:../../tmk_core/protocol/lufa/lufa-abcminiuser/LUFA/Drivers/USB/Core/AVR8/../AVR8/../AVR8/Endpoint_AVR8.h **** 			}
 4724               		.loc 2 542 5 view .LVU1347
 542:../../tmk_core/protocol/lufa/lufa-abcminiuser/LUFA/Drivers/USB/Core/AVR8/../AVR8/../AVR8/Endpoint_AVR8.h **** 			}
 4725               		.loc 2 542 12 is_stmt 0 view .LVU1348
 4726 005a 6091 F100 		lds r22,241
 4727               	.LBE524:
 4728               	.LBE523:
  56:../../tmk_core/protocol/lufa/lufa-abcminiuser/LUFA/Drivers/USB/Core/AVR8/Template/Template_Endpoint_Control_R.c **** 				TEMPLATE_BUFFER_MOVE(DataStream, 1);
 4729               		.loc 5 56 5 view .LVU1349
 4730 005e C801      		movw r24,r16
 4731 0060 0E94 0000 		call eeprom_update_byte
 4732               	.LVL387:
  57:../../tmk_core/protocol/lufa/lufa-abcminiuser/LUFA/Drivers/USB/Core/AVR8/Template/Template_Endpoint_Control_R.c **** 				Length--;
 4733               		.loc 5 57 5 is_stmt 1 view .LVU1350
 4734 0064 0F5F      		subi r16,-1
 4735 0066 1F4F      		sbci r17,-1
 4736               	.LVL388:
  58:../../tmk_core/protocol/lufa/lufa-abcminiuser/LUFA/Drivers/USB/Core/AVR8/Template/Template_Endpoint_Control_R.c **** 			}
 4737               		.loc 5 58 5 view .LVU1351
  58:../../tmk_core/protocol/lufa/lufa-abcminiuser/LUFA/Drivers/USB/Core/AVR8/Template/Template_Endpoint_Control_R.c **** 			}
 4738               		.loc 5 58 11 is_stmt 0 view .LVU1352
 4739 0068 2197      		sbiw r28,1
 4740               	.LVL389:
  54:../../tmk_core/protocol/lufa/lufa-abcminiuser/LUFA/Drivers/USB/Core/AVR8/Template/Template_Endpoint_Control_R.c **** 			{
 4741               		.loc 5 54 10 view .LVU1353
 4742 006a 01F4      		brne .L353
 4743 006c 00C0      		rjmp .L355
 4744               	.L359:
  54:../../tmk_core/protocol/lufa/lufa-abcminiuser/LUFA/Drivers/USB/Core/AVR8/Template/Template_Endpoint_Control_R.c **** 			{
 4745               		.loc 5 54 10 view .LVU1354
 4746               	.LBE527:
 4747               	.LBB528:
  67:../../tmk_core/protocol/lufa/lufa-abcminiuser/LUFA/Drivers/USB/Core/AVR8/Template/Template_Endpoint_Control_R.c **** 
 4748               		.loc 5 67 3 is_stmt 1 view .LVU1355
  67:../../tmk_core/protocol/lufa/lufa-abcminiuser/LUFA/Drivers/USB/Core/AVR8/Template/Template_Endpoint_Control_R.c **** 
 4749               		.loc 5 67 11 is_stmt 0 view .LVU1356
 4750 006e 8091 0000 		lds r24,USB_DeviceState
 4751               	.LVL390:
  69:../../tmk_core/protocol/lufa/lufa-abcminiuser/LUFA/Drivers/USB/Core/AVR8/Template/Template_Endpoint_Control_R.c **** 		  return ENDPOINT_RWCSTREAM_DeviceDisconnected;
 4752               		.loc 5 69 3 is_stmt 1 view .LVU1357
  69:../../tmk_core/protocol/lufa/lufa-abcminiuser/LUFA/Drivers/USB/Core/AVR8/Template/Template_Endpoint_Control_R.c **** 		  return ENDPOINT_RWCSTREAM_DeviceDisconnected;
 4753               		.loc 5 69 6 is_stmt 0 view .LVU1358
 4754 0072 8823      		tst r24
 4755 0074 01F0      		breq .L363
  71:../../tmk_core/protocol/lufa/lufa-abcminiuser/LUFA/Drivers/USB/Core/AVR8/Template/Template_Endpoint_Control_R.c **** 		  return ENDPOINT_RWCSTREAM_BusSuspended;
 4756               		.loc 5 71 8 is_stmt 1 view .LVU1359
  71:../../tmk_core/protocol/lufa/lufa-abcminiuser/LUFA/Drivers/USB/Core/AVR8/Template/Template_Endpoint_Control_R.c **** 		  return ENDPOINT_RWCSTREAM_BusSuspended;
 4757               		.loc 5 71 11 is_stmt 0 view .LVU1360
 4758 0076 8530      		cpi r24,lo8(5)
 4759 0078 01F4      		brne .L358
 4760               	.LVL391:
 4761               	.L364:
  71:../../tmk_core/protocol/lufa/lufa-abcminiuser/LUFA/Drivers/USB/Core/AVR8/Template/Template_Endpoint_Control_R.c **** 		  return ENDPOINT_RWCSTREAM_BusSuspended;
 4762               		.loc 5 71 11 view .LVU1361
 4763               	.LBE528:
 4764               	.LBB529:
  48:../../tmk_core/protocol/lufa/lufa-abcminiuser/LUFA/Drivers/USB/Core/AVR8/Template/Template_Endpoint_Control_R.c **** 		else if (Endpoint_IsSETUPReceived())
 4765               		.loc 5 48 12 view .LVU1362
 4766 007a 83E0      		ldi r24,lo8(3)
 4767 007c 00C0      		rjmp .L349
 4768               	.L362:
  50:../../tmk_core/protocol/lufa/lufa-abcminiuser/LUFA/Drivers/USB/Core/AVR8/Template/Template_Endpoint_Control_R.c **** 
 4769               		.loc 5 50 12 view .LVU1363
 4770 007e 81E0      		ldi r24,lo8(1)
 4771 0080 00C0      		rjmp .L349
 4772               	.L363:
  46:../../tmk_core/protocol/lufa/lufa-abcminiuser/LUFA/Drivers/USB/Core/AVR8/Template/Template_Endpoint_Control_R.c **** 		else if (USB_DeviceState_LCL == DEVICE_STATE_Suspended)
 4773               		.loc 5 46 12 view .LVU1364
 4774 0082 82E0      		ldi r24,lo8(2)
 4775 0084 00C0      		rjmp .L349
 4776               	.LBE529:
 4777               		.cfi_endproc
 4778               	.LFE105:
 4780               		.section	.text.Endpoint_Read_Control_EStream_BE,"ax",@progbits
 4781               	.global	Endpoint_Read_Control_EStream_BE
 4783               	Endpoint_Read_Control_EStream_BE:
 4784               	.LVL392:
 4785               	.LFB106:
  35:../../tmk_core/protocol/lufa/lufa-abcminiuser/LUFA/Drivers/USB/Core/AVR8/Template/Template_Endpoint_Control_R.c **** 	uint8_t* DataStream = ((uint8_t*)Buffer + TEMPLATE_BUFFER_OFFSET(Length));
 4786               		.loc 5 35 1 is_stmt 1 view -0
 4787               		.cfi_startproc
  35:../../tmk_core/protocol/lufa/lufa-abcminiuser/LUFA/Drivers/USB/Core/AVR8/Template/Template_Endpoint_Control_R.c **** 	uint8_t* DataStream = ((uint8_t*)Buffer + TEMPLATE_BUFFER_OFFSET(Length));
 4788               		.loc 5 35 1 is_stmt 0 view .LVU1366
 4789 0000 0F93      		push r16
 4790               	.LCFI120:
 4791               		.cfi_def_cfa_offset 3
 4792               		.cfi_offset 16, -2
 4793 0002 1F93      		push r17
 4794               	.LCFI121:
 4795               		.cfi_def_cfa_offset 4
 4796               		.cfi_offset 17, -3
 4797 0004 CF93      		push r28
 4798               	.LCFI122:
 4799               		.cfi_def_cfa_offset 5
 4800               		.cfi_offset 28, -4
 4801 0006 DF93      		push r29
 4802               	.LCFI123:
 4803               		.cfi_def_cfa_offset 6
 4804               		.cfi_offset 29, -5
 4805               	/* prologue: function */
 4806               	/* frame size = 0 */
 4807               	/* stack size = 4 */
 4808               	.L__stack_usage = 4
 4809 0008 EB01      		movw r28,r22
  36:../../tmk_core/protocol/lufa/lufa-abcminiuser/LUFA/Drivers/USB/Core/AVR8/Template/Template_Endpoint_Control_R.c **** 
 4810               		.loc 5 36 2 is_stmt 1 view .LVU1367
  36:../../tmk_core/protocol/lufa/lufa-abcminiuser/LUFA/Drivers/USB/Core/AVR8/Template/Template_Endpoint_Control_R.c **** 
 4811               		.loc 5 36 42 is_stmt 0 view .LVU1368
 4812 000a 8B01      		movw r16,r22
 4813 000c 0150      		subi r16,1
 4814 000e 1109      		sbc r17,__zero_reg__
  36:../../tmk_core/protocol/lufa/lufa-abcminiuser/LUFA/Drivers/USB/Core/AVR8/Template/Template_Endpoint_Control_R.c **** 
 4815               		.loc 5 36 11 view .LVU1369
 4816 0010 080F      		add r16,r24
 4817 0012 191F      		adc r17,r25
 4818               	.LVL393:
  38:../../tmk_core/protocol/lufa/lufa-abcminiuser/LUFA/Drivers/USB/Core/AVR8/Template/Template_Endpoint_Control_R.c **** 	  Endpoint_ClearOUT();
 4819               		.loc 5 38 2 is_stmt 1 view .LVU1370
  38:../../tmk_core/protocol/lufa/lufa-abcminiuser/LUFA/Drivers/USB/Core/AVR8/Template/Template_Endpoint_Control_R.c **** 	  Endpoint_ClearOUT();
 4820               		.loc 5 38 5 is_stmt 0 view .LVU1371
 4821 0014 2097      		sbiw r28,0
 4822 0016 01F4      		brne .L374
 4823               	.LVL394:
 4824               	.L375:
 4825               	.LBB530:
  61:../../tmk_core/protocol/lufa/lufa-abcminiuser/LUFA/Drivers/USB/Core/AVR8/Template/Template_Endpoint_Control_R.c **** 		}
 4826               		.loc 5 61 4 is_stmt 1 view .LVU1372
 4827               	.LBB531:
 4828               	.LBI531:
 468:../../tmk_core/protocol/lufa/lufa-abcminiuser/LUFA/Drivers/USB/Core/AVR8/../AVR8/../AVR8/Endpoint_AVR8.h **** 			{
 4829               		.loc 2 468 23 view .LVU1373
 4830               	.LBB532:
 471:../../tmk_core/protocol/lufa/lufa-abcminiuser/LUFA/Drivers/USB/Core/AVR8/../AVR8/../AVR8/Endpoint_AVR8.h **** 				#else
 4831               		.loc 2 471 6 view .LVU1374
 471:../../tmk_core/protocol/lufa/lufa-abcminiuser/LUFA/Drivers/USB/Core/AVR8/../AVR8/../AVR8/Endpoint_AVR8.h **** 				#else
 4832               		.loc 2 471 13 is_stmt 0 view .LVU1375
 4833 0018 8091 E800 		lds r24,232
 4834 001c 8B77      		andi r24,lo8(123)
 4835 001e 8093 E800 		sts 232,r24
 4836               	.L374:
 471:../../tmk_core/protocol/lufa/lufa-abcminiuser/LUFA/Drivers/USB/Core/AVR8/../AVR8/../AVR8/Endpoint_AVR8.h **** 				#else
 4837               		.loc 2 471 13 view .LVU1376
 4838               	.LBE532:
 4839               	.LBE531:
 4840               	.LBE530:
  41:../../tmk_core/protocol/lufa/lufa-abcminiuser/LUFA/Drivers/USB/Core/AVR8/Template/Template_Endpoint_Control_R.c **** 	{
 4841               		.loc 5 41 8 view .LVU1377
 4842 0022 2097      		sbiw r28,0
 4843 0024 01F4      		brne .L377
 4844               	.L378:
 4845               	.LBB541:
 4846               	.LBI541:
 405:../../tmk_core/protocol/lufa/lufa-abcminiuser/LUFA/Drivers/USB/Core/AVR8/../AVR8/../AVR8/Endpoint_AVR8.h **** 			{
 4847               		.loc 2 405 23 is_stmt 1 view .LVU1378
 4848               	.LBB542:
 407:../../tmk_core/protocol/lufa/lufa-abcminiuser/LUFA/Drivers/USB/Core/AVR8/../AVR8/../AVR8/Endpoint_AVR8.h **** 			}
 4849               		.loc 2 407 5 view .LVU1379
 407:../../tmk_core/protocol/lufa/lufa-abcminiuser/LUFA/Drivers/USB/Core/AVR8/../AVR8/../AVR8/Endpoint_AVR8.h **** 			}
 4850               		.loc 2 407 14 is_stmt 0 view .LVU1380
 4851 0026 8091 E800 		lds r24,232
 4852               	.LBE542:
 4853               	.LBE541:
  65:../../tmk_core/protocol/lufa/lufa-abcminiuser/LUFA/Drivers/USB/Core/AVR8/Template/Template_Endpoint_Control_R.c **** 	{
 4854               		.loc 5 65 8 view .LVU1381
 4855 002a 80FF      		sbrs r24,0
 4856 002c 00C0      		rjmp .L379
  75:../../tmk_core/protocol/lufa/lufa-abcminiuser/LUFA/Drivers/USB/Core/AVR8/Template/Template_Endpoint_Control_R.c **** }
 4857               		.loc 5 75 9 view .LVU1382
 4858 002e 80E0      		ldi r24,0
 4859               	.L369:
 4860               	/* epilogue start */
 4861               		.loc 5 76 1 view .LVU1383
 4862 0030 DF91      		pop r29
 4863 0032 CF91      		pop r28
 4864               	.LVL395:
 4865               		.loc 5 76 1 view .LVU1384
 4866 0034 1F91      		pop r17
 4867 0036 0F91      		pop r16
 4868               	.LVL396:
 4869               		.loc 5 76 1 view .LVU1385
 4870 0038 0895      		ret
 4871               	.LVL397:
 4872               	.L377:
 4873               	.LBB543:
  43:../../tmk_core/protocol/lufa/lufa-abcminiuser/LUFA/Drivers/USB/Core/AVR8/Template/Template_Endpoint_Control_R.c **** 
 4874               		.loc 5 43 3 is_stmt 1 view .LVU1386
  43:../../tmk_core/protocol/lufa/lufa-abcminiuser/LUFA/Drivers/USB/Core/AVR8/Template/Template_Endpoint_Control_R.c **** 
 4875               		.loc 5 43 11 is_stmt 0 view .LVU1387
 4876 003a 8091 0000 		lds r24,USB_DeviceState
 4877               	.LVL398:
  45:../../tmk_core/protocol/lufa/lufa-abcminiuser/LUFA/Drivers/USB/Core/AVR8/Template/Template_Endpoint_Control_R.c **** 		  return ENDPOINT_RWCSTREAM_DeviceDisconnected;
 4878               		.loc 5 45 3 is_stmt 1 view .LVU1388
  45:../../tmk_core/protocol/lufa/lufa-abcminiuser/LUFA/Drivers/USB/Core/AVR8/Template/Template_Endpoint_Control_R.c **** 		  return ENDPOINT_RWCSTREAM_DeviceDisconnected;
 4879               		.loc 5 45 6 is_stmt 0 view .LVU1389
 4880 003e 8823      		tst r24
 4881 0040 01F0      		breq .L383
  47:../../tmk_core/protocol/lufa/lufa-abcminiuser/LUFA/Drivers/USB/Core/AVR8/Template/Template_Endpoint_Control_R.c **** 		  return ENDPOINT_RWCSTREAM_BusSuspended;
 4882               		.loc 5 47 8 is_stmt 1 view .LVU1390
  47:../../tmk_core/protocol/lufa/lufa-abcminiuser/LUFA/Drivers/USB/Core/AVR8/Template/Template_Endpoint_Control_R.c **** 		  return ENDPOINT_RWCSTREAM_BusSuspended;
 4883               		.loc 5 47 11 is_stmt 0 view .LVU1391
 4884 0042 8530      		cpi r24,lo8(5)
 4885 0044 01F0      		breq .L384
  49:../../tmk_core/protocol/lufa/lufa-abcminiuser/LUFA/Drivers/USB/Core/AVR8/Template/Template_Endpoint_Control_R.c **** 		  return ENDPOINT_RWCSTREAM_HostAborted;
 4886               		.loc 5 49 8 is_stmt 1 view .LVU1392
 4887               	.LBB533:
 4888               	.LBI533:
 429:../../tmk_core/protocol/lufa/lufa-abcminiuser/LUFA/Drivers/USB/Core/AVR8/../AVR8/../AVR8/Endpoint_AVR8.h **** 			{
 4889               		.loc 2 429 23 view .LVU1393
 4890               	.LBB534:
 431:../../tmk_core/protocol/lufa/lufa-abcminiuser/LUFA/Drivers/USB/Core/AVR8/../AVR8/../AVR8/Endpoint_AVR8.h **** 			}
 4891               		.loc 2 431 5 view .LVU1394
 431:../../tmk_core/protocol/lufa/lufa-abcminiuser/LUFA/Drivers/USB/Core/AVR8/../AVR8/../AVR8/Endpoint_AVR8.h **** 			}
 4892               		.loc 2 431 14 is_stmt 0 view .LVU1395
 4893 0046 8091 E800 		lds r24,232
 4894               	.LVL399:
 431:../../tmk_core/protocol/lufa/lufa-abcminiuser/LUFA/Drivers/USB/Core/AVR8/../AVR8/../AVR8/Endpoint_AVR8.h **** 			}
 4895               		.loc 2 431 14 view .LVU1396
 4896               	.LBE534:
 4897               	.LBE533:
  49:../../tmk_core/protocol/lufa/lufa-abcminiuser/LUFA/Drivers/USB/Core/AVR8/Template/Template_Endpoint_Control_R.c **** 		  return ENDPOINT_RWCSTREAM_HostAborted;
 4898               		.loc 5 49 11 view .LVU1397
 4899 004a 83FD      		sbrc r24,3
 4900 004c 00C0      		rjmp .L382
  52:../../tmk_core/protocol/lufa/lufa-abcminiuser/LUFA/Drivers/USB/Core/AVR8/Template/Template_Endpoint_Control_R.c **** 		{
 4901               		.loc 5 52 3 is_stmt 1 view .LVU1398
 4902               	.LBB535:
 4903               	.LBI535:
 417:../../tmk_core/protocol/lufa/lufa-abcminiuser/LUFA/Drivers/USB/Core/AVR8/../AVR8/../AVR8/Endpoint_AVR8.h **** 			{
 4904               		.loc 2 417 23 view .LVU1399
 4905               	.LBB536:
 419:../../tmk_core/protocol/lufa/lufa-abcminiuser/LUFA/Drivers/USB/Core/AVR8/../AVR8/../AVR8/Endpoint_AVR8.h **** 			}
 4906               		.loc 2 419 5 view .LVU1400
 419:../../tmk_core/protocol/lufa/lufa-abcminiuser/LUFA/Drivers/USB/Core/AVR8/../AVR8/../AVR8/Endpoint_AVR8.h **** 			}
 4907               		.loc 2 419 14 is_stmt 0 view .LVU1401
 4908 004e 8091 E800 		lds r24,232
 4909               	.LBE536:
 4910               	.LBE535:
  52:../../tmk_core/protocol/lufa/lufa-abcminiuser/LUFA/Drivers/USB/Core/AVR8/Template/Template_Endpoint_Control_R.c **** 		{
 4911               		.loc 5 52 6 view .LVU1402
 4912 0052 82FF      		sbrs r24,2
 4913 0054 00C0      		rjmp .L374
 4914               	.L373:
 4915               	.LBB537:
 4916               	.LBI537:
 222:../../tmk_core/protocol/lufa/lufa-abcminiuser/LUFA/Drivers/USB/Core/AVR8/../AVR8/../AVR8/Endpoint_AVR8.h **** 			{
 4917               		.loc 2 222 27 is_stmt 1 view .LVU1403
 4918               	.LBB538:
 227:../../tmk_core/protocol/lufa/lufa-abcminiuser/LUFA/Drivers/USB/Core/AVR8/../AVR8/../AVR8/Endpoint_AVR8.h **** 				#elif defined(USB_SERIES_2_AVR)
 4919               		.loc 2 227 6 view .LVU1404
 227:../../tmk_core/protocol/lufa/lufa-abcminiuser/LUFA/Drivers/USB/Core/AVR8/../AVR8/../AVR8/Endpoint_AVR8.h **** 				#elif defined(USB_SERIES_2_AVR)
 4920               		.loc 2 227 25 is_stmt 0 view .LVU1405
 4921 0056 9091 F300 		lds r25,243
 227:../../tmk_core/protocol/lufa/lufa-abcminiuser/LUFA/Drivers/USB/Core/AVR8/../AVR8/../AVR8/Endpoint_AVR8.h **** 				#elif defined(USB_SERIES_2_AVR)
 4922               		.loc 2 227 40 view .LVU1406
 4923 005a 8091 F200 		lds r24,242
 4924               	.LBE538:
 4925               	.LBE537:
  54:../../tmk_core/protocol/lufa/lufa-abcminiuser/LUFA/Drivers/USB/Core/AVR8/Template/Template_Endpoint_Control_R.c **** 			{
 4926               		.loc 5 54 18 view .LVU1407
 4927 005e 892B      		or r24,r25
 4928 0060 01F0      		breq .L375
  56:../../tmk_core/protocol/lufa/lufa-abcminiuser/LUFA/Drivers/USB/Core/AVR8/Template/Template_Endpoint_Control_R.c **** 				TEMPLATE_BUFFER_MOVE(DataStream, 1);
 4929               		.loc 5 56 5 is_stmt 1 view .LVU1408
 4930               	.LBB539:
 4931               	.LBI539:
 540:../../tmk_core/protocol/lufa/lufa-abcminiuser/LUFA/Drivers/USB/Core/AVR8/../AVR8/../AVR8/Endpoint_AVR8.h **** 			{
 4932               		.loc 2 540 26 view .LVU1409
 4933               	.LBB540:
 542:../../tmk_core/protocol/lufa/lufa-abcminiuser/LUFA/Drivers/USB/Core/AVR8/../AVR8/../AVR8/Endpoint_AVR8.h **** 			}
 4934               		.loc 2 542 5 view .LVU1410
 542:../../tmk_core/protocol/lufa/lufa-abcminiuser/LUFA/Drivers/USB/Core/AVR8/../AVR8/../AVR8/Endpoint_AVR8.h **** 			}
 4935               		.loc 2 542 12 is_stmt 0 view .LVU1411
 4936 0062 6091 F100 		lds r22,241
 4937               	.LBE540:
 4938               	.LBE539:
  56:../../tmk_core/protocol/lufa/lufa-abcminiuser/LUFA/Drivers/USB/Core/AVR8/Template/Template_Endpoint_Control_R.c **** 				TEMPLATE_BUFFER_MOVE(DataStream, 1);
 4939               		.loc 5 56 5 view .LVU1412
 4940 0066 C801      		movw r24,r16
 4941 0068 0E94 0000 		call eeprom_update_byte
 4942               	.LVL400:
  57:../../tmk_core/protocol/lufa/lufa-abcminiuser/LUFA/Drivers/USB/Core/AVR8/Template/Template_Endpoint_Control_R.c **** 				Length--;
 4943               		.loc 5 57 5 is_stmt 1 view .LVU1413
 4944 006c 0150      		subi r16,1
 4945 006e 1109      		sbc r17,__zero_reg__
 4946               	.LVL401:
  58:../../tmk_core/protocol/lufa/lufa-abcminiuser/LUFA/Drivers/USB/Core/AVR8/Template/Template_Endpoint_Control_R.c **** 			}
 4947               		.loc 5 58 5 view .LVU1414
  58:../../tmk_core/protocol/lufa/lufa-abcminiuser/LUFA/Drivers/USB/Core/AVR8/Template/Template_Endpoint_Control_R.c **** 			}
 4948               		.loc 5 58 11 is_stmt 0 view .LVU1415
 4949 0070 2197      		sbiw r28,1
 4950               	.LVL402:
  54:../../tmk_core/protocol/lufa/lufa-abcminiuser/LUFA/Drivers/USB/Core/AVR8/Template/Template_Endpoint_Control_R.c **** 			{
 4951               		.loc 5 54 10 view .LVU1416
 4952 0072 01F4      		brne .L373
 4953 0074 00C0      		rjmp .L375
 4954               	.L379:
  54:../../tmk_core/protocol/lufa/lufa-abcminiuser/LUFA/Drivers/USB/Core/AVR8/Template/Template_Endpoint_Control_R.c **** 			{
 4955               		.loc 5 54 10 view .LVU1417
 4956               	.LBE543:
 4957               	.LBB544:
  67:../../tmk_core/protocol/lufa/lufa-abcminiuser/LUFA/Drivers/USB/Core/AVR8/Template/Template_Endpoint_Control_R.c **** 
 4958               		.loc 5 67 3 is_stmt 1 view .LVU1418
  67:../../tmk_core/protocol/lufa/lufa-abcminiuser/LUFA/Drivers/USB/Core/AVR8/Template/Template_Endpoint_Control_R.c **** 
 4959               		.loc 5 67 11 is_stmt 0 view .LVU1419
 4960 0076 8091 0000 		lds r24,USB_DeviceState
 4961               	.LVL403:
  69:../../tmk_core/protocol/lufa/lufa-abcminiuser/LUFA/Drivers/USB/Core/AVR8/Template/Template_Endpoint_Control_R.c **** 		  return ENDPOINT_RWCSTREAM_DeviceDisconnected;
 4962               		.loc 5 69 3 is_stmt 1 view .LVU1420
  69:../../tmk_core/protocol/lufa/lufa-abcminiuser/LUFA/Drivers/USB/Core/AVR8/Template/Template_Endpoint_Control_R.c **** 		  return ENDPOINT_RWCSTREAM_DeviceDisconnected;
 4963               		.loc 5 69 6 is_stmt 0 view .LVU1421
 4964 007a 8823      		tst r24
 4965 007c 01F0      		breq .L383
  71:../../tmk_core/protocol/lufa/lufa-abcminiuser/LUFA/Drivers/USB/Core/AVR8/Template/Template_Endpoint_Control_R.c **** 		  return ENDPOINT_RWCSTREAM_BusSuspended;
 4966               		.loc 5 71 8 is_stmt 1 view .LVU1422
  71:../../tmk_core/protocol/lufa/lufa-abcminiuser/LUFA/Drivers/USB/Core/AVR8/Template/Template_Endpoint_Control_R.c **** 		  return ENDPOINT_RWCSTREAM_BusSuspended;
 4967               		.loc 5 71 11 is_stmt 0 view .LVU1423
 4968 007e 8530      		cpi r24,lo8(5)
 4969 0080 01F4      		brne .L378
 4970               	.LVL404:
 4971               	.L384:
  71:../../tmk_core/protocol/lufa/lufa-abcminiuser/LUFA/Drivers/USB/Core/AVR8/Template/Template_Endpoint_Control_R.c **** 		  return ENDPOINT_RWCSTREAM_BusSuspended;
 4972               		.loc 5 71 11 view .LVU1424
 4973               	.LBE544:
 4974               	.LBB545:
  48:../../tmk_core/protocol/lufa/lufa-abcminiuser/LUFA/Drivers/USB/Core/AVR8/Template/Template_Endpoint_Control_R.c **** 		else if (Endpoint_IsSETUPReceived())
 4975               		.loc 5 48 12 view .LVU1425
 4976 0082 83E0      		ldi r24,lo8(3)
 4977 0084 00C0      		rjmp .L369
 4978               	.L382:
  50:../../tmk_core/protocol/lufa/lufa-abcminiuser/LUFA/Drivers/USB/Core/AVR8/Template/Template_Endpoint_Control_R.c **** 
 4979               		.loc 5 50 12 view .LVU1426
 4980 0086 81E0      		ldi r24,lo8(1)
 4981 0088 00C0      		rjmp .L369
 4982               	.L383:
  46:../../tmk_core/protocol/lufa/lufa-abcminiuser/LUFA/Drivers/USB/Core/AVR8/Template/Template_Endpoint_Control_R.c **** 		else if (USB_DeviceState_LCL == DEVICE_STATE_Suspended)
 4983               		.loc 5 46 12 view .LVU1427
 4984 008a 82E0      		ldi r24,lo8(2)
 4985 008c 00C0      		rjmp .L369
 4986               	.LBE545:
 4987               		.cfi_endproc
 4988               	.LFE106:
 4990               		.text
 4991               	.Letext0:
 4992               		.file 6 "/usr/avr/include/stdint.h"
 4993               		.file 7 "../../tmk_core/protocol/lufa/lufa-abcminiuser/LUFA/Drivers/USB/Core/AVR8/../AVR8/../StdRe
 4994               		.file 8 "../../tmk_core/protocol/lufa/lufa-abcminiuser/LUFA/Drivers/USB/Core/AVR8/../AVR8/../Devic
 4995               		.file 9 "../../tmk_core/protocol/lufa/lufa-abcminiuser/LUFA/Drivers/USB/Core/AVR8/../AVR8/../Devic
 4996               		.file 10 "../../tmk_core/protocol/lufa/lufa-abcminiuser/LUFA/Drivers/USB/Core/AVR8/../AVR8/../Endp
 4997               		.file 11 "../../tmk_core/protocol/lufa/lufa-abcminiuser/LUFA/Drivers/USB/Core/AVR8/../USBTask.h"
 4998               		.file 12 "/usr/avr/include/avr/eeprom.h"
DEFINED SYMBOLS
                            *ABS*:0000000000000000 EndpointStream_AVR8.c
     /tmp/ccUeoh4E.s:2      *ABS*:000000000000003e __SP_H__
     /tmp/ccUeoh4E.s:3      *ABS*:000000000000003d __SP_L__
     /tmp/ccUeoh4E.s:4      *ABS*:000000000000003f __SREG__
     /tmp/ccUeoh4E.s:5      *ABS*:0000000000000000 __tmp_reg__
     /tmp/ccUeoh4E.s:6      *ABS*:0000000000000001 __zero_reg__
     /tmp/ccUeoh4E.s:13     .text.Endpoint_Discard_Stream:0000000000000000 Endpoint_Discard_Stream
     /tmp/ccUeoh4E.s:178    .text.Endpoint_Null_Stream:0000000000000000 Endpoint_Null_Stream
     /tmp/ccUeoh4E.s:341    .text.Endpoint_Write_Stream_LE:0000000000000000 Endpoint_Write_Stream_LE
     /tmp/ccUeoh4E.s:546    .text.Endpoint_Write_Stream_BE:0000000000000000 Endpoint_Write_Stream_BE
     /tmp/ccUeoh4E.s:760    .text.Endpoint_Read_Stream_LE:0000000000000000 Endpoint_Read_Stream_LE
     /tmp/ccUeoh4E.s:963    .text.Endpoint_Read_Stream_BE:0000000000000000 Endpoint_Read_Stream_BE
     /tmp/ccUeoh4E.s:1175   .text.Endpoint_Write_PStream_LE:0000000000000000 Endpoint_Write_PStream_LE
     /tmp/ccUeoh4E.s:1393   .text.Endpoint_Write_PStream_BE:0000000000000000 Endpoint_Write_PStream_BE
     /tmp/ccUeoh4E.s:1620   .text.Endpoint_Write_EStream_LE:0000000000000000 Endpoint_Write_EStream_LE
     /tmp/ccUeoh4E.s:1826   .text.Endpoint_Write_EStream_BE:0000000000000000 Endpoint_Write_EStream_BE
     /tmp/ccUeoh4E.s:2041   .text.Endpoint_Read_EStream_LE:0000000000000000 Endpoint_Read_EStream_LE
     /tmp/ccUeoh4E.s:2246   .text.Endpoint_Read_EStream_BE:0000000000000000 Endpoint_Read_EStream_BE
     /tmp/ccUeoh4E.s:2460   .text.Endpoint_Write_Control_Stream_LE:0000000000000000 Endpoint_Write_Control_Stream_LE
     /tmp/ccUeoh4E.s:2736   .text.Endpoint_Write_Control_Stream_BE:0000000000000000 Endpoint_Write_Control_Stream_BE
     /tmp/ccUeoh4E.s:3015   .text.Endpoint_Read_Control_Stream_LE:0000000000000000 Endpoint_Read_Control_Stream_LE
     /tmp/ccUeoh4E.s:3196   .text.Endpoint_Read_Control_Stream_BE:0000000000000000 Endpoint_Read_Control_Stream_BE
     /tmp/ccUeoh4E.s:3386   .text.Endpoint_Write_Control_PStream_LE:0000000000000000 Endpoint_Write_Control_PStream_LE
     /tmp/ccUeoh4E.s:3673   .text.Endpoint_Write_Control_PStream_BE:0000000000000000 Endpoint_Write_Control_PStream_BE
     /tmp/ccUeoh4E.s:3962   .text.Endpoint_Write_Control_EStream_LE:0000000000000000 Endpoint_Write_Control_EStream_LE
     /tmp/ccUeoh4E.s:4267   .text.Endpoint_Write_Control_EStream_BE:0000000000000000 Endpoint_Write_Control_EStream_BE
     /tmp/ccUeoh4E.s:4579   .text.Endpoint_Read_Control_EStream_LE:0000000000000000 Endpoint_Read_Control_EStream_LE
     /tmp/ccUeoh4E.s:4783   .text.Endpoint_Read_Control_EStream_BE:0000000000000000 Endpoint_Read_Control_EStream_BE

UNDEFINED SYMBOLS
Endpoint_WaitUntilReady
eeprom_read_byte
eeprom_update_byte
USB_ControlRequest
USB_DeviceState
